ARM GAS  /tmp/ccFAWoIz.s 			page 1


   1              		.syntax unified
   2              		.cpu cortex-m4
   3              		.eabi_attribute 27, 3
   4              		.eabi_attribute 28, 1
   5              		.fpu fpv4-sp-d16
   6              		.eabi_attribute 20, 1
   7              		.eabi_attribute 21, 1
   8              		.eabi_attribute 23, 3
   9              		.eabi_attribute 24, 1
  10              		.eabi_attribute 25, 1
  11              		.eabi_attribute 26, 1
  12              		.eabi_attribute 30, 6
  13              		.eabi_attribute 34, 1
  14              		.eabi_attribute 18, 4
  15              		.thumb
  16              		.file	"adc.c"
  17              		.text
  18              	.Ltext0:
  19              		.cfi_sections	.debug_frame
  20              		.section	.text.adcInit,"ax",%progbits
  21              		.align	2
  22              		.p2align 4,,15
  23              		.global	adcInit
  24              		.thumb
  25              		.thumb_func
  26              		.type	adcInit, %function
  27              	adcInit:
  28              	.LFB118:
  29              		.file 1 "/home/denny/r2p-sdk/core/ChibiOS/os/hal/src/adc.c"
  30              		.loc 1 68 0
  31              		.cfi_startproc
  32              		@ args = 0, pretend = 0, frame = 0
  33              		@ frame_needed = 0, uses_anonymous_args = 0
  34 0000 08B5     		push	{r3, lr}
  35              		.cfi_def_cfa_offset 8
  36              		.cfi_offset 3, -8
  37              		.cfi_offset 14, -4
  38              		.loc 1 70 0
  39 0002 FFF7FEFF 		bl	adc_lld_init
  40              		.loc 1 71 0
  41 0006 08BD     		pop	{r3, pc}
  42              		.cfi_endproc
  43              	.LFE118:
  44              		.size	adcInit, .-adcInit
  45 0008 AFF30080 		.section	.text.adcObjectInit,"ax",%progbits
  45      AFF30080 
  46              		.align	2
  47              		.p2align 4,,15
  48              		.global	adcObjectInit
  49              		.thumb
  50              		.thumb_func
  51              		.type	adcObjectInit, %function
  52              	adcObjectInit:
  53              	.LFB119:
  54              		.loc 1 80 0
  55              		.cfi_startproc
  56              		@ args = 0, pretend = 0, frame = 8
ARM GAS  /tmp/ccFAWoIz.s 			page 2


  57              		@ frame_needed = 0, uses_anonymous_args = 0
  58 0000 00B5     		push	{lr}
  59              		.cfi_def_cfa_offset 4
  60              		.cfi_offset 14, -4
  61 0002 83B0     		sub	sp, sp, #12
  62              		.cfi_def_cfa_offset 16
  63 0004 0190     		str	r0, [sp, #4]
  64              		.loc 1 82 0
  65 0006 019B     		ldr	r3, [sp, #4]
  66 0008 0122     		movs	r2, #1
  67 000a 1A70     		strb	r2, [r3]
  68              		.loc 1 83 0
  69 000c 019B     		ldr	r3, [sp, #4]
  70 000e 0022     		movs	r2, #0
  71 0010 5A60     		str	r2, [r3, #4]
  72              		.loc 1 84 0
  73 0012 019B     		ldr	r3, [sp, #4]
  74 0014 0022     		movs	r2, #0
  75 0016 9A60     		str	r2, [r3, #8]
  76              		.loc 1 85 0
  77 0018 019B     		ldr	r3, [sp, #4]
  78 001a 0022     		movs	r2, #0
  79 001c DA60     		str	r2, [r3, #12]
  80              		.loc 1 86 0
  81 001e 019B     		ldr	r3, [sp, #4]
  82 0020 0022     		movs	r2, #0
  83 0022 1A61     		str	r2, [r3, #16]
  84              		.loc 1 88 0
  85 0024 019B     		ldr	r3, [sp, #4]
  86 0026 0022     		movs	r2, #0
  87 0028 5A61     		str	r2, [r3, #20]
  88              		.loc 1 92 0
  89 002a 019B     		ldr	r3, [sp, #4]
  90 002c 1833     		adds	r3, r3, #24
  91 002e 1846     		mov	r0, r3
  92 0030 FFF7FEFF 		bl	chMtxInit
  93              		.loc 1 100 0
  94 0034 03B0     		add	sp, sp, #12
  95              		.cfi_def_cfa_offset 4
  96              		@ sp needed
  97 0036 5DF804FB 		ldr	pc, [sp], #4
  98              		.cfi_endproc
  99              	.LFE119:
 100              		.size	adcObjectInit, .-adcObjectInit
 101 003a 00BFAFF3 		.section	.rodata
 101      0080
 102              		.align	2
 103              	.LC0:
 104 0000 22616463 		.ascii	"\"adcStart\"()\000"
 104      53746172 
 104      74222829 
 104      00
 105 000d 000000   		.align	2
 106              	.LC1:
 107 0010 61646353 		.ascii	"adcStart(), #1\000"
 107      74617274 
 107      28292C20 
ARM GAS  /tmp/ccFAWoIz.s 			page 3


 107      233100
 108              		.section	.text.adcStart,"ax",%progbits
 109              		.align	2
 110              		.p2align 4,,15
 111              		.global	adcStart
 112              		.thumb
 113              		.thumb_func
 114              		.type	adcStart, %function
 115              	adcStart:
 116              	.LFB120:
 117              		.loc 1 111 0
 118              		.cfi_startproc
 119              		@ args = 0, pretend = 0, frame = 8
 120              		@ frame_needed = 0, uses_anonymous_args = 0
 121 0000 00B5     		push	{lr}
 122              		.cfi_def_cfa_offset 4
 123              		.cfi_offset 14, -4
 124 0002 83B0     		sub	sp, sp, #12
 125              		.cfi_def_cfa_offset 16
 126 0004 0190     		str	r0, [sp, #4]
 127 0006 0091     		str	r1, [sp]
 128              		.loc 1 113 0
 129 0008 019B     		ldr	r3, [sp, #4]
 130 000a 002B     		cmp	r3, #0
 131 000c 02D1     		bne	.L4
 132              		.loc 1 113 0 is_stmt 0 discriminator 1
 133 000e 1248     		ldr	r0, .L6
 134 0010 FFF7FEFF 		bl	chDbgPanic
 135              	.L4:
 136              	.LBB2:
 137              		.loc 1 115 0 is_stmt 1
 138 0014 2023     		movs	r3, #32
 139              	@ 115 "/home/denny/r2p-sdk/core/ChibiOS/os/hal/src/adc.c" 1
 140 0016 83F31188 		msr     BASEPRI, r3
 141              	@ 0 "" 2
 142              		.thumb
 143              	.LBE2:
 144 001a FFF7FEFF 		bl	dbg_check_lock
 145              		.loc 1 116 0
 146 001e 019B     		ldr	r3, [sp, #4]
 147 0020 1B78     		ldrb	r3, [r3]	@ zero_extendqisi2
 148 0022 012B     		cmp	r3, #1
 149 0024 06D0     		beq	.L5
 150              		.loc 1 116 0 is_stmt 0 discriminator 1
 151 0026 019B     		ldr	r3, [sp, #4]
 152 0028 1B78     		ldrb	r3, [r3]	@ zero_extendqisi2
 153 002a 022B     		cmp	r3, #2
 154 002c 02D0     		beq	.L5
 155              		.loc 1 116 0 discriminator 2
 156 002e 0B48     		ldr	r0, .L6+4
 157 0030 FFF7FEFF 		bl	chDbgPanic
 158              	.L5:
 159              		.loc 1 118 0 is_stmt 1
 160 0034 019B     		ldr	r3, [sp, #4]
 161 0036 009A     		ldr	r2, [sp]
 162 0038 5A60     		str	r2, [r3, #4]
 163              		.loc 1 119 0
ARM GAS  /tmp/ccFAWoIz.s 			page 4


 164 003a 0198     		ldr	r0, [sp, #4]
 165 003c FFF7FEFF 		bl	adc_lld_start
 166              		.loc 1 120 0
 167 0040 019B     		ldr	r3, [sp, #4]
 168 0042 0222     		movs	r2, #2
 169 0044 1A70     		strb	r2, [r3]
 170              		.loc 1 121 0
 171 0046 FFF7FEFF 		bl	dbg_check_unlock
 172              	.LBB3:
 173 004a 0023     		movs	r3, #0
 174              	@ 121 "/home/denny/r2p-sdk/core/ChibiOS/os/hal/src/adc.c" 1
 175 004c 83F31188 		msr     BASEPRI, r3
 176              	@ 0 "" 2
 177              		.thumb
 178              	.LBE3:
 179              		.loc 1 122 0
 180 0050 03B0     		add	sp, sp, #12
 181              		.cfi_def_cfa_offset 4
 182              		@ sp needed
 183 0052 5DF804FB 		ldr	pc, [sp], #4
 184              	.L7:
 185 0056 00BF     		.align	2
 186              	.L6:
 187 0058 00000000 		.word	.LC0
 188 005c 10000000 		.word	.LC1
 189              		.cfi_endproc
 190              	.LFE120:
 191              		.size	adcStart, .-adcStart
 192              		.section	.rodata
 193 001f 00       		.align	2
 194              	.LC2:
 195 0020 22616463 		.ascii	"\"adcStop\"()\000"
 195      53746F70 
 195      22282900 
 196              		.align	2
 197              	.LC3:
 198 002c 61646353 		.ascii	"adcStop(), #1\000"
 198      746F7028 
 198      292C2023 
 198      3100
 199              		.section	.text.adcStop,"ax",%progbits
 200              		.align	2
 201              		.p2align 4,,15
 202              		.global	adcStop
 203              		.thumb
 204              		.thumb_func
 205              		.type	adcStop, %function
 206              	adcStop:
 207              	.LFB121:
 208              		.loc 1 131 0
 209              		.cfi_startproc
 210              		@ args = 0, pretend = 0, frame = 8
 211              		@ frame_needed = 0, uses_anonymous_args = 0
 212 0000 00B5     		push	{lr}
 213              		.cfi_def_cfa_offset 4
 214              		.cfi_offset 14, -4
 215 0002 83B0     		sub	sp, sp, #12
ARM GAS  /tmp/ccFAWoIz.s 			page 5


 216              		.cfi_def_cfa_offset 16
 217 0004 0190     		str	r0, [sp, #4]
 218              		.loc 1 133 0
 219 0006 019B     		ldr	r3, [sp, #4]
 220 0008 002B     		cmp	r3, #0
 221 000a 02D1     		bne	.L9
 222              		.loc 1 133 0 is_stmt 0 discriminator 1
 223 000c 1048     		ldr	r0, .L11
 224 000e FFF7FEFF 		bl	chDbgPanic
 225              	.L9:
 226              	.LBB4:
 227              		.loc 1 135 0 is_stmt 1
 228 0012 2023     		movs	r3, #32
 229              	@ 135 "/home/denny/r2p-sdk/core/ChibiOS/os/hal/src/adc.c" 1
 230 0014 83F31188 		msr     BASEPRI, r3
 231              	@ 0 "" 2
 232              		.thumb
 233              	.LBE4:
 234 0018 FFF7FEFF 		bl	dbg_check_lock
 235              		.loc 1 136 0
 236 001c 019B     		ldr	r3, [sp, #4]
 237 001e 1B78     		ldrb	r3, [r3]	@ zero_extendqisi2
 238 0020 012B     		cmp	r3, #1
 239 0022 06D0     		beq	.L10
 240              		.loc 1 136 0 is_stmt 0 discriminator 1
 241 0024 019B     		ldr	r3, [sp, #4]
 242 0026 1B78     		ldrb	r3, [r3]	@ zero_extendqisi2
 243 0028 022B     		cmp	r3, #2
 244 002a 02D0     		beq	.L10
 245              		.loc 1 136 0 discriminator 2
 246 002c 0948     		ldr	r0, .L11+4
 247 002e FFF7FEFF 		bl	chDbgPanic
 248              	.L10:
 249              		.loc 1 138 0 is_stmt 1
 250 0032 0198     		ldr	r0, [sp, #4]
 251 0034 FFF7FEFF 		bl	adc_lld_stop
 252              		.loc 1 139 0
 253 0038 019B     		ldr	r3, [sp, #4]
 254 003a 0122     		movs	r2, #1
 255 003c 1A70     		strb	r2, [r3]
 256              		.loc 1 140 0
 257 003e FFF7FEFF 		bl	dbg_check_unlock
 258              	.LBB5:
 259 0042 0023     		movs	r3, #0
 260              	@ 140 "/home/denny/r2p-sdk/core/ChibiOS/os/hal/src/adc.c" 1
 261 0044 83F31188 		msr     BASEPRI, r3
 262              	@ 0 "" 2
 263              		.thumb
 264              	.LBE5:
 265              		.loc 1 141 0
 266 0048 03B0     		add	sp, sp, #12
 267              		.cfi_def_cfa_offset 4
 268              		@ sp needed
 269 004a 5DF804FB 		ldr	pc, [sp], #4
 270              	.L12:
 271 004e 00BF     		.align	2
 272              	.L11:
ARM GAS  /tmp/ccFAWoIz.s 			page 6


 273 0050 20000000 		.word	.LC2
 274 0054 2C000000 		.word	.LC3
 275              		.cfi_endproc
 276              	.LFE121:
 277              		.size	adcStop, .-adcStop
 278 0058 AFF30080 		.section	.text.adcStartConversion,"ax",%progbits
 278      AFF30080 
 279              		.align	2
 280              		.p2align 4,,15
 281              		.global	adcStartConversion
 282              		.thumb
 283              		.thumb_func
 284              		.type	adcStartConversion, %function
 285              	adcStartConversion:
 286              	.LFB122:
 287              		.loc 1 162 0
 288              		.cfi_startproc
 289              		@ args = 0, pretend = 0, frame = 16
 290              		@ frame_needed = 0, uses_anonymous_args = 0
 291 0000 00B5     		push	{lr}
 292              		.cfi_def_cfa_offset 4
 293              		.cfi_offset 14, -4
 294 0002 85B0     		sub	sp, sp, #20
 295              		.cfi_def_cfa_offset 24
 296 0004 0390     		str	r0, [sp, #12]
 297 0006 0291     		str	r1, [sp, #8]
 298 0008 0192     		str	r2, [sp, #4]
 299 000a 0093     		str	r3, [sp]
 300              	.LBB6:
 301              		.loc 1 164 0
 302 000c 2023     		movs	r3, #32
 303              	@ 164 "/home/denny/r2p-sdk/core/ChibiOS/os/hal/src/adc.c" 1
 304 000e 83F31188 		msr     BASEPRI, r3
 305              	@ 0 "" 2
 306              		.thumb
 307              	.LBE6:
 308 0012 FFF7FEFF 		bl	dbg_check_lock
 309              		.loc 1 165 0
 310 0016 0398     		ldr	r0, [sp, #12]
 311 0018 0299     		ldr	r1, [sp, #8]
 312 001a 019A     		ldr	r2, [sp, #4]
 313 001c 009B     		ldr	r3, [sp]
 314 001e FFF7FEFF 		bl	adcStartConversionI
 315              		.loc 1 166 0
 316 0022 FFF7FEFF 		bl	dbg_check_unlock
 317              	.LBB7:
 318 0026 0023     		movs	r3, #0
 319              	@ 166 "/home/denny/r2p-sdk/core/ChibiOS/os/hal/src/adc.c" 1
 320 0028 83F31188 		msr     BASEPRI, r3
 321              	@ 0 "" 2
 322              		.thumb
 323              	.LBE7:
 324              		.loc 1 167 0
 325 002c 05B0     		add	sp, sp, #20
 326              		.cfi_def_cfa_offset 4
 327              		@ sp needed
 328 002e 5DF804FB 		ldr	pc, [sp], #4
ARM GAS  /tmp/ccFAWoIz.s 			page 7


 329              		.cfi_endproc
 330              	.LFE122:
 331              		.size	adcStartConversion, .-adcStartConversion
 332 0032 00BFAFF3 		.section	.rodata
 332      0080AFF3 
 332      0080AFF3 
 332      0080
 333 003a 0000     		.align	2
 334              	.LC4:
 335 003c 22616463 		.ascii	"\"adcStartConversionI\"()\000"
 335      53746172 
 335      74436F6E 
 335      76657273 
 335      696F6E49 
 336              		.align	2
 337              	.LC5:
 338 0054 61646353 		.ascii	"adcStartConversionI(), #1\000"
 338      74617274 
 338      436F6E76 
 338      65727369 
 338      6F6E4928 
 339              		.section	.text.adcStartConversionI,"ax",%progbits
 340              		.align	2
 341              		.p2align 4,,15
 342              		.global	adcStartConversionI
 343              		.thumb
 344              		.thumb_func
 345              		.type	adcStartConversionI, %function
 346              	adcStartConversionI:
 347              	.LFB123:
 348              		.loc 1 190 0
 349              		.cfi_startproc
 350              		@ args = 0, pretend = 0, frame = 16
 351              		@ frame_needed = 0, uses_anonymous_args = 0
 352 0000 00B5     		push	{lr}
 353              		.cfi_def_cfa_offset 4
 354              		.cfi_offset 14, -4
 355 0002 85B0     		sub	sp, sp, #20
 356              		.cfi_def_cfa_offset 24
 357 0004 0390     		str	r0, [sp, #12]
 358 0006 0291     		str	r1, [sp, #8]
 359 0008 0192     		str	r2, [sp, #4]
 360 000a 0093     		str	r3, [sp]
 361              		.loc 1 192 0
 362 000c FFF7FEFF 		bl	chDbgCheckClassI
 363              		.loc 1 193 0
 364 0010 039B     		ldr	r3, [sp, #12]
 365 0012 002B     		cmp	r3, #0
 366 0014 0DD0     		beq	.L15
 367              		.loc 1 193 0 is_stmt 0 discriminator 2
 368 0016 029B     		ldr	r3, [sp, #8]
 369 0018 002B     		cmp	r3, #0
 370 001a 0AD0     		beq	.L15
 371              		.loc 1 193 0 discriminator 4
 372 001c 019B     		ldr	r3, [sp, #4]
 373 001e 002B     		cmp	r3, #0
 374 0020 07D0     		beq	.L15
ARM GAS  /tmp/ccFAWoIz.s 			page 8


 375              		.loc 1 193 0 discriminator 6
 376 0022 009B     		ldr	r3, [sp]
 377 0024 012B     		cmp	r3, #1
 378 0026 07D0     		beq	.L16
 379              		.loc 1 193 0 discriminator 7
 380 0028 009B     		ldr	r3, [sp]
 381 002a 03F00103 		and	r3, r3, #1
 382 002e 002B     		cmp	r3, #0
 383 0030 02D0     		beq	.L16
 384              	.L15:
 385              		.loc 1 193 0 discriminator 8
 386 0032 1248     		ldr	r0, .L18
 387 0034 FFF7FEFF 		bl	chDbgPanic
 388              	.L16:
 389              		.loc 1 196 0 is_stmt 1
 390 0038 039B     		ldr	r3, [sp, #12]
 391 003a 1B78     		ldrb	r3, [r3]	@ zero_extendqisi2
 392 003c 022B     		cmp	r3, #2
 393 003e 0AD0     		beq	.L17
 394              		.loc 1 196 0 is_stmt 0 discriminator 1
 395 0040 039B     		ldr	r3, [sp, #12]
 396 0042 1B78     		ldrb	r3, [r3]	@ zero_extendqisi2
 397 0044 042B     		cmp	r3, #4
 398 0046 06D0     		beq	.L17
 399              		.loc 1 196 0 discriminator 2
 400 0048 039B     		ldr	r3, [sp, #12]
 401 004a 1B78     		ldrb	r3, [r3]	@ zero_extendqisi2
 402 004c 052B     		cmp	r3, #5
 403 004e 02D0     		beq	.L17
 404              		.loc 1 196 0 discriminator 3
 405 0050 0B48     		ldr	r0, .L18+4
 406 0052 FFF7FEFF 		bl	chDbgPanic
 407              	.L17:
 408              		.loc 1 201 0 is_stmt 1
 409 0056 039B     		ldr	r3, [sp, #12]
 410 0058 019A     		ldr	r2, [sp, #4]
 411 005a 9A60     		str	r2, [r3, #8]
 412              		.loc 1 202 0
 413 005c 039B     		ldr	r3, [sp, #12]
 414 005e 009A     		ldr	r2, [sp]
 415 0060 DA60     		str	r2, [r3, #12]
 416              		.loc 1 203 0
 417 0062 039B     		ldr	r3, [sp, #12]
 418 0064 029A     		ldr	r2, [sp, #8]
 419 0066 1A61     		str	r2, [r3, #16]
 420              		.loc 1 204 0
 421 0068 039B     		ldr	r3, [sp, #12]
 422 006a 0322     		movs	r2, #3
 423 006c 1A70     		strb	r2, [r3]
 424              		.loc 1 205 0
 425 006e 0398     		ldr	r0, [sp, #12]
 426 0070 FFF7FEFF 		bl	adc_lld_start_conversion
 427              		.loc 1 206 0
 428 0074 05B0     		add	sp, sp, #20
 429              		.cfi_def_cfa_offset 4
 430              		@ sp needed
 431 0076 5DF804FB 		ldr	pc, [sp], #4
ARM GAS  /tmp/ccFAWoIz.s 			page 9


 432              	.L19:
 433 007a 00BF     		.align	2
 434              	.L18:
 435 007c 3C000000 		.word	.LC4
 436 0080 54000000 		.word	.LC5
 437              		.cfi_endproc
 438              	.LFE123:
 439              		.size	adcStartConversionI, .-adcStartConversionI
 440 0084 AFF30080 		.section	.rodata
 440      AFF30080 
 440      AFF30080 
 441 006e 0000     		.align	2
 442              	.LC6:
 443 0070 22616463 		.ascii	"\"adcStopConversion\"()\000"
 443      53746F70 
 443      436F6E76 
 443      65727369 
 443      6F6E2228 
 444 0086 0000     		.align	2
 445              	.LC7:
 446 0088 61646353 		.ascii	"adcStopConversion(), #1\000"
 446      746F7043 
 446      6F6E7665 
 446      7273696F 
 446      6E28292C 
 447              		.section	.text.adcStopConversion,"ax",%progbits
 448              		.align	2
 449              		.p2align 4,,15
 450              		.global	adcStopConversion
 451              		.thumb
 452              		.thumb_func
 453              		.type	adcStopConversion, %function
 454              	adcStopConversion:
 455              	.LFB124:
 456              		.loc 1 218 0
 457              		.cfi_startproc
 458              		@ args = 0, pretend = 0, frame = 16
 459              		@ frame_needed = 0, uses_anonymous_args = 0
 460 0000 00B5     		push	{lr}
 461              		.cfi_def_cfa_offset 4
 462              		.cfi_offset 14, -4
 463 0002 85B0     		sub	sp, sp, #20
 464              		.cfi_def_cfa_offset 24
 465 0004 0190     		str	r0, [sp, #4]
 466              		.loc 1 220 0
 467 0006 019B     		ldr	r3, [sp, #4]
 468 0008 002B     		cmp	r3, #0
 469 000a 02D1     		bne	.L21
 470              		.loc 1 220 0 is_stmt 0 discriminator 1
 471 000c 1B48     		ldr	r0, .L24
 472 000e FFF7FEFF 		bl	chDbgPanic
 473              	.L21:
 474              	.LBB8:
 475              		.loc 1 222 0 is_stmt 1
 476 0012 2023     		movs	r3, #32
 477              	@ 222 "/home/denny/r2p-sdk/core/ChibiOS/os/hal/src/adc.c" 1
 478 0014 83F31188 		msr     BASEPRI, r3
ARM GAS  /tmp/ccFAWoIz.s 			page 10


 479              	@ 0 "" 2
 480              		.thumb
 481              	.LBE8:
 482 0018 FFF7FEFF 		bl	dbg_check_lock
 483              		.loc 1 223 0
 484 001c 019B     		ldr	r3, [sp, #4]
 485 001e 1B78     		ldrb	r3, [r3]	@ zero_extendqisi2
 486 0020 022B     		cmp	r3, #2
 487 0022 06D0     		beq	.L22
 488              		.loc 1 223 0 is_stmt 0 discriminator 1
 489 0024 019B     		ldr	r3, [sp, #4]
 490 0026 1B78     		ldrb	r3, [r3]	@ zero_extendqisi2
 491 0028 032B     		cmp	r3, #3
 492 002a 02D0     		beq	.L22
 493              		.loc 1 223 0 discriminator 2
 494 002c 1448     		ldr	r0, .L24+4
 495 002e FFF7FEFF 		bl	chDbgPanic
 496              	.L22:
 497              		.loc 1 226 0 is_stmt 1
 498 0032 019B     		ldr	r3, [sp, #4]
 499 0034 1B78     		ldrb	r3, [r3]	@ zero_extendqisi2
 500 0036 022B     		cmp	r3, #2
 501 0038 17D0     		beq	.L23
 502              		.loc 1 227 0
 503 003a 0198     		ldr	r0, [sp, #4]
 504 003c FFF7FEFF 		bl	adc_lld_stop_conversion
 505              		.loc 1 228 0
 506 0040 019B     		ldr	r3, [sp, #4]
 507 0042 0022     		movs	r2, #0
 508 0044 1A61     		str	r2, [r3, #16]
 509              		.loc 1 229 0
 510 0046 019B     		ldr	r3, [sp, #4]
 511 0048 0222     		movs	r2, #2
 512 004a 1A70     		strb	r2, [r3]
 513              		.loc 1 230 0
 514 004c 019B     		ldr	r3, [sp, #4]
 515 004e 5B69     		ldr	r3, [r3, #20]
 516 0050 002B     		cmp	r3, #0
 517 0052 0AD0     		beq	.L23
 518              	.LBB9:
 519              		.loc 1 230 0 is_stmt 0 discriminator 1
 520 0054 019B     		ldr	r3, [sp, #4]
 521 0056 5B69     		ldr	r3, [r3, #20]
 522 0058 0393     		str	r3, [sp, #12]
 523 005a 019B     		ldr	r3, [sp, #4]
 524 005c 0022     		movs	r2, #0
 525 005e 5A61     		str	r2, [r3, #20]
 526 0060 0398     		ldr	r0, [sp, #12]
 527 0062 6FF00101 		mvn	r1, #1
 528 0066 FFF7FEFF 		bl	chSchWakeupS
 529              	.L23:
 530              	.LBE9:
 531              		.loc 1 232 0 is_stmt 1
 532 006a FFF7FEFF 		bl	dbg_check_unlock
 533              	.LBB10:
 534 006e 0023     		movs	r3, #0
 535              	@ 232 "/home/denny/r2p-sdk/core/ChibiOS/os/hal/src/adc.c" 1
ARM GAS  /tmp/ccFAWoIz.s 			page 11


 536 0070 83F31188 		msr     BASEPRI, r3
 537              	@ 0 "" 2
 538              		.thumb
 539              	.LBE10:
 540              		.loc 1 233 0
 541 0074 05B0     		add	sp, sp, #20
 542              		.cfi_def_cfa_offset 4
 543              		@ sp needed
 544 0076 5DF804FB 		ldr	pc, [sp], #4
 545              	.L25:
 546 007a 00BF     		.align	2
 547              	.L24:
 548 007c 70000000 		.word	.LC6
 549 0080 88000000 		.word	.LC7
 550              		.cfi_endproc
 551              	.LFE124:
 552              		.size	adcStopConversion, .-adcStopConversion
 553 0084 AFF30080 		.section	.rodata
 553      AFF30080 
 553      AFF30080 
 554              		.align	2
 555              	.LC8:
 556 00a0 22616463 		.ascii	"\"adcStopConversionI\"()\000"
 556      53746F70 
 556      436F6E76 
 556      65727369 
 556      6F6E4922 
 557 00b7 00       		.align	2
 558              	.LC9:
 559 00b8 61646353 		.ascii	"adcStopConversionI(), #1\000"
 559      746F7043 
 559      6F6E7665 
 559      7273696F 
 559      6E492829 
 560              		.section	.text.adcStopConversionI,"ax",%progbits
 561              		.align	2
 562              		.p2align 4,,15
 563              		.global	adcStopConversionI
 564              		.thumb
 565              		.thumb_func
 566              		.type	adcStopConversionI, %function
 567              	adcStopConversionI:
 568              	.LFB125:
 569              		.loc 1 245 0
 570              		.cfi_startproc
 571              		@ args = 0, pretend = 0, frame = 16
 572              		@ frame_needed = 0, uses_anonymous_args = 0
 573 0000 00B5     		push	{lr}
 574              		.cfi_def_cfa_offset 4
 575              		.cfi_offset 14, -4
 576 0002 85B0     		sub	sp, sp, #20
 577              		.cfi_def_cfa_offset 24
 578 0004 0190     		str	r0, [sp, #4]
 579              		.loc 1 247 0
 580 0006 FFF7FEFF 		bl	chDbgCheckClassI
 581              		.loc 1 248 0
 582 000a 019B     		ldr	r3, [sp, #4]
ARM GAS  /tmp/ccFAWoIz.s 			page 12


 583 000c 002B     		cmp	r3, #0
 584 000e 02D1     		bne	.L27
 585              		.loc 1 248 0 is_stmt 0 discriminator 1
 586 0010 1948     		ldr	r0, .L30
 587 0012 FFF7FEFF 		bl	chDbgPanic
 588              	.L27:
 589              		.loc 1 249 0 is_stmt 1
 590 0016 019B     		ldr	r3, [sp, #4]
 591 0018 1B78     		ldrb	r3, [r3]	@ zero_extendqisi2
 592 001a 022B     		cmp	r3, #2
 593 001c 0AD0     		beq	.L28
 594              		.loc 1 249 0 is_stmt 0 discriminator 1
 595 001e 019B     		ldr	r3, [sp, #4]
 596 0020 1B78     		ldrb	r3, [r3]	@ zero_extendqisi2
 597 0022 032B     		cmp	r3, #3
 598 0024 06D0     		beq	.L28
 599              		.loc 1 249 0 discriminator 2
 600 0026 019B     		ldr	r3, [sp, #4]
 601 0028 1B78     		ldrb	r3, [r3]	@ zero_extendqisi2
 602 002a 042B     		cmp	r3, #4
 603 002c 02D0     		beq	.L28
 604              		.loc 1 249 0 discriminator 3
 605 002e 1348     		ldr	r0, .L30+4
 606 0030 FFF7FEFF 		bl	chDbgPanic
 607              	.L28:
 608              		.loc 1 254 0 is_stmt 1
 609 0034 019B     		ldr	r3, [sp, #4]
 610 0036 1B78     		ldrb	r3, [r3]	@ zero_extendqisi2
 611 0038 022B     		cmp	r3, #2
 612 003a 19D0     		beq	.L26
 613              		.loc 1 255 0
 614 003c 0198     		ldr	r0, [sp, #4]
 615 003e FFF7FEFF 		bl	adc_lld_stop_conversion
 616              		.loc 1 256 0
 617 0042 019B     		ldr	r3, [sp, #4]
 618 0044 0022     		movs	r2, #0
 619 0046 1A61     		str	r2, [r3, #16]
 620              		.loc 1 257 0
 621 0048 019B     		ldr	r3, [sp, #4]
 622 004a 0222     		movs	r2, #2
 623 004c 1A70     		strb	r2, [r3]
 624              		.loc 1 258 0
 625 004e 019B     		ldr	r3, [sp, #4]
 626 0050 5B69     		ldr	r3, [r3, #20]
 627 0052 002B     		cmp	r3, #0
 628 0054 0CD0     		beq	.L26
 629              	.LBB11:
 630              		.loc 1 258 0 is_stmt 0 discriminator 1
 631 0056 019B     		ldr	r3, [sp, #4]
 632 0058 5B69     		ldr	r3, [r3, #20]
 633 005a 0393     		str	r3, [sp, #12]
 634 005c 019B     		ldr	r3, [sp, #4]
 635 005e 0022     		movs	r2, #0
 636 0060 5A61     		str	r2, [r3, #20]
 637 0062 039B     		ldr	r3, [sp, #12]
 638 0064 6FF00102 		mvn	r2, #1
 639 0068 9A62     		str	r2, [r3, #40]
ARM GAS  /tmp/ccFAWoIz.s 			page 13


 640 006a 0398     		ldr	r0, [sp, #12]
 641 006c FFF7FEFF 		bl	chSchReadyI
 642              	.L26:
 643              	.LBE11:
 644              		.loc 1 260 0 is_stmt 1
 645 0070 05B0     		add	sp, sp, #20
 646              		.cfi_def_cfa_offset 4
 647              		@ sp needed
 648 0072 5DF804FB 		ldr	pc, [sp], #4
 649              	.L31:
 650 0076 00BF     		.align	2
 651              	.L30:
 652 0078 A0000000 		.word	.LC8
 653 007c B8000000 		.word	.LC9
 654              		.cfi_endproc
 655              	.LFE125:
 656              		.size	adcStopConversionI, .-adcStopConversionI
 657              		.section	.rodata
 658 00d1 000000   		.align	2
 659              	.LC10:
 660 00d4 61646343 		.ascii	"adcConvert(), #1\000"
 660      6F6E7665 
 660      72742829 
 660      2C202331 
 660      00
 661              		.section	.text.adcConvert,"ax",%progbits
 662              		.align	2
 663              		.p2align 4,,15
 664              		.global	adcConvert
 665              		.thumb
 666              		.thumb_func
 667              		.type	adcConvert, %function
 668              	adcConvert:
 669              	.LFB126:
 670              		.loc 1 289 0
 671              		.cfi_startproc
 672              		@ args = 0, pretend = 0, frame = 24
 673              		@ frame_needed = 0, uses_anonymous_args = 0
 674 0000 00B5     		push	{lr}
 675              		.cfi_def_cfa_offset 4
 676              		.cfi_offset 14, -4
 677 0002 87B0     		sub	sp, sp, #28
 678              		.cfi_def_cfa_offset 32
 679 0004 0390     		str	r0, [sp, #12]
 680 0006 0291     		str	r1, [sp, #8]
 681 0008 0192     		str	r2, [sp, #4]
 682 000a 0093     		str	r3, [sp]
 683              	.LBB12:
 684              		.loc 1 292 0
 685 000c 2023     		movs	r3, #32
 686              	@ 292 "/home/denny/r2p-sdk/core/ChibiOS/os/hal/src/adc.c" 1
 687 000e 83F31188 		msr     BASEPRI, r3
 688              	@ 0 "" 2
 689              		.thumb
 690              	.LBE12:
 691 0012 FFF7FEFF 		bl	dbg_check_lock
 692              		.loc 1 293 0
ARM GAS  /tmp/ccFAWoIz.s 			page 14


 693 0016 039B     		ldr	r3, [sp, #12]
 694 0018 5B69     		ldr	r3, [r3, #20]
 695 001a 002B     		cmp	r3, #0
 696 001c 02D0     		beq	.L33
 697              		.loc 1 293 0 is_stmt 0 discriminator 1
 698 001e 0F48     		ldr	r0, .L35
 699 0020 FFF7FEFF 		bl	chDbgPanic
 700              	.L33:
 701              		.loc 1 294 0 is_stmt 1
 702 0024 0398     		ldr	r0, [sp, #12]
 703 0026 0299     		ldr	r1, [sp, #8]
 704 0028 019A     		ldr	r2, [sp, #4]
 705 002a 009B     		ldr	r3, [sp]
 706 002c FFF7FEFF 		bl	adcStartConversionI
 707              		.loc 1 295 0
 708 0030 0B4B     		ldr	r3, .L35+4
 709 0032 9A69     		ldr	r2, [r3, #24]
 710 0034 039B     		ldr	r3, [sp, #12]
 711 0036 5A61     		str	r2, [r3, #20]
 712              		.loc 1 296 0
 713 0038 0220     		movs	r0, #2
 714 003a FFF7FEFF 		bl	chSchGoSleepS
 715              		.loc 1 297 0
 716 003e 084B     		ldr	r3, .L35+4
 717 0040 9B69     		ldr	r3, [r3, #24]
 718 0042 9B6A     		ldr	r3, [r3, #40]
 719 0044 0593     		str	r3, [sp, #20]
 720              		.loc 1 298 0
 721 0046 FFF7FEFF 		bl	dbg_check_unlock
 722              	.LBB13:
 723 004a 0023     		movs	r3, #0
 724              	@ 298 "/home/denny/r2p-sdk/core/ChibiOS/os/hal/src/adc.c" 1
 725 004c 83F31188 		msr     BASEPRI, r3
 726              	@ 0 "" 2
 727              		.thumb
 728              	.LBE13:
 729              		.loc 1 299 0
 730 0050 059B     		ldr	r3, [sp, #20]
 731              		.loc 1 300 0
 732 0052 1846     		mov	r0, r3
 733 0054 07B0     		add	sp, sp, #28
 734              		.cfi_def_cfa_offset 4
 735              		@ sp needed
 736 0056 5DF804FB 		ldr	pc, [sp], #4
 737              	.L36:
 738 005a 00BF     		.align	2
 739              	.L35:
 740 005c D4000000 		.word	.LC10
 741 0060 00000000 		.word	rlist
 742              		.cfi_endproc
 743              	.LFE126:
 744              		.size	adcConvert, .-adcConvert
 745 0064 AFF30080 		.section	.rodata
 745      AFF30080 
 745      AFF30080 
 746 00e5 000000   		.align	2
 747              	.LC11:
ARM GAS  /tmp/ccFAWoIz.s 			page 15


 748 00e8 22616463 		.ascii	"\"adcAcquireBus\"()\000"
 748      41637175 
 748      69726542 
 748      75732228 
 748      2900
 749              		.section	.text.adcAcquireBus,"ax",%progbits
 750              		.align	2
 751              		.p2align 4,,15
 752              		.global	adcAcquireBus
 753              		.thumb
 754              		.thumb_func
 755              		.type	adcAcquireBus, %function
 756              	adcAcquireBus:
 757              	.LFB127:
 758              		.loc 1 315 0
 759              		.cfi_startproc
 760              		@ args = 0, pretend = 0, frame = 8
 761              		@ frame_needed = 0, uses_anonymous_args = 0
 762 0000 00B5     		push	{lr}
 763              		.cfi_def_cfa_offset 4
 764              		.cfi_offset 14, -4
 765 0002 83B0     		sub	sp, sp, #12
 766              		.cfi_def_cfa_offset 16
 767 0004 0190     		str	r0, [sp, #4]
 768              		.loc 1 317 0
 769 0006 019B     		ldr	r3, [sp, #4]
 770 0008 002B     		cmp	r3, #0
 771 000a 02D1     		bne	.L38
 772              		.loc 1 317 0 is_stmt 0 discriminator 1
 773 000c 0548     		ldr	r0, .L39
 774 000e FFF7FEFF 		bl	chDbgPanic
 775              	.L38:
 776              		.loc 1 320 0 is_stmt 1
 777 0012 019B     		ldr	r3, [sp, #4]
 778 0014 1833     		adds	r3, r3, #24
 779 0016 1846     		mov	r0, r3
 780 0018 FFF7FEFF 		bl	chMtxLock
 781              		.loc 1 324 0
 782 001c 03B0     		add	sp, sp, #12
 783              		.cfi_def_cfa_offset 4
 784              		@ sp needed
 785 001e 5DF804FB 		ldr	pc, [sp], #4
 786              	.L40:
 787 0022 00BF     		.align	2
 788              	.L39:
 789 0024 E8000000 		.word	.LC11
 790              		.cfi_endproc
 791              	.LFE127:
 792              		.size	adcAcquireBus, .-adcAcquireBus
 793 0028 AFF30080 		.section	.rodata
 793      AFF30080 
 794 00fa 0000     		.align	2
 795              	.LC12:
 796 00fc 22616463 		.ascii	"\"adcReleaseBus\"()\000"
 796      52656C65 
 796      61736542 
 796      75732228 
ARM GAS  /tmp/ccFAWoIz.s 			page 16


 796      2900
 797 010e 0000     		.section	.text.adcReleaseBus,"ax",%progbits
 798              		.align	2
 799              		.p2align 4,,15
 800              		.global	adcReleaseBus
 801              		.thumb
 802              		.thumb_func
 803              		.type	adcReleaseBus, %function
 804              	adcReleaseBus:
 805              	.LFB128:
 806              		.loc 1 335 0
 807              		.cfi_startproc
 808              		@ args = 0, pretend = 0, frame = 8
 809              		@ frame_needed = 0, uses_anonymous_args = 0
 810 0000 00B5     		push	{lr}
 811              		.cfi_def_cfa_offset 4
 812              		.cfi_offset 14, -4
 813 0002 83B0     		sub	sp, sp, #12
 814              		.cfi_def_cfa_offset 16
 815 0004 0190     		str	r0, [sp, #4]
 816              		.loc 1 337 0
 817 0006 019B     		ldr	r3, [sp, #4]
 818 0008 002B     		cmp	r3, #0
 819 000a 02D1     		bne	.L42
 820              		.loc 1 337 0 is_stmt 0 discriminator 1
 821 000c 0348     		ldr	r0, .L43
 822 000e FFF7FEFF 		bl	chDbgPanic
 823              	.L42:
 824              		.loc 1 341 0 is_stmt 1
 825 0012 FFF7FEFF 		bl	chMtxUnlock
 826              		.loc 1 345 0
 827 0016 03B0     		add	sp, sp, #12
 828              		.cfi_def_cfa_offset 4
 829              		@ sp needed
 830 0018 5DF804FB 		ldr	pc, [sp], #4
 831              	.L44:
 832              		.align	2
 833              	.L43:
 834 001c FC000000 		.word	.LC12
 835              		.cfi_endproc
 836              	.LFE128:
 837              		.size	adcReleaseBus, .-adcReleaseBus
 838              		.text
 839              	.Letext0:
 840              		.file 2 "/home/denny/r2p-sdk/tools/gcc-arm-none-eabi-4_9-2014q4/lib/gcc/arm-none-eabi/4.9.3/includ
 841              		.file 3 "/home/denny/r2p-sdk/tools/gcc-arm-none-eabi-4_9-2014q4/arm-none-eabi/include/machine/_def
 842              		.file 4 "/home/denny/r2p-sdk/tools/gcc-arm-none-eabi-4_9-2014q4/arm-none-eabi/include/stdint.h"
 843              		.file 5 "/home/denny/r2p-sdk/core/ChibiOS/os/ports/GCC/ARMCMx/chtypes.h"
 844              		.file 6 "/home/denny/r2p-sdk/core/ChibiOS/os/kernel/include/chlists.h"
 845              		.file 7 "/home/denny/r2p-sdk/core/ChibiOS/os/kernel/include/chthreads.h"
 846              		.file 8 "/home/denny/r2p-sdk/core/ChibiOS/os/ports/GCC/ARMCMx/chcore_v7m.h"
 847              		.file 9 "/home/denny/r2p-sdk/core/ChibiOS/os/kernel/include/chschd.h"
 848              		.file 10 "/home/denny/r2p-sdk/core/ChibiOS/os/kernel/include/chmtx.h"
 849              		.file 11 "/home/denny/r2p-sdk/core/ChibiOS/os/hal/platforms/STM32F30x/stm32f30x.h"
 850              		.file 12 "/home/denny/r2p-sdk/core/ChibiOS/os/hal/platforms/STM32F30x/stm32_dma.h"
 851              		.file 13 "/home/denny/r2p-sdk/core/ChibiOS/os/hal/include/adc.h"
 852              		.file 14 "/home/denny/r2p-sdk/core/ChibiOS/os/hal/platforms/STM32F30x/adc_lld.h"
ARM GAS  /tmp/ccFAWoIz.s 			page 17


 853              		.file 15 "/home/denny/r2p-sdk/core/ChibiOS/os/ports/common/ARMCMx/CMSIS/include/core_cm4.h"