ARM GAS  /tmp/cc4bbnn2.s 			page 1


   1              		.syntax unified
   2              		.cpu cortex-m4
   3              		.eabi_attribute 27, 3
   4              		.eabi_attribute 28, 1
   5              		.fpu fpv4-sp-d16
   6              		.eabi_attribute 20, 1
   7              		.eabi_attribute 21, 1
   8              		.eabi_attribute 23, 3
   9              		.eabi_attribute 24, 1
  10              		.eabi_attribute 25, 1
  11              		.eabi_attribute 26, 1
  12              		.eabi_attribute 30, 6
  13              		.eabi_attribute 34, 1
  14              		.eabi_attribute 18, 4
  15              		.thumb
  16              		.file	"adc_lld.c"
  17              		.text
  18              	.Ltext0:
  19              		.cfi_sections	.debug_frame
  20              		.global	diocane
  21              		.section	.data.diocane,"aw",%progbits
  22              		.align	2
  23              		.type	diocane, %object
  24              		.size	diocane, 4
  25              	diocane:
  26 0000 7B000000 		.word	123
  27              		.global	ADCD1
  28              		.section	.bss.ADCD1,"aw",%nobits
  29              		.align	2
  30              		.type	ADCD1, %object
  31              		.size	ADCD1, 56
  32              	ADCD1:
  33 0000 00000000 		.space	56
  33      00000000 
  33      00000000 
  33      00000000 
  33      00000000 
  34              		.section	.text.adc_lld_vreg_on,"ax",%progbits
  35              		.align	2
  36              		.p2align 4,,15
  37              		.thumb
  38              		.thumb_func
  39              		.type	adc_lld_vreg_on, %function
  40              	adc_lld_vreg_on:
  41              	.LFB118:
  42              		.file 1 "/home/denny/r2p-sdk/core/ChibiOS/os/hal/platforms/STM32F30x/adc_lld.c"
  43              		.loc 1 86 0
  44              		.cfi_startproc
  45              		@ args = 0, pretend = 0, frame = 8
  46              		@ frame_needed = 0, uses_anonymous_args = 0
  47 0000 00B5     		push	{lr}
  48              		.cfi_def_cfa_offset 4
  49              		.cfi_offset 14, -4
  50 0002 83B0     		sub	sp, sp, #12
  51              		.cfi_def_cfa_offset 16
  52 0004 0190     		str	r0, [sp, #4]
  53              		.loc 1 88 0
ARM GAS  /tmp/cc4bbnn2.s 			page 2


  54 0006 019B     		ldr	r3, [sp, #4]
  55 0008 DB6A     		ldr	r3, [r3, #44]
  56 000a 0022     		movs	r2, #0
  57 000c 9A60     		str	r2, [r3, #8]
  58              		.loc 1 89 0
  59 000e 019B     		ldr	r3, [sp, #4]
  60 0010 DB6A     		ldr	r3, [r3, #44]
  61 0012 4FF08052 		mov	r2, #268435456
  62 0016 9A60     		str	r2, [r3, #8]
  63              		.loc 1 93 0
  64 0018 4FF43470 		mov	r0, #720
  65 001c FFF7FEFF 		bl	halPolledDelay
  66              		.loc 1 94 0
  67 0020 03B0     		add	sp, sp, #12
  68              		.cfi_def_cfa_offset 4
  69              		@ sp needed
  70 0022 5DF804FB 		ldr	pc, [sp], #4
  71              		.cfi_endproc
  72              	.LFE118:
  73              		.size	adc_lld_vreg_on, .-adc_lld_vreg_on
  74 0026 00BFAFF3 		.section	.text.adc_lld_vreg_off,"ax",%progbits
  74      0080AFF3 
  74      0080
  75              		.align	2
  76              		.p2align 4,,15
  77              		.thumb
  78              		.thumb_func
  79              		.type	adc_lld_vreg_off, %function
  80              	adc_lld_vreg_off:
  81              	.LFB119:
  82              		.loc 1 101 0
  83              		.cfi_startproc
  84              		@ args = 0, pretend = 0, frame = 8
  85              		@ frame_needed = 0, uses_anonymous_args = 0
  86              		@ link register save eliminated.
  87 0000 82B0     		sub	sp, sp, #8
  88              		.cfi_def_cfa_offset 8
  89 0002 0190     		str	r0, [sp, #4]
  90              		.loc 1 103 0
  91 0004 019B     		ldr	r3, [sp, #4]
  92 0006 DB6A     		ldr	r3, [r3, #44]
  93 0008 0022     		movs	r2, #0
  94 000a 9A60     		str	r2, [r3, #8]
  95              		.loc 1 104 0
  96 000c 019B     		ldr	r3, [sp, #4]
  97 000e DB6A     		ldr	r3, [r3, #44]
  98 0010 4FF00052 		mov	r2, #536870912
  99 0014 9A60     		str	r2, [r3, #8]
 100              		.loc 1 108 0
 101 0016 02B0     		add	sp, sp, #8
 102              		.cfi_def_cfa_offset 0
 103              		@ sp needed
 104 0018 7047     		bx	lr
 105              		.cfi_endproc
 106              	.LFE119:
 107              		.size	adc_lld_vreg_off, .-adc_lld_vreg_off
 108 001a 00BFAFF3 		.section	.text.adc_lld_analog_on,"ax",%progbits
ARM GAS  /tmp/cc4bbnn2.s 			page 3


 108      0080
 109              		.align	2
 110              		.p2align 4,,15
 111              		.thumb
 112              		.thumb_func
 113              		.type	adc_lld_analog_on, %function
 114              	adc_lld_analog_on:
 115              	.LFB120:
 116              		.loc 1 115 0
 117              		.cfi_startproc
 118              		@ args = 0, pretend = 0, frame = 8
 119              		@ frame_needed = 0, uses_anonymous_args = 0
 120              		@ link register save eliminated.
 121 0000 82B0     		sub	sp, sp, #8
 122              		.cfi_def_cfa_offset 8
 123 0002 0190     		str	r0, [sp, #4]
 124              		.loc 1 117 0
 125 0004 019B     		ldr	r3, [sp, #4]
 126 0006 DB6A     		ldr	r3, [r3, #44]
 127 0008 019A     		ldr	r2, [sp, #4]
 128 000a D26A     		ldr	r2, [r2, #44]
 129 000c 9268     		ldr	r2, [r2, #8]
 130 000e 42F00102 		orr	r2, r2, #1
 131 0012 9A60     		str	r2, [r3, #8]
 132              		.loc 1 118 0
 133 0014 00BF     		nop
 134              	.L4:
 135              		.loc 1 118 0 is_stmt 0 discriminator 1
 136 0016 019B     		ldr	r3, [sp, #4]
 137 0018 DB6A     		ldr	r3, [r3, #44]
 138 001a 1B68     		ldr	r3, [r3]
 139 001c 03F00103 		and	r3, r3, #1
 140 0020 002B     		cmp	r3, #0
 141 0022 F8D0     		beq	.L4
 142              		.loc 1 125 0 is_stmt 1
 143 0024 02B0     		add	sp, sp, #8
 144              		.cfi_def_cfa_offset 0
 145              		@ sp needed
 146 0026 7047     		bx	lr
 147              		.cfi_endproc
 148              	.LFE120:
 149              		.size	adc_lld_analog_on, .-adc_lld_analog_on
 150 0028 AFF30080 		.section	.text.adc_lld_analog_off,"ax",%progbits
 150      AFF30080 
 151              		.align	2
 152              		.p2align 4,,15
 153              		.thumb
 154              		.thumb_func
 155              		.type	adc_lld_analog_off, %function
 156              	adc_lld_analog_off:
 157              	.LFB121:
 158              		.loc 1 132 0
 159              		.cfi_startproc
 160              		@ args = 0, pretend = 0, frame = 8
 161              		@ frame_needed = 0, uses_anonymous_args = 0
 162              		@ link register save eliminated.
 163 0000 82B0     		sub	sp, sp, #8
ARM GAS  /tmp/cc4bbnn2.s 			page 4


 164              		.cfi_def_cfa_offset 8
 165 0002 0190     		str	r0, [sp, #4]
 166              		.loc 1 134 0
 167 0004 019B     		ldr	r3, [sp, #4]
 168 0006 DB6A     		ldr	r3, [r3, #44]
 169 0008 019A     		ldr	r2, [sp, #4]
 170 000a D26A     		ldr	r2, [r2, #44]
 171 000c 9268     		ldr	r2, [r2, #8]
 172 000e 42F00202 		orr	r2, r2, #2
 173 0012 9A60     		str	r2, [r3, #8]
 174              		.loc 1 135 0
 175 0014 00BF     		nop
 176              	.L6:
 177              		.loc 1 135 0 is_stmt 0 discriminator 1
 178 0016 019B     		ldr	r3, [sp, #4]
 179 0018 DB6A     		ldr	r3, [r3, #44]
 180 001a 9B68     		ldr	r3, [r3, #8]
 181 001c 03F00203 		and	r3, r3, #2
 182 0020 002B     		cmp	r3, #0
 183 0022 F8D1     		bne	.L6
 184              		.loc 1 142 0 is_stmt 1
 185 0024 02B0     		add	sp, sp, #8
 186              		.cfi_def_cfa_offset 0
 187              		@ sp needed
 188 0026 7047     		bx	lr
 189              		.cfi_endproc
 190              	.LFE121:
 191              		.size	adc_lld_analog_off, .-adc_lld_analog_off
 192 0028 AFF30080 		.section	.rodata
 192      AFF30080 
 193              		.align	2
 194              	.LC0:
 195 0000 6164635F 		.ascii	"adc_lld_calibrate(), #1\000"
 195      6C6C645F 
 195      63616C69 
 195      62726174 
 195      6528292C 
 196              		.section	.text.adc_lld_calibrate,"ax",%progbits
 197              		.align	2
 198              		.p2align 4,,15
 199              		.thumb
 200              		.thumb_func
 201              		.type	adc_lld_calibrate, %function
 202              	adc_lld_calibrate:
 203              	.LFB122:
 204              		.loc 1 149 0
 205              		.cfi_startproc
 206              		@ args = 0, pretend = 0, frame = 8
 207              		@ frame_needed = 0, uses_anonymous_args = 0
 208 0000 00B5     		push	{lr}
 209              		.cfi_def_cfa_offset 4
 210              		.cfi_offset 14, -4
 211 0002 83B0     		sub	sp, sp, #12
 212              		.cfi_def_cfa_offset 16
 213 0004 0190     		str	r0, [sp, #4]
 214              		.loc 1 151 0
 215 0006 019B     		ldr	r3, [sp, #4]
ARM GAS  /tmp/cc4bbnn2.s 			page 5


 216 0008 DB6A     		ldr	r3, [r3, #44]
 217 000a 9B68     		ldr	r3, [r3, #8]
 218 000c B3F1805F 		cmp	r3, #268435456
 219 0010 02D0     		beq	.L8
 220              		.loc 1 151 0 is_stmt 0 discriminator 1
 221 0012 0A48     		ldr	r0, .L10
 222 0014 FFF7FEFF 		bl	chDbgPanic
 223              	.L8:
 224              		.loc 1 153 0 is_stmt 1
 225 0018 019B     		ldr	r3, [sp, #4]
 226 001a DB6A     		ldr	r3, [r3, #44]
 227 001c 019A     		ldr	r2, [sp, #4]
 228 001e D26A     		ldr	r2, [r2, #44]
 229 0020 9268     		ldr	r2, [r2, #8]
 230 0022 42F00042 		orr	r2, r2, #-2147483648
 231 0026 9A60     		str	r2, [r3, #8]
 232              		.loc 1 154 0
 233 0028 00BF     		nop
 234              	.L9:
 235              		.loc 1 154 0 is_stmt 0 discriminator 1
 236 002a 019B     		ldr	r3, [sp, #4]
 237 002c DB6A     		ldr	r3, [r3, #44]
 238 002e 9B68     		ldr	r3, [r3, #8]
 239 0030 002B     		cmp	r3, #0
 240 0032 FADB     		blt	.L9
 241              		.loc 1 163 0 is_stmt 1
 242 0034 03B0     		add	sp, sp, #12
 243              		.cfi_def_cfa_offset 4
 244              		@ sp needed
 245 0036 5DF804FB 		ldr	pc, [sp], #4
 246              	.L11:
 247 003a 00BF     		.align	2
 248              	.L10:
 249 003c 00000000 		.word	.LC0
 250              		.cfi_endproc
 251              	.LFE122:
 252              		.size	adc_lld_calibrate, .-adc_lld_calibrate
 253              		.section	.text.adc_lld_stop_adc,"ax",%progbits
 254              		.align	2
 255              		.p2align 4,,15
 256              		.thumb
 257              		.thumb_func
 258              		.type	adc_lld_stop_adc, %function
 259              	adc_lld_stop_adc:
 260              	.LFB123:
 261              		.loc 1 170 0
 262              		.cfi_startproc
 263              		@ args = 0, pretend = 0, frame = 8
 264              		@ frame_needed = 0, uses_anonymous_args = 0
 265              		@ link register save eliminated.
 266 0000 82B0     		sub	sp, sp, #8
 267              		.cfi_def_cfa_offset 8
 268 0002 0190     		str	r0, [sp, #4]
 269              		.loc 1 172 0
 270 0004 019B     		ldr	r3, [sp, #4]
 271 0006 DB6A     		ldr	r3, [r3, #44]
 272 0008 9B68     		ldr	r3, [r3, #8]
ARM GAS  /tmp/cc4bbnn2.s 			page 6


 273 000a 03F00403 		and	r3, r3, #4
 274 000e 002B     		cmp	r3, #0
 275 0010 0FD0     		beq	.L12
 276              		.loc 1 173 0
 277 0012 019B     		ldr	r3, [sp, #4]
 278 0014 DB6A     		ldr	r3, [r3, #44]
 279 0016 019A     		ldr	r2, [sp, #4]
 280 0018 D26A     		ldr	r2, [r2, #44]
 281 001a 9268     		ldr	r2, [r2, #8]
 282 001c 42F01002 		orr	r2, r2, #16
 283 0020 9A60     		str	r2, [r3, #8]
 284              		.loc 1 174 0
 285 0022 00BF     		nop
 286              	.L14:
 287              		.loc 1 174 0 is_stmt 0 discriminator 1
 288 0024 019B     		ldr	r3, [sp, #4]
 289 0026 DB6A     		ldr	r3, [r3, #44]
 290 0028 9B68     		ldr	r3, [r3, #8]
 291 002a 03F01003 		and	r3, r3, #16
 292 002e 002B     		cmp	r3, #0
 293 0030 F8D1     		bne	.L14
 294              	.L12:
 295              		.loc 1 177 0 is_stmt 1
 296 0032 02B0     		add	sp, sp, #8
 297              		.cfi_def_cfa_offset 0
 298              		@ sp needed
 299 0034 7047     		bx	lr
 300              		.cfi_endproc
 301              	.LFE123:
 302              		.size	adc_lld_stop_adc, .-adc_lld_stop_adc
 303 0036 00BFAFF3 		.section	.text.adc_lld_serve_dma_interrupt,"ax",%progbits
 303      0080AFF3 
 303      0080
 304              		.align	2
 305              		.p2align 4,,15
 306              		.thumb
 307              		.thumb_func
 308              		.type	adc_lld_serve_dma_interrupt, %function
 309              	adc_lld_serve_dma_interrupt:
 310              	.LFB124:
 311              		.loc 1 185 0
 312              		.cfi_startproc
 313              		@ args = 0, pretend = 0, frame = 24
 314              		@ frame_needed = 0, uses_anonymous_args = 0
 315 0000 00B5     		push	{lr}
 316              		.cfi_def_cfa_offset 4
 317              		.cfi_offset 14, -4
 318 0002 87B0     		sub	sp, sp, #28
 319              		.cfi_def_cfa_offset 32
 320 0004 0190     		str	r0, [sp, #4]
 321 0006 0091     		str	r1, [sp]
 322              		.loc 1 188 0
 323 0008 009B     		ldr	r3, [sp]
 324 000a 03F00803 		and	r3, r3, #8
 325 000e 002B     		cmp	r3, #0
 326 0010 36D0     		beq	.L16
 327              		.loc 1 191 0
ARM GAS  /tmp/cc4bbnn2.s 			page 7


 328 0012 0198     		ldr	r0, [sp, #4]
 329 0014 FFF7FEFF 		bl	adc_lld_stop_conversion
 330 0018 019B     		ldr	r3, [sp, #4]
 331 001a 1B69     		ldr	r3, [r3, #16]
 332 001c 9B68     		ldr	r3, [r3, #8]
 333 001e 002B     		cmp	r3, #0
 334 0020 0FD0     		beq	.L17
 335              		.loc 1 191 0 is_stmt 0 discriminator 1
 336 0022 019B     		ldr	r3, [sp, #4]
 337 0024 0522     		movs	r2, #5
 338 0026 1A70     		strb	r2, [r3]
 339 0028 019B     		ldr	r3, [sp, #4]
 340 002a 1B69     		ldr	r3, [r3, #16]
 341 002c 9B68     		ldr	r3, [r3, #8]
 342 002e 0198     		ldr	r0, [sp, #4]
 343 0030 0021     		movs	r1, #0
 344 0032 9847     		blx	r3
 345 0034 019B     		ldr	r3, [sp, #4]
 346 0036 1B78     		ldrb	r3, [r3]	@ zero_extendqisi2
 347 0038 052B     		cmp	r3, #5
 348 003a 02D1     		bne	.L17
 349              		.loc 1 191 0 discriminator 3
 350 003c 019B     		ldr	r3, [sp, #4]
 351 003e 0222     		movs	r2, #2
 352 0040 1A70     		strb	r2, [r3]
 353              	.L17:
 354              		.loc 1 191 0 discriminator 5
 355 0042 019B     		ldr	r3, [sp, #4]
 356 0044 0022     		movs	r2, #0
 357 0046 1A61     		str	r2, [r3, #16]
 358              	.LBB2:
 359 0048 2023     		movs	r3, #32
 360              	@ 191 "/home/denny/r2p-sdk/core/ChibiOS/os/hal/platforms/STM32F30x/adc_lld.c" 1
 361 004a 83F31188 		msr     BASEPRI, r3
 362              	@ 0 "" 2
 363              		.thumb
 364              	.LBE2:
 365 004e FFF7FEFF 		bl	dbg_check_lock_from_isr
 366 0052 019B     		ldr	r3, [sp, #4]
 367 0054 5B69     		ldr	r3, [r3, #20]
 368 0056 002B     		cmp	r3, #0
 369 0058 0CD0     		beq	.L18
 370              	.LBB3:
 371              		.loc 1 191 0 discriminator 6
 372 005a 019B     		ldr	r3, [sp, #4]
 373 005c 5B69     		ldr	r3, [r3, #20]
 374 005e 0593     		str	r3, [sp, #20]
 375 0060 019B     		ldr	r3, [sp, #4]
 376 0062 0022     		movs	r2, #0
 377 0064 5A61     		str	r2, [r3, #20]
 378 0066 059B     		ldr	r3, [sp, #20]
 379 0068 4FF0FF32 		mov	r2, #-1
 380 006c 9A62     		str	r2, [r3, #40]
 381 006e 0598     		ldr	r0, [sp, #20]
 382 0070 FFF7FEFF 		bl	chSchReadyI
 383              	.L18:
 384              	.LBE3:
ARM GAS  /tmp/cc4bbnn2.s 			page 8


 385              		.loc 1 191 0 discriminator 8
 386 0074 FFF7FEFF 		bl	dbg_check_unlock_from_isr
 387              	.LBB4:
 388 0078 0023     		movs	r3, #0
 389              	@ 191 "/home/denny/r2p-sdk/core/ChibiOS/os/hal/platforms/STM32F30x/adc_lld.c" 1
 390 007a 83F31188 		msr     BASEPRI, r3
 391              	@ 0 "" 2
 392              		.thumb
 393              	.LBE4:
 394 007e 8EE0     		b	.L15
 395              	.L16:
 396              		.loc 1 196 0 is_stmt 1
 397 0080 019B     		ldr	r3, [sp, #4]
 398 0082 1B69     		ldr	r3, [r3, #16]
 399 0084 002B     		cmp	r3, #0
 400 0086 00F08A80 		beq	.L15
 401              		.loc 1 197 0
 402 008a 009B     		ldr	r3, [sp]
 403 008c 03F00203 		and	r3, r3, #2
 404 0090 002B     		cmp	r3, #0
 405 0092 70D0     		beq	.L20
 406              		.loc 1 199 0
 407 0094 019B     		ldr	r3, [sp, #4]
 408 0096 1B69     		ldr	r3, [r3, #16]
 409 0098 1B78     		ldrb	r3, [r3]	@ zero_extendqisi2
 410 009a 002B     		cmp	r3, #0
 411 009c 2BD0     		beq	.L21
 412              		.loc 1 199 0 is_stmt 0 discriminator 1
 413 009e 019B     		ldr	r3, [sp, #4]
 414 00a0 1B69     		ldr	r3, [r3, #16]
 415 00a2 5B68     		ldr	r3, [r3, #4]
 416 00a4 002B     		cmp	r3, #0
 417 00a6 7AD0     		beq	.L15
 418              		.loc 1 199 0 discriminator 3
 419 00a8 019B     		ldr	r3, [sp, #4]
 420 00aa DB68     		ldr	r3, [r3, #12]
 421 00ac 012B     		cmp	r3, #1
 422 00ae 18D9     		bls	.L23
 423              	.LBB5:
 424              		.loc 1 199 0 discriminator 4
 425 00b0 019B     		ldr	r3, [sp, #4]
 426 00b2 DB68     		ldr	r3, [r3, #12]
 427 00b4 5B08     		lsrs	r3, r3, #1
 428 00b6 0493     		str	r3, [sp, #16]
 429 00b8 019B     		ldr	r3, [sp, #4]
 430 00ba 1B69     		ldr	r3, [r3, #16]
 431 00bc 5B88     		ldrh	r3, [r3, #2]
 432 00be 1A46     		mov	r2, r3
 433 00c0 049B     		ldr	r3, [sp, #16]
 434 00c2 03FB02F3 		mul	r3, r3, r2
 435 00c6 0393     		str	r3, [sp, #12]
 436 00c8 019B     		ldr	r3, [sp, #4]
 437 00ca 1B69     		ldr	r3, [r3, #16]
 438 00cc 5B68     		ldr	r3, [r3, #4]
 439 00ce 019A     		ldr	r2, [sp, #4]
 440 00d0 9168     		ldr	r1, [r2, #8]
 441 00d2 039A     		ldr	r2, [sp, #12]
ARM GAS  /tmp/cc4bbnn2.s 			page 9


 442 00d4 5200     		lsls	r2, r2, #1
 443 00d6 0A44     		add	r2, r2, r1
 444 00d8 0198     		ldr	r0, [sp, #4]
 445 00da 1146     		mov	r1, r2
 446 00dc 049A     		ldr	r2, [sp, #16]
 447 00de 9847     		blx	r3
 448              	.LBE5:
 449 00e0 5DE0     		b	.L15
 450              	.L23:
 451              		.loc 1 199 0 discriminator 5
 452 00e2 019B     		ldr	r3, [sp, #4]
 453 00e4 1B69     		ldr	r3, [r3, #16]
 454 00e6 5B68     		ldr	r3, [r3, #4]
 455 00e8 019A     		ldr	r2, [sp, #4]
 456 00ea 9168     		ldr	r1, [r2, #8]
 457 00ec 019A     		ldr	r2, [sp, #4]
 458 00ee D268     		ldr	r2, [r2, #12]
 459 00f0 0198     		ldr	r0, [sp, #4]
 460 00f2 9847     		blx	r3
 461 00f4 53E0     		b	.L15
 462              	.L21:
 463              		.loc 1 199 0 discriminator 2
 464 00f6 0198     		ldr	r0, [sp, #4]
 465 00f8 FFF7FEFF 		bl	adc_lld_stop_conversion
 466 00fc 019B     		ldr	r3, [sp, #4]
 467 00fe 1B69     		ldr	r3, [r3, #16]
 468 0100 5B68     		ldr	r3, [r3, #4]
 469 0102 002B     		cmp	r3, #0
 470 0104 16D0     		beq	.L25
 471              		.loc 1 199 0 discriminator 6
 472 0106 019B     		ldr	r3, [sp, #4]
 473 0108 0422     		movs	r2, #4
 474 010a 1A70     		strb	r2, [r3]
 475 010c 019B     		ldr	r3, [sp, #4]
 476 010e 1B69     		ldr	r3, [r3, #16]
 477 0110 5B68     		ldr	r3, [r3, #4]
 478 0112 019A     		ldr	r2, [sp, #4]
 479 0114 9168     		ldr	r1, [r2, #8]
 480 0116 019A     		ldr	r2, [sp, #4]
 481 0118 D268     		ldr	r2, [r2, #12]
 482 011a 0198     		ldr	r0, [sp, #4]
 483 011c 9847     		blx	r3
 484 011e 019B     		ldr	r3, [sp, #4]
 485 0120 1B78     		ldrb	r3, [r3]	@ zero_extendqisi2
 486 0122 042B     		cmp	r3, #4
 487 0124 0CD1     		bne	.L27
 488              		.loc 1 199 0 discriminator 8
 489 0126 019B     		ldr	r3, [sp, #4]
 490 0128 0222     		movs	r2, #2
 491 012a 1A70     		strb	r2, [r3]
 492 012c 019B     		ldr	r3, [sp, #4]
 493 012e 0022     		movs	r2, #0
 494 0130 1A61     		str	r2, [r3, #16]
 495 0132 05E0     		b	.L27
 496              	.L25:
 497              		.loc 1 199 0 discriminator 7
 498 0134 019B     		ldr	r3, [sp, #4]
ARM GAS  /tmp/cc4bbnn2.s 			page 10


 499 0136 0222     		movs	r2, #2
 500 0138 1A70     		strb	r2, [r3]
 501 013a 019B     		ldr	r3, [sp, #4]
 502 013c 0022     		movs	r2, #0
 503 013e 1A61     		str	r2, [r3, #16]
 504              	.L27:
 505              	.LBB6:
 506              		.loc 1 199 0 discriminator 9
 507 0140 2023     		movs	r3, #32
 508              	@ 199 "/home/denny/r2p-sdk/core/ChibiOS/os/hal/platforms/STM32F30x/adc_lld.c" 1
 509 0142 83F31188 		msr     BASEPRI, r3
 510              	@ 0 "" 2
 511              		.thumb
 512              	.LBE6:
 513 0146 FFF7FEFF 		bl	dbg_check_lock_from_isr
 514 014a 019B     		ldr	r3, [sp, #4]
 515 014c 5B69     		ldr	r3, [r3, #20]
 516 014e 002B     		cmp	r3, #0
 517 0150 0BD0     		beq	.L28
 518              	.LBB7:
 519              		.loc 1 199 0 discriminator 10
 520 0152 019B     		ldr	r3, [sp, #4]
 521 0154 5B69     		ldr	r3, [r3, #20]
 522 0156 0293     		str	r3, [sp, #8]
 523 0158 019B     		ldr	r3, [sp, #4]
 524 015a 0022     		movs	r2, #0
 525 015c 5A61     		str	r2, [r3, #20]
 526 015e 029B     		ldr	r3, [sp, #8]
 527 0160 0022     		movs	r2, #0
 528 0162 9A62     		str	r2, [r3, #40]
 529 0164 0298     		ldr	r0, [sp, #8]
 530 0166 FFF7FEFF 		bl	chSchReadyI
 531              	.L28:
 532              	.LBE7:
 533              		.loc 1 199 0 discriminator 12
 534 016a FFF7FEFF 		bl	dbg_check_unlock_from_isr
 535              	.LBB8:
 536 016e 0023     		movs	r3, #0
 537              	@ 199 "/home/denny/r2p-sdk/core/ChibiOS/os/hal/platforms/STM32F30x/adc_lld.c" 1
 538 0170 83F31188 		msr     BASEPRI, r3
 539              	@ 0 "" 2
 540              		.thumb
 541 0174 13E0     		b	.L15
 542              	.L20:
 543              	.LBE8:
 544              		.loc 1 201 0 is_stmt 1
 545 0176 009B     		ldr	r3, [sp]
 546 0178 03F00403 		and	r3, r3, #4
 547 017c 002B     		cmp	r3, #0
 548 017e 0ED0     		beq	.L15
 549              		.loc 1 203 0
 550 0180 019B     		ldr	r3, [sp, #4]
 551 0182 1B69     		ldr	r3, [r3, #16]
 552 0184 5B68     		ldr	r3, [r3, #4]
 553 0186 002B     		cmp	r3, #0
 554 0188 09D0     		beq	.L15
 555              		.loc 1 203 0 is_stmt 0 discriminator 1
ARM GAS  /tmp/cc4bbnn2.s 			page 11


 556 018a 019B     		ldr	r3, [sp, #4]
 557 018c 1B69     		ldr	r3, [r3, #16]
 558 018e 5B68     		ldr	r3, [r3, #4]
 559 0190 019A     		ldr	r2, [sp, #4]
 560 0192 9168     		ldr	r1, [r2, #8]
 561 0194 019A     		ldr	r2, [sp, #4]
 562 0196 D268     		ldr	r2, [r2, #12]
 563 0198 5208     		lsrs	r2, r2, #1
 564 019a 0198     		ldr	r0, [sp, #4]
 565 019c 9847     		blx	r3
 566              	.L15:
 567              		.loc 1 207 0 is_stmt 1
 568 019e 07B0     		add	sp, sp, #28
 569              		.cfi_def_cfa_offset 4
 570              		@ sp needed
 571 01a0 5DF804FB 		ldr	pc, [sp], #4
 572              		.cfi_endproc
 573              	.LFE124:
 574              		.size	adc_lld_serve_dma_interrupt, .-adc_lld_serve_dma_interrupt
 575 01a4 AFF30080 		.section	.text.adc_lld_serve_interrupt,"ax",%progbits
 575      AFF30080 
 575      AFF30080 
 576              		.align	2
 577              		.p2align 4,,15
 578              		.thumb
 579              		.thumb_func
 580              		.type	adc_lld_serve_interrupt, %function
 581              	adc_lld_serve_interrupt:
 582              	.LFB125:
 583              		.loc 1 215 0
 584              		.cfi_startproc
 585              		@ args = 0, pretend = 0, frame = 24
 586              		@ frame_needed = 0, uses_anonymous_args = 0
 587 0000 00B5     		push	{lr}
 588              		.cfi_def_cfa_offset 4
 589              		.cfi_offset 14, -4
 590 0002 87B0     		sub	sp, sp, #28
 591              		.cfi_def_cfa_offset 32
 592 0004 0190     		str	r0, [sp, #4]
 593 0006 0091     		str	r1, [sp]
 594              		.loc 1 219 0
 595 0008 019B     		ldr	r3, [sp, #4]
 596 000a 1B69     		ldr	r3, [r3, #16]
 597 000c 002B     		cmp	r3, #0
 598 000e 00F0F280 		beq	.L29
 599              		.loc 1 222 0
 600 0012 009B     		ldr	r3, [sp]
 601 0014 03F01003 		and	r3, r3, #16
 602 0018 002B     		cmp	r3, #0
 603 001a 3BD0     		beq	.L31
 604              		.loc 1 223 0 discriminator 1
 605 001c 019B     		ldr	r3, [sp, #4]
 606 001e 1B6B     		ldr	r3, [r3, #48]
 607 0020 1B68     		ldr	r3, [r3]
 608 0022 5B68     		ldr	r3, [r3, #4]
 609              		.loc 1 222 0 discriminator 1
 610 0024 002B     		cmp	r3, #0
ARM GAS  /tmp/cc4bbnn2.s 			page 12


 611 0026 35D0     		beq	.L31
 612              		.loc 1 226 0
 613 0028 0198     		ldr	r0, [sp, #4]
 614 002a FFF7FEFF 		bl	adc_lld_stop_conversion
 615 002e 019B     		ldr	r3, [sp, #4]
 616 0030 1B69     		ldr	r3, [r3, #16]
 617 0032 9B68     		ldr	r3, [r3, #8]
 618 0034 002B     		cmp	r3, #0
 619 0036 0FD0     		beq	.L32
 620              		.loc 1 226 0 is_stmt 0 discriminator 1
 621 0038 019B     		ldr	r3, [sp, #4]
 622 003a 0522     		movs	r2, #5
 623 003c 1A70     		strb	r2, [r3]
 624 003e 019B     		ldr	r3, [sp, #4]
 625 0040 1B69     		ldr	r3, [r3, #16]
 626 0042 9B68     		ldr	r3, [r3, #8]
 627 0044 0198     		ldr	r0, [sp, #4]
 628 0046 0121     		movs	r1, #1
 629 0048 9847     		blx	r3
 630 004a 019B     		ldr	r3, [sp, #4]
 631 004c 1B78     		ldrb	r3, [r3]	@ zero_extendqisi2
 632 004e 052B     		cmp	r3, #5
 633 0050 02D1     		bne	.L32
 634              		.loc 1 226 0 discriminator 3
 635 0052 019B     		ldr	r3, [sp, #4]
 636 0054 0222     		movs	r2, #2
 637 0056 1A70     		strb	r2, [r3]
 638              	.L32:
 639              		.loc 1 226 0 discriminator 5
 640 0058 019B     		ldr	r3, [sp, #4]
 641 005a 0022     		movs	r2, #0
 642 005c 1A61     		str	r2, [r3, #16]
 643              	.LBB9:
 644 005e 2023     		movs	r3, #32
 645              	@ 226 "/home/denny/r2p-sdk/core/ChibiOS/os/hal/platforms/STM32F30x/adc_lld.c" 1
 646 0060 83F31188 		msr     BASEPRI, r3
 647              	@ 0 "" 2
 648              		.thumb
 649              	.LBE9:
 650 0064 FFF7FEFF 		bl	dbg_check_lock_from_isr
 651 0068 019B     		ldr	r3, [sp, #4]
 652 006a 5B69     		ldr	r3, [r3, #20]
 653 006c 002B     		cmp	r3, #0
 654 006e 0CD0     		beq	.L33
 655              	.LBB10:
 656              		.loc 1 226 0 discriminator 6
 657 0070 019B     		ldr	r3, [sp, #4]
 658 0072 5B69     		ldr	r3, [r3, #20]
 659 0074 0593     		str	r3, [sp, #20]
 660 0076 019B     		ldr	r3, [sp, #4]
 661 0078 0022     		movs	r2, #0
 662 007a 5A61     		str	r2, [r3, #20]
 663 007c 059B     		ldr	r3, [sp, #20]
 664 007e 4FF0FF32 		mov	r2, #-1
 665 0082 9A62     		str	r2, [r3, #40]
 666 0084 0598     		ldr	r0, [sp, #20]
 667 0086 FFF7FEFF 		bl	chSchReadyI
ARM GAS  /tmp/cc4bbnn2.s 			page 13


 668              	.L33:
 669              	.LBE10:
 670              		.loc 1 226 0 discriminator 8
 671 008a FFF7FEFF 		bl	dbg_check_unlock_from_isr
 672              	.LBB11:
 673 008e 0023     		movs	r3, #0
 674              	@ 226 "/home/denny/r2p-sdk/core/ChibiOS/os/hal/platforms/STM32F30x/adc_lld.c" 1
 675 0090 83F31188 		msr     BASEPRI, r3
 676              	@ 0 "" 2
 677              		.thumb
 678              	.L31:
 679              	.LBE11:
 680              		.loc 1 228 0 is_stmt 1
 681 0094 009B     		ldr	r3, [sp]
 682 0096 03F08003 		and	r3, r3, #128
 683 009a 002B     		cmp	r3, #0
 684 009c 35D0     		beq	.L34
 685              		.loc 1 230 0
 686 009e 0198     		ldr	r0, [sp, #4]
 687 00a0 FFF7FEFF 		bl	adc_lld_stop_conversion
 688 00a4 019B     		ldr	r3, [sp, #4]
 689 00a6 1B69     		ldr	r3, [r3, #16]
 690 00a8 9B68     		ldr	r3, [r3, #8]
 691 00aa 002B     		cmp	r3, #0
 692 00ac 0FD0     		beq	.L35
 693              		.loc 1 230 0 is_stmt 0 discriminator 1
 694 00ae 019B     		ldr	r3, [sp, #4]
 695 00b0 0522     		movs	r2, #5
 696 00b2 1A70     		strb	r2, [r3]
 697 00b4 019B     		ldr	r3, [sp, #4]
 698 00b6 1B69     		ldr	r3, [r3, #16]
 699 00b8 9B68     		ldr	r3, [r3, #8]
 700 00ba 0198     		ldr	r0, [sp, #4]
 701 00bc 0221     		movs	r1, #2
 702 00be 9847     		blx	r3
 703 00c0 019B     		ldr	r3, [sp, #4]
 704 00c2 1B78     		ldrb	r3, [r3]	@ zero_extendqisi2
 705 00c4 052B     		cmp	r3, #5
 706 00c6 02D1     		bne	.L35
 707              		.loc 1 230 0 discriminator 3
 708 00c8 019B     		ldr	r3, [sp, #4]
 709 00ca 0222     		movs	r2, #2
 710 00cc 1A70     		strb	r2, [r3]
 711              	.L35:
 712              		.loc 1 230 0 discriminator 5
 713 00ce 019B     		ldr	r3, [sp, #4]
 714 00d0 0022     		movs	r2, #0
 715 00d2 1A61     		str	r2, [r3, #16]
 716              	.LBB12:
 717 00d4 2023     		movs	r3, #32
 718              	@ 230 "/home/denny/r2p-sdk/core/ChibiOS/os/hal/platforms/STM32F30x/adc_lld.c" 1
 719 00d6 83F31188 		msr     BASEPRI, r3
 720              	@ 0 "" 2
 721              		.thumb
 722              	.LBE12:
 723 00da FFF7FEFF 		bl	dbg_check_lock_from_isr
 724 00de 019B     		ldr	r3, [sp, #4]
ARM GAS  /tmp/cc4bbnn2.s 			page 14


 725 00e0 5B69     		ldr	r3, [r3, #20]
 726 00e2 002B     		cmp	r3, #0
 727 00e4 0CD0     		beq	.L36
 728              	.LBB13:
 729              		.loc 1 230 0 discriminator 6
 730 00e6 019B     		ldr	r3, [sp, #4]
 731 00e8 5B69     		ldr	r3, [r3, #20]
 732 00ea 0493     		str	r3, [sp, #16]
 733 00ec 019B     		ldr	r3, [sp, #4]
 734 00ee 0022     		movs	r2, #0
 735 00f0 5A61     		str	r2, [r3, #20]
 736 00f2 049B     		ldr	r3, [sp, #16]
 737 00f4 4FF0FF32 		mov	r2, #-1
 738 00f8 9A62     		str	r2, [r3, #40]
 739 00fa 0498     		ldr	r0, [sp, #16]
 740 00fc FFF7FEFF 		bl	chSchReadyI
 741              	.L36:
 742              	.LBE13:
 743              		.loc 1 230 0 discriminator 8
 744 0100 FFF7FEFF 		bl	dbg_check_unlock_from_isr
 745              	.LBB14:
 746 0104 0023     		movs	r3, #0
 747              	@ 230 "/home/denny/r2p-sdk/core/ChibiOS/os/hal/platforms/STM32F30x/adc_lld.c" 1
 748 0106 83F31188 		msr     BASEPRI, r3
 749              	@ 0 "" 2
 750              		.thumb
 751              	.L34:
 752              	.LBE14:
 753              		.loc 1 232 0 is_stmt 1
 754 010a 009B     		ldr	r3, [sp]
 755 010c 03F48073 		and	r3, r3, #256
 756 0110 002B     		cmp	r3, #0
 757 0112 35D0     		beq	.L37
 758              		.loc 1 234 0
 759 0114 0198     		ldr	r0, [sp, #4]
 760 0116 FFF7FEFF 		bl	adc_lld_stop_conversion
 761 011a 019B     		ldr	r3, [sp, #4]
 762 011c 1B69     		ldr	r3, [r3, #16]
 763 011e 9B68     		ldr	r3, [r3, #8]
 764 0120 002B     		cmp	r3, #0
 765 0122 0FD0     		beq	.L38
 766              		.loc 1 234 0 is_stmt 0 discriminator 1
 767 0124 019B     		ldr	r3, [sp, #4]
 768 0126 0522     		movs	r2, #5
 769 0128 1A70     		strb	r2, [r3]
 770 012a 019B     		ldr	r3, [sp, #4]
 771 012c 1B69     		ldr	r3, [r3, #16]
 772 012e 9B68     		ldr	r3, [r3, #8]
 773 0130 0198     		ldr	r0, [sp, #4]
 774 0132 0321     		movs	r1, #3
 775 0134 9847     		blx	r3
 776 0136 019B     		ldr	r3, [sp, #4]
 777 0138 1B78     		ldrb	r3, [r3]	@ zero_extendqisi2
 778 013a 052B     		cmp	r3, #5
 779 013c 02D1     		bne	.L38
 780              		.loc 1 234 0 discriminator 3
 781 013e 019B     		ldr	r3, [sp, #4]
ARM GAS  /tmp/cc4bbnn2.s 			page 15


 782 0140 0222     		movs	r2, #2
 783 0142 1A70     		strb	r2, [r3]
 784              	.L38:
 785              		.loc 1 234 0 discriminator 5
 786 0144 019B     		ldr	r3, [sp, #4]
 787 0146 0022     		movs	r2, #0
 788 0148 1A61     		str	r2, [r3, #16]
 789              	.LBB15:
 790 014a 2023     		movs	r3, #32
 791              	@ 234 "/home/denny/r2p-sdk/core/ChibiOS/os/hal/platforms/STM32F30x/adc_lld.c" 1
 792 014c 83F31188 		msr     BASEPRI, r3
 793              	@ 0 "" 2
 794              		.thumb
 795              	.LBE15:
 796 0150 FFF7FEFF 		bl	dbg_check_lock_from_isr
 797 0154 019B     		ldr	r3, [sp, #4]
 798 0156 5B69     		ldr	r3, [r3, #20]
 799 0158 002B     		cmp	r3, #0
 800 015a 0CD0     		beq	.L39
 801              	.LBB16:
 802              		.loc 1 234 0 discriminator 6
 803 015c 019B     		ldr	r3, [sp, #4]
 804 015e 5B69     		ldr	r3, [r3, #20]
 805 0160 0393     		str	r3, [sp, #12]
 806 0162 019B     		ldr	r3, [sp, #4]
 807 0164 0022     		movs	r2, #0
 808 0166 5A61     		str	r2, [r3, #20]
 809 0168 039B     		ldr	r3, [sp, #12]
 810 016a 4FF0FF32 		mov	r2, #-1
 811 016e 9A62     		str	r2, [r3, #40]
 812 0170 0398     		ldr	r0, [sp, #12]
 813 0172 FFF7FEFF 		bl	chSchReadyI
 814              	.L39:
 815              	.LBE16:
 816              		.loc 1 234 0 discriminator 8
 817 0176 FFF7FEFF 		bl	dbg_check_unlock_from_isr
 818              	.LBB17:
 819 017a 0023     		movs	r3, #0
 820              	@ 234 "/home/denny/r2p-sdk/core/ChibiOS/os/hal/platforms/STM32F30x/adc_lld.c" 1
 821 017c 83F31188 		msr     BASEPRI, r3
 822              	@ 0 "" 2
 823              		.thumb
 824              	.L37:
 825              	.LBE17:
 826              		.loc 1 236 0 is_stmt 1
 827 0180 009B     		ldr	r3, [sp]
 828 0182 03F40073 		and	r3, r3, #512
 829 0186 002B     		cmp	r3, #0
 830 0188 35D0     		beq	.L29
 831              		.loc 1 238 0
 832 018a 0198     		ldr	r0, [sp, #4]
 833 018c FFF7FEFF 		bl	adc_lld_stop_conversion
 834 0190 019B     		ldr	r3, [sp, #4]
 835 0192 1B69     		ldr	r3, [r3, #16]
 836 0194 9B68     		ldr	r3, [r3, #8]
 837 0196 002B     		cmp	r3, #0
 838 0198 0FD0     		beq	.L40
ARM GAS  /tmp/cc4bbnn2.s 			page 16


 839              		.loc 1 238 0 is_stmt 0 discriminator 1
 840 019a 019B     		ldr	r3, [sp, #4]
 841 019c 0522     		movs	r2, #5
 842 019e 1A70     		strb	r2, [r3]
 843 01a0 019B     		ldr	r3, [sp, #4]
 844 01a2 1B69     		ldr	r3, [r3, #16]
 845 01a4 9B68     		ldr	r3, [r3, #8]
 846 01a6 0198     		ldr	r0, [sp, #4]
 847 01a8 0421     		movs	r1, #4
 848 01aa 9847     		blx	r3
 849 01ac 019B     		ldr	r3, [sp, #4]
 850 01ae 1B78     		ldrb	r3, [r3]	@ zero_extendqisi2
 851 01b0 052B     		cmp	r3, #5
 852 01b2 02D1     		bne	.L40
 853              		.loc 1 238 0 discriminator 3
 854 01b4 019B     		ldr	r3, [sp, #4]
 855 01b6 0222     		movs	r2, #2
 856 01b8 1A70     		strb	r2, [r3]
 857              	.L40:
 858              		.loc 1 238 0 discriminator 5
 859 01ba 019B     		ldr	r3, [sp, #4]
 860 01bc 0022     		movs	r2, #0
 861 01be 1A61     		str	r2, [r3, #16]
 862              	.LBB18:
 863 01c0 2023     		movs	r3, #32
 864              	@ 238 "/home/denny/r2p-sdk/core/ChibiOS/os/hal/platforms/STM32F30x/adc_lld.c" 1
 865 01c2 83F31188 		msr     BASEPRI, r3
 866              	@ 0 "" 2
 867              		.thumb
 868              	.LBE18:
 869 01c6 FFF7FEFF 		bl	dbg_check_lock_from_isr
 870 01ca 019B     		ldr	r3, [sp, #4]
 871 01cc 5B69     		ldr	r3, [r3, #20]
 872 01ce 002B     		cmp	r3, #0
 873 01d0 0CD0     		beq	.L41
 874              	.LBB19:
 875              		.loc 1 238 0 discriminator 6
 876 01d2 019B     		ldr	r3, [sp, #4]
 877 01d4 5B69     		ldr	r3, [r3, #20]
 878 01d6 0293     		str	r3, [sp, #8]
 879 01d8 019B     		ldr	r3, [sp, #4]
 880 01da 0022     		movs	r2, #0
 881 01dc 5A61     		str	r2, [r3, #20]
 882 01de 029B     		ldr	r3, [sp, #8]
 883 01e0 4FF0FF32 		mov	r2, #-1
 884 01e4 9A62     		str	r2, [r3, #40]
 885 01e6 0298     		ldr	r0, [sp, #8]
 886 01e8 FFF7FEFF 		bl	chSchReadyI
 887              	.L41:
 888              	.LBE19:
 889              		.loc 1 238 0 discriminator 8
 890 01ec FFF7FEFF 		bl	dbg_check_unlock_from_isr
 891              	.LBB20:
 892 01f0 0023     		movs	r3, #0
 893              	@ 238 "/home/denny/r2p-sdk/core/ChibiOS/os/hal/platforms/STM32F30x/adc_lld.c" 1
 894 01f2 83F31188 		msr     BASEPRI, r3
 895              	@ 0 "" 2
ARM GAS  /tmp/cc4bbnn2.s 			page 17


 896              		.thumb
 897              	.L29:
 898              	.LBE20:
 899              		.loc 1 241 0 is_stmt 1
 900 01f6 07B0     		add	sp, sp, #28
 901              		.cfi_def_cfa_offset 4
 902              		@ sp needed
 903 01f8 5DF804FB 		ldr	pc, [sp], #4
 904              		.cfi_endproc
 905              	.LFE125:
 906              		.size	adc_lld_serve_interrupt, .-adc_lld_serve_interrupt
 907 01fc AFF30080 		.section	.text.Vector88,"ax",%progbits
 908              		.align	2
 909              		.p2align 4,,15
 910              		.global	Vector88
 911              		.thumb
 912              		.thumb_func
 913              		.type	Vector88, %function
 914              	Vector88:
 915              	.LFB126:
 916              		.loc 1 253 0
 917              		.cfi_startproc
 918              		@ args = 0, pretend = 0, frame = 8
 919              		@ frame_needed = 0, uses_anonymous_args = 0
 920 0000 00B5     		push	{lr}
 921              		.cfi_def_cfa_offset 4
 922              		.cfi_offset 14, -4
 923 0002 83B0     		sub	sp, sp, #12
 924              		.cfi_def_cfa_offset 16
 925              		.loc 1 256 0
 926 0004 FFF7FEFF 		bl	dbg_check_enter_isr
 927              		.loc 1 264 0
 928 0008 4FF0A043 		mov	r3, #1342177280
 929 000c 1B68     		ldr	r3, [r3]
 930 000e 0193     		str	r3, [sp, #4]
 931              		.loc 1 265 0
 932 0010 4FF0A042 		mov	r2, #1342177280
 933 0014 019B     		ldr	r3, [sp, #4]
 934 0016 1360     		str	r3, [r2]
 935              		.loc 1 268 0
 936 0018 0548     		ldr	r0, .L43
 937 001a 0199     		ldr	r1, [sp, #4]
 938 001c FFF7FEFF 		bl	adc_lld_serve_interrupt
 939              		.loc 1 270 0
 940 0020 FFF7FEFF 		bl	dbg_check_leave_isr
 941 0024 FFF7FEFF 		bl	_port_irq_epilogue
 942              		.loc 1 271 0
 943 0028 03B0     		add	sp, sp, #12
 944              		.cfi_def_cfa_offset 4
 945              		@ sp needed
 946 002a 5DF804FB 		ldr	pc, [sp], #4
 947              	.L44:
 948 002e 00BF     		.align	2
 949              	.L43:
 950 0030 00000000 		.word	ADCD1
 951              		.cfi_endproc
 952              	.LFE126:
ARM GAS  /tmp/cc4bbnn2.s 			page 18


 953              		.size	Vector88, .-Vector88
 954 0034 AFF30080 		.section	.text.adc_lld_init,"ax",%progbits
 954      AFF30080 
 954      AFF30080 
 955              		.align	2
 956              		.p2align 4,,15
 957              		.global	adc_lld_init
 958              		.thumb
 959              		.thumb_func
 960              		.type	adc_lld_init, %function
 961              	adc_lld_init:
 962              	.LFB127:
 963              		.loc 1 323 0
 964              		.cfi_startproc
 965              		@ args = 0, pretend = 0, frame = 0
 966              		@ frame_needed = 0, uses_anonymous_args = 0
 967 0000 08B5     		push	{r3, lr}
 968              		.cfi_def_cfa_offset 8
 969              		.cfi_offset 3, -8
 970              		.cfi_offset 14, -4
 971              		.loc 1 327 0
 972 0002 0B48     		ldr	r0, .L46
 973 0004 FFF7FEFF 		bl	adcObjectInit
 974              		.loc 1 328 0
 975 0008 094B     		ldr	r3, .L46
 976 000a 0A4A     		ldr	r2, .L46+4
 977 000c 9A62     		str	r2, [r3, #40]
 978              		.loc 1 329 0
 979 000e 084B     		ldr	r3, .L46
 980 0010 4FF0A042 		mov	r2, #1342177280
 981 0014 DA62     		str	r2, [r3, #44]
 982              		.loc 1 333 0
 983 0016 064B     		ldr	r3, .L46
 984 0018 074A     		ldr	r2, .L46+8
 985 001a 1A63     		str	r2, [r3, #48]
 986              		.loc 1 334 0
 987 001c 044B     		ldr	r3, .L46
 988 001e 42F28A52 		movw	r2, #9610
 989 0022 5A63     		str	r2, [r3, #52]
 990              		.loc 1 339 0
 991 0024 1220     		movs	r0, #18
 992 0026 5021     		movs	r1, #80
 993 0028 FFF7FEFF 		bl	nvicEnableVector
 994              		.loc 1 364 0
 995 002c 08BD     		pop	{r3, pc}
 996              	.L47:
 997 002e 00BF     		.align	2
 998              	.L46:
 999 0030 00000000 		.word	ADCD1
 1000 0034 00030050 		.word	1342178048
 1001 0038 00000000 		.word	_stm32_dma_streams
 1002              		.cfi_endproc
 1003              	.LFE127:
 1004              		.size	adc_lld_init, .-adc_lld_init
 1005 003c AFF30080 		.section	.rodata
 1006              		.align	2
 1007              	.LC1:
ARM GAS  /tmp/cc4bbnn2.s 			page 19


 1008 0018 6164635F 		.ascii	"adc_lld_start(), #1\000"
 1008      6C6C645F 
 1008      73746172 
 1008      7428292C 
 1008      20233100 
 1009              		.section	.text.adc_lld_start,"ax",%progbits
 1010              		.align	2
 1011              		.p2align 4,,15
 1012              		.global	adc_lld_start
 1013              		.thumb
 1014              		.thumb_func
 1015              		.type	adc_lld_start, %function
 1016              	adc_lld_start:
 1017              	.LFB128:
 1018              		.loc 1 373 0
 1019              		.cfi_startproc
 1020              		@ args = 0, pretend = 0, frame = 16
 1021              		@ frame_needed = 0, uses_anonymous_args = 0
 1022 0000 00B5     		push	{lr}
 1023              		.cfi_def_cfa_offset 4
 1024              		.cfi_offset 14, -4
 1025 0002 85B0     		sub	sp, sp, #20
 1026              		.cfi_def_cfa_offset 24
 1027 0004 0190     		str	r0, [sp, #4]
 1028              		.loc 1 376 0
 1029 0006 019B     		ldr	r3, [sp, #4]
 1030 0008 1B78     		ldrb	r3, [r3]	@ zero_extendqisi2
 1031 000a 012B     		cmp	r3, #1
 1032 000c 30D1     		bne	.L48
 1033              		.loc 1 378 0
 1034 000e 019B     		ldr	r3, [sp, #4]
 1035 0010 194A     		ldr	r2, .L52
 1036 0012 9342     		cmp	r3, r2
 1037 0014 17D1     		bne	.L50
 1038              	.LBB21:
 1039              		.loc 1 380 0
 1040 0016 019B     		ldr	r3, [sp, #4]
 1041 0018 1B6B     		ldr	r3, [r3, #48]
 1042 001a 1846     		mov	r0, r3
 1043 001c 0521     		movs	r1, #5
 1044 001e 174A     		ldr	r2, .L52+4
 1045 0020 019B     		ldr	r3, [sp, #4]
 1046 0022 FFF7FEFF 		bl	dmaStreamAllocate
 1047 0026 0346     		mov	r3, r0
 1048 0028 8DF80F30 		strb	r3, [sp, #15]
 1049              		.loc 1 384 0
 1050 002c 9DF80F30 		ldrb	r3, [sp, #15]	@ zero_extendqisi2
 1051 0030 002B     		cmp	r3, #0
 1052 0032 02D0     		beq	.L51
 1053              		.loc 1 384 0 is_stmt 0 discriminator 1
 1054 0034 1248     		ldr	r0, .L52+8
 1055 0036 FFF7FEFF 		bl	chDbgPanic
 1056              	.L51:
 1057              		.loc 1 385 0 is_stmt 1
 1058 003a 124A     		ldr	r2, .L52+12
 1059 003c 114B     		ldr	r3, .L52+12
 1060 003e 5B69     		ldr	r3, [r3, #20]
ARM GAS  /tmp/cc4bbnn2.s 			page 20


 1061 0040 43F08053 		orr	r3, r3, #268435456
 1062 0044 5361     		str	r3, [r2, #20]
 1063              	.L50:
 1064              	.LBE21:
 1065              		.loc 1 405 0
 1066 0046 019B     		ldr	r3, [sp, #4]
 1067 0048 1B6B     		ldr	r3, [r3, #48]
 1068 004a 1B68     		ldr	r3, [r3]
 1069 004c 019A     		ldr	r2, [sp, #4]
 1070 004e D26A     		ldr	r2, [r2, #44]
 1071 0050 4032     		adds	r2, r2, #64
 1072 0052 9A60     		str	r2, [r3, #8]
 1073              		.loc 1 409 0
 1074 0054 019B     		ldr	r3, [sp, #4]
 1075 0056 9B6A     		ldr	r3, [r3, #40]
 1076 0058 4FF48032 		mov	r2, #65536
 1077 005c 9A60     		str	r2, [r3, #8]
 1078              		.loc 1 412 0
 1079 005e 0198     		ldr	r0, [sp, #4]
 1080 0060 FFF7FEFF 		bl	adc_lld_vreg_on
 1081              		.loc 1 413 0
 1082 0064 0198     		ldr	r0, [sp, #4]
 1083 0066 FFF7FEFF 		bl	adc_lld_calibrate
 1084              		.loc 1 416 0
 1085 006a 0198     		ldr	r0, [sp, #4]
 1086 006c FFF7FEFF 		bl	adc_lld_analog_on
 1087              	.L48:
 1088              		.loc 1 418 0
 1089 0070 05B0     		add	sp, sp, #20
 1090              		.cfi_def_cfa_offset 4
 1091              		@ sp needed
 1092 0072 5DF804FB 		ldr	pc, [sp], #4
 1093              	.L53:
 1094 0076 00BF     		.align	2
 1095              	.L52:
 1096 0078 00000000 		.word	ADCD1
 1097 007c 00000000 		.word	adc_lld_serve_dma_interrupt
 1098 0080 18000000 		.word	.LC1
 1099 0084 00100240 		.word	1073876992
 1100              		.cfi_endproc
 1101              	.LFE128:
 1102              		.size	adc_lld_start, .-adc_lld_start
 1103 0088 AFF30080 		.section	.text.adc_lld_stop,"ax",%progbits
 1103      AFF30080 
 1104              		.align	2
 1105              		.p2align 4,,15
 1106              		.global	adc_lld_stop
 1107              		.thumb
 1108              		.thumb_func
 1109              		.type	adc_lld_stop, %function
 1110              	adc_lld_stop:
 1111              	.LFB129:
 1112              		.loc 1 427 0
 1113              		.cfi_startproc
 1114              		@ args = 0, pretend = 0, frame = 8
 1115              		@ frame_needed = 0, uses_anonymous_args = 0
 1116 0000 00B5     		push	{lr}
ARM GAS  /tmp/cc4bbnn2.s 			page 21


 1117              		.cfi_def_cfa_offset 4
 1118              		.cfi_offset 14, -4
 1119 0002 83B0     		sub	sp, sp, #12
 1120              		.cfi_def_cfa_offset 16
 1121 0004 0190     		str	r0, [sp, #4]
 1122              		.loc 1 430 0
 1123 0006 019B     		ldr	r3, [sp, #4]
 1124 0008 1B78     		ldrb	r3, [r3]	@ zero_extendqisi2
 1125 000a 022B     		cmp	r3, #2
 1126 000c 17D1     		bne	.L54
 1127              		.loc 1 433 0
 1128 000e 019B     		ldr	r3, [sp, #4]
 1129 0010 1B6B     		ldr	r3, [r3, #48]
 1130 0012 1846     		mov	r0, r3
 1131 0014 FFF7FEFF 		bl	dmaStreamRelease
 1132              		.loc 1 436 0
 1133 0018 0198     		ldr	r0, [sp, #4]
 1134 001a FFF7FEFF 		bl	adc_lld_stop_adc
 1135              		.loc 1 439 0
 1136 001e 0198     		ldr	r0, [sp, #4]
 1137 0020 FFF7FEFF 		bl	adc_lld_analog_off
 1138              		.loc 1 440 0
 1139 0024 0198     		ldr	r0, [sp, #4]
 1140 0026 FFF7FEFF 		bl	adc_lld_vreg_off
 1141              		.loc 1 443 0
 1142 002a 019B     		ldr	r3, [sp, #4]
 1143 002c 054A     		ldr	r2, .L56
 1144 002e 9342     		cmp	r3, r2
 1145 0030 05D1     		bne	.L54
 1146              		.loc 1 444 0
 1147 0032 054A     		ldr	r2, .L56+4
 1148 0034 044B     		ldr	r3, .L56+4
 1149 0036 5B69     		ldr	r3, [r3, #20]
 1150 0038 23F08053 		bic	r3, r3, #268435456
 1151 003c 5361     		str	r3, [r2, #20]
 1152              	.L54:
 1153              		.loc 1 452 0
 1154 003e 03B0     		add	sp, sp, #12
 1155              		.cfi_def_cfa_offset 4
 1156              		@ sp needed
 1157 0040 5DF804FB 		ldr	pc, [sp], #4
 1158              	.L57:
 1159              		.align	2
 1160              	.L56:
 1161 0044 00000000 		.word	ADCD1
 1162 0048 00100240 		.word	1073876992
 1163              		.cfi_endproc
 1164              	.LFE129:
 1165              		.size	adc_lld_stop, .-adc_lld_stop
 1166 004c AFF30080 		.section	.text.adc_lld_start_conversion,"ax",%progbits
 1167              		.align	2
 1168              		.p2align 4,,15
 1169              		.global	adc_lld_start_conversion
 1170              		.thumb
 1171              		.thumb_func
 1172              		.type	adc_lld_start_conversion, %function
 1173              	adc_lld_start_conversion:
ARM GAS  /tmp/cc4bbnn2.s 			page 22


 1174              	.LFB130:
 1175              		.loc 1 461 0
 1176              		.cfi_startproc
 1177              		@ args = 0, pretend = 0, frame = 24
 1178              		@ frame_needed = 0, uses_anonymous_args = 0
 1179              		@ link register save eliminated.
 1180 0000 86B0     		sub	sp, sp, #24
 1181              		.cfi_def_cfa_offset 24
 1182 0002 0190     		str	r0, [sp, #4]
 1183              		.loc 1 463 0
 1184 0004 019B     		ldr	r3, [sp, #4]
 1185 0006 1B69     		ldr	r3, [r3, #16]
 1186 0008 0393     		str	r3, [sp, #12]
 1187              		.loc 1 470 0
 1188 000a 019B     		ldr	r3, [sp, #4]
 1189 000c 5B6B     		ldr	r3, [r3, #52]
 1190 000e 0593     		str	r3, [sp, #20]
 1191              		.loc 1 471 0
 1192 0010 039B     		ldr	r3, [sp, #12]
 1193 0012 5A69     		ldr	r2, [r3, #20]
 1194 0014 019B     		ldr	r3, [sp, #4]
 1195 0016 9B6A     		ldr	r3, [r3, #40]
 1196 0018 9B68     		ldr	r3, [r3, #8]
 1197 001a 03F47033 		and	r3, r3, #245760
 1198 001e 1343     		orrs	r3, r3, r2
 1199 0020 0293     		str	r3, [sp, #8]
 1200              		.loc 1 473 0
 1201 0022 039B     		ldr	r3, [sp, #12]
 1202 0024 DB68     		ldr	r3, [r3, #12]
 1203 0026 43F40053 		orr	r3, r3, #8192
 1204 002a 43F00103 		orr	r3, r3, #1
 1205 002e 0493     		str	r3, [sp, #16]
 1206              		.loc 1 474 0
 1207 0030 039B     		ldr	r3, [sp, #12]
 1208 0032 1B78     		ldrb	r3, [r3]	@ zero_extendqisi2
 1209 0034 002B     		cmp	r3, #0
 1210 0036 0FD0     		beq	.L59
 1211              		.loc 1 475 0
 1212 0038 059B     		ldr	r3, [sp, #20]
 1213 003a 43F02003 		orr	r3, r3, #32
 1214 003e 0593     		str	r3, [sp, #20]
 1215              		.loc 1 479 0
 1216 0040 049B     		ldr	r3, [sp, #16]
 1217 0042 43F00203 		orr	r3, r3, #2
 1218 0046 0493     		str	r3, [sp, #16]
 1219              		.loc 1 481 0
 1220 0048 019B     		ldr	r3, [sp, #4]
 1221 004a DB68     		ldr	r3, [r3, #12]
 1222 004c 012B     		cmp	r3, #1
 1223 004e 03D9     		bls	.L59
 1224              		.loc 1 484 0
 1225 0050 059B     		ldr	r3, [sp, #20]
 1226 0052 43F00403 		orr	r3, r3, #4
 1227 0056 0593     		str	r3, [sp, #20]
 1228              	.L59:
 1229              		.loc 1 489 0
 1230 0058 019B     		ldr	r3, [sp, #4]
ARM GAS  /tmp/cc4bbnn2.s 			page 23


 1231 005a 1B6B     		ldr	r3, [r3, #48]
 1232 005c 1B68     		ldr	r3, [r3]
 1233 005e 019A     		ldr	r2, [sp, #4]
 1234 0060 9268     		ldr	r2, [r2, #8]
 1235 0062 DA60     		str	r2, [r3, #12]
 1236              		.loc 1 494 0
 1237 0064 019B     		ldr	r3, [sp, #4]
 1238 0066 1B6B     		ldr	r3, [r3, #48]
 1239 0068 1B68     		ldr	r3, [r3]
 1240 006a 039A     		ldr	r2, [sp, #12]
 1241 006c 5288     		ldrh	r2, [r2, #2]
 1242 006e 1146     		mov	r1, r2
 1243 0070 019A     		ldr	r2, [sp, #4]
 1244 0072 D268     		ldr	r2, [r2, #12]
 1245 0074 02FB01F2 		mul	r2, r2, r1
 1246 0078 5A60     		str	r2, [r3, #4]
 1247              		.loc 1 497 0
 1248 007a 019B     		ldr	r3, [sp, #4]
 1249 007c 1B6B     		ldr	r3, [r3, #48]
 1250 007e 1B68     		ldr	r3, [r3]
 1251 0080 059A     		ldr	r2, [sp, #20]
 1252 0082 1A60     		str	r2, [r3]
 1253              		.loc 1 498 0
 1254 0084 019B     		ldr	r3, [sp, #4]
 1255 0086 1B6B     		ldr	r3, [r3, #48]
 1256 0088 1B68     		ldr	r3, [r3]
 1257 008a 019A     		ldr	r2, [sp, #4]
 1258 008c 126B     		ldr	r2, [r2, #48]
 1259 008e 1268     		ldr	r2, [r2]
 1260 0090 1268     		ldr	r2, [r2]
 1261 0092 42F00102 		orr	r2, r2, #1
 1262 0096 1A60     		str	r2, [r3]
 1263              		.loc 1 503 0
 1264 0098 019B     		ldr	r3, [sp, #4]
 1265 009a 9B6A     		ldr	r3, [r3, #40]
 1266 009c 029A     		ldr	r2, [sp, #8]
 1267 009e 9A60     		str	r2, [r3, #8]
 1268              		.loc 1 507 0
 1269 00a0 019B     		ldr	r3, [sp, #4]
 1270 00a2 DB6A     		ldr	r3, [r3, #44]
 1271 00a4 019A     		ldr	r2, [sp, #4]
 1272 00a6 D26A     		ldr	r2, [r2, #44]
 1273 00a8 1268     		ldr	r2, [r2]
 1274 00aa 1A60     		str	r2, [r3]
 1275              		.loc 1 508 0
 1276 00ac 019B     		ldr	r3, [sp, #4]
 1277 00ae DB6A     		ldr	r3, [r3, #44]
 1278 00b0 9022     		movs	r2, #144
 1279 00b2 5A60     		str	r2, [r3, #4]
 1280              		.loc 1 509 0
 1281 00b4 019B     		ldr	r3, [sp, #4]
 1282 00b6 DB6A     		ldr	r3, [r3, #44]
 1283 00b8 039A     		ldr	r2, [sp, #12]
 1284 00ba 1269     		ldr	r2, [r2, #16]
 1285 00bc 1A62     		str	r2, [r3, #32]
 1286              		.loc 1 525 0
 1287 00be 019B     		ldr	r3, [sp, #4]
ARM GAS  /tmp/cc4bbnn2.s 			page 24


 1288 00c0 DB6A     		ldr	r3, [r3, #44]
 1289 00c2 039A     		ldr	r2, [sp, #12]
 1290 00c4 9269     		ldr	r2, [r2, #24]
 1291 00c6 5A61     		str	r2, [r3, #20]
 1292              		.loc 1 526 0
 1293 00c8 019B     		ldr	r3, [sp, #4]
 1294 00ca DB6A     		ldr	r3, [r3, #44]
 1295 00cc 039A     		ldr	r2, [sp, #12]
 1296 00ce D269     		ldr	r2, [r2, #28]
 1297 00d0 9A61     		str	r2, [r3, #24]
 1298              		.loc 1 527 0
 1299 00d2 019B     		ldr	r3, [sp, #4]
 1300 00d4 DB6A     		ldr	r3, [r3, #44]
 1301 00d6 039A     		ldr	r2, [sp, #12]
 1302 00d8 126A     		ldr	r2, [r2, #32]
 1303 00da 0399     		ldr	r1, [sp, #12]
 1304 00dc 4988     		ldrh	r1, [r1, #2]
 1305 00de 0139     		subs	r1, r1, #1
 1306 00e0 0A43     		orrs	r2, r2, r1
 1307 00e2 1A63     		str	r2, [r3, #48]
 1308              		.loc 1 528 0
 1309 00e4 019B     		ldr	r3, [sp, #4]
 1310 00e6 DB6A     		ldr	r3, [r3, #44]
 1311 00e8 039A     		ldr	r2, [sp, #12]
 1312 00ea 526A     		ldr	r2, [r2, #36]
 1313 00ec 5A63     		str	r2, [r3, #52]
 1314              		.loc 1 529 0
 1315 00ee 019B     		ldr	r3, [sp, #4]
 1316 00f0 DB6A     		ldr	r3, [r3, #44]
 1317 00f2 039A     		ldr	r2, [sp, #12]
 1318 00f4 926A     		ldr	r2, [r2, #40]
 1319 00f6 9A63     		str	r2, [r3, #56]
 1320              		.loc 1 530 0
 1321 00f8 019B     		ldr	r3, [sp, #4]
 1322 00fa DB6A     		ldr	r3, [r3, #44]
 1323 00fc 039A     		ldr	r2, [sp, #12]
 1324 00fe D26A     		ldr	r2, [r2, #44]
 1325 0100 DA63     		str	r2, [r3, #60]
 1326              		.loc 1 534 0
 1327 0102 019B     		ldr	r3, [sp, #4]
 1328 0104 DB6A     		ldr	r3, [r3, #44]
 1329 0106 049A     		ldr	r2, [sp, #16]
 1330 0108 DA60     		str	r2, [r3, #12]
 1331              		.loc 1 537 0
 1332 010a 019B     		ldr	r3, [sp, #4]
 1333 010c DB6A     		ldr	r3, [r3, #44]
 1334 010e 019A     		ldr	r2, [sp, #4]
 1335 0110 D26A     		ldr	r2, [r2, #44]
 1336 0112 9268     		ldr	r2, [r2, #8]
 1337 0114 42F00402 		orr	r2, r2, #4
 1338 0118 9A60     		str	r2, [r3, #8]
 1339              		.loc 1 538 0
 1340 011a 06B0     		add	sp, sp, #24
 1341              		.cfi_def_cfa_offset 0
 1342              		@ sp needed
 1343 011c 7047     		bx	lr
 1344              		.cfi_endproc
ARM GAS  /tmp/cc4bbnn2.s 			page 25


 1345              	.LFE130:
 1346              		.size	adc_lld_start_conversion, .-adc_lld_start_conversion
 1347 011e 00BF     		.section	.text.adc_lld_stop_conversion,"ax",%progbits
 1348              		.align	2
 1349              		.p2align 4,,15
 1350              		.global	adc_lld_stop_conversion
 1351              		.thumb
 1352              		.thumb_func
 1353              		.type	adc_lld_stop_conversion, %function
 1354              	adc_lld_stop_conversion:
 1355              	.LFB131:
 1356              		.loc 1 547 0
 1357              		.cfi_startproc
 1358              		@ args = 0, pretend = 0, frame = 8
 1359              		@ frame_needed = 0, uses_anonymous_args = 0
 1360 0000 00B5     		push	{lr}
 1361              		.cfi_def_cfa_offset 4
 1362              		.cfi_offset 14, -4
 1363 0002 83B0     		sub	sp, sp, #12
 1364              		.cfi_def_cfa_offset 16
 1365 0004 0190     		str	r0, [sp, #4]
 1366              		.loc 1 549 0
 1367 0006 019B     		ldr	r3, [sp, #4]
 1368 0008 1B6B     		ldr	r3, [r3, #48]
 1369 000a 1B68     		ldr	r3, [r3]
 1370 000c 019A     		ldr	r2, [sp, #4]
 1371 000e 126B     		ldr	r2, [r2, #48]
 1372 0010 1268     		ldr	r2, [r2]
 1373 0012 1268     		ldr	r2, [r2]
 1374 0014 22F00F02 		bic	r2, r2, #15
 1375 0018 1A60     		str	r2, [r3]
 1376 001a 019B     		ldr	r3, [sp, #4]
 1377 001c 1B6B     		ldr	r3, [r3, #48]
 1378 001e 5B68     		ldr	r3, [r3, #4]
 1379 0020 019A     		ldr	r2, [sp, #4]
 1380 0022 126B     		ldr	r2, [r2, #48]
 1381 0024 127A     		ldrb	r2, [r2, #8]	@ zero_extendqisi2
 1382 0026 1146     		mov	r1, r2
 1383 0028 0F22     		movs	r2, #15
 1384 002a 8A40     		lsls	r2, r2, r1
 1385 002c 1A60     		str	r2, [r3]
 1386              		.loc 1 550 0
 1387 002e 0198     		ldr	r0, [sp, #4]
 1388 0030 FFF7FEFF 		bl	adc_lld_stop_adc
 1389              		.loc 1 551 0
 1390 0034 03B0     		add	sp, sp, #12
 1391              		.cfi_def_cfa_offset 4
 1392              		@ sp needed
 1393 0036 5DF804FB 		ldr	pc, [sp], #4
 1394              		.cfi_endproc
 1395              	.LFE131:
 1396              		.size	adc_lld_stop_conversion, .-adc_lld_stop_conversion
 1397 003a 00BFAFF3 		.text
 1397      0080
 1398              	.Letext0:
 1399              		.file 2 "/home/denny/r2p-sdk/tools/gcc-arm-none-eabi-4_9-2014q4/lib/gcc/arm-none-eabi/4.9.3/includ
 1400              		.file 3 "/home/denny/r2p-sdk/tools/gcc-arm-none-eabi-4_9-2014q4/arm-none-eabi/include/machine/_def
ARM GAS  /tmp/cc4bbnn2.s 			page 26


 1401              		.file 4 "/home/denny/r2p-sdk/tools/gcc-arm-none-eabi-4_9-2014q4/arm-none-eabi/include/stdint.h"
 1402              		.file 5 "/home/denny/r2p-sdk/core/ChibiOS/os/ports/GCC/ARMCMx/chtypes.h"
 1403              		.file 6 "/home/denny/r2p-sdk/core/ChibiOS/os/kernel/include/chlists.h"
 1404              		.file 7 "/home/denny/r2p-sdk/core/ChibiOS/os/kernel/include/chthreads.h"
 1405              		.file 8 "/home/denny/r2p-sdk/core/ChibiOS/os/ports/GCC/ARMCMx/chcore_v7m.h"
 1406              		.file 9 "/home/denny/r2p-sdk/core/ChibiOS/os/kernel/include/chmtx.h"
 1407              		.file 10 "/home/denny/r2p-sdk/core/ChibiOS/os/hal/platforms/STM32F30x/stm32f30x.h"
 1408              		.file 11 "/home/denny/r2p-sdk/core/ChibiOS/os/hal/platforms/STM32F30x/stm32_dma.h"
 1409              		.file 12 "/home/denny/r2p-sdk/core/ChibiOS/os/hal/include/adc.h"
 1410              		.file 13 "/home/denny/r2p-sdk/core/ChibiOS/os/hal/platforms/STM32F30x/adc_lld.h"
 1411              		.file 14 "/home/denny/r2p-sdk/core/ChibiOS/os/ports/common/ARMCMx/CMSIS/include/core_cm4.h"