ARM GAS  /tmp/cc9NR6uk.s 			page 1


   1              		.syntax unified
   2              		.cpu cortex-m4
   3              		.eabi_attribute 27, 3
   4              		.eabi_attribute 28, 1
   5              		.fpu fpv4-sp-d16
   6              		.eabi_attribute 20, 1
   7              		.eabi_attribute 21, 1
   8              		.eabi_attribute 23, 3
   9              		.eabi_attribute 24, 1
  10              		.eabi_attribute 25, 1
  11              		.eabi_attribute 26, 1
  12              		.eabi_attribute 30, 6
  13              		.eabi_attribute 34, 1
  14              		.eabi_attribute 18, 4
  15              		.thumb
  16              		.file	"chmtx.c"
  17              		.text
  18              	.Ltext0:
  19              		.cfi_sections	.debug_frame
  20              		.section	.text.prio_insert,"ax",%progbits
  21              		.align	2
  22              		.p2align 4,,15
  23              		.thumb
  24              		.thumb_func
  25              		.type	prio_insert, %function
  26              	prio_insert:
  27              	.LFB0:
  28              		.file 1 "/home/denny/r2p-sdk/core/ChibiOS/os/kernel/include/chinline.h"
  29              		.loc 1 41 0
  30              		.cfi_startproc
  31              		@ args = 0, pretend = 0, frame = 16
  32              		@ frame_needed = 0, uses_anonymous_args = 0
  33              		@ link register save eliminated.
  34 0000 84B0     		sub	sp, sp, #16
  35              		.cfi_def_cfa_offset 16
  36 0002 0190     		str	r0, [sp, #4]
  37 0004 0091     		str	r1, [sp]
  38              		.loc 1 43 0
  39 0006 009B     		ldr	r3, [sp]
  40 0008 0393     		str	r3, [sp, #12]
  41              	.L3:
  42              		.loc 1 45 0 discriminator 2
  43 000a 039B     		ldr	r3, [sp, #12]
  44 000c 1B68     		ldr	r3, [r3]
  45 000e 0393     		str	r3, [sp, #12]
  46              		.loc 1 46 0 discriminator 2
  47 0010 039A     		ldr	r2, [sp, #12]
  48 0012 009B     		ldr	r3, [sp]
  49 0014 9A42     		cmp	r2, r3
  50 0016 05D0     		beq	.L2
  51              		.loc 1 46 0 is_stmt 0 discriminator 1
  52 0018 039B     		ldr	r3, [sp, #12]
  53 001a 9A68     		ldr	r2, [r3, #8]
  54 001c 019B     		ldr	r3, [sp, #4]
  55 001e 9B68     		ldr	r3, [r3, #8]
  56 0020 9A42     		cmp	r2, r3
  57 0022 F2D2     		bcs	.L3
ARM GAS  /tmp/cc9NR6uk.s 			page 2


  58              	.L2:
  59              		.loc 1 47 0 is_stmt 1
  60 0024 019B     		ldr	r3, [sp, #4]
  61 0026 039A     		ldr	r2, [sp, #12]
  62 0028 1A60     		str	r2, [r3]
  63              		.loc 1 48 0
  64 002a 039B     		ldr	r3, [sp, #12]
  65 002c 5A68     		ldr	r2, [r3, #4]
  66 002e 019B     		ldr	r3, [sp, #4]
  67 0030 5A60     		str	r2, [r3, #4]
  68              		.loc 1 49 0
  69 0032 019B     		ldr	r3, [sp, #4]
  70 0034 5B68     		ldr	r3, [r3, #4]
  71 0036 039A     		ldr	r2, [sp, #12]
  72 0038 0199     		ldr	r1, [sp, #4]
  73 003a 5160     		str	r1, [r2, #4]
  74 003c 039A     		ldr	r2, [sp, #12]
  75 003e 5268     		ldr	r2, [r2, #4]
  76 0040 1A60     		str	r2, [r3]
  77              		.loc 1 50 0
  78 0042 04B0     		add	sp, sp, #16
  79              		.cfi_def_cfa_offset 0
  80              		@ sp needed
  81 0044 7047     		bx	lr
  82              		.cfi_endproc
  83              	.LFE0:
  84              		.size	prio_insert, .-prio_insert
  85 0046 00BFAFF3 		.section	.text.fifo_remove,"ax",%progbits
  85      0080AFF3 
  85      0080
  86              		.align	2
  87              		.p2align 4,,15
  88              		.thumb
  89              		.thumb_func
  90              		.type	fifo_remove, %function
  91              	fifo_remove:
  92              	.LFB2:
  93              		.loc 1 59 0
  94              		.cfi_startproc
  95              		@ args = 0, pretend = 0, frame = 16
  96              		@ frame_needed = 0, uses_anonymous_args = 0
  97              		@ link register save eliminated.
  98 0000 84B0     		sub	sp, sp, #16
  99              		.cfi_def_cfa_offset 16
 100 0002 0190     		str	r0, [sp, #4]
 101              		.loc 1 60 0
 102 0004 019B     		ldr	r3, [sp, #4]
 103 0006 1B68     		ldr	r3, [r3]
 104 0008 0393     		str	r3, [sp, #12]
 105              		.loc 1 62 0
 106 000a 039B     		ldr	r3, [sp, #12]
 107 000c 1A68     		ldr	r2, [r3]
 108 000e 019B     		ldr	r3, [sp, #4]
 109 0010 1A60     		str	r2, [r3]
 110 0012 019B     		ldr	r3, [sp, #4]
 111 0014 1B68     		ldr	r3, [r3]
 112 0016 019A     		ldr	r2, [sp, #4]
ARM GAS  /tmp/cc9NR6uk.s 			page 3


 113 0018 5A60     		str	r2, [r3, #4]
 114              		.loc 1 63 0
 115 001a 039B     		ldr	r3, [sp, #12]
 116              		.loc 1 64 0
 117 001c 1846     		mov	r0, r3
 118 001e 04B0     		add	sp, sp, #16
 119              		.cfi_def_cfa_offset 0
 120              		@ sp needed
 121 0020 7047     		bx	lr
 122              		.cfi_endproc
 123              	.LFE2:
 124              		.size	fifo_remove, .-fifo_remove
 125 0022 00BFAFF3 		.section	.text.dequeue,"ax",%progbits
 125      0080AFF3 
 125      0080AFF3 
 125      0080
 126              		.align	2
 127              		.p2align 4,,15
 128              		.thumb
 129              		.thumb_func
 130              		.type	dequeue, %function
 131              	dequeue:
 132              	.LFB4:
 133              		.loc 1 73 0
 134              		.cfi_startproc
 135              		@ args = 0, pretend = 0, frame = 8
 136              		@ frame_needed = 0, uses_anonymous_args = 0
 137              		@ link register save eliminated.
 138 0000 82B0     		sub	sp, sp, #8
 139              		.cfi_def_cfa_offset 8
 140 0002 0190     		str	r0, [sp, #4]
 141              		.loc 1 75 0
 142 0004 019B     		ldr	r3, [sp, #4]
 143 0006 5B68     		ldr	r3, [r3, #4]
 144 0008 019A     		ldr	r2, [sp, #4]
 145 000a 1268     		ldr	r2, [r2]
 146 000c 1A60     		str	r2, [r3]
 147              		.loc 1 76 0
 148 000e 019B     		ldr	r3, [sp, #4]
 149 0010 1B68     		ldr	r3, [r3]
 150 0012 019A     		ldr	r2, [sp, #4]
 151 0014 5268     		ldr	r2, [r2, #4]
 152 0016 5A60     		str	r2, [r3, #4]
 153              		.loc 1 77 0
 154 0018 019B     		ldr	r3, [sp, #4]
 155              		.loc 1 78 0
 156 001a 1846     		mov	r0, r3
 157 001c 02B0     		add	sp, sp, #8
 158              		.cfi_def_cfa_offset 0
 159              		@ sp needed
 160 001e 7047     		bx	lr
 161              		.cfi_endproc
 162              	.LFE4:
 163              		.size	dequeue, .-dequeue
 164              		.section	.rodata
 165              		.align	2
 166              	.LC0:
ARM GAS  /tmp/cc9NR6uk.s 			page 4


 167 0000 2263684D 		.ascii	"\"chMtxInit\"()\000"
 167      7478496E 
 167      69742228 
 167      2900
 168              		.section	.text.chMtxInit,"ax",%progbits
 169              		.align	2
 170              		.p2align 4,,15
 171              		.global	chMtxInit
 172              		.thumb
 173              		.thumb_func
 174              		.type	chMtxInit, %function
 175              	chMtxInit:
 176              	.LFB7:
 177              		.file 2 "/home/denny/r2p-sdk/core/ChibiOS/os/kernel/src/chmtx.c"
 178              		.loc 2 86 0
 179              		.cfi_startproc
 180              		@ args = 0, pretend = 0, frame = 8
 181              		@ frame_needed = 0, uses_anonymous_args = 0
 182 0000 00B5     		push	{lr}
 183              		.cfi_def_cfa_offset 4
 184              		.cfi_offset 14, -4
 185 0002 83B0     		sub	sp, sp, #12
 186              		.cfi_def_cfa_offset 16
 187 0004 0190     		str	r0, [sp, #4]
 188              		.loc 2 88 0
 189 0006 019B     		ldr	r3, [sp, #4]
 190 0008 002B     		cmp	r3, #0
 191 000a 02D1     		bne	.L9
 192              		.loc 2 88 0 is_stmt 0 discriminator 1
 193 000c 0748     		ldr	r0, .L10
 194 000e FFF7FEFF 		bl	chDbgPanic
 195              	.L9:
 196              		.loc 2 90 0 is_stmt 1
 197 0012 019A     		ldr	r2, [sp, #4]
 198 0014 019B     		ldr	r3, [sp, #4]
 199 0016 5A60     		str	r2, [r3, #4]
 200 0018 019B     		ldr	r3, [sp, #4]
 201 001a 5A68     		ldr	r2, [r3, #4]
 202 001c 019B     		ldr	r3, [sp, #4]
 203 001e 1A60     		str	r2, [r3]
 204              		.loc 2 91 0
 205 0020 019B     		ldr	r3, [sp, #4]
 206 0022 0022     		movs	r2, #0
 207 0024 9A60     		str	r2, [r3, #8]
 208              		.loc 2 92 0
 209 0026 03B0     		add	sp, sp, #12
 210              		.cfi_def_cfa_offset 4
 211              		@ sp needed
 212 0028 5DF804FB 		ldr	pc, [sp], #4
 213              	.L11:
 214              		.align	2
 215              	.L10:
 216 002c 00000000 		.word	.LC0
 217              		.cfi_endproc
 218              	.LFE7:
 219              		.size	chMtxInit, .-chMtxInit
 220              		.section	.text.chMtxLock,"ax",%progbits
ARM GAS  /tmp/cc9NR6uk.s 			page 5


 221              		.align	2
 222              		.p2align 4,,15
 223              		.global	chMtxLock
 224              		.thumb
 225              		.thumb_func
 226              		.type	chMtxLock, %function
 227              	chMtxLock:
 228              	.LFB8:
 229              		.loc 2 103 0
 230              		.cfi_startproc
 231              		@ args = 0, pretend = 0, frame = 8
 232              		@ frame_needed = 0, uses_anonymous_args = 0
 233 0000 00B5     		push	{lr}
 234              		.cfi_def_cfa_offset 4
 235              		.cfi_offset 14, -4
 236 0002 83B0     		sub	sp, sp, #12
 237              		.cfi_def_cfa_offset 16
 238 0004 0190     		str	r0, [sp, #4]
 239              	.LBB2:
 240              		.loc 2 105 0
 241 0006 2023     		movs	r3, #32
 242              	@ 105 "/home/denny/r2p-sdk/core/ChibiOS/os/kernel/src/chmtx.c" 1
 243 0008 83F31188 		msr     BASEPRI, r3
 244              	@ 0 "" 2
 245              		.thumb
 246              	.LBE2:
 247 000c FFF7FEFF 		bl	dbg_check_lock
 248              		.loc 2 107 0
 249 0010 0198     		ldr	r0, [sp, #4]
 250 0012 FFF7FEFF 		bl	chMtxLockS
 251              		.loc 2 109 0
 252 0016 FFF7FEFF 		bl	dbg_check_unlock
 253              	.LBB3:
 254 001a 0023     		movs	r3, #0
 255              	@ 109 "/home/denny/r2p-sdk/core/ChibiOS/os/kernel/src/chmtx.c" 1
 256 001c 83F31188 		msr     BASEPRI, r3
 257              	@ 0 "" 2
 258              		.thumb
 259              	.LBE3:
 260              		.loc 2 110 0
 261 0020 03B0     		add	sp, sp, #12
 262              		.cfi_def_cfa_offset 4
 263              		@ sp needed
 264 0022 5DF804FB 		ldr	pc, [sp], #4
 265              		.cfi_endproc
 266              	.LFE8:
 267              		.size	chMtxLock, .-chMtxLock
 268 0026 00BFAFF3 		.section	.rodata
 268      0080AFF3 
 268      0080
 269 000e 0000     		.align	2
 270              	.LC1:
 271 0010 2263684D 		.ascii	"\"chMtxLockS\"()\000"
 271      74784C6F 
 271      636B5322 
 271      282900
 272 001f 00       		.align	2
ARM GAS  /tmp/cc9NR6uk.s 			page 6


 273              	.LC2:
 274 0020 63684D74 		.ascii	"chMtxLockS(), #1\000"
 274      784C6F63 
 274      6B532829 
 274      2C202331 
 274      00
 275 0031 000000   		.align	2
 276              	.LC3:
 277 0034 63684D74 		.ascii	"chMtxLockS(), #2\000"
 277      784C6F63 
 277      6B532829 
 277      2C202332 
 277      00
 278              		.section	.text.chMtxLockS,"ax",%progbits
 279              		.align	2
 280              		.p2align 4,,15
 281              		.global	chMtxLockS
 282              		.thumb
 283              		.thumb_func
 284              		.type	chMtxLockS, %function
 285              	chMtxLockS:
 286              	.LFB9:
 287              		.loc 2 121 0
 288              		.cfi_startproc
 289              		@ args = 0, pretend = 0, frame = 16
 290              		@ frame_needed = 0, uses_anonymous_args = 0
 291 0000 00B5     		push	{lr}
 292              		.cfi_def_cfa_offset 4
 293              		.cfi_offset 14, -4
 294 0002 85B0     		sub	sp, sp, #20
 295              		.cfi_def_cfa_offset 24
 296 0004 0190     		str	r0, [sp, #4]
 297              		.loc 2 122 0
 298 0006 3C4B     		ldr	r3, .L26
 299 0008 9B69     		ldr	r3, [r3, #24]
 300 000a 0293     		str	r3, [sp, #8]
 301              		.loc 2 124 0
 302 000c FFF7FEFF 		bl	chDbgCheckClassS
 303              		.loc 2 125 0
 304 0010 019B     		ldr	r3, [sp, #4]
 305 0012 002B     		cmp	r3, #0
 306 0014 02D1     		bne	.L14
 307              		.loc 2 125 0 is_stmt 0 discriminator 1
 308 0016 3948     		ldr	r0, .L26+4
 309 0018 FFF7FEFF 		bl	chDbgPanic
 310              	.L14:
 311              		.loc 2 128 0 is_stmt 1
 312 001c 019B     		ldr	r3, [sp, #4]
 313 001e 9B68     		ldr	r3, [r3, #8]
 314 0020 002B     		cmp	r3, #0
 315 0022 5BD0     		beq	.L15
 316              	.LBB4:
 317              		.loc 2 132 0
 318 0024 019B     		ldr	r3, [sp, #4]
 319 0026 9B68     		ldr	r3, [r3, #8]
 320 0028 0393     		str	r3, [sp, #12]
 321              		.loc 2 135 0
ARM GAS  /tmp/cc9NR6uk.s 			page 7


 322 002a 34E0     		b	.L16
 323              	.L22:
 324              		.loc 2 137 0
 325 002c 029B     		ldr	r3, [sp, #8]
 326 002e 9A68     		ldr	r2, [r3, #8]
 327 0030 039B     		ldr	r3, [sp, #12]
 328 0032 9A60     		str	r2, [r3, #8]
 329              		.loc 2 139 0
 330 0034 039B     		ldr	r3, [sp, #12]
 331 0036 93F82030 		ldrb	r3, [r3, #32]	@ zero_extendqisi2
 332 003a 042B     		cmp	r3, #4
 333 003c 04D0     		beq	.L18
 334 003e 052B     		cmp	r3, #5
 335 0040 11D0     		beq	.L19
 336 0042 002B     		cmp	r3, #0
 337 0044 1AD0     		beq	.L20
 338              		.loc 2 170 0
 339 0046 2CE0     		b	.L21
 340              	.L18:
 341              		.loc 2 142 0
 342 0048 0398     		ldr	r0, [sp, #12]
 343 004a FFF7FEFF 		bl	dequeue
 344 004e 0246     		mov	r2, r0
 345 0050 039B     		ldr	r3, [sp, #12]
 346 0052 9B6A     		ldr	r3, [r3, #40]
 347 0054 1046     		mov	r0, r2
 348 0056 1946     		mov	r1, r3
 349 0058 FFF7FEFF 		bl	prio_insert
 350              		.loc 2 143 0
 351 005c 039B     		ldr	r3, [sp, #12]
 352 005e 9B6A     		ldr	r3, [r3, #40]
 353 0060 9B68     		ldr	r3, [r3, #8]
 354 0062 0393     		str	r3, [sp, #12]
 355              		.loc 2 144 0
 356 0064 17E0     		b	.L16
 357              	.L19:
 358              		.loc 2 158 0
 359 0066 0398     		ldr	r0, [sp, #12]
 360 0068 FFF7FEFF 		bl	dequeue
 361 006c 0246     		mov	r2, r0
 362 006e 039B     		ldr	r3, [sp, #12]
 363 0070 9B6A     		ldr	r3, [r3, #40]
 364 0072 1046     		mov	r0, r2
 365 0074 1946     		mov	r1, r3
 366 0076 FFF7FEFF 		bl	prio_insert
 367              		.loc 2 159 0
 368 007a 0BE0     		b	.L17
 369              	.L20:
 370              		.loc 2 164 0
 371 007c 039B     		ldr	r3, [sp, #12]
 372 007e 0122     		movs	r2, #1
 373 0080 83F82020 		strb	r2, [r3, #32]
 374              		.loc 2 167 0
 375 0084 0398     		ldr	r0, [sp, #12]
 376 0086 FFF7FEFF 		bl	dequeue
 377 008a 0346     		mov	r3, r0
 378 008c 1846     		mov	r0, r3
ARM GAS  /tmp/cc9NR6uk.s 			page 8


 379 008e FFF7FEFF 		bl	chSchReadyI
 380              		.loc 2 168 0
 381 0092 00BF     		nop
 382              	.L17:
 383              		.loc 2 170 0
 384 0094 05E0     		b	.L21
 385              	.L16:
 386              		.loc 2 135 0
 387 0096 039B     		ldr	r3, [sp, #12]
 388 0098 9A68     		ldr	r2, [r3, #8]
 389 009a 029B     		ldr	r3, [sp, #8]
 390 009c 9B68     		ldr	r3, [r3, #8]
 391 009e 9A42     		cmp	r2, r3
 392 00a0 C4D3     		bcc	.L22
 393              	.L21:
 394              		.loc 2 173 0
 395 00a2 019B     		ldr	r3, [sp, #4]
 396 00a4 0298     		ldr	r0, [sp, #8]
 397 00a6 1946     		mov	r1, r3
 398 00a8 FFF7FEFF 		bl	prio_insert
 399              		.loc 2 174 0
 400 00ac 029B     		ldr	r3, [sp, #8]
 401 00ae 019A     		ldr	r2, [sp, #4]
 402 00b0 9A62     		str	r2, [r3, #40]
 403              		.loc 2 175 0
 404 00b2 0420     		movs	r0, #4
 405 00b4 FFF7FEFF 		bl	chSchGoSleepS
 406              		.loc 2 178 0
 407 00b8 019B     		ldr	r3, [sp, #4]
 408 00ba 9A68     		ldr	r2, [r3, #8]
 409 00bc 029B     		ldr	r3, [sp, #8]
 410 00be 9A42     		cmp	r2, r3
 411 00c0 02D0     		beq	.L23
 412              		.loc 2 178 0 is_stmt 0 discriminator 1
 413 00c2 0F48     		ldr	r0, .L26+8
 414 00c4 FFF7FEFF 		bl	chDbgPanic
 415              	.L23:
 416              		.loc 2 179 0 is_stmt 1
 417 00c8 029B     		ldr	r3, [sp, #8]
 418 00ca 1A6C     		ldr	r2, [r3, #64]
 419 00cc 019B     		ldr	r3, [sp, #4]
 420 00ce 9A42     		cmp	r2, r3
 421 00d0 03D0     		beq	.L24
 422              		.loc 2 179 0 is_stmt 0 discriminator 1
 423 00d2 0C48     		ldr	r0, .L26+12
 424 00d4 FFF7FEFF 		bl	chDbgPanic
 425              	.LBE4:
 426 00d8 0AE0     		b	.L13
 427              	.L24:
 428 00da 09E0     		b	.L13
 429              	.L15:
 430              		.loc 2 183 0 is_stmt 1
 431 00dc 019B     		ldr	r3, [sp, #4]
 432 00de 029A     		ldr	r2, [sp, #8]
 433 00e0 9A60     		str	r2, [r3, #8]
 434              		.loc 2 184 0
 435 00e2 029B     		ldr	r3, [sp, #8]
ARM GAS  /tmp/cc9NR6uk.s 			page 9


 436 00e4 1A6C     		ldr	r2, [r3, #64]
 437 00e6 019B     		ldr	r3, [sp, #4]
 438 00e8 DA60     		str	r2, [r3, #12]
 439              		.loc 2 185 0
 440 00ea 029B     		ldr	r3, [sp, #8]
 441 00ec 019A     		ldr	r2, [sp, #4]
 442 00ee 1A64     		str	r2, [r3, #64]
 443              	.L13:
 444              		.loc 2 187 0
 445 00f0 05B0     		add	sp, sp, #20
 446              		.cfi_def_cfa_offset 4
 447              		@ sp needed
 448 00f2 5DF804FB 		ldr	pc, [sp], #4
 449              	.L27:
 450 00f6 00BF     		.align	2
 451              	.L26:
 452 00f8 00000000 		.word	rlist
 453 00fc 10000000 		.word	.LC1
 454 0100 20000000 		.word	.LC2
 455 0104 34000000 		.word	.LC3
 456              		.cfi_endproc
 457              	.LFE9:
 458              		.size	chMtxLockS, .-chMtxLockS
 459 0108 AFF30080 		.section	.text.chMtxTryLock,"ax",%progbits
 459      AFF30080 
 460              		.align	2
 461              		.p2align 4,,15
 462              		.global	chMtxTryLock
 463              		.thumb
 464              		.thumb_func
 465              		.type	chMtxTryLock, %function
 466              	chMtxTryLock:
 467              	.LFB10:
 468              		.loc 2 206 0
 469              		.cfi_startproc
 470              		@ args = 0, pretend = 0, frame = 16
 471              		@ frame_needed = 0, uses_anonymous_args = 0
 472 0000 00B5     		push	{lr}
 473              		.cfi_def_cfa_offset 4
 474              		.cfi_offset 14, -4
 475 0002 85B0     		sub	sp, sp, #20
 476              		.cfi_def_cfa_offset 24
 477 0004 0190     		str	r0, [sp, #4]
 478              	.LBB5:
 479              		.loc 2 209 0
 480 0006 2023     		movs	r3, #32
 481              	@ 209 "/home/denny/r2p-sdk/core/ChibiOS/os/kernel/src/chmtx.c" 1
 482 0008 83F31188 		msr     BASEPRI, r3
 483              	@ 0 "" 2
 484              		.thumb
 485              	.LBE5:
 486 000c FFF7FEFF 		bl	dbg_check_lock
 487              		.loc 2 211 0
 488 0010 0198     		ldr	r0, [sp, #4]
 489 0012 FFF7FEFF 		bl	chMtxTryLockS
 490 0016 0346     		mov	r3, r0
 491 0018 8DF80F30 		strb	r3, [sp, #15]
ARM GAS  /tmp/cc9NR6uk.s 			page 10


 492              		.loc 2 213 0
 493 001c FFF7FEFF 		bl	dbg_check_unlock
 494              	.LBB6:
 495 0020 0023     		movs	r3, #0
 496              	@ 213 "/home/denny/r2p-sdk/core/ChibiOS/os/kernel/src/chmtx.c" 1
 497 0022 83F31188 		msr     BASEPRI, r3
 498              	@ 0 "" 2
 499              		.thumb
 500              	.LBE6:
 501              		.loc 2 214 0
 502 0026 9DF80F30 		ldrb	r3, [sp, #15]	@ zero_extendqisi2
 503              		.loc 2 215 0
 504 002a 1846     		mov	r0, r3
 505 002c 05B0     		add	sp, sp, #20
 506              		.cfi_def_cfa_offset 4
 507              		@ sp needed
 508 002e 5DF804FB 		ldr	pc, [sp], #4
 509              		.cfi_endproc
 510              	.LFE10:
 511              		.size	chMtxTryLock, .-chMtxTryLock
 512 0032 00BFAFF3 		.section	.rodata
 512      0080AFF3 
 512      0080AFF3 
 512      0080
 513 0045 000000   		.align	2
 514              	.LC4:
 515 0048 2263684D 		.ascii	"\"chMtxTryLockS\"()\000"
 515      74785472 
 515      794C6F63 
 515      6B532228 
 515      2900
 516              		.section	.text.chMtxTryLockS,"ax",%progbits
 517              		.align	2
 518              		.p2align 4,,15
 519              		.global	chMtxTryLockS
 520              		.thumb
 521              		.thumb_func
 522              		.type	chMtxTryLockS, %function
 523              	chMtxTryLockS:
 524              	.LFB11:
 525              		.loc 2 234 0
 526              		.cfi_startproc
 527              		@ args = 0, pretend = 0, frame = 8
 528              		@ frame_needed = 0, uses_anonymous_args = 0
 529 0000 00B5     		push	{lr}
 530              		.cfi_def_cfa_offset 4
 531              		.cfi_offset 14, -4
 532 0002 83B0     		sub	sp, sp, #12
 533              		.cfi_def_cfa_offset 16
 534 0004 0190     		str	r0, [sp, #4]
 535              		.loc 2 236 0
 536 0006 FFF7FEFF 		bl	chDbgCheckClassS
 537              		.loc 2 237 0
 538 000a 019B     		ldr	r3, [sp, #4]
 539 000c 002B     		cmp	r3, #0
 540 000e 02D1     		bne	.L31
 541              		.loc 2 237 0 is_stmt 0 discriminator 1
ARM GAS  /tmp/cc9NR6uk.s 			page 11


 542 0010 0D48     		ldr	r0, .L34
 543 0012 FFF7FEFF 		bl	chDbgPanic
 544              	.L31:
 545              		.loc 2 239 0 is_stmt 1
 546 0016 019B     		ldr	r3, [sp, #4]
 547 0018 9B68     		ldr	r3, [r3, #8]
 548 001a 002B     		cmp	r3, #0
 549 001c 01D0     		beq	.L32
 550              		.loc 2 240 0
 551 001e 0023     		movs	r3, #0
 552 0020 0DE0     		b	.L33
 553              	.L32:
 554              		.loc 2 241 0
 555 0022 0A4B     		ldr	r3, .L34+4
 556 0024 9A69     		ldr	r2, [r3, #24]
 557 0026 019B     		ldr	r3, [sp, #4]
 558 0028 9A60     		str	r2, [r3, #8]
 559              		.loc 2 242 0
 560 002a 084B     		ldr	r3, .L34+4
 561 002c 9B69     		ldr	r3, [r3, #24]
 562 002e 1A6C     		ldr	r2, [r3, #64]
 563 0030 019B     		ldr	r3, [sp, #4]
 564 0032 DA60     		str	r2, [r3, #12]
 565              		.loc 2 243 0
 566 0034 054B     		ldr	r3, .L34+4
 567 0036 9B69     		ldr	r3, [r3, #24]
 568 0038 019A     		ldr	r2, [sp, #4]
 569 003a 1A64     		str	r2, [r3, #64]
 570              		.loc 2 244 0
 571 003c 0123     		movs	r3, #1
 572              	.L33:
 573              		.loc 2 245 0
 574 003e 1846     		mov	r0, r3
 575 0040 03B0     		add	sp, sp, #12
 576              		.cfi_def_cfa_offset 4
 577              		@ sp needed
 578 0042 5DF804FB 		ldr	pc, [sp], #4
 579              	.L35:
 580 0046 00BF     		.align	2
 581              	.L34:
 582 0048 48000000 		.word	.LC4
 583 004c 00000000 		.word	rlist
 584              		.cfi_endproc
 585              	.LFE11:
 586              		.size	chMtxTryLockS, .-chMtxTryLockS
 587              		.section	.rodata
 588 005a 0000     		.align	2
 589              	.LC5:
 590 005c 63684D74 		.ascii	"chMtxUnlock(), #1\000"
 590      78556E6C 
 590      6F636B28 
 590      292C2023 
 590      3100
 591 006e 0000     		.align	2
 592              	.LC6:
 593 0070 63684D74 		.ascii	"chMtxUnlock(), #2\000"
 593      78556E6C 
ARM GAS  /tmp/cc9NR6uk.s 			page 12


 593      6F636B28 
 593      292C2023 
 593      3200
 594              		.section	.text.chMtxUnlock,"ax",%progbits
 595              		.align	2
 596              		.p2align 4,,15
 597              		.global	chMtxUnlock
 598              		.thumb
 599              		.thumb_func
 600              		.type	chMtxUnlock, %function
 601              	chMtxUnlock:
 602              	.LFB12:
 603              		.loc 2 257 0
 604              		.cfi_startproc
 605              		@ args = 0, pretend = 0, frame = 24
 606              		@ frame_needed = 0, uses_anonymous_args = 0
 607 0000 00B5     		push	{lr}
 608              		.cfi_def_cfa_offset 4
 609              		.cfi_offset 14, -4
 610 0002 87B0     		sub	sp, sp, #28
 611              		.cfi_def_cfa_offset 32
 612              		.loc 2 258 0
 613 0004 314B     		ldr	r3, .L45
 614 0006 9B69     		ldr	r3, [r3, #24]
 615 0008 0393     		str	r3, [sp, #12]
 616              	.LBB7:
 617              		.loc 2 261 0
 618 000a 2023     		movs	r3, #32
 619              	@ 261 "/home/denny/r2p-sdk/core/ChibiOS/os/kernel/src/chmtx.c" 1
 620 000c 83F31188 		msr     BASEPRI, r3
 621              	@ 0 "" 2
 622              		.thumb
 623              	.LBE7:
 624 0010 FFF7FEFF 		bl	dbg_check_lock
 625              		.loc 2 262 0
 626 0014 039B     		ldr	r3, [sp, #12]
 627 0016 1B6C     		ldr	r3, [r3, #64]
 628 0018 002B     		cmp	r3, #0
 629 001a 02D1     		bne	.L37
 630              		.loc 2 262 0 is_stmt 0 discriminator 1
 631 001c 2C48     		ldr	r0, .L45+4
 632 001e FFF7FEFF 		bl	chDbgPanic
 633              	.L37:
 634              		.loc 2 265 0 is_stmt 1
 635 0022 039B     		ldr	r3, [sp, #12]
 636 0024 1B6C     		ldr	r3, [r3, #64]
 637 0026 9A68     		ldr	r2, [r3, #8]
 638 0028 039B     		ldr	r3, [sp, #12]
 639 002a 9A42     		cmp	r2, r3
 640 002c 02D0     		beq	.L38
 641              		.loc 2 265 0 is_stmt 0 discriminator 1
 642 002e 2948     		ldr	r0, .L45+8
 643 0030 FFF7FEFF 		bl	chDbgPanic
 644              	.L38:
 645              		.loc 2 270 0 is_stmt 1
 646 0034 039B     		ldr	r3, [sp, #12]
 647 0036 1B6C     		ldr	r3, [r3, #64]
ARM GAS  /tmp/cc9NR6uk.s 			page 13


 648 0038 0293     		str	r3, [sp, #8]
 649              		.loc 2 271 0
 650 003a 029B     		ldr	r3, [sp, #8]
 651 003c DA68     		ldr	r2, [r3, #12]
 652 003e 039B     		ldr	r3, [sp, #12]
 653 0040 1A64     		str	r2, [r3, #64]
 654              		.loc 2 273 0
 655 0042 029B     		ldr	r3, [sp, #8]
 656 0044 1A68     		ldr	r2, [r3]
 657 0046 029B     		ldr	r3, [sp, #8]
 658 0048 9A42     		cmp	r2, r3
 659 004a 32D0     		beq	.L39
 660              	.LBB8:
 661              		.loc 2 278 0
 662 004c 039B     		ldr	r3, [sp, #12]
 663 004e 5B6C     		ldr	r3, [r3, #68]
 664 0050 0493     		str	r3, [sp, #16]
 665              		.loc 2 279 0
 666 0052 039B     		ldr	r3, [sp, #12]
 667 0054 1B6C     		ldr	r3, [r3, #64]
 668 0056 0593     		str	r3, [sp, #20]
 669              		.loc 2 280 0
 670 0058 11E0     		b	.L40
 671              	.L42:
 672              		.loc 2 284 0
 673 005a 059B     		ldr	r3, [sp, #20]
 674 005c 1A68     		ldr	r2, [r3]
 675 005e 059B     		ldr	r3, [sp, #20]
 676 0060 9A42     		cmp	r2, r3
 677 0062 09D0     		beq	.L41
 678              		.loc 2 284 0 is_stmt 0 discriminator 1
 679 0064 059B     		ldr	r3, [sp, #20]
 680 0066 1B68     		ldr	r3, [r3]
 681 0068 9A68     		ldr	r2, [r3, #8]
 682 006a 049B     		ldr	r3, [sp, #16]
 683 006c 9A42     		cmp	r2, r3
 684 006e 03D9     		bls	.L41
 685              		.loc 2 285 0 is_stmt 1
 686 0070 059B     		ldr	r3, [sp, #20]
 687 0072 1B68     		ldr	r3, [r3]
 688 0074 9B68     		ldr	r3, [r3, #8]
 689 0076 0493     		str	r3, [sp, #16]
 690              	.L41:
 691              		.loc 2 286 0
 692 0078 059B     		ldr	r3, [sp, #20]
 693 007a DB68     		ldr	r3, [r3, #12]
 694 007c 0593     		str	r3, [sp, #20]
 695              	.L40:
 696              		.loc 2 280 0
 697 007e 059B     		ldr	r3, [sp, #20]
 698 0080 002B     		cmp	r3, #0
 699 0082 EAD1     		bne	.L42
 700              		.loc 2 290 0
 701 0084 039B     		ldr	r3, [sp, #12]
 702 0086 049A     		ldr	r2, [sp, #16]
 703 0088 9A60     		str	r2, [r3, #8]
 704              		.loc 2 293 0
ARM GAS  /tmp/cc9NR6uk.s 			page 14


 705 008a 029B     		ldr	r3, [sp, #8]
 706 008c 1846     		mov	r0, r3
 707 008e FFF7FEFF 		bl	fifo_remove
 708 0092 0190     		str	r0, [sp, #4]
 709              		.loc 2 294 0
 710 0094 029B     		ldr	r3, [sp, #8]
 711 0096 019A     		ldr	r2, [sp, #4]
 712 0098 9A60     		str	r2, [r3, #8]
 713              		.loc 2 295 0
 714 009a 019B     		ldr	r3, [sp, #4]
 715 009c 1A6C     		ldr	r2, [r3, #64]
 716 009e 029B     		ldr	r3, [sp, #8]
 717 00a0 DA60     		str	r2, [r3, #12]
 718              		.loc 2 296 0
 719 00a2 019B     		ldr	r3, [sp, #4]
 720 00a4 029A     		ldr	r2, [sp, #8]
 721 00a6 1A64     		str	r2, [r3, #64]
 722              		.loc 2 297 0
 723 00a8 0198     		ldr	r0, [sp, #4]
 724 00aa 0021     		movs	r1, #0
 725 00ac FFF7FEFF 		bl	chSchWakeupS
 726              	.LBE8:
 727 00b0 02E0     		b	.L43
 728              	.L39:
 729              		.loc 2 300 0
 730 00b2 029B     		ldr	r3, [sp, #8]
 731 00b4 0022     		movs	r2, #0
 732 00b6 9A60     		str	r2, [r3, #8]
 733              	.L43:
 734              		.loc 2 301 0
 735 00b8 FFF7FEFF 		bl	dbg_check_unlock
 736              	.LBB9:
 737 00bc 0023     		movs	r3, #0
 738              	@ 301 "/home/denny/r2p-sdk/core/ChibiOS/os/kernel/src/chmtx.c" 1
 739 00be 83F31188 		msr     BASEPRI, r3
 740              	@ 0 "" 2
 741              		.thumb
 742              	.LBE9:
 743              		.loc 2 302 0
 744 00c2 029B     		ldr	r3, [sp, #8]
 745              		.loc 2 303 0
 746 00c4 1846     		mov	r0, r3
 747 00c6 07B0     		add	sp, sp, #28
 748              		.cfi_def_cfa_offset 4
 749              		@ sp needed
 750 00c8 5DF804FB 		ldr	pc, [sp], #4
 751              	.L46:
 752              		.align	2
 753              	.L45:
 754 00cc 00000000 		.word	rlist
 755 00d0 5C000000 		.word	.LC5
 756 00d4 70000000 		.word	.LC6
 757              		.cfi_endproc
 758              	.LFE12:
 759              		.size	chMtxUnlock, .-chMtxUnlock
 760 00d8 AFF30080 		.section	.rodata
 760      AFF30080 
ARM GAS  /tmp/cc9NR6uk.s 			page 15


 761 0082 0000     		.align	2
 762              	.LC7:
 763 0084 63684D74 		.ascii	"chMtxUnlockS(), #1\000"
 763      78556E6C 
 763      6F636B53 
 763      28292C20 
 763      233100
 764 0097 00       		.align	2
 765              	.LC8:
 766 0098 63684D74 		.ascii	"chMtxUnlockS(), #2\000"
 766      78556E6C 
 766      6F636B53 
 766      28292C20 
 766      233200
 767 00ab 00       		.section	.text.chMtxUnlockS,"ax",%progbits
 768              		.align	2
 769              		.p2align 4,,15
 770              		.global	chMtxUnlockS
 771              		.thumb
 772              		.thumb_func
 773              		.type	chMtxUnlockS, %function
 774              	chMtxUnlockS:
 775              	.LFB13:
 776              		.loc 2 317 0
 777              		.cfi_startproc
 778              		@ args = 0, pretend = 0, frame = 24
 779              		@ frame_needed = 0, uses_anonymous_args = 0
 780 0000 00B5     		push	{lr}
 781              		.cfi_def_cfa_offset 4
 782              		.cfi_offset 14, -4
 783 0002 87B0     		sub	sp, sp, #28
 784              		.cfi_def_cfa_offset 32
 785              		.loc 2 318 0
 786 0004 2D4B     		ldr	r3, .L56
 787 0006 9B69     		ldr	r3, [r3, #24]
 788 0008 0393     		str	r3, [sp, #12]
 789              		.loc 2 321 0
 790 000a FFF7FEFF 		bl	chDbgCheckClassS
 791              		.loc 2 322 0
 792 000e 039B     		ldr	r3, [sp, #12]
 793 0010 1B6C     		ldr	r3, [r3, #64]
 794 0012 002B     		cmp	r3, #0
 795 0014 02D1     		bne	.L48
 796              		.loc 2 322 0 is_stmt 0 discriminator 1
 797 0016 2A48     		ldr	r0, .L56+4
 798 0018 FFF7FEFF 		bl	chDbgPanic
 799              	.L48:
 800              		.loc 2 325 0 is_stmt 1
 801 001c 039B     		ldr	r3, [sp, #12]
 802 001e 1B6C     		ldr	r3, [r3, #64]
 803 0020 9A68     		ldr	r2, [r3, #8]
 804 0022 039B     		ldr	r3, [sp, #12]
 805 0024 9A42     		cmp	r2, r3
 806 0026 02D0     		beq	.L49
 807              		.loc 2 325 0 is_stmt 0 discriminator 1
 808 0028 2648     		ldr	r0, .L56+8
 809 002a FFF7FEFF 		bl	chDbgPanic
ARM GAS  /tmp/cc9NR6uk.s 			page 16


 810              	.L49:
 811              		.loc 2 331 0 is_stmt 1
 812 002e 039B     		ldr	r3, [sp, #12]
 813 0030 1B6C     		ldr	r3, [r3, #64]
 814 0032 0293     		str	r3, [sp, #8]
 815              		.loc 2 332 0
 816 0034 029B     		ldr	r3, [sp, #8]
 817 0036 DA68     		ldr	r2, [r3, #12]
 818 0038 039B     		ldr	r3, [sp, #12]
 819 003a 1A64     		str	r2, [r3, #64]
 820              		.loc 2 334 0
 821 003c 029B     		ldr	r3, [sp, #8]
 822 003e 1A68     		ldr	r2, [r3]
 823 0040 029B     		ldr	r3, [sp, #8]
 824 0042 9A42     		cmp	r2, r3
 825 0044 31D0     		beq	.L50
 826              	.LBB10:
 827              		.loc 2 339 0
 828 0046 039B     		ldr	r3, [sp, #12]
 829 0048 5B6C     		ldr	r3, [r3, #68]
 830 004a 0493     		str	r3, [sp, #16]
 831              		.loc 2 340 0
 832 004c 039B     		ldr	r3, [sp, #12]
 833 004e 1B6C     		ldr	r3, [r3, #64]
 834 0050 0593     		str	r3, [sp, #20]
 835              		.loc 2 341 0
 836 0052 11E0     		b	.L51
 837              	.L53:
 838              		.loc 2 345 0
 839 0054 059B     		ldr	r3, [sp, #20]
 840 0056 1A68     		ldr	r2, [r3]
 841 0058 059B     		ldr	r3, [sp, #20]
 842 005a 9A42     		cmp	r2, r3
 843 005c 09D0     		beq	.L52
 844              		.loc 2 345 0 is_stmt 0 discriminator 1
 845 005e 059B     		ldr	r3, [sp, #20]
 846 0060 1B68     		ldr	r3, [r3]
 847 0062 9A68     		ldr	r2, [r3, #8]
 848 0064 049B     		ldr	r3, [sp, #16]
 849 0066 9A42     		cmp	r2, r3
 850 0068 03D9     		bls	.L52
 851              		.loc 2 346 0 is_stmt 1
 852 006a 059B     		ldr	r3, [sp, #20]
 853 006c 1B68     		ldr	r3, [r3]
 854 006e 9B68     		ldr	r3, [r3, #8]
 855 0070 0493     		str	r3, [sp, #16]
 856              	.L52:
 857              		.loc 2 347 0
 858 0072 059B     		ldr	r3, [sp, #20]
 859 0074 DB68     		ldr	r3, [r3, #12]
 860 0076 0593     		str	r3, [sp, #20]
 861              	.L51:
 862              		.loc 2 341 0
 863 0078 059B     		ldr	r3, [sp, #20]
 864 007a 002B     		cmp	r3, #0
 865 007c EAD1     		bne	.L53
 866              		.loc 2 349 0
ARM GAS  /tmp/cc9NR6uk.s 			page 17


 867 007e 039B     		ldr	r3, [sp, #12]
 868 0080 049A     		ldr	r2, [sp, #16]
 869 0082 9A60     		str	r2, [r3, #8]
 870              		.loc 2 352 0
 871 0084 029B     		ldr	r3, [sp, #8]
 872 0086 1846     		mov	r0, r3
 873 0088 FFF7FEFF 		bl	fifo_remove
 874 008c 0190     		str	r0, [sp, #4]
 875              		.loc 2 353 0
 876 008e 029B     		ldr	r3, [sp, #8]
 877 0090 019A     		ldr	r2, [sp, #4]
 878 0092 9A60     		str	r2, [r3, #8]
 879              		.loc 2 354 0
 880 0094 019B     		ldr	r3, [sp, #4]
 881 0096 1A6C     		ldr	r2, [r3, #64]
 882 0098 029B     		ldr	r3, [sp, #8]
 883 009a DA60     		str	r2, [r3, #12]
 884              		.loc 2 355 0
 885 009c 019B     		ldr	r3, [sp, #4]
 886 009e 029A     		ldr	r2, [sp, #8]
 887 00a0 1A64     		str	r2, [r3, #64]
 888              		.loc 2 356 0
 889 00a2 0198     		ldr	r0, [sp, #4]
 890 00a4 FFF7FEFF 		bl	chSchReadyI
 891              	.LBE10:
 892 00a8 02E0     		b	.L54
 893              	.L50:
 894              		.loc 2 359 0
 895 00aa 029B     		ldr	r3, [sp, #8]
 896 00ac 0022     		movs	r2, #0
 897 00ae 9A60     		str	r2, [r3, #8]
 898              	.L54:
 899              		.loc 2 360 0
 900 00b0 029B     		ldr	r3, [sp, #8]
 901              		.loc 2 361 0
 902 00b2 1846     		mov	r0, r3
 903 00b4 07B0     		add	sp, sp, #28
 904              		.cfi_def_cfa_offset 4
 905              		@ sp needed
 906 00b6 5DF804FB 		ldr	pc, [sp], #4
 907              	.L57:
 908 00ba 00BF     		.align	2
 909              	.L56:
 910 00bc 00000000 		.word	rlist
 911 00c0 84000000 		.word	.LC7
 912 00c4 98000000 		.word	.LC8
 913              		.cfi_endproc
 914              	.LFE13:
 915              		.size	chMtxUnlockS, .-chMtxUnlockS
 916 00c8 AFF30080 		.section	.text.chMtxUnlockAll,"ax",%progbits
 916      AFF30080 
 917              		.align	2
 918              		.p2align 4,,15
 919              		.global	chMtxUnlockAll
 920              		.thumb
 921              		.thumb_func
 922              		.type	chMtxUnlockAll, %function
ARM GAS  /tmp/cc9NR6uk.s 			page 18


 923              	chMtxUnlockAll:
 924              	.LFB14:
 925              		.loc 2 374 0
 926              		.cfi_startproc
 927              		@ args = 0, pretend = 0, frame = 16
 928              		@ frame_needed = 0, uses_anonymous_args = 0
 929 0000 00B5     		push	{lr}
 930              		.cfi_def_cfa_offset 4
 931              		.cfi_offset 14, -4
 932 0002 85B0     		sub	sp, sp, #20
 933              		.cfi_def_cfa_offset 24
 934              		.loc 2 375 0
 935 0004 1F4B     		ldr	r3, .L63
 936 0006 9B69     		ldr	r3, [r3, #24]
 937 0008 0393     		str	r3, [sp, #12]
 938              	.LBB11:
 939              		.loc 2 377 0
 940 000a 2023     		movs	r3, #32
 941              	@ 377 "/home/denny/r2p-sdk/core/ChibiOS/os/kernel/src/chmtx.c" 1
 942 000c 83F31188 		msr     BASEPRI, r3
 943              	@ 0 "" 2
 944              		.thumb
 945              	.LBE11:
 946 0010 FFF7FEFF 		bl	dbg_check_lock
 947              		.loc 2 378 0
 948 0014 039B     		ldr	r3, [sp, #12]
 949 0016 1B6C     		ldr	r3, [r3, #64]
 950 0018 002B     		cmp	r3, #0
 951 001a 2BD0     		beq	.L59
 952              	.L62:
 953              	.LBB12:
 954              		.loc 2 380 0
 955 001c 039B     		ldr	r3, [sp, #12]
 956 001e 1B6C     		ldr	r3, [r3, #64]
 957 0020 0293     		str	r3, [sp, #8]
 958              		.loc 2 381 0
 959 0022 029B     		ldr	r3, [sp, #8]
 960 0024 DA68     		ldr	r2, [r3, #12]
 961 0026 039B     		ldr	r3, [sp, #12]
 962 0028 1A64     		str	r2, [r3, #64]
 963              		.loc 2 382 0
 964 002a 029B     		ldr	r3, [sp, #8]
 965 002c 1A68     		ldr	r2, [r3]
 966 002e 029B     		ldr	r3, [sp, #8]
 967 0030 9A42     		cmp	r2, r3
 968 0032 12D0     		beq	.L60
 969              	.LBB13:
 970              		.loc 2 383 0
 971 0034 029B     		ldr	r3, [sp, #8]
 972 0036 1846     		mov	r0, r3
 973 0038 FFF7FEFF 		bl	fifo_remove
 974 003c 0190     		str	r0, [sp, #4]
 975              		.loc 2 384 0
 976 003e 029B     		ldr	r3, [sp, #8]
 977 0040 019A     		ldr	r2, [sp, #4]
 978 0042 9A60     		str	r2, [r3, #8]
 979              		.loc 2 385 0
ARM GAS  /tmp/cc9NR6uk.s 			page 19


 980 0044 019B     		ldr	r3, [sp, #4]
 981 0046 1A6C     		ldr	r2, [r3, #64]
 982 0048 029B     		ldr	r3, [sp, #8]
 983 004a DA60     		str	r2, [r3, #12]
 984              		.loc 2 386 0
 985 004c 019B     		ldr	r3, [sp, #4]
 986 004e 029A     		ldr	r2, [sp, #8]
 987 0050 1A64     		str	r2, [r3, #64]
 988              		.loc 2 387 0
 989 0052 0198     		ldr	r0, [sp, #4]
 990 0054 FFF7FEFF 		bl	chSchReadyI
 991              	.LBE13:
 992 0058 02E0     		b	.L61
 993              	.L60:
 994              		.loc 2 390 0
 995 005a 029B     		ldr	r3, [sp, #8]
 996 005c 0022     		movs	r2, #0
 997 005e 9A60     		str	r2, [r3, #8]
 998              	.L61:
 999              	.LBE12:
 1000              		.loc 2 391 0
 1001 0060 039B     		ldr	r3, [sp, #12]
 1002 0062 1B6C     		ldr	r3, [r3, #64]
 1003 0064 002B     		cmp	r3, #0
 1004 0066 D9D1     		bne	.L62
 1005              		.loc 2 392 0
 1006 0068 039B     		ldr	r3, [sp, #12]
 1007 006a 5A6C     		ldr	r2, [r3, #68]
 1008 006c 039B     		ldr	r3, [sp, #12]
 1009 006e 9A60     		str	r2, [r3, #8]
 1010              		.loc 2 393 0
 1011 0070 FFF7FEFF 		bl	chSchRescheduleS
 1012              	.L59:
 1013              		.loc 2 395 0
 1014 0074 FFF7FEFF 		bl	dbg_check_unlock
 1015              	.LBB14:
 1016 0078 0023     		movs	r3, #0
 1017              	@ 395 "/home/denny/r2p-sdk/core/ChibiOS/os/kernel/src/chmtx.c" 1
 1018 007a 83F31188 		msr     BASEPRI, r3
 1019              	@ 0 "" 2
 1020              		.thumb
 1021              	.LBE14:
 1022              		.loc 2 396 0
 1023 007e 05B0     		add	sp, sp, #20
 1024              		.cfi_def_cfa_offset 4
 1025              		@ sp needed
 1026 0080 5DF804FB 		ldr	pc, [sp], #4
 1027              	.L64:
 1028              		.align	2
 1029              	.L63:
 1030 0084 00000000 		.word	rlist
 1031              		.cfi_endproc
 1032              	.LFE14:
 1033              		.size	chMtxUnlockAll, .-chMtxUnlockAll
 1034 0088 AFF30080 		.text
 1034      AFF30080 
 1035              	.Letext0:
ARM GAS  /tmp/cc9NR6uk.s 			page 20


 1036              		.file 3 "/home/denny/r2p-sdk/tools/gcc-arm-none-eabi-4_9-2014q4/arm-none-eabi/include/machine/_def
 1037              		.file 4 "/home/denny/r2p-sdk/tools/gcc-arm-none-eabi-4_9-2014q4/arm-none-eabi/include/stdint.h"
 1038              		.file 5 "/home/denny/r2p-sdk/core/ChibiOS/os/ports/GCC/ARMCMx/chtypes.h"
 1039              		.file 6 "/home/denny/r2p-sdk/core/ChibiOS/os/kernel/include/chlists.h"
 1040              		.file 7 "/home/denny/r2p-sdk/core/ChibiOS/os/kernel/include/chthreads.h"
 1041              		.file 8 "/home/denny/r2p-sdk/core/ChibiOS/os/ports/GCC/ARMCMx/chcore_v7m.h"
 1042              		.file 9 "/home/denny/r2p-sdk/core/ChibiOS/os/kernel/include/chschd.h"
 1043              		.file 10 "/home/denny/r2p-sdk/core/ChibiOS/os/kernel/include/chmtx.h"