ARM GAS  /tmp/ccYFV0yG.s 			page 1


   1              		.syntax unified
   2              		.cpu cortex-m4
   3              		.eabi_attribute 27, 3
   4              		.eabi_attribute 28, 1
   5              		.fpu fpv4-sp-d16
   6              		.eabi_attribute 20, 1
   7              		.eabi_attribute 21, 1
   8              		.eabi_attribute 23, 3
   9              		.eabi_attribute 24, 1
  10              		.eabi_attribute 25, 1
  11              		.eabi_attribute 26, 1
  12              		.eabi_attribute 30, 6
  13              		.eabi_attribute 34, 1
  14              		.eabi_attribute 18, 4
  15              		.thumb
  16              		.file	"encoder_node.cpp"
  17              		.text
  18              	.Ltext0:
  19              		.cfi_sections	.debug_frame
  20              		.section	.text._ZN3r2p8SysLock_7acquireEv,"axG",%progbits,_ZN3r2p8SysLock_7acquireEv,comdat
  21              		.align	2
  22              		.p2align 4,,15
  23              		.weak	_ZN3r2p8SysLock_7acquireEv
  24              		.thumb
  25              		.thumb_func
  26              		.type	_ZN3r2p8SysLock_7acquireEv, %function
  27              	_ZN3r2p8SysLock_7acquireEv:
  28              	.LFB129:
  29              		.file 1 "/home/denny/r2p-sdk/core/Middleware/port/chibios/include/r2p/impl/SysLock_.hpp"
  30              		.loc 1 20 0
  31              		.cfi_startproc
  32              		@ args = 0, pretend = 0, frame = 0
  33              		@ frame_needed = 0, uses_anonymous_args = 0
  34 0000 08B5     		push	{r3, lr}
  35              		.cfi_def_cfa_offset 8
  36              		.cfi_offset 3, -8
  37              		.cfi_offset 14, -4
  38              	.LBB16:
  39              	.LBB17:
  40              	.LBB18:
  41              		.loc 1 22 0
  42 0002 2023     		movs	r3, #32
  43              	@ 22 "/home/denny/r2p-sdk/core/Middleware/port/chibios/include/r2p/impl/SysLock_.hpp" 1
  44 0004 83F31188 		msr     BASEPRI, r3
  45              	@ 0 "" 2
  46              		.thumb
  47              	.LBE18:
  48 0008 FFF7FEFF 		bl	dbg_check_lock
  49              	.LBE17:
  50              	.LBE16:
  51              		.loc 1 23 0
  52 000c 08BD     		pop	{r3, pc}
  53              		.cfi_endproc
  54              	.LFE129:
  55              		.size	_ZN3r2p8SysLock_7acquireEv, .-_ZN3r2p8SysLock_7acquireEv
  56 000e 00BF     		.section	.text._ZN3r2p8SysLock_7releaseEv,"axG",%progbits,_ZN3r2p8SysLock_7releaseEv,comdat
  57              		.align	2
ARM GAS  /tmp/ccYFV0yG.s 			page 2


  58              		.p2align 4,,15
  59              		.weak	_ZN3r2p8SysLock_7releaseEv
  60              		.thumb
  61              		.thumb_func
  62              		.type	_ZN3r2p8SysLock_7releaseEv, %function
  63              	_ZN3r2p8SysLock_7releaseEv:
  64              	.LFB130:
  65              		.loc 1 27 0
  66              		.cfi_startproc
  67              		@ args = 0, pretend = 0, frame = 0
  68              		@ frame_needed = 0, uses_anonymous_args = 0
  69 0000 08B5     		push	{r3, lr}
  70              		.cfi_def_cfa_offset 8
  71              		.cfi_offset 3, -8
  72              		.cfi_offset 14, -4
  73              	.LBB19:
  74              	.LBB20:
  75              		.loc 1 29 0
  76 0002 FFF7FEFF 		bl	dbg_check_unlock
  77              	.LBB21:
  78 0006 0023     		movs	r3, #0
  79              	@ 29 "/home/denny/r2p-sdk/core/Middleware/port/chibios/include/r2p/impl/SysLock_.hpp" 1
  80 0008 83F31188 		msr     BASEPRI, r3
  81              	@ 0 "" 2
  82              		.thumb
  83              	.LBE21:
  84              	.LBE20:
  85              	.LBE19:
  86              		.loc 1 30 0
  87 000c 08BD     		pop	{r3, pc}
  88              		.cfi_endproc
  89              	.LFE130:
  90              		.size	_ZN3r2p8SysLock_7releaseEv, .-_ZN3r2p8SysLock_7releaseEv
  91 000e 00BF     		.section	.text._ZN3r2p7SysLock7acquireEv,"axG",%progbits,_ZN3r2p7SysLock7acquireEv,comdat
  92              		.align	2
  93              		.p2align 4,,15
  94              		.weak	_ZN3r2p7SysLock7acquireEv
  95              		.thumb
  96              		.thumb_func
  97              		.type	_ZN3r2p7SysLock7acquireEv, %function
  98              	_ZN3r2p7SysLock7acquireEv:
  99              	.LFB137:
 100              		.file 2 "/home/denny/r2p-sdk/core/Middleware/include/r2p/SysLock.hpp"
 101              		.loc 2 27 0
 102              		.cfi_startproc
 103              		@ args = 0, pretend = 0, frame = 0
 104              		@ frame_needed = 0, uses_anonymous_args = 0
 105 0000 08B5     		push	{r3, lr}
 106              		.cfi_def_cfa_offset 8
 107              		.cfi_offset 3, -8
 108              		.cfi_offset 14, -4
 109              		.loc 2 29 0
 110 0002 FFF7FEFF 		bl	_ZN3r2p8SysLock_7acquireEv
 111              		.loc 2 30 0
 112 0006 08BD     		pop	{r3, pc}
 113              		.cfi_endproc
 114              	.LFE137:
ARM GAS  /tmp/ccYFV0yG.s 			page 3


 115              		.size	_ZN3r2p7SysLock7acquireEv, .-_ZN3r2p7SysLock7acquireEv
 116 0008 AFF30080 		.section	.text._ZN3r2p7SysLock7releaseEv,"axG",%progbits,_ZN3r2p7SysLock7releaseEv,comdat
 116      AFF30080 
 117              		.align	2
 118              		.p2align 4,,15
 119              		.weak	_ZN3r2p7SysLock7releaseEv
 120              		.thumb
 121              		.thumb_func
 122              		.type	_ZN3r2p7SysLock7releaseEv, %function
 123              	_ZN3r2p7SysLock7releaseEv:
 124              	.LFB138:
 125              		.loc 2 34 0
 126              		.cfi_startproc
 127              		@ args = 0, pretend = 0, frame = 0
 128              		@ frame_needed = 0, uses_anonymous_args = 0
 129 0000 08B5     		push	{r3, lr}
 130              		.cfi_def_cfa_offset 8
 131              		.cfi_offset 3, -8
 132              		.cfi_offset 14, -4
 133              		.loc 2 36 0
 134 0002 FFF7FEFF 		bl	_ZN3r2p8SysLock_7releaseEv
 135              		.loc 2 37 0
 136 0006 08BD     		pop	{r3, pc}
 137              		.cfi_endproc
 138              	.LFE138:
 139              		.size	_ZN3r2p7SysLock7releaseEv, .-_ZN3r2p7SysLock7releaseEv
 140              		.section	.text._ZN3r2p11MemoryPool_12alloc_unsafeEv,"axG",%progbits,_ZN3r2p11MemoryPool_12alloc_un
 141              		.align	2
 142              		.p2align 4,,15
 143              		.weak	_ZN3r2p11MemoryPool_12alloc_unsafeEv
 144              		.thumb
 145              		.thumb_func
 146              		.type	_ZN3r2p11MemoryPool_12alloc_unsafeEv, %function
 147              	_ZN3r2p11MemoryPool_12alloc_unsafeEv:
 148              	.LFB236:
 149              		.file 3 "/home/denny/r2p-sdk/core/Middleware/port/chibios/include/r2p/impl/MemoryPool_.hpp"
 150              		.loc 3 53 0
 151              		.cfi_startproc
 152              		@ args = 0, pretend = 0, frame = 8
 153              		@ frame_needed = 0, uses_anonymous_args = 0
 154 0000 00B5     		push	{lr}
 155              		.cfi_def_cfa_offset 4
 156              		.cfi_offset 14, -4
 157 0002 83B0     		sub	sp, sp, #12
 158              		.cfi_def_cfa_offset 16
 159 0004 0190     		str	r0, [sp, #4]
 160              		.loc 3 55 0
 161 0006 019B     		ldr	r3, [sp, #4]
 162 0008 1846     		mov	r0, r3
 163 000a FFF7FEFF 		bl	chPoolAllocI
 164 000e 0346     		mov	r3, r0
 165              		.loc 3 56 0
 166 0010 1846     		mov	r0, r3
 167 0012 03B0     		add	sp, sp, #12
 168              		.cfi_def_cfa_offset 4
 169              		@ sp needed
 170 0014 5DF804FB 		ldr	pc, [sp], #4
ARM GAS  /tmp/ccYFV0yG.s 			page 4


 171              		.cfi_endproc
 172              	.LFE236:
 173              		.size	_ZN3r2p11MemoryPool_12alloc_unsafeEv, .-_ZN3r2p11MemoryPool_12alloc_unsafeEv
 174 0018 AFF30080 		.section	.text._ZN3r2p7Message12reset_unsafeEv,"axG",%progbits,_ZN3r2p7Message12reset_unsafeEv,com
 174      AFF30080 
 175              		.align	2
 176              		.p2align 4,,15
 177              		.weak	_ZN3r2p7Message12reset_unsafeEv
 178              		.thumb
 179              		.thumb_func
 180              		.type	_ZN3r2p7Message12reset_unsafeEv, %function
 181              	_ZN3r2p7Message12reset_unsafeEv:
 182              	.LFB292:
 183              		.file 4 "/home/denny/r2p-sdk/core/Middleware/include/r2p/Message.hpp"
 184              		.loc 4 122 0
 185              		.cfi_startproc
 186              		@ args = 0, pretend = 0, frame = 8
 187              		@ frame_needed = 0, uses_anonymous_args = 0
 188              		@ link register save eliminated.
 189 0000 82B0     		sub	sp, sp, #8
 190              		.cfi_def_cfa_offset 8
 191 0002 0190     		str	r0, [sp, #4]
 192              		.loc 4 127 0
 193 0004 019B     		ldr	r3, [sp, #4]
 194 0006 0022     		movs	r2, #0
 195 0008 1A70     		strb	r2, [r3]
 196 000a 0022     		movs	r2, #0
 197 000c 5A70     		strb	r2, [r3, #1]
 198              		.loc 4 128 0
 199 000e 02B0     		add	sp, sp, #8
 200              		.cfi_def_cfa_offset 0
 201              		@ sp needed
 202 0010 7047     		bx	lr
 203              		.cfi_endproc
 204              	.LFE292:
 205              		.size	_ZN3r2p7Message12reset_unsafeEv, .-_ZN3r2p7Message12reset_unsafeEv
 206 0012 00BFAFF3 		.section	.rodata
 206      0080AFF3 
 206      0080AFF3 
 206      0080
 207              		.align	2
 208              	.LC0:
 209 0000 5232505F 		.ascii	"R2P_ASSERT()\000"
 209      41535345 
 209      52542829 
 209      00
 210 000d 000000   		.section	.text._ZN3r2p13BasePublisher12alloc_unsafeERPNS_7MessageE,"axG",%progbits,_ZN3r2p13BasePu
 211              		.align	2
 212              		.p2align 4,,15
 213              		.weak	_ZN3r2p13BasePublisher12alloc_unsafeERPNS_7MessageE
 214              		.thumb
 215              		.thumb_func
 216              		.type	_ZN3r2p13BasePublisher12alloc_unsafeERPNS_7MessageE, %function
 217              	_ZN3r2p13BasePublisher12alloc_unsafeERPNS_7MessageE:
 218              	.LFB303:
 219              		.file 5 "/home/denny/r2p-sdk/core/Middleware/include/r2p/BasePublisher.hpp"
 220              		.loc 5 64 0
ARM GAS  /tmp/ccYFV0yG.s 			page 5


 221              		.cfi_startproc
 222              		@ args = 0, pretend = 0, frame = 8
 223              		@ frame_needed = 0, uses_anonymous_args = 0
 224 0000 00B5     		push	{lr}
 225              		.cfi_def_cfa_offset 4
 226              		.cfi_offset 14, -4
 227 0002 83B0     		sub	sp, sp, #12
 228              		.cfi_def_cfa_offset 16
 229 0004 0190     		str	r0, [sp, #4]
 230 0006 0091     		str	r1, [sp]
 231              		.loc 5 66 0
 232 0008 019B     		ldr	r3, [sp, #4]
 233 000a 5B68     		ldr	r3, [r3, #4]
 234 000c 002B     		cmp	r3, #0
 235 000e 02D1     		bne	.L9
 236              		.loc 5 66 0 is_stmt 0 discriminator 1
 237 0010 0A48     		ldr	r0, .L11
 238 0012 FFF7FEFF 		bl	chDbgPanic
 239              	.L9:
 240              		.loc 5 68 0 is_stmt 1
 241 0016 019B     		ldr	r3, [sp, #4]
 242 0018 5B68     		ldr	r3, [r3, #4]
 243 001a 1846     		mov	r0, r3
 244 001c FFF7FEFF 		bl	_ZN3r2p5Topic12alloc_unsafeEv
 245 0020 0246     		mov	r2, r0
 246 0022 009B     		ldr	r3, [sp]
 247 0024 1A60     		str	r2, [r3]
 248              		.loc 5 69 0
 249 0026 009B     		ldr	r3, [sp]
 250 0028 1B68     		ldr	r3, [r3]
 251 002a 002B     		cmp	r3, #0
 252 002c 14BF     		ite	ne
 253 002e 0123     		movne	r3, #1
 254 0030 0023     		moveq	r3, #0
 255 0032 DBB2     		uxtb	r3, r3
 256              		.loc 5 70 0
 257 0034 1846     		mov	r0, r3
 258 0036 03B0     		add	sp, sp, #12
 259              		.cfi_def_cfa_offset 4
 260              		@ sp needed
 261 0038 5DF804FB 		ldr	pc, [sp], #4
 262              	.L12:
 263              		.align	2
 264              	.L11:
 265 003c 00000000 		.word	.LC0
 266              		.cfi_endproc
 267              	.LFE303:
 268              		.size	_ZN3r2p13BasePublisher12alloc_unsafeERPNS_7MessageE, .-_ZN3r2p13BasePublisher12alloc_unsafeE
 269              		.section	.text._ZN3r2p13BasePublisher5allocERPNS_7MessageE,"axG",%progbits,_ZN3r2p13BasePublisher5
 270              		.align	2
 271              		.p2align 4,,15
 272              		.weak	_ZN3r2p13BasePublisher5allocERPNS_7MessageE
 273              		.thumb
 274              		.thumb_func
 275              		.type	_ZN3r2p13BasePublisher5allocERPNS_7MessageE, %function
 276              	_ZN3r2p13BasePublisher5allocERPNS_7MessageE:
 277              	.LFB304:
ARM GAS  /tmp/ccYFV0yG.s 			page 6


 278              		.loc 5 74 0
 279              		.cfi_startproc
 280              		@ args = 0, pretend = 0, frame = 16
 281              		@ frame_needed = 0, uses_anonymous_args = 0
 282 0000 00B5     		push	{lr}
 283              		.cfi_def_cfa_offset 4
 284              		.cfi_offset 14, -4
 285 0002 85B0     		sub	sp, sp, #20
 286              		.cfi_def_cfa_offset 24
 287 0004 0190     		str	r0, [sp, #4]
 288 0006 0091     		str	r1, [sp]
 289              	.LBB22:
 290              		.loc 5 76 0
 291 0008 FFF7FEFF 		bl	_ZN3r2p7SysLock7acquireEv
 292              		.loc 5 77 0
 293 000c 0198     		ldr	r0, [sp, #4]
 294 000e 0099     		ldr	r1, [sp]
 295 0010 FFF7FEFF 		bl	_ZN3r2p13BasePublisher12alloc_unsafeERPNS_7MessageE
 296 0014 0346     		mov	r3, r0
 297 0016 8DF80F30 		strb	r3, [sp, #15]
 298              		.loc 5 78 0
 299 001a FFF7FEFF 		bl	_ZN3r2p7SysLock7releaseEv
 300              		.loc 5 79 0
 301 001e 9DF80F30 		ldrb	r3, [sp, #15]	@ zero_extendqisi2
 302              	.LBE22:
 303              		.loc 5 80 0
 304 0022 1846     		mov	r0, r3
 305 0024 05B0     		add	sp, sp, #20
 306              		.cfi_def_cfa_offset 4
 307              		@ sp needed
 308 0026 5DF804FB 		ldr	pc, [sp], #4
 309              		.cfi_endproc
 310              	.LFE304:
 311              		.size	_ZN3r2p13BasePublisher5allocERPNS_7MessageE, .-_ZN3r2p13BasePublisher5allocERPNS_7MessageE
 312 002a 00BFAFF3 		.section	.text._ZN3r2p5Topic12alloc_unsafeEv,"axG",%progbits,_ZN3r2p5Topic12alloc_unsafeEv,comdat
 312      0080
 313              		.align	2
 314              		.p2align 4,,15
 315              		.weak	_ZN3r2p5Topic12alloc_unsafeEv
 316              		.thumb
 317              		.thumb_func
 318              		.type	_ZN3r2p5Topic12alloc_unsafeEv, %function
 319              	_ZN3r2p5Topic12alloc_unsafeEv:
 320              	.LFB412:
 321              		.file 6 "/home/denny/r2p-sdk/core/Middleware/include/r2p/Topic.hpp"
 322              		.loc 6 250 0
 323              		.cfi_startproc
 324              		@ args = 0, pretend = 0, frame = 8
 325              		@ frame_needed = 0, uses_anonymous_args = 0
 326 0000 10B5     		push	{r4, lr}
 327              		.cfi_def_cfa_offset 8
 328              		.cfi_offset 4, -8
 329              		.cfi_offset 14, -4
 330 0002 82B0     		sub	sp, sp, #8
 331              		.cfi_def_cfa_offset 16
 332 0004 0190     		str	r0, [sp, #4]
 333              	.LBB23:
ARM GAS  /tmp/ccYFV0yG.s 			page 7


 334              		.loc 6 252 0
 335 0006 019B     		ldr	r3, [sp, #4]
 336 0008 0833     		adds	r3, r3, #8
 337 000a 1846     		mov	r0, r3
 338 000c FFF7FEFF 		bl	_ZN3r2p11MemoryPool_12alloc_unsafeEv
 339 0010 0446     		mov	r4, r0
 340              		.loc 6 253 0
 341 0012 002C     		cmp	r4, #0
 342 0014 04D0     		beq	.L16
 343              		.loc 6 254 0
 344 0016 2046     		mov	r0, r4
 345 0018 FFF7FEFF 		bl	_ZN3r2p7Message12reset_unsafeEv
 346              		.loc 6 255 0
 347 001c 2346     		mov	r3, r4
 348 001e 00E0     		b	.L17
 349              	.L16:
 350              		.loc 6 257 0
 351 0020 0023     		movs	r3, #0
 352              	.L17:
 353              	.LBE23:
 354              		.loc 6 258 0
 355 0022 1846     		mov	r0, r3
 356 0024 02B0     		add	sp, sp, #8
 357              		.cfi_def_cfa_offset 8
 358              		@ sp needed
 359 0026 10BD     		pop	{r4, pc}
 360              		.cfi_endproc
 361              	.LFE412:
 362              		.size	_ZN3r2p5Topic12alloc_unsafeEv, .-_ZN3r2p5Topic12alloc_unsafeEv
 363              		.global	qeicfg
 364 0028 AFF30080 		.section	.data.qeicfg,"aw",%progbits
 364      AFF30080 
 365              		.align	2
 366              		.type	qeicfg, %object
 367              		.size	qeicfg, 3
 368              	qeicfg:
 369 0000 00       		.byte	0
 370 0001 01       		.byte	1
 371 0002 01       		.byte	1
 372 0003 00       		.section	.text._Z12encoder_nodePv,"ax",%progbits
 373              		.align	2
 374              		.p2align 4,,15
 375              		.global	_Z12encoder_nodePv
 376              		.thumb
 377              		.thumb_func
 378              		.type	_Z12encoder_nodePv, %function
 379              	_Z12encoder_nodePv:
 380              	.LFB596:
 381              		.file 7 "nodes/encoder_node.cpp"
 382              		.loc 7 18 0
 383              		.cfi_startproc
 384              		@ args = 0, pretend = 0, frame = 72
 385              		@ frame_needed = 0, uses_anonymous_args = 0
 386 0000 00B5     		push	{lr}
 387              		.cfi_def_cfa_offset 4
 388              		.cfi_offset 14, -4
 389 0002 93B0     		sub	sp, sp, #76
ARM GAS  /tmp/ccYFV0yG.s 			page 8


 390              		.cfi_def_cfa_offset 80
 391 0004 0190     		str	r0, [sp, #4]
 392              	.LBB24:
 393              		.loc 7 19 0
 394 0006 019B     		ldr	r3, [sp, #4]
 395 0008 1193     		str	r3, [sp, #68]
 396              		.loc 7 20 0
 397 000a 119B     		ldr	r3, [sp, #68]
 398 000c 1B68     		ldr	r3, [r3]
 399 000e 08AA     		add	r2, sp, #32
 400 0010 1046     		mov	r0, r2
 401 0012 1946     		mov	r1, r3
 402 0014 0122     		movs	r2, #1
 403 0016 FFF7FEFF 		bl	_ZN3r2p4NodeC1EPKcb
 404              		.loc 7 21 0
 405 001a 04AB     		add	r3, sp, #16
 406 001c 1846     		mov	r0, r3
 407 001e FFF7FEFF 		bl	_ZN3r2p9PublisherINS_10EncoderMsgEEC1Ev
 408              		.loc 7 27 0
 409 0022 234B     		ldr	r3, .L21
 410 0024 9B69     		ldr	r3, [r3, #24]
 411 0026 119A     		ldr	r2, [sp, #68]
 412 0028 1268     		ldr	r2, [r2]
 413 002a 9A61     		str	r2, [r3, #24]
 414              		.loc 7 30 0
 415 002c FFF7FEFF 		bl	qeiInit
 416              		.loc 7 31 0
 417 0030 2048     		ldr	r0, .L21+4
 418 0032 2149     		ldr	r1, .L21+8
 419 0034 FFF7FEFF 		bl	qeiStart
 420              		.loc 7 32 0
 421 0038 1E48     		ldr	r0, .L21+4
 422 003a FFF7FEFF 		bl	qeiEnable
 423              		.loc 7 34 0
 424 003e 119B     		ldr	r3, [sp, #68]
 425 0040 5B68     		ldr	r3, [r3, #4]
 426 0042 08A9     		add	r1, sp, #32
 427 0044 04AA     		add	r2, sp, #16
 428 0046 0846     		mov	r0, r1
 429 0048 1146     		mov	r1, r2
 430 004a 1A46     		mov	r2, r3
 431 004c 1B4B     		ldr	r3, .L21+12
 432 004e FFF7FEFF 		bl	_ZN3r2p4Node9advertiseINS_10EncoderMsgEEEbRNS_9PublisherIT_EEPKcRKNS_4TimeE
 433              	.L20:
 434              		.loc 7 37 0
 435 0052 1B4B     		ldr	r3, .L21+16
 436 0054 DB68     		ldr	r3, [r3, #12]
 437 0056 1093     		str	r3, [sp, #64]
 438              		.loc 7 38 0
 439 0058 1648     		ldr	r0, .L21+4
 440 005a FFF7FEFF 		bl	qeiUpdate
 441 005e 0346     		mov	r3, r0
 442 0060 ADF83E30 		strh	r3, [sp, #62]	@ movhi
 443              		.loc 7 40 0
 444 0064 04AA     		add	r2, sp, #16
 445 0066 03AB     		add	r3, sp, #12
 446 0068 1046     		mov	r0, r2
ARM GAS  /tmp/ccYFV0yG.s 			page 9


 447 006a 1946     		mov	r1, r3
 448 006c FFF7FEFF 		bl	_ZN3r2p9PublisherINS_10EncoderMsgEE5allocERPS1_
 449 0070 0346     		mov	r3, r0
 450 0072 002B     		cmp	r3, #0
 451 0074 15D0     		beq	.L19
 452              		.loc 7 41 0
 453 0076 039B     		ldr	r3, [sp, #12]
 454 0078 BDF93E20 		ldrsh	r2, [sp, #62]
 455 007c 07EE902A 		fmsr	s15, r2	@ int
 456 0080 B8EEE77A 		fsitos	s14, s15
 457 0084 119A     		ldr	r2, [sp, #68]
 458 0086 D2ED027A 		flds	s15, [r2, #8]
 459 008a 67EE277A 		fmuls	s15, s14, s15
 460 008e 0233     		adds	r3, r3, #2
 461 0090 17EE902A 		fmrs	r2, s15
 462 0094 1A60     		str	r2, [r3]	@ unaligned
 463              		.loc 7 42 0
 464 0096 039B     		ldr	r3, [sp, #12]
 465 0098 04AA     		add	r2, sp, #16
 466 009a 1046     		mov	r0, r2
 467 009c 1946     		mov	r1, r3
 468 009e FFF7FEFF 		bl	_ZN3r2p9PublisherINS_10EncoderMsgEE7publishERS1_
 469              	.L19:
 470              		.loc 7 45 0
 471 00a2 109B     		ldr	r3, [sp, #64]
 472 00a4 1433     		adds	r3, r3, #20
 473 00a6 1093     		str	r3, [sp, #64]
 474              		.loc 7 46 0
 475 00a8 1098     		ldr	r0, [sp, #64]
 476 00aa FFF7FEFF 		bl	chThdSleepUntil
 477 00ae D0E7     		b	.L20
 478              	.L22:
 479              		.align	2
 480              	.L21:
 481 00b0 00000000 		.word	rlist
 482 00b4 00000000 		.word	QEID4
 483 00b8 00000000 		.word	qeicfg
 484 00bc 00000000 		.word	_ZN3r2p4Time8INFINITEE
 485 00c0 00000000 		.word	vtlist
 486              	.LBE24:
 487              		.cfi_endproc
 488              	.LFE596:
 489              		.size	_Z12encoder_nodePv, .-_Z12encoder_nodePv
 490 00c4 AFF30080 		.section	.text._ZN3r2p9PublisherINS_10EncoderMsgEEC2Ev,"axG",%progbits,_ZN3r2p9PublisherINS_10Enco
 490      AFF30080 
 490      AFF30080 
 491              		.align	2
 492              		.p2align 4,,15
 493              		.weak	_ZN3r2p9PublisherINS_10EncoderMsgEEC2Ev
 494              		.thumb
 495              		.thumb_func
 496              		.type	_ZN3r2p9PublisherINS_10EncoderMsgEEC2Ev, %function
 497              	_ZN3r2p9PublisherINS_10EncoderMsgEEC2Ev:
 498              	.LFB619:
 499              		.file 8 "/home/denny/r2p-sdk/core/Middleware/include/r2p/Publisher.hpp"
 500              		.loc 8 47 0
 501              		.cfi_startproc
ARM GAS  /tmp/ccYFV0yG.s 			page 10


 502              		@ args = 0, pretend = 0, frame = 8
 503              		@ frame_needed = 0, uses_anonymous_args = 0
 504 0000 00B5     		push	{lr}
 505              		.cfi_def_cfa_offset 4
 506              		.cfi_offset 14, -4
 507 0002 83B0     		sub	sp, sp, #12
 508              		.cfi_def_cfa_offset 16
 509 0004 0190     		str	r0, [sp, #4]
 510              	.LBB25:
 511              		.loc 8 47 0
 512 0006 019B     		ldr	r3, [sp, #4]
 513 0008 1846     		mov	r0, r3
 514 000a FFF7FEFF 		bl	_ZN3r2p14LocalPublisherC2Ev
 515 000e 019B     		ldr	r3, [sp, #4]
 516 0010 034A     		ldr	r2, .L26
 517 0012 1A60     		str	r2, [r3]
 518              	.LBE25:
 519              		.loc 8 50 0
 520 0014 019B     		ldr	r3, [sp, #4]
 521 0016 1846     		mov	r0, r3
 522 0018 03B0     		add	sp, sp, #12
 523              		.cfi_def_cfa_offset 4
 524              		@ sp needed
 525 001a 5DF804FB 		ldr	pc, [sp], #4
 526              	.L27:
 527 001e 00BF     		.align	2
 528              	.L26:
 529 0020 08000000 		.word	_ZTVN3r2p9PublisherINS_10EncoderMsgEEE+8
 530              		.cfi_endproc
 531              	.LFE619:
 532              		.size	_ZN3r2p9PublisherINS_10EncoderMsgEEC2Ev, .-_ZN3r2p9PublisherINS_10EncoderMsgEEC2Ev
 533              		.weak	_ZN3r2p9PublisherINS_10EncoderMsgEEC1Ev
 534              		.thumb_set _ZN3r2p9PublisherINS_10EncoderMsgEEC1Ev,_ZN3r2p9PublisherINS_10EncoderMsgEEC2Ev
 535 0024 AFF30080 		.section	.text._ZN3r2p9PublisherINS_10EncoderMsgEED2Ev,"axG",%progbits,_ZN3r2p9PublisherINS_10Enco
 535      AFF30080 
 535      AFF30080 
 536              		.align	2
 537              		.p2align 4,,15
 538              		.weak	_ZN3r2p9PublisherINS_10EncoderMsgEED2Ev
 539              		.thumb
 540              		.thumb_func
 541              		.type	_ZN3r2p9PublisherINS_10EncoderMsgEED2Ev, %function
 542              	_ZN3r2p9PublisherINS_10EncoderMsgEED2Ev:
 543              	.LFB622:
 544              		.loc 8 54 0
 545              		.cfi_startproc
 546              		@ args = 0, pretend = 0, frame = 8
 547              		@ frame_needed = 0, uses_anonymous_args = 0
 548 0000 00B5     		push	{lr}
 549              		.cfi_def_cfa_offset 4
 550              		.cfi_offset 14, -4
 551 0002 83B0     		sub	sp, sp, #12
 552              		.cfi_def_cfa_offset 16
 553 0004 0190     		str	r0, [sp, #4]
 554              	.LBB26:
 555              		.loc 8 57 0
 556 0006 019B     		ldr	r3, [sp, #4]
ARM GAS  /tmp/ccYFV0yG.s 			page 11


 557 0008 084A     		ldr	r2, .L32
 558 000a 1A60     		str	r2, [r3]
 559 000c 019B     		ldr	r3, [sp, #4]
 560 000e 1846     		mov	r0, r3
 561 0010 FFF7FEFF 		bl	_ZN3r2p14LocalPublisherD2Ev
 562              	.LBE26:
 563 0014 0023     		movs	r3, #0
 564 0016 002B     		cmp	r3, #0
 565 0018 02D0     		beq	.L30
 566              		.loc 8 57 0 is_stmt 0 discriminator 2
 567 001a 0198     		ldr	r0, [sp, #4]
 568 001c FFF7FEFF 		bl	_ZdlPv
 569              	.L30:
 570              		.loc 8 57 0 discriminator 4
 571 0020 019B     		ldr	r3, [sp, #4]
 572 0022 1846     		mov	r0, r3
 573 0024 03B0     		add	sp, sp, #12
 574              		.cfi_def_cfa_offset 4
 575              		@ sp needed
 576 0026 5DF804FB 		ldr	pc, [sp], #4
 577              	.L33:
 578 002a 00BF     		.align	2
 579              	.L32:
 580 002c 08000000 		.word	_ZTVN3r2p9PublisherINS_10EncoderMsgEEE+8
 581              		.cfi_endproc
 582              	.LFE622:
 583              		.size	_ZN3r2p9PublisherINS_10EncoderMsgEED2Ev, .-_ZN3r2p9PublisherINS_10EncoderMsgEED2Ev
 584              		.weak	_ZN3r2p9PublisherINS_10EncoderMsgEED1Ev
 585              		.thumb_set _ZN3r2p9PublisherINS_10EncoderMsgEED1Ev,_ZN3r2p9PublisherINS_10EncoderMsgEED2Ev
 586              		.section	.text._ZN3r2p9PublisherINS_10EncoderMsgEED0Ev,"axG",%progbits,_ZN3r2p9PublisherINS_10Enco
 587              		.align	2
 588              		.p2align 4,,15
 589              		.weak	_ZN3r2p9PublisherINS_10EncoderMsgEED0Ev
 590              		.thumb
 591              		.thumb_func
 592              		.type	_ZN3r2p9PublisherINS_10EncoderMsgEED0Ev, %function
 593              	_ZN3r2p9PublisherINS_10EncoderMsgEED0Ev:
 594              	.LFB624:
 595              		.loc 8 54 0 is_stmt 1
 596              		.cfi_startproc
 597              		@ args = 0, pretend = 0, frame = 8
 598              		@ frame_needed = 0, uses_anonymous_args = 0
 599 0000 00B5     		push	{lr}
 600              		.cfi_def_cfa_offset 4
 601              		.cfi_offset 14, -4
 602 0002 83B0     		sub	sp, sp, #12
 603              		.cfi_def_cfa_offset 16
 604 0004 0190     		str	r0, [sp, #4]
 605              		.loc 8 57 0
 606 0006 0198     		ldr	r0, [sp, #4]
 607 0008 FFF7FEFF 		bl	_ZN3r2p9PublisherINS_10EncoderMsgEED1Ev
 608 000c 0198     		ldr	r0, [sp, #4]
 609 000e FFF7FEFF 		bl	_ZdlPv
 610 0012 019B     		ldr	r3, [sp, #4]
 611 0014 1846     		mov	r0, r3
 612 0016 03B0     		add	sp, sp, #12
 613              		.cfi_def_cfa_offset 4
ARM GAS  /tmp/ccYFV0yG.s 			page 12


 614              		@ sp needed
 615 0018 5DF804FB 		ldr	pc, [sp], #4
 616              		.cfi_endproc
 617              	.LFE624:
 618              		.size	_ZN3r2p9PublisherINS_10EncoderMsgEED0Ev, .-_ZN3r2p9PublisherINS_10EncoderMsgEED0Ev
 619 001c AFF30080 		.section	.text._ZN3r2p4Node9advertiseINS_10EncoderMsgEEEbRNS_9PublisherIT_EEPKcRKNS_4TimeE,"axG",%
 620              		.align	2
 621              		.p2align 4,,15
 622              		.weak	_ZN3r2p4Node9advertiseINS_10EncoderMsgEEEbRNS_9PublisherIT_EEPKcRKNS_4TimeE
 623              		.thumb
 624              		.thumb_func
 625              		.type	_ZN3r2p4Node9advertiseINS_10EncoderMsgEEEbRNS_9PublisherIT_EEPKcRKNS_4TimeE, %function
 626              	_ZN3r2p4Node9advertiseINS_10EncoderMsgEEEbRNS_9PublisherIT_EEPKcRKNS_4TimeE:
 627              	.LFB625:
 628              		.file 9 "/home/denny/r2p-sdk/core/Middleware/include/r2p/Node.hpp"
 629              		.loc 9 117 0
 630              		.cfi_startproc
 631              		@ args = 0, pretend = 0, frame = 16
 632              		@ frame_needed = 0, uses_anonymous_args = 0
 633 0000 00B5     		push	{lr}
 634              		.cfi_def_cfa_offset 4
 635              		.cfi_offset 14, -4
 636 0002 87B0     		sub	sp, sp, #28
 637              		.cfi_def_cfa_offset 32
 638 0004 0590     		str	r0, [sp, #20]
 639 0006 0491     		str	r1, [sp, #16]
 640 0008 0392     		str	r2, [sp, #12]
 641 000a 0293     		str	r3, [sp, #8]
 642              		.loc 9 120 0
 643 000c 049A     		ldr	r2, [sp, #16]
 644 000e 0623     		movs	r3, #6
 645 0010 0093     		str	r3, [sp]
 646 0012 0598     		ldr	r0, [sp, #20]
 647 0014 1146     		mov	r1, r2
 648 0016 039A     		ldr	r2, [sp, #12]
 649 0018 029B     		ldr	r3, [sp, #8]
 650 001a FFF7FEFF 		bl	_ZN3r2p4Node9advertiseERNS_14LocalPublisherEPKcRKNS_4TimeEj
 651 001e 0346     		mov	r3, r0
 652              		.loc 9 121 0
 653 0020 1846     		mov	r0, r3
 654 0022 07B0     		add	sp, sp, #28
 655              		.cfi_def_cfa_offset 4
 656              		@ sp needed
 657 0024 5DF804FB 		ldr	pc, [sp], #4
 658              		.cfi_endproc
 659              	.LFE625:
 660              		.size	_ZN3r2p4Node9advertiseINS_10EncoderMsgEEEbRNS_9PublisherIT_EEPKcRKNS_4TimeE, .-_ZN3r2p4Node9
 661 0028 AFF30080 		.section	.text._ZN3r2p9PublisherINS_10EncoderMsgEE5allocERPS1_,"axG",%progbits,_ZN3r2p9PublisherIN
 661      AFF30080 
 662              		.align	2
 663              		.p2align 4,,15
 664              		.weak	_ZN3r2p9PublisherINS_10EncoderMsgEE5allocERPS1_
 665              		.thumb
 666              		.thumb_func
 667              		.type	_ZN3r2p9PublisherINS_10EncoderMsgEE5allocERPS1_, %function
 668              	_ZN3r2p9PublisherINS_10EncoderMsgEE5allocERPS1_:
 669              	.LFB626:
ARM GAS  /tmp/ccYFV0yG.s 			page 13


 670              		.loc 8 25 0
 671              		.cfi_startproc
 672              		@ args = 0, pretend = 0, frame = 8
 673              		@ frame_needed = 0, uses_anonymous_args = 0
 674 0000 00B5     		push	{lr}
 675              		.cfi_def_cfa_offset 4
 676              		.cfi_offset 14, -4
 677 0002 83B0     		sub	sp, sp, #12
 678              		.cfi_def_cfa_offset 16
 679 0004 0190     		str	r0, [sp, #4]
 680 0006 0091     		str	r1, [sp]
 681              		.loc 8 28 0
 682 0008 019B     		ldr	r3, [sp, #4]
 683 000a 1846     		mov	r0, r3
 684 000c 0099     		ldr	r1, [sp]
 685 000e FFF7FEFF 		bl	_ZN3r2p13BasePublisher5allocERPNS_7MessageE
 686 0012 0346     		mov	r3, r0
 687              		.loc 8 29 0
 688 0014 1846     		mov	r0, r3
 689 0016 03B0     		add	sp, sp, #12
 690              		.cfi_def_cfa_offset 4
 691              		@ sp needed
 692 0018 5DF804FB 		ldr	pc, [sp], #4
 693              		.cfi_endproc
 694              	.LFE626:
 695              		.size	_ZN3r2p9PublisherINS_10EncoderMsgEE5allocERPS1_, .-_ZN3r2p9PublisherINS_10EncoderMsgEE5alloc
 696 001c AFF30080 		.section	.text._ZN3r2p9PublisherINS_10EncoderMsgEE7publishERS1_,"axG",%progbits,_ZN3r2p9PublisherI
 697              		.align	2
 698              		.p2align 4,,15
 699              		.weak	_ZN3r2p9PublisherINS_10EncoderMsgEE7publishERS1_
 700              		.thumb
 701              		.thumb_func
 702              		.type	_ZN3r2p9PublisherINS_10EncoderMsgEE7publishERS1_, %function
 703              	_ZN3r2p9PublisherINS_10EncoderMsgEE7publishERS1_:
 704              	.LFB627:
 705              		.loc 8 33 0
 706              		.cfi_startproc
 707              		@ args = 0, pretend = 0, frame = 8
 708              		@ frame_needed = 0, uses_anonymous_args = 0
 709 0000 00B5     		push	{lr}
 710              		.cfi_def_cfa_offset 4
 711              		.cfi_offset 14, -4
 712 0002 83B0     		sub	sp, sp, #12
 713              		.cfi_def_cfa_offset 16
 714 0004 0190     		str	r0, [sp, #4]
 715 0006 0091     		str	r1, [sp]
 716              		.loc 8 36 0
 717 0008 019A     		ldr	r2, [sp, #4]
 718 000a 009B     		ldr	r3, [sp]
 719 000c 1046     		mov	r0, r2
 720 000e 1946     		mov	r1, r3
 721 0010 FFF7FEFF 		bl	_ZN3r2p13BasePublisher7publishERNS_7MessageE
 722 0014 0346     		mov	r3, r0
 723              		.loc 8 37 0
 724 0016 1846     		mov	r0, r3
 725 0018 03B0     		add	sp, sp, #12
 726              		.cfi_def_cfa_offset 4
ARM GAS  /tmp/ccYFV0yG.s 			page 14


 727              		@ sp needed
 728 001a 5DF804FB 		ldr	pc, [sp], #4
 729              		.cfi_endproc
 730              	.LFE627:
 731              		.size	_ZN3r2p9PublisherINS_10EncoderMsgEE7publishERS1_, .-_ZN3r2p9PublisherINS_10EncoderMsgEE7publ
 732              		.weak	_ZTVN3r2p9PublisherINS_10EncoderMsgEEE
 733 001e 00BF     		.section	.rodata._ZTVN3r2p9PublisherINS_10EncoderMsgEEE,"aG",%progbits,_ZTVN3r2p9PublisherINS_10En
 734              		.align	3
 735              		.type	_ZTVN3r2p9PublisherINS_10EncoderMsgEEE, %object
 736              		.size	_ZTVN3r2p9PublisherINS_10EncoderMsgEEE, 16
 737              	_ZTVN3r2p9PublisherINS_10EncoderMsgEEE:
 738 0000 00000000 		.word	0
 739 0004 00000000 		.word	0
 740 0008 00000000 		.word	_ZN3r2p9PublisherINS_10EncoderMsgEED1Ev
 741 000c 00000000 		.word	_ZN3r2p9PublisherINS_10EncoderMsgEED0Ev
 742              		.text
 743              	.Letext0:
 744              		.file 10 "/home/denny/r2p-sdk/tools/gcc-arm-none-eabi-4_9-2014q4/lib/gcc/arm-none-eabi/4.9.3/inclu
 745              		.file 11 "/home/denny/r2p-sdk/tools/gcc-arm-none-eabi-4_9-2014q4/arm-none-eabi/include/machine/_de
 746              		.file 12 "/home/denny/r2p-sdk/tools/gcc-arm-none-eabi-4_9-2014q4/arm-none-eabi/include/stdint.h"
 747              		.file 13 "/home/denny/r2p-sdk/core/ChibiOS/os/ports/GCC/ARMCMx/chtypes.h"
 748              		.file 14 "/home/denny/r2p-sdk/core/ChibiOS/os/kernel/include/chlists.h"
 749              		.file 15 "/home/denny/r2p-sdk/core/ChibiOS/os/kernel/include/chthreads.h"
 750              		.file 16 "/home/denny/r2p-sdk/core/ChibiOS/os/ports/GCC/ARMCMx/chcore_v7m.h"
 751              		.file 17 "/home/denny/r2p-sdk/core/ChibiOS/os/kernel/include/chvt.h"
 752              		.file 18 "/home/denny/r2p-sdk/core/ChibiOS/os/kernel/include/chschd.h"
 753              		.file 19 "/home/denny/r2p-sdk/core/ChibiOS/os/kernel/include/chmtx.h"
 754              		.file 20 "/home/denny/r2p-sdk/core/ChibiOS/os/kernel/include/chmemcore.h"
 755              		.file 21 "/home/denny/r2p-sdk/core/ChibiOS/os/kernel/include/chmempools.h"
 756              		.file 22 "/home/denny/r2p-sdk/core/ChibiOS/os/hal/platforms/STM32/TIMv1/stm32_tim.h"
 757              		.file 23 "/home/denny/r2p-sdk/tools/gcc-arm-none-eabi-4_9-2014q4/arm-none-eabi/include/c++/4.9.3/c
 758              		.file 24 "/home/denny/r2p-sdk/tools/gcc-arm-none-eabi-4_9-2014q4/arm-none-eabi/include/string.h"
 759              		.file 25 "<built-in>"
 760              		.file 26 "/home/denny/r2p-sdk/core/Middleware/include/r2p/Uncopyable.hpp"
 761              		.file 27 "/home/denny/r2p-sdk/core/Middleware/include/r2p/Time.hpp"
 762              		.file 28 "/home/denny/r2p-sdk/core/Middleware/include/r2p/StaticList.hpp"
 763              		.file 29 "/home/denny/r2p-sdk/core/Middleware/include/r2p/LocalPublisher.hpp"
 764              		.file 30 "/home/denny/r2p-sdk/core/Middleware/port/chibios/include/r2p/impl/Thread_.hpp"
 765              		.file 31 "/home/denny/r2p-sdk/core/Middleware/include/r2p/Thread.hpp"
 766              		.file 32 "/home/denny/r2p-sdk/core/Middleware/port/chibios/include/r2p/impl/SpinEvent_.hpp"
 767              		.file 33 "/home/denny/r2p-sdk/core/Middleware/include/r2p/SpinEvent.hpp"
 768              		.file 34 "/home/denny/r2p-sdk/core/Middleware/include/r2p/msg/motor.hpp"
 769              		.file 35 "./nodes/encoder_node.hpp"
 770              		.file 36 "/home/denny/r2p-sdk/modules/uDC_module/qei.h"
 771              		.file 37 "/home/denny/r2p-sdk/modules/uDC_module/qei_lld.h"
 772              		.file 38 "/home/denny/r2p-sdk/core/Middleware/include/r2p/common.hpp"
 773              		.file 39 "/home/denny/r2p-sdk/core/ChibiOS/os/ports/common/ARMCMx/CMSIS/include/core_cm4.h"