ARM GAS  /tmp/ccT8iVnB.s 			page 1


   1              		.syntax unified
   2              		.cpu cortex-m4
   3              		.eabi_attribute 27, 3
   4              		.eabi_attribute 28, 1
   5              		.fpu fpv4-sp-d16
   6              		.eabi_attribute 20, 1
   7              		.eabi_attribute 21, 1
   8              		.eabi_attribute 23, 3
   9              		.eabi_attribute 24, 1
  10              		.eabi_attribute 25, 1
  11              		.eabi_attribute 26, 1
  12              		.eabi_attribute 30, 6
  13              		.eabi_attribute 34, 1
  14              		.eabi_attribute 18, 4
  15              		.thumb
  16              		.file	"ext.c"
  17              		.text
  18              	.Ltext0:
  19              		.cfi_sections	.debug_frame
  20              		.section	.text.extInit,"ax",%progbits
  21              		.align	2
  22              		.p2align 4,,15
  23              		.global	extInit
  24              		.thumb
  25              		.thumb_func
  26              		.type	extInit, %function
  27              	extInit:
  28              	.LFB118:
  29              		.file 1 "/home/denny/r2p-sdk/core/ChibiOS/os/hal/src/ext.c"
  30              		.loc 1 68 0
  31              		.cfi_startproc
  32              		@ args = 0, pretend = 0, frame = 0
  33              		@ frame_needed = 0, uses_anonymous_args = 0
  34 0000 08B5     		push	{r3, lr}
  35              		.cfi_def_cfa_offset 8
  36              		.cfi_offset 3, -8
  37              		.cfi_offset 14, -4
  38              		.loc 1 70 0
  39 0002 FFF7FEFF 		bl	ext_lld_init
  40              		.loc 1 71 0
  41 0006 08BD     		pop	{r3, pc}
  42              		.cfi_endproc
  43              	.LFE118:
  44              		.size	extInit, .-extInit
  45 0008 AFF30080 		.section	.text.extObjectInit,"ax",%progbits
  45      AFF30080 
  46              		.align	2
  47              		.p2align 4,,15
  48              		.global	extObjectInit
  49              		.thumb
  50              		.thumb_func
  51              		.type	extObjectInit, %function
  52              	extObjectInit:
  53              	.LFB119:
  54              		.loc 1 80 0
  55              		.cfi_startproc
  56              		@ args = 0, pretend = 0, frame = 8
ARM GAS  /tmp/ccT8iVnB.s 			page 2


  57              		@ frame_needed = 0, uses_anonymous_args = 0
  58              		@ link register save eliminated.
  59 0000 82B0     		sub	sp, sp, #8
  60              		.cfi_def_cfa_offset 8
  61 0002 0190     		str	r0, [sp, #4]
  62              		.loc 1 82 0
  63 0004 019B     		ldr	r3, [sp, #4]
  64 0006 0122     		movs	r2, #1
  65 0008 1A70     		strb	r2, [r3]
  66              		.loc 1 83 0
  67 000a 019B     		ldr	r3, [sp, #4]
  68 000c 0022     		movs	r2, #0
  69 000e 5A60     		str	r2, [r3, #4]
  70              		.loc 1 84 0
  71 0010 02B0     		add	sp, sp, #8
  72              		.cfi_def_cfa_offset 0
  73              		@ sp needed
  74 0012 7047     		bx	lr
  75              		.cfi_endproc
  76              	.LFE119:
  77              		.size	extObjectInit, .-extObjectInit
  78 0014 AFF30080 		.section	.rodata
  78      AFF30080 
  78      AFF30080 
  79              		.align	2
  80              	.LC0:
  81 0000 22657874 		.ascii	"\"extStart\"()\000"
  81      53746172 
  81      74222829 
  81      00
  82 000d 000000   		.align	2
  83              	.LC1:
  84 0010 65787453 		.ascii	"extStart(), #1\000"
  84      74617274 
  84      28292C20 
  84      233100
  85              		.section	.text.extStart,"ax",%progbits
  86              		.align	2
  87              		.p2align 4,,15
  88              		.global	extStart
  89              		.thumb
  90              		.thumb_func
  91              		.type	extStart, %function
  92              	extStart:
  93              	.LFB120:
  94              		.loc 1 96 0
  95              		.cfi_startproc
  96              		@ args = 0, pretend = 0, frame = 8
  97              		@ frame_needed = 0, uses_anonymous_args = 0
  98 0000 00B5     		push	{lr}
  99              		.cfi_def_cfa_offset 4
 100              		.cfi_offset 14, -4
 101 0002 83B0     		sub	sp, sp, #12
 102              		.cfi_def_cfa_offset 16
 103 0004 0190     		str	r0, [sp, #4]
 104 0006 0091     		str	r1, [sp]
 105              		.loc 1 98 0
ARM GAS  /tmp/ccT8iVnB.s 			page 3


 106 0008 019B     		ldr	r3, [sp, #4]
 107 000a 002B     		cmp	r3, #0
 108 000c 02D0     		beq	.L4
 109              		.loc 1 98 0 is_stmt 0 discriminator 2
 110 000e 009B     		ldr	r3, [sp]
 111 0010 002B     		cmp	r3, #0
 112 0012 02D1     		bne	.L5
 113              	.L4:
 114              		.loc 1 98 0 discriminator 3
 115 0014 1148     		ldr	r0, .L7
 116 0016 FFF7FEFF 		bl	chDbgPanic
 117              	.L5:
 118              	.LBB2:
 119              		.loc 1 100 0 is_stmt 1
 120 001a 2023     		movs	r3, #32
 121              	@ 100 "/home/denny/r2p-sdk/core/ChibiOS/os/hal/src/ext.c" 1
 122 001c 83F31188 		msr     BASEPRI, r3
 123              	@ 0 "" 2
 124              		.thumb
 125              	.LBE2:
 126 0020 FFF7FEFF 		bl	dbg_check_lock
 127              		.loc 1 101 0
 128 0024 019B     		ldr	r3, [sp, #4]
 129 0026 1B78     		ldrb	r3, [r3]	@ zero_extendqisi2
 130 0028 012B     		cmp	r3, #1
 131 002a 06D0     		beq	.L6
 132              		.loc 1 101 0 is_stmt 0 discriminator 1
 133 002c 019B     		ldr	r3, [sp, #4]
 134 002e 1B78     		ldrb	r3, [r3]	@ zero_extendqisi2
 135 0030 022B     		cmp	r3, #2
 136 0032 02D0     		beq	.L6
 137              		.loc 1 101 0 discriminator 2
 138 0034 0A48     		ldr	r0, .L7+4
 139 0036 FFF7FEFF 		bl	chDbgPanic
 140              	.L6:
 141              		.loc 1 103 0 is_stmt 1
 142 003a 019B     		ldr	r3, [sp, #4]
 143 003c 009A     		ldr	r2, [sp]
 144 003e 5A60     		str	r2, [r3, #4]
 145              		.loc 1 104 0
 146 0040 0198     		ldr	r0, [sp, #4]
 147 0042 FFF7FEFF 		bl	ext_lld_start
 148              		.loc 1 105 0
 149 0046 019B     		ldr	r3, [sp, #4]
 150 0048 0222     		movs	r2, #2
 151 004a 1A70     		strb	r2, [r3]
 152              		.loc 1 106 0
 153 004c FFF7FEFF 		bl	dbg_check_unlock
 154              	.LBB3:
 155 0050 0023     		movs	r3, #0
 156              	@ 106 "/home/denny/r2p-sdk/core/ChibiOS/os/hal/src/ext.c" 1
 157 0052 83F31188 		msr     BASEPRI, r3
 158              	@ 0 "" 2
 159              		.thumb
 160              	.LBE3:
 161              		.loc 1 107 0
 162 0056 03B0     		add	sp, sp, #12
ARM GAS  /tmp/ccT8iVnB.s 			page 4


 163              		.cfi_def_cfa_offset 4
 164              		@ sp needed
 165 0058 5DF804FB 		ldr	pc, [sp], #4
 166              	.L8:
 167              		.align	2
 168              	.L7:
 169 005c 00000000 		.word	.LC0
 170 0060 10000000 		.word	.LC1
 171              		.cfi_endproc
 172              	.LFE120:
 173              		.size	extStart, .-extStart
 174 0064 AFF30080 		.section	.rodata
 174      AFF30080 
 174      AFF30080 
 175 001f 00       		.align	2
 176              	.LC2:
 177 0020 22657874 		.ascii	"\"extStop\"()\000"
 177      53746F70 
 177      22282900 
 178              		.align	2
 179              	.LC3:
 180 002c 65787453 		.ascii	"extStop(), #1\000"
 180      746F7028 
 180      292C2023 
 180      3100
 181              		.section	.text.extStop,"ax",%progbits
 182              		.align	2
 183              		.p2align 4,,15
 184              		.global	extStop
 185              		.thumb
 186              		.thumb_func
 187              		.type	extStop, %function
 188              	extStop:
 189              	.LFB121:
 190              		.loc 1 116 0
 191              		.cfi_startproc
 192              		@ args = 0, pretend = 0, frame = 8
 193              		@ frame_needed = 0, uses_anonymous_args = 0
 194 0000 00B5     		push	{lr}
 195              		.cfi_def_cfa_offset 4
 196              		.cfi_offset 14, -4
 197 0002 83B0     		sub	sp, sp, #12
 198              		.cfi_def_cfa_offset 16
 199 0004 0190     		str	r0, [sp, #4]
 200              		.loc 1 118 0
 201 0006 019B     		ldr	r3, [sp, #4]
 202 0008 002B     		cmp	r3, #0
 203 000a 02D1     		bne	.L10
 204              		.loc 1 118 0 is_stmt 0 discriminator 1
 205 000c 1048     		ldr	r0, .L12
 206 000e FFF7FEFF 		bl	chDbgPanic
 207              	.L10:
 208              	.LBB4:
 209              		.loc 1 120 0 is_stmt 1
 210 0012 2023     		movs	r3, #32
 211              	@ 120 "/home/denny/r2p-sdk/core/ChibiOS/os/hal/src/ext.c" 1
 212 0014 83F31188 		msr     BASEPRI, r3
ARM GAS  /tmp/ccT8iVnB.s 			page 5


 213              	@ 0 "" 2
 214              		.thumb
 215              	.LBE4:
 216 0018 FFF7FEFF 		bl	dbg_check_lock
 217              		.loc 1 121 0
 218 001c 019B     		ldr	r3, [sp, #4]
 219 001e 1B78     		ldrb	r3, [r3]	@ zero_extendqisi2
 220 0020 012B     		cmp	r3, #1
 221 0022 06D0     		beq	.L11
 222              		.loc 1 121 0 is_stmt 0 discriminator 1
 223 0024 019B     		ldr	r3, [sp, #4]
 224 0026 1B78     		ldrb	r3, [r3]	@ zero_extendqisi2
 225 0028 022B     		cmp	r3, #2
 226 002a 02D0     		beq	.L11
 227              		.loc 1 121 0 discriminator 2
 228 002c 0948     		ldr	r0, .L12+4
 229 002e FFF7FEFF 		bl	chDbgPanic
 230              	.L11:
 231              		.loc 1 123 0 is_stmt 1
 232 0032 0198     		ldr	r0, [sp, #4]
 233 0034 FFF7FEFF 		bl	ext_lld_stop
 234              		.loc 1 124 0
 235 0038 019B     		ldr	r3, [sp, #4]
 236 003a 0122     		movs	r2, #1
 237 003c 1A70     		strb	r2, [r3]
 238              		.loc 1 125 0
 239 003e FFF7FEFF 		bl	dbg_check_unlock
 240              	.LBB5:
 241 0042 0023     		movs	r3, #0
 242              	@ 125 "/home/denny/r2p-sdk/core/ChibiOS/os/hal/src/ext.c" 1
 243 0044 83F31188 		msr     BASEPRI, r3
 244              	@ 0 "" 2
 245              		.thumb
 246              	.LBE5:
 247              		.loc 1 126 0
 248 0048 03B0     		add	sp, sp, #12
 249              		.cfi_def_cfa_offset 4
 250              		@ sp needed
 251 004a 5DF804FB 		ldr	pc, [sp], #4
 252              	.L13:
 253 004e 00BF     		.align	2
 254              	.L12:
 255 0050 20000000 		.word	.LC2
 256 0054 2C000000 		.word	.LC3
 257              		.cfi_endproc
 258              	.LFE121:
 259              		.size	extStop, .-extStop
 260 0058 AFF30080 		.section	.rodata
 260      AFF30080 
 261 003a 0000     		.align	2
 262              	.LC4:
 263 003c 22657874 		.ascii	"\"extChannelEnable\"()\000"
 263      4368616E 
 263      6E656C45 
 263      6E61626C 
 263      65222829 
 264 0051 000000   		.align	2
ARM GAS  /tmp/ccT8iVnB.s 			page 6


 265              	.LC5:
 266 0054 65787443 		.ascii	"extChannelEnable(), #1\000"
 266      68616E6E 
 266      656C456E 
 266      61626C65 
 266      28292C20 
 267              		.section	.text.extChannelEnable,"ax",%progbits
 268              		.align	2
 269              		.p2align 4,,15
 270              		.global	extChannelEnable
 271              		.thumb
 272              		.thumb_func
 273              		.type	extChannelEnable, %function
 274              	extChannelEnable:
 275              	.LFB122:
 276              		.loc 1 137 0
 277              		.cfi_startproc
 278              		@ args = 0, pretend = 0, frame = 8
 279              		@ frame_needed = 0, uses_anonymous_args = 0
 280 0000 00B5     		push	{lr}
 281              		.cfi_def_cfa_offset 4
 282              		.cfi_offset 14, -4
 283 0002 83B0     		sub	sp, sp, #12
 284              		.cfi_def_cfa_offset 16
 285 0004 0190     		str	r0, [sp, #4]
 286 0006 0091     		str	r1, [sp]
 287              		.loc 1 139 0
 288 0008 019B     		ldr	r3, [sp, #4]
 289 000a 002B     		cmp	r3, #0
 290 000c 02D0     		beq	.L15
 291              		.loc 1 139 0 is_stmt 0 discriminator 2
 292 000e 009B     		ldr	r3, [sp]
 293 0010 212B     		cmp	r3, #33
 294 0012 02D9     		bls	.L16
 295              	.L15:
 296              		.loc 1 139 0 discriminator 3
 297 0014 1148     		ldr	r0, .L19
 298 0016 FFF7FEFF 		bl	chDbgPanic
 299              	.L16:
 300              	.LBB6:
 301              		.loc 1 142 0 is_stmt 1
 302 001a 2023     		movs	r3, #32
 303              	@ 142 "/home/denny/r2p-sdk/core/ChibiOS/os/hal/src/ext.c" 1
 304 001c 83F31188 		msr     BASEPRI, r3
 305              	@ 0 "" 2
 306              		.thumb
 307              	.LBE6:
 308 0020 FFF7FEFF 		bl	dbg_check_lock
 309              		.loc 1 143 0
 310 0024 019B     		ldr	r3, [sp, #4]
 311 0026 1B78     		ldrb	r3, [r3]	@ zero_extendqisi2
 312 0028 022B     		cmp	r3, #2
 313 002a 08D1     		bne	.L17
 314              		.loc 1 143 0 is_stmt 0 discriminator 2
 315 002c 019B     		ldr	r3, [sp, #4]
 316 002e 5B68     		ldr	r3, [r3, #4]
 317 0030 009A     		ldr	r2, [sp]
ARM GAS  /tmp/ccT8iVnB.s 			page 7


 318 0032 53F83230 		ldr	r3, [r3, r2, lsl #3]
 319 0036 03F00303 		and	r3, r3, #3
 320 003a 002B     		cmp	r3, #0
 321 003c 02D1     		bne	.L18
 322              	.L17:
 323              		.loc 1 143 0 discriminator 3
 324 003e 0848     		ldr	r0, .L19+4
 325 0040 FFF7FEFF 		bl	chDbgPanic
 326              	.L18:
 327              		.loc 1 147 0 is_stmt 1
 328 0044 0198     		ldr	r0, [sp, #4]
 329 0046 0099     		ldr	r1, [sp]
 330 0048 FFF7FEFF 		bl	ext_lld_channel_enable
 331              		.loc 1 148 0
 332 004c FFF7FEFF 		bl	dbg_check_unlock
 333              	.LBB7:
 334 0050 0023     		movs	r3, #0
 335              	@ 148 "/home/denny/r2p-sdk/core/ChibiOS/os/hal/src/ext.c" 1
 336 0052 83F31188 		msr     BASEPRI, r3
 337              	@ 0 "" 2
 338              		.thumb
 339              	.LBE7:
 340              		.loc 1 149 0
 341 0056 03B0     		add	sp, sp, #12
 342              		.cfi_def_cfa_offset 4
 343              		@ sp needed
 344 0058 5DF804FB 		ldr	pc, [sp], #4
 345              	.L20:
 346              		.align	2
 347              	.L19:
 348 005c 3C000000 		.word	.LC4
 349 0060 54000000 		.word	.LC5
 350              		.cfi_endproc
 351              	.LFE122:
 352              		.size	extChannelEnable, .-extChannelEnable
 353 0064 AFF30080 		.section	.rodata
 353      AFF30080 
 353      AFF30080 
 354 006b 00       		.align	2
 355              	.LC6:
 356 006c 22657874 		.ascii	"\"extChannelDisable\"()\000"
 356      4368616E 
 356      6E656C44 
 356      69736162 
 356      6C652228 
 357 0082 0000     		.align	2
 358              	.LC7:
 359 0084 65787443 		.ascii	"extChannelDisable(), #1\000"
 359      68616E6E 
 359      656C4469 
 359      7361626C 
 359      6528292C 
 360              		.section	.text.extChannelDisable,"ax",%progbits
 361              		.align	2
 362              		.p2align 4,,15
 363              		.global	extChannelDisable
 364              		.thumb
ARM GAS  /tmp/ccT8iVnB.s 			page 8


 365              		.thumb_func
 366              		.type	extChannelDisable, %function
 367              	extChannelDisable:
 368              	.LFB123:
 369              		.loc 1 160 0
 370              		.cfi_startproc
 371              		@ args = 0, pretend = 0, frame = 8
 372              		@ frame_needed = 0, uses_anonymous_args = 0
 373 0000 00B5     		push	{lr}
 374              		.cfi_def_cfa_offset 4
 375              		.cfi_offset 14, -4
 376 0002 83B0     		sub	sp, sp, #12
 377              		.cfi_def_cfa_offset 16
 378 0004 0190     		str	r0, [sp, #4]
 379 0006 0091     		str	r1, [sp]
 380              		.loc 1 162 0
 381 0008 019B     		ldr	r3, [sp, #4]
 382 000a 002B     		cmp	r3, #0
 383 000c 02D0     		beq	.L22
 384              		.loc 1 162 0 is_stmt 0 discriminator 2
 385 000e 009B     		ldr	r3, [sp]
 386 0010 212B     		cmp	r3, #33
 387 0012 02D9     		bls	.L23
 388              	.L22:
 389              		.loc 1 162 0 discriminator 3
 390 0014 1148     		ldr	r0, .L26
 391 0016 FFF7FEFF 		bl	chDbgPanic
 392              	.L23:
 393              	.LBB8:
 394              		.loc 1 165 0 is_stmt 1
 395 001a 2023     		movs	r3, #32
 396              	@ 165 "/home/denny/r2p-sdk/core/ChibiOS/os/hal/src/ext.c" 1
 397 001c 83F31188 		msr     BASEPRI, r3
 398              	@ 0 "" 2
 399              		.thumb
 400              	.LBE8:
 401 0020 FFF7FEFF 		bl	dbg_check_lock
 402              		.loc 1 166 0
 403 0024 019B     		ldr	r3, [sp, #4]
 404 0026 1B78     		ldrb	r3, [r3]	@ zero_extendqisi2
 405 0028 022B     		cmp	r3, #2
 406 002a 08D1     		bne	.L24
 407              		.loc 1 166 0 is_stmt 0 discriminator 2
 408 002c 019B     		ldr	r3, [sp, #4]
 409 002e 5B68     		ldr	r3, [r3, #4]
 410 0030 009A     		ldr	r2, [sp]
 411 0032 53F83230 		ldr	r3, [r3, r2, lsl #3]
 412 0036 03F00303 		and	r3, r3, #3
 413 003a 002B     		cmp	r3, #0
 414 003c 02D1     		bne	.L25
 415              	.L24:
 416              		.loc 1 166 0 discriminator 3
 417 003e 0848     		ldr	r0, .L26+4
 418 0040 FFF7FEFF 		bl	chDbgPanic
 419              	.L25:
 420              		.loc 1 170 0 is_stmt 1
 421 0044 0198     		ldr	r0, [sp, #4]
ARM GAS  /tmp/ccT8iVnB.s 			page 9


 422 0046 0099     		ldr	r1, [sp]
 423 0048 FFF7FEFF 		bl	ext_lld_channel_disable
 424              		.loc 1 171 0
 425 004c FFF7FEFF 		bl	dbg_check_unlock
 426              	.LBB9:
 427 0050 0023     		movs	r3, #0
 428              	@ 171 "/home/denny/r2p-sdk/core/ChibiOS/os/hal/src/ext.c" 1
 429 0052 83F31188 		msr     BASEPRI, r3
 430              	@ 0 "" 2
 431              		.thumb
 432              	.LBE9:
 433              		.loc 1 172 0
 434 0056 03B0     		add	sp, sp, #12
 435              		.cfi_def_cfa_offset 4
 436              		@ sp needed
 437 0058 5DF804FB 		ldr	pc, [sp], #4
 438              	.L27:
 439              		.align	2
 440              	.L26:
 441 005c 6C000000 		.word	.LC6
 442 0060 84000000 		.word	.LC7
 443              		.cfi_endproc
 444              	.LFE123:
 445              		.size	extChannelDisable, .-extChannelDisable
 446 0064 AFF30080 		.section	.rodata
 446      AFF30080 
 446      AFF30080 
 447              		.align	2
 448              	.LC8:
 449 009c 22657874 		.ascii	"\"extSetChannelModeI\"()\000"
 449      53657443 
 449      68616E6E 
 449      656C4D6F 
 449      64654922 
 450 00b3 00       		.align	2
 451              	.LC9:
 452 00b4 65787453 		.ascii	"extSetChannelModeI(), #1\000"
 452      65744368 
 452      616E6E65 
 452      6C4D6F64 
 452      65492829 
 453 00cd 000000   		.section	.text.extSetChannelModeI,"ax",%progbits
 454              		.align	2
 455              		.p2align 4,,15
 456              		.global	extSetChannelModeI
 457              		.thumb
 458              		.thumb_func
 459              		.type	extSetChannelModeI, %function
 460              	extSetChannelModeI:
 461              	.LFB124:
 462              		.loc 1 193 0
 463              		.cfi_startproc
 464              		@ args = 0, pretend = 0, frame = 24
 465              		@ frame_needed = 0, uses_anonymous_args = 0
 466 0000 00B5     		push	{lr}
 467              		.cfi_def_cfa_offset 4
 468              		.cfi_offset 14, -4
ARM GAS  /tmp/ccT8iVnB.s 			page 10


 469 0002 87B0     		sub	sp, sp, #28
 470              		.cfi_def_cfa_offset 32
 471 0004 0390     		str	r0, [sp, #12]
 472 0006 0291     		str	r1, [sp, #8]
 473 0008 0192     		str	r2, [sp, #4]
 474              		.loc 1 196 0
 475 000a 039B     		ldr	r3, [sp, #12]
 476 000c 002B     		cmp	r3, #0
 477 000e 05D0     		beq	.L29
 478              		.loc 1 196 0 is_stmt 0 discriminator 2
 479 0010 029B     		ldr	r3, [sp, #8]
 480 0012 212B     		cmp	r3, #33
 481 0014 02D8     		bhi	.L29
 482              		.loc 1 196 0 discriminator 4
 483 0016 019B     		ldr	r3, [sp, #4]
 484 0018 002B     		cmp	r3, #0
 485 001a 02D1     		bne	.L30
 486              	.L29:
 487              		.loc 1 196 0 discriminator 5
 488 001c 0E48     		ldr	r0, .L32
 489 001e FFF7FEFF 		bl	chDbgPanic
 490              	.L30:
 491              		.loc 1 199 0 is_stmt 1
 492 0022 039B     		ldr	r3, [sp, #12]
 493 0024 1B78     		ldrb	r3, [r3]	@ zero_extendqisi2
 494 0026 022B     		cmp	r3, #2
 495 0028 02D0     		beq	.L31
 496              		.loc 1 199 0 is_stmt 0 discriminator 1
 497 002a 0C48     		ldr	r0, .L32+4
 498 002c FFF7FEFF 		bl	chDbgPanic
 499              	.L31:
 500              		.loc 1 204 0 is_stmt 1
 501 0030 039B     		ldr	r3, [sp, #12]
 502 0032 5A68     		ldr	r2, [r3, #4]
 503 0034 029B     		ldr	r3, [sp, #8]
 504 0036 DB00     		lsls	r3, r3, #3
 505 0038 1344     		add	r3, r3, r2
 506 003a 0593     		str	r3, [sp, #20]
 507              		.loc 1 208 0
 508 003c 059B     		ldr	r3, [sp, #20]
 509 003e 019A     		ldr	r2, [sp, #4]
 510 0040 92E80300 		ldmia	r2, {r0, r1}
 511 0044 83E80300 		stmia	r3, {r0, r1}
 512              		.loc 1 209 0
 513 0048 0398     		ldr	r0, [sp, #12]
 514 004a 0299     		ldr	r1, [sp, #8]
 515 004c FFF7FEFF 		bl	ext_lld_channel_enable
 516              		.loc 1 210 0
 517 0050 07B0     		add	sp, sp, #28
 518              		.cfi_def_cfa_offset 4
 519              		@ sp needed
 520 0052 5DF804FB 		ldr	pc, [sp], #4
 521              	.L33:
 522 0056 00BF     		.align	2
 523              	.L32:
 524 0058 9C000000 		.word	.LC8
 525 005c B4000000 		.word	.LC9
ARM GAS  /tmp/ccT8iVnB.s 			page 11


 526              		.cfi_endproc
 527              	.LFE124:
 528              		.size	extSetChannelModeI, .-extSetChannelModeI
 529              		.text
 530              	.Letext0:
 531              		.file 2 "/home/denny/r2p-sdk/tools/gcc-arm-none-eabi-4_9-2014q4/arm-none-eabi/include/machine/_def
 532              		.file 3 "/home/denny/r2p-sdk/tools/gcc-arm-none-eabi-4_9-2014q4/arm-none-eabi/include/stdint.h"
 533              		.file 4 "/home/denny/r2p-sdk/core/ChibiOS/os/hal/include/ext.h"
 534              		.file 5 "/home/denny/r2p-sdk/core/ChibiOS/os/hal/platforms/STM32/ext_lld.h"
 535              		.file 6 "/home/denny/r2p-sdk/core/ChibiOS/os/ports/common/ARMCMx/CMSIS/include/core_cm4.h"