ARM GAS  /tmp/ccLvi7Z8.s 			page 1


   1              		.syntax unified
   2              		.cpu cortex-m4
   3              		.eabi_attribute 27, 3
   4              		.eabi_attribute 28, 1
   5              		.fpu fpv4-sp-d16
   6              		.eabi_attribute 20, 1
   7              		.eabi_attribute 21, 1
   8              		.eabi_attribute 23, 3
   9              		.eabi_attribute 24, 1
  10              		.eabi_attribute 25, 1
  11              		.eabi_attribute 26, 1
  12              		.eabi_attribute 30, 6
  13              		.eabi_attribute 34, 1
  14              		.eabi_attribute 18, 4
  15              		.thumb
  16              		.file	"ext_lld.c"
  17              		.text
  18              	.Ltext0:
  19              		.cfi_sections	.debug_frame
  20              		.global	EXTD1
  21              		.section	.bss.EXTD1,"aw",%nobits
  22              		.align	2
  23              		.type	EXTD1, %object
  24              		.size	EXTD1, 8
  25              	EXTD1:
  26 0000 00000000 		.space	8
  26      00000000 
  27              		.section	.text.ext_lld_init,"ax",%progbits
  28              		.align	2
  29              		.p2align 4,,15
  30              		.global	ext_lld_init
  31              		.thumb
  32              		.thumb_func
  33              		.type	ext_lld_init, %function
  34              	ext_lld_init:
  35              	.LFB118:
  36              		.file 1 "/home/denny/r2p-sdk/core/ChibiOS/os/hal/platforms/STM32/ext_lld.c"
  37              		.loc 1 66 0
  38              		.cfi_startproc
  39              		@ args = 0, pretend = 0, frame = 0
  40              		@ frame_needed = 0, uses_anonymous_args = 0
  41 0000 08B5     		push	{r3, lr}
  42              		.cfi_def_cfa_offset 8
  43              		.cfi_offset 3, -8
  44              		.cfi_offset 14, -4
  45              		.loc 1 69 0
  46 0002 0248     		ldr	r0, .L2
  47 0004 FFF7FEFF 		bl	extObjectInit
  48              		.loc 1 70 0
  49 0008 08BD     		pop	{r3, pc}
  50              	.L3:
  51 000a 00BF     		.align	2
  52              	.L2:
  53 000c 00000000 		.word	EXTD1
  54              		.cfi_endproc
  55              	.LFE118:
  56              		.size	ext_lld_init, .-ext_lld_init
ARM GAS  /tmp/ccLvi7Z8.s 			page 2


  57              		.section	.text.ext_lld_start,"ax",%progbits
  58              		.align	2
  59              		.p2align 4,,15
  60              		.global	ext_lld_start
  61              		.thumb
  62              		.thumb_func
  63              		.type	ext_lld_start, %function
  64              	ext_lld_start:
  65              	.LFB119:
  66              		.loc 1 79 0
  67              		.cfi_startproc
  68              		@ args = 0, pretend = 0, frame = 16
  69              		@ frame_needed = 0, uses_anonymous_args = 0
  70 0000 00B5     		push	{lr}
  71              		.cfi_def_cfa_offset 4
  72              		.cfi_offset 14, -4
  73 0002 85B0     		sub	sp, sp, #20
  74              		.cfi_def_cfa_offset 24
  75 0004 0190     		str	r0, [sp, #4]
  76              		.loc 1 82 0
  77 0006 019B     		ldr	r3, [sp, #4]
  78 0008 1B78     		ldrb	r3, [r3]	@ zero_extendqisi2
  79 000a 012B     		cmp	r3, #1
  80 000c 01D1     		bne	.L5
  81              		.loc 1 83 0
  82 000e FFF7FEFF 		bl	ext_lld_exti_irq_enable
  83              	.L5:
  84              		.loc 1 86 0
  85 0012 0023     		movs	r3, #0
  86 0014 0393     		str	r3, [sp, #12]
  87 0016 14E0     		b	.L6
  88              	.L9:
  89              		.loc 1 87 0
  90 0018 019B     		ldr	r3, [sp, #4]
  91 001a 5B68     		ldr	r3, [r3, #4]
  92 001c 039A     		ldr	r2, [sp, #12]
  93 001e 53F83230 		ldr	r3, [r3, r2, lsl #3]
  94 0022 03F00403 		and	r3, r3, #4
  95 0026 002B     		cmp	r3, #0
  96 0028 04D0     		beq	.L7
  97              		.loc 1 88 0
  98 002a 0198     		ldr	r0, [sp, #4]
  99 002c 0399     		ldr	r1, [sp, #12]
 100 002e FFF7FEFF 		bl	ext_lld_channel_enable
 101 0032 03E0     		b	.L8
 102              	.L7:
 103              		.loc 1 90 0
 104 0034 0198     		ldr	r0, [sp, #4]
 105 0036 0399     		ldr	r1, [sp, #12]
 106 0038 FFF7FEFF 		bl	ext_lld_channel_disable
 107              	.L8:
 108              		.loc 1 86 0 discriminator 2
 109 003c 039B     		ldr	r3, [sp, #12]
 110 003e 0133     		adds	r3, r3, #1
 111 0040 0393     		str	r3, [sp, #12]
 112              	.L6:
 113              		.loc 1 86 0 is_stmt 0 discriminator 1
ARM GAS  /tmp/ccLvi7Z8.s 			page 3


 114 0042 039B     		ldr	r3, [sp, #12]
 115 0044 212B     		cmp	r3, #33
 116 0046 E7D9     		bls	.L9
 117              		.loc 1 91 0 is_stmt 1
 118 0048 05B0     		add	sp, sp, #20
 119              		.cfi_def_cfa_offset 4
 120              		@ sp needed
 121 004a 5DF804FB 		ldr	pc, [sp], #4
 122              		.cfi_endproc
 123              	.LFE119:
 124              		.size	ext_lld_start, .-ext_lld_start
 125 004e 00BF     		.section	.text.ext_lld_stop,"ax",%progbits
 126              		.align	2
 127              		.p2align 4,,15
 128              		.global	ext_lld_stop
 129              		.thumb
 130              		.thumb_func
 131              		.type	ext_lld_stop, %function
 132              	ext_lld_stop:
 133              	.LFB120:
 134              		.loc 1 100 0
 135              		.cfi_startproc
 136              		@ args = 0, pretend = 0, frame = 8
 137              		@ frame_needed = 0, uses_anonymous_args = 0
 138 0000 00B5     		push	{lr}
 139              		.cfi_def_cfa_offset 4
 140              		.cfi_offset 14, -4
 141 0002 83B0     		sub	sp, sp, #12
 142              		.cfi_def_cfa_offset 16
 143 0004 0190     		str	r0, [sp, #4]
 144              		.loc 1 102 0
 145 0006 019B     		ldr	r3, [sp, #4]
 146 0008 1B78     		ldrb	r3, [r3]	@ zero_extendqisi2
 147 000a 022B     		cmp	r3, #2
 148 000c 01D1     		bne	.L11
 149              		.loc 1 103 0
 150 000e FFF7FEFF 		bl	ext_lld_exti_irq_disable
 151              	.L11:
 152              		.loc 1 105 0
 153 0012 084B     		ldr	r3, .L12
 154 0014 0022     		movs	r2, #0
 155 0016 5A60     		str	r2, [r3, #4]
 156              		.loc 1 106 0
 157 0018 064B     		ldr	r3, .L12
 158 001a 0022     		movs	r2, #0
 159 001c 1A60     		str	r2, [r3]
 160              		.loc 1 107 0
 161 001e 054B     		ldr	r3, .L12
 162 0020 4FF0FF32 		mov	r2, #-1
 163 0024 5A61     		str	r2, [r3, #20]
 164              		.loc 1 109 0
 165 0026 034B     		ldr	r3, .L12
 166 0028 4FF0FF32 		mov	r2, #-1
 167 002c 5A63     		str	r2, [r3, #52]
 168              		.loc 1 111 0
 169 002e 03B0     		add	sp, sp, #12
 170              		.cfi_def_cfa_offset 4
ARM GAS  /tmp/ccLvi7Z8.s 			page 4


 171              		@ sp needed
 172 0030 5DF804FB 		ldr	pc, [sp], #4
 173              	.L13:
 174              		.align	2
 175              	.L12:
 176 0034 00040140 		.word	1073808384
 177              		.cfi_endproc
 178              	.LFE120:
 179              		.size	ext_lld_stop, .-ext_lld_stop
 180 0038 AFF30080 		.section	.text.ext_lld_channel_enable,"ax",%progbits
 180      AFF30080 
 181              		.align	2
 182              		.p2align 4,,15
 183              		.global	ext_lld_channel_enable
 184              		.thumb
 185              		.thumb_func
 186              		.type	ext_lld_channel_enable, %function
 187              	ext_lld_channel_enable:
 188              	.LFB121:
 189              		.loc 1 121 0
 190              		.cfi_startproc
 191              		@ args = 0, pretend = 0, frame = 24
 192              		@ frame_needed = 0, uses_anonymous_args = 0
 193              		@ link register save eliminated.
 194 0000 86B0     		sub	sp, sp, #24
 195              		.cfi_def_cfa_offset 24
 196 0002 0190     		str	r0, [sp, #4]
 197 0004 0091     		str	r1, [sp]
 198              		.loc 1 124 0
 199 0006 009B     		ldr	r3, [sp]
 200 0008 0F2B     		cmp	r3, #15
 201 000a 27D8     		bhi	.L15
 202              	.LBB2:
 203              		.loc 1 125 0
 204 000c 009B     		ldr	r3, [sp]
 205 000e 9B08     		lsrs	r3, r3, #2
 206 0010 0593     		str	r3, [sp, #20]
 207              		.loc 1 126 0
 208 0012 009B     		ldr	r3, [sp]
 209 0014 03F00303 		and	r3, r3, #3
 210 0018 9B00     		lsls	r3, r3, #2
 211 001a 1A46     		mov	r2, r3
 212 001c 0F23     		movs	r3, #15
 213 001e 9340     		lsls	r3, r3, r2
 214 0020 DB43     		mvns	r3, r3
 215 0022 0493     		str	r3, [sp, #16]
 216              		.loc 1 127 0
 217 0024 019B     		ldr	r3, [sp, #4]
 218 0026 5B68     		ldr	r3, [r3, #4]
 219 0028 009A     		ldr	r2, [sp]
 220 002a 53F83230 		ldr	r3, [r3, r2, lsl #3]
 221 002e 03F0F003 		and	r3, r3, #240
 222              		.loc 1 128 0
 223 0032 1B09     		lsrs	r3, r3, #4
 224              		.loc 1 129 0
 225 0034 009A     		ldr	r2, [sp]
 226 0036 02F00302 		and	r2, r2, #3
ARM GAS  /tmp/ccLvi7Z8.s 			page 5


 227 003a 9200     		lsls	r2, r2, #2
 228              		.loc 1 127 0
 229 003c 9340     		lsls	r3, r3, r2
 230 003e 0393     		str	r3, [sp, #12]
 231              		.loc 1 137 0
 232 0040 7A49     		ldr	r1, .L29
 233 0042 7A4A     		ldr	r2, .L29
 234 0044 059B     		ldr	r3, [sp, #20]
 235 0046 0233     		adds	r3, r3, #2
 236 0048 52F82320 		ldr	r2, [r2, r3, lsl #2]
 237 004c 049B     		ldr	r3, [sp, #16]
 238 004e 1A40     		ands	r2, r2, r3
 239 0050 039B     		ldr	r3, [sp, #12]
 240 0052 1A43     		orrs	r2, r2, r3
 241 0054 059B     		ldr	r3, [sp, #20]
 242 0056 0233     		adds	r3, r3, #2
 243 0058 41F82320 		str	r2, [r1, r3, lsl #2]
 244              	.L15:
 245              	.LBE2:
 246              		.loc 1 142 0
 247 005c 009B     		ldr	r3, [sp]
 248 005e 1F2B     		cmp	r3, #31
 249 0060 69D8     		bhi	.L16
 250              		.loc 1 145 0
 251 0062 019B     		ldr	r3, [sp, #4]
 252 0064 5B68     		ldr	r3, [r3, #4]
 253 0066 009A     		ldr	r2, [sp]
 254 0068 53F83230 		ldr	r3, [r3, r2, lsl #3]
 255 006c 03F00103 		and	r3, r3, #1
 256 0070 002B     		cmp	r3, #0
 257 0072 09D0     		beq	.L17
 258              		.loc 1 146 0
 259 0074 6E49     		ldr	r1, .L29+4
 260 0076 6E4B     		ldr	r3, .L29+4
 261 0078 9B68     		ldr	r3, [r3, #8]
 262 007a 009A     		ldr	r2, [sp]
 263 007c 0120     		movs	r0, #1
 264 007e 00FA02F2 		lsl	r2, r0, r2
 265 0082 1343     		orrs	r3, r3, r2
 266 0084 8B60     		str	r3, [r1, #8]
 267 0086 09E0     		b	.L18
 268              	.L17:
 269              		.loc 1 148 0
 270 0088 6949     		ldr	r1, .L29+4
 271 008a 694B     		ldr	r3, .L29+4
 272 008c 9B68     		ldr	r3, [r3, #8]
 273 008e 009A     		ldr	r2, [sp]
 274 0090 0120     		movs	r0, #1
 275 0092 00FA02F2 		lsl	r2, r0, r2
 276 0096 D243     		mvns	r2, r2
 277 0098 1340     		ands	r3, r3, r2
 278 009a 8B60     		str	r3, [r1, #8]
 279              	.L18:
 280              		.loc 1 149 0
 281 009c 019B     		ldr	r3, [sp, #4]
 282 009e 5B68     		ldr	r3, [r3, #4]
 283 00a0 009A     		ldr	r2, [sp]
ARM GAS  /tmp/ccLvi7Z8.s 			page 6


 284 00a2 53F83230 		ldr	r3, [r3, r2, lsl #3]
 285 00a6 03F00203 		and	r3, r3, #2
 286 00aa 002B     		cmp	r3, #0
 287 00ac 09D0     		beq	.L19
 288              		.loc 1 150 0
 289 00ae 6049     		ldr	r1, .L29+4
 290 00b0 5F4B     		ldr	r3, .L29+4
 291 00b2 DB68     		ldr	r3, [r3, #12]
 292 00b4 009A     		ldr	r2, [sp]
 293 00b6 0120     		movs	r0, #1
 294 00b8 00FA02F2 		lsl	r2, r0, r2
 295 00bc 1343     		orrs	r3, r3, r2
 296 00be CB60     		str	r3, [r1, #12]
 297 00c0 09E0     		b	.L20
 298              	.L19:
 299              		.loc 1 152 0
 300 00c2 5B49     		ldr	r1, .L29+4
 301 00c4 5A4B     		ldr	r3, .L29+4
 302 00c6 DB68     		ldr	r3, [r3, #12]
 303 00c8 009A     		ldr	r2, [sp]
 304 00ca 0120     		movs	r0, #1
 305 00cc 00FA02F2 		lsl	r2, r0, r2
 306 00d0 D243     		mvns	r2, r2
 307 00d2 1340     		ands	r3, r3, r2
 308 00d4 CB60     		str	r3, [r1, #12]
 309              	.L20:
 310              		.loc 1 155 0
 311 00d6 019B     		ldr	r3, [sp, #4]
 312 00d8 5A68     		ldr	r2, [r3, #4]
 313 00da 009B     		ldr	r3, [sp]
 314 00dc DB00     		lsls	r3, r3, #3
 315 00de 1344     		add	r3, r3, r2
 316 00e0 5B68     		ldr	r3, [r3, #4]
 317 00e2 002B     		cmp	r3, #0
 318 00e4 13D0     		beq	.L21
 319              		.loc 1 156 0
 320 00e6 5249     		ldr	r1, .L29+4
 321 00e8 514B     		ldr	r3, .L29+4
 322 00ea 1B68     		ldr	r3, [r3]
 323 00ec 009A     		ldr	r2, [sp]
 324 00ee 0120     		movs	r0, #1
 325 00f0 00FA02F2 		lsl	r2, r0, r2
 326 00f4 1343     		orrs	r3, r3, r2
 327 00f6 0B60     		str	r3, [r1]
 328              		.loc 1 157 0
 329 00f8 4D49     		ldr	r1, .L29+4
 330 00fa 4D4B     		ldr	r3, .L29+4
 331 00fc 5B68     		ldr	r3, [r3, #4]
 332 00fe 009A     		ldr	r2, [sp]
 333 0100 0120     		movs	r0, #1
 334 0102 00FA02F2 		lsl	r2, r0, r2
 335 0106 D243     		mvns	r2, r2
 336 0108 1340     		ands	r3, r3, r2
 337 010a 4B60     		str	r3, [r1, #4]
 338 010c 8CE0     		b	.L14
 339              	.L21:
 340              		.loc 1 160 0
ARM GAS  /tmp/ccLvi7Z8.s 			page 7


 341 010e 4849     		ldr	r1, .L29+4
 342 0110 474B     		ldr	r3, .L29+4
 343 0112 5B68     		ldr	r3, [r3, #4]
 344 0114 009A     		ldr	r2, [sp]
 345 0116 0120     		movs	r0, #1
 346 0118 00FA02F2 		lsl	r2, r0, r2
 347 011c 1343     		orrs	r3, r3, r2
 348 011e 4B60     		str	r3, [r1, #4]
 349              		.loc 1 161 0
 350 0120 4349     		ldr	r1, .L29+4
 351 0122 434B     		ldr	r3, .L29+4
 352 0124 1B68     		ldr	r3, [r3]
 353 0126 009A     		ldr	r2, [sp]
 354 0128 0120     		movs	r0, #1
 355 012a 00FA02F2 		lsl	r2, r0, r2
 356 012e D243     		mvns	r2, r2
 357 0130 1340     		ands	r3, r3, r2
 358 0132 0B60     		str	r3, [r1]
 359 0134 78E0     		b	.L14
 360              	.L16:
 361              		.loc 1 167 0
 362 0136 019B     		ldr	r3, [sp, #4]
 363 0138 5B68     		ldr	r3, [r3, #4]
 364 013a 009A     		ldr	r2, [sp]
 365 013c 53F83230 		ldr	r3, [r3, r2, lsl #3]
 366 0140 03F00103 		and	r3, r3, #1
 367 0144 002B     		cmp	r3, #0
 368 0146 0BD0     		beq	.L24
 369              		.loc 1 168 0
 370 0148 3949     		ldr	r1, .L29+4
 371 014a 394B     		ldr	r3, .L29+4
 372 014c 9B6A     		ldr	r3, [r3, #40]
 373 014e 009A     		ldr	r2, [sp]
 374 0150 C2F12002 		rsb	r2, r2, #32
 375 0154 1046     		mov	r0, r2
 376 0156 0122     		movs	r2, #1
 377 0158 8240     		lsls	r2, r2, r0
 378 015a 1343     		orrs	r3, r3, r2
 379 015c 8B62     		str	r3, [r1, #40]
 380 015e 0BE0     		b	.L25
 381              	.L24:
 382              		.loc 1 170 0
 383 0160 3349     		ldr	r1, .L29+4
 384 0162 334B     		ldr	r3, .L29+4
 385 0164 9B6A     		ldr	r3, [r3, #40]
 386 0166 009A     		ldr	r2, [sp]
 387 0168 C2F12002 		rsb	r2, r2, #32
 388 016c 1046     		mov	r0, r2
 389 016e 0122     		movs	r2, #1
 390 0170 8240     		lsls	r2, r2, r0
 391 0172 D243     		mvns	r2, r2
 392 0174 1340     		ands	r3, r3, r2
 393 0176 8B62     		str	r3, [r1, #40]
 394              	.L25:
 395              		.loc 1 171 0
 396 0178 019B     		ldr	r3, [sp, #4]
 397 017a 5B68     		ldr	r3, [r3, #4]
ARM GAS  /tmp/ccLvi7Z8.s 			page 8


 398 017c 009A     		ldr	r2, [sp]
 399 017e 53F83230 		ldr	r3, [r3, r2, lsl #3]
 400 0182 03F00203 		and	r3, r3, #2
 401 0186 002B     		cmp	r3, #0
 402 0188 0BD0     		beq	.L26
 403              		.loc 1 172 0
 404 018a 2949     		ldr	r1, .L29+4
 405 018c 284B     		ldr	r3, .L29+4
 406 018e DB6A     		ldr	r3, [r3, #44]
 407 0190 009A     		ldr	r2, [sp]
 408 0192 C2F12002 		rsb	r2, r2, #32
 409 0196 1046     		mov	r0, r2
 410 0198 0122     		movs	r2, #1
 411 019a 8240     		lsls	r2, r2, r0
 412 019c 1343     		orrs	r3, r3, r2
 413 019e CB62     		str	r3, [r1, #44]
 414 01a0 0BE0     		b	.L27
 415              	.L26:
 416              		.loc 1 174 0
 417 01a2 2349     		ldr	r1, .L29+4
 418 01a4 224B     		ldr	r3, .L29+4
 419 01a6 DB6A     		ldr	r3, [r3, #44]
 420 01a8 009A     		ldr	r2, [sp]
 421 01aa C2F12002 		rsb	r2, r2, #32
 422 01ae 1046     		mov	r0, r2
 423 01b0 0122     		movs	r2, #1
 424 01b2 8240     		lsls	r2, r2, r0
 425 01b4 D243     		mvns	r2, r2
 426 01b6 1340     		ands	r3, r3, r2
 427 01b8 CB62     		str	r3, [r1, #44]
 428              	.L27:
 429              		.loc 1 177 0
 430 01ba 019B     		ldr	r3, [sp, #4]
 431 01bc 5A68     		ldr	r2, [r3, #4]
 432 01be 009B     		ldr	r3, [sp]
 433 01c0 DB00     		lsls	r3, r3, #3
 434 01c2 1344     		add	r3, r3, r2
 435 01c4 5B68     		ldr	r3, [r3, #4]
 436 01c6 002B     		cmp	r3, #0
 437 01c8 17D0     		beq	.L28
 438              		.loc 1 178 0
 439 01ca 1949     		ldr	r1, .L29+4
 440 01cc 184B     		ldr	r3, .L29+4
 441 01ce 1B6A     		ldr	r3, [r3, #32]
 442 01d0 009A     		ldr	r2, [sp]
 443 01d2 C2F12002 		rsb	r2, r2, #32
 444 01d6 1046     		mov	r0, r2
 445 01d8 0122     		movs	r2, #1
 446 01da 8240     		lsls	r2, r2, r0
 447 01dc 1343     		orrs	r3, r3, r2
 448 01de 0B62     		str	r3, [r1, #32]
 449              		.loc 1 179 0
 450 01e0 1349     		ldr	r1, .L29+4
 451 01e2 134B     		ldr	r3, .L29+4
 452 01e4 5B6A     		ldr	r3, [r3, #36]
 453 01e6 009A     		ldr	r2, [sp]
 454 01e8 C2F12002 		rsb	r2, r2, #32
ARM GAS  /tmp/ccLvi7Z8.s 			page 9


 455 01ec 1046     		mov	r0, r2
 456 01ee 0122     		movs	r2, #1
 457 01f0 8240     		lsls	r2, r2, r0
 458 01f2 D243     		mvns	r2, r2
 459 01f4 1340     		ands	r3, r3, r2
 460 01f6 4B62     		str	r3, [r1, #36]
 461 01f8 16E0     		b	.L14
 462              	.L28:
 463              		.loc 1 182 0
 464 01fa 0D49     		ldr	r1, .L29+4
 465 01fc 0C4B     		ldr	r3, .L29+4
 466 01fe 5B6A     		ldr	r3, [r3, #36]
 467 0200 009A     		ldr	r2, [sp]
 468 0202 C2F12002 		rsb	r2, r2, #32
 469 0206 1046     		mov	r0, r2
 470 0208 0122     		movs	r2, #1
 471 020a 8240     		lsls	r2, r2, r0
 472 020c 1343     		orrs	r3, r3, r2
 473 020e 4B62     		str	r3, [r1, #36]
 474              		.loc 1 183 0
 475 0210 0749     		ldr	r1, .L29+4
 476 0212 074B     		ldr	r3, .L29+4
 477 0214 1B6A     		ldr	r3, [r3, #32]
 478 0216 009A     		ldr	r2, [sp]
 479 0218 C2F12002 		rsb	r2, r2, #32
 480 021c 1046     		mov	r0, r2
 481 021e 0122     		movs	r2, #1
 482 0220 8240     		lsls	r2, r2, r0
 483 0222 D243     		mvns	r2, r2
 484 0224 1340     		ands	r3, r3, r2
 485 0226 0B62     		str	r3, [r1, #32]
 486              	.L14:
 487              		.loc 1 187 0
 488 0228 06B0     		add	sp, sp, #24
 489              		.cfi_def_cfa_offset 0
 490              		@ sp needed
 491 022a 7047     		bx	lr
 492              	.L30:
 493              		.align	2
 494              	.L29:
 495 022c 00000140 		.word	1073807360
 496 0230 00040140 		.word	1073808384
 497              		.cfi_endproc
 498              	.LFE121:
 499              		.size	ext_lld_channel_enable, .-ext_lld_channel_enable
 500 0234 AFF30080 		.section	.text.ext_lld_channel_disable,"ax",%progbits
 500      AFF30080 
 500      AFF30080 
 501              		.align	2
 502              		.p2align 4,,15
 503              		.global	ext_lld_channel_disable
 504              		.thumb
 505              		.thumb_func
 506              		.type	ext_lld_channel_disable, %function
 507              	ext_lld_channel_disable:
 508              	.LFB122:
 509              		.loc 1 197 0
ARM GAS  /tmp/ccLvi7Z8.s 			page 10


 510              		.cfi_startproc
 511              		@ args = 0, pretend = 0, frame = 8
 512              		@ frame_needed = 0, uses_anonymous_args = 0
 513              		@ link register save eliminated.
 514 0000 82B0     		sub	sp, sp, #8
 515              		.cfi_def_cfa_offset 8
 516 0002 0190     		str	r0, [sp, #4]
 517 0004 0091     		str	r1, [sp]
 518              		.loc 1 202 0
 519 0006 009B     		ldr	r3, [sp]
 520 0008 1F2B     		cmp	r3, #31
 521 000a 2ED8     		bhi	.L32
 522              		.loc 1 204 0
 523 000c 3449     		ldr	r1, .L34
 524 000e 344B     		ldr	r3, .L34
 525 0010 1B68     		ldr	r3, [r3]
 526 0012 009A     		ldr	r2, [sp]
 527 0014 0120     		movs	r0, #1
 528 0016 00FA02F2 		lsl	r2, r0, r2
 529 001a D243     		mvns	r2, r2
 530 001c 1340     		ands	r3, r3, r2
 531 001e 0B60     		str	r3, [r1]
 532              		.loc 1 205 0
 533 0020 2F49     		ldr	r1, .L34
 534 0022 2F4B     		ldr	r3, .L34
 535 0024 5B68     		ldr	r3, [r3, #4]
 536 0026 009A     		ldr	r2, [sp]
 537 0028 0120     		movs	r0, #1
 538 002a 00FA02F2 		lsl	r2, r0, r2
 539 002e D243     		mvns	r2, r2
 540 0030 1340     		ands	r3, r3, r2
 541 0032 4B60     		str	r3, [r1, #4]
 542              		.loc 1 206 0
 543 0034 2A49     		ldr	r1, .L34
 544 0036 2A4B     		ldr	r3, .L34
 545 0038 9B68     		ldr	r3, [r3, #8]
 546 003a 009A     		ldr	r2, [sp]
 547 003c 0120     		movs	r0, #1
 548 003e 00FA02F2 		lsl	r2, r0, r2
 549 0042 D243     		mvns	r2, r2
 550 0044 1340     		ands	r3, r3, r2
 551 0046 8B60     		str	r3, [r1, #8]
 552              		.loc 1 207 0
 553 0048 2549     		ldr	r1, .L34
 554 004a 254B     		ldr	r3, .L34
 555 004c DB68     		ldr	r3, [r3, #12]
 556 004e 009A     		ldr	r2, [sp]
 557 0050 0120     		movs	r0, #1
 558 0052 00FA02F2 		lsl	r2, r0, r2
 559 0056 D243     		mvns	r2, r2
 560 0058 1340     		ands	r3, r3, r2
 561 005a CB60     		str	r3, [r1, #12]
 562              		.loc 1 208 0
 563 005c 204A     		ldr	r2, .L34
 564 005e 009B     		ldr	r3, [sp]
 565 0060 0121     		movs	r1, #1
 566 0062 01FA03F3 		lsl	r3, r1, r3
ARM GAS  /tmp/ccLvi7Z8.s 			page 11


 567 0066 5361     		str	r3, [r2, #20]
 568 0068 37E0     		b	.L31
 569              	.L32:
 570              		.loc 1 212 0
 571 006a 1D49     		ldr	r1, .L34
 572 006c 1C4B     		ldr	r3, .L34
 573 006e 1B6A     		ldr	r3, [r3, #32]
 574 0070 009A     		ldr	r2, [sp]
 575 0072 C2F12002 		rsb	r2, r2, #32
 576 0076 1046     		mov	r0, r2
 577 0078 0122     		movs	r2, #1
 578 007a 8240     		lsls	r2, r2, r0
 579 007c D243     		mvns	r2, r2
 580 007e 1340     		ands	r3, r3, r2
 581 0080 0B62     		str	r3, [r1, #32]
 582              		.loc 1 213 0
 583 0082 1749     		ldr	r1, .L34
 584 0084 164B     		ldr	r3, .L34
 585 0086 5B6A     		ldr	r3, [r3, #36]
 586 0088 009A     		ldr	r2, [sp]
 587 008a C2F12002 		rsb	r2, r2, #32
 588 008e 1046     		mov	r0, r2
 589 0090 0122     		movs	r2, #1
 590 0092 8240     		lsls	r2, r2, r0
 591 0094 D243     		mvns	r2, r2
 592 0096 1340     		ands	r3, r3, r2
 593 0098 4B62     		str	r3, [r1, #36]
 594              		.loc 1 214 0
 595 009a 1149     		ldr	r1, .L34
 596 009c 104B     		ldr	r3, .L34
 597 009e 9B6A     		ldr	r3, [r3, #40]
 598 00a0 009A     		ldr	r2, [sp]
 599 00a2 C2F12002 		rsb	r2, r2, #32
 600 00a6 1046     		mov	r0, r2
 601 00a8 0122     		movs	r2, #1
 602 00aa 8240     		lsls	r2, r2, r0
 603 00ac D243     		mvns	r2, r2
 604 00ae 1340     		ands	r3, r3, r2
 605 00b0 8B62     		str	r3, [r1, #40]
 606              		.loc 1 215 0
 607 00b2 0B49     		ldr	r1, .L34
 608 00b4 0A4B     		ldr	r3, .L34
 609 00b6 DB6A     		ldr	r3, [r3, #44]
 610 00b8 009A     		ldr	r2, [sp]
 611 00ba C2F12002 		rsb	r2, r2, #32
 612 00be 1046     		mov	r0, r2
 613 00c0 0122     		movs	r2, #1
 614 00c2 8240     		lsls	r2, r2, r0
 615 00c4 D243     		mvns	r2, r2
 616 00c6 1340     		ands	r3, r3, r2
 617 00c8 CB62     		str	r3, [r1, #44]
 618              		.loc 1 216 0
 619 00ca 054A     		ldr	r2, .L34
 620 00cc 009B     		ldr	r3, [sp]
 621 00ce C3F12003 		rsb	r3, r3, #32
 622 00d2 1946     		mov	r1, r3
 623 00d4 0123     		movs	r3, #1
ARM GAS  /tmp/ccLvi7Z8.s 			page 12


 624 00d6 8B40     		lsls	r3, r3, r1
 625 00d8 5363     		str	r3, [r2, #52]
 626              	.L31:
 627              		.loc 1 219 0
 628 00da 02B0     		add	sp, sp, #8
 629              		.cfi_def_cfa_offset 0
 630              		@ sp needed
 631 00dc 7047     		bx	lr
 632              	.L35:
 633 00de 00BF     		.align	2
 634              	.L34:
 635 00e0 00040140 		.word	1073808384
 636              		.cfi_endproc
 637              	.LFE122:
 638              		.size	ext_lld_channel_disable, .-ext_lld_channel_disable
 639 00e4 AFF30080 		.text
 639      AFF30080 
 639      AFF30080 
 640              	.Letext0:
 641              		.file 2 "/home/denny/r2p-sdk/tools/gcc-arm-none-eabi-4_9-2014q4/arm-none-eabi/include/machine/_def
 642              		.file 3 "/home/denny/r2p-sdk/tools/gcc-arm-none-eabi-4_9-2014q4/arm-none-eabi/include/stdint.h"
 643              		.file 4 "/home/denny/r2p-sdk/core/ChibiOS/os/hal/platforms/STM32F30x/stm32f30x.h"
 644              		.file 5 "/home/denny/r2p-sdk/core/ChibiOS/os/hal/include/ext.h"
 645              		.file 6 "/home/denny/r2p-sdk/core/ChibiOS/os/hal/platforms/STM32/ext_lld.h"
 646              		.file 7 "/home/denny/r2p-sdk/core/ChibiOS/os/ports/common/ARMCMx/CMSIS/include/core_cm4.h"