ARM GAS  /tmp/ccLvi7Z8.s 			page 1


   1              		.syntax unified
   2              		.cpu cortex-m4
   3              		.eabi_attribute 27, 3
   4              		.eabi_attribute 28, 1
   5              		.fpu fpv4-sp-d16
   6              		.eabi_attribute 20, 1
   7              		.eabi_attribute 21, 1
   8              		.eabi_attribute 23, 3
   9              		.eabi_attribute 24, 1
  10              		.eabi_attribute 25, 1
  11              		.eabi_attribute 26, 1
  12              		.eabi_attribute 30, 6
  13              		.eabi_attribute 34, 1
  14              		.eabi_attribute 18, 4
  15              		.thumb
  16              		.file	"ext_lld.c"
  17              		.text
  18              	.Ltext0:
  19              		.cfi_sections	.debug_frame
  20              		.global	EXTD1
  21              		.section	.bss.EXTD1,"aw",%nobits
  22              		.align	2
  23              		.type	EXTD1, %object
  24              		.size	EXTD1, 8
  25              	EXTD1:
  26 0000 00000000 		.space	8
  26      00000000 
  27              		.section	.text.ext_lld_init,"ax",%progbits
  28              		.align	2
  29              		.p2align 4,,15
  30              		.global	ext_lld_init
  31              		.thumb
  32              		.thumb_func
  33              		.type	ext_lld_init, %function
  34              	ext_lld_init:
  35              	.LFB118:
  36              		.file 1 "/home/denny/r2p-sdk/core/ChibiOS/os/hal/platforms/STM32/ext_lld.c"
  37              		.loc 1 66 0
  38              		.cfi_startproc
  39              		@ args = 0, pretend = 0, frame = 0
  40              		@ frame_needed = 0, uses_anonymous_args = 0
  41 0000 08B5     		push	{r3, lr}
  42              		.cfi_def_cfa_offset 8
  43              		.cfi_offset 3, -8
  44              		.cfi_offset 14, -4
  45              		.loc 1 69 0
  46 0002 0248     		ldr	r0, .L2
  47 0004 FFF7FEFF 		bl	extObjectInit
  48              		.loc 1 70 0
  49 0008 08BD     		pop	{r3, pc}
  50              	.L3:
  51 000a 00BF     		.align	2
  52              	.L2:
  53 000c 00000000 		.word	EXTD1
  54              		.cfi_endproc
  55              	.LFE118:
  56              		.size	ext_lld_init, .-ext_lld_init
ARM GAS  /tmp/ccLvi7Z8.s 			page 2


  57              		.section	.text.ext_lld_start,"ax",%progbits
  58              		.align	2
  59              		.p2align 4,,15
  60              		.global	ext_lld_start
  61              		.thumb
  62              		.thumb_func
  63              		.type	ext_lld_start, %function
  64              	ext_lld_start:
  65              	.LFB119:
  66              		.loc 1 79 0
  67              		.cfi_startproc
  68              		@ args = 0, pretend = 0, frame = 16
  69              		@ frame_needed = 0, uses_anonymous_args = 0
  70 0000 00B5     		push	{lr}
  71              		.cfi_def_cfa_offset 4
  72              		.cfi_offset 14, -4
  73 0002 85B0     		sub	sp, sp, #20
  74              		.cfi_def_cfa_offset 24
  75 0004 0190     		str	r0, [sp, #4]
  76              		.loc 1 82 0
  77 0006 019B     		ldr	r3, [sp, #4]
  78 0008 1B78     		ldrb	r3, [r3]	@ zero_extendqisi2
  79 000a 012B     		cmp	r3, #1
  80 000c 01D1     		bne	.L5
  81              		.loc 1 83 0
  82 000e FFF7FEFF 		bl	ext_lld_exti_irq_enable
  83              	.L5:
  84              		.loc 1 86 0
  85 0012 0023     		movs	r3, #0
  86 0014 0393     		str	r3, [sp, #12]
  87 0016 14E0     		b	.L6
  88              	.L9:
  89              		.loc 1 87 0
  90 0018 019B     		ldr	r3, [sp, #4]
  91 001a 5B68     		ldr	r3, [r3, #4]
  92 001c 039A     		ldr	r2, [sp, #12]
  93 001e 53F83230 		ldr	r3, [r3, r2, lsl #3]
  94 0022 03F00403 		and	r3, r3, #4
  95 0026 002B     		cmp	r3, #0
  96 0028 04D0     		beq	.L7
  97              		.loc 1 88 0
  98 002a 0198     		ldr	r0, [sp, #4]
  99 002c 0399     		ldr	r1, [sp, #12]
 100 002e FFF7FEFF 		bl	ext_lld_channel_enable
 101 0032 03E0     		b	.L8
 102              	.L7:
 103              		.loc 1 90 0
 104 0034 0198     		ldr	r0, [sp, #4]
 105 0036 0399     		ldr	r1, [sp, #12]
 106 0038 FFF7FEFF 		bl	ext_lld_channel_disable
 107              	.L8:
 108              		.loc 1 86 0 discriminator 2
 109 003c 039B     		ldr	r3, [sp, #12]
 110 003e 0133     		adds	r3, r3, #1
 111 0040 0393     		str	r3, [sp, #12]
 112              	.L6:
 113              		.loc 1 86 0 is_stmt 0 discriminator 1
ARM GAS  /tmp/ccLvi7Z8.s 			page 3


 114 0042 039B     		ldr	r3, [sp, #12]
 115 0044 212B     		cmp	r3, #33
 116 0046 E7D9     		bls	.L9
 117              		.loc 1 91 0 is_stmt 1
 118 0048 05B0     		add	sp, sp, #20
 119              		.cfi_def_cfa_offset 4
 120              		@ sp needed
 121 004a 5DF804FB 		ldr	pc, [sp], #4
 122              		.cfi_endproc
 123              	.LFE119:
 124              		.size	ext_lld_start, .-ext_lld_start
 125 004e 00BF     		.section	.text.ext_lld_stop,"ax",%progbits
 126              		.align	2
 127              		.p2align 4,,15
 128              		.global	ext_lld_stop
 129              		.thumb
 130              		.thumb_func
 131              		.type	ext_lld_stop, %function
 132              	ext_lld_stop:
 133              	.LFB120:
 134              		.loc 1 100 0
 135              		.cfi_startproc
 136              		@ args = 0, pretend = 0, frame = 8
 137              		@ frame_needed = 0, uses_anonymous_args = 0
 138 0000 00B5     		push	{lr}
 139              		.cfi_def_cfa_offset 4
 140              		.cfi_offset 14, -4
 141 0002 83B0     		sub	sp, sp, #12
 142              		.cfi_def_cfa_offset 16
 143 0004 0190     		str	r0, [sp, #4]
 144              		.loc 1 102 0
 145 0006 019B     		ldr	r3, [sp, #4]
 146 0008 1B78     		ldrb	r3, [r3]	@ zero_extendqisi2
 147 000a 022B     		cmp	r3, #2
 148 000c 01D1     		bne	.L11
 149              		.loc 1 103 0
 150 000e FFF7FEFF 		bl	ext_lld_exti_irq_disable
 151              	.L11:
 152              		.loc 1 105 0
 153 0012 084B     		ldr	r3, .L12
 154 0014 0022     		movs	r2, #0
 155 0016 5A60     		str	r2, [r3, #4]
 156              		.loc 1 106 0
 157 0018 064B     		ldr	r3, .L12
 158 001a 0022     		movs	r2, #0
 159 001c 1A60     		str	r2, [r3]
 160              		.loc 1 107 0
 161 001e 054B     		ldr	r3, .L12
 162 0020 4FF0FF32 		mov	r2, #-1
 163 0024 5A61     		str	r2, [r3, #20]
 164              		.loc 1 109 0
 165 0026 034B     		ldr	r3, .L12
 166 0028 4FF0FF32 		mov	r2, #-1
 167 002c 5A63     		str	r2, [r3, #52]
 168              		.loc 1 111 0
 169 002e 03B0     		add	sp, sp, #12
 170              		.cfi_def_cfa_offset 4
ARM GAS  /tmp/ccLvi7Z8.s 			page 4


 171              		@ sp needed
 172 0030 5DF804FB 		ldr	pc, [sp], #4
 173              	.L13:
 174              		.align	2
 175              	.L12:
 176 0034 00040140 		.word	1073808384
 177              		.cfi_endproc
 178              	.LFE120:
 179              		.size	ext_lld_stop, .-ext_lld_stop
 180 0038 AFF30080 		.section	.text.ext_lld_channel_enable,"ax",%progbits
 180      AFF30080 
 181              		.align	2
 182              		.p2align 4,,15
 183              		.global	ext_lld_channel_enable
 184              		.thumb
 185              		.thumb_func
 186              		.type	ext_lld_channel_enable, %function
 187              	ext_lld_channel_enable:
 188              	.LFB121:
 189              		.loc 1 121 0
 190              		.cfi_startproc
 191              		@ args = 0, pretend = 0, frame = 24
 192              		@ frame_needed = 0, uses_anonymous_args = 0
 193              		@ link register save eliminated.
 194 0000 86B0     		sub	sp, sp, #24
 195              		.cfi_def_cfa_offset 24
 196 0002 0190     		str	r0, [sp, #4]
 197 0004 0091     		str	r1, [sp]
 198              		.loc 1 124 0
 199 0006 009B     		ldr	r3, [sp]
 200 0008 0F2B     		cmp	r3, #15
 201 000a 27D8     		bhi	.L15
 202              	.LBB2:
 203              		.loc 1 125 0
 204 000c 009B     		ldr	r3, [sp]
 205 000e 9B08     		lsrs	r3, r3, #2
 206 0010 0593     		str	r3, [sp, #20]
 207              		.loc 1 126 0
 208 0012 009B     		ldr	r3, [sp]
 209 0014 03F00303 		and	r3, r3, #3
 210 0018 9B00     		lsls	r3, r3, #2
 211 001a 1A46     		mov	r2, r3
 212 001c 0F23     		movs	r3, #15
 213 001e 9340     		lsls	r3, r3, r2
 214 0020 DB43     		mvns	r3, r3
 215 0022 0493     		str	r3, [sp, #16]
 216              		.loc 1 127 0
 217 0024 019B     		ldr	r3, [sp, #4]
 218 0026 5B68     		ldr	r3, [r3, #4]
 219 0028 009A     		ldr	r2, [sp]
 220 002a 53F83230 		ldr	r3, [r3, r2, lsl #3]
 221 002e 03F0F003 		and	r3, r3, #240
 222              		.loc 1 128 0
 223 0032 1B09     		lsrs	r3, r3, #4
 224              		.loc 1 129 0
 225 0034 009A     		ldr	r2, [sp]
 226 0036 02F00302 		and	r2, r2, #3
ARM GAS  /tmp/ccLvi7Z8.s 			page 5


 227 003a 9200     		lsls	r2, r2, #2
 228              		.loc 1 127 0
 229 003c 9340     		lsls	r3, r3, r2
 230 003e 0393     		str	r3, [sp, #12]
 231              		.loc 1 137 0
 232 0040 7A49     		ldr	r1, .L29
 233 0042 7A4A     		ldr	r2, .L29
 234 0044 059B     		ldr	r3, [sp, #20]
 235 0046 0233     		adds	r3, r3, #2
 236 0048 52F82320 		ldr	r2, [r2, r3, lsl #2]
 237 004c 049B     		ldr	r3, [sp, #16]
 238 004e 1A40     		ands	r2, r2, r3
 239 0050 039B     		ldr	r3, [sp, #12]
 240 0052 1A43     		orrs	r2, r2, r3
 241 0054 059B     		ldr	r3, [sp, #20]
 242 0056 0233     		adds	r3, r3, #2
 243 0058 41F82320 		str	r2, [r1, r3, lsl #2]
 244              	.L15:
 245              	.LBE2:
 246              		.loc 1 142 0
 247 005c 009B     		ldr	r3, [sp]
 248 005e 1F2B     		cmp	r3, #31
 249 0060 69D8     		bhi	.L16
 250              		.loc 1 145 0
 251 0062 019B     		ldr	r3, [sp, #4]
 252 0064 5B68     		ldr	r3, [r3, #4]
 253 0066 009A     		ldr	r2, [sp]
 254 0068 53F83230 		ldr	r3, [r3, r2, lsl #3]
 255 006c 03F00103 		and	r3, r3, #1
 256 0070 002B     		cmp	r3, #0
 257 0072 09D0     		beq	.L17
 258              		.loc 1 146 0
 259 0074 6E49     		ldr	r1, .L29+4
 260 0076 6E4B     		ldr	r3, .L29+4
 261 0078 9B68     		ldr	r3, [r3, #8]
 262 007a 009A     		ldr	r2, [sp]
 263 007c 0120     		movs	r0, #1
 264 007e 00FA02F2 		lsl	r2, r0, r2
 265 0082 1343     		orrs	r3, r3, r2
 266 0084 8B60     		str	r3, [r1, #8]
 267 0086 09E0     		b	.L18
 268              	.L17:
 269              		.loc 1 148 0
 270 0088 6949     		ldr	r1, .L29+4
 271 008a 694B     		ldr	r3, .L29+4
 272 008c 9B68     		ldr	r3, [r3, #8]
 273 008e 009A     		ldr	r2, [sp]
 274 0090 0120     		movs	r0, #1
 275 0092 00FA02F2 		lsl	r2, r0, r2
 276 0096 D243     		mvns	r2, r2
 277 0098 1340     		ands	r3, r3, r2
 278 009a 8B60     		str	r3, [r1, #8]
 279              	.L18:
 280              		.loc 1 149 0
 281 009c 019B     		ldr	r3, [sp, #4]
 282 009e 5B68     		ldr	r3, [r3, #4]
 283 00a0 009A     		ldr	r2, [sp]
ARM GAS  /tmp/ccLvi7Z8.s 			page 6


 284 00a2 53F83230 		ldr	r3, [r3, r2, lsl #3]
 285 00a6 03F00203 		and	r3, r3, #2
 286 00aa 002B     		cmp	r3, #0
 287 00ac 09D0     		beq	.L19
 288              		.loc 1 150 0
 289 00ae 6049     		ldr	r1, .L29+4
 290 00b0 5F4B     		ldr	r3, .L29+4
 291 00b2 DB68     		ldr	r3, [r3, #12]
 292 00b4 009A     		ldr	r2, [sp]
 293 00b6 0120     		movs	r0, #1
 294 00b8 00FA02F2 		lsl	r2, r0, r2
 295 00bc 1343     		orrs	r3, r3, r2
 296 00be CB60     		str	r3, [r1, #12]
 297 00c0 09E0     		b	.L20
 298              	.L19:
 299              		.loc 1 152 0
 300 00c2 5B49     		ldr	r1, .L29+4
 301 00c4 5A4B     		ldr	r3, .L29+4
 302 00c6 DB68     		ldr	r3, [r3, #12]
 303 00c8 009A     		ldr	r2, [sp]
 304 00ca 0120     		movs	r0, #1
 305 00cc 00FA02F2 		lsl	r2, r0, r2
 306 00d0 D243     		mvns	r2, r2
 307 00d2 1340     		ands	r3, r3, r2
 308 00d4 CB60     		str	r3, [r1, #12]
 309              	.L20:
 310              		.loc 1 155 0
 311 00d6 019B     		ldr	r3, [sp, #4]
 312 00d8 5A68     		ldr	r2, [r3, #4]
 313 00da 009B     		ldr	r3, [sp]
 314 00dc DB00     		lsls	r3, r3, #3
 315 00de 1344     		add	r3, r3, r2
 316 00e0 5B68     		ldr	r3, [r3, #4]
 317 00e2 002B     		cmp	r3, #0
 318 00e4 13D0     		beq	.L21
 319              		.loc 1 156 0
 320 00e6 5249     		ldr	r1, .L29+4
 321 00e8 514B     		ldr	r3, .L29+4
 322 00ea 1B68     		ldr	r3, [r3]
 323 00ec 009A     		ldr	r2, [sp]
 324 00ee 0120     		movs	r0, #1
 325 00f0 00FA02F2 		lsl	r2, r0, r2
 326 00f4 1343     		orrs	r3, r3, r2
 327 00f6 0B60     		str	r3, [r1]
 328              		.loc 1 157 0
 329 00f8 4D49     		ldr	r1, .L29+4
 330 00fa 4D4B     		ldr	r3, .L29+4
 331 00fc 5B68     		ldr	r3, [r3, #4]
 332 00fe 009A     		ldr	r2, [sp]
 333 0100 0120     		movs	r0, #1
 334 0102 00FA02F2 		lsl	r2, r0, r2
 335 0106 D243     		mvns	r2, r2
 336 0108 1340     		ands	r3, r3, r2
 337 010a 4B60     		str	r3, [r1, #4]
 338 010c 8CE0     		b	.L14
 339              	.L21:
 340              		.loc 1 160 0
ARM GAS  /tmp/ccLvi7Z8.s 			page 7


 341 010e 4849     		ldr	r1, .L29+4
 342 0110 474B     		ldr	r3, .L29+4
 343 0112 5B68     		ldr	r3, [r3, #4]
 344 0114 009A     		ldr	r2, [sp]
 345 0116 0120     		movs	r0, #1
 346 0118 00FA02F2 		lsl	r2, r0, r2
 347 011c 1343     		orrs	r3, r3, r2
 348 011e 4B60     		str	r3, [r1, #4]
 349              		.loc 1 161 0
 350 0120 4349     		ldr	r1, .L29+4
 351 0122 434B     		ldr	r3, .L29+4
 352 0124 1B68     		ldr	r3, [r3]
 353 0126 009A     		ldr	r2, [sp]
 354 0128 0120     		movs	r0, #1
 355 012a 00FA02F2 		lsl	r2, r0, r2
 356 012e D243     		mvns	r2, r2
 357 0130 1340     		ands	r3, r3, r2
 358 0132 0B60     		str	r3, [r1]
 359 0134 78E0     		b	.L14
 360              	.L16:
 361              		.loc 1 167 0
 362 0136 019B     		ldr	r3, [sp, #4]
 363 0138 5B68     		ldr	r3, [r3, #4]
 364 013a 009A     		ldr	r2, [sp]
 365 013c 53F83230 		ldr	r3, [r3, r2, lsl #3]
 366 0140 03F00103 		and	r3, r3, #1
 367 0144 002B     		cmp	r3, #0
 368 0146 0BD0     		beq	.L24
 369              		.loc 1 168 0
 370 0148 3949     		ldr	r1, .L29+4
 371 014a 394B     		ldr	r3, .L29+4
 372 014c 9B6A     		ldr	r3, [r3, #40]
 373 014e 009A     		ldr	r2, [sp]
 374 0150 C2F12002 		rsb	r2, r2, #32
 375 0154 1046     		mov	r0, r2
 376 0156 0122     		movs	r2, #1
 377 0158 8240     		lsls	r2, r2, r0
 378 015a 1343     		orrs	r3, r3, r2
 379 015c 8B62     		str	r3, [r1, #40]
 380 015e 0BE0     		b	.L25
 381              	.L24:
 382              		.loc 1 170 0
 383 0160 3349     		ldr	r1, .L29+4
 384 0162 334B     		ldr	r3, .L29+4
 385 0164 9B6A     		ldr	r3, [r3, #40]
 386 0166 009A     		ldr	r2, [sp]
 387 0168 C2F12002 		rsb	r2, r2, #32
 388 016c 1046     		mov	r0, r2
 389 016e 0122     		movs	r2, #1
 390 0170 8240     		lsls	r2, r2, r0
 391 0172 D243     		mvns	r2, r2
 392 0174 1340     		ands	r3, r3, r2
 393 0176 8B62     		str	r3, [r1, #40]
 394              	.L25:
 395              		.loc 1 171 0
 396 0178 019B     		ldr	r3, [sp, #4]
 397 017a 5B68     		ldr	r3, [r3, #4]
ARM GAS  /tmp/ccLvi7Z8.s 			page 8


 398 017c 009A     		ldr	r2, [sp]
 399 017e 53F83230 		ldr	r3, [r3, r2, lsl #3]
 400 0182 03F00203 		and	r3, r3, #2
 401 0186 002B     		cmp	r3, #0
 402 0188 0BD0     		beq	.L26
 403              		.loc 1 172 0
 404 018a 2949     		ldr	r1, .L29+4
 405 018c 284B     		ldr	r3, .L29+4
 406 018e DB6A     		ldr	r3, [r3, #44]
 407 0190 009A     		ldr	r2, [sp]
 408 0192 C2F12002 		rsb	r2, r2, #32
 409 0196 1046     		mov	r0, r2
 410 0198 0122     		movs	r2, #1
 411 019a 8240     		lsls	r2, r2, r0
 412 019c 1343     		orrs	r3, r3, r2
 413 019e CB62     		str	r3, [r1, #44]
 414 01a0 0BE0     		b	.L27
 415              	.L26:
 416              		.loc 1 174 0
 417 01a2 2349     		ldr	r1, .L29+4
 418 01a4 224B     		ldr	r3, .L29+4
 419 01a6 DB6A     		ldr	r3, [r3, #44]
 420 01a8 009A     		ldr	r2, [sp]
 421 01aa C2F12002 		rsb	r2, r2, #32
 422 01ae 1046     		mov	r0, r2
 423 01b0 0122     		movs	r2, #1
 424 01b2 8240     		lsls	r2, r2, r0
 425 01b4 D243     		mvns	r2, r2
 426 01b6 1340     		ands	r3, r3, r2
 427 01b8 CB62     		str	r3, [r1, #44]
 428              	.L27:
 429              		.loc 1 177 0
 430 01ba 019B     		ldr	r3, [sp, #4]
 431 01bc 5A68     		ldr	r2, [r3, #4]
 432 01be 009B     		ldr	r3, [sp]
 433 01c0 DB00     		lsls	r3, r3, #3
 434 01c2 1344     		add	r3, r3, r2
 435 01c4 5B68     		ldr	r3, [r3, #4]
 436 01c6 002B     		cmp	r3, #0
 437 01c8 17D0     		beq	.L28
 438              		.loc 1 178 0
 439 01ca 1949     		ldr	r1, .L29+4
 440 01cc 184B     		ldr	r3, .L29+4
 441 01ce 1B6A     		ldr	r3, [r3, #32]
 442 01d0 009A     		ldr	r2, [sp]
 443 01d2 C2F12002 		rsb	r2, r2, #32
 444 01d6 1046     		mov	r0, r2
 445 01d8 0122     		movs	r2, #1
 446 01da 8240     		lsls	r2, r2, r0
 447 01dc 1343     		orrs	r3, r3, r2
 448 01de 0B62     		str	r3, [r1, #32]
 449              		.loc 1 179 0
 450 01e0 1349     		ldr	r1, .L29+4
 451 01e2 134B     		ldr	r3, .L29+4
 452 01e4 5B6A     		ldr	r3, [r3, #36]
 453 01e6 009A     		ldr	r2, [sp]
 454 01e8 C2F12002 		rsb	r2, r2, #32
ARM GAS  /tmp/ccLvi7Z8.s 			page 9


 455 01ec 1046     		mov	r0, r2
 456 01ee 0122     		movs	r2, #1
 457 01f0 8240     		lsls	r2, r2, r0
 458 01f2 D243     		mvns	r2, r2
 459 01f4 1340     		ands	r3, r3, r2
 460 01f6 4B62     		str	r3, [r1, #36]
 461 01f8 16E0     		b	.L14
 462              	.L28:
 463              		.loc 1 182 0
 464 01fa 0D49     		ldr	r1, .L29+4
 465 01fc 0C4B     		ldr	r3, .L29+4
 466 01fe 5B6A     		ldr	r3, [r3, #36]
 467 0200 009A     		ldr	r2, [sp]
 468 0202 C2F12002 		rsb	r2, r2, #32
 469 0206 1046     		mov	r0, r2
 470 0208 0122     		movs	r2, #1
 471 020a 8240     		lsls	r2, r2, r0
 472 020c 1343     		orrs	r3, r3, r2
 473 020e 4B62     		str	r3, [r1, #36]
 474              		.loc 1 183 0
 475 0210 0749     		ldr	r1, .L29+4
 476 0212 074B     		ldr	r3, .L29+4
 477 0214 1B6A     		ldr	r3, [r3, #32]
 478 0216 009A     		ldr	r2, [sp]
 479 0218 C2F12002 		rsb	r2, r2, #32
 480 021c 1046     		mov	r0, r2
 481 021e 0122     		movs	r2, #1
 482 0220 8240     		lsls	r2, r2, r0
 483 0222 D243     		mvns	r2, r2
 484 0224 1340     		ands	r3, r3, r2
 485 0226 0B62     		str	r3, [r1, #32]
 486              	.L14:
 487              		.loc 1 187 0
 488 0228 06B0     		add	sp, sp, #24
 489              		.cfi_def_cfa_offset 0
 490              		@ sp needed
 491 022a 7047     		bx	lr
 492              	.L30:
 493              		.align	2
 494              	.L29:
 495 022c 00000140 		.word	1073807360
 496 0230 00040140 		.word	1073808384
 497              		.cfi_endproc
 498              	.LFE121:
 499              		.size	ext_lld_channel_enable, .-ext_lld_channel_enable
 500 0234 AFF30080 		.section	.text.ext_lld_channel_disable,"ax",%progbits
 500      AFF30080 
 500      AFF30080 
 501              		.align	2
 502              		.p2align 4,,15
 503              		.global	ext_lld_channel_disable
 504              		.thumb
 505              		.thumb_func
 506              		.type	ext_lld_channel_disable, %function
 507              	ext_lld_channel_disable:
 508              	.LFB122:
 509              		.loc 1 197 0
ARM GAS  /tmp/ccLvi7Z8.s 			page 10


 510              		.cfi_startproc
 511              		@ args = 0, pretend = 0, frame = 8
 512              		@ frame_needed = 0, uses_anonymous_args = 0
 513              		@ link register save eliminated.
 514 0000 82B0     		sub	sp, sp, #8
 515              		.cfi_def_cfa_offset 8
 516 0002 0190     		str	r0, [sp, #4]
 517 0004 0091     		str	r1, [sp]
 518              		.loc 1 202 0
 519 0006 009B     		ldr	r3, [sp]
 520 0008 1F2B     		cmp	r3, #31
 521 000a 2ED8     		bhi	.L32
 522              		.loc 1 204 0
 523 000c 3449     		ldr	r1, .L34
 524 000e 344B     		ldr	r3, .L34
 525 0010 1B68     		ldr	r3, [r3]
 526 0012 009A     		ldr	r2, [sp]
 527 0014 0120     		movs	r0, #1
 528 0016 00FA02F2 		lsl	r2, r0, r2
 529 001a D243     		mvns	r2, r2
 530 001c 1340     		ands	r3, r3, r2
 531 001e 0B60     		str	r3, [r1]
 532              		.loc 1 205 0
 533 0020 2F49     		ldr	r1, .L34
 534 0022 2F4B     		ldr	r3, .L34
 535 0024 5B68     		ldr	r3, [r3, #4]
 536 0026 009A     		ldr	r2, [sp]
 537 0028 0120     		movs	r0, #1
 538 002a 00FA02F2 		lsl	r2, r0, r2
 539 002e D243     		mvns	r2, r2
 540 0030 1340     		ands	r3, r3, r2
 541 0032 4B60     		str	r3, [r1, #4]
 542              		.loc 1 206 0
 543 0034 2A49     		ldr	r1, .L34
 544 0036 2A4B     		ldr	r3, .L34
 545 0038 9B68     		ldr	r3, [r3, #8]
 546 003a 009A     		ldr	r2, [sp]
 547 003c 0120     		movs	r0, #1
 548 003e 00FA02F2 		lsl	r2, r0, r2
 549 0042 D243     		mvns	r2, r2
 550 0044 1340     		ands	r3, r3, r2
 551 0046 8B60     		str	r3, [r1, #8]
 552              		.loc 1 207 0
 553 0048 2549     		ldr	r1, .L34
 554 004a 254B     		ldr	r3, .L34
 555 004c DB68     		ldr	r3, [r3, #12]
 556 004e 009A     		ldr	r2, [sp]
 557 0050 0120     		movs	r0, #1
 558 0052 00FA02F2 		lsl	r2, r0, r2
 559 0056 D243     		mvns	r2, r2
 560 0058 1340     		ands	r3, r3, r2
 561 005a CB60     		str	r3, [r1, #12]
 562              		.loc 1 208 0
 563 005c 204A     		ldr	r2, .L34
 564 005e 009B     		ldr	r3, [sp]
 565 0060 0121     		movs	r1, #1
 566 0062 01FA03F3 		lsl	r3, r1, r3
ARM GAS  /tmp/ccLvi7Z8.s 			page 11


 567 0066 5361     		str	r3, [r2, #20]
 568 0068 37E0     		b	.L31
 569              	.L32:
 570              		.loc 1 212 0
 571 006a 1D49     		ldr	r1, .L34
 572 006c 1C4B     		ldr	r3, .L34
 573 006e 1B6A     		ldr	r3, [r3, #32]
 574 0070 009A     		ldr	r2, [sp]
 575 0072 C2F12002 		rsb	r2, r2, #32
 576 0076 1046     		mov	r0, r2
 577 0078 0122     		movs	r2, #1
 578 007a 8240     		lsls	r2, r2, r0
 579 007c D243     		mvns	r2, r2
 580 007e 1340     		ands	r3, r3, r2
 581 0080 0B62     		str	r3, [r1, #32]
 582              		.loc 1 213 0
 583 0082 1749     		ldr	r1, .L34
 584 0084 164B     		ldr	r3, .L34
 585 0086 5B6A     		ldr	r3, [r3, #36]
 586 0088 009A     		ldr	r2, [sp]
 587 008a C2F12002 		rsb	r2, r2, #32
 588 008e 1046     		mov	r0, r2
 589 0090 0122     		movs	r2, #1
 590 0092 8240     		lsls	r2, r2, r0
 591 0094 D243     		mvns	r2, r2
 592 0096 1340     		ands	r3, r3, r2
 593 0098 4B62     		str	r3, [r1, #36]
 594              		.loc 1 214 0
 595 009a 1149     		ldr	r1, .L34
 596 009c 104B     		ldr	r3, .L34
 597 009e 9B6A     		ldr	r3, [r3, #40]
 598 00a0 009A     		ldr	r2, [sp]
 599 00a2 C2F12002 		rsb	r2, r2, #32
 600 00a6 1046     		mov	r0, r2
 601 00a8 0122     		movs	r2, #1
 602 00aa 8240     		lsls	r2, r2, r0
 603 00ac D243     		mvns	r2, r2
 604 00ae 1340     		ands	r3, r3, r2
 605 00b0 8B62     		str	r3, [r1, #40]
 606              		.loc 1 215 0
 607 00b2 0B49     		ldr	r1, .L34
 608 00b4 0A4B     		ldr	r3, .L34
 609 00b6 DB6A     		ldr	r3, [r3, #44]
 610 00b8 009A     		ldr	r2, [sp]
 611 00ba C2F12002 		rsb	r2, r2, #32
 612 00be 1046     		mov	r0, r2
 613 00c0 0122     		movs	r2, #1
 614 00c2 8240     		lsls	r2, r2, r0
 615 00c4 D243     		mvns	r2, r2
 616 00c6 1340     		ands	r3, r3, r2
 617 00c8 CB62     		str	r3, [r1, #44]
 618              		.loc 1 216 0
 619 00ca 054A     		ldr	r2, .L34
 620 00cc 009B     		ldr	r3, [sp]
 621 00ce C3F12003 		rsb	r3, r3, #32
 622 00d2 1946     		mov	r1, r3
 623 00d4 0123     		movs	r3, #1
ARM GAS  /tmp/ccLvi7Z8.s 			page 12


 624 00d6 8B40     		lsls	r3, r3, r1
 625 00d8 5363     		str	r3, [r2, #52]
 626              	.L31:
 627              		.loc 1 219 0
 628 00da 02B0     		add	sp, sp, #8
 629              		.cfi_def_cfa_offset 0
 630              		@ sp needed
 631 00dc 7047     		bx	lr
 632              	.L35:
 633 00de 00BF     		.align	2
 634              	.L34:
 635 00e0 00040140 		.word	1073808384
 636              		.cfi_endproc
 637              	.LFE122:
 638              		.size	ext_lld_channel_disable, .-ext_lld_channel_disable
 639 00e4 AFF30080 		.text
 639      AFF30080 
 639      AFF30080 
 640              	.Letext0:
 641              		.file 2 "/home/denny/r2p-sdk/tools/gcc-arm-none-eabi-4_9-2014q4/arm-none-eabi/include/machine/_def
 642              		.file 3 "/home/denny/r2p-sdk/tools/gcc-arm-none-eabi-4_9-2014q4/arm-none-eabi/include/stdint.h"
 643              		.file 4 "/home/denny/r2p-sdk/core/ChibiOS/os/hal/platforms/STM32F30x/stm32f30x.h"
 644              		.file 5 "/home/denny/r2p-sdk/core/ChibiOS/os/hal/include/ext.h"
 645              		.file 6 "/home/denny/r2p-sdk/core/ChibiOS/os/hal/platforms/STM32/ext_lld.h"
 646              		.file 7 "/home/denny/r2p-sdk/core/ChibiOS/os/ports/common/ARMCMx/CMSIS/include/core_cm4.h"
 647              		.section	.debug_info,"",%progbits
 648              	.Ldebug_info0:
 649 0000 E0030000 		.4byte	0x3e0
 650 0004 0400     		.2byte	0x4
 651 0006 00000000 		.4byte	.Ldebug_abbrev0
 652 000a 04       		.byte	0x4
 653 000b 01       		.uleb128 0x1
 654 000c 7A000000 		.4byte	.LASF54
 655 0010 01       		.byte	0x1
 656 0011 9A010000 		.4byte	.LASF55
 657 0015 00000000 		.4byte	.Ldebug_ranges0+0
 658 0019 00000000 		.4byte	0
 659 001d 00000000 		.4byte	.Ldebug_line0
 660 0021 02       		.uleb128 0x2
 661 0022 04       		.byte	0x4
 662 0023 05       		.byte	0x5
 663 0024 696E7400 		.ascii	"int\000"
 664 0028 03       		.uleb128 0x3
 665 0029 04       		.byte	0x4
 666 002a 07       		.byte	0x7
 667 002b 93020000 		.4byte	.LASF0
 668 002f 03       		.uleb128 0x3
 669 0030 01       		.byte	0x1
 670 0031 06       		.byte	0x6
 671 0032 67020000 		.4byte	.LASF1
 672 0036 03       		.uleb128 0x3
 673 0037 01       		.byte	0x1
 674 0038 08       		.byte	0x8
 675 0039 4E020000 		.4byte	.LASF2
 676 003d 03       		.uleb128 0x3
 677 003e 02       		.byte	0x2
 678 003f 05       		.byte	0x5
ARM GAS  /tmp/ccLvi7Z8.s 			page 13


 679 0040 46000000 		.4byte	.LASF3
 680 0044 03       		.uleb128 0x3
 681 0045 02       		.byte	0x2
 682 0046 07       		.byte	0x7
 683 0047 AB020000 		.4byte	.LASF4
 684 004b 04       		.uleb128 0x4
 685 004c 48030000 		.4byte	.LASF6
 686 0050 02       		.byte	0x2
 687 0051 3F       		.byte	0x3f
 688 0052 56000000 		.4byte	0x56
 689 0056 03       		.uleb128 0x3
 690 0057 04       		.byte	0x4
 691 0058 05       		.byte	0x5
 692 0059 0E020000 		.4byte	.LASF5
 693 005d 04       		.uleb128 0x4
 694 005e 64000000 		.4byte	.LASF7
 695 0062 02       		.byte	0x2
 696 0063 41       		.byte	0x41
 697 0064 68000000 		.4byte	0x68
 698 0068 03       		.uleb128 0x3
 699 0069 04       		.byte	0x4
 700 006a 07       		.byte	0x7
 701 006b 13030000 		.4byte	.LASF8
 702 006f 03       		.uleb128 0x3
 703 0070 08       		.byte	0x8
 704 0071 05       		.byte	0x5
 705 0072 F3010000 		.4byte	.LASF9
 706 0076 03       		.uleb128 0x3
 707 0077 08       		.byte	0x8
 708 0078 07       		.byte	0x7
 709 0079 73020000 		.4byte	.LASF10
 710 007d 04       		.uleb128 0x4
 711 007e D4020000 		.4byte	.LASF11
 712 0082 03       		.byte	0x3
 713 0083 2C       		.byte	0x2c
 714 0084 4B000000 		.4byte	0x4b
 715 0088 04       		.uleb128 0x4
 716 0089 8A020000 		.4byte	.LASF12
 717 008d 03       		.byte	0x3
 718 008e 2D       		.byte	0x2d
 719 008f 5D000000 		.4byte	0x5d
 720 0093 03       		.uleb128 0x3
 721 0094 01       		.byte	0x1
 722 0095 02       		.byte	0x2
 723 0096 E7020000 		.4byte	.LASF13
 724 009a 05       		.uleb128 0x5
 725 009b 88000000 		.4byte	0x88
 726 009f 03       		.uleb128 0x3
 727 00a0 04       		.byte	0x4
 728 00a1 07       		.byte	0x7
 729 00a2 50000000 		.4byte	.LASF14
 730 00a6 03       		.uleb128 0x3
 731 00a7 01       		.byte	0x1
 732 00a8 08       		.byte	0x8
 733 00a9 CF020000 		.4byte	.LASF15
 734 00ad 06       		.uleb128 0x6
 735 00ae 88000000 		.4byte	0x88
ARM GAS  /tmp/ccLvi7Z8.s 			page 14


 736 00b2 BD000000 		.4byte	0xbd
 737 00b6 07       		.uleb128 0x7
 738 00b7 9F000000 		.4byte	0x9f
 739 00bb 03       		.byte	0x3
 740 00bc 00       		.byte	0
 741 00bd 05       		.uleb128 0x5
 742 00be 7D000000 		.4byte	0x7d
 743 00c2 08       		.uleb128 0x8
 744 00c3 38       		.byte	0x38
 745 00c4 04       		.byte	0x4
 746 00c5 F701     		.2byte	0x1f7
 747 00c7 81010000 		.4byte	0x181
 748 00cb 09       		.uleb128 0x9
 749 00cc 494D5200 		.ascii	"IMR\000"
 750 00d0 04       		.byte	0x4
 751 00d1 F901     		.2byte	0x1f9
 752 00d3 9A000000 		.4byte	0x9a
 753 00d7 00       		.byte	0
 754 00d8 09       		.uleb128 0x9
 755 00d9 454D5200 		.ascii	"EMR\000"
 756 00dd 04       		.byte	0x4
 757 00de FA01     		.2byte	0x1fa
 758 00e0 9A000000 		.4byte	0x9a
 759 00e4 04       		.byte	0x4
 760 00e5 0A       		.uleb128 0xa
 761 00e6 E2020000 		.4byte	.LASF16
 762 00ea 04       		.byte	0x4
 763 00eb FB01     		.2byte	0x1fb
 764 00ed 9A000000 		.4byte	0x9a
 765 00f1 08       		.byte	0x8
 766 00f2 0A       		.uleb128 0xa
 767 00f3 A6020000 		.4byte	.LASF17
 768 00f7 04       		.byte	0x4
 769 00f8 FC01     		.2byte	0x1fc
 770 00fa 9A000000 		.4byte	0x9a
 771 00fe 0C       		.byte	0xc
 772 00ff 0A       		.uleb128 0xa
 773 0100 89030000 		.4byte	.LASF18
 774 0104 04       		.byte	0x4
 775 0105 FD01     		.2byte	0x1fd
 776 0107 9A000000 		.4byte	0x9a
 777 010b 10       		.byte	0x10
 778 010c 09       		.uleb128 0x9
 779 010d 505200   		.ascii	"PR\000"
 780 0110 04       		.byte	0x4
 781 0111 FE01     		.2byte	0x1fe
 782 0113 9A000000 		.4byte	0x9a
 783 0117 14       		.byte	0x14
 784 0118 0A       		.uleb128 0xa
 785 0119 FA020000 		.4byte	.LASF19
 786 011d 04       		.byte	0x4
 787 011e FF01     		.2byte	0x1ff
 788 0120 88000000 		.4byte	0x88
 789 0124 18       		.byte	0x18
 790 0125 0A       		.uleb128 0xa
 791 0126 04030000 		.4byte	.LASF20
 792 012a 04       		.byte	0x4
ARM GAS  /tmp/ccLvi7Z8.s 			page 15


 793 012b 0002     		.2byte	0x200
 794 012d 88000000 		.4byte	0x88
 795 0131 1C       		.byte	0x1c
 796 0132 0A       		.uleb128 0xa
 797 0133 25030000 		.4byte	.LASF21
 798 0137 04       		.byte	0x4
 799 0138 0102     		.2byte	0x201
 800 013a 9A000000 		.4byte	0x9a
 801 013e 20       		.byte	0x20
 802 013f 0A       		.uleb128 0xa
 803 0140 F5020000 		.4byte	.LASF22
 804 0144 04       		.byte	0x4
 805 0145 0202     		.2byte	0x202
 806 0147 9A000000 		.4byte	0x9a
 807 014b 24       		.byte	0x24
 808 014c 0A       		.uleb128 0xa
 809 014d 19000000 		.4byte	.LASF23
 810 0151 04       		.byte	0x4
 811 0152 0302     		.2byte	0x203
 812 0154 9A000000 		.4byte	0x9a
 813 0158 28       		.byte	0x28
 814 0159 0A       		.uleb128 0xa
 815 015a 52030000 		.4byte	.LASF24
 816 015e 04       		.byte	0x4
 817 015f 0402     		.2byte	0x204
 818 0161 9A000000 		.4byte	0x9a
 819 0165 2C       		.byte	0x2c
 820 0166 0A       		.uleb128 0xa
 821 0167 EC010000 		.4byte	.LASF25
 822 016b 04       		.byte	0x4
 823 016c 0502     		.2byte	0x205
 824 016e 9A000000 		.4byte	0x9a
 825 0172 30       		.byte	0x30
 826 0173 09       		.uleb128 0x9
 827 0174 50523200 		.ascii	"PR2\000"
 828 0178 04       		.byte	0x4
 829 0179 0602     		.2byte	0x206
 830 017b 9A000000 		.4byte	0x9a
 831 017f 34       		.byte	0x34
 832 0180 00       		.byte	0
 833 0181 0B       		.uleb128 0xb
 834 0182 01020000 		.4byte	.LASF26
 835 0186 04       		.byte	0x4
 836 0187 0702     		.2byte	0x207
 837 0189 C2000000 		.4byte	0xc2
 838 018d 08       		.uleb128 0x8
 839 018e 1C       		.byte	0x1c
 840 018f 04       		.byte	0x4
 841 0190 5002     		.2byte	0x250
 842 0192 CB010000 		.4byte	0x1cb
 843 0196 0A       		.uleb128 0xa
 844 0197 74000000 		.4byte	.LASF27
 845 019b 04       		.byte	0x4
 846 019c 5202     		.2byte	0x252
 847 019e 9A000000 		.4byte	0x9a
 848 01a2 00       		.byte	0
 849 01a3 09       		.uleb128 0x9
ARM GAS  /tmp/ccLvi7Z8.s 			page 16


 850 01a4 52435200 		.ascii	"RCR\000"
 851 01a8 04       		.byte	0x4
 852 01a9 5302     		.2byte	0x253
 853 01ab 9A000000 		.4byte	0x9a
 854 01af 04       		.byte	0x4
 855 01b0 0A       		.uleb128 0xa
 856 01b1 DC010000 		.4byte	.LASF28
 857 01b5 04       		.byte	0x4
 858 01b6 5402     		.2byte	0x254
 859 01b8 CB010000 		.4byte	0x1cb
 860 01bc 08       		.byte	0x8
 861 01bd 0A       		.uleb128 0xa
 862 01be A0020000 		.4byte	.LASF29
 863 01c2 04       		.byte	0x4
 864 01c3 5502     		.2byte	0x255
 865 01c5 9A000000 		.4byte	0x9a
 866 01c9 18       		.byte	0x18
 867 01ca 00       		.byte	0
 868 01cb 05       		.uleb128 0x5
 869 01cc AD000000 		.4byte	0xad
 870 01d0 0B       		.uleb128 0xb
 871 01d1 0A000000 		.4byte	.LASF30
 872 01d5 04       		.byte	0x4
 873 01d6 5602     		.2byte	0x256
 874 01d8 8D010000 		.4byte	0x18d
 875 01dc 0C       		.uleb128 0xc
 876 01dd 01       		.byte	0x1
 877 01de 05       		.byte	0x5
 878 01df 4A       		.byte	0x4a
 879 01e0 F7010000 		.4byte	0x1f7
 880 01e4 0D       		.uleb128 0xd
 881 01e5 5C020000 		.4byte	.LASF31
 882 01e9 00       		.sleb128 0
 883 01ea 0D       		.uleb128 0xd
 884 01eb 37000000 		.4byte	.LASF32
 885 01ef 01       		.sleb128 1
 886 01f0 0D       		.uleb128 0xd
 887 01f1 59000000 		.4byte	.LASF33
 888 01f5 02       		.sleb128 2
 889 01f6 00       		.byte	0
 890 01f7 04       		.uleb128 0x4
 891 01f8 2A030000 		.4byte	.LASF34
 892 01fc 05       		.byte	0x5
 893 01fd 4E       		.byte	0x4e
 894 01fe DC010000 		.4byte	0x1dc
 895 0202 04       		.uleb128 0x4
 896 0203 65030000 		.4byte	.LASF35
 897 0207 05       		.byte	0x5
 898 0208 53       		.byte	0x53
 899 0209 0D020000 		.4byte	0x20d
 900 020d 0E       		.uleb128 0xe
 901 020e 65030000 		.4byte	.LASF35
 902 0212 08       		.byte	0x8
 903 0213 06       		.byte	0x6
 904 0214 71       		.byte	0x71
 905 0215 32020000 		.4byte	0x232
 906 0219 0F       		.uleb128 0xf
ARM GAS  /tmp/ccLvi7Z8.s 			page 17


 907 021a 40000000 		.4byte	.LASF36
 908 021e 06       		.byte	0x6
 909 021f 75       		.byte	0x75
 910 0220 F7010000 		.4byte	0x1f7
 911 0224 00       		.byte	0
 912 0225 0F       		.uleb128 0xf
 913 0226 93010000 		.4byte	.LASF37
 914 022a 06       		.byte	0x6
 915 022b 79       		.byte	0x79
 916 022c C0020000 		.4byte	0x2c0
 917 0230 04       		.byte	0x4
 918 0231 00       		.byte	0
 919 0232 04       		.uleb128 0x4
 920 0233 58030000 		.4byte	.LASF38
 921 0237 06       		.byte	0x6
 922 0238 47       		.byte	0x47
 923 0239 88000000 		.4byte	0x88
 924 023d 04       		.uleb128 0x4
 925 023e 1C020000 		.4byte	.LASF39
 926 0242 06       		.byte	0x6
 927 0243 4F       		.byte	0x4f
 928 0244 48020000 		.4byte	0x248
 929 0248 10       		.uleb128 0x10
 930 0249 04       		.byte	0x4
 931 024a 4E020000 		.4byte	0x24e
 932 024e 11       		.uleb128 0x11
 933 024f 5E020000 		.4byte	0x25e
 934 0253 12       		.uleb128 0x12
 935 0254 5E020000 		.4byte	0x25e
 936 0258 12       		.uleb128 0x12
 937 0259 32020000 		.4byte	0x232
 938 025d 00       		.byte	0
 939 025e 10       		.uleb128 0x10
 940 025f 04       		.byte	0x4
 941 0260 02020000 		.4byte	0x202
 942 0264 13       		.uleb128 0x13
 943 0265 08       		.byte	0x8
 944 0266 06       		.byte	0x6
 945 0267 54       		.byte	0x54
 946 0268 84020000 		.4byte	0x284
 947 026c 0F       		.uleb128 0xf
 948 026d 6F000000 		.4byte	.LASF40
 949 0271 06       		.byte	0x6
 950 0272 58       		.byte	0x58
 951 0273 88000000 		.4byte	0x88
 952 0277 00       		.byte	0
 953 0278 14       		.uleb128 0x14
 954 0279 636200   		.ascii	"cb\000"
 955 027c 06       		.byte	0x6
 956 027d 5F       		.byte	0x5f
 957 027e 3D020000 		.4byte	0x23d
 958 0282 04       		.byte	0x4
 959 0283 00       		.byte	0
 960 0284 04       		.uleb128 0x4
 961 0285 BE020000 		.4byte	.LASF41
 962 0289 06       		.byte	0x6
 963 028a 60       		.byte	0x60
ARM GAS  /tmp/ccLvi7Z8.s 			page 18


 964 028b 64020000 		.4byte	0x264
 965 028f 15       		.uleb128 0x15
 966 0290 1001     		.2byte	0x110
 967 0292 06       		.byte	0x6
 968 0293 66       		.byte	0x66
 969 0294 A5020000 		.4byte	0x2a5
 970 0298 0F       		.uleb128 0xf
 971 0299 E3010000 		.4byte	.LASF42
 972 029d 06       		.byte	0x6
 973 029e 6A       		.byte	0x6a
 974 029f A5020000 		.4byte	0x2a5
 975 02a3 00       		.byte	0
 976 02a4 00       		.byte	0
 977 02a5 06       		.uleb128 0x6
 978 02a6 84020000 		.4byte	0x284
 979 02aa B5020000 		.4byte	0x2b5
 980 02ae 07       		.uleb128 0x7
 981 02af 9F000000 		.4byte	0x9f
 982 02b3 21       		.byte	0x21
 983 02b4 00       		.byte	0
 984 02b5 04       		.uleb128 0x4
 985 02b6 00000000 		.4byte	.LASF43
 986 02ba 06       		.byte	0x6
 987 02bb 6C       		.byte	0x6c
 988 02bc 8F020000 		.4byte	0x28f
 989 02c0 10       		.uleb128 0x10
 990 02c1 04       		.byte	0x4
 991 02c2 C6020000 		.4byte	0x2c6
 992 02c6 16       		.uleb128 0x16
 993 02c7 B5020000 		.4byte	0x2b5
 994 02cb 17       		.uleb128 0x17
 995 02cc 7C030000 		.4byte	.LASF56
 996 02d0 01       		.byte	0x1
 997 02d1 42       		.byte	0x42
 998 02d2 00000000 		.4byte	.LFB118
 999 02d6 10000000 		.4byte	.LFE118-.LFB118
 1000 02da 01       		.uleb128 0x1
 1001 02db 9C       		.byte	0x9c
 1002 02dc 18       		.uleb128 0x18
 1003 02dd 35030000 		.4byte	.LASF44
 1004 02e1 01       		.byte	0x1
 1005 02e2 4F       		.byte	0x4f
 1006 02e3 00000000 		.4byte	.LFB119
 1007 02e7 4E000000 		.4byte	.LFE119-.LFB119
 1008 02eb 01       		.uleb128 0x1
 1009 02ec 9C       		.byte	0x9c
 1010 02ed 0C030000 		.4byte	0x30c
 1011 02f1 19       		.uleb128 0x19
 1012 02f2 17020000 		.4byte	.LASF46
 1013 02f6 01       		.byte	0x1
 1014 02f7 4F       		.byte	0x4f
 1015 02f8 5E020000 		.4byte	0x25e
 1016 02fc 02       		.uleb128 0x2
 1017 02fd 91       		.byte	0x91
 1018 02fe 6C       		.sleb128 -20
 1019 02ff 1A       		.uleb128 0x1a
 1020 0300 6900     		.ascii	"i\000"
ARM GAS  /tmp/ccLvi7Z8.s 			page 19


 1021 0302 01       		.byte	0x1
 1022 0303 50       		.byte	0x50
 1023 0304 28000000 		.4byte	0x28
 1024 0308 02       		.uleb128 0x2
 1025 0309 91       		.byte	0x91
 1026 030a 74       		.sleb128 -12
 1027 030b 00       		.byte	0
 1028 030c 18       		.uleb128 0x18
 1029 030d 2A020000 		.4byte	.LASF45
 1030 0311 01       		.byte	0x1
 1031 0312 64       		.byte	0x64
 1032 0313 00000000 		.4byte	.LFB120
 1033 0317 38000000 		.4byte	.LFE120-.LFB120
 1034 031b 01       		.uleb128 0x1
 1035 031c 9C       		.byte	0x9c
 1036 031d 30030000 		.4byte	0x330
 1037 0321 19       		.uleb128 0x19
 1038 0322 17020000 		.4byte	.LASF46
 1039 0326 01       		.byte	0x1
 1040 0327 64       		.byte	0x64
 1041 0328 5E020000 		.4byte	0x25e
 1042 032c 02       		.uleb128 0x2
 1043 032d 91       		.byte	0x91
 1044 032e 74       		.sleb128 -12
 1045 032f 00       		.byte	0
 1046 0330 1B       		.uleb128 0x1b
 1047 0331 37020000 		.4byte	.LASF47
 1048 0335 01       		.byte	0x1
 1049 0336 79       		.byte	0x79
 1050 0337 00000000 		.4byte	.LFB121
 1051 033b 34020000 		.4byte	.LFE121-.LFB121
 1052 033f 01       		.uleb128 0x1
 1053 0340 9C       		.byte	0x9c
 1054 0341 94030000 		.4byte	0x394
 1055 0345 19       		.uleb128 0x19
 1056 0346 17020000 		.4byte	.LASF46
 1057 034a 01       		.byte	0x1
 1058 034b 79       		.byte	0x79
 1059 034c 5E020000 		.4byte	0x25e
 1060 0350 02       		.uleb128 0x2
 1061 0351 91       		.byte	0x91
 1062 0352 6C       		.sleb128 -20
 1063 0353 19       		.uleb128 0x19
 1064 0354 ED020000 		.4byte	.LASF48
 1065 0358 01       		.byte	0x1
 1066 0359 79       		.byte	0x79
 1067 035a 32020000 		.4byte	0x232
 1068 035e 02       		.uleb128 0x2
 1069 035f 91       		.byte	0x91
 1070 0360 68       		.sleb128 -24
 1071 0361 1C       		.uleb128 0x1c
 1072 0362 0C000000 		.4byte	.LBB2
 1073 0366 50000000 		.4byte	.LBE2-.LBB2
 1074 036a 1A       		.uleb128 0x1a
 1075 036b 6E00     		.ascii	"n\000"
 1076 036d 01       		.byte	0x1
 1077 036e 7D       		.byte	0x7d
ARM GAS  /tmp/ccLvi7Z8.s 			page 20


 1078 036f 88000000 		.4byte	0x88
 1079 0373 02       		.uleb128 0x2
 1080 0374 91       		.byte	0x91
 1081 0375 7C       		.sleb128 -4
 1082 0376 1D       		.uleb128 0x1d
 1083 0377 43030000 		.4byte	.LASF49
 1084 037b 01       		.byte	0x1
 1085 037c 7E       		.byte	0x7e
 1086 037d 88000000 		.4byte	0x88
 1087 0381 02       		.uleb128 0x2
 1088 0382 91       		.byte	0x91
 1089 0383 78       		.sleb128 -8
 1090 0384 1D       		.uleb128 0x1d
 1091 0385 0E030000 		.4byte	.LASF50
 1092 0389 01       		.byte	0x1
 1093 038a 7F       		.byte	0x7f
 1094 038b 88000000 		.4byte	0x88
 1095 038f 02       		.uleb128 0x2
 1096 0390 91       		.byte	0x91
 1097 0391 74       		.sleb128 -12
 1098 0392 00       		.byte	0
 1099 0393 00       		.byte	0
 1100 0394 1B       		.uleb128 0x1b
 1101 0395 1F000000 		.4byte	.LASF51
 1102 0399 01       		.byte	0x1
 1103 039a C5       		.byte	0xc5
 1104 039b 00000000 		.4byte	.LFB122
 1105 039f E4000000 		.4byte	.LFE122-.LFB122
 1106 03a3 01       		.uleb128 0x1
 1107 03a4 9C       		.byte	0x9c
 1108 03a5 C6030000 		.4byte	0x3c6
 1109 03a9 19       		.uleb128 0x19
 1110 03aa 17020000 		.4byte	.LASF46
 1111 03ae 01       		.byte	0x1
 1112 03af C5       		.byte	0xc5
 1113 03b0 5E020000 		.4byte	0x25e
 1114 03b4 02       		.uleb128 0x2
 1115 03b5 91       		.byte	0x91
 1116 03b6 7C       		.sleb128 -4
 1117 03b7 19       		.uleb128 0x19
 1118 03b8 ED020000 		.4byte	.LASF48
 1119 03bc 01       		.byte	0x1
 1120 03bd C5       		.byte	0xc5
 1121 03be 32020000 		.4byte	0x232
 1122 03c2 02       		.uleb128 0x2
 1123 03c3 91       		.byte	0x91
 1124 03c4 78       		.sleb128 -8
 1125 03c5 00       		.byte	0
 1126 03c6 1E       		.uleb128 0x1e
 1127 03c7 6F030000 		.4byte	.LASF52
 1128 03cb 07       		.byte	0x7
 1129 03cc 9806     		.2byte	0x698
 1130 03ce BD000000 		.4byte	0xbd
 1131 03d2 1F       		.uleb128 0x1f
 1132 03d3 DC020000 		.4byte	.LASF53
 1133 03d7 01       		.byte	0x1
 1134 03d8 2B       		.byte	0x2b
ARM GAS  /tmp/ccLvi7Z8.s 			page 21


 1135 03d9 02020000 		.4byte	0x202
 1136 03dd 05       		.uleb128 0x5
 1137 03de 03       		.byte	0x3
 1138 03df 00000000 		.4byte	EXTD1
 1139 03e3 00       		.byte	0
 1140              		.section	.debug_abbrev,"",%progbits
 1141              	.Ldebug_abbrev0:
 1142 0000 01       		.uleb128 0x1
 1143 0001 11       		.uleb128 0x11
 1144 0002 01       		.byte	0x1
 1145 0003 25       		.uleb128 0x25
 1146 0004 0E       		.uleb128 0xe
 1147 0005 13       		.uleb128 0x13
 1148 0006 0B       		.uleb128 0xb
 1149 0007 03       		.uleb128 0x3
 1150 0008 0E       		.uleb128 0xe
 1151 0009 55       		.uleb128 0x55
 1152 000a 17       		.uleb128 0x17
 1153 000b 11       		.uleb128 0x11
 1154 000c 01       		.uleb128 0x1
 1155 000d 10       		.uleb128 0x10
 1156 000e 17       		.uleb128 0x17
 1157 000f 00       		.byte	0
 1158 0010 00       		.byte	0
 1159 0011 02       		.uleb128 0x2
 1160 0012 24       		.uleb128 0x24
 1161 0013 00       		.byte	0
 1162 0014 0B       		.uleb128 0xb
 1163 0015 0B       		.uleb128 0xb
 1164 0016 3E       		.uleb128 0x3e
 1165 0017 0B       		.uleb128 0xb
 1166 0018 03       		.uleb128 0x3
 1167 0019 08       		.uleb128 0x8
 1168 001a 00       		.byte	0
 1169 001b 00       		.byte	0
 1170 001c 03       		.uleb128 0x3
 1171 001d 24       		.uleb128 0x24
 1172 001e 00       		.byte	0
 1173 001f 0B       		.uleb128 0xb
 1174 0020 0B       		.uleb128 0xb
 1175 0021 3E       		.uleb128 0x3e
 1176 0022 0B       		.uleb128 0xb
 1177 0023 03       		.uleb128 0x3
 1178 0024 0E       		.uleb128 0xe
 1179 0025 00       		.byte	0
 1180 0026 00       		.byte	0
 1181 0027 04       		.uleb128 0x4
 1182 0028 16       		.uleb128 0x16
 1183 0029 00       		.byte	0
 1184 002a 03       		.uleb128 0x3
 1185 002b 0E       		.uleb128 0xe
 1186 002c 3A       		.uleb128 0x3a
 1187 002d 0B       		.uleb128 0xb
 1188 002e 3B       		.uleb128 0x3b
 1189 002f 0B       		.uleb128 0xb
 1190 0030 49       		.uleb128 0x49
 1191 0031 13       		.uleb128 0x13
ARM GAS  /tmp/ccLvi7Z8.s 			page 22


 1192 0032 00       		.byte	0
 1193 0033 00       		.byte	0
 1194 0034 05       		.uleb128 0x5
 1195 0035 35       		.uleb128 0x35
 1196 0036 00       		.byte	0
 1197 0037 49       		.uleb128 0x49
 1198 0038 13       		.uleb128 0x13
 1199 0039 00       		.byte	0
 1200 003a 00       		.byte	0
 1201 003b 06       		.uleb128 0x6
 1202 003c 01       		.uleb128 0x1
 1203 003d 01       		.byte	0x1
 1204 003e 49       		.uleb128 0x49
 1205 003f 13       		.uleb128 0x13
 1206 0040 01       		.uleb128 0x1
 1207 0041 13       		.uleb128 0x13
 1208 0042 00       		.byte	0
 1209 0043 00       		.byte	0
 1210 0044 07       		.uleb128 0x7
 1211 0045 21       		.uleb128 0x21
 1212 0046 00       		.byte	0
 1213 0047 49       		.uleb128 0x49
 1214 0048 13       		.uleb128 0x13
 1215 0049 2F       		.uleb128 0x2f
 1216 004a 0B       		.uleb128 0xb
 1217 004b 00       		.byte	0
 1218 004c 00       		.byte	0
 1219 004d 08       		.uleb128 0x8
 1220 004e 13       		.uleb128 0x13
 1221 004f 01       		.byte	0x1
 1222 0050 0B       		.uleb128 0xb
 1223 0051 0B       		.uleb128 0xb
 1224 0052 3A       		.uleb128 0x3a
 1225 0053 0B       		.uleb128 0xb
 1226 0054 3B       		.uleb128 0x3b
 1227 0055 05       		.uleb128 0x5
 1228 0056 01       		.uleb128 0x1
 1229 0057 13       		.uleb128 0x13
 1230 0058 00       		.byte	0
 1231 0059 00       		.byte	0
 1232 005a 09       		.uleb128 0x9
 1233 005b 0D       		.uleb128 0xd
 1234 005c 00       		.byte	0
 1235 005d 03       		.uleb128 0x3
 1236 005e 08       		.uleb128 0x8
 1237 005f 3A       		.uleb128 0x3a
 1238 0060 0B       		.uleb128 0xb
 1239 0061 3B       		.uleb128 0x3b
 1240 0062 05       		.uleb128 0x5
 1241 0063 49       		.uleb128 0x49
 1242 0064 13       		.uleb128 0x13
 1243 0065 38       		.uleb128 0x38
 1244 0066 0B       		.uleb128 0xb
 1245 0067 00       		.byte	0
 1246 0068 00       		.byte	0
 1247 0069 0A       		.uleb128 0xa
 1248 006a 0D       		.uleb128 0xd
ARM GAS  /tmp/ccLvi7Z8.s 			page 23


 1249 006b 00       		.byte	0
 1250 006c 03       		.uleb128 0x3
 1251 006d 0E       		.uleb128 0xe
 1252 006e 3A       		.uleb128 0x3a
 1253 006f 0B       		.uleb128 0xb
 1254 0070 3B       		.uleb128 0x3b
 1255 0071 05       		.uleb128 0x5
 1256 0072 49       		.uleb128 0x49
 1257 0073 13       		.uleb128 0x13
 1258 0074 38       		.uleb128 0x38
 1259 0075 0B       		.uleb128 0xb
 1260 0076 00       		.byte	0
 1261 0077 00       		.byte	0
 1262 0078 0B       		.uleb128 0xb
 1263 0079 16       		.uleb128 0x16
 1264 007a 00       		.byte	0
 1265 007b 03       		.uleb128 0x3
 1266 007c 0E       		.uleb128 0xe
 1267 007d 3A       		.uleb128 0x3a
 1268 007e 0B       		.uleb128 0xb
 1269 007f 3B       		.uleb128 0x3b
 1270 0080 05       		.uleb128 0x5
 1271 0081 49       		.uleb128 0x49
 1272 0082 13       		.uleb128 0x13
 1273 0083 00       		.byte	0
 1274 0084 00       		.byte	0
 1275 0085 0C       		.uleb128 0xc
 1276 0086 04       		.uleb128 0x4
 1277 0087 01       		.byte	0x1
 1278 0088 0B       		.uleb128 0xb
 1279 0089 0B       		.uleb128 0xb
 1280 008a 3A       		.uleb128 0x3a
 1281 008b 0B       		.uleb128 0xb
 1282 008c 3B       		.uleb128 0x3b
 1283 008d 0B       		.uleb128 0xb
 1284 008e 01       		.uleb128 0x1
 1285 008f 13       		.uleb128 0x13
 1286 0090 00       		.byte	0
 1287 0091 00       		.byte	0
 1288 0092 0D       		.uleb128 0xd
 1289 0093 28       		.uleb128 0x28
 1290 0094 00       		.byte	0
 1291 0095 03       		.uleb128 0x3
 1292 0096 0E       		.uleb128 0xe
 1293 0097 1C       		.uleb128 0x1c
 1294 0098 0D       		.uleb128 0xd
 1295 0099 00       		.byte	0
 1296 009a 00       		.byte	0
 1297 009b 0E       		.uleb128 0xe
 1298 009c 13       		.uleb128 0x13
 1299 009d 01       		.byte	0x1
 1300 009e 03       		.uleb128 0x3
 1301 009f 0E       		.uleb128 0xe
 1302 00a0 0B       		.uleb128 0xb
 1303 00a1 0B       		.uleb128 0xb
 1304 00a2 3A       		.uleb128 0x3a
 1305 00a3 0B       		.uleb128 0xb
ARM GAS  /tmp/ccLvi7Z8.s 			page 24


 1306 00a4 3B       		.uleb128 0x3b
 1307 00a5 0B       		.uleb128 0xb
 1308 00a6 01       		.uleb128 0x1
 1309 00a7 13       		.uleb128 0x13
 1310 00a8 00       		.byte	0
 1311 00a9 00       		.byte	0
 1312 00aa 0F       		.uleb128 0xf
 1313 00ab 0D       		.uleb128 0xd
 1314 00ac 00       		.byte	0
 1315 00ad 03       		.uleb128 0x3
 1316 00ae 0E       		.uleb128 0xe
 1317 00af 3A       		.uleb128 0x3a
 1318 00b0 0B       		.uleb128 0xb
 1319 00b1 3B       		.uleb128 0x3b
 1320 00b2 0B       		.uleb128 0xb
 1321 00b3 49       		.uleb128 0x49
 1322 00b4 13       		.uleb128 0x13
 1323 00b5 38       		.uleb128 0x38
 1324 00b6 0B       		.uleb128 0xb
 1325 00b7 00       		.byte	0
 1326 00b8 00       		.byte	0
 1327 00b9 10       		.uleb128 0x10
 1328 00ba 0F       		.uleb128 0xf
 1329 00bb 00       		.byte	0
 1330 00bc 0B       		.uleb128 0xb
 1331 00bd 0B       		.uleb128 0xb
 1332 00be 49       		.uleb128 0x49
 1333 00bf 13       		.uleb128 0x13
 1334 00c0 00       		.byte	0
 1335 00c1 00       		.byte	0
 1336 00c2 11       		.uleb128 0x11
 1337 00c3 15       		.uleb128 0x15
 1338 00c4 01       		.byte	0x1
 1339 00c5 27       		.uleb128 0x27
 1340 00c6 19       		.uleb128 0x19
 1341 00c7 01       		.uleb128 0x1
 1342 00c8 13       		.uleb128 0x13
 1343 00c9 00       		.byte	0
 1344 00ca 00       		.byte	0
 1345 00cb 12       		.uleb128 0x12
 1346 00cc 05       		.uleb128 0x5
 1347 00cd 00       		.byte	0
 1348 00ce 49       		.uleb128 0x49
 1349 00cf 13       		.uleb128 0x13
 1350 00d0 00       		.byte	0
 1351 00d1 00       		.byte	0
 1352 00d2 13       		.uleb128 0x13
 1353 00d3 13       		.uleb128 0x13
 1354 00d4 01       		.byte	0x1
 1355 00d5 0B       		.uleb128 0xb
 1356 00d6 0B       		.uleb128 0xb
 1357 00d7 3A       		.uleb128 0x3a
 1358 00d8 0B       		.uleb128 0xb
 1359 00d9 3B       		.uleb128 0x3b
 1360 00da 0B       		.uleb128 0xb
 1361 00db 01       		.uleb128 0x1
 1362 00dc 13       		.uleb128 0x13
ARM GAS  /tmp/ccLvi7Z8.s 			page 25


 1363 00dd 00       		.byte	0
 1364 00de 00       		.byte	0
 1365 00df 14       		.uleb128 0x14
 1366 00e0 0D       		.uleb128 0xd
 1367 00e1 00       		.byte	0
 1368 00e2 03       		.uleb128 0x3
 1369 00e3 08       		.uleb128 0x8
 1370 00e4 3A       		.uleb128 0x3a
 1371 00e5 0B       		.uleb128 0xb
 1372 00e6 3B       		.uleb128 0x3b
 1373 00e7 0B       		.uleb128 0xb
 1374 00e8 49       		.uleb128 0x49
 1375 00e9 13       		.uleb128 0x13
 1376 00ea 38       		.uleb128 0x38
 1377 00eb 0B       		.uleb128 0xb
 1378 00ec 00       		.byte	0
 1379 00ed 00       		.byte	0
 1380 00ee 15       		.uleb128 0x15
 1381 00ef 13       		.uleb128 0x13
 1382 00f0 01       		.byte	0x1
 1383 00f1 0B       		.uleb128 0xb
 1384 00f2 05       		.uleb128 0x5
 1385 00f3 3A       		.uleb128 0x3a
 1386 00f4 0B       		.uleb128 0xb
 1387 00f5 3B       		.uleb128 0x3b
 1388 00f6 0B       		.uleb128 0xb
 1389 00f7 01       		.uleb128 0x1
 1390 00f8 13       		.uleb128 0x13
 1391 00f9 00       		.byte	0
 1392 00fa 00       		.byte	0
 1393 00fb 16       		.uleb128 0x16
 1394 00fc 26       		.uleb128 0x26
 1395 00fd 00       		.byte	0
 1396 00fe 49       		.uleb128 0x49
 1397 00ff 13       		.uleb128 0x13
 1398 0100 00       		.byte	0
 1399 0101 00       		.byte	0
 1400 0102 17       		.uleb128 0x17
 1401 0103 2E       		.uleb128 0x2e
 1402 0104 00       		.byte	0
 1403 0105 3F       		.uleb128 0x3f
 1404 0106 19       		.uleb128 0x19
 1405 0107 03       		.uleb128 0x3
 1406 0108 0E       		.uleb128 0xe
 1407 0109 3A       		.uleb128 0x3a
 1408 010a 0B       		.uleb128 0xb
 1409 010b 3B       		.uleb128 0x3b
 1410 010c 0B       		.uleb128 0xb
 1411 010d 27       		.uleb128 0x27
 1412 010e 19       		.uleb128 0x19
 1413 010f 11       		.uleb128 0x11
 1414 0110 01       		.uleb128 0x1
 1415 0111 12       		.uleb128 0x12
 1416 0112 06       		.uleb128 0x6
 1417 0113 40       		.uleb128 0x40
 1418 0114 18       		.uleb128 0x18
 1419 0115 9642     		.uleb128 0x2116
ARM GAS  /tmp/ccLvi7Z8.s 			page 26


 1420 0117 19       		.uleb128 0x19
 1421 0118 00       		.byte	0
 1422 0119 00       		.byte	0
 1423 011a 18       		.uleb128 0x18
 1424 011b 2E       		.uleb128 0x2e
 1425 011c 01       		.byte	0x1
 1426 011d 3F       		.uleb128 0x3f
 1427 011e 19       		.uleb128 0x19
 1428 011f 03       		.uleb128 0x3
 1429 0120 0E       		.uleb128 0xe
 1430 0121 3A       		.uleb128 0x3a
 1431 0122 0B       		.uleb128 0xb
 1432 0123 3B       		.uleb128 0x3b
 1433 0124 0B       		.uleb128 0xb
 1434 0125 27       		.uleb128 0x27
 1435 0126 19       		.uleb128 0x19
 1436 0127 11       		.uleb128 0x11
 1437 0128 01       		.uleb128 0x1
 1438 0129 12       		.uleb128 0x12
 1439 012a 06       		.uleb128 0x6
 1440 012b 40       		.uleb128 0x40
 1441 012c 18       		.uleb128 0x18
 1442 012d 9642     		.uleb128 0x2116
 1443 012f 19       		.uleb128 0x19
 1444 0130 01       		.uleb128 0x1
 1445 0131 13       		.uleb128 0x13
 1446 0132 00       		.byte	0
 1447 0133 00       		.byte	0
 1448 0134 19       		.uleb128 0x19
 1449 0135 05       		.uleb128 0x5
 1450 0136 00       		.byte	0
 1451 0137 03       		.uleb128 0x3
 1452 0138 0E       		.uleb128 0xe
 1453 0139 3A       		.uleb128 0x3a
 1454 013a 0B       		.uleb128 0xb
 1455 013b 3B       		.uleb128 0x3b
 1456 013c 0B       		.uleb128 0xb
 1457 013d 49       		.uleb128 0x49
 1458 013e 13       		.uleb128 0x13
 1459 013f 02       		.uleb128 0x2
 1460 0140 18       		.uleb128 0x18
 1461 0141 00       		.byte	0
 1462 0142 00       		.byte	0
 1463 0143 1A       		.uleb128 0x1a
 1464 0144 34       		.uleb128 0x34
 1465 0145 00       		.byte	0
 1466 0146 03       		.uleb128 0x3
 1467 0147 08       		.uleb128 0x8
 1468 0148 3A       		.uleb128 0x3a
 1469 0149 0B       		.uleb128 0xb
 1470 014a 3B       		.uleb128 0x3b
 1471 014b 0B       		.uleb128 0xb
 1472 014c 49       		.uleb128 0x49
 1473 014d 13       		.uleb128 0x13
 1474 014e 02       		.uleb128 0x2
 1475 014f 18       		.uleb128 0x18
 1476 0150 00       		.byte	0
ARM GAS  /tmp/ccLvi7Z8.s 			page 27


 1477 0151 00       		.byte	0
 1478 0152 1B       		.uleb128 0x1b
 1479 0153 2E       		.uleb128 0x2e
 1480 0154 01       		.byte	0x1
 1481 0155 3F       		.uleb128 0x3f
 1482 0156 19       		.uleb128 0x19
 1483 0157 03       		.uleb128 0x3
 1484 0158 0E       		.uleb128 0xe
 1485 0159 3A       		.uleb128 0x3a
 1486 015a 0B       		.uleb128 0xb
 1487 015b 3B       		.uleb128 0x3b
 1488 015c 0B       		.uleb128 0xb
 1489 015d 27       		.uleb128 0x27
 1490 015e 19       		.uleb128 0x19
 1491 015f 11       		.uleb128 0x11
 1492 0160 01       		.uleb128 0x1
 1493 0161 12       		.uleb128 0x12
 1494 0162 06       		.uleb128 0x6
 1495 0163 40       		.uleb128 0x40
 1496 0164 18       		.uleb128 0x18
 1497 0165 9742     		.uleb128 0x2117
 1498 0167 19       		.uleb128 0x19
 1499 0168 01       		.uleb128 0x1
 1500 0169 13       		.uleb128 0x13
 1501 016a 00       		.byte	0
 1502 016b 00       		.byte	0
 1503 016c 1C       		.uleb128 0x1c
 1504 016d 0B       		.uleb128 0xb
 1505 016e 01       		.byte	0x1
 1506 016f 11       		.uleb128 0x11
 1507 0170 01       		.uleb128 0x1
 1508 0171 12       		.uleb128 0x12
 1509 0172 06       		.uleb128 0x6
 1510 0173 00       		.byte	0
 1511 0174 00       		.byte	0
 1512 0175 1D       		.uleb128 0x1d
 1513 0176 34       		.uleb128 0x34
 1514 0177 00       		.byte	0
 1515 0178 03       		.uleb128 0x3
 1516 0179 0E       		.uleb128 0xe
 1517 017a 3A       		.uleb128 0x3a
 1518 017b 0B       		.uleb128 0xb
 1519 017c 3B       		.uleb128 0x3b
 1520 017d 0B       		.uleb128 0xb
 1521 017e 49       		.uleb128 0x49
 1522 017f 13       		.uleb128 0x13
 1523 0180 02       		.uleb128 0x2
 1524 0181 18       		.uleb128 0x18
 1525 0182 00       		.byte	0
 1526 0183 00       		.byte	0
 1527 0184 1E       		.uleb128 0x1e
 1528 0185 34       		.uleb128 0x34
 1529 0186 00       		.byte	0
 1530 0187 03       		.uleb128 0x3
 1531 0188 0E       		.uleb128 0xe
 1532 0189 3A       		.uleb128 0x3a
 1533 018a 0B       		.uleb128 0xb
ARM GAS  /tmp/ccLvi7Z8.s 			page 28


 1534 018b 3B       		.uleb128 0x3b
 1535 018c 05       		.uleb128 0x5
 1536 018d 49       		.uleb128 0x49
 1537 018e 13       		.uleb128 0x13
 1538 018f 3F       		.uleb128 0x3f
 1539 0190 19       		.uleb128 0x19
 1540 0191 3C       		.uleb128 0x3c
 1541 0192 19       		.uleb128 0x19
 1542 0193 00       		.byte	0
 1543 0194 00       		.byte	0
 1544 0195 1F       		.uleb128 0x1f
 1545 0196 34       		.uleb128 0x34
 1546 0197 00       		.byte	0
 1547 0198 03       		.uleb128 0x3
 1548 0199 0E       		.uleb128 0xe
 1549 019a 3A       		.uleb128 0x3a
 1550 019b 0B       		.uleb128 0xb
 1551 019c 3B       		.uleb128 0x3b
 1552 019d 0B       		.uleb128 0xb
 1553 019e 49       		.uleb128 0x49
 1554 019f 13       		.uleb128 0x13
 1555 01a0 3F       		.uleb128 0x3f
 1556 01a1 19       		.uleb128 0x19
 1557 01a2 02       		.uleb128 0x2
 1558 01a3 18       		.uleb128 0x18
 1559 01a4 00       		.byte	0
 1560 01a5 00       		.byte	0
 1561 01a6 00       		.byte	0
 1562              		.section	.debug_aranges,"",%progbits
 1563 0000 3C000000 		.4byte	0x3c
 1564 0004 0200     		.2byte	0x2
 1565 0006 00000000 		.4byte	.Ldebug_info0
 1566 000a 04       		.byte	0x4
 1567 000b 00       		.byte	0
 1568 000c 0000     		.2byte	0
 1569 000e 0000     		.2byte	0
 1570 0010 00000000 		.4byte	.LFB118
 1571 0014 10000000 		.4byte	.LFE118-.LFB118
 1572 0018 00000000 		.4byte	.LFB119
 1573 001c 4E000000 		.4byte	.LFE119-.LFB119
 1574 0020 00000000 		.4byte	.LFB120
 1575 0024 38000000 		.4byte	.LFE120-.LFB120
 1576 0028 00000000 		.4byte	.LFB121
 1577 002c 34020000 		.4byte	.LFE121-.LFB121
 1578 0030 00000000 		.4byte	.LFB122
 1579 0034 E4000000 		.4byte	.LFE122-.LFB122
 1580 0038 00000000 		.4byte	0
 1581 003c 00000000 		.4byte	0
 1582              		.section	.debug_ranges,"",%progbits
 1583              	.Ldebug_ranges0:
 1584 0000 00000000 		.4byte	.LFB118
 1585 0004 10000000 		.4byte	.LFE118
 1586 0008 00000000 		.4byte	.LFB119
 1587 000c 4E000000 		.4byte	.LFE119
 1588 0010 00000000 		.4byte	.LFB120
 1589 0014 38000000 		.4byte	.LFE120
 1590 0018 00000000 		.4byte	.LFB121
ARM GAS  /tmp/ccLvi7Z8.s 			page 29


 1591 001c 34020000 		.4byte	.LFE121
 1592 0020 00000000 		.4byte	.LFB122
 1593 0024 E4000000 		.4byte	.LFE122
 1594 0028 00000000 		.4byte	0
 1595 002c 00000000 		.4byte	0
 1596              		.section	.debug_line,"",%progbits
 1597              	.Ldebug_line0:
 1598 0000 9F020000 		.section	.debug_str,"MS",%progbits,1
 1598      0200FF01 
 1598      00000201 
 1598      FB0E0D00 
 1598      01010101 
 1599              	.LASF43:
 1600 0000 45585443 		.ascii	"EXTConfig\000"
 1600      6F6E6669 
 1600      6700
 1601              	.LASF30:
 1602 000a 53595343 		.ascii	"SYSCFG_TypeDef\000"
 1602      46475F54 
 1602      79706544 
 1602      656600
 1603              	.LASF23:
 1604 0019 52545352 		.ascii	"RTSR2\000"
 1604      3200
 1605              	.LASF51:
 1606 001f 6578745F 		.ascii	"ext_lld_channel_disable\000"
 1606      6C6C645F 
 1606      6368616E 
 1606      6E656C5F 
 1606      64697361 
 1607              	.LASF32:
 1608 0037 4558545F 		.ascii	"EXT_STOP\000"
 1608      53544F50 
 1608      00
 1609              	.LASF36:
 1610 0040 73746174 		.ascii	"state\000"
 1610      6500
 1611              	.LASF3:
 1612 0046 73686F72 		.ascii	"short int\000"
 1612      7420696E 
 1612      7400
 1613              	.LASF14:
 1614 0050 73697A65 		.ascii	"sizetype\000"
 1614      74797065 
 1614      00
 1615              	.LASF33:
 1616 0059 4558545F 		.ascii	"EXT_ACTIVE\000"
 1616      41435449 
 1616      564500
 1617              	.LASF7:
 1618 0064 5F5F7569 		.ascii	"__uint32_t\000"
 1618      6E743332 
 1618      5F7400
 1619              	.LASF40:
 1620 006f 6D6F6465 		.ascii	"mode\000"
 1620      00
 1621              	.LASF27:
ARM GAS  /tmp/ccLvi7Z8.s 			page 30


 1622 0074 43464752 		.ascii	"CFGR1\000"
 1622      3100
 1623              	.LASF54:
 1624 007a 474E5520 		.ascii	"GNU C 4.9.3 20141119 (release) [ARM/embedded-4_9-br"
 1624      4320342E 
 1624      392E3320 
 1624      32303134 
 1624      31313139 
 1625 00ad 616E6368 		.ascii	"anch revision 218278] -mcpu=cortex-m4 -mfloat-abi=h"
 1625      20726576 
 1625      6973696F 
 1625      6E203231 
 1625      38323738 
 1626 00e0 61726420 		.ascii	"ard -mfpu=fpv4-sp-d16 -mno-thumb-interwork -mthumb "
 1626      2D6D6670 
 1626      753D6670 
 1626      76342D73 
 1626      702D6431 
 1627 0113 2D676764 		.ascii	"-ggdb -O0 -fomit-frame-pointer -falign-functions=16"
 1627      62202D4F 
 1627      30202D66 
 1627      6F6D6974 
 1627      2D667261 
 1628 0146 202D6666 		.ascii	" -ffunction-sections -fdata-sections -fno-common -f"
 1628      756E6374 
 1628      696F6E2D 
 1628      73656374 
 1628      696F6E73 
 1629 0179 73696E67 		.ascii	"single-precision-constant\000"
 1629      6C652D70 
 1629      72656369 
 1629      73696F6E 
 1629      2D636F6E 
 1630              	.LASF37:
 1631 0193 636F6E66 		.ascii	"config\000"
 1631      696700
 1632              	.LASF55:
 1633 019a 2F686F6D 		.ascii	"/home/denny/r2p-sdk/core/ChibiOS/os/hal/platforms/S"
 1633      652F6465 
 1633      6E6E792F 
 1633      7232702D 
 1633      73646B2F 
 1634 01cd 544D3332 		.ascii	"TM32/ext_lld.c\000"
 1634      2F657874 
 1634      5F6C6C64 
 1634      2E6300
 1635              	.LASF28:
 1636 01dc 45585449 		.ascii	"EXTICR\000"
 1636      435200
 1637              	.LASF42:
 1638 01e3 6368616E 		.ascii	"channels\000"
 1638      6E656C73 
 1638      00
 1639              	.LASF25:
 1640 01ec 53574945 		.ascii	"SWIER2\000"
 1640      523200
 1641              	.LASF9:
ARM GAS  /tmp/ccLvi7Z8.s 			page 31


 1642 01f3 6C6F6E67 		.ascii	"long long int\000"
 1642      206C6F6E 
 1642      6720696E 
 1642      7400
 1643              	.LASF26:
 1644 0201 45585449 		.ascii	"EXTI_TypeDef\000"
 1644      5F547970 
 1644      65446566 
 1644      00
 1645              	.LASF5:
 1646 020e 6C6F6E67 		.ascii	"long int\000"
 1646      20696E74 
 1646      00
 1647              	.LASF46:
 1648 0217 65787470 		.ascii	"extp\000"
 1648      00
 1649              	.LASF39:
 1650 021c 65787463 		.ascii	"extcallback_t\000"
 1650      616C6C62 
 1650      61636B5F 
 1650      7400
 1651              	.LASF45:
 1652 022a 6578745F 		.ascii	"ext_lld_stop\000"
 1652      6C6C645F 
 1652      73746F70 
 1652      00
 1653              	.LASF47:
 1654 0237 6578745F 		.ascii	"ext_lld_channel_enable\000"
 1654      6C6C645F 
 1654      6368616E 
 1654      6E656C5F 
 1654      656E6162 
 1655              	.LASF2:
 1656 024e 756E7369 		.ascii	"unsigned char\000"
 1656      676E6564 
 1656      20636861 
 1656      7200
 1657              	.LASF31:
 1658 025c 4558545F 		.ascii	"EXT_UNINIT\000"
 1658      554E494E 
 1658      495400
 1659              	.LASF1:
 1660 0267 7369676E 		.ascii	"signed char\000"
 1660      65642063 
 1660      68617200 
 1661              	.LASF10:
 1662 0273 6C6F6E67 		.ascii	"long long unsigned int\000"
 1662      206C6F6E 
 1662      6720756E 
 1662      7369676E 
 1662      65642069 
 1663              	.LASF12:
 1664 028a 75696E74 		.ascii	"uint32_t\000"
 1664      33325F74 
 1664      00
 1665              	.LASF0:
 1666 0293 756E7369 		.ascii	"unsigned int\000"
ARM GAS  /tmp/ccLvi7Z8.s 			page 32


 1666      676E6564 
 1666      20696E74 
 1666      00
 1667              	.LASF29:
 1668 02a0 43464752 		.ascii	"CFGR2\000"
 1668      3200
 1669              	.LASF17:
 1670 02a6 46545352 		.ascii	"FTSR\000"
 1670      00
 1671              	.LASF4:
 1672 02ab 73686F72 		.ascii	"short unsigned int\000"
 1672      7420756E 
 1672      7369676E 
 1672      65642069 
 1672      6E7400
 1673              	.LASF41:
 1674 02be 45585443 		.ascii	"EXTChannelConfig\000"
 1674      68616E6E 
 1674      656C436F 
 1674      6E666967 
 1674      00
 1675              	.LASF15:
 1676 02cf 63686172 		.ascii	"char\000"
 1676      00
 1677              	.LASF11:
 1678 02d4 696E7433 		.ascii	"int32_t\000"
 1678      325F7400 
 1679              	.LASF53:
 1680 02dc 45585444 		.ascii	"EXTD1\000"
 1680      3100
 1681              	.LASF16:
 1682 02e2 52545352 		.ascii	"RTSR\000"
 1682      00
 1683              	.LASF13:
 1684 02e7 5F426F6F 		.ascii	"_Bool\000"
 1684      6C00
 1685              	.LASF48:
 1686 02ed 6368616E 		.ascii	"channel\000"
 1686      6E656C00 
 1687              	.LASF22:
 1688 02f5 454D5232 		.ascii	"EMR2\000"
 1688      00
 1689              	.LASF19:
 1690 02fa 52455345 		.ascii	"RESERVED1\000"
 1690      52564544 
 1690      3100
 1691              	.LASF20:
 1692 0304 52455345 		.ascii	"RESERVED2\000"
 1692      52564544 
 1692      3200
 1693              	.LASF50:
 1694 030e 706F7274 		.ascii	"port\000"
 1694      00
 1695              	.LASF8:
 1696 0313 6C6F6E67 		.ascii	"long unsigned int\000"
 1696      20756E73 
 1696      69676E65 
ARM GAS  /tmp/ccLvi7Z8.s 			page 33


 1696      6420696E 
 1696      7400
 1697              	.LASF21:
 1698 0325 494D5232 		.ascii	"IMR2\000"
 1698      00
 1699              	.LASF34:
 1700 032a 65787473 		.ascii	"extstate_t\000"
 1700      74617465 
 1700      5F7400
 1701              	.LASF44:
 1702 0335 6578745F 		.ascii	"ext_lld_start\000"
 1702      6C6C645F 
 1702      73746172 
 1702      7400
 1703              	.LASF49:
 1704 0343 6D61736B 		.ascii	"mask\000"
 1704      00
 1705              	.LASF6:
 1706 0348 5F5F696E 		.ascii	"__int32_t\000"
 1706      7433325F 
 1706      7400
 1707              	.LASF24:
 1708 0352 46545352 		.ascii	"FTSR2\000"
 1708      3200
 1709              	.LASF38:
 1710 0358 65787063 		.ascii	"expchannel_t\000"
 1710      68616E6E 
 1710      656C5F74 
 1710      00
 1711              	.LASF35:
 1712 0365 45585444 		.ascii	"EXTDriver\000"
 1712      72697665 
 1712      7200
 1713              	.LASF52:
 1714 036f 49544D5F 		.ascii	"ITM_RxBuffer\000"
 1714      52784275 
 1714      66666572 
 1714      00
 1715              	.LASF56:
 1716 037c 6578745F 		.ascii	"ext_lld_init\000"
 1716      6C6C645F 
 1716      696E6974 
 1716      00
 1717              	.LASF18:
 1718 0389 53574945 		.ascii	"SWIER\000"
 1718      5200
 1719              		.ident	"GCC: (GNU Tools for ARM Embedded Processors) 4.9.3 20141119 (release) [ARM/embedded-4_9-br
ARM GAS  /tmp/ccLvi7Z8.s 			page 34


DEFINED SYMBOLS
                            *ABS*:00000000 ext_lld.c
     /tmp/ccLvi7Z8.s:25     .bss.EXTD1:00000000 EXTD1
     /tmp/ccLvi7Z8.s:22     .bss.EXTD1:00000000 $d
     /tmp/ccLvi7Z8.s:28     .text.ext_lld_init:00000000 $t
     /tmp/ccLvi7Z8.s:34     .text.ext_lld_init:00000000 ext_lld_init
     /tmp/ccLvi7Z8.s:53     .text.ext_lld_init:0000000c $d
     /tmp/ccLvi7Z8.s:58     .text.ext_lld_start:00000000 $t
     /tmp/ccLvi7Z8.s:64     .text.ext_lld_start:00000000 ext_lld_start
     /tmp/ccLvi7Z8.s:187    .text.ext_lld_channel_enable:00000000 ext_lld_channel_enable
     /tmp/ccLvi7Z8.s:507    .text.ext_lld_channel_disable:00000000 ext_lld_channel_disable
     /tmp/ccLvi7Z8.s:126    .text.ext_lld_stop:00000000 $t
     /tmp/ccLvi7Z8.s:132    .text.ext_lld_stop:00000000 ext_lld_stop
     /tmp/ccLvi7Z8.s:176    .text.ext_lld_stop:00000034 $d
     /tmp/ccLvi7Z8.s:181    .text.ext_lld_channel_enable:00000000 $t
     /tmp/ccLvi7Z8.s:495    .text.ext_lld_channel_enable:0000022c $d
     /tmp/ccLvi7Z8.s:501    .text.ext_lld_channel_disable:00000000 $t
     /tmp/ccLvi7Z8.s:635    .text.ext_lld_channel_disable:000000e0 $d
                     .debug_frame:00000010 $d
     /tmp/ccLvi7Z8.s:180    .text.ext_lld_stop:00000038 $t
     /tmp/ccLvi7Z8.s:500    .text.ext_lld_channel_enable:00000234 $t
     /tmp/ccLvi7Z8.s:639    .text.ext_lld_channel_disable:000000e4 $t

UNDEFINED SYMBOLS
extObjectInit
ext_lld_exti_irq_enable
ext_lld_exti_irq_disable
