ARM GAS  /tmp/cctXsVfQ.s 			page 1


   1              		.syntax unified
   2              		.cpu cortex-m4
   3              		.eabi_attribute 27, 3
   4              		.eabi_attribute 28, 1
   5              		.fpu fpv4-sp-d16
   6              		.eabi_attribute 20, 1
   7              		.eabi_attribute 21, 1
   8              		.eabi_attribute 23, 3
   9              		.eabi_attribute 24, 1
  10              		.eabi_attribute 25, 1
  11              		.eabi_attribute 26, 1
  12              		.eabi_attribute 30, 6
  13              		.eabi_attribute 34, 1
  14              		.eabi_attribute 18, 4
  15              		.thumb
  16              		.file	"LocalPublisher.cpp"
  17              		.text
  18              	.Ltext0:
  19              		.cfi_sections	.debug_frame
  20              		.section	.text._ZN3r2p14LocalPublisherC2Ev,"ax",%progbits
  21              		.align	2
  22              		.p2align 4,,15
  23              		.global	_ZN3r2p14LocalPublisherC2Ev
  24              		.thumb
  25              		.thumb_func
  26              		.type	_ZN3r2p14LocalPublisherC2Ev, %function
  27              	_ZN3r2p14LocalPublisherC2Ev:
  28              	.LFB325:
  29              		.file 1 "/home/denny/r2p-sdk/core/Middleware/src/LocalPublisher.cpp"
  30              		.loc 1 7 0
  31              		.cfi_startproc
  32              		@ args = 0, pretend = 0, frame = 8
  33              		@ frame_needed = 0, uses_anonymous_args = 0
  34 0000 00B5     		push	{lr}
  35              		.cfi_def_cfa_offset 4
  36              		.cfi_offset 14, -4
  37 0002 83B0     		sub	sp, sp, #12
  38              		.cfi_def_cfa_offset 16
  39 0004 0190     		str	r0, [sp, #4]
  40              	.LBB2:
  41              		.loc 1 9 0
  42 0006 019B     		ldr	r3, [sp, #4]
  43 0008 1846     		mov	r0, r3
  44 000a FFF7FEFF 		bl	_ZN3r2p13BasePublisherC2Ev
  45 000e 019B     		ldr	r3, [sp, #4]
  46 0010 064A     		ldr	r2, .L4
  47 0012 1A60     		str	r2, [r3]
  48 0014 019B     		ldr	r3, [sp, #4]
  49 0016 0833     		adds	r3, r3, #8
  50 0018 1846     		mov	r0, r3
  51 001a 0199     		ldr	r1, [sp, #4]
  52 001c FFF7FEFF 		bl	_ZN3r2p10StaticListINS_14LocalPublisherEE4LinkC1ERS1_
  53              	.LBE2:
  54              		.loc 1 10 0
  55 0020 019B     		ldr	r3, [sp, #4]
  56 0022 1846     		mov	r0, r3
  57 0024 03B0     		add	sp, sp, #12
ARM GAS  /tmp/cctXsVfQ.s 			page 2


  58              		.cfi_def_cfa_offset 4
  59              		@ sp needed
  60 0026 5DF804FB 		ldr	pc, [sp], #4
  61              	.L5:
  62 002a 00BF     		.align	2
  63              	.L4:
  64 002c 08000000 		.word	_ZTVN3r2p14LocalPublisherE+8
  65              		.cfi_endproc
  66              	.LFE325:
  67              		.size	_ZN3r2p14LocalPublisherC2Ev, .-_ZN3r2p14LocalPublisherC2Ev
  68              		.global	_ZN3r2p14LocalPublisherC1Ev
  69              		.thumb_set _ZN3r2p14LocalPublisherC1Ev,_ZN3r2p14LocalPublisherC2Ev
  70              		.section	.text._ZN3r2p14LocalPublisherD2Ev,"ax",%progbits
  71              		.align	2
  72              		.p2align 4,,15
  73              		.global	_ZN3r2p14LocalPublisherD2Ev
  74              		.thumb
  75              		.thumb_func
  76              		.type	_ZN3r2p14LocalPublisherD2Ev, %function
  77              	_ZN3r2p14LocalPublisherD2Ev:
  78              	.LFB328:
  79              		.loc 1 13 0
  80              		.cfi_startproc
  81              		@ args = 0, pretend = 0, frame = 8
  82              		@ frame_needed = 0, uses_anonymous_args = 0
  83 0000 00B5     		push	{lr}
  84              		.cfi_def_cfa_offset 4
  85              		.cfi_offset 14, -4
  86 0002 83B0     		sub	sp, sp, #12
  87              		.cfi_def_cfa_offset 16
  88 0004 0190     		str	r0, [sp, #4]
  89              	.LBB3:
  90              		.loc 1 13 0
  91 0006 019B     		ldr	r3, [sp, #4]
  92 0008 084A     		ldr	r2, .L10
  93 000a 1A60     		str	r2, [r3]
  94 000c 019B     		ldr	r3, [sp, #4]
  95 000e 1846     		mov	r0, r3
  96 0010 FFF7FEFF 		bl	_ZN3r2p13BasePublisherD2Ev
  97              	.LBE3:
  98 0014 0023     		movs	r3, #0
  99 0016 002B     		cmp	r3, #0
 100 0018 02D0     		beq	.L8
 101              		.loc 1 13 0 is_stmt 0 discriminator 2
 102 001a 0198     		ldr	r0, [sp, #4]
 103 001c FFF7FEFF 		bl	_ZdlPv
 104              	.L8:
 105              		.loc 1 13 0 discriminator 4
 106 0020 019B     		ldr	r3, [sp, #4]
 107 0022 1846     		mov	r0, r3
 108 0024 03B0     		add	sp, sp, #12
 109              		.cfi_def_cfa_offset 4
 110              		@ sp needed
 111 0026 5DF804FB 		ldr	pc, [sp], #4
 112              	.L11:
 113 002a 00BF     		.align	2
 114              	.L10:
ARM GAS  /tmp/cctXsVfQ.s 			page 3


 115 002c 08000000 		.word	_ZTVN3r2p14LocalPublisherE+8
 116              		.cfi_endproc
 117              	.LFE328:
 118              		.size	_ZN3r2p14LocalPublisherD2Ev, .-_ZN3r2p14LocalPublisherD2Ev
 119              		.global	_ZN3r2p14LocalPublisherD1Ev
 120              		.thumb_set _ZN3r2p14LocalPublisherD1Ev,_ZN3r2p14LocalPublisherD2Ev
 121              		.section	.text._ZN3r2p14LocalPublisherD0Ev,"ax",%progbits
 122              		.align	2
 123              		.p2align 4,,15
 124              		.global	_ZN3r2p14LocalPublisherD0Ev
 125              		.thumb
 126              		.thumb_func
 127              		.type	_ZN3r2p14LocalPublisherD0Ev, %function
 128              	_ZN3r2p14LocalPublisherD0Ev:
 129              	.LFB330:
 130              		.loc 1 13 0 is_stmt 1
 131              		.cfi_startproc
 132              		@ args = 0, pretend = 0, frame = 8
 133              		@ frame_needed = 0, uses_anonymous_args = 0
 134 0000 00B5     		push	{lr}
 135              		.cfi_def_cfa_offset 4
 136              		.cfi_offset 14, -4
 137 0002 83B0     		sub	sp, sp, #12
 138              		.cfi_def_cfa_offset 16
 139 0004 0190     		str	r0, [sp, #4]
 140              		.loc 1 13 0
 141 0006 0198     		ldr	r0, [sp, #4]
 142 0008 FFF7FEFF 		bl	_ZN3r2p14LocalPublisherD2Ev
 143 000c 0198     		ldr	r0, [sp, #4]
 144 000e FFF7FEFF 		bl	_ZdlPv
 145 0012 019B     		ldr	r3, [sp, #4]
 146 0014 1846     		mov	r0, r3
 147 0016 03B0     		add	sp, sp, #12
 148              		.cfi_def_cfa_offset 4
 149              		@ sp needed
 150 0018 5DF804FB 		ldr	pc, [sp], #4
 151              		.cfi_endproc
 152              	.LFE330:
 153              		.size	_ZN3r2p14LocalPublisherD0Ev, .-_ZN3r2p14LocalPublisherD0Ev
 154 001c AFF30080 		.section	.text._ZN3r2p10StaticListINS_14LocalPublisherEE4LinkC2ERS1_,"axG",%progbits,_ZN3r2p10Stat
 155              		.align	2
 156              		.p2align 4,,15
 157              		.weak	_ZN3r2p10StaticListINS_14LocalPublisherEE4LinkC2ERS1_
 158              		.thumb
 159              		.thumb_func
 160              		.type	_ZN3r2p10StaticListINS_14LocalPublisherEE4LinkC2ERS1_, %function
 161              	_ZN3r2p10StaticListINS_14LocalPublisherEE4LinkC2ERS1_:
 162              	.LFB346:
 163              		.file 2 "/home/denny/r2p-sdk/core/Middleware/include/r2p/StaticList.hpp"
 164              		.loc 2 21 0
 165              		.cfi_startproc
 166              		@ args = 0, pretend = 0, frame = 8
 167              		@ frame_needed = 0, uses_anonymous_args = 0
 168              		@ link register save eliminated.
 169 0000 82B0     		sub	sp, sp, #8
 170              		.cfi_def_cfa_offset 8
 171 0002 0190     		str	r0, [sp, #4]
ARM GAS  /tmp/cctXsVfQ.s 			page 4


 172 0004 0091     		str	r1, [sp]
 173              	.LBB4:
 174              		.loc 2 21 0
 175 0006 019B     		ldr	r3, [sp, #4]
 176 0008 0022     		movs	r2, #0
 177 000a 1A60     		str	r2, [r3]
 178 000c 019B     		ldr	r3, [sp, #4]
 179 000e 009A     		ldr	r2, [sp]
 180 0010 5A60     		str	r2, [r3, #4]
 181              	.LBE4:
 182 0012 019B     		ldr	r3, [sp, #4]
 183 0014 1846     		mov	r0, r3
 184 0016 02B0     		add	sp, sp, #8
 185              		.cfi_def_cfa_offset 0
 186              		@ sp needed
 187 0018 7047     		bx	lr
 188              		.cfi_endproc
 189              	.LFE346:
 190              		.size	_ZN3r2p10StaticListINS_14LocalPublisherEE4LinkC2ERS1_, .-_ZN3r2p10StaticListINS_14LocalPubli
 191              		.weak	_ZN3r2p10StaticListINS_14LocalPublisherEE4LinkC1ERS1_
 192              		.thumb_set _ZN3r2p10StaticListINS_14LocalPublisherEE4LinkC1ERS1_,_ZN3r2p10StaticListINS_14LocalPub
 193              		.weak	_ZTVN3r2p14LocalPublisherE
 194 001a 00BFAFF3 		.section	.rodata._ZTVN3r2p14LocalPublisherE,"aG",%progbits,_ZTVN3r2p14LocalPublisherE,comdat
 194      0080
 195              		.align	3
 196              		.type	_ZTVN3r2p14LocalPublisherE, %object
 197              		.size	_ZTVN3r2p14LocalPublisherE, 16
 198              	_ZTVN3r2p14LocalPublisherE:
 199 0000 00000000 		.word	0
 200 0004 00000000 		.word	0
 201 0008 00000000 		.word	__cxa_pure_virtual
 202 000c 00000000 		.word	__cxa_pure_virtual
 203              		.text
 204              	.Letext0:
 205              		.file 3 "/home/denny/r2p-sdk/tools/gcc-arm-none-eabi-4_9-2014q4/lib/gcc/arm-none-eabi/4.9.3/includ
 206              		.file 4 "/home/denny/r2p-sdk/tools/gcc-arm-none-eabi-4_9-2014q4/arm-none-eabi/include/machine/_def
 207              		.file 5 "/home/denny/r2p-sdk/tools/gcc-arm-none-eabi-4_9-2014q4/arm-none-eabi/include/c++/4.9.3/cs
 208              		.file 6 "/home/denny/r2p-sdk/tools/gcc-arm-none-eabi-4_9-2014q4/arm-none-eabi/include/string.h"
 209              		.file 7 "<built-in>"
 210              		.file 8 "/home/denny/r2p-sdk/core/Middleware/include/r2p/Uncopyable.hpp"
 211              		.file 9 "/home/denny/r2p-sdk/core/Middleware/include/r2p/Message.hpp"
 212              		.file 10 "/home/denny/r2p-sdk/core/Middleware/port/chibios/include/r2p/impl/MemoryPool_.hpp"
 213              		.file 11 "/home/denny/r2p-sdk/core/Middleware/include/r2p/Time.hpp"
 214              		.file 12 "/home/denny/r2p-sdk/core/Middleware/include/r2p/Topic.hpp"
 215              		.file 13 "/home/denny/r2p-sdk/core/Middleware/include/r2p/LocalPublisher.hpp"
 216              		.file 14 "/home/denny/r2p-sdk/core/Middleware/include/r2p/BasePublisher.hpp"
 217              		.file 15 "/home/denny/r2p-sdk/tools/gcc-arm-none-eabi-4_9-2014q4/arm-none-eabi/include/stdint.h"
 218              		.file 16 "/home/denny/r2p-sdk/core/ChibiOS/os/ports/GCC/ARMCMx/chtypes.h"
 219              		.file 17 "/home/denny/r2p-sdk/core/ChibiOS/os/kernel/include/chlists.h"
 220              		.file 18 "/home/denny/r2p-sdk/core/ChibiOS/os/kernel/include/chthreads.h"
 221              		.file 19 "/home/denny/r2p-sdk/core/ChibiOS/os/ports/GCC/ARMCMx/chcore_v7m.h"
 222              		.file 20 "/home/denny/r2p-sdk/core/ChibiOS/os/kernel/include/chschd.h"
 223              		.file 21 "/home/denny/r2p-sdk/core/ChibiOS/os/kernel/include/chmtx.h"
 224              		.file 22 "/home/denny/r2p-sdk/core/ChibiOS/os/kernel/include/chmemcore.h"
 225              		.file 23 "/home/denny/r2p-sdk/core/ChibiOS/os/kernel/include/chmempools.h"