ARM GAS  /tmp/ccWSXIBF.s 			page 1


   1              		.syntax unified
   2              		.cpu cortex-m4
   3              		.eabi_attribute 27, 3
   4              		.eabi_attribute 28, 1
   5              		.fpu fpv4-sp-d16
   6              		.eabi_attribute 20, 1
   7              		.eabi_attribute 21, 1
   8              		.eabi_attribute 23, 3
   9              		.eabi_attribute 24, 1
  10              		.eabi_attribute 25, 1
  11              		.eabi_attribute 26, 1
  12              		.eabi_attribute 30, 6
  13              		.eabi_attribute 34, 1
  14              		.eabi_attribute 18, 4
  15              		.thumb
  16              		.file	"main.cpp"
  17              		.text
  18              	.Ltext0:
  19              		.cfi_sections	.debug_frame
  20              		.section	.text._ZN3r2p10UncopyableD2Ev,"axG",%progbits,_ZN3r2p10UncopyableD5Ev,comdat
  21              		.align	2
  22              		.p2align 4,,15
  23              		.weak	_ZN3r2p10UncopyableD2Ev
  24              		.thumb
  25              		.thumb_func
  26              		.type	_ZN3r2p10UncopyableD2Ev, %function
  27              	_ZN3r2p10UncopyableD2Ev:
  28              	.LFB127:
  29              		.file 1 "/home/denny/r2p-sdk/core/Middleware/include/r2p/Uncopyable.hpp"
  30              		.loc 1 21 0
  31              		.cfi_startproc
  32              		@ args = 0, pretend = 0, frame = 8
  33              		@ frame_needed = 0, uses_anonymous_args = 0
  34              		@ link register save eliminated.
  35 0000 82B0     		sub	sp, sp, #8
  36              		.cfi_def_cfa_offset 8
  37 0002 0190     		str	r0, [sp, #4]
  38              		.loc 1 21 0
  39 0004 019B     		ldr	r3, [sp, #4]
  40 0006 1846     		mov	r0, r3
  41 0008 02B0     		add	sp, sp, #8
  42              		.cfi_def_cfa_offset 0
  43              		@ sp needed
  44 000a 7047     		bx	lr
  45              		.cfi_endproc
  46              	.LFE127:
  47              		.size	_ZN3r2p10UncopyableD2Ev, .-_ZN3r2p10UncopyableD2Ev
  48              		.weak	_ZN3r2p10UncopyableD1Ev
  49              		.thumb_set _ZN3r2p10UncopyableD1Ev,_ZN3r2p10UncopyableD2Ev
  50 000c AFF30080 		.section	.text._ZNK3r2p4Time8to_s_rawEv,"axG",%progbits,_ZNK3r2p4Time8to_s_rawEv,comdat
  51              		.align	2
  52              		.p2align 4,,15
  53              		.weak	_ZNK3r2p4Time8to_s_rawEv
  54              		.thumb
  55              		.thumb_func
  56              		.type	_ZNK3r2p4Time8to_s_rawEv, %function
  57              	_ZNK3r2p4Time8to_s_rawEv:
ARM GAS  /tmp/ccWSXIBF.s 			page 2


  58              	.LFB256:
  59              		.file 2 "/home/denny/r2p-sdk/core/Middleware/include/r2p/Time.hpp"
  60              		.loc 2 89 0
  61              		.cfi_startproc
  62              		@ args = 0, pretend = 0, frame = 8
  63              		@ frame_needed = 0, uses_anonymous_args = 0
  64              		@ link register save eliminated.
  65 0000 82B0     		sub	sp, sp, #8
  66              		.cfi_def_cfa_offset 8
  67 0002 0190     		str	r0, [sp, #4]
  68              		.loc 2 91 0
  69 0004 019B     		ldr	r3, [sp, #4]
  70 0006 1B68     		ldr	r3, [r3]
  71 0008 044A     		ldr	r2, .L6
  72 000a 82FB0312 		smull	r1, r2, r2, r3
  73 000e 9214     		asrs	r2, r2, #18
  74 0010 DB17     		asrs	r3, r3, #31
  75 0012 D31A     		subs	r3, r2, r3
  76              		.loc 2 92 0
  77 0014 1846     		mov	r0, r3
  78 0016 02B0     		add	sp, sp, #8
  79              		.cfi_def_cfa_offset 0
  80              		@ sp needed
  81 0018 7047     		bx	lr
  82              	.L7:
  83 001a 00BF     		.align	2
  84              	.L6:
  85 001c 83DE1B43 		.word	1125899907
  86              		.cfi_endproc
  87              	.LFE256:
  88              		.size	_ZNK3r2p4Time8to_s_rawEv, .-_ZNK3r2p4Time8to_s_rawEv
  89              		.section	.text._ZN3r2p4TimeaSERKS0_,"axG",%progbits,_ZN3r2p4TimeaSERKS0_,comdat
  90              		.align	2
  91              		.p2align 4,,15
  92              		.weak	_ZN3r2p4TimeaSERKS0_
  93              		.thumb
  94              		.thumb_func
  95              		.type	_ZN3r2p4TimeaSERKS0_, %function
  96              	_ZN3r2p4TimeaSERKS0_:
  97              	.LFB262:
  98              		.loc 2 131 0
  99              		.cfi_startproc
 100              		@ args = 0, pretend = 0, frame = 8
 101              		@ frame_needed = 0, uses_anonymous_args = 0
 102              		@ link register save eliminated.
 103 0000 82B0     		sub	sp, sp, #8
 104              		.cfi_def_cfa_offset 8
 105 0002 0190     		str	r0, [sp, #4]
 106 0004 0091     		str	r1, [sp]
 107              		.loc 2 133 0
 108 0006 009B     		ldr	r3, [sp]
 109 0008 1A68     		ldr	r2, [r3]
 110 000a 019B     		ldr	r3, [sp, #4]
 111 000c 1A60     		str	r2, [r3]
 112              		.loc 2 134 0
 113 000e 019B     		ldr	r3, [sp, #4]
 114              		.loc 2 135 0
ARM GAS  /tmp/ccWSXIBF.s 			page 3


 115 0010 1846     		mov	r0, r3
 116 0012 02B0     		add	sp, sp, #8
 117              		.cfi_def_cfa_offset 0
 118              		@ sp needed
 119 0014 7047     		bx	lr
 120              		.cfi_endproc
 121              	.LFE262:
 122              		.size	_ZN3r2p4TimeaSERKS0_, .-_ZN3r2p4TimeaSERKS0_
 123 0016 00BFAFF3 		.section	.text._ZN3r2p4Time2msEl,"axG",%progbits,_ZN3r2p4Time2msEl,comdat
 123      0080AFF3 
 123      0080
 124              		.align	2
 125              		.p2align 4,,15
 126              		.weak	_ZN3r2p4Time2msEl
 127              		.thumb
 128              		.thumb_func
 129              		.type	_ZN3r2p4Time2msEl, %function
 130              	_ZN3r2p4Time2msEl:
 131              	.LFB276:
 132              		.loc 2 184 0
 133              		.cfi_startproc
 134              		@ args = 0, pretend = 0, frame = 8
 135              		@ frame_needed = 0, uses_anonymous_args = 0
 136 0000 00B5     		push	{lr}
 137              		.cfi_def_cfa_offset 4
 138              		.cfi_offset 14, -4
 139 0002 83B0     		sub	sp, sp, #12
 140              		.cfi_def_cfa_offset 16
 141 0004 0190     		str	r0, [sp, #4]
 142 0006 0091     		str	r1, [sp]
 143              		.loc 2 186 0
 144 0008 009B     		ldr	r3, [sp]
 145 000a 4FF47A72 		mov	r2, #1000
 146 000e 02FB03F3 		mul	r3, r2, r3
 147 0012 0198     		ldr	r0, [sp, #4]
 148 0014 1946     		mov	r1, r3
 149 0016 FFF7FEFF 		bl	_ZN3r2p4TimeC1IlEET_
 150              		.loc 2 187 0
 151 001a 0198     		ldr	r0, [sp, #4]
 152 001c 03B0     		add	sp, sp, #12
 153              		.cfi_def_cfa_offset 4
 154              		@ sp needed
 155 001e 5DF804FB 		ldr	pc, [sp], #4
 156              		.cfi_endproc
 157              	.LFE276:
 158              		.size	_ZN3r2p4Time2msEl, .-_ZN3r2p4Time2msEl
 159 0022 00BFAFF3 		.section	.text._ZN3r2p7Thread_11create_heapEPvjmPFlS1_ES1_PKc,"axG",%progbits,_ZN3r2p7Thread_11cre
 159      0080AFF3 
 159      0080AFF3 
 159      0080
 160              		.align	2
 161              		.p2align 4,,15
 162              		.weak	_ZN3r2p7Thread_11create_heapEPvjmPFlS1_ES1_PKc
 163              		.thumb
 164              		.thumb_func
 165              		.type	_ZN3r2p7Thread_11create_heapEPvjmPFlS1_ES1_PKc, %function
 166              	_ZN3r2p7Thread_11create_heapEPvjmPFlS1_ES1_PKc:
ARM GAS  /tmp/ccWSXIBF.s 			page 4


 167              	.LFB334:
 168              		.file 3 "/home/denny/r2p-sdk/core/Middleware/port/chibios/include/r2p/impl/Thread_.hpp"
 169              		.loc 3 115 0
 170              		.cfi_startproc
 171              		@ args = 8, pretend = 0, frame = 24
 172              		@ frame_needed = 0, uses_anonymous_args = 0
 173 0000 00B5     		push	{lr}
 174              		.cfi_def_cfa_offset 4
 175              		.cfi_offset 14, -4
 176 0002 89B0     		sub	sp, sp, #36
 177              		.cfi_def_cfa_offset 40
 178 0004 0590     		str	r0, [sp, #20]
 179 0006 0491     		str	r1, [sp, #16]
 180 0008 0392     		str	r2, [sp, #12]
 181 000a 0293     		str	r3, [sp, #8]
 182              	.LBB10:
 183              		.loc 3 120 0
 184 000c 0A9B     		ldr	r3, [sp, #40]
 185 000e 0093     		str	r3, [sp]
 186 0010 0598     		ldr	r0, [sp, #20]
 187 0012 0499     		ldr	r1, [sp, #16]
 188 0014 039A     		ldr	r2, [sp, #12]
 189 0016 029B     		ldr	r3, [sp, #8]
 190 0018 FFF7FEFF 		bl	chThdCreateFromHeap
 191 001c 0790     		str	r0, [sp, #28]
 192              		.loc 3 122 0
 193 001e 079B     		ldr	r3, [sp, #28]
 194 0020 002B     		cmp	r3, #0
 195 0022 02D0     		beq	.L13
 196              		.loc 3 123 0
 197 0024 079B     		ldr	r3, [sp, #28]
 198 0026 0B9A     		ldr	r2, [sp, #44]
 199 0028 9A61     		str	r2, [r3, #24]
 200              	.L13:
 201              		.loc 3 128 0
 202 002a 079B     		ldr	r3, [sp, #28]
 203              	.LBE10:
 204              		.loc 3 129 0
 205 002c 1846     		mov	r0, r3
 206 002e 09B0     		add	sp, sp, #36
 207              		.cfi_def_cfa_offset 4
 208              		@ sp needed
 209 0030 5DF804FB 		ldr	pc, [sp], #4
 210              		.cfi_endproc
 211              	.LFE334:
 212              		.size	_ZN3r2p7Thread_11create_heapEPvjmPFlS1_ES1_PKc, .-_ZN3r2p7Thread_11create_heapEPvjmPFlS1_ES1
 213 0034 AFF30080 		.section	.text._ZN3r2p7Thread_5sleepERKNS_4TimeE,"axG",%progbits,_ZN3r2p7Thread_5sleepERKNS_4TimeE
 213      AFF30080 
 213      AFF30080 
 214              		.align	2
 215              		.p2align 4,,15
 216              		.weak	_ZN3r2p7Thread_5sleepERKNS_4TimeE
 217              		.thumb
 218              		.thumb_func
 219              		.type	_ZN3r2p7Thread_5sleepERKNS_4TimeE, %function
 220              	_ZN3r2p7Thread_5sleepERKNS_4TimeE:
 221              	.LFB340:
ARM GAS  /tmp/ccWSXIBF.s 			page 5


 222              		.loc 3 180 0
 223              		.cfi_startproc
 224              		@ args = 0, pretend = 0, frame = 8
 225              		@ frame_needed = 0, uses_anonymous_args = 0
 226 0000 00B5     		push	{lr}
 227              		.cfi_def_cfa_offset 4
 228              		.cfi_offset 14, -4
 229 0002 83B0     		sub	sp, sp, #12
 230              		.cfi_def_cfa_offset 16
 231 0004 0190     		str	r0, [sp, #4]
 232              		.loc 3 182 0
 233 0006 019B     		ldr	r3, [sp, #4]
 234 0008 1B68     		ldr	r3, [r3]
 235 000a 002B     		cmp	r3, #0
 236 000c 21DD     		ble	.L16
 237              		.loc 3 183 0
 238 000e 019B     		ldr	r3, [sp, #4]
 239 0010 1B68     		ldr	r3, [r3]
 240 0012 124A     		ldr	r2, .L20
 241 0014 9342     		cmp	r3, r2
 242 0016 10DC     		bgt	.L17
 243              		.loc 3 184 0
 244 0018 019B     		ldr	r3, [sp, #4]
 245 001a 1B68     		ldr	r3, [r3]
 246 001c 1A46     		mov	r2, r3
 247 001e 4FF47A73 		mov	r3, #1000
 248 0022 03FB02F3 		mul	r3, r3, r2
 249 0026 013B     		subs	r3, r3, #1
 250 0028 0D4A     		ldr	r2, .L20+4
 251 002a A2FB0323 		umull	r2, r3, r2, r3
 252 002e 9B0C     		lsrs	r3, r3, #18
 253 0030 0133     		adds	r3, r3, #1
 254 0032 1846     		mov	r0, r3
 255 0034 FFF7FEFF 		bl	chThdSleep
 256 0038 0DE0     		b	.L15
 257              	.L17:
 258              		.loc 3 186 0
 259 003a 0198     		ldr	r0, [sp, #4]
 260 003c FFF7FEFF 		bl	_ZNK3r2p4Time8to_s_rawEv
 261 0040 0246     		mov	r2, r0
 262 0042 4FF47A73 		mov	r3, #1000
 263 0046 03FB02F3 		mul	r3, r3, r2
 264 004a 1846     		mov	r0, r3
 265 004c FFF7FEFF 		bl	chThdSleep
 266 0050 01E0     		b	.L15
 267              	.L16:
 268              		.loc 3 189 0
 269 0052 FFF7FEFF 		bl	chThdYield
 270              	.L15:
 271              		.loc 3 191 0
 272 0056 03B0     		add	sp, sp, #12
 273              		.cfi_def_cfa_offset 4
 274              		@ sp needed
 275 0058 5DF804FB 		ldr	pc, [sp], #4
 276              	.L21:
 277              		.align	2
 278              	.L20:
ARM GAS  /tmp/ccWSXIBF.s 			page 6


 279 005c 3F420F00 		.word	999999
 280 0060 83DE1B43 		.word	1125899907
 281              		.cfi_endproc
 282              	.LFE340:
 283              		.size	_ZN3r2p7Thread_5sleepERKNS_4TimeE, .-_ZN3r2p7Thread_5sleepERKNS_4TimeE
 284 0064 AFF30080 		.section	.text._ZN3r2p6Thread11create_heapEPvjmPFlS1_ES1_PKc,"axG",%progbits,_ZN3r2p6Thread11creat
 284      AFF30080 
 284      AFF30080 
 285              		.align	2
 286              		.p2align 4,,15
 287              		.weak	_ZN3r2p6Thread11create_heapEPvjmPFlS1_ES1_PKc
 288              		.thumb
 289              		.thumb_func
 290              		.type	_ZN3r2p6Thread11create_heapEPvjmPFlS1_ES1_PKc, %function
 291              	_ZN3r2p6Thread11create_heapEPvjmPFlS1_ES1_PKc:
 292              	.LFB345:
 293              		.file 4 "/home/denny/r2p-sdk/core/Middleware/include/r2p/Thread.hpp"
 294              		.loc 4 92 0
 295              		.cfi_startproc
 296              		@ args = 8, pretend = 0, frame = 16
 297              		@ frame_needed = 0, uses_anonymous_args = 0
 298 0000 00B5     		push	{lr}
 299              		.cfi_def_cfa_offset 4
 300              		.cfi_offset 14, -4
 301 0002 87B0     		sub	sp, sp, #28
 302              		.cfi_def_cfa_offset 32
 303 0004 0590     		str	r0, [sp, #20]
 304 0006 0491     		str	r1, [sp, #16]
 305 0008 0392     		str	r2, [sp, #12]
 306 000a 0293     		str	r3, [sp, #8]
 307              		.loc 4 96 0
 308 000c 089B     		ldr	r3, [sp, #32]
 309 000e 0093     		str	r3, [sp]
 310 0010 099B     		ldr	r3, [sp, #36]
 311 0012 0193     		str	r3, [sp, #4]
 312 0014 0598     		ldr	r0, [sp, #20]
 313 0016 0499     		ldr	r1, [sp, #16]
 314 0018 039A     		ldr	r2, [sp, #12]
 315 001a 029B     		ldr	r3, [sp, #8]
 316 001c FFF7FEFF 		bl	_ZN3r2p7Thread_11create_heapEPvjmPFlS1_ES1_PKc
 317 0020 0346     		mov	r3, r0
 318              		.loc 4 97 0
 319 0022 1846     		mov	r0, r3
 320 0024 07B0     		add	sp, sp, #28
 321              		.cfi_def_cfa_offset 4
 322              		@ sp needed
 323 0026 5DF804FB 		ldr	pc, [sp], #4
 324              		.cfi_endproc
 325              	.LFE345:
 326              		.size	_ZN3r2p6Thread11create_heapEPvjmPFlS1_ES1_PKc, .-_ZN3r2p6Thread11create_heapEPvjmPFlS1_ES1_P
 327 002a 00BFAFF3 		.section	.text._ZN3r2p6Thread5sleepERKNS_4TimeE,"axG",%progbits,_ZN3r2p6Thread5sleepERKNS_4TimeE,c
 327      0080
 328              		.align	2
 329              		.p2align 4,,15
 330              		.weak	_ZN3r2p6Thread5sleepERKNS_4TimeE
 331              		.thumb
 332              		.thumb_func
ARM GAS  /tmp/ccWSXIBF.s 			page 7


 333              		.type	_ZN3r2p6Thread5sleepERKNS_4TimeE, %function
 334              	_ZN3r2p6Thread5sleepERKNS_4TimeE:
 335              	.LFB351:
 336              		.loc 4 140 0
 337              		.cfi_startproc
 338              		@ args = 0, pretend = 0, frame = 8
 339              		@ frame_needed = 0, uses_anonymous_args = 0
 340 0000 00B5     		push	{lr}
 341              		.cfi_def_cfa_offset 4
 342              		.cfi_offset 14, -4
 343 0002 83B0     		sub	sp, sp, #12
 344              		.cfi_def_cfa_offset 16
 345 0004 0190     		str	r0, [sp, #4]
 346              		.loc 4 142 0
 347 0006 0198     		ldr	r0, [sp, #4]
 348 0008 FFF7FEFF 		bl	_ZN3r2p7Thread_5sleepERKNS_4TimeE
 349              		.loc 4 143 0
 350 000c 03B0     		add	sp, sp, #12
 351              		.cfi_def_cfa_offset 4
 352              		@ sp needed
 353 000e 5DF804FB 		ldr	pc, [sp], #4
 354              		.cfi_endproc
 355              	.LFE351:
 356              		.size	_ZN3r2p6Thread5sleepERKNS_4TimeE, .-_ZN3r2p6Thread5sleepERKNS_4TimeE
 357 0012 00BFAFF3 		.section	.text._ZNK3r2p10SpinEvent_10get_threadEv,"axG",%progbits,_ZNK3r2p10SpinEvent_10get_thread
 357      0080AFF3 
 357      0080AFF3 
 357      0080
 358              		.align	2
 359              		.p2align 4,,15
 360              		.weak	_ZNK3r2p10SpinEvent_10get_threadEv
 361              		.thumb
 362              		.thumb_func
 363              		.type	_ZNK3r2p10SpinEvent_10get_threadEv, %function
 364              	_ZNK3r2p10SpinEvent_10get_threadEv:
 365              	.LFB353:
 366              		.file 5 "/home/denny/r2p-sdk/core/Middleware/port/chibios/include/r2p/impl/SpinEvent_.hpp"
 367              		.loc 5 36 0
 368              		.cfi_startproc
 369              		@ args = 0, pretend = 0, frame = 8
 370              		@ frame_needed = 0, uses_anonymous_args = 0
 371              		@ link register save eliminated.
 372 0000 82B0     		sub	sp, sp, #8
 373              		.cfi_def_cfa_offset 8
 374 0002 0190     		str	r0, [sp, #4]
 375              		.loc 5 38 0
 376 0004 019B     		ldr	r3, [sp, #4]
 377 0006 1B68     		ldr	r3, [r3]
 378              		.loc 5 39 0
 379 0008 1846     		mov	r0, r3
 380 000a 02B0     		add	sp, sp, #8
 381              		.cfi_def_cfa_offset 0
 382              		@ sp needed
 383 000c 7047     		bx	lr
 384              		.cfi_endproc
 385              	.LFE353:
 386              		.size	_ZNK3r2p10SpinEvent_10get_threadEv, .-_ZNK3r2p10SpinEvent_10get_threadEv
ARM GAS  /tmp/ccWSXIBF.s 			page 8


 387 000e 00BF     		.section	.rodata
 388              		.align	2
 389              	.LC5:
 390 0000 5232505F 		.ascii	"R2P_ASSERT()\000"
 390      41535345 
 390      52542829 
 390      00
 391              		.section	.text._ZN3r2p10SpinEvent_13signal_unsafeEj,"axG",%progbits,_ZN3r2p10SpinEvent_13signal_un
 392              		.align	2
 393              		.p2align 4,,15
 394              		.weak	_ZN3r2p10SpinEvent_13signal_unsafeEj
 395              		.thumb
 396              		.thumb_func
 397              		.type	_ZN3r2p10SpinEvent_13signal_unsafeEj, %function
 398              	_ZN3r2p10SpinEvent_13signal_unsafeEj:
 399              	.LFB355:
 400              		.loc 5 50 0
 401              		.cfi_startproc
 402              		@ args = 0, pretend = 0, frame = 8
 403              		@ frame_needed = 0, uses_anonymous_args = 0
 404 0000 00B5     		push	{lr}
 405              		.cfi_def_cfa_offset 4
 406              		.cfi_offset 14, -4
 407 0002 83B0     		sub	sp, sp, #12
 408              		.cfi_def_cfa_offset 16
 409 0004 0190     		str	r0, [sp, #4]
 410 0006 0091     		str	r1, [sp]
 411              		.loc 5 52 0
 412 0008 019B     		ldr	r3, [sp, #4]
 413 000a 1B68     		ldr	r3, [r3]
 414 000c 002B     		cmp	r3, #0
 415 000e 10D0     		beq	.L27
 416              		.loc 5 53 0
 417 0010 2022     		movs	r2, #32
 418 0012 009B     		ldr	r3, [sp]
 419 0014 9A42     		cmp	r2, r3
 420 0016 02D8     		bhi	.L29
 421              		.loc 5 53 0 is_stmt 0 discriminator 1
 422 0018 0748     		ldr	r0, .L30
 423 001a FFF7FEFF 		bl	chDbgPanic
 424              	.L29:
 425              		.loc 5 54 0 is_stmt 1
 426 001e 019B     		ldr	r3, [sp, #4]
 427 0020 1968     		ldr	r1, [r3]
 428 0022 009B     		ldr	r3, [sp]
 429 0024 0122     		movs	r2, #1
 430 0026 02FA03F3 		lsl	r3, r2, r3
 431 002a 0846     		mov	r0, r1
 432 002c 1946     		mov	r1, r3
 433 002e FFF7FEFF 		bl	chEvtSignalI
 434              	.L27:
 435              		.loc 5 56 0
 436 0032 03B0     		add	sp, sp, #12
 437              		.cfi_def_cfa_offset 4
 438              		@ sp needed
 439 0034 5DF804FB 		ldr	pc, [sp], #4
 440              	.L31:
ARM GAS  /tmp/ccWSXIBF.s 			page 9


 441              		.align	2
 442              	.L30:
 443 0038 00000000 		.word	.LC5
 444              		.cfi_endproc
 445              	.LFE355:
 446              		.size	_ZN3r2p10SpinEvent_13signal_unsafeEj, .-_ZN3r2p10SpinEvent_13signal_unsafeEj
 447 003c AFF30080 		.section	.text._ZNK3r2p9SpinEvent10get_threadEv,"axG",%progbits,_ZNK3r2p9SpinEvent10get_threadEv,c
 448              		.align	2
 449              		.p2align 4,,15
 450              		.weak	_ZNK3r2p9SpinEvent10get_threadEv
 451              		.thumb
 452              		.thumb_func
 453              		.type	_ZNK3r2p9SpinEvent10get_threadEv, %function
 454              	_ZNK3r2p9SpinEvent10get_threadEv:
 455              	.LFB361:
 456              		.file 6 "/home/denny/r2p-sdk/core/Middleware/include/r2p/SpinEvent.hpp"
 457              		.loc 6 35 0
 458              		.cfi_startproc
 459              		@ args = 0, pretend = 0, frame = 8
 460              		@ frame_needed = 0, uses_anonymous_args = 0
 461 0000 00B5     		push	{lr}
 462              		.cfi_def_cfa_offset 4
 463              		.cfi_offset 14, -4
 464 0002 83B0     		sub	sp, sp, #12
 465              		.cfi_def_cfa_offset 16
 466 0004 0190     		str	r0, [sp, #4]
 467              		.loc 6 37 0
 468 0006 019B     		ldr	r3, [sp, #4]
 469 0008 1846     		mov	r0, r3
 470 000a FFF7FEFF 		bl	_ZNK3r2p10SpinEvent_10get_threadEv
 471 000e 0346     		mov	r3, r0
 472              		.loc 6 38 0
 473 0010 1846     		mov	r0, r3
 474 0012 03B0     		add	sp, sp, #12
 475              		.cfi_def_cfa_offset 4
 476              		@ sp needed
 477 0014 5DF804FB 		ldr	pc, [sp], #4
 478              		.cfi_endproc
 479              	.LFE361:
 480              		.size	_ZNK3r2p9SpinEvent10get_threadEv, .-_ZNK3r2p9SpinEvent10get_threadEv
 481 0018 AFF30080 		.section	.text._ZN3r2p9SpinEvent13signal_unsafeEj,"axG",%progbits,_ZN3r2p9SpinEvent13signal_unsafe
 481      AFF30080 
 482              		.align	2
 483              		.p2align 4,,15
 484              		.weak	_ZN3r2p9SpinEvent13signal_unsafeEj
 485              		.thumb
 486              		.thumb_func
 487              		.type	_ZN3r2p9SpinEvent13signal_unsafeEj, %function
 488              	_ZN3r2p9SpinEvent13signal_unsafeEj:
 489              	.LFB363:
 490              		.loc 6 49 0
 491              		.cfi_startproc
 492              		@ args = 0, pretend = 0, frame = 8
 493              		@ frame_needed = 0, uses_anonymous_args = 0
 494 0000 00B5     		push	{lr}
 495              		.cfi_def_cfa_offset 4
 496              		.cfi_offset 14, -4
ARM GAS  /tmp/ccWSXIBF.s 			page 10


 497 0002 83B0     		sub	sp, sp, #12
 498              		.cfi_def_cfa_offset 16
 499 0004 0190     		str	r0, [sp, #4]
 500 0006 0091     		str	r1, [sp]
 501              		.loc 6 51 0
 502 0008 019B     		ldr	r3, [sp, #4]
 503 000a 1846     		mov	r0, r3
 504 000c 0099     		ldr	r1, [sp]
 505 000e FFF7FEFF 		bl	_ZN3r2p10SpinEvent_13signal_unsafeEj
 506              		.loc 6 52 0
 507 0012 03B0     		add	sp, sp, #12
 508              		.cfi_def_cfa_offset 4
 509              		@ sp needed
 510 0014 5DF804FB 		ldr	pc, [sp], #4
 511              		.cfi_endproc
 512              	.LFE363:
 513              		.size	_ZN3r2p9SpinEvent13signal_unsafeEj, .-_ZN3r2p9SpinEvent13signal_unsafeEj
 514 0018 AFF30080 		.section	.text._ZNK3r2p4Node11get_enabledEv,"axG",%progbits,_ZNK3r2p4Node11get_enabledEv,comdat
 514      AFF30080 
 515              		.align	2
 516              		.p2align 4,,15
 517              		.weak	_ZNK3r2p4Node11get_enabledEv
 518              		.thumb
 519              		.thumb_func
 520              		.type	_ZNK3r2p4Node11get_enabledEv, %function
 521              	_ZNK3r2p4Node11get_enabledEv:
 522              	.LFB380:
 523              		.file 7 "/home/denny/r2p-sdk/core/Middleware/include/r2p/Node.hpp"
 524              		.loc 7 103 0
 525              		.cfi_startproc
 526              		@ args = 0, pretend = 0, frame = 8
 527              		@ frame_needed = 0, uses_anonymous_args = 0
 528 0000 00B5     		push	{lr}
 529              		.cfi_def_cfa_offset 4
 530              		.cfi_offset 14, -4
 531 0002 83B0     		sub	sp, sp, #12
 532              		.cfi_def_cfa_offset 16
 533 0004 0190     		str	r0, [sp, #4]
 534              		.loc 7 105 0
 535 0006 019B     		ldr	r3, [sp, #4]
 536 0008 0C33     		adds	r3, r3, #12
 537 000a 1846     		mov	r0, r3
 538 000c FFF7FEFF 		bl	_ZNK3r2p9SpinEvent10get_threadEv
 539 0010 0346     		mov	r3, r0
 540 0012 002B     		cmp	r3, #0
 541 0014 14BF     		ite	ne
 542 0016 0123     		movne	r3, #1
 543 0018 0023     		moveq	r3, #0
 544 001a DBB2     		uxtb	r3, r3
 545              		.loc 7 106 0
 546 001c 1846     		mov	r0, r3
 547 001e 03B0     		add	sp, sp, #12
 548              		.cfi_def_cfa_offset 4
 549              		@ sp needed
 550 0020 5DF804FB 		ldr	pc, [sp], #4
 551              		.cfi_endproc
 552              	.LFE380:
ARM GAS  /tmp/ccWSXIBF.s 			page 11


 553              		.size	_ZNK3r2p4Node11get_enabledEv, .-_ZNK3r2p4Node11get_enabledEv
 554 0024 AFF30080 		.section	.text._ZN3r2p4Node13notify_unsafeEj,"axG",%progbits,_ZN3r2p4Node13notify_unsafeEj,comdat
 554      AFF30080 
 554      AFF30080 
 555              		.align	2
 556              		.p2align 4,,15
 557              		.weak	_ZN3r2p4Node13notify_unsafeEj
 558              		.thumb
 559              		.thumb_func
 560              		.type	_ZN3r2p4Node13notify_unsafeEj, %function
 561              	_ZN3r2p4Node13notify_unsafeEj:
 562              	.LFB385:
 563              		.loc 7 140 0
 564              		.cfi_startproc
 565              		@ args = 0, pretend = 0, frame = 8
 566              		@ frame_needed = 0, uses_anonymous_args = 0
 567 0000 00B5     		push	{lr}
 568              		.cfi_def_cfa_offset 4
 569              		.cfi_offset 14, -4
 570 0002 83B0     		sub	sp, sp, #12
 571              		.cfi_def_cfa_offset 16
 572 0004 0190     		str	r0, [sp, #4]
 573 0006 0091     		str	r1, [sp]
 574              		.loc 7 142 0
 575 0008 019B     		ldr	r3, [sp, #4]
 576 000a 0C33     		adds	r3, r3, #12
 577 000c 1846     		mov	r0, r3
 578 000e 0099     		ldr	r1, [sp]
 579 0010 FFF7FEFF 		bl	_ZN3r2p9SpinEvent13signal_unsafeEj
 580              		.loc 7 143 0
 581 0014 03B0     		add	sp, sp, #12
 582              		.cfi_def_cfa_offset 4
 583              		@ sp needed
 584 0016 5DF804FB 		ldr	pc, [sp], #4
 585              		.cfi_endproc
 586              	.LFE385:
 587              		.size	_ZN3r2p4Node13notify_unsafeEj, .-_ZN3r2p4Node13notify_unsafeEj
 588 001a 00BFAFF3 		.section	.text._ZNK3r2p15LocalSubscriber16get_queue_lengthEv,"axG",%progbits,_ZNK3r2p15LocalSubscr
 588      0080
 589              		.align	2
 590              		.p2align 4,,15
 591              		.weak	_ZNK3r2p15LocalSubscriber16get_queue_lengthEv
 592              		.thumb
 593              		.thumb_func
 594              		.type	_ZNK3r2p15LocalSubscriber16get_queue_lengthEv, %function
 595              	_ZNK3r2p15LocalSubscriber16get_queue_lengthEv:
 596              	.LFB391:
 597              		.file 8 "/home/denny/r2p-sdk/core/Middleware/include/r2p/LocalSubscriber.hpp"
 598              		.loc 8 64 0
 599              		.cfi_startproc
 600              		@ args = 0, pretend = 0, frame = 8
 601              		@ frame_needed = 0, uses_anonymous_args = 0
 602 0000 00B5     		push	{lr}
 603              		.cfi_def_cfa_offset 4
 604              		.cfi_offset 14, -4
 605 0002 83B0     		sub	sp, sp, #12
 606              		.cfi_def_cfa_offset 16
ARM GAS  /tmp/ccWSXIBF.s 			page 12


 607 0004 0190     		str	r0, [sp, #4]
 608              		.loc 8 66 0
 609 0006 019B     		ldr	r3, [sp, #4]
 610 0008 1033     		adds	r3, r3, #16
 611 000a 1846     		mov	r0, r3
 612 000c FFF7FEFF 		bl	_ZNK3r2p10ArrayQueueIPNS_7MessageEE10get_lengthEv
 613 0010 0346     		mov	r3, r0
 614              		.loc 8 67 0
 615 0012 1846     		mov	r0, r3
 616 0014 03B0     		add	sp, sp, #12
 617              		.cfi_def_cfa_offset 4
 618              		@ sp needed
 619 0016 5DF804FB 		ldr	pc, [sp], #4
 620              		.cfi_endproc
 621              	.LFE391:
 622              		.size	_ZNK3r2p15LocalSubscriber16get_queue_lengthEv, .-_ZNK3r2p15LocalSubscriber16get_queue_length
 623 001a 00BFAFF3 		.section	.text._ZN3r2p15LocalSubscriber12fetch_unsafeERPNS_7MessageERNS_4TimeE,"axG",%progbits,_ZN
 623      0080
 624              		.align	2
 625              		.p2align 4,,15
 626              		.weak	_ZN3r2p15LocalSubscriber12fetch_unsafeERPNS_7MessageERNS_4TimeE
 627              		.thumb
 628              		.thumb_func
 629              		.type	_ZN3r2p15LocalSubscriber12fetch_unsafeERPNS_7MessageERNS_4TimeE, %function
 630              	_ZN3r2p15LocalSubscriber12fetch_unsafeERPNS_7MessageERNS_4TimeE:
 631              	.LFB392:
 632              		.loc 8 71 0
 633              		.cfi_startproc
 634              		@ args = 0, pretend = 0, frame = 24
 635              		@ frame_needed = 0, uses_anonymous_args = 0
 636 0000 00B5     		push	{lr}
 637              		.cfi_def_cfa_offset 4
 638              		.cfi_offset 14, -4
 639 0002 87B0     		sub	sp, sp, #28
 640              		.cfi_def_cfa_offset 32
 641 0004 0390     		str	r0, [sp, #12]
 642 0006 0291     		str	r1, [sp, #8]
 643 0008 0192     		str	r2, [sp, #4]
 644              		.loc 8 73 0
 645 000a 039B     		ldr	r3, [sp, #12]
 646 000c 1033     		adds	r3, r3, #16
 647 000e 1846     		mov	r0, r3
 648 0010 0299     		ldr	r1, [sp, #8]
 649 0012 FFF7FEFF 		bl	_ZN3r2p10ArrayQueueIPNS_7MessageEE12fetch_unsafeERS2_
 650 0016 0346     		mov	r3, r0
 651 0018 002B     		cmp	r3, #0
 652 001a 0AD0     		beq	.L41
 653              		.loc 8 74 0
 654 001c 05AB     		add	r3, sp, #20
 655 001e 1846     		mov	r0, r3
 656 0020 FFF7FEFF 		bl	_ZN3r2p4Time3nowEv
 657 0024 05AB     		add	r3, sp, #20
 658 0026 0198     		ldr	r0, [sp, #4]
 659 0028 1946     		mov	r1, r3
 660 002a FFF7FEFF 		bl	_ZN3r2p4TimeaSERKS0_
 661              		.loc 8 75 0
 662 002e 0123     		movs	r3, #1
ARM GAS  /tmp/ccWSXIBF.s 			page 13


 663 0030 00E0     		b	.L42
 664              	.L41:
 665              		.loc 8 77 0
 666 0032 0023     		movs	r3, #0
 667              	.L42:
 668              		.loc 8 78 0
 669 0034 1846     		mov	r0, r3
 670 0036 07B0     		add	sp, sp, #28
 671              		.cfi_def_cfa_offset 4
 672              		@ sp needed
 673 0038 5DF804FB 		ldr	pc, [sp], #4
 674              		.cfi_endproc
 675              	.LFE392:
 676              		.size	_ZN3r2p15LocalSubscriber12fetch_unsafeERPNS_7MessageERNS_4TimeE, .-_ZN3r2p15LocalSubscriber1
 677 003c AFF30080 		.section	.text._ZN3r2p15LocalSubscriber13notify_unsafeERNS_7MessageERKNS_4TimeE,"axG",%progbits,_Z
 678              		.align	2
 679              		.p2align 4,,15
 680              		.weak	_ZN3r2p15LocalSubscriber13notify_unsafeERNS_7MessageERKNS_4TimeE
 681              		.thumb
 682              		.thumb_func
 683              		.type	_ZN3r2p15LocalSubscriber13notify_unsafeERNS_7MessageERKNS_4TimeE, %function
 684              	_ZN3r2p15LocalSubscriber13notify_unsafeERNS_7MessageERKNS_4TimeE:
 685              	.LFB393:
 686              		.loc 8 82 0
 687              		.cfi_startproc
 688              		@ args = 0, pretend = 0, frame = 16
 689              		@ frame_needed = 0, uses_anonymous_args = 0
 690 0000 00B5     		push	{lr}
 691              		.cfi_def_cfa_offset 4
 692              		.cfi_offset 14, -4
 693 0002 85B0     		sub	sp, sp, #20
 694              		.cfi_def_cfa_offset 24
 695 0004 0390     		str	r0, [sp, #12]
 696 0006 0291     		str	r1, [sp, #8]
 697 0008 0192     		str	r2, [sp, #4]
 698              		.loc 8 86 0
 699 000a 039B     		ldr	r3, [sp, #12]
 700 000c 9B68     		ldr	r3, [r3, #8]
 701 000e 1846     		mov	r0, r3
 702 0010 FFF7FEFF 		bl	_ZNK3r2p4Node11get_enabledEv
 703 0014 0346     		mov	r3, r0
 704 0016 002B     		cmp	r3, #0
 705 0018 0AD0     		beq	.L44
 706              		.loc 8 86 0 is_stmt 0 discriminator 1
 707 001a 039B     		ldr	r3, [sp, #12]
 708 001c 1033     		adds	r3, r3, #16
 709 001e 1846     		mov	r0, r3
 710 0020 0299     		ldr	r1, [sp, #8]
 711 0022 FFF7FEFF 		bl	_ZN3r2p10ArrayQueueIPNS_7MessageEE11post_unsafeES2_
 712 0026 0346     		mov	r3, r0
 713 0028 002B     		cmp	r3, #0
 714 002a 01D0     		beq	.L44
 715              		.loc 8 86 0 discriminator 3
 716 002c 0123     		movs	r3, #1
 717 002e 00E0     		b	.L45
 718              	.L44:
 719              		.loc 8 86 0 discriminator 4
ARM GAS  /tmp/ccWSXIBF.s 			page 14


 720 0030 0023     		movs	r3, #0
 721              	.L45:
 722              		.loc 8 86 0 discriminator 6
 723 0032 002B     		cmp	r3, #0
 724 0034 0AD0     		beq	.L46
 725              		.loc 8 87 0 is_stmt 1
 726 0036 039B     		ldr	r3, [sp, #12]
 727 0038 9A68     		ldr	r2, [r3, #8]
 728 003a 039B     		ldr	r3, [sp, #12]
 729 003c 93F82430 		ldrb	r3, [r3, #36]	@ zero_extendqisi2
 730 0040 1046     		mov	r0, r2
 731 0042 1946     		mov	r1, r3
 732 0044 FFF7FEFF 		bl	_ZN3r2p4Node13notify_unsafeEj
 733              		.loc 8 88 0
 734 0048 0123     		movs	r3, #1
 735 004a 00E0     		b	.L47
 736              	.L46:
 737              		.loc 8 90 0
 738 004c 0023     		movs	r3, #0
 739              	.L47:
 740              		.loc 8 91 0
 741 004e 1846     		mov	r0, r3
 742 0050 05B0     		add	sp, sp, #20
 743              		.cfi_def_cfa_offset 4
 744              		@ sp needed
 745 0052 5DF804FB 		ldr	pc, [sp], #4
 746              		.cfi_endproc
 747              	.LFE393:
 748              		.size	_ZN3r2p15LocalSubscriber13notify_unsafeERNS_7MessageERKNS_4TimeE, .-_ZN3r2p15LocalSubscriber
 749 0056 00BFAFF3 		.section	.text._ZN3r2p6Mutex_D2Ev,"axG",%progbits,_ZN3r2p6Mutex_D5Ev,comdat
 749      0080AFF3 
 749      0080
 750              		.align	2
 751              		.p2align 4,,15
 752              		.weak	_ZN3r2p6Mutex_D2Ev
 753              		.thumb
 754              		.thumb_func
 755              		.type	_ZN3r2p6Mutex_D2Ev, %function
 756              	_ZN3r2p6Mutex_D2Ev:
 757              	.LFB459:
 758              		.file 9 "/home/denny/r2p-sdk/core/Middleware/port/chibios/include/r2p/impl/Mutex_.hpp"
 759              		.loc 9 9 0
 760              		.cfi_startproc
 761              		@ args = 0, pretend = 0, frame = 8
 762              		@ frame_needed = 0, uses_anonymous_args = 0
 763 0000 00B5     		push	{lr}
 764              		.cfi_def_cfa_offset 4
 765              		.cfi_offset 14, -4
 766 0002 83B0     		sub	sp, sp, #12
 767              		.cfi_def_cfa_offset 16
 768 0004 0190     		str	r0, [sp, #4]
 769              	.LBB11:
 770              		.loc 9 9 0
 771 0006 0198     		ldr	r0, [sp, #4]
 772 0008 FFF7FEFF 		bl	_ZN3r2p10UncopyableD2Ev
 773              	.LBE11:
 774 000c 019B     		ldr	r3, [sp, #4]
ARM GAS  /tmp/ccWSXIBF.s 			page 15


 775 000e 1846     		mov	r0, r3
 776 0010 03B0     		add	sp, sp, #12
 777              		.cfi_def_cfa_offset 4
 778              		@ sp needed
 779 0012 5DF804FB 		ldr	pc, [sp], #4
 780              		.cfi_endproc
 781              	.LFE459:
 782              		.size	_ZN3r2p6Mutex_D2Ev, .-_ZN3r2p6Mutex_D2Ev
 783              		.weak	_ZN3r2p6Mutex_D1Ev
 784              		.thumb_set _ZN3r2p6Mutex_D1Ev,_ZN3r2p6Mutex_D2Ev
 785 0016 00BFAFF3 		.section	.text._ZN3r2p5MutexD2Ev,"axG",%progbits,_ZN3r2p5MutexD5Ev,comdat
 785      0080AFF3 
 785      0080
 786              		.align	2
 787              		.p2align 4,,15
 788              		.weak	_ZN3r2p5MutexD2Ev
 789              		.thumb
 790              		.thumb_func
 791              		.type	_ZN3r2p5MutexD2Ev, %function
 792              	_ZN3r2p5MutexD2Ev:
 793              	.LFB473:
 794              		.file 10 "/home/denny/r2p-sdk/core/Middleware/include/r2p/Mutex.hpp"
 795              		.loc 10 9 0
 796              		.cfi_startproc
 797              		@ args = 0, pretend = 0, frame = 8
 798              		@ frame_needed = 0, uses_anonymous_args = 0
 799 0000 00B5     		push	{lr}
 800              		.cfi_def_cfa_offset 4
 801              		.cfi_offset 14, -4
 802 0002 83B0     		sub	sp, sp, #12
 803              		.cfi_def_cfa_offset 16
 804 0004 0190     		str	r0, [sp, #4]
 805              	.LBB12:
 806              		.loc 10 9 0
 807 0006 019B     		ldr	r3, [sp, #4]
 808 0008 0433     		adds	r3, r3, #4
 809 000a 1846     		mov	r0, r3
 810 000c FFF7FEFF 		bl	_ZN3r2p6Mutex_D1Ev
 811 0010 0198     		ldr	r0, [sp, #4]
 812 0012 FFF7FEFF 		bl	_ZN3r2p10UncopyableD2Ev
 813              	.LBE12:
 814 0016 019B     		ldr	r3, [sp, #4]
 815 0018 1846     		mov	r0, r3
 816 001a 03B0     		add	sp, sp, #12
 817              		.cfi_def_cfa_offset 4
 818              		@ sp needed
 819 001c 5DF804FB 		ldr	pc, [sp], #4
 820              		.cfi_endproc
 821              	.LFE473:
 822              		.size	_ZN3r2p5MutexD2Ev, .-_ZN3r2p5MutexD2Ev
 823              		.weak	_ZN3r2p5MutexD1Ev
 824              		.thumb_set _ZN3r2p5MutexD1Ev,_ZN3r2p5MutexD2Ev
 825              		.section	.bss._ZL7wa_info,"aw",%nobits
 826              		.align	3
 827              		.type	_ZL7wa_info, %object
 828              		.size	_ZL7wa_info, 1368
 829              	_ZL7wa_info:
ARM GAS  /tmp/ccWSXIBF.s 			page 16


 830 0000 00000000 		.space	1368
 830      00000000 
 830      00000000 
 830      00000000 
 830      00000000 
 831              		.section	.bss._ZL8rtcantra,"aw",%nobits
 832              		.align	2
 833              		.type	_ZL8rtcantra, %object
 834              		.size	_ZL8rtcantra, 572
 835              	_ZL8rtcantra:
 836 0000 00000000 		.space	572
 836      00000000 
 836      00000000 
 836      00000000 
 836      00000000 
 837              		.global	rtcan_config
 838              		.section	.data.rtcan_config,"aw",%progbits
 839              		.align	2
 840              		.type	rtcan_config, %object
 841              		.size	rtcan_config, 12
 842              	rtcan_config:
 843 0000 40420F00 		.word	1000000
 844 0004 64000000 		.word	100
 845 0008 3C000000 		.word	60
 846              		.global	_ZN3r2p10Middleware8instanceE
 847              		.section	.bss._ZN3r2p10Middleware8instanceE,"aw",%nobits
 848              		.align	2
 849              		.type	_ZN3r2p10Middleware8instanceE, %object
 850              		.size	_ZN3r2p10Middleware8instanceE, 608
 851              	_ZN3r2p10Middleware8instanceE:
 852 0000 00000000 		.space	608
 852      00000000 
 852      00000000 
 852      00000000 
 852      00000000 
 853              		.section	.rodata
 854 000d 000000   		.align	2
 855              	.LC6:
 856 0010 6C656400 		.ascii	"led\000"
 857              		.align	2
 858              	.LC0:
 859 0014 7069645F 		.ascii	"pid_node\000"
 859      6E6F6465 
 859      00
 860 001d 000000   		.align	2
 861              	.LC1:
 862 0020 656E636F 		.ascii	"encoder0\000"
 862      64657230 
 862      00
 863 0029 000000   		.align	2
 864              	.LC7:
 865 002c 14000000 		.word	.LC0
 866 0030 20000000 		.word	.LC1
 867 0034 00       		.byte	0
 868 0035 000000   		.space	3
 869 0038 0000C842 		.word	1120403456
 870 003c 00000000 		.word	0
ARM GAS  /tmp/ccWSXIBF.s 			page 17


 871 0040 00000000 		.word	0
 872 0044 0AD7A33C 		.word	1017370378
 873              		.align	2
 874              	.LC3:
 875 0048 656E636F 		.ascii	"encoder_node\000"
 875      6465725F 
 875      6E6F6465 
 875      00
 876 0055 000000   		.align	2
 877              	.LC8:
 878 0058 48000000 		.word	.LC3
 879 005c 20000000 		.word	.LC1
 880 0060 5077563B 		.word	995522384
 881              		.section	.text.main,"ax",%progbits
 882              		.align	2
 883              		.p2align 4,,15
 884              		.global	main
 885              		.thumb
 886              		.thumb_func
 887              		.type	main, %function
 888              	main:
 889              	.LFB596:
 890              		.file 11 "main.cpp"
 891              		.loc 11 27 0
 892              		.cfi_startproc
 893              		@ args = 0, pretend = 0, frame = 48
 894              		@ frame_needed = 0, uses_anonymous_args = 0
 895 0000 30B5     		push	{r4, r5, lr}
 896              		.cfi_def_cfa_offset 12
 897              		.cfi_offset 4, -12
 898              		.cfi_offset 5, -8
 899              		.cfi_offset 14, -4
 900 0002 91B0     		sub	sp, sp, #68
 901              		.cfi_def_cfa_offset 80
 902              	.LBB13:
 903              		.loc 11 29 0
 904 0004 FFF7FEFF 		bl	halInit
 905              		.loc 11 30 0
 906 0008 FFF7FEFF 		bl	chSysInit
 907              		.loc 11 32 0
 908 000c 0023     		movs	r3, #0
 909 000e 0093     		str	r3, [sp]
 910 0010 0023     		movs	r3, #0
 911 0012 0193     		str	r3, [sp, #4]
 912 0014 0223     		movs	r3, #2
 913 0016 0293     		str	r3, [sp, #8]
 914 0018 2D48     		ldr	r0, .L56
 915 001a 2E49     		ldr	r1, .L56+4
 916 001c 4FF4AB62 		mov	r2, #1368
 917 0020 0223     		movs	r3, #2
 918 0022 FFF7FEFF 		bl	_ZN3r2p10Middleware10initializeEPvjmS1_jm
 919              		.loc 11 33 0
 920 0026 2C48     		ldr	r0, .L56+8
 921 0028 2C49     		ldr	r1, .L56+12
 922 002a FFF7FEFF 		bl	_ZN3r2p14RTCANTransport10initializeERK11RTCANConfig
 923              		.loc 11 34 0
 924 002e 2848     		ldr	r0, .L56
ARM GAS  /tmp/ccWSXIBF.s 			page 18


 925 0030 FFF7FEFF 		bl	_ZN3r2p10Middleware5startEv
 926              		.loc 11 36 0
 927 0034 2A4B     		ldr	r3, .L56+16
 928 0036 0E93     		str	r3, [sp, #56]
 929              		.loc 11 37 0
 930 0038 B023     		movs	r3, #176
 931 003a 6833     		adds	r3, r3, #104
 932 003c 03F23F23 		addw	r3, r3, #575
 933 0040 0722     		movs	r2, #7
 934 0042 1343     		orrs	r3, r3, r2
 935 0044 5A1C     		adds	r2, r3, #1
 936 0046 0EAB     		add	r3, sp, #56
 937 0048 0093     		str	r3, [sp]
 938 004a 0023     		movs	r3, #0
 939 004c 0193     		str	r3, [sp, #4]
 940 004e 0020     		movs	r0, #0
 941 0050 1146     		mov	r1, r2
 942 0052 4022     		movs	r2, #64
 943 0054 234B     		ldr	r3, .L56+20
 944 0056 FFF7FEFF 		bl	_ZN3r2p6Thread11create_heapEPvjmPFlS1_ES1_PKc
 945              		.loc 11 39 0
 946 005a 234B     		ldr	r3, .L56+24
 947 005c 07AC     		add	r4, sp, #28
 948 005e 1D46     		mov	r5, r3
 949 0060 0FCD     		ldmia	r5!, {r0, r1, r2, r3}
 950 0062 0FC4     		stmia	r4!, {r0, r1, r2, r3}
 951 0064 95E80700 		ldmia	r5, {r0, r1, r2}
 952 0068 84E80700 		stmia	r4, {r0, r1, r2}
 953              		.loc 11 40 0
 954 006c B023     		movs	r3, #176
 955 006e 6833     		adds	r3, r3, #104
 956 0070 03F63F03 		addw	r3, r3, #2111
 957 0074 0722     		movs	r2, #7
 958 0076 1343     		orrs	r3, r3, r2
 959 0078 5A1C     		adds	r2, r3, #1
 960 007a 07AB     		add	r3, sp, #28
 961 007c 0093     		str	r3, [sp]
 962 007e 0023     		movs	r3, #0
 963 0080 0193     		str	r3, [sp, #4]
 964 0082 0020     		movs	r0, #0
 965 0084 1146     		mov	r1, r2
 966 0086 4222     		movs	r2, #66
 967 0088 184B     		ldr	r3, .L56+28
 968 008a FFF7FEFF 		bl	_ZN3r2p6Thread11create_heapEPvjmPFlS1_ES1_PKc
 969              		.loc 11 42 0
 970 008e 184A     		ldr	r2, .L56+32
 971 0090 04AB     		add	r3, sp, #16
 972 0092 07CA     		ldmia	r2, {r0, r1, r2}
 973 0094 83E80700 		stmia	r3, {r0, r1, r2}
 974              		.loc 11 43 0
 975 0098 B023     		movs	r3, #176
 976 009a 6833     		adds	r3, r3, #104
 977 009c 03F63F03 		addw	r3, r3, #2111
 978 00a0 0722     		movs	r2, #7
 979 00a2 1343     		orrs	r3, r3, r2
 980 00a4 5A1C     		adds	r2, r3, #1
 981 00a6 04AB     		add	r3, sp, #16
ARM GAS  /tmp/ccWSXIBF.s 			page 19


 982 00a8 0093     		str	r3, [sp]
 983 00aa 0023     		movs	r3, #0
 984 00ac 0193     		str	r3, [sp, #4]
 985 00ae 0020     		movs	r0, #0
 986 00b0 1146     		mov	r1, r2
 987 00b2 4222     		movs	r2, #66
 988 00b4 0F4B     		ldr	r3, .L56+36
 989 00b6 FFF7FEFF 		bl	_ZN3r2p6Thread11create_heapEPvjmPFlS1_ES1_PKc
 990              	.L55:
 991              		.loc 11 46 0 discriminator 1
 992 00ba 0FAB     		add	r3, sp, #60
 993 00bc 1846     		mov	r0, r3
 994 00be 4FF4FA71 		mov	r1, #500
 995 00c2 FFF7FEFF 		bl	_ZN3r2p4Time2msEl
 996 00c6 0FAB     		add	r3, sp, #60
 997 00c8 1846     		mov	r0, r3
 998 00ca FFF7FEFF 		bl	_ZN3r2p6Thread5sleepERKNS_4TimeE
 999              		.loc 11 49 0 discriminator 1
 1000 00ce F4E7     		b	.L55
 1001              	.L57:
 1002              		.align	2
 1003              	.L56:
 1004 00d0 00000000 		.word	_ZN3r2p10Middleware8instanceE
 1005 00d4 00000000 		.word	_ZL7wa_info
 1006 00d8 00000000 		.word	_ZL8rtcantra
 1007 00dc 00000000 		.word	rtcan_config
 1008 00e0 10000000 		.word	.LC6
 1009 00e4 00000000 		.word	_ZN3r2p11ledsub_nodeEPv
 1010 00e8 2C000000 		.word	.LC7
 1011 00ec 00000000 		.word	_Z8pid_nodePv
 1012 00f0 58000000 		.word	.LC8
 1013 00f4 00000000 		.word	_Z12encoder_nodePv
 1014              	.LBE13:
 1015              		.cfi_endproc
 1016              	.LFE596:
 1017              		.size	main, .-main
 1018 00f8 AFF30080 		.section	.text._ZN3r2p4TimeC2IlEET_,"axG",%progbits,_ZN3r2p4TimeC5IlEET_,comdat
 1018      AFF30080 
 1019              		.align	2
 1020              		.p2align 4,,15
 1021              		.weak	_ZN3r2p4TimeC2IlEET_
 1022              		.thumb
 1023              		.thumb_func
 1024              		.type	_ZN3r2p4TimeC2IlEET_, %function
 1025              	_ZN3r2p4TimeC2IlEET_:
 1026              	.LFB598:
 1027              		.loc 2 159 0
 1028              		.cfi_startproc
 1029              		@ args = 0, pretend = 0, frame = 8
 1030              		@ frame_needed = 0, uses_anonymous_args = 0
 1031              		@ link register save eliminated.
 1032 0000 82B0     		sub	sp, sp, #8
 1033              		.cfi_def_cfa_offset 8
 1034 0002 0190     		str	r0, [sp, #4]
 1035 0004 0091     		str	r1, [sp]
 1036              	.LBB14:
 1037              		.loc 2 161 0
ARM GAS  /tmp/ccWSXIBF.s 			page 20


 1038 0006 019B     		ldr	r3, [sp, #4]
 1039 0008 009A     		ldr	r2, [sp]
 1040 000a 1A60     		str	r2, [r3]
 1041              	.LBE14:
 1042              		.loc 2 162 0
 1043 000c 019B     		ldr	r3, [sp, #4]
 1044 000e 1846     		mov	r0, r3
 1045 0010 02B0     		add	sp, sp, #8
 1046              		.cfi_def_cfa_offset 0
 1047              		@ sp needed
 1048 0012 7047     		bx	lr
 1049              		.cfi_endproc
 1050              	.LFE598:
 1051              		.size	_ZN3r2p4TimeC2IlEET_, .-_ZN3r2p4TimeC2IlEET_
 1052              		.weak	_ZN3r2p4TimeC1IlEET_
 1053              		.thumb_set _ZN3r2p4TimeC1IlEET_,_ZN3r2p4TimeC2IlEET_
 1054 0014 AFF30080 		.section	.text._ZNK3r2p10ArrayQueueIPNS_7MessageEE10get_lengthEv,"axG",%progbits,_ZNK3r2p10ArrayQu
 1054      AFF30080 
 1054      AFF30080 
 1055              		.align	2
 1056              		.p2align 4,,15
 1057              		.weak	_ZNK3r2p10ArrayQueueIPNS_7MessageEE10get_lengthEv
 1058              		.thumb
 1059              		.thumb_func
 1060              		.type	_ZNK3r2p10ArrayQueueIPNS_7MessageEE10get_lengthEv, %function
 1061              	_ZNK3r2p10ArrayQueueIPNS_7MessageEE10get_lengthEv:
 1062              	.LFB606:
 1063              		.file 12 "/home/denny/r2p-sdk/core/Middleware/include/r2p/ArrayQueue.hpp"
 1064              		.loc 12 81 0
 1065              		.cfi_startproc
 1066              		@ args = 0, pretend = 0, frame = 8
 1067              		@ frame_needed = 0, uses_anonymous_args = 0
 1068              		@ link register save eliminated.
 1069 0000 82B0     		sub	sp, sp, #8
 1070              		.cfi_def_cfa_offset 8
 1071 0002 0190     		str	r0, [sp, #4]
 1072              		.loc 12 83 0
 1073 0004 019B     		ldr	r3, [sp, #4]
 1074 0006 5B68     		ldr	r3, [r3, #4]
 1075              		.loc 12 84 0
 1076 0008 1846     		mov	r0, r3
 1077 000a 02B0     		add	sp, sp, #8
 1078              		.cfi_def_cfa_offset 0
 1079              		@ sp needed
 1080 000c 7047     		bx	lr
 1081              		.cfi_endproc
 1082              	.LFE606:
 1083              		.size	_ZNK3r2p10ArrayQueueIPNS_7MessageEE10get_lengthEv, .-_ZNK3r2p10ArrayQueueIPNS_7MessageEE10ge
 1084 000e 00BF     		.section	.text._ZN3r2p10ArrayQueueIPNS_7MessageEE12fetch_unsafeERS2_,"axG",%progbits,_ZN3r2p10Arra
 1085              		.align	2
 1086              		.p2align 4,,15
 1087              		.weak	_ZN3r2p10ArrayQueueIPNS_7MessageEE12fetch_unsafeERS2_
 1088              		.thumb
 1089              		.thumb_func
 1090              		.type	_ZN3r2p10ArrayQueueIPNS_7MessageEE12fetch_unsafeERS2_, %function
 1091              	_ZN3r2p10ArrayQueueIPNS_7MessageEE12fetch_unsafeERS2_:
 1092              	.LFB607:
ARM GAS  /tmp/ccWSXIBF.s 			page 21


 1093              		.loc 12 52 0
 1094              		.cfi_startproc
 1095              		@ args = 0, pretend = 0, frame = 8
 1096              		@ frame_needed = 0, uses_anonymous_args = 0
 1097              		@ link register save eliminated.
 1098 0000 82B0     		sub	sp, sp, #8
 1099              		.cfi_def_cfa_offset 8
 1100 0002 0190     		str	r0, [sp, #4]
 1101 0004 0091     		str	r1, [sp]
 1102              		.loc 12 54 0
 1103 0006 019B     		ldr	r3, [sp, #4]
 1104 0008 9B68     		ldr	r3, [r3, #8]
 1105 000a 002B     		cmp	r3, #0
 1106 000c 23D0     		beq	.L64
 1107              		.loc 12 55 0
 1108 000e 019B     		ldr	r3, [sp, #4]
 1109 0010 9B68     		ldr	r3, [r3, #8]
 1110 0012 5A1E     		subs	r2, r3, #1
 1111 0014 019B     		ldr	r3, [sp, #4]
 1112 0016 9A60     		str	r2, [r3, #8]
 1113              		.loc 12 56 0
 1114 0018 019B     		ldr	r3, [sp, #4]
 1115 001a DB68     		ldr	r3, [r3, #12]
 1116 001c 1A68     		ldr	r2, [r3]
 1117 001e 009B     		ldr	r3, [sp]
 1118 0020 1A60     		str	r2, [r3]
 1119              		.loc 12 57 0
 1120 0022 019B     		ldr	r3, [sp, #4]
 1121 0024 DB68     		ldr	r3, [r3, #12]
 1122 0026 1A1D     		adds	r2, r3, #4
 1123 0028 019B     		ldr	r3, [sp, #4]
 1124 002a DA60     		str	r2, [r3, #12]
 1125 002c 019B     		ldr	r3, [sp, #4]
 1126 002e DA68     		ldr	r2, [r3, #12]
 1127 0030 019B     		ldr	r3, [sp, #4]
 1128 0032 1968     		ldr	r1, [r3]
 1129 0034 019B     		ldr	r3, [sp, #4]
 1130 0036 5B68     		ldr	r3, [r3, #4]
 1131 0038 9B00     		lsls	r3, r3, #2
 1132 003a 0B44     		add	r3, r3, r1
 1133 003c 9A42     		cmp	r2, r3
 1134 003e 2CBF     		ite	cs
 1135 0040 0123     		movcs	r3, #1
 1136 0042 0023     		movcc	r3, #0
 1137 0044 DBB2     		uxtb	r3, r3
 1138 0046 002B     		cmp	r3, #0
 1139 0048 03D0     		beq	.L65
 1140              		.loc 12 58 0
 1141 004a 019B     		ldr	r3, [sp, #4]
 1142 004c 1A68     		ldr	r2, [r3]
 1143 004e 019B     		ldr	r3, [sp, #4]
 1144 0050 DA60     		str	r2, [r3, #12]
 1145              	.L65:
 1146              		.loc 12 60 0
 1147 0052 0123     		movs	r3, #1
 1148 0054 00E0     		b	.L66
 1149              	.L64:
ARM GAS  /tmp/ccWSXIBF.s 			page 22


 1150              		.loc 12 62 0
 1151 0056 0023     		movs	r3, #0
 1152              	.L66:
 1153              		.loc 12 63 0
 1154 0058 1846     		mov	r0, r3
 1155 005a 02B0     		add	sp, sp, #8
 1156              		.cfi_def_cfa_offset 0
 1157              		@ sp needed
 1158 005c 7047     		bx	lr
 1159              		.cfi_endproc
 1160              	.LFE607:
 1161              		.size	_ZN3r2p10ArrayQueueIPNS_7MessageEE12fetch_unsafeERS2_, .-_ZN3r2p10ArrayQueueIPNS_7MessageEE1
 1162 005e 00BF     		.section	.text._ZN3r2p10ArrayQueueIPNS_7MessageEE11post_unsafeES2_,"axG",%progbits,_ZN3r2p10ArrayQ
 1163              		.align	2
 1164              		.p2align 4,,15
 1165              		.weak	_ZN3r2p10ArrayQueueIPNS_7MessageEE11post_unsafeES2_
 1166              		.thumb
 1167              		.thumb_func
 1168              		.type	_ZN3r2p10ArrayQueueIPNS_7MessageEE11post_unsafeES2_, %function
 1169              	_ZN3r2p10ArrayQueueIPNS_7MessageEE11post_unsafeES2_:
 1170              	.LFB608:
 1171              		.loc 12 37 0
 1172              		.cfi_startproc
 1173              		@ args = 0, pretend = 0, frame = 8
 1174              		@ frame_needed = 0, uses_anonymous_args = 0
 1175              		@ link register save eliminated.
 1176 0000 82B0     		sub	sp, sp, #8
 1177              		.cfi_def_cfa_offset 8
 1178 0002 0190     		str	r0, [sp, #4]
 1179 0004 0091     		str	r1, [sp]
 1180              		.loc 12 39 0
 1181 0006 019B     		ldr	r3, [sp, #4]
 1182 0008 9A68     		ldr	r2, [r3, #8]
 1183 000a 019B     		ldr	r3, [sp, #4]
 1184 000c 5B68     		ldr	r3, [r3, #4]
 1185 000e 9A42     		cmp	r2, r3
 1186 0010 22D2     		bcs	.L68
 1187              		.loc 12 40 0
 1188 0012 019B     		ldr	r3, [sp, #4]
 1189 0014 9B68     		ldr	r3, [r3, #8]
 1190 0016 5A1C     		adds	r2, r3, #1
 1191 0018 019B     		ldr	r3, [sp, #4]
 1192 001a 9A60     		str	r2, [r3, #8]
 1193              		.loc 12 41 0
 1194 001c 019B     		ldr	r3, [sp, #4]
 1195 001e 1B69     		ldr	r3, [r3, #16]
 1196 0020 009A     		ldr	r2, [sp]
 1197 0022 1A60     		str	r2, [r3]
 1198              		.loc 12 42 0
 1199 0024 019B     		ldr	r3, [sp, #4]
 1200 0026 1B69     		ldr	r3, [r3, #16]
 1201 0028 1A1D     		adds	r2, r3, #4
 1202 002a 019B     		ldr	r3, [sp, #4]
 1203 002c 1A61     		str	r2, [r3, #16]
 1204 002e 019B     		ldr	r3, [sp, #4]
 1205 0030 1A69     		ldr	r2, [r3, #16]
 1206 0032 019B     		ldr	r3, [sp, #4]
ARM GAS  /tmp/ccWSXIBF.s 			page 23


 1207 0034 1968     		ldr	r1, [r3]
 1208 0036 019B     		ldr	r3, [sp, #4]
 1209 0038 5B68     		ldr	r3, [r3, #4]
 1210 003a 9B00     		lsls	r3, r3, #2
 1211 003c 0B44     		add	r3, r3, r1
 1212 003e 9A42     		cmp	r2, r3
 1213 0040 2CBF     		ite	cs
 1214 0042 0123     		movcs	r3, #1
 1215 0044 0023     		movcc	r3, #0
 1216 0046 DBB2     		uxtb	r3, r3
 1217 0048 002B     		cmp	r3, #0
 1218 004a 03D0     		beq	.L69
 1219              		.loc 12 43 0
 1220 004c 019B     		ldr	r3, [sp, #4]
 1221 004e 1A68     		ldr	r2, [r3]
 1222 0050 019B     		ldr	r3, [sp, #4]
 1223 0052 1A61     		str	r2, [r3, #16]
 1224              	.L69:
 1225              		.loc 12 45 0
 1226 0054 0123     		movs	r3, #1
 1227 0056 00E0     		b	.L70
 1228              	.L68:
 1229              		.loc 12 47 0
 1230 0058 0023     		movs	r3, #0
 1231              	.L70:
 1232              		.loc 12 48 0
 1233 005a 1846     		mov	r0, r3
 1234 005c 02B0     		add	sp, sp, #8
 1235              		.cfi_def_cfa_offset 0
 1236              		@ sp needed
 1237 005e 7047     		bx	lr
 1238              		.cfi_endproc
 1239              	.LFE608:
 1240              		.size	_ZN3r2p10ArrayQueueIPNS_7MessageEE11post_unsafeES2_, .-_ZN3r2p10ArrayQueueIPNS_7MessageEE11p
 1241              		.weak	_ZTVN3r2p16SubscriberExtBufINS_7MgmtMsgEEE
 1242              		.section	.rodata._ZTVN3r2p16SubscriberExtBufINS_7MgmtMsgEEE,"aG",%progbits,_ZTVN3r2p16SubscriberEx
 1243              		.align	3
 1244              		.type	_ZTVN3r2p16SubscriberExtBufINS_7MgmtMsgEEE, %object
 1245              		.size	_ZTVN3r2p16SubscriberExtBufINS_7MgmtMsgEEE, 36
 1246              	_ZTVN3r2p16SubscriberExtBufINS_7MgmtMsgEEE:
 1247 0000 00000000 		.word	0
 1248 0004 00000000 		.word	0
 1249 0008 00000000 		.word	_ZNK3r2p15LocalSubscriber16get_queue_lengthEv
 1250 000c 00000000 		.word	_ZN3r2p15LocalSubscriber13notify_unsafeERNS_7MessageERKNS_4TimeE
 1251 0010 00000000 		.word	_ZN3r2p15LocalSubscriber12fetch_unsafeERPNS_7MessageERNS_4TimeE
 1252 0014 00000000 		.word	_ZN3r2p15LocalSubscriber6notifyERNS_7MessageERKNS_4TimeE
 1253 0018 00000000 		.word	_ZN3r2p15LocalSubscriber5fetchERPNS_7MessageERNS_4TimeE
 1254 001c 00000000 		.word	_ZN3r2p16SubscriberExtBufINS_7MgmtMsgEED1Ev
 1255 0020 00000000 		.word	_ZN3r2p16SubscriberExtBufINS_7MgmtMsgEED0Ev
 1256              		.weak	_ZTVN3r2p9PublisherINS_7MgmtMsgEEE
 1257 0024 00000000 		.section	.rodata._ZTVN3r2p9PublisherINS_7MgmtMsgEEE,"aG",%progbits,_ZTVN3r2p9PublisherINS_7MgmtMsg
 1258              		.align	3
 1259              		.type	_ZTVN3r2p9PublisherINS_7MgmtMsgEEE, %object
 1260              		.size	_ZTVN3r2p9PublisherINS_7MgmtMsgEEE, 16
 1261              	_ZTVN3r2p9PublisherINS_7MgmtMsgEEE:
 1262 0000 00000000 		.word	0
 1263 0004 00000000 		.word	0
ARM GAS  /tmp/ccWSXIBF.s 			page 24


 1264 0008 00000000 		.word	_ZN3r2p9PublisherINS_7MgmtMsgEED1Ev
 1265 000c 00000000 		.word	_ZN3r2p9PublisherINS_7MgmtMsgEED0Ev
 1266              		.section	.text._ZN3r2p10StaticListINS_4NodeEED2Ev,"axG",%progbits,_ZN3r2p10StaticListINS_4NodeEED5
 1267              		.align	2
 1268              		.p2align 4,,15
 1269              		.weak	_ZN3r2p10StaticListINS_4NodeEED2Ev
 1270              		.thumb
 1271              		.thumb_func
 1272              		.type	_ZN3r2p10StaticListINS_4NodeEED2Ev, %function
 1273              	_ZN3r2p10StaticListINS_4NodeEED2Ev:
 1274              	.LFB621:
 1275              		.file 13 "/home/denny/r2p-sdk/core/Middleware/include/r2p/StaticList.hpp"
 1276              		.loc 13 15 0
 1277              		.cfi_startproc
 1278              		@ args = 0, pretend = 0, frame = 8
 1279              		@ frame_needed = 0, uses_anonymous_args = 0
 1280 0000 00B5     		push	{lr}
 1281              		.cfi_def_cfa_offset 4
 1282              		.cfi_offset 14, -4
 1283 0002 83B0     		sub	sp, sp, #12
 1284              		.cfi_def_cfa_offset 16
 1285 0004 0190     		str	r0, [sp, #4]
 1286              	.LBB15:
 1287              		.loc 13 15 0
 1288 0006 0198     		ldr	r0, [sp, #4]
 1289 0008 FFF7FEFF 		bl	_ZN3r2p10UncopyableD2Ev
 1290              	.LBE15:
 1291 000c 019B     		ldr	r3, [sp, #4]
 1292 000e 1846     		mov	r0, r3
 1293 0010 03B0     		add	sp, sp, #12
 1294              		.cfi_def_cfa_offset 4
 1295              		@ sp needed
 1296 0012 5DF804FB 		ldr	pc, [sp], #4
 1297              		.cfi_endproc
 1298              	.LFE621:
 1299              		.size	_ZN3r2p10StaticListINS_4NodeEED2Ev, .-_ZN3r2p10StaticListINS_4NodeEED2Ev
 1300              		.weak	_ZN3r2p10StaticListINS_4NodeEED1Ev
 1301              		.thumb_set _ZN3r2p10StaticListINS_4NodeEED1Ev,_ZN3r2p10StaticListINS_4NodeEED2Ev
 1302 0016 00BFAFF3 		.section	.text._ZN3r2p10StaticListINS_5TopicEED2Ev,"axG",%progbits,_ZN3r2p10StaticListINS_5TopicEE
 1302      0080AFF3 
 1302      0080
 1303              		.align	2
 1304              		.p2align 4,,15
 1305              		.weak	_ZN3r2p10StaticListINS_5TopicEED2Ev
 1306              		.thumb
 1307              		.thumb_func
 1308              		.type	_ZN3r2p10StaticListINS_5TopicEED2Ev, %function
 1309              	_ZN3r2p10StaticListINS_5TopicEED2Ev:
 1310              	.LFB624:
 1311              		.loc 13 15 0
 1312              		.cfi_startproc
 1313              		@ args = 0, pretend = 0, frame = 8
 1314              		@ frame_needed = 0, uses_anonymous_args = 0
 1315 0000 00B5     		push	{lr}
 1316              		.cfi_def_cfa_offset 4
 1317              		.cfi_offset 14, -4
 1318 0002 83B0     		sub	sp, sp, #12
ARM GAS  /tmp/ccWSXIBF.s 			page 25


 1319              		.cfi_def_cfa_offset 16
 1320 0004 0190     		str	r0, [sp, #4]
 1321              	.LBB16:
 1322              		.loc 13 15 0
 1323 0006 0198     		ldr	r0, [sp, #4]
 1324 0008 FFF7FEFF 		bl	_ZN3r2p10UncopyableD2Ev
 1325              	.LBE16:
 1326 000c 019B     		ldr	r3, [sp, #4]
 1327 000e 1846     		mov	r0, r3
 1328 0010 03B0     		add	sp, sp, #12
 1329              		.cfi_def_cfa_offset 4
 1330              		@ sp needed
 1331 0012 5DF804FB 		ldr	pc, [sp], #4
 1332              		.cfi_endproc
 1333              	.LFE624:
 1334              		.size	_ZN3r2p10StaticListINS_5TopicEED2Ev, .-_ZN3r2p10StaticListINS_5TopicEED2Ev
 1335              		.weak	_ZN3r2p10StaticListINS_5TopicEED1Ev
 1336              		.thumb_set _ZN3r2p10StaticListINS_5TopicEED1Ev,_ZN3r2p10StaticListINS_5TopicEED2Ev
 1337 0016 00BFAFF3 		.section	.text._ZN3r2p10StaticListINS_9TransportEED2Ev,"axG",%progbits,_ZN3r2p10StaticListINS_9Tra
 1337      0080AFF3 
 1337      0080
 1338              		.align	2
 1339              		.p2align 4,,15
 1340              		.weak	_ZN3r2p10StaticListINS_9TransportEED2Ev
 1341              		.thumb
 1342              		.thumb_func
 1343              		.type	_ZN3r2p10StaticListINS_9TransportEED2Ev, %function
 1344              	_ZN3r2p10StaticListINS_9TransportEED2Ev:
 1345              	.LFB627:
 1346              		.loc 13 15 0
 1347              		.cfi_startproc
 1348              		@ args = 0, pretend = 0, frame = 8
 1349              		@ frame_needed = 0, uses_anonymous_args = 0
 1350 0000 00B5     		push	{lr}
 1351              		.cfi_def_cfa_offset 4
 1352              		.cfi_offset 14, -4
 1353 0002 83B0     		sub	sp, sp, #12
 1354              		.cfi_def_cfa_offset 16
 1355 0004 0190     		str	r0, [sp, #4]
 1356              	.LBB17:
 1357              		.loc 13 15 0
 1358 0006 0198     		ldr	r0, [sp, #4]
 1359 0008 FFF7FEFF 		bl	_ZN3r2p10UncopyableD2Ev
 1360              	.LBE17:
 1361 000c 019B     		ldr	r3, [sp, #4]
 1362 000e 1846     		mov	r0, r3
 1363 0010 03B0     		add	sp, sp, #12
 1364              		.cfi_def_cfa_offset 4
 1365              		@ sp needed
 1366 0012 5DF804FB 		ldr	pc, [sp], #4
 1367              		.cfi_endproc
 1368              	.LFE627:
 1369              		.size	_ZN3r2p10StaticListINS_9TransportEED2Ev, .-_ZN3r2p10StaticListINS_9TransportEED2Ev
 1370              		.weak	_ZN3r2p10StaticListINS_9TransportEED1Ev
 1371              		.thumb_set _ZN3r2p10StaticListINS_9TransportEED1Ev,_ZN3r2p10StaticListINS_9TransportEED2Ev
 1372 0016 00BFAFF3 		.section	.text._ZN3r2p7ReMutexD2Ev,"axG",%progbits,_ZN3r2p7ReMutexD5Ev,comdat
 1372      0080AFF3 
ARM GAS  /tmp/ccWSXIBF.s 			page 26


 1372      0080
 1373              		.align	2
 1374              		.p2align 4,,15
 1375              		.weak	_ZN3r2p7ReMutexD2Ev
 1376              		.thumb
 1377              		.thumb_func
 1378              		.type	_ZN3r2p7ReMutexD2Ev, %function
 1379              	_ZN3r2p7ReMutexD2Ev:
 1380              	.LFB630:
 1381              		.file 14 "/home/denny/r2p-sdk/core/Middleware/include/r2p/ReMutex.hpp"
 1382              		.loc 14 9 0
 1383              		.cfi_startproc
 1384              		@ args = 0, pretend = 0, frame = 8
 1385              		@ frame_needed = 0, uses_anonymous_args = 0
 1386 0000 00B5     		push	{lr}
 1387              		.cfi_def_cfa_offset 4
 1388              		.cfi_offset 14, -4
 1389 0002 83B0     		sub	sp, sp, #12
 1390              		.cfi_def_cfa_offset 16
 1391 0004 0190     		str	r0, [sp, #4]
 1392              	.LBB18:
 1393              		.loc 14 9 0
 1394 0006 019B     		ldr	r3, [sp, #4]
 1395 0008 0433     		adds	r3, r3, #4
 1396 000a 1846     		mov	r0, r3
 1397 000c FFF7FEFF 		bl	_ZN3r2p5MutexD1Ev
 1398 0010 0198     		ldr	r0, [sp, #4]
 1399 0012 FFF7FEFF 		bl	_ZN3r2p10UncopyableD2Ev
 1400              	.LBE18:
 1401 0016 019B     		ldr	r3, [sp, #4]
 1402 0018 1846     		mov	r0, r3
 1403 001a 03B0     		add	sp, sp, #12
 1404              		.cfi_def_cfa_offset 4
 1405              		@ sp needed
 1406 001c 5DF804FB 		ldr	pc, [sp], #4
 1407              		.cfi_endproc
 1408              	.LFE630:
 1409              		.size	_ZN3r2p7ReMutexD2Ev, .-_ZN3r2p7ReMutexD2Ev
 1410              		.weak	_ZN3r2p7ReMutexD1Ev
 1411              		.thumb_set _ZN3r2p7ReMutexD1Ev,_ZN3r2p7ReMutexD2Ev
 1412              		.section	.text._ZN3r2p11MemoryPool_D2Ev,"axG",%progbits,_ZN3r2p11MemoryPool_D5Ev,comdat
 1413              		.align	2
 1414              		.p2align 4,,15
 1415              		.weak	_ZN3r2p11MemoryPool_D2Ev
 1416              		.thumb
 1417              		.thumb_func
 1418              		.type	_ZN3r2p11MemoryPool_D2Ev, %function
 1419              	_ZN3r2p11MemoryPool_D2Ev:
 1420              	.LFB634:
 1421              		.file 15 "/home/denny/r2p-sdk/core/Middleware/port/chibios/include/r2p/impl/MemoryPool_.hpp"
 1422              		.loc 15 9 0
 1423              		.cfi_startproc
 1424              		@ args = 0, pretend = 0, frame = 8
 1425              		@ frame_needed = 0, uses_anonymous_args = 0
 1426 0000 00B5     		push	{lr}
 1427              		.cfi_def_cfa_offset 4
 1428              		.cfi_offset 14, -4
ARM GAS  /tmp/ccWSXIBF.s 			page 27


 1429 0002 83B0     		sub	sp, sp, #12
 1430              		.cfi_def_cfa_offset 16
 1431 0004 0190     		str	r0, [sp, #4]
 1432              	.LBB19:
 1433              		.loc 15 9 0
 1434 0006 0198     		ldr	r0, [sp, #4]
 1435 0008 FFF7FEFF 		bl	_ZN3r2p10UncopyableD2Ev
 1436              	.LBE19:
 1437 000c 019B     		ldr	r3, [sp, #4]
 1438 000e 1846     		mov	r0, r3
 1439 0010 03B0     		add	sp, sp, #12
 1440              		.cfi_def_cfa_offset 4
 1441              		@ sp needed
 1442 0012 5DF804FB 		ldr	pc, [sp], #4
 1443              		.cfi_endproc
 1444              	.LFE634:
 1445              		.size	_ZN3r2p11MemoryPool_D2Ev, .-_ZN3r2p11MemoryPool_D2Ev
 1446              		.weak	_ZN3r2p11MemoryPool_D1Ev
 1447              		.thumb_set _ZN3r2p11MemoryPool_D1Ev,_ZN3r2p11MemoryPool_D2Ev
 1448 0016 00BFAFF3 		.section	.text._ZN3r2p10StaticListINS_15LocalSubscriberEED2Ev,"axG",%progbits,_ZN3r2p10StaticListI
 1448      0080AFF3 
 1448      0080
 1449              		.align	2
 1450              		.p2align 4,,15
 1451              		.weak	_ZN3r2p10StaticListINS_15LocalSubscriberEED2Ev
 1452              		.thumb
 1453              		.thumb_func
 1454              		.type	_ZN3r2p10StaticListINS_15LocalSubscriberEED2Ev, %function
 1455              	_ZN3r2p10StaticListINS_15LocalSubscriberEED2Ev:
 1456              	.LFB637:
 1457              		.loc 13 15 0
 1458              		.cfi_startproc
 1459              		@ args = 0, pretend = 0, frame = 8
 1460              		@ frame_needed = 0, uses_anonymous_args = 0
 1461 0000 00B5     		push	{lr}
 1462              		.cfi_def_cfa_offset 4
 1463              		.cfi_offset 14, -4
 1464 0002 83B0     		sub	sp, sp, #12
 1465              		.cfi_def_cfa_offset 16
 1466 0004 0190     		str	r0, [sp, #4]
 1467              	.LBB20:
 1468              		.loc 13 15 0
 1469 0006 0198     		ldr	r0, [sp, #4]
 1470 0008 FFF7FEFF 		bl	_ZN3r2p10UncopyableD2Ev
 1471              	.LBE20:
 1472 000c 019B     		ldr	r3, [sp, #4]
 1473 000e 1846     		mov	r0, r3
 1474 0010 03B0     		add	sp, sp, #12
 1475              		.cfi_def_cfa_offset 4
 1476              		@ sp needed
 1477 0012 5DF804FB 		ldr	pc, [sp], #4
 1478              		.cfi_endproc
 1479              	.LFE637:
 1480              		.size	_ZN3r2p10StaticListINS_15LocalSubscriberEED2Ev, .-_ZN3r2p10StaticListINS_15LocalSubscriberEE
 1481              		.weak	_ZN3r2p10StaticListINS_15LocalSubscriberEED1Ev
 1482              		.thumb_set _ZN3r2p10StaticListINS_15LocalSubscriberEED1Ev,_ZN3r2p10StaticListINS_15LocalSubscriber
 1483 0016 00BFAFF3 		.section	.text._ZN3r2p10StaticListINS_16RemoteSubscriberEED2Ev,"axG",%progbits,_ZN3r2p10StaticList
ARM GAS  /tmp/ccWSXIBF.s 			page 28


 1483      0080AFF3 
 1483      0080
 1484              		.align	2
 1485              		.p2align 4,,15
 1486              		.weak	_ZN3r2p10StaticListINS_16RemoteSubscriberEED2Ev
 1487              		.thumb
 1488              		.thumb_func
 1489              		.type	_ZN3r2p10StaticListINS_16RemoteSubscriberEED2Ev, %function
 1490              	_ZN3r2p10StaticListINS_16RemoteSubscriberEED2Ev:
 1491              	.LFB640:
 1492              		.loc 13 15 0
 1493              		.cfi_startproc
 1494              		@ args = 0, pretend = 0, frame = 8
 1495              		@ frame_needed = 0, uses_anonymous_args = 0
 1496 0000 00B5     		push	{lr}
 1497              		.cfi_def_cfa_offset 4
 1498              		.cfi_offset 14, -4
 1499 0002 83B0     		sub	sp, sp, #12
 1500              		.cfi_def_cfa_offset 16
 1501 0004 0190     		str	r0, [sp, #4]
 1502              	.LBB21:
 1503              		.loc 13 15 0
 1504 0006 0198     		ldr	r0, [sp, #4]
 1505 0008 FFF7FEFF 		bl	_ZN3r2p10UncopyableD2Ev
 1506              	.LBE21:
 1507 000c 019B     		ldr	r3, [sp, #4]
 1508 000e 1846     		mov	r0, r3
 1509 0010 03B0     		add	sp, sp, #12
 1510              		.cfi_def_cfa_offset 4
 1511              		@ sp needed
 1512 0012 5DF804FB 		ldr	pc, [sp], #4
 1513              		.cfi_endproc
 1514              	.LFE640:
 1515              		.size	_ZN3r2p10StaticListINS_16RemoteSubscriberEED2Ev, .-_ZN3r2p10StaticListINS_16RemoteSubscriber
 1516              		.weak	_ZN3r2p10StaticListINS_16RemoteSubscriberEED1Ev
 1517              		.thumb_set _ZN3r2p10StaticListINS_16RemoteSubscriberEED1Ev,_ZN3r2p10StaticListINS_16RemoteSubscrib
 1518 0016 00BFAFF3 		.section	.text._ZN3r2p5TopicD2Ev,"axG",%progbits,_ZN3r2p5TopicD5Ev,comdat
 1518      0080AFF3 
 1518      0080
 1519              		.align	2
 1520              		.p2align 4,,15
 1521              		.weak	_ZN3r2p5TopicD2Ev
 1522              		.thumb
 1523              		.thumb_func
 1524              		.type	_ZN3r2p5TopicD2Ev, %function
 1525              	_ZN3r2p5TopicD2Ev:
 1526              	.LFB642:
 1527              		.file 16 "/home/denny/r2p-sdk/core/Middleware/include/r2p/Topic.hpp"
 1528              		.loc 16 23 0
 1529              		.cfi_startproc
 1530              		@ args = 0, pretend = 0, frame = 8
 1531              		@ frame_needed = 0, uses_anonymous_args = 0
 1532 0000 00B5     		push	{lr}
 1533              		.cfi_def_cfa_offset 4
 1534              		.cfi_offset 14, -4
 1535 0002 83B0     		sub	sp, sp, #12
 1536              		.cfi_def_cfa_offset 16
ARM GAS  /tmp/ccWSXIBF.s 			page 29


 1537 0004 0190     		str	r0, [sp, #4]
 1538              	.LBB22:
 1539              		.loc 16 23 0
 1540 0006 019B     		ldr	r3, [sp, #4]
 1541 0008 2033     		adds	r3, r3, #32
 1542 000a 1846     		mov	r0, r3
 1543 000c FFF7FEFF 		bl	_ZN3r2p10StaticListINS_16RemoteSubscriberEED1Ev
 1544 0010 019B     		ldr	r3, [sp, #4]
 1545 0012 1C33     		adds	r3, r3, #28
 1546 0014 1846     		mov	r0, r3
 1547 0016 FFF7FEFF 		bl	_ZN3r2p10StaticListINS_15LocalSubscriberEED1Ev
 1548 001a 019B     		ldr	r3, [sp, #4]
 1549 001c 0833     		adds	r3, r3, #8
 1550 001e 1846     		mov	r0, r3
 1551 0020 FFF7FEFF 		bl	_ZN3r2p11MemoryPool_D1Ev
 1552 0024 0198     		ldr	r0, [sp, #4]
 1553 0026 FFF7FEFF 		bl	_ZN3r2p10UncopyableD2Ev
 1554              	.LBE22:
 1555 002a 019B     		ldr	r3, [sp, #4]
 1556 002c 1846     		mov	r0, r3
 1557 002e 03B0     		add	sp, sp, #12
 1558              		.cfi_def_cfa_offset 4
 1559              		@ sp needed
 1560 0030 5DF804FB 		ldr	pc, [sp], #4
 1561              		.cfi_endproc
 1562              	.LFE642:
 1563              		.size	_ZN3r2p5TopicD2Ev, .-_ZN3r2p5TopicD2Ev
 1564              		.weak	_ZN3r2p5TopicD1Ev
 1565              		.thumb_set _ZN3r2p5TopicD1Ev,_ZN3r2p5TopicD2Ev
 1566 0034 AFF30080 		.section	.text._ZN3r2p10MiddlewareD2Ev,"axG",%progbits,_ZN3r2p10MiddlewareD5Ev,comdat
 1566      AFF30080 
 1566      AFF30080 
 1567              		.align	2
 1568              		.p2align 4,,15
 1569              		.weak	_ZN3r2p10MiddlewareD2Ev
 1570              		.thumb
 1571              		.thumb_func
 1572              		.type	_ZN3r2p10MiddlewareD2Ev, %function
 1573              	_ZN3r2p10MiddlewareD2Ev:
 1574              	.LFB644:
 1575              		.file 17 "/home/denny/r2p-sdk/core/Middleware/include/r2p/Middleware.hpp"
 1576              		.loc 17 34 0
 1577              		.cfi_startproc
 1578              		@ args = 0, pretend = 0, frame = 8
 1579              		@ frame_needed = 0, uses_anonymous_args = 0
 1580 0000 00B5     		push	{lr}
 1581              		.cfi_def_cfa_offset 4
 1582              		.cfi_offset 14, -4
 1583 0002 83B0     		sub	sp, sp, #12
 1584              		.cfi_def_cfa_offset 16
 1585 0004 0190     		str	r0, [sp, #4]
 1586              	.LBB23:
 1587              		.loc 17 34 0
 1588 0006 019B     		ldr	r3, [sp, #4]
 1589 0008 9433     		adds	r3, r3, #148
 1590 000a 1846     		mov	r0, r3
 1591 000c FFF7FEFF 		bl	_ZN3r2p16SubscriberExtBufINS_7MgmtMsgEED1Ev
ARM GAS  /tmp/ccWSXIBF.s 			page 30


 1592 0010 019B     		ldr	r3, [sp, #4]
 1593 0012 8433     		adds	r3, r3, #132
 1594 0014 1846     		mov	r0, r3
 1595 0016 FFF7FEFF 		bl	_ZN3r2p9PublisherINS_7MgmtMsgEED1Ev
 1596 001a 019B     		ldr	r3, [sp, #4]
 1597 001c 6833     		adds	r3, r3, #104
 1598 001e 1846     		mov	r0, r3
 1599 0020 FFF7FEFF 		bl	_ZN3r2p4NodeD1Ev
 1600 0024 019B     		ldr	r3, [sp, #4]
 1601 0026 2833     		adds	r3, r3, #40
 1602 0028 1846     		mov	r0, r3
 1603 002a FFF7FEFF 		bl	_ZN3r2p5TopicD1Ev
 1604 002e 019B     		ldr	r3, [sp, #4]
 1605 0030 1033     		adds	r3, r3, #16
 1606 0032 1846     		mov	r0, r3
 1607 0034 FFF7FEFF 		bl	_ZN3r2p7ReMutexD1Ev
 1608 0038 019B     		ldr	r3, [sp, #4]
 1609 003a 0C33     		adds	r3, r3, #12
 1610 003c 1846     		mov	r0, r3
 1611 003e FFF7FEFF 		bl	_ZN3r2p10StaticListINS_9TransportEED1Ev
 1612 0042 019B     		ldr	r3, [sp, #4]
 1613 0044 0833     		adds	r3, r3, #8
 1614 0046 1846     		mov	r0, r3
 1615 0048 FFF7FEFF 		bl	_ZN3r2p10StaticListINS_5TopicEED1Ev
 1616 004c 019B     		ldr	r3, [sp, #4]
 1617 004e 0433     		adds	r3, r3, #4
 1618 0050 1846     		mov	r0, r3
 1619 0052 FFF7FEFF 		bl	_ZN3r2p10StaticListINS_4NodeEED1Ev
 1620 0056 0198     		ldr	r0, [sp, #4]
 1621 0058 FFF7FEFF 		bl	_ZN3r2p10UncopyableD2Ev
 1622              	.LBE23:
 1623 005c 019B     		ldr	r3, [sp, #4]
 1624 005e 1846     		mov	r0, r3
 1625 0060 03B0     		add	sp, sp, #12
 1626              		.cfi_def_cfa_offset 4
 1627              		@ sp needed
 1628 0062 5DF804FB 		ldr	pc, [sp], #4
 1629              		.cfi_endproc
 1630              	.LFE644:
 1631              		.size	_ZN3r2p10MiddlewareD2Ev, .-_ZN3r2p10MiddlewareD2Ev
 1632              		.weak	_ZN3r2p10MiddlewareD1Ev
 1633              		.thumb_set _ZN3r2p10MiddlewareD1Ev,_ZN3r2p10MiddlewareD2Ev
 1634 0066 00BFAFF3 		.section	.rodata
 1634      0080AFF3 
 1634      0080
 1635              		.align	2
 1636              	.LC9:
 1637 0064 6D6F746F 		.ascii	"motor_1\000"
 1637      725F3100 
 1638              		.align	2
 1639              	.LC10:
 1640 006c 424F4F54 		.ascii	"BOOT_motor_1\000"
 1640      5F6D6F74 
 1640      6F725F31 
 1640      00
 1641 0079 000000   		.section	.text._Z41__static_initialization_and_destruction_0ii,"ax",%progbits
 1642              		.align	2
ARM GAS  /tmp/ccWSXIBF.s 			page 31


 1643              		.p2align 4,,15
 1644              		.thumb
 1645              		.thumb_func
 1646              		.type	_Z41__static_initialization_and_destruction_0ii, %function
 1647              	_Z41__static_initialization_and_destruction_0ii:
 1648              	.LFB618:
 1649              		.loc 11 51 0
 1650              		.cfi_startproc
 1651              		@ args = 0, pretend = 0, frame = 8
 1652              		@ frame_needed = 0, uses_anonymous_args = 0
 1653 0000 00B5     		push	{lr}
 1654              		.cfi_def_cfa_offset 4
 1655              		.cfi_offset 14, -4
 1656 0002 85B0     		sub	sp, sp, #20
 1657              		.cfi_def_cfa_offset 24
 1658 0004 0390     		str	r0, [sp, #12]
 1659 0006 0291     		str	r1, [sp, #8]
 1660              		.loc 11 51 0
 1661 0008 039B     		ldr	r3, [sp, #12]
 1662 000a 012B     		cmp	r3, #1
 1663 000c 1AD1     		bne	.L98
 1664              		.loc 11 51 0 is_stmt 0 discriminator 1
 1665 000e 029B     		ldr	r3, [sp, #8]
 1666 0010 4FF6FF72 		movw	r2, #65535
 1667 0014 9342     		cmp	r3, r2
 1668 0016 15D1     		bne	.L98
 1669              		.loc 11 17 0 is_stmt 1
 1670 0018 0C48     		ldr	r0, .L100
 1671 001a 0D49     		ldr	r1, .L100+4
 1672 001c FFF7FEFF 		bl	_ZN3r2p14RTCANTransportC1ER11RTCANDriver
 1673 0020 0A48     		ldr	r0, .L100
 1674 0022 0C49     		ldr	r1, .L100+8
 1675 0024 0C4A     		ldr	r2, .L100+12
 1676 0026 FFF7FEFF 		bl	__aeabi_atexit
 1677              		.loc 11 21 0
 1678 002a 0023     		movs	r3, #0
 1679 002c 0093     		str	r3, [sp]
 1680 002e 0B48     		ldr	r0, .L100+16
 1681 0030 0B49     		ldr	r1, .L100+20
 1682 0032 0C4A     		ldr	r2, .L100+24
 1683 0034 0023     		movs	r3, #0
 1684 0036 FFF7FEFF 		bl	_ZN3r2p10MiddlewareC1EPKcS2_PNS0_10PubSubStepEj
 1685 003a 0848     		ldr	r0, .L100+16
 1686 003c 0A49     		ldr	r1, .L100+28
 1687 003e 064A     		ldr	r2, .L100+12
 1688 0040 FFF7FEFF 		bl	__aeabi_atexit
 1689              	.L98:
 1690              		.loc 11 51 0
 1691 0044 05B0     		add	sp, sp, #20
 1692              		.cfi_def_cfa_offset 4
 1693              		@ sp needed
 1694 0046 5DF804FB 		ldr	pc, [sp], #4
 1695              	.L101:
 1696 004a 00BF     		.align	2
 1697              	.L100:
 1698 004c 00000000 		.word	_ZL8rtcantra
 1699 0050 00000000 		.word	RTCAND1
ARM GAS  /tmp/ccWSXIBF.s 			page 32


 1700 0054 00000000 		.word	_ZN3r2p14RTCANTransportD1Ev
 1701 0058 00000000 		.word	__dso_handle
 1702 005c 00000000 		.word	_ZN3r2p10Middleware8instanceE
 1703 0060 64000000 		.word	.LC9
 1704 0064 6C000000 		.word	.LC10
 1705 0068 00000000 		.word	_ZN3r2p10MiddlewareD1Ev
 1706              		.cfi_endproc
 1707              	.LFE618:
 1708              		.size	_Z41__static_initialization_and_destruction_0ii, .-_Z41__static_initialization_and_destructi
 1709 006c AFF30080 		.section	.text._ZN3r2p9PublisherINS_7MgmtMsgEED2Ev,"axG",%progbits,_ZN3r2p9PublisherINS_7MgmtMsgEE
 1710              		.align	2
 1711              		.p2align 4,,15
 1712              		.weak	_ZN3r2p9PublisherINS_7MgmtMsgEED2Ev
 1713              		.thumb
 1714              		.thumb_func
 1715              		.type	_ZN3r2p9PublisherINS_7MgmtMsgEED2Ev, %function
 1716              	_ZN3r2p9PublisherINS_7MgmtMsgEED2Ev:
 1717              	.LFB647:
 1718              		.file 18 "/home/denny/r2p-sdk/core/Middleware/include/r2p/Publisher.hpp"
 1719              		.loc 18 54 0
 1720              		.cfi_startproc
 1721              		@ args = 0, pretend = 0, frame = 8
 1722              		@ frame_needed = 0, uses_anonymous_args = 0
 1723 0000 00B5     		push	{lr}
 1724              		.cfi_def_cfa_offset 4
 1725              		.cfi_offset 14, -4
 1726 0002 83B0     		sub	sp, sp, #12
 1727              		.cfi_def_cfa_offset 16
 1728 0004 0190     		str	r0, [sp, #4]
 1729              	.LBB24:
 1730              		.loc 18 57 0
 1731 0006 019B     		ldr	r3, [sp, #4]
 1732 0008 084A     		ldr	r2, .L106
 1733 000a 1A60     		str	r2, [r3]
 1734 000c 019B     		ldr	r3, [sp, #4]
 1735 000e 1846     		mov	r0, r3
 1736 0010 FFF7FEFF 		bl	_ZN3r2p14LocalPublisherD2Ev
 1737              	.LBE24:
 1738 0014 0023     		movs	r3, #0
 1739 0016 002B     		cmp	r3, #0
 1740 0018 02D0     		beq	.L104
 1741              		.loc 18 57 0 is_stmt 0 discriminator 2
 1742 001a 0198     		ldr	r0, [sp, #4]
 1743 001c FFF7FEFF 		bl	_ZdlPv
 1744              	.L104:
 1745              		.loc 18 57 0 discriminator 4
 1746 0020 019B     		ldr	r3, [sp, #4]
 1747 0022 1846     		mov	r0, r3
 1748 0024 03B0     		add	sp, sp, #12
 1749              		.cfi_def_cfa_offset 4
 1750              		@ sp needed
 1751 0026 5DF804FB 		ldr	pc, [sp], #4
 1752              	.L107:
 1753 002a 00BF     		.align	2
 1754              	.L106:
 1755 002c 08000000 		.word	_ZTVN3r2p9PublisherINS_7MgmtMsgEEE+8
 1756              		.cfi_endproc
ARM GAS  /tmp/ccWSXIBF.s 			page 33


 1757              	.LFE647:
 1758              		.size	_ZN3r2p9PublisherINS_7MgmtMsgEED2Ev, .-_ZN3r2p9PublisherINS_7MgmtMsgEED2Ev
 1759              		.weak	_ZN3r2p9PublisherINS_7MgmtMsgEED1Ev
 1760              		.thumb_set _ZN3r2p9PublisherINS_7MgmtMsgEED1Ev,_ZN3r2p9PublisherINS_7MgmtMsgEED2Ev
 1761              		.section	.text._ZN3r2p9PublisherINS_7MgmtMsgEED0Ev,"axG",%progbits,_ZN3r2p9PublisherINS_7MgmtMsgEE
 1762              		.align	2
 1763              		.p2align 4,,15
 1764              		.weak	_ZN3r2p9PublisherINS_7MgmtMsgEED0Ev
 1765              		.thumb
 1766              		.thumb_func
 1767              		.type	_ZN3r2p9PublisherINS_7MgmtMsgEED0Ev, %function
 1768              	_ZN3r2p9PublisherINS_7MgmtMsgEED0Ev:
 1769              	.LFB649:
 1770              		.loc 18 54 0 is_stmt 1
 1771              		.cfi_startproc
 1772              		@ args = 0, pretend = 0, frame = 8
 1773              		@ frame_needed = 0, uses_anonymous_args = 0
 1774 0000 00B5     		push	{lr}
 1775              		.cfi_def_cfa_offset 4
 1776              		.cfi_offset 14, -4
 1777 0002 83B0     		sub	sp, sp, #12
 1778              		.cfi_def_cfa_offset 16
 1779 0004 0190     		str	r0, [sp, #4]
 1780              		.loc 18 57 0
 1781 0006 0198     		ldr	r0, [sp, #4]
 1782 0008 FFF7FEFF 		bl	_ZN3r2p9PublisherINS_7MgmtMsgEED1Ev
 1783 000c 0198     		ldr	r0, [sp, #4]
 1784 000e FFF7FEFF 		bl	_ZdlPv
 1785 0012 019B     		ldr	r3, [sp, #4]
 1786 0014 1846     		mov	r0, r3
 1787 0016 03B0     		add	sp, sp, #12
 1788              		.cfi_def_cfa_offset 4
 1789              		@ sp needed
 1790 0018 5DF804FB 		ldr	pc, [sp], #4
 1791              		.cfi_endproc
 1792              	.LFE649:
 1793              		.size	_ZN3r2p9PublisherINS_7MgmtMsgEED0Ev, .-_ZN3r2p9PublisherINS_7MgmtMsgEED0Ev
 1794 001c AFF30080 		.section	.text._ZN3r2p16SubscriberExtBufINS_7MgmtMsgEED2Ev,"axG",%progbits,_ZN3r2p16SubscriberExtB
 1795              		.align	2
 1796              		.p2align 4,,15
 1797              		.weak	_ZN3r2p16SubscriberExtBufINS_7MgmtMsgEED2Ev
 1798              		.thumb
 1799              		.thumb_func
 1800              		.type	_ZN3r2p16SubscriberExtBufINS_7MgmtMsgEED2Ev, %function
 1801              	_ZN3r2p16SubscriberExtBufINS_7MgmtMsgEED2Ev:
 1802              	.LFB651:
 1803              		.file 19 "/home/denny/r2p-sdk/core/Middleware/include/r2p/SubscriberExtBuf.hpp"
 1804              		.loc 19 76 0
 1805              		.cfi_startproc
 1806              		@ args = 0, pretend = 0, frame = 8
 1807              		@ frame_needed = 0, uses_anonymous_args = 0
 1808 0000 00B5     		push	{lr}
 1809              		.cfi_def_cfa_offset 4
 1810              		.cfi_offset 14, -4
 1811 0002 83B0     		sub	sp, sp, #12
 1812              		.cfi_def_cfa_offset 16
 1813 0004 0190     		str	r0, [sp, #4]
ARM GAS  /tmp/ccWSXIBF.s 			page 34


 1814              	.LBB25:
 1815              		.loc 19 79 0
 1816 0006 019B     		ldr	r3, [sp, #4]
 1817 0008 084A     		ldr	r2, .L115
 1818 000a 1A60     		str	r2, [r3]
 1819 000c 019B     		ldr	r3, [sp, #4]
 1820 000e 1846     		mov	r0, r3
 1821 0010 FFF7FEFF 		bl	_ZN3r2p15LocalSubscriberD2Ev
 1822              	.LBE25:
 1823 0014 0023     		movs	r3, #0
 1824 0016 002B     		cmp	r3, #0
 1825 0018 02D0     		beq	.L113
 1826              		.loc 19 79 0 is_stmt 0 discriminator 2
 1827 001a 0198     		ldr	r0, [sp, #4]
 1828 001c FFF7FEFF 		bl	_ZdlPv
 1829              	.L113:
 1830              		.loc 19 79 0 discriminator 4
 1831 0020 019B     		ldr	r3, [sp, #4]
 1832 0022 1846     		mov	r0, r3
 1833 0024 03B0     		add	sp, sp, #12
 1834              		.cfi_def_cfa_offset 4
 1835              		@ sp needed
 1836 0026 5DF804FB 		ldr	pc, [sp], #4
 1837              	.L116:
 1838 002a 00BF     		.align	2
 1839              	.L115:
 1840 002c 08000000 		.word	_ZTVN3r2p16SubscriberExtBufINS_7MgmtMsgEEE+8
 1841              		.cfi_endproc
 1842              	.LFE651:
 1843              		.size	_ZN3r2p16SubscriberExtBufINS_7MgmtMsgEED2Ev, .-_ZN3r2p16SubscriberExtBufINS_7MgmtMsgEED2Ev
 1844              		.weak	_ZN3r2p16SubscriberExtBufINS_7MgmtMsgEED1Ev
 1845              		.thumb_set _ZN3r2p16SubscriberExtBufINS_7MgmtMsgEED1Ev,_ZN3r2p16SubscriberExtBufINS_7MgmtMsgEED2Ev
 1846              		.section	.text._ZN3r2p16SubscriberExtBufINS_7MgmtMsgEED0Ev,"axG",%progbits,_ZN3r2p16SubscriberExtB
 1847              		.align	2
 1848              		.p2align 4,,15
 1849              		.weak	_ZN3r2p16SubscriberExtBufINS_7MgmtMsgEED0Ev
 1850              		.thumb
 1851              		.thumb_func
 1852              		.type	_ZN3r2p16SubscriberExtBufINS_7MgmtMsgEED0Ev, %function
 1853              	_ZN3r2p16SubscriberExtBufINS_7MgmtMsgEED0Ev:
 1854              	.LFB653:
 1855              		.loc 19 76 0 is_stmt 1
 1856              		.cfi_startproc
 1857              		@ args = 0, pretend = 0, frame = 8
 1858              		@ frame_needed = 0, uses_anonymous_args = 0
 1859 0000 00B5     		push	{lr}
 1860              		.cfi_def_cfa_offset 4
 1861              		.cfi_offset 14, -4
 1862 0002 83B0     		sub	sp, sp, #12
 1863              		.cfi_def_cfa_offset 16
 1864 0004 0190     		str	r0, [sp, #4]
 1865              		.loc 19 79 0
 1866 0006 0198     		ldr	r0, [sp, #4]
 1867 0008 FFF7FEFF 		bl	_ZN3r2p16SubscriberExtBufINS_7MgmtMsgEED1Ev
 1868 000c 0198     		ldr	r0, [sp, #4]
 1869 000e FFF7FEFF 		bl	_ZdlPv
 1870 0012 019B     		ldr	r3, [sp, #4]
ARM GAS  /tmp/ccWSXIBF.s 			page 35


 1871 0014 1846     		mov	r0, r3
 1872 0016 03B0     		add	sp, sp, #12
 1873              		.cfi_def_cfa_offset 4
 1874              		@ sp needed
 1875 0018 5DF804FB 		ldr	pc, [sp], #4
 1876              		.cfi_endproc
 1877              	.LFE653:
 1878              		.size	_ZN3r2p16SubscriberExtBufINS_7MgmtMsgEED0Ev, .-_ZN3r2p16SubscriberExtBufINS_7MgmtMsgEED0Ev
 1879 001c AFF30080 		.section	.text._GLOBAL__sub_I_rtcan_config,"ax",%progbits
 1880              		.align	2
 1881              		.p2align 4,,15
 1882              		.thumb
 1883              		.thumb_func
 1884              		.type	_GLOBAL__sub_I_rtcan_config, %function
 1885              	_GLOBAL__sub_I_rtcan_config:
 1886              	.LFB655:
 1887              		.loc 11 51 0
 1888              		.cfi_startproc
 1889              		@ args = 0, pretend = 0, frame = 0
 1890              		@ frame_needed = 0, uses_anonymous_args = 0
 1891 0000 08B5     		push	{r3, lr}
 1892              		.cfi_def_cfa_offset 8
 1893              		.cfi_offset 3, -8
 1894              		.cfi_offset 14, -4
 1895              		.loc 11 51 0
 1896 0002 0120     		movs	r0, #1
 1897 0004 4FF6FF71 		movw	r1, #65535
 1898 0008 FFF7FEFF 		bl	_Z41__static_initialization_and_destruction_0ii
 1899 000c 08BD     		pop	{r3, pc}
 1900              		.cfi_endproc
 1901              	.LFE655:
 1902              		.size	_GLOBAL__sub_I_rtcan_config, .-_GLOBAL__sub_I_rtcan_config
 1903 000e 00BF     		.section	.init_array,"aw",%init_array
 1904              		.align	2
 1905 0000 00000000 		.word	_GLOBAL__sub_I_rtcan_config(target1)
 1906              		.text
 1907              	.Letext0:
 1908              		.file 20 "/home/denny/r2p-sdk/tools/gcc-arm-none-eabi-4_9-2014q4/lib/gcc/arm-none-eabi/4.9.3/inclu
 1909              		.file 21 "/home/denny/r2p-sdk/tools/gcc-arm-none-eabi-4_9-2014q4/arm-none-eabi/include/machine/_de
 1910              		.file 22 "/home/denny/r2p-sdk/tools/gcc-arm-none-eabi-4_9-2014q4/arm-none-eabi/include/stdint.h"
 1911              		.file 23 "/home/denny/r2p-sdk/core/ChibiOS/os/ports/GCC/ARMCMx/chtypes.h"
 1912              		.file 24 "/home/denny/r2p-sdk/core/ChibiOS/os/kernel/include/chlists.h"
 1913              		.file 25 "/home/denny/r2p-sdk/core/ChibiOS/os/kernel/include/chthreads.h"
 1914              		.file 26 "/home/denny/r2p-sdk/core/ChibiOS/os/ports/GCC/ARMCMx/chcore_v7m.h"
 1915              		.file 27 "/home/denny/r2p-sdk/core/ChibiOS/os/kernel/include/chschd.h"
 1916              		.file 28 "/home/denny/r2p-sdk/core/ChibiOS/os/kernel/include/chmtx.h"
 1917              		.file 29 "/home/denny/r2p-sdk/core/ChibiOS/os/kernel/include/chmemcore.h"
 1918              		.file 30 "/home/denny/r2p-sdk/core/ChibiOS/os/kernel/include/chheap.h"
 1919              		.file 31 "/home/denny/r2p-sdk/core/ChibiOS/os/kernel/include/chmempools.h"
 1920              		.file 32 "/home/denny/r2p-sdk/core/ChibiOS/os/hal/platforms/STM32F30x/stm32f30x.h"
 1921              		.file 33 "/home/denny/r2p-sdk/tools/gcc-arm-none-eabi-4_9-2014q4/arm-none-eabi/include/c++/4.9.3/c
 1922              		.file 34 "/home/denny/r2p-sdk/tools/gcc-arm-none-eabi-4_9-2014q4/arm-none-eabi/include/string.h"
 1923              		.file 35 "<built-in>"
 1924              		.file 36 "/home/denny/r2p-sdk/core/Middleware/include/r2p/NamingTraits.hpp"
 1925              		.file 37 "/home/denny/r2p-sdk/core/Middleware/include/r2p/Message.hpp"
 1926              		.file 38 "/home/denny/r2p-sdk/core/Middleware/include/r2p/LocalPublisher.hpp"
 1927              		.file 39 "/home/denny/r2p-sdk/core/Middleware/include/r2p/MgmtMsg.hpp"
ARM GAS  /tmp/ccWSXIBF.s 			page 36


 1928              		.file 40 "/home/denny/r2p-sdk/core/Middleware/include/r2p/BootMsg.hpp"
 1929              		.file 41 "/home/denny/r2p-sdk/core/Middleware/include/r2p/BaseSubscriber.hpp"
 1930              		.file 42 "/home/denny/r2p-sdk/core/Middleware/include/r2p/transport/DebugTransport.hpp"
 1931              		.file 43 "/home/denny/r2p-sdk/core/Middleware/include/r2p/transport/RTCANTransport.hpp"
 1932              		.file 44 "/home/denny/r2p-sdk/packages/led/nodes/led.hpp"
 1933              		.file 45 "/home/denny/r2p-sdk/core/Middleware/include/r2p/BasePublisher.hpp"
 1934              		.file 46 "/home/denny/r2p-sdk/core/RTCAN/include/rtcan.h"
 1935              		.file 47 "/home/denny/r2p-sdk/core/RTCAN/include/msgqueue.h"
 1936              		.file 48 "/home/denny/r2p-sdk/core/RTCAN/include/hrt.h"
 1937              		.file 49 "nodes/encoder_node.hpp"
 1938              		.file 50 "nodes/pid_node.hpp"
 1939              		.file 51 "/home/denny/r2p-sdk/core/Middleware/include/r2p/common.hpp"
 1940              		.file 52 "/home/denny/r2p-sdk/core/ChibiOS/os/ports/common/ARMCMx/CMSIS/include/core_cm4.h"
 1941              		.file 53 "/home/denny/r2p-sdk/core/RTCAN/platforms/STM32/rtcan_lld_can.h"