ARM GAS  /tmp/ccxyu2nZ.s 			page 1


   1              		.syntax unified
   2              		.cpu cortex-m4
   3              		.eabi_attribute 27, 3
   4              		.eabi_attribute 28, 1
   5              		.fpu fpv4-sp-d16
   6              		.eabi_attribute 20, 1
   7              		.eabi_attribute 21, 1
   8              		.eabi_attribute 23, 3
   9              		.eabi_attribute 24, 1
  10              		.eabi_attribute 25, 1
  11              		.eabi_attribute 26, 1
  12              		.eabi_attribute 30, 6
  13              		.eabi_attribute 34, 1
  14              		.eabi_attribute 18, 4
  15              		.thumb
  16              		.file	"Node.cpp"
  17              		.text
  18              	.Ltext0:
  19              		.cfi_sections	.debug_frame
  20              		.section	.text._ZN3r2p10UncopyableC2Ev,"axG",%progbits,_ZN3r2p10UncopyableC5Ev,comdat
  21              		.align	2
  22              		.p2align 4,,15
  23              		.weak	_ZN3r2p10UncopyableC2Ev
  24              		.thumb
  25              		.thumb_func
  26              		.type	_ZN3r2p10UncopyableC2Ev, %function
  27              	_ZN3r2p10UncopyableC2Ev:
  28              	.LFB6:
  29              		.file 1 "/home/denny/r2p-sdk/core/Middleware/include/r2p/Uncopyable.hpp"
  30              		.loc 1 20 0
  31              		.cfi_startproc
  32              		@ args = 0, pretend = 0, frame = 8
  33              		@ frame_needed = 0, uses_anonymous_args = 0
  34              		@ link register save eliminated.
  35 0000 82B0     		sub	sp, sp, #8
  36              		.cfi_def_cfa_offset 8
  37 0002 0190     		str	r0, [sp, #4]
  38              		.loc 1 20 0
  39 0004 019B     		ldr	r3, [sp, #4]
  40 0006 1846     		mov	r0, r3
  41 0008 02B0     		add	sp, sp, #8
  42              		.cfi_def_cfa_offset 0
  43              		@ sp needed
  44 000a 7047     		bx	lr
  45              		.cfi_endproc
  46              	.LFE6:
  47              		.size	_ZN3r2p10UncopyableC2Ev, .-_ZN3r2p10UncopyableC2Ev
  48              		.weak	_ZN3r2p10UncopyableC1Ev
  49              		.thumb_set _ZN3r2p10UncopyableC1Ev,_ZN3r2p10UncopyableC2Ev
  50 000c AFF30080 		.section	.text._ZN3r2p10UncopyableD2Ev,"axG",%progbits,_ZN3r2p10UncopyableD5Ev,comdat
  51              		.align	2
  52              		.p2align 4,,15
  53              		.weak	_ZN3r2p10UncopyableD2Ev
  54              		.thumb
  55              		.thumb_func
  56              		.type	_ZN3r2p10UncopyableD2Ev, %function
  57              	_ZN3r2p10UncopyableD2Ev:
ARM GAS  /tmp/ccxyu2nZ.s 			page 2


  58              	.LFB9:
  59              		.loc 1 21 0
  60              		.cfi_startproc
  61              		@ args = 0, pretend = 0, frame = 8
  62              		@ frame_needed = 0, uses_anonymous_args = 0
  63              		@ link register save eliminated.
  64 0000 82B0     		sub	sp, sp, #8
  65              		.cfi_def_cfa_offset 8
  66 0002 0190     		str	r0, [sp, #4]
  67              		.loc 1 21 0
  68 0004 019B     		ldr	r3, [sp, #4]
  69 0006 1846     		mov	r0, r3
  70 0008 02B0     		add	sp, sp, #8
  71              		.cfi_def_cfa_offset 0
  72              		@ sp needed
  73 000a 7047     		bx	lr
  74              		.cfi_endproc
  75              	.LFE9:
  76              		.size	_ZN3r2p10UncopyableD2Ev, .-_ZN3r2p10UncopyableD2Ev
  77              		.weak	_ZN3r2p10UncopyableD1Ev
  78              		.thumb_set _ZN3r2p10UncopyableD1Ev,_ZN3r2p10UncopyableD2Ev
  79 000c AFF30080 		.section	.text._ZN3r2p8SysLock_7acquireEv,"axG",%progbits,_ZN3r2p8SysLock_7acquireEv,comdat
  80              		.align	2
  81              		.p2align 4,,15
  82              		.weak	_ZN3r2p8SysLock_7acquireEv
  83              		.thumb
  84              		.thumb_func
  85              		.type	_ZN3r2p8SysLock_7acquireEv, %function
  86              	_ZN3r2p8SysLock_7acquireEv:
  87              	.LFB18:
  88              		.file 2 "/home/denny/r2p-sdk/core/Middleware/port/chibios/include/r2p/impl/SysLock_.hpp"
  89              		.loc 2 20 0
  90              		.cfi_startproc
  91              		@ args = 0, pretend = 0, frame = 0
  92              		@ frame_needed = 0, uses_anonymous_args = 0
  93 0000 08B5     		push	{r3, lr}
  94              		.cfi_def_cfa_offset 8
  95              		.cfi_offset 3, -8
  96              		.cfi_offset 14, -4
  97              	.LBB2:
  98              	.LBB3:
  99              	.LBB4:
 100              		.loc 2 22 0
 101 0002 2023     		movs	r3, #32
 102              	@ 22 "/home/denny/r2p-sdk/core/Middleware/port/chibios/include/r2p/impl/SysLock_.hpp" 1
 103 0004 83F31188 		msr     BASEPRI, r3
 104              	@ 0 "" 2
 105              		.thumb
 106              	.LBE4:
 107 0008 FFF7FEFF 		bl	dbg_check_lock
 108              	.LBE3:
 109              	.LBE2:
 110              		.loc 2 23 0
 111 000c 08BD     		pop	{r3, pc}
 112              		.cfi_endproc
 113              	.LFE18:
 114              		.size	_ZN3r2p8SysLock_7acquireEv, .-_ZN3r2p8SysLock_7acquireEv
ARM GAS  /tmp/ccxyu2nZ.s 			page 3


 115 000e 00BF     		.section	.text._ZN3r2p8SysLock_7releaseEv,"axG",%progbits,_ZN3r2p8SysLock_7releaseEv,comdat
 116              		.align	2
 117              		.p2align 4,,15
 118              		.weak	_ZN3r2p8SysLock_7releaseEv
 119              		.thumb
 120              		.thumb_func
 121              		.type	_ZN3r2p8SysLock_7releaseEv, %function
 122              	_ZN3r2p8SysLock_7releaseEv:
 123              	.LFB19:
 124              		.loc 2 27 0
 125              		.cfi_startproc
 126              		@ args = 0, pretend = 0, frame = 0
 127              		@ frame_needed = 0, uses_anonymous_args = 0
 128 0000 08B5     		push	{r3, lr}
 129              		.cfi_def_cfa_offset 8
 130              		.cfi_offset 3, -8
 131              		.cfi_offset 14, -4
 132              	.LBB5:
 133              	.LBB6:
 134              		.loc 2 29 0
 135 0002 FFF7FEFF 		bl	dbg_check_unlock
 136              	.LBB7:
 137 0006 0023     		movs	r3, #0
 138              	@ 29 "/home/denny/r2p-sdk/core/Middleware/port/chibios/include/r2p/impl/SysLock_.hpp" 1
 139 0008 83F31188 		msr     BASEPRI, r3
 140              	@ 0 "" 2
 141              		.thumb
 142              	.LBE7:
 143              	.LBE6:
 144              	.LBE5:
 145              		.loc 2 30 0
 146 000c 08BD     		pop	{r3, pc}
 147              		.cfi_endproc
 148              	.LFE19:
 149              		.size	_ZN3r2p8SysLock_7releaseEv, .-_ZN3r2p8SysLock_7releaseEv
 150 000e 00BF     		.section	.text._ZN3r2p7SysLock7acquireEv,"axG",%progbits,_ZN3r2p7SysLock7acquireEv,comdat
 151              		.align	2
 152              		.p2align 4,,15
 153              		.weak	_ZN3r2p7SysLock7acquireEv
 154              		.thumb
 155              		.thumb_func
 156              		.type	_ZN3r2p7SysLock7acquireEv, %function
 157              	_ZN3r2p7SysLock7acquireEv:
 158              	.LFB26:
 159              		.file 3 "/home/denny/r2p-sdk/core/Middleware/include/r2p/SysLock.hpp"
 160              		.loc 3 27 0
 161              		.cfi_startproc
 162              		@ args = 0, pretend = 0, frame = 0
 163              		@ frame_needed = 0, uses_anonymous_args = 0
 164 0000 08B5     		push	{r3, lr}
 165              		.cfi_def_cfa_offset 8
 166              		.cfi_offset 3, -8
 167              		.cfi_offset 14, -4
 168              		.loc 3 29 0
 169 0002 FFF7FEFF 		bl	_ZN3r2p8SysLock_7acquireEv
 170              		.loc 3 30 0
 171 0006 08BD     		pop	{r3, pc}
ARM GAS  /tmp/ccxyu2nZ.s 			page 4


 172              		.cfi_endproc
 173              	.LFE26:
 174              		.size	_ZN3r2p7SysLock7acquireEv, .-_ZN3r2p7SysLock7acquireEv
 175 0008 AFF30080 		.section	.text._ZN3r2p7SysLock7releaseEv,"axG",%progbits,_ZN3r2p7SysLock7releaseEv,comdat
 175      AFF30080 
 176              		.align	2
 177              		.p2align 4,,15
 178              		.weak	_ZN3r2p7SysLock7releaseEv
 179              		.thumb
 180              		.thumb_func
 181              		.type	_ZN3r2p7SysLock7releaseEv, %function
 182              	_ZN3r2p7SysLock7releaseEv:
 183              	.LFB27:
 184              		.loc 3 34 0
 185              		.cfi_startproc
 186              		@ args = 0, pretend = 0, frame = 0
 187              		@ frame_needed = 0, uses_anonymous_args = 0
 188 0000 08B5     		push	{r3, lr}
 189              		.cfi_def_cfa_offset 8
 190              		.cfi_offset 3, -8
 191              		.cfi_offset 14, -4
 192              		.loc 3 36 0
 193 0002 FFF7FEFF 		bl	_ZN3r2p8SysLock_7releaseEv
 194              		.loc 3 37 0
 195 0006 08BD     		pop	{r3, pc}
 196              		.cfi_endproc
 197              	.LFE27:
 198              		.size	_ZN3r2p7SysLock7releaseEv, .-_ZN3r2p7SysLock7releaseEv
 199              		.section	.text._ZNK3r2p4Time9to_us_rawEv,"axG",%progbits,_ZNK3r2p4Time9to_us_rawEv,comdat
 200              		.align	2
 201              		.p2align 4,,15
 202              		.weak	_ZNK3r2p4Time9to_us_rawEv
 203              		.thumb
 204              		.thumb_func
 205              		.type	_ZNK3r2p4Time9to_us_rawEv, %function
 206              	_ZNK3r2p4Time9to_us_rawEv:
 207              	.LFB123:
 208              		.file 4 "/home/denny/r2p-sdk/core/Middleware/include/r2p/Time.hpp"
 209              		.loc 4 75 0
 210              		.cfi_startproc
 211              		@ args = 0, pretend = 0, frame = 8
 212              		@ frame_needed = 0, uses_anonymous_args = 0
 213              		@ link register save eliminated.
 214 0000 82B0     		sub	sp, sp, #8
 215              		.cfi_def_cfa_offset 8
 216 0002 0190     		str	r0, [sp, #4]
 217              		.loc 4 77 0
 218 0004 019B     		ldr	r3, [sp, #4]
 219 0006 1B68     		ldr	r3, [r3]
 220              		.loc 4 78 0
 221 0008 1846     		mov	r0, r3
 222 000a 02B0     		add	sp, sp, #8
 223              		.cfi_def_cfa_offset 0
 224              		@ sp needed
 225 000c 7047     		bx	lr
 226              		.cfi_endproc
 227              	.LFE123:
ARM GAS  /tmp/ccxyu2nZ.s 			page 5


 228              		.size	_ZNK3r2p4Time9to_us_rawEv, .-_ZNK3r2p4Time9to_us_rawEv
 229 000e 00BF     		.section	.text._ZNK3r2p4Time9to_ms_rawEv,"axG",%progbits,_ZNK3r2p4Time9to_ms_rawEv,comdat
 230              		.align	2
 231              		.p2align 4,,15
 232              		.weak	_ZNK3r2p4Time9to_ms_rawEv
 233              		.thumb
 234              		.thumb_func
 235              		.type	_ZNK3r2p4Time9to_ms_rawEv, %function
 236              	_ZNK3r2p4Time9to_ms_rawEv:
 237              	.LFB124:
 238              		.loc 4 82 0
 239              		.cfi_startproc
 240              		@ args = 0, pretend = 0, frame = 8
 241              		@ frame_needed = 0, uses_anonymous_args = 0
 242              		@ link register save eliminated.
 243 0000 82B0     		sub	sp, sp, #8
 244              		.cfi_def_cfa_offset 8
 245 0002 0190     		str	r0, [sp, #4]
 246              		.loc 4 84 0
 247 0004 019B     		ldr	r3, [sp, #4]
 248 0006 1B68     		ldr	r3, [r3]
 249 0008 044A     		ldr	r2, .L15
 250 000a 82FB0312 		smull	r1, r2, r2, r3
 251 000e 9211     		asrs	r2, r2, #6
 252 0010 DB17     		asrs	r3, r3, #31
 253 0012 D31A     		subs	r3, r2, r3
 254              		.loc 4 85 0
 255 0014 1846     		mov	r0, r3
 256 0016 02B0     		add	sp, sp, #8
 257              		.cfi_def_cfa_offset 0
 258              		@ sp needed
 259 0018 7047     		bx	lr
 260              	.L16:
 261 001a 00BF     		.align	2
 262              	.L15:
 263 001c D34D6210 		.word	274877907
 264              		.cfi_endproc
 265              	.LFE124:
 266              		.size	_ZNK3r2p4Time9to_ms_rawEv, .-_ZNK3r2p4Time9to_ms_rawEv
 267              		.section	.text._ZN3r2p4TimeC2Ev,"axG",%progbits,_ZN3r2p4TimeC5Ev,comdat
 268              		.align	2
 269              		.p2align 4,,15
 270              		.weak	_ZN3r2p4TimeC2Ev
 271              		.thumb
 272              		.thumb_func
 273              		.type	_ZN3r2p4TimeC2Ev, %function
 274              	_ZN3r2p4TimeC2Ev:
 275              	.LFB135:
 276              		.loc 4 155 0
 277              		.cfi_startproc
 278              		@ args = 0, pretend = 0, frame = 8
 279              		@ frame_needed = 0, uses_anonymous_args = 0
 280              		@ link register save eliminated.
 281 0000 82B0     		sub	sp, sp, #8
 282              		.cfi_def_cfa_offset 8
 283 0002 0190     		str	r0, [sp, #4]
 284              	.LBB8:
ARM GAS  /tmp/ccxyu2nZ.s 			page 6


 285              		.loc 4 155 0
 286 0004 019B     		ldr	r3, [sp, #4]
 287 0006 0022     		movs	r2, #0
 288 0008 1A60     		str	r2, [r3]
 289              	.LBE8:
 290 000a 019B     		ldr	r3, [sp, #4]
 291 000c 1846     		mov	r0, r3
 292 000e 02B0     		add	sp, sp, #8
 293              		.cfi_def_cfa_offset 0
 294              		@ sp needed
 295 0010 7047     		bx	lr
 296              		.cfi_endproc
 297              	.LFE135:
 298              		.size	_ZN3r2p4TimeC2Ev, .-_ZN3r2p4TimeC2Ev
 299              		.weak	_ZN3r2p4TimeC1Ev
 300              		.thumb_set _ZN3r2p4TimeC1Ev,_ZN3r2p4TimeC2Ev
 301 0012 00BFAFF3 		.section	.text._ZN3r2peqERKNS_4TimeES2_,"axG",%progbits,_ZN3r2peqERKNS_4TimeES2_,comdat
 301      0080AFF3 
 301      0080AFF3 
 301      0080
 302              		.align	2
 303              		.p2align 4,,15
 304              		.weak	_ZN3r2peqERKNS_4TimeES2_
 305              		.thumb
 306              		.thumb_func
 307              		.type	_ZN3r2peqERKNS_4TimeES2_, %function
 308              	_ZN3r2peqERKNS_4TimeES2_:
 309              	.LFB149:
 310              		.loc 4 214 0
 311              		.cfi_startproc
 312              		@ args = 0, pretend = 0, frame = 8
 313              		@ frame_needed = 0, uses_anonymous_args = 0
 314              		@ link register save eliminated.
 315 0000 82B0     		sub	sp, sp, #8
 316              		.cfi_def_cfa_offset 8
 317 0002 0190     		str	r0, [sp, #4]
 318 0004 0091     		str	r1, [sp]
 319              		.loc 4 216 0
 320 0006 019B     		ldr	r3, [sp, #4]
 321 0008 1A68     		ldr	r2, [r3]
 322 000a 009B     		ldr	r3, [sp]
 323 000c 1B68     		ldr	r3, [r3]
 324 000e 9A42     		cmp	r2, r3
 325 0010 0CBF     		ite	eq
 326 0012 0123     		moveq	r3, #1
 327 0014 0023     		movne	r3, #0
 328 0016 DBB2     		uxtb	r3, r3
 329              		.loc 4 217 0
 330 0018 1846     		mov	r0, r3
 331 001a 02B0     		add	sp, sp, #8
 332              		.cfi_def_cfa_offset 0
 333              		@ sp needed
 334 001c 7047     		bx	lr
 335              		.cfi_endproc
 336              	.LFE149:
 337              		.size	_ZN3r2peqERKNS_4TimeES2_, .-_ZN3r2peqERKNS_4TimeES2_
 338 001e 00BF     		.section	.text._ZN3r2p7Thread_4selfEv,"axG",%progbits,_ZN3r2p7Thread_4selfEv,comdat
ARM GAS  /tmp/ccxyu2nZ.s 			page 7


 339              		.align	2
 340              		.p2align 4,,15
 341              		.weak	_ZN3r2p7Thread_4selfEv
 342              		.thumb
 343              		.thumb_func
 344              		.type	_ZN3r2p7Thread_4selfEv, %function
 345              	_ZN3r2p7Thread_4selfEv:
 346              	.LFB183:
 347              		.file 5 "/home/denny/r2p-sdk/core/Middleware/port/chibios/include/r2p/impl/Thread_.hpp"
 348              		.loc 5 152 0
 349              		.cfi_startproc
 350              		@ args = 0, pretend = 0, frame = 0
 351              		@ frame_needed = 0, uses_anonymous_args = 0
 352              		@ link register save eliminated.
 353              		.loc 5 154 0
 354 0000 014B     		ldr	r3, .L24
 355 0002 9B69     		ldr	r3, [r3, #24]
 356              		.loc 5 155 0
 357 0004 1846     		mov	r0, r3
 358 0006 7047     		bx	lr
 359              	.L25:
 360              		.align	2
 361              	.L24:
 362 0008 00000000 		.word	rlist
 363              		.cfi_endproc
 364              	.LFE183:
 365              		.size	_ZN3r2p7Thread_4selfEv, .-_ZN3r2p7Thread_4selfEv
 366 000c AFF30080 		.section	.text._ZN3r2p6Thread4selfEv,"axG",%progbits,_ZN3r2p6Thread4selfEv,comdat
 367              		.align	2
 368              		.p2align 4,,15
 369              		.weak	_ZN3r2p6Thread4selfEv
 370              		.thumb
 371              		.thumb_func
 372              		.type	_ZN3r2p6Thread4selfEv, %function
 373              	_ZN3r2p6Thread4selfEv:
 374              	.LFB205:
 375              		.file 6 "/home/denny/r2p-sdk/core/Middleware/include/r2p/Thread.hpp"
 376              		.loc 6 112 0
 377              		.cfi_startproc
 378              		@ args = 0, pretend = 0, frame = 0
 379              		@ frame_needed = 0, uses_anonymous_args = 0
 380 0000 08B5     		push	{r3, lr}
 381              		.cfi_def_cfa_offset 8
 382              		.cfi_offset 3, -8
 383              		.cfi_offset 14, -4
 384              		.loc 6 114 0
 385 0002 FFF7FEFF 		bl	_ZN3r2p7Thread_4selfEv
 386 0006 0346     		mov	r3, r0
 387              		.loc 6 115 0
 388 0008 1846     		mov	r0, r3
 389 000a 08BD     		pop	{r3, pc}
 390              		.cfi_endproc
 391              	.LFE205:
 392              		.size	_ZN3r2p6Thread4selfEv, .-_ZN3r2p6Thread4selfEv
 393 000c AFF30080 		.section	.text._ZN3r2p10SpinEvent_4waitERKNS_4TimeE,"axG",%progbits,_ZN3r2p10SpinEvent_4waitERKNS_
 394              		.align	2
 395              		.p2align 4,,15
ARM GAS  /tmp/ccxyu2nZ.s 			page 8


 396              		.weak	_ZN3r2p10SpinEvent_4waitERKNS_4TimeE
 397              		.thumb
 398              		.thumb_func
 399              		.type	_ZN3r2p10SpinEvent_4waitERKNS_4TimeE, %function
 400              	_ZN3r2p10SpinEvent_4waitERKNS_4TimeE:
 401              	.LFB215:
 402              		.file 7 "/home/denny/r2p-sdk/core/Middleware/port/chibios/include/r2p/impl/SpinEvent_.hpp"
 403              		.loc 7 69 0
 404              		.cfi_startproc
 405              		@ args = 0, pretend = 0, frame = 16
 406              		@ frame_needed = 0, uses_anonymous_args = 0
 407 0000 00B5     		push	{lr}
 408              		.cfi_def_cfa_offset 4
 409              		.cfi_offset 14, -4
 410 0002 85B0     		sub	sp, sp, #20
 411              		.cfi_def_cfa_offset 24
 412 0004 0190     		str	r0, [sp, #4]
 413 0006 0091     		str	r1, [sp]
 414              	.LBB9:
 415              		.loc 7 72 0
 416 0008 0098     		ldr	r0, [sp]
 417 000a 2549     		ldr	r1, .L34
 418 000c FFF7FEFF 		bl	_ZN3r2peqERKNS_4TimeES2_
 419 0010 0346     		mov	r3, r0
 420 0012 002B     		cmp	r3, #0
 421 0014 02D0     		beq	.L29
 422              		.loc 7 72 0 is_stmt 0 discriminator 1
 423 0016 0023     		movs	r3, #0
 424 0018 0393     		str	r3, [sp, #12]
 425 001a 37E0     		b	.L30
 426              	.L29:
 427              		.loc 7 73 0 is_stmt 1
 428 001c 0098     		ldr	r0, [sp]
 429 001e 2149     		ldr	r1, .L34+4
 430 0020 FFF7FEFF 		bl	_ZN3r2peqERKNS_4TimeES2_
 431 0024 0346     		mov	r3, r0
 432 0026 002B     		cmp	r3, #0
 433 0028 03D0     		beq	.L31
 434              		.loc 7 73 0 is_stmt 0 discriminator 1
 435 002a 4FF0FF33 		mov	r3, #-1
 436 002e 0393     		str	r3, [sp, #12]
 437 0030 2CE0     		b	.L30
 438              	.L31:
 439              		.loc 7 74 0 is_stmt 1
 440 0032 0098     		ldr	r0, [sp]
 441 0034 FFF7FEFF 		bl	_ZNK3r2p4Time9to_us_rawEv
 442 0038 0246     		mov	r2, r0
 443 003a 1B4B     		ldr	r3, .L34+8
 444 003c 9A42     		cmp	r2, r3
 445 003e CCBF     		ite	gt
 446 0040 0123     		movgt	r3, #1
 447 0042 0023     		movle	r3, #0
 448 0044 DBB2     		uxtb	r3, r3
 449 0046 002B     		cmp	r3, #0
 450 0048 10D0     		beq	.L32
 451              		.loc 7 74 0 is_stmt 0 discriminator 1
 452 004a 0098     		ldr	r0, [sp]
ARM GAS  /tmp/ccxyu2nZ.s 			page 9


 453 004c FFF7FEFF 		bl	_ZNK3r2p4Time9to_ms_rawEv
 454 0050 0346     		mov	r3, r0
 455 0052 1A46     		mov	r2, r3
 456 0054 4FF47A73 		mov	r3, #1000
 457 0058 03FB02F3 		mul	r3, r3, r2
 458 005c 013B     		subs	r3, r3, #1
 459 005e 134A     		ldr	r2, .L34+12
 460 0060 A2FB0323 		umull	r2, r3, r2, r3
 461 0064 9B09     		lsrs	r3, r3, #6
 462 0066 0133     		adds	r3, r3, #1
 463 0068 0393     		str	r3, [sp, #12]
 464 006a 0FE0     		b	.L30
 465              	.L32:
 466              		.loc 7 75 0 is_stmt 1
 467 006c 0098     		ldr	r0, [sp]
 468 006e FFF7FEFF 		bl	_ZNK3r2p4Time9to_us_rawEv
 469 0072 0346     		mov	r3, r0
 470 0074 1A46     		mov	r2, r3
 471 0076 4FF47A73 		mov	r3, #1000
 472 007a 03FB02F3 		mul	r3, r3, r2
 473 007e 013B     		subs	r3, r3, #1
 474 0080 0B4A     		ldr	r2, .L34+16
 475 0082 A2FB0323 		umull	r2, r3, r2, r3
 476 0086 9B0C     		lsrs	r3, r3, #18
 477 0088 0133     		adds	r3, r3, #1
 478 008a 0393     		str	r3, [sp, #12]
 479              	.L30:
 480              		.loc 7 76 0
 481 008c 4FF0FF30 		mov	r0, #-1
 482 0090 0399     		ldr	r1, [sp, #12]
 483 0092 FFF7FEFF 		bl	chEvtWaitAnyTimeout
 484 0096 0346     		mov	r3, r0
 485              	.LBE9:
 486              		.loc 7 77 0
 487 0098 1846     		mov	r0, r3
 488 009a 05B0     		add	sp, sp, #20
 489              		.cfi_def_cfa_offset 4
 490              		@ sp needed
 491 009c 5DF804FB 		ldr	pc, [sp], #4
 492              	.L35:
 493              		.align	2
 494              	.L34:
 495 00a0 00000000 		.word	_ZN3r2p4Time9IMMEDIATEE
 496 00a4 00000000 		.word	_ZN3r2p4Time8INFINITEE
 497 00a8 A0860100 		.word	100000
 498 00ac D34D6210 		.word	274877907
 499 00b0 83DE1B43 		.word	1125899907
 500              		.cfi_endproc
 501              	.LFE215:
 502              		.size	_ZN3r2p10SpinEvent_4waitERKNS_4TimeE, .-_ZN3r2p10SpinEvent_4waitERKNS_4TimeE
 503 00b4 AFF30080 		.section	.text._ZN3r2p10SpinEvent_C2EPNS_6ThreadE,"axG",%progbits,_ZN3r2p10SpinEvent_C5EPNS_6Threa
 503      AFF30080 
 503      AFF30080 
 504              		.align	2
 505              		.p2align 4,,15
 506              		.weak	_ZN3r2p10SpinEvent_C2EPNS_6ThreadE
 507              		.thumb
ARM GAS  /tmp/ccxyu2nZ.s 			page 10


 508              		.thumb_func
 509              		.type	_ZN3r2p10SpinEvent_C2EPNS_6ThreadE, %function
 510              	_ZN3r2p10SpinEvent_C2EPNS_6ThreadE:
 511              	.LFB217:
 512              		.loc 7 81 0
 513              		.cfi_startproc
 514              		@ args = 0, pretend = 0, frame = 8
 515              		@ frame_needed = 0, uses_anonymous_args = 0
 516              		@ link register save eliminated.
 517 0000 82B0     		sub	sp, sp, #8
 518              		.cfi_def_cfa_offset 8
 519 0002 0190     		str	r0, [sp, #4]
 520 0004 0091     		str	r1, [sp]
 521              	.LBB10:
 522              		.loc 7 83 0
 523 0006 019B     		ldr	r3, [sp, #4]
 524 0008 009A     		ldr	r2, [sp]
 525 000a 1A60     		str	r2, [r3]
 526              	.LBE10:
 527              		.loc 7 84 0
 528 000c 019B     		ldr	r3, [sp, #4]
 529 000e 1846     		mov	r0, r3
 530 0010 02B0     		add	sp, sp, #8
 531              		.cfi_def_cfa_offset 0
 532              		@ sp needed
 533 0012 7047     		bx	lr
 534              		.cfi_endproc
 535              	.LFE217:
 536              		.size	_ZN3r2p10SpinEvent_C2EPNS_6ThreadE, .-_ZN3r2p10SpinEvent_C2EPNS_6ThreadE
 537              		.weak	_ZN3r2p10SpinEvent_C1EPNS_6ThreadE
 538              		.thumb_set _ZN3r2p10SpinEvent_C1EPNS_6ThreadE,_ZN3r2p10SpinEvent_C2EPNS_6ThreadE
 539 0014 AFF30080 		.section	.text._ZN3r2p9SpinEvent4waitERKNS_4TimeE,"axG",%progbits,_ZN3r2p9SpinEvent4waitERKNS_4Tim
 539      AFF30080 
 539      AFF30080 
 540              		.align	2
 541              		.p2align 4,,15
 542              		.weak	_ZN3r2p9SpinEvent4waitERKNS_4TimeE
 543              		.thumb
 544              		.thumb_func
 545              		.type	_ZN3r2p9SpinEvent4waitERKNS_4TimeE, %function
 546              	_ZN3r2p9SpinEvent4waitERKNS_4TimeE:
 547              	.LFB223:
 548              		.file 8 "/home/denny/r2p-sdk/core/Middleware/include/r2p/SpinEvent.hpp"
 549              		.loc 8 63 0
 550              		.cfi_startproc
 551              		@ args = 0, pretend = 0, frame = 8
 552              		@ frame_needed = 0, uses_anonymous_args = 0
 553 0000 00B5     		push	{lr}
 554              		.cfi_def_cfa_offset 4
 555              		.cfi_offset 14, -4
 556 0002 83B0     		sub	sp, sp, #12
 557              		.cfi_def_cfa_offset 16
 558 0004 0190     		str	r0, [sp, #4]
 559 0006 0091     		str	r1, [sp]
 560              		.loc 8 65 0
 561 0008 019B     		ldr	r3, [sp, #4]
 562 000a 1846     		mov	r0, r3
ARM GAS  /tmp/ccxyu2nZ.s 			page 11


 563 000c 0099     		ldr	r1, [sp]
 564 000e FFF7FEFF 		bl	_ZN3r2p10SpinEvent_4waitERKNS_4TimeE
 565 0012 0346     		mov	r3, r0
 566              		.loc 8 66 0
 567 0014 1846     		mov	r0, r3
 568 0016 03B0     		add	sp, sp, #12
 569              		.cfi_def_cfa_offset 4
 570              		@ sp needed
 571 0018 5DF804FB 		ldr	pc, [sp], #4
 572              		.cfi_endproc
 573              	.LFE223:
 574              		.size	_ZN3r2p9SpinEvent4waitERKNS_4TimeE, .-_ZN3r2p9SpinEvent4waitERKNS_4TimeE
 575 001c AFF30080 		.section	.text._ZN3r2p9SpinEventC2EPNS_6ThreadE,"axG",%progbits,_ZN3r2p9SpinEventC5EPNS_6ThreadE,c
 576              		.align	2
 577              		.p2align 4,,15
 578              		.weak	_ZN3r2p9SpinEventC2EPNS_6ThreadE
 579              		.thumb
 580              		.thumb_func
 581              		.type	_ZN3r2p9SpinEventC2EPNS_6ThreadE, %function
 582              	_ZN3r2p9SpinEventC2EPNS_6ThreadE:
 583              	.LFB225:
 584              		.loc 8 70 0
 585              		.cfi_startproc
 586              		@ args = 0, pretend = 0, frame = 8
 587              		@ frame_needed = 0, uses_anonymous_args = 0
 588 0000 00B5     		push	{lr}
 589              		.cfi_def_cfa_offset 4
 590              		.cfi_offset 14, -4
 591 0002 83B0     		sub	sp, sp, #12
 592              		.cfi_def_cfa_offset 16
 593 0004 0190     		str	r0, [sp, #4]
 594 0006 0091     		str	r1, [sp]
 595              	.LBB11:
 596              		.loc 8 72 0
 597 0008 0198     		ldr	r0, [sp, #4]
 598 000a FFF7FEFF 		bl	_ZN3r2p10UncopyableC2Ev
 599 000e 019B     		ldr	r3, [sp, #4]
 600 0010 1846     		mov	r0, r3
 601 0012 0099     		ldr	r1, [sp]
 602 0014 FFF7FEFF 		bl	_ZN3r2p10SpinEvent_C1EPNS_6ThreadE
 603              	.LBE11:
 604              		.loc 8 73 0
 605 0018 019B     		ldr	r3, [sp, #4]
 606 001a 1846     		mov	r0, r3
 607 001c 03B0     		add	sp, sp, #12
 608              		.cfi_def_cfa_offset 4
 609              		@ sp needed
 610 001e 5DF804FB 		ldr	pc, [sp], #4
 611              		.cfi_endproc
 612              	.LFE225:
 613              		.size	_ZN3r2p9SpinEventC2EPNS_6ThreadE, .-_ZN3r2p9SpinEventC2EPNS_6ThreadE
 614              		.weak	_ZN3r2p9SpinEventC1EPNS_6ThreadE
 615              		.thumb_set _ZN3r2p9SpinEventC1EPNS_6ThreadE,_ZN3r2p9SpinEventC2EPNS_6ThreadE
 616 0022 00BFAFF3 		.section	.text._ZNK3r2p14BaseSubscriber9get_topicEv,"axG",%progbits,_ZNK3r2p14BaseSubscriber9get_t
 616      0080AFF3 
 616      0080AFF3 
 616      0080
ARM GAS  /tmp/ccxyu2nZ.s 			page 12


 617              		.align	2
 618              		.p2align 4,,15
 619              		.weak	_ZNK3r2p14BaseSubscriber9get_topicEv
 620              		.thumb
 621              		.thumb_func
 622              		.type	_ZNK3r2p14BaseSubscriber9get_topicEv, %function
 623              	_ZNK3r2p14BaseSubscriber9get_topicEv:
 624              	.LFB249:
 625              		.file 9 "/home/denny/r2p-sdk/core/Middleware/include/r2p/BaseSubscriber.hpp"
 626              		.loc 9 42 0
 627              		.cfi_startproc
 628              		@ args = 0, pretend = 0, frame = 8
 629              		@ frame_needed = 0, uses_anonymous_args = 0
 630              		@ link register save eliminated.
 631 0000 82B0     		sub	sp, sp, #8
 632              		.cfi_def_cfa_offset 8
 633 0002 0190     		str	r0, [sp, #4]
 634              		.loc 9 44 0
 635 0004 019B     		ldr	r3, [sp, #4]
 636 0006 5B68     		ldr	r3, [r3, #4]
 637              		.loc 9 45 0
 638 0008 1846     		mov	r0, r3
 639 000a 02B0     		add	sp, sp, #8
 640              		.cfi_def_cfa_offset 0
 641              		@ sp needed
 642 000c 7047     		bx	lr
 643              		.cfi_endproc
 644              	.LFE249:
 645              		.size	_ZNK3r2p14BaseSubscriber9get_topicEv, .-_ZNK3r2p14BaseSubscriber9get_topicEv
 646 000e 00BF     		.section	.text._ZNK3r2p15LocalSubscriber12get_callbackEv,"axG",%progbits,_ZNK3r2p15LocalSubscriber
 647              		.align	2
 648              		.p2align 4,,15
 649              		.weak	_ZNK3r2p15LocalSubscriber12get_callbackEv
 650              		.thumb
 651              		.thumb_func
 652              		.type	_ZNK3r2p15LocalSubscriber12get_callbackEv, %function
 653              	_ZNK3r2p15LocalSubscriber12get_callbackEv:
 654              	.LFB251:
 655              		.file 10 "/home/denny/r2p-sdk/core/Middleware/include/r2p/LocalSubscriber.hpp"
 656              		.loc 10 57 0
 657              		.cfi_startproc
 658              		@ args = 0, pretend = 0, frame = 8
 659              		@ frame_needed = 0, uses_anonymous_args = 0
 660              		@ link register save eliminated.
 661 0000 82B0     		sub	sp, sp, #8
 662              		.cfi_def_cfa_offset 8
 663 0002 0190     		str	r0, [sp, #4]
 664              		.loc 10 59 0
 665 0004 019B     		ldr	r3, [sp, #4]
 666 0006 DB68     		ldr	r3, [r3, #12]
 667              		.loc 10 60 0
 668 0008 1846     		mov	r0, r3
 669 000a 02B0     		add	sp, sp, #8
 670              		.cfi_def_cfa_offset 0
 671              		@ sp needed
 672 000c 7047     		bx	lr
 673              		.cfi_endproc
ARM GAS  /tmp/ccxyu2nZ.s 			page 13


 674              	.LFE251:
 675              		.size	_ZNK3r2p15LocalSubscriber12get_callbackEv, .-_ZNK3r2p15LocalSubscriber12get_callbackEv
 676 000e 00BF     		.section	.text._ZNK3r2p13BasePublisher9get_topicEv,"axG",%progbits,_ZNK3r2p13BasePublisher9get_top
 677              		.align	2
 678              		.p2align 4,,15
 679              		.weak	_ZNK3r2p13BasePublisher9get_topicEv
 680              		.thumb
 681              		.thumb_func
 682              		.type	_ZNK3r2p13BasePublisher9get_topicEv, %function
 683              	_ZNK3r2p13BasePublisher9get_topicEv:
 684              	.LFB276:
 685              		.file 11 "/home/denny/r2p-sdk/core/Middleware/include/r2p/BasePublisher.hpp"
 686              		.loc 11 48 0
 687              		.cfi_startproc
 688              		@ args = 0, pretend = 0, frame = 8
 689              		@ frame_needed = 0, uses_anonymous_args = 0
 690              		@ link register save eliminated.
 691 0000 82B0     		sub	sp, sp, #8
 692              		.cfi_def_cfa_offset 8
 693 0002 0190     		str	r0, [sp, #4]
 694              		.loc 11 50 0
 695 0004 019B     		ldr	r3, [sp, #4]
 696 0006 5B68     		ldr	r3, [r3, #4]
 697              		.loc 11 51 0
 698 0008 1846     		mov	r0, r3
 699 000a 02B0     		add	sp, sp, #8
 700              		.cfi_def_cfa_offset 0
 701              		@ sp needed
 702 000c 7047     		bx	lr
 703              		.cfi_endproc
 704              	.LFE276:
 705              		.size	_ZNK3r2p13BasePublisher9get_topicEv, .-_ZNK3r2p13BasePublisher9get_topicEv
 706 000e 00BF     		.section	.text._ZN3r2p4Node9advertiseERNS_14LocalPublisherEPKcRKNS_4TimeEj,"ax",%progbits
 707              		.align	2
 708              		.p2align 4,,15
 709              		.global	_ZN3r2p4Node9advertiseERNS_14LocalPublisherEPKcRKNS_4TimeEj
 710              		.thumb
 711              		.thumb_func
 712              		.type	_ZN3r2p4Node9advertiseERNS_14LocalPublisherEPKcRKNS_4TimeEj, %function
 713              	_ZN3r2p4Node9advertiseERNS_14LocalPublisherEPKcRKNS_4TimeEj:
 714              	.LFB596:
 715              		.file 12 "/home/denny/r2p-sdk/core/Middleware/src/Node.cpp"
 716              		.loc 12 12 0
 717              		.cfi_startproc
 718              		@ args = 4, pretend = 0, frame = 16
 719              		@ frame_needed = 0, uses_anonymous_args = 0
 720 0000 00B5     		push	{lr}
 721              		.cfi_def_cfa_offset 4
 722              		.cfi_offset 14, -4
 723 0002 87B0     		sub	sp, sp, #28
 724              		.cfi_def_cfa_offset 32
 725 0004 0590     		str	r0, [sp, #20]
 726 0006 0491     		str	r1, [sp, #16]
 727 0008 0392     		str	r2, [sp, #12]
 728 000a 0293     		str	r3, [sp, #8]
 729              		.loc 12 15 0
 730 000c 049B     		ldr	r3, [sp, #16]
ARM GAS  /tmp/ccxyu2nZ.s 			page 14


 731 000e 1846     		mov	r0, r3
 732 0010 FFF7FEFF 		bl	_ZNK3r2p13BasePublisher9get_topicEv
 733 0014 0346     		mov	r3, r0
 734 0016 002B     		cmp	r3, #0
 735 0018 14BF     		ite	ne
 736 001a 0123     		movne	r3, #1
 737 001c 0023     		moveq	r3, #0
 738 001e DBB2     		uxtb	r3, r3
 739 0020 002B     		cmp	r3, #0
 740 0022 01D0     		beq	.L51
 741              		.loc 12 15 0 is_stmt 0 discriminator 1
 742 0024 0023     		movs	r3, #0
 743 0026 15E0     		b	.L52
 744              	.L51:
 745              		.loc 12 17 0 is_stmt 1
 746 0028 089B     		ldr	r3, [sp, #32]
 747 002a 0093     		str	r3, [sp]
 748 002c 0B48     		ldr	r0, .L54
 749 002e 0499     		ldr	r1, [sp, #16]
 750 0030 039A     		ldr	r2, [sp, #12]
 751 0032 029B     		ldr	r3, [sp, #8]
 752 0034 FFF7FEFF 		bl	_ZN3r2p10Middleware9advertiseERNS_14LocalPublisherEPKcRKNS_4TimeEj
 753 0038 0346     		mov	r3, r0
 754 003a 002B     		cmp	r3, #0
 755 003c 09D0     		beq	.L53
 756              		.loc 12 18 0
 757 003e 059B     		ldr	r3, [sp, #20]
 758 0040 1A1D     		adds	r2, r3, #4
 759 0042 049B     		ldr	r3, [sp, #16]
 760 0044 0833     		adds	r3, r3, #8
 761 0046 1046     		mov	r0, r2
 762 0048 1946     		mov	r1, r3
 763 004a FFF7FEFF 		bl	_ZN3r2p10StaticListINS_14LocalPublisherEE4linkERNS2_4LinkE
 764              		.loc 12 19 0
 765 004e 0123     		movs	r3, #1
 766 0050 00E0     		b	.L52
 767              	.L53:
 768              		.loc 12 21 0
 769 0052 0023     		movs	r3, #0
 770              	.L52:
 771              		.loc 12 22 0
 772 0054 1846     		mov	r0, r3
 773 0056 07B0     		add	sp, sp, #28
 774              		.cfi_def_cfa_offset 4
 775              		@ sp needed
 776 0058 5DF804FB 		ldr	pc, [sp], #4
 777              	.L55:
 778              		.align	2
 779              	.L54:
 780 005c 00000000 		.word	_ZN3r2p10Middleware8instanceE
 781              		.cfi_endproc
 782              	.LFE596:
 783              		.size	_ZN3r2p4Node9advertiseERNS_14LocalPublisherEPKcRKNS_4TimeEj, .-_ZN3r2p4Node9advertiseERNS_14
 784              		.section	.rodata
 785              		.align	2
 786              	.LC0:
 787 0000 5232505F 		.ascii	"R2P_ASSERT()\000"
ARM GAS  /tmp/ccxyu2nZ.s 			page 15


 787      41535345 
 787      52542829 
 787      00
 788 000d 000000   		.section	.text._ZN3r2p4Node9subscribeERNS_15LocalSubscriberEPKcPNS_7MessageEj,"ax",%progbits
 789              		.align	2
 790              		.p2align 4,,15
 791              		.global	_ZN3r2p4Node9subscribeERNS_15LocalSubscriberEPKcPNS_7MessageEj
 792              		.thumb
 793              		.thumb_func
 794              		.type	_ZN3r2p4Node9subscribeERNS_15LocalSubscriberEPKcPNS_7MessageEj, %function
 795              	_ZN3r2p4Node9subscribeERNS_15LocalSubscriberEPKcPNS_7MessageEj:
 796              	.LFB597:
 797              		.loc 12 26 0
 798              		.cfi_startproc
 799              		@ args = 4, pretend = 0, frame = 24
 800              		@ frame_needed = 0, uses_anonymous_args = 0
 801 0000 00B5     		push	{lr}
 802              		.cfi_def_cfa_offset 4
 803              		.cfi_offset 14, -4
 804 0002 89B0     		sub	sp, sp, #36
 805              		.cfi_def_cfa_offset 40
 806 0004 0590     		str	r0, [sp, #20]
 807 0006 0491     		str	r1, [sp, #16]
 808 0008 0392     		str	r2, [sp, #12]
 809 000a 0293     		str	r3, [sp, #8]
 810              	.LBB12:
 811              		.loc 12 29 0
 812 000c 049B     		ldr	r3, [sp, #16]
 813 000e 1846     		mov	r0, r3
 814 0010 FFF7FEFF 		bl	_ZNK3r2p14BaseSubscriber9get_topicEv
 815 0014 0346     		mov	r3, r0
 816 0016 002B     		cmp	r3, #0
 817 0018 14BF     		ite	ne
 818 001a 0123     		movne	r3, #1
 819 001c 0023     		moveq	r3, #0
 820 001e DBB2     		uxtb	r3, r3
 821 0020 002B     		cmp	r3, #0
 822 0022 01D0     		beq	.L57
 823              		.loc 12 29 0 is_stmt 0 discriminator 1
 824 0024 0023     		movs	r3, #0
 825 0026 44E0     		b	.L58
 826              	.L57:
 827              		.loc 12 31 0 is_stmt 1
 828 0028 049B     		ldr	r3, [sp, #16]
 829 002a 059A     		ldr	r2, [sp, #20]
 830 002c 9A60     		str	r2, [r3, #8]
 831              		.loc 12 32 0
 832 002e 059B     		ldr	r3, [sp, #20]
 833 0030 0833     		adds	r3, r3, #8
 834 0032 1846     		mov	r0, r3
 835 0034 FFF7FEFF 		bl	_ZNK3r2p10StaticListINS_15LocalSubscriberEE5countEv
 836 0038 0346     		mov	r3, r0
 837 003a 0793     		str	r3, [sp, #28]
 838              		.loc 12 33 0
 839 003c 059B     		ldr	r3, [sp, #20]
 840 003e 03F10802 		add	r2, r3, #8
 841 0042 049B     		ldr	r3, [sp, #16]
ARM GAS  /tmp/ccxyu2nZ.s 			page 16


 842 0044 2833     		adds	r3, r3, #40
 843 0046 1046     		mov	r0, r2
 844 0048 1946     		mov	r1, r3
 845 004a FFF7FEFF 		bl	_ZN3r2p10StaticListINS_15LocalSubscriberEE4linkERNS2_4LinkE
 846              		.loc 12 34 0
 847 004e 079B     		ldr	r3, [sp, #28]
 848 0050 002B     		cmp	r3, #0
 849 0052 02DA     		bge	.L59
 850              		.loc 12 34 0 is_stmt 0 discriminator 1
 851 0054 1948     		ldr	r0, .L62
 852 0056 FFF7FEFF 		bl	chDbgPanic
 853              	.L59:
 854              		.loc 12 35 0 is_stmt 1
 855 005a 079B     		ldr	r3, [sp, #28]
 856 005c 1F2B     		cmp	r3, #31
 857 005e 02DD     		ble	.L60
 858              		.loc 12 35 0 is_stmt 0 discriminator 1
 859 0060 1648     		ldr	r0, .L62
 860 0062 FFF7FEFF 		bl	chDbgPanic
 861              	.L60:
 862              		.loc 12 36 0 is_stmt 1
 863 0066 079B     		ldr	r3, [sp, #28]
 864 0068 DAB2     		uxtb	r2, r3
 865 006a 049B     		ldr	r3, [sp, #16]
 866 006c 83F82420 		strb	r2, [r3, #36]
 867              		.loc 12 39 0
 868 0070 049B     		ldr	r3, [sp, #16]
 869 0072 1B68     		ldr	r3, [r3]
 870 0074 1B68     		ldr	r3, [r3]
 871 0076 0498     		ldr	r0, [sp, #16]
 872 0078 9847     		blx	r3
 873 007a 0346     		mov	r3, r0
 874 007c 0093     		str	r3, [sp]
 875 007e 0A9B     		ldr	r3, [sp, #40]
 876 0080 0193     		str	r3, [sp, #4]
 877 0082 0F48     		ldr	r0, .L62+4
 878 0084 0499     		ldr	r1, [sp, #16]
 879 0086 039A     		ldr	r2, [sp, #12]
 880 0088 029B     		ldr	r3, [sp, #8]
 881 008a FFF7FEFF 		bl	_ZN3r2p10Middleware9subscribeERNS_15LocalSubscriberEPKcPNS_7MessageEjj
 882 008e 0346     		mov	r3, r0
 883              		.loc 12 38 0
 884 0090 83F00103 		eor	r3, r3, #1
 885 0094 DBB2     		uxtb	r3, r3
 886 0096 002B     		cmp	r3, #0
 887 0098 0AD0     		beq	.L61
 888              		.loc 12 40 0
 889 009a 059B     		ldr	r3, [sp, #20]
 890 009c 03F10802 		add	r2, r3, #8
 891 00a0 049B     		ldr	r3, [sp, #16]
 892 00a2 2833     		adds	r3, r3, #40
 893 00a4 1046     		mov	r0, r2
 894 00a6 1946     		mov	r1, r3
 895 00a8 FFF7FEFF 		bl	_ZN3r2p10StaticListINS_15LocalSubscriberEE6unlinkERNS2_4LinkE
 896              		.loc 12 41 0
 897 00ac 0023     		movs	r3, #0
 898 00ae 00E0     		b	.L58
ARM GAS  /tmp/ccxyu2nZ.s 			page 17


 899              	.L61:
 900              		.loc 12 44 0
 901 00b0 0123     		movs	r3, #1
 902              	.L58:
 903              	.LBE12:
 904              		.loc 12 46 0
 905 00b2 1846     		mov	r0, r3
 906 00b4 09B0     		add	sp, sp, #36
 907              		.cfi_def_cfa_offset 4
 908              		@ sp needed
 909 00b6 5DF804FB 		ldr	pc, [sp], #4
 910              	.L63:
 911 00ba 00BF     		.align	2
 912              	.L62:
 913 00bc 00000000 		.word	.LC0
 914 00c0 00000000 		.word	_ZN3r2p10Middleware8instanceE
 915              		.cfi_endproc
 916              	.LFE597:
 917              		.size	_ZN3r2p4Node9subscribeERNS_15LocalSubscriberEPKcPNS_7MessageEj, .-_ZN3r2p4Node9subscribeERNS
 918 00c4 AFF30080 		.section	.text._ZN3r2p4Node4spinERKNS_4TimeE,"ax",%progbits
 918      AFF30080 
 918      AFF30080 
 919              		.align	2
 920              		.p2align 4,,15
 921              		.global	_ZN3r2p4Node4spinERKNS_4TimeE
 922              		.thumb
 923              		.thumb_func
 924              		.type	_ZN3r2p4Node4spinERKNS_4TimeE, %function
 925              	_ZN3r2p4Node4spinERKNS_4TimeE:
 926              	.LFB598:
 927              		.loc 12 49 0
 928              		.cfi_startproc
 929              		@ args = 0, pretend = 0, frame = 40
 930              		@ frame_needed = 0, uses_anonymous_args = 0
 931 0000 10B5     		push	{r4, lr}
 932              		.cfi_def_cfa_offset 8
 933              		.cfi_offset 4, -8
 934              		.cfi_offset 14, -4
 935 0002 8AB0     		sub	sp, sp, #40
 936              		.cfi_def_cfa_offset 48
 937 0004 0190     		str	r0, [sp, #4]
 938 0006 0091     		str	r1, [sp]
 939              	.LBB13:
 940              		.loc 12 52 0
 941 0008 019B     		ldr	r3, [sp, #4]
 942 000a 0C33     		adds	r3, r3, #12
 943 000c 1846     		mov	r0, r3
 944 000e 0099     		ldr	r1, [sp]
 945 0010 FFF7FEFF 		bl	_ZN3r2p9SpinEvent4waitERKNS_4TimeE
 946 0014 0990     		str	r0, [sp, #36]
 947              		.loc 12 54 0
 948 0016 099B     		ldr	r3, [sp, #36]
 949 0018 002B     		cmp	r3, #0
 950 001a 01D1     		bne	.L65
 951              		.loc 12 55 0
 952 001c 0023     		movs	r3, #0
 953 001e 65E0     		b	.L76
ARM GAS  /tmp/ccxyu2nZ.s 			page 18


 954              	.L65:
 955              		.loc 12 58 0
 956 0020 05AB     		add	r3, sp, #20
 957 0022 1846     		mov	r0, r3
 958 0024 FFF7FEFF 		bl	_ZN3r2p4TimeC1Ev
 959              		.loc 12 59 0
 960 0028 0123     		movs	r3, #1
 961 002a 0893     		str	r3, [sp, #32]
 962              	.LBB14:
 963              		.loc 12 60 0
 964 002c 019B     		ldr	r3, [sp, #4]
 965 002e 0833     		adds	r3, r3, #8
 966 0030 04AA     		add	r2, sp, #16
 967 0032 1046     		mov	r0, r2
 968 0034 1946     		mov	r1, r3
 969 0036 FFF7FEFF 		bl	_ZN3r2p10StaticListINS_15LocalSubscriberEE5beginEv
 970 003a 3CE0     		b	.L67
 971              	.L75:
 972              	.LBB15:
 973              	.LBB16:
 974              		.loc 12 62 0
 975 003c 099A     		ldr	r2, [sp, #36]
 976 003e 089B     		ldr	r3, [sp, #32]
 977 0040 1340     		ands	r3, r3, r2
 978 0042 002B     		cmp	r3, #0
 979 0044 30D0     		beq	.L68
 980              	.LBB17:
 981              		.loc 12 63 0
 982 0046 089B     		ldr	r3, [sp, #32]
 983 0048 DB43     		mvns	r3, r3
 984 004a 099A     		ldr	r2, [sp, #36]
 985 004c 1340     		ands	r3, r3, r2
 986 004e 0993     		str	r3, [sp, #36]
 987              		.loc 12 64 0
 988 0050 04AB     		add	r3, sp, #16
 989 0052 1846     		mov	r0, r3
 990 0054 FFF7FEFF 		bl	_ZNK3r2p10StaticListINS_15LocalSubscriberEE8IteratorptEv
 991 0058 0346     		mov	r3, r0
 992 005a 1846     		mov	r0, r3
 993 005c FFF7FEFF 		bl	_ZNK3r2p15LocalSubscriber12get_callbackEv
 994 0060 0790     		str	r0, [sp, #28]
 995              	.LBB18:
 996              		.loc 12 65 0
 997 0062 079B     		ldr	r3, [sp, #28]
 998 0064 002B     		cmp	r3, #0
 999 0066 1FD0     		beq	.L69
 1000              	.LBB19:
 1001              		.loc 12 67 0
 1002 0068 0EE0     		b	.L70
 1003              	.L71:
 1004              		.loc 12 68 0
 1005 006a 039A     		ldr	r2, [sp, #12]
 1006 006c 079B     		ldr	r3, [sp, #28]
 1007 006e 1046     		mov	r0, r2
 1008 0070 9847     		blx	r3
 1009              		.loc 12 69 0
 1010 0072 04AB     		add	r3, sp, #16
ARM GAS  /tmp/ccxyu2nZ.s 			page 19


 1011 0074 1846     		mov	r0, r3
 1012 0076 FFF7FEFF 		bl	_ZNK3r2p10StaticListINS_15LocalSubscriberEE8IteratorptEv
 1013 007a 0346     		mov	r3, r0
 1014 007c 1A46     		mov	r2, r3
 1015 007e 039B     		ldr	r3, [sp, #12]
 1016 0080 1046     		mov	r0, r2
 1017 0082 1946     		mov	r1, r3
 1018 0084 FFF7FEFF 		bl	_ZN3r2p14BaseSubscriber7releaseERNS_7MessageE
 1019              	.L70:
 1020              		.loc 12 67 0
 1021 0088 04AB     		add	r3, sp, #16
 1022 008a 1846     		mov	r0, r3
 1023 008c FFF7FEFF 		bl	_ZNK3r2p10StaticListINS_15LocalSubscriberEE8IteratorptEv
 1024 0090 0246     		mov	r2, r0
 1025 0092 1368     		ldr	r3, [r2]
 1026 0094 1033     		adds	r3, r3, #16
 1027 0096 1B68     		ldr	r3, [r3]
 1028 0098 03A9     		add	r1, sp, #12
 1029 009a 05AC     		add	r4, sp, #20
 1030 009c 1046     		mov	r0, r2
 1031 009e 2246     		mov	r2, r4
 1032 00a0 9847     		blx	r3
 1033 00a2 0346     		mov	r3, r0
 1034 00a4 002B     		cmp	r3, #0
 1035 00a6 E0D1     		bne	.L71
 1036              	.L69:
 1037              	.L68:
 1038              	.LBE19:
 1039              	.LBE18:
 1040              	.LBE17:
 1041              	.LBE16:
 1042              	.LBE15:
 1043              		.loc 12 60 0
 1044 00a8 089B     		ldr	r3, [sp, #32]
 1045 00aa 5B00     		lsls	r3, r3, #1
 1046 00ac 0893     		str	r3, [sp, #32]
 1047 00ae 04AB     		add	r3, sp, #16
 1048 00b0 1846     		mov	r0, r3
 1049 00b2 FFF7FEFF 		bl	_ZN3r2p10StaticListINS_15LocalSubscriberEE8IteratorppEv
 1050              	.L67:
 1051              		.loc 12 61 0
 1052 00b6 019B     		ldr	r3, [sp, #4]
 1053 00b8 0833     		adds	r3, r3, #8
 1054 00ba 06AA     		add	r2, sp, #24
 1055 00bc 1046     		mov	r0, r2
 1056 00be 1946     		mov	r1, r3
 1057 00c0 FFF7FEFF 		bl	_ZN3r2p10StaticListINS_15LocalSubscriberEE3endEv
 1058 00c4 0124     		movs	r4, #1
 1059 00c6 04AA     		add	r2, sp, #16
 1060 00c8 06AB     		add	r3, sp, #24
 1061 00ca 1046     		mov	r0, r2
 1062 00cc 1946     		mov	r1, r3
 1063 00ce FFF7FEFF 		bl	_ZNK3r2p10StaticListINS_15LocalSubscriberEE8IteratorneERKS3_
 1064 00d2 0346     		mov	r3, r0
 1065 00d4 002B     		cmp	r3, #0
 1066 00d6 04D0     		beq	.L72
 1067              		.loc 12 61 0 is_stmt 0 discriminator 1
ARM GAS  /tmp/ccxyu2nZ.s 			page 20


 1068 00d8 099B     		ldr	r3, [sp, #36]
 1069 00da 002B     		cmp	r3, #0
 1070 00dc 01D0     		beq	.L72
 1071              		.loc 12 61 0 discriminator 3
 1072 00de 0123     		movs	r3, #1
 1073 00e0 00E0     		b	.L73
 1074              	.L72:
 1075              		.loc 12 61 0 discriminator 4
 1076 00e2 0023     		movs	r3, #0
 1077              	.L73:
 1078              		.loc 12 61 0 discriminator 6
 1079 00e4 002C     		cmp	r4, #0
 1080              		.loc 12 60 0 is_stmt 1 discriminator 6
 1081 00e6 002B     		cmp	r3, #0
 1082 00e8 A8D1     		bne	.L75
 1083              	.LBE14:
 1084              		.loc 12 74 0
 1085 00ea 0123     		movs	r3, #1
 1086              	.L76:
 1087              	.LBE13:
 1088              		.loc 12 75 0 discriminator 2
 1089 00ec 1846     		mov	r0, r3
 1090 00ee 0AB0     		add	sp, sp, #40
 1091              		.cfi_def_cfa_offset 8
 1092              		@ sp needed
 1093 00f0 10BD     		pop	{r4, pc}
 1094              		.cfi_endproc
 1095              	.LFE598:
 1096              		.size	_ZN3r2p4Node4spinERKNS_4TimeE, .-_ZN3r2p4Node4spinERKNS_4TimeE
 1097 00f2 00BFAFF3 		.section	.text._ZN3r2p10StaticListINS_14LocalPublisherEED2Ev,"axG",%progbits,_ZN3r2p10StaticListIN
 1097      0080AFF3 
 1097      0080AFF3 
 1097      0080
 1098              		.align	2
 1099              		.p2align 4,,15
 1100              		.weak	_ZN3r2p10StaticListINS_14LocalPublisherEED2Ev
 1101              		.thumb
 1102              		.thumb_func
 1103              		.type	_ZN3r2p10StaticListINS_14LocalPublisherEED2Ev, %function
 1104              	_ZN3r2p10StaticListINS_14LocalPublisherEED2Ev:
 1105              	.LFB601:
 1106              		.file 13 "/home/denny/r2p-sdk/core/Middleware/include/r2p/StaticList.hpp"
 1107              		.loc 13 15 0
 1108              		.cfi_startproc
 1109              		@ args = 0, pretend = 0, frame = 8
 1110              		@ frame_needed = 0, uses_anonymous_args = 0
 1111 0000 00B5     		push	{lr}
 1112              		.cfi_def_cfa_offset 4
 1113              		.cfi_offset 14, -4
 1114 0002 83B0     		sub	sp, sp, #12
 1115              		.cfi_def_cfa_offset 16
 1116 0004 0190     		str	r0, [sp, #4]
 1117              	.LBB20:
 1118              		.loc 13 15 0
 1119 0006 0198     		ldr	r0, [sp, #4]
 1120 0008 FFF7FEFF 		bl	_ZN3r2p10UncopyableD2Ev
 1121              	.LBE20:
ARM GAS  /tmp/ccxyu2nZ.s 			page 21


 1122 000c 019B     		ldr	r3, [sp, #4]
 1123 000e 1846     		mov	r0, r3
 1124 0010 03B0     		add	sp, sp, #12
 1125              		.cfi_def_cfa_offset 4
 1126              		@ sp needed
 1127 0012 5DF804FB 		ldr	pc, [sp], #4
 1128              		.cfi_endproc
 1129              	.LFE601:
 1130              		.size	_ZN3r2p10StaticListINS_14LocalPublisherEED2Ev, .-_ZN3r2p10StaticListINS_14LocalPublisherEED2
 1131              		.weak	_ZN3r2p10StaticListINS_14LocalPublisherEED1Ev
 1132              		.thumb_set _ZN3r2p10StaticListINS_14LocalPublisherEED1Ev,_ZN3r2p10StaticListINS_14LocalPublisherEE
 1133 0016 00BFAFF3 		.section	.text._ZN3r2p10StaticListINS_15LocalSubscriberEED2Ev,"axG",%progbits,_ZN3r2p10StaticListI
 1133      0080AFF3 
 1133      0080
 1134              		.align	2
 1135              		.p2align 4,,15
 1136              		.weak	_ZN3r2p10StaticListINS_15LocalSubscriberEED2Ev
 1137              		.thumb
 1138              		.thumb_func
 1139              		.type	_ZN3r2p10StaticListINS_15LocalSubscriberEED2Ev, %function
 1140              	_ZN3r2p10StaticListINS_15LocalSubscriberEED2Ev:
 1141              	.LFB604:
 1142              		.loc 13 15 0
 1143              		.cfi_startproc
 1144              		@ args = 0, pretend = 0, frame = 8
 1145              		@ frame_needed = 0, uses_anonymous_args = 0
 1146 0000 00B5     		push	{lr}
 1147              		.cfi_def_cfa_offset 4
 1148              		.cfi_offset 14, -4
 1149 0002 83B0     		sub	sp, sp, #12
 1150              		.cfi_def_cfa_offset 16
 1151 0004 0190     		str	r0, [sp, #4]
 1152              	.LBB21:
 1153              		.loc 13 15 0
 1154 0006 0198     		ldr	r0, [sp, #4]
 1155 0008 FFF7FEFF 		bl	_ZN3r2p10UncopyableD2Ev
 1156              	.LBE21:
 1157 000c 019B     		ldr	r3, [sp, #4]
 1158 000e 1846     		mov	r0, r3
 1159 0010 03B0     		add	sp, sp, #12
 1160              		.cfi_def_cfa_offset 4
 1161              		@ sp needed
 1162 0012 5DF804FB 		ldr	pc, [sp], #4
 1163              		.cfi_endproc
 1164              	.LFE604:
 1165              		.size	_ZN3r2p10StaticListINS_15LocalSubscriberEED2Ev, .-_ZN3r2p10StaticListINS_15LocalSubscriberEE
 1166              		.weak	_ZN3r2p10StaticListINS_15LocalSubscriberEED1Ev
 1167              		.thumb_set _ZN3r2p10StaticListINS_15LocalSubscriberEED1Ev,_ZN3r2p10StaticListINS_15LocalSubscriber
 1168 0016 00BFAFF3 		.section	.text._ZN3r2p9SpinEventD2Ev,"axG",%progbits,_ZN3r2p9SpinEventD5Ev,comdat
 1168      0080AFF3 
 1168      0080
 1169              		.align	2
 1170              		.p2align 4,,15
 1171              		.weak	_ZN3r2p9SpinEventD2Ev
 1172              		.thumb
 1173              		.thumb_func
 1174              		.type	_ZN3r2p9SpinEventD2Ev, %function
ARM GAS  /tmp/ccxyu2nZ.s 			page 22


 1175              	_ZN3r2p9SpinEventD2Ev:
 1176              	.LFB607:
 1177              		.loc 8 11 0
 1178              		.cfi_startproc
 1179              		@ args = 0, pretend = 0, frame = 8
 1180              		@ frame_needed = 0, uses_anonymous_args = 0
 1181 0000 00B5     		push	{lr}
 1182              		.cfi_def_cfa_offset 4
 1183              		.cfi_offset 14, -4
 1184 0002 83B0     		sub	sp, sp, #12
 1185              		.cfi_def_cfa_offset 16
 1186 0004 0190     		str	r0, [sp, #4]
 1187              	.LBB22:
 1188              		.loc 8 11 0
 1189 0006 0198     		ldr	r0, [sp, #4]
 1190 0008 FFF7FEFF 		bl	_ZN3r2p10UncopyableD2Ev
 1191              	.LBE22:
 1192 000c 019B     		ldr	r3, [sp, #4]
 1193 000e 1846     		mov	r0, r3
 1194 0010 03B0     		add	sp, sp, #12
 1195              		.cfi_def_cfa_offset 4
 1196              		@ sp needed
 1197 0012 5DF804FB 		ldr	pc, [sp], #4
 1198              		.cfi_endproc
 1199              	.LFE607:
 1200              		.size	_ZN3r2p9SpinEventD2Ev, .-_ZN3r2p9SpinEventD2Ev
 1201              		.weak	_ZN3r2p9SpinEventD1Ev
 1202              		.thumb_set _ZN3r2p9SpinEventD1Ev,_ZN3r2p9SpinEventD2Ev
 1203 0016 00BFAFF3 		.section	.text._ZN3r2p4NodeC2EPKcb,"ax",%progbits
 1203      0080AFF3 
 1203      0080
 1204              		.align	2
 1205              		.p2align 4,,15
 1206              		.global	_ZN3r2p4NodeC2EPKcb
 1207              		.thumb
 1208              		.thumb_func
 1209              		.type	_ZN3r2p4NodeC2EPKcb, %function
 1210              	_ZN3r2p4NodeC2EPKcb:
 1211              	.LFB609:
 1212              		.loc 12 78 0
 1213              		.cfi_startproc
 1214              		@ args = 0, pretend = 0, frame = 16
 1215              		@ frame_needed = 0, uses_anonymous_args = 0
 1216 0000 10B5     		push	{r4, lr}
 1217              		.cfi_def_cfa_offset 8
 1218              		.cfi_offset 4, -8
 1219              		.cfi_offset 14, -4
 1220 0002 84B0     		sub	sp, sp, #16
 1221              		.cfi_def_cfa_offset 24
 1222 0004 0390     		str	r0, [sp, #12]
 1223 0006 0291     		str	r1, [sp, #8]
 1224 0008 1346     		mov	r3, r2
 1225 000a 8DF80730 		strb	r3, [sp, #7]
 1226              	.LBB23:
 1227              		.loc 12 82 0
 1228 000e 0398     		ldr	r0, [sp, #12]
 1229 0010 FFF7FEFF 		bl	_ZN3r2p10UncopyableC2Ev
ARM GAS  /tmp/ccxyu2nZ.s 			page 23


 1230 0014 039B     		ldr	r3, [sp, #12]
 1231 0016 029A     		ldr	r2, [sp, #8]
 1232 0018 1A60     		str	r2, [r3]
 1233 001a 039B     		ldr	r3, [sp, #12]
 1234 001c 0433     		adds	r3, r3, #4
 1235 001e 1846     		mov	r0, r3
 1236 0020 FFF7FEFF 		bl	_ZN3r2p10StaticListINS_14LocalPublisherEEC1Ev
 1237 0024 039B     		ldr	r3, [sp, #12]
 1238 0026 0833     		adds	r3, r3, #8
 1239 0028 1846     		mov	r0, r3
 1240 002a FFF7FEFF 		bl	_ZN3r2p10StaticListINS_15LocalSubscriberEEC1Ev
 1241 002e 039B     		ldr	r3, [sp, #12]
 1242 0030 03F10C04 		add	r4, r3, #12
 1243 0034 9DF80730 		ldrb	r3, [sp, #7]	@ zero_extendqisi2
 1244 0038 002B     		cmp	r3, #0
 1245 003a 03D0     		beq	.L87
 1246              		.loc 12 82 0 is_stmt 0 discriminator 1
 1247 003c FFF7FEFF 		bl	_ZN3r2p6Thread4selfEv
 1248 0040 0346     		mov	r3, r0
 1249 0042 00E0     		b	.L88
 1250              	.L87:
 1251              		.loc 12 82 0 discriminator 2
 1252 0044 0023     		movs	r3, #0
 1253              	.L88:
 1254              		.loc 12 82 0 discriminator 4
 1255 0046 2046     		mov	r0, r4
 1256 0048 1946     		mov	r1, r3
 1257 004a FFF7FEFF 		bl	_ZN3r2p9SpinEventC1EPNS_6ThreadE
 1258 004e 039B     		ldr	r3, [sp, #12]
 1259 0050 1033     		adds	r3, r3, #16
 1260 0052 1846     		mov	r0, r3
 1261 0054 FFF7FEFF 		bl	_ZN3r2p4TimeC1Ev
 1262 0058 039B     		ldr	r3, [sp, #12]
 1263 005a 1433     		adds	r3, r3, #20
 1264 005c 1846     		mov	r0, r3
 1265 005e 0399     		ldr	r1, [sp, #12]
 1266 0060 FFF7FEFF 		bl	_ZN3r2p10StaticListINS_4NodeEE4LinkC1ERS1_
 1267              		.loc 12 84 0 is_stmt 1 discriminator 4
 1268 0064 0298     		ldr	r0, [sp, #8]
 1269 0066 0821     		movs	r1, #8
 1270 0068 FFF7FEFF 		bl	_ZN3r2p13is_identifierEPKcj
 1271 006c 0346     		mov	r3, r0
 1272 006e 83F00103 		eor	r3, r3, #1
 1273 0072 DBB2     		uxtb	r3, r3
 1274 0074 002B     		cmp	r3, #0
 1275 0076 02D0     		beq	.L89
 1276              		.loc 12 84 0 is_stmt 0 discriminator 1
 1277 0078 0548     		ldr	r0, .L92
 1278 007a FFF7FEFF 		bl	chDbgPanic
 1279              	.L89:
 1280              		.loc 12 86 0 is_stmt 1
 1281 007e 0548     		ldr	r0, .L92+4
 1282 0080 0399     		ldr	r1, [sp, #12]
 1283 0082 FFF7FEFF 		bl	_ZN3r2p10Middleware3addERNS_4NodeE
 1284              	.LBE23:
 1285              		.loc 12 87 0
 1286 0086 039B     		ldr	r3, [sp, #12]
ARM GAS  /tmp/ccxyu2nZ.s 			page 24


 1287 0088 1846     		mov	r0, r3
 1288 008a 04B0     		add	sp, sp, #16
 1289              		.cfi_def_cfa_offset 8
 1290              		@ sp needed
 1291 008c 10BD     		pop	{r4, pc}
 1292              	.L93:
 1293 008e 00BF     		.align	2
 1294              	.L92:
 1295 0090 00000000 		.word	.LC0
 1296 0094 00000000 		.word	_ZN3r2p10Middleware8instanceE
 1297              		.cfi_endproc
 1298              	.LFE609:
 1299              		.size	_ZN3r2p4NodeC2EPKcb, .-_ZN3r2p4NodeC2EPKcb
 1300              		.global	_ZN3r2p4NodeC1EPKcb
 1301              		.thumb_set _ZN3r2p4NodeC1EPKcb,_ZN3r2p4NodeC2EPKcb
 1302 0098 AFF30080 		.section	.text._ZN3r2p4NodeD2Ev,"ax",%progbits
 1302      AFF30080 
 1303              		.align	2
 1304              		.p2align 4,,15
 1305              		.global	_ZN3r2p4NodeD2Ev
 1306              		.thumb
 1307              		.thumb_func
 1308              		.type	_ZN3r2p4NodeD2Ev, %function
 1309              	_ZN3r2p4NodeD2Ev:
 1310              	.LFB612:
 1311              		.loc 12 90 0
 1312              		.cfi_startproc
 1313              		@ args = 0, pretend = 0, frame = 8
 1314              		@ frame_needed = 0, uses_anonymous_args = 0
 1315 0000 00B5     		push	{lr}
 1316              		.cfi_def_cfa_offset 4
 1317              		.cfi_offset 14, -4
 1318 0002 83B0     		sub	sp, sp, #12
 1319              		.cfi_def_cfa_offset 16
 1320 0004 0190     		str	r0, [sp, #4]
 1321              	.LBB24:
 1322              		.loc 12 92 0
 1323 0006 0D48     		ldr	r0, .L97
 1324 0008 0199     		ldr	r1, [sp, #4]
 1325 000a FFF7FEFF 		bl	_ZN3r2p10Middleware12confirm_stopERKNS_4NodeE
 1326              		.loc 12 90 0
 1327 000e 019B     		ldr	r3, [sp, #4]
 1328 0010 0C33     		adds	r3, r3, #12
 1329 0012 1846     		mov	r0, r3
 1330 0014 FFF7FEFF 		bl	_ZN3r2p9SpinEventD1Ev
 1331 0018 019B     		ldr	r3, [sp, #4]
 1332 001a 0833     		adds	r3, r3, #8
 1333 001c 1846     		mov	r0, r3
 1334 001e FFF7FEFF 		bl	_ZN3r2p10StaticListINS_15LocalSubscriberEED1Ev
 1335 0022 019B     		ldr	r3, [sp, #4]
 1336 0024 0433     		adds	r3, r3, #4
 1337 0026 1846     		mov	r0, r3
 1338 0028 FFF7FEFF 		bl	_ZN3r2p10StaticListINS_14LocalPublisherEED1Ev
 1339 002c 0198     		ldr	r0, [sp, #4]
 1340 002e FFF7FEFF 		bl	_ZN3r2p10UncopyableD2Ev
 1341              	.LBE24:
 1342              		.loc 12 93 0
ARM GAS  /tmp/ccxyu2nZ.s 			page 25


 1343 0032 019B     		ldr	r3, [sp, #4]
 1344 0034 1846     		mov	r0, r3
 1345 0036 03B0     		add	sp, sp, #12
 1346              		.cfi_def_cfa_offset 4
 1347              		@ sp needed
 1348 0038 5DF804FB 		ldr	pc, [sp], #4
 1349              	.L98:
 1350              		.align	2
 1351              	.L97:
 1352 003c 00000000 		.word	_ZN3r2p10Middleware8instanceE
 1353              		.cfi_endproc
 1354              	.LFE612:
 1355              		.size	_ZN3r2p4NodeD2Ev, .-_ZN3r2p4NodeD2Ev
 1356              		.global	_ZN3r2p4NodeD1Ev
 1357              		.thumb_set _ZN3r2p4NodeD1Ev,_ZN3r2p4NodeD2Ev
 1358              		.section	.text._ZNK3r2p10StaticListINS_15LocalSubscriberEE15is_empty_unsafeEv,"axG",%progbits,_ZNK
 1359              		.align	2
 1360              		.p2align 4,,15
 1361              		.weak	_ZNK3r2p10StaticListINS_15LocalSubscriberEE15is_empty_unsafeEv
 1362              		.thumb
 1363              		.thumb_func
 1364              		.type	_ZNK3r2p10StaticListINS_15LocalSubscriberEE15is_empty_unsafeEv, %function
 1365              	_ZNK3r2p10StaticListINS_15LocalSubscriberEE15is_empty_unsafeEv:
 1366              	.LFB626:
 1367              		.loc 13 401 0
 1368              		.cfi_startproc
 1369              		@ args = 0, pretend = 0, frame = 8
 1370              		@ frame_needed = 0, uses_anonymous_args = 0
 1371              		@ link register save eliminated.
 1372 0000 82B0     		sub	sp, sp, #8
 1373              		.cfi_def_cfa_offset 8
 1374 0002 0190     		str	r0, [sp, #4]
 1375              		.loc 13 402 0
 1376 0004 019B     		ldr	r3, [sp, #4]
 1377 0006 1B68     		ldr	r3, [r3]
 1378 0008 002B     		cmp	r3, #0
 1379 000a 0CBF     		ite	eq
 1380 000c 0123     		moveq	r3, #1
 1381 000e 0023     		movne	r3, #0
 1382 0010 DBB2     		uxtb	r3, r3
 1383              		.loc 13 403 0
 1384 0012 1846     		mov	r0, r3
 1385 0014 02B0     		add	sp, sp, #8
 1386              		.cfi_def_cfa_offset 0
 1387              		@ sp needed
 1388 0016 7047     		bx	lr
 1389              		.cfi_endproc
 1390              	.LFE626:
 1391              		.size	_ZNK3r2p10StaticListINS_15LocalSubscriberEE15is_empty_unsafeEv, .-_ZNK3r2p10StaticListINS_15
 1392 0018 AFF30080 		.section	.text._ZN3r2p10StaticListINS_14LocalPublisherEE4linkERNS2_4LinkE,"axG",%progbits,_ZN3r2p1
 1392      AFF30080 
 1393              		.align	2
 1394              		.p2align 4,,15
 1395              		.weak	_ZN3r2p10StaticListINS_14LocalPublisherEE4linkERNS2_4LinkE
 1396              		.thumb
 1397              		.thumb_func
 1398              		.type	_ZN3r2p10StaticListINS_14LocalPublisherEE4linkERNS2_4LinkE, %function
ARM GAS  /tmp/ccxyu2nZ.s 			page 26


 1399              	_ZN3r2p10StaticListINS_14LocalPublisherEE4linkERNS2_4LinkE:
 1400              	.LFB635:
 1401              		.loc 13 630 0
 1402              		.cfi_startproc
 1403              		@ args = 0, pretend = 0, frame = 8
 1404              		@ frame_needed = 0, uses_anonymous_args = 0
 1405 0000 00B5     		push	{lr}
 1406              		.cfi_def_cfa_offset 4
 1407              		.cfi_offset 14, -4
 1408 0002 83B0     		sub	sp, sp, #12
 1409              		.cfi_def_cfa_offset 16
 1410 0004 0190     		str	r0, [sp, #4]
 1411 0006 0091     		str	r1, [sp]
 1412              		.loc 13 632 0
 1413 0008 FFF7FEFF 		bl	_ZN3r2p7SysLock7acquireEv
 1414              		.loc 13 633 0
 1415 000c 0198     		ldr	r0, [sp, #4]
 1416 000e 0099     		ldr	r1, [sp]
 1417 0010 FFF7FEFF 		bl	_ZN3r2p10StaticListINS_14LocalPublisherEE16link_tail_unsafeERNS2_4LinkE
 1418              		.loc 13 635 0
 1419 0014 FFF7FEFF 		bl	_ZN3r2p7SysLock7releaseEv
 1420              		.loc 13 636 0
 1421 0018 03B0     		add	sp, sp, #12
 1422              		.cfi_def_cfa_offset 4
 1423              		@ sp needed
 1424 001a 5DF804FB 		ldr	pc, [sp], #4
 1425              		.cfi_endproc
 1426              	.LFE635:
 1427              		.size	_ZN3r2p10StaticListINS_14LocalPublisherEE4linkERNS2_4LinkE, .-_ZN3r2p10StaticListINS_14Local
 1428 001e 00BF     		.section	.text._ZNK3r2p10StaticListINS_15LocalSubscriberEE5countEv,"axG",%progbits,_ZNK3r2p10Stati
 1429              		.align	2
 1430              		.p2align 4,,15
 1431              		.weak	_ZNK3r2p10StaticListINS_15LocalSubscriberEE5countEv
 1432              		.thumb
 1433              		.thumb_func
 1434              		.type	_ZNK3r2p10StaticListINS_15LocalSubscriberEE5countEv, %function
 1435              	_ZNK3r2p10StaticListINS_15LocalSubscriberEE5countEv:
 1436              	.LFB636:
 1437              		.loc 13 615 0
 1438              		.cfi_startproc
 1439              		@ args = 0, pretend = 0, frame = 16
 1440              		@ frame_needed = 0, uses_anonymous_args = 0
 1441 0000 00B5     		push	{lr}
 1442              		.cfi_def_cfa_offset 4
 1443              		.cfi_offset 14, -4
 1444 0002 85B0     		sub	sp, sp, #20
 1445              		.cfi_def_cfa_offset 24
 1446 0004 0190     		str	r0, [sp, #4]
 1447              	.LBB25:
 1448              		.loc 13 617 0
 1449 0006 0023     		movs	r3, #0
 1450 0008 0393     		str	r3, [sp, #12]
 1451              		.loc 13 618 0
 1452 000a FFF7FEFF 		bl	_ZN3r2p7SysLock7acquireEv
 1453              	.LBB26:
 1454              		.loc 13 619 0
 1455 000e 019B     		ldr	r3, [sp, #4]
ARM GAS  /tmp/ccxyu2nZ.s 			page 27


 1456 0010 1B68     		ldr	r3, [r3]
 1457 0012 0293     		str	r3, [sp, #8]
 1458 0014 09E0     		b	.L103
 1459              	.L104:
 1460              		.loc 13 620 0 discriminator 3
 1461 0016 FFF7FEFF 		bl	_ZN3r2p7SysLock7releaseEv
 1462              		.loc 13 621 0 discriminator 3
 1463 001a 039B     		ldr	r3, [sp, #12]
 1464 001c 0133     		adds	r3, r3, #1
 1465 001e 0393     		str	r3, [sp, #12]
 1466              		.loc 13 622 0 discriminator 3
 1467 0020 FFF7FEFF 		bl	_ZN3r2p7SysLock7acquireEv
 1468              		.loc 13 619 0 discriminator 3
 1469 0024 029B     		ldr	r3, [sp, #8]
 1470 0026 1B68     		ldr	r3, [r3]
 1471 0028 0293     		str	r3, [sp, #8]
 1472              	.L103:
 1473              		.loc 13 619 0 is_stmt 0 discriminator 1
 1474 002a 029B     		ldr	r3, [sp, #8]
 1475 002c 002B     		cmp	r3, #0
 1476 002e F2D1     		bne	.L104
 1477              	.LBE26:
 1478              		.loc 13 624 0 is_stmt 1
 1479 0030 FFF7FEFF 		bl	_ZN3r2p7SysLock7releaseEv
 1480              		.loc 13 625 0
 1481 0034 039B     		ldr	r3, [sp, #12]
 1482              	.LBE25:
 1483              		.loc 13 626 0
 1484 0036 1846     		mov	r0, r3
 1485 0038 05B0     		add	sp, sp, #20
 1486              		.cfi_def_cfa_offset 4
 1487              		@ sp needed
 1488 003a 5DF804FB 		ldr	pc, [sp], #4
 1489              		.cfi_endproc
 1490              	.LFE636:
 1491              		.size	_ZNK3r2p10StaticListINS_15LocalSubscriberEE5countEv, .-_ZNK3r2p10StaticListINS_15LocalSubscr
 1492              		.section	.text._ZN3r2p10StaticListINS_15LocalSubscriberEE4linkERNS2_4LinkE,"axG",%progbits,_ZN3r2p
 1493              		.align	2
 1494              		.p2align 4,,15
 1495              		.weak	_ZN3r2p10StaticListINS_15LocalSubscriberEE4linkERNS2_4LinkE
 1496              		.thumb
 1497              		.thumb_func
 1498              		.type	_ZN3r2p10StaticListINS_15LocalSubscriberEE4linkERNS2_4LinkE, %function
 1499              	_ZN3r2p10StaticListINS_15LocalSubscriberEE4linkERNS2_4LinkE:
 1500              	.LFB637:
 1501              		.loc 13 630 0
 1502              		.cfi_startproc
 1503              		@ args = 0, pretend = 0, frame = 8
 1504              		@ frame_needed = 0, uses_anonymous_args = 0
 1505 0000 00B5     		push	{lr}
 1506              		.cfi_def_cfa_offset 4
 1507              		.cfi_offset 14, -4
 1508 0002 83B0     		sub	sp, sp, #12
 1509              		.cfi_def_cfa_offset 16
 1510 0004 0190     		str	r0, [sp, #4]
 1511 0006 0091     		str	r1, [sp]
 1512              		.loc 13 632 0
ARM GAS  /tmp/ccxyu2nZ.s 			page 28


 1513 0008 FFF7FEFF 		bl	_ZN3r2p7SysLock7acquireEv
 1514              		.loc 13 633 0
 1515 000c 0198     		ldr	r0, [sp, #4]
 1516 000e 0099     		ldr	r1, [sp]
 1517 0010 FFF7FEFF 		bl	_ZN3r2p10StaticListINS_15LocalSubscriberEE16link_tail_unsafeERNS2_4LinkE
 1518              		.loc 13 635 0
 1519 0014 FFF7FEFF 		bl	_ZN3r2p7SysLock7releaseEv
 1520              		.loc 13 636 0
 1521 0018 03B0     		add	sp, sp, #12
 1522              		.cfi_def_cfa_offset 4
 1523              		@ sp needed
 1524 001a 5DF804FB 		ldr	pc, [sp], #4
 1525              		.cfi_endproc
 1526              	.LFE637:
 1527              		.size	_ZN3r2p10StaticListINS_15LocalSubscriberEE4linkERNS2_4LinkE, .-_ZN3r2p10StaticListINS_15Loca
 1528 001e 00BF     		.section	.text._ZN3r2p10StaticListINS_15LocalSubscriberEE6unlinkERNS2_4LinkE,"axG",%progbits,_ZN3r
 1529              		.align	2
 1530              		.p2align 4,,15
 1531              		.weak	_ZN3r2p10StaticListINS_15LocalSubscriberEE6unlinkERNS2_4LinkE
 1532              		.thumb
 1533              		.thumb_func
 1534              		.type	_ZN3r2p10StaticListINS_15LocalSubscriberEE6unlinkERNS2_4LinkE, %function
 1535              	_ZN3r2p10StaticListINS_15LocalSubscriberEE6unlinkERNS2_4LinkE:
 1536              	.LFB638:
 1537              		.loc 13 640 0
 1538              		.cfi_startproc
 1539              		@ args = 0, pretend = 0, frame = 16
 1540              		@ frame_needed = 0, uses_anonymous_args = 0
 1541 0000 00B5     		push	{lr}
 1542              		.cfi_def_cfa_offset 4
 1543              		.cfi_offset 14, -4
 1544 0002 85B0     		sub	sp, sp, #20
 1545              		.cfi_def_cfa_offset 24
 1546 0004 0190     		str	r0, [sp, #4]
 1547 0006 0091     		str	r1, [sp]
 1548              	.LBB27:
 1549              		.loc 13 642 0
 1550 0008 FFF7FEFF 		bl	_ZN3r2p7SysLock7acquireEv
 1551              		.loc 13 643 0
 1552 000c 0198     		ldr	r0, [sp, #4]
 1553 000e 0099     		ldr	r1, [sp]
 1554 0010 FFF7FEFF 		bl	_ZN3r2p10StaticListINS_15LocalSubscriberEE13unlink_unsafeERNS2_4LinkE
 1555 0014 0346     		mov	r3, r0
 1556 0016 8DF80F30 		strb	r3, [sp, #15]
 1557              		.loc 13 644 0
 1558 001a FFF7FEFF 		bl	_ZN3r2p7SysLock7releaseEv
 1559              		.loc 13 645 0
 1560 001e 9DF80F30 		ldrb	r3, [sp, #15]	@ zero_extendqisi2
 1561              	.LBE27:
 1562              		.loc 13 646 0
 1563 0022 1846     		mov	r0, r3
 1564 0024 05B0     		add	sp, sp, #20
 1565              		.cfi_def_cfa_offset 4
 1566              		@ sp needed
 1567 0026 5DF804FB 		ldr	pc, [sp], #4
 1568              		.cfi_endproc
 1569              	.LFE638:
ARM GAS  /tmp/ccxyu2nZ.s 			page 29


 1570              		.size	_ZN3r2p10StaticListINS_15LocalSubscriberEE6unlinkERNS2_4LinkE, .-_ZN3r2p10StaticListINS_15Lo
 1571 002a 00BFAFF3 		.section	.text._ZN3r2p10StaticListINS_15LocalSubscriberEE5beginEv,"axG",%progbits,_ZN3r2p10StaticL
 1571      0080
 1572              		.align	2
 1573              		.p2align 4,,15
 1574              		.weak	_ZN3r2p10StaticListINS_15LocalSubscriberEE5beginEv
 1575              		.thumb
 1576              		.thumb_func
 1577              		.type	_ZN3r2p10StaticListINS_15LocalSubscriberEE5beginEv, %function
 1578              	_ZN3r2p10StaticListINS_15LocalSubscriberEE5beginEv:
 1579              	.LFB639:
 1580              		.loc 13 480 0
 1581              		.cfi_startproc
 1582              		@ args = 0, pretend = 0, frame = 8
 1583              		@ frame_needed = 0, uses_anonymous_args = 0
 1584 0000 00B5     		push	{lr}
 1585              		.cfi_def_cfa_offset 4
 1586              		.cfi_offset 14, -4
 1587 0002 83B0     		sub	sp, sp, #12
 1588              		.cfi_def_cfa_offset 16
 1589 0004 0190     		str	r0, [sp, #4]
 1590 0006 0091     		str	r1, [sp]
 1591              		.loc 13 481 0
 1592 0008 0098     		ldr	r0, [sp]
 1593 000a FFF7FEFF 		bl	_ZNK3r2p10StaticListINS_15LocalSubscriberEE8get_headEv
 1594 000e 0346     		mov	r3, r0
 1595 0010 0198     		ldr	r0, [sp, #4]
 1596 0012 1946     		mov	r1, r3
 1597 0014 FFF7FEFF 		bl	_ZN3r2p10StaticListINS_15LocalSubscriberEE8IteratorC1EPKNS2_4LinkE
 1598              		.loc 13 482 0
 1599 0018 0198     		ldr	r0, [sp, #4]
 1600 001a 03B0     		add	sp, sp, #12
 1601              		.cfi_def_cfa_offset 4
 1602              		@ sp needed
 1603 001c 5DF804FB 		ldr	pc, [sp], #4
 1604              		.cfi_endproc
 1605              	.LFE639:
 1606              		.size	_ZN3r2p10StaticListINS_15LocalSubscriberEE5beginEv, .-_ZN3r2p10StaticListINS_15LocalSubscrib
 1607              		.section	.text._ZN3r2p10StaticListINS_15LocalSubscriberEE3endEv,"axG",%progbits,_ZN3r2p10StaticLis
 1608              		.align	2
 1609              		.p2align 4,,15
 1610              		.weak	_ZN3r2p10StaticListINS_15LocalSubscriberEE3endEv
 1611              		.thumb
 1612              		.thumb_func
 1613              		.type	_ZN3r2p10StaticListINS_15LocalSubscriberEE3endEv, %function
 1614              	_ZN3r2p10StaticListINS_15LocalSubscriberEE3endEv:
 1615              	.LFB643:
 1616              		.loc 13 484 0
 1617              		.cfi_startproc
 1618              		@ args = 0, pretend = 0, frame = 8
 1619              		@ frame_needed = 0, uses_anonymous_args = 0
 1620 0000 00B5     		push	{lr}
 1621              		.cfi_def_cfa_offset 4
 1622              		.cfi_offset 14, -4
 1623 0002 83B0     		sub	sp, sp, #12
 1624              		.cfi_def_cfa_offset 16
 1625 0004 0190     		str	r0, [sp, #4]
ARM GAS  /tmp/ccxyu2nZ.s 			page 30


 1626 0006 0091     		str	r1, [sp]
 1627              		.loc 13 485 0
 1628 0008 0198     		ldr	r0, [sp, #4]
 1629 000a 0021     		movs	r1, #0
 1630 000c FFF7FEFF 		bl	_ZN3r2p10StaticListINS_15LocalSubscriberEE8IteratorC1EPKNS2_4LinkE
 1631              		.loc 13 486 0
 1632 0010 0198     		ldr	r0, [sp, #4]
 1633 0012 03B0     		add	sp, sp, #12
 1634              		.cfi_def_cfa_offset 4
 1635              		@ sp needed
 1636 0014 5DF804FB 		ldr	pc, [sp], #4
 1637              		.cfi_endproc
 1638              	.LFE643:
 1639              		.size	_ZN3r2p10StaticListINS_15LocalSubscriberEE3endEv, .-_ZN3r2p10StaticListINS_15LocalSubscriber
 1640 0018 AFF30080 		.section	.text._ZNK3r2p10StaticListINS_15LocalSubscriberEE8IteratorneERKS3_,"axG",%progbits,_ZNK3r
 1640      AFF30080 
 1641              		.align	2
 1642              		.p2align 4,,15
 1643              		.weak	_ZNK3r2p10StaticListINS_15LocalSubscriberEE8IteratorneERKS3_
 1644              		.thumb
 1645              		.thumb_func
 1646              		.type	_ZNK3r2p10StaticListINS_15LocalSubscriberEE8IteratorneERKS3_, %function
 1647              	_ZNK3r2p10StaticListINS_15LocalSubscriberEE8IteratorneERKS3_:
 1648              	.LFB644:
 1649              		.loc 13 183 0
 1650              		.cfi_startproc
 1651              		@ args = 0, pretend = 0, frame = 8
 1652              		@ frame_needed = 0, uses_anonymous_args = 0
 1653              		@ link register save eliminated.
 1654 0000 82B0     		sub	sp, sp, #8
 1655              		.cfi_def_cfa_offset 8
 1656 0002 0190     		str	r0, [sp, #4]
 1657 0004 0091     		str	r1, [sp]
 1658              		.loc 13 184 0
 1659 0006 019B     		ldr	r3, [sp, #4]
 1660 0008 1A68     		ldr	r2, [r3]
 1661 000a 009B     		ldr	r3, [sp]
 1662 000c 1B68     		ldr	r3, [r3]
 1663 000e 9A42     		cmp	r2, r3
 1664 0010 14BF     		ite	ne
 1665 0012 0123     		movne	r3, #1
 1666 0014 0023     		moveq	r3, #0
 1667 0016 DBB2     		uxtb	r3, r3
 1668              		.loc 13 185 0
 1669 0018 1846     		mov	r0, r3
 1670 001a 02B0     		add	sp, sp, #8
 1671              		.cfi_def_cfa_offset 0
 1672              		@ sp needed
 1673 001c 7047     		bx	lr
 1674              		.cfi_endproc
 1675              	.LFE644:
 1676              		.size	_ZNK3r2p10StaticListINS_15LocalSubscriberEE8IteratorneERKS3_, .-_ZNK3r2p10StaticListINS_15Lo
 1677 001e 00BF     		.section	.text._ZN3r2p10StaticListINS_15LocalSubscriberEE8IteratorppEv,"axG",%progbits,_ZN3r2p10St
 1678              		.align	2
 1679              		.p2align 4,,15
 1680              		.weak	_ZN3r2p10StaticListINS_15LocalSubscriberEE8IteratorppEv
 1681              		.thumb
ARM GAS  /tmp/ccxyu2nZ.s 			page 31


 1682              		.thumb_func
 1683              		.type	_ZN3r2p10StaticListINS_15LocalSubscriberEE8IteratorppEv, %function
 1684              	_ZN3r2p10StaticListINS_15LocalSubscriberEE8IteratorppEv:
 1685              	.LFB645:
 1686              		.loc 13 164 0
 1687              		.cfi_startproc
 1688              		@ args = 0, pretend = 0, frame = 8
 1689              		@ frame_needed = 0, uses_anonymous_args = 0
 1690 0000 00B5     		push	{lr}
 1691              		.cfi_def_cfa_offset 4
 1692              		.cfi_offset 14, -4
 1693 0002 83B0     		sub	sp, sp, #12
 1694              		.cfi_def_cfa_offset 16
 1695 0004 0190     		str	r0, [sp, #4]
 1696              		.loc 13 165 0
 1697 0006 FFF7FEFF 		bl	_ZN3r2p7SysLock7acquireEv
 1698              		.loc 13 166 0
 1699 000a 019B     		ldr	r3, [sp, #4]
 1700 000c 1B68     		ldr	r3, [r3]
 1701 000e 1A68     		ldr	r2, [r3]
 1702 0010 019B     		ldr	r3, [sp, #4]
 1703 0012 1A60     		str	r2, [r3]
 1704              		.loc 13 167 0
 1705 0014 FFF7FEFF 		bl	_ZN3r2p7SysLock7releaseEv
 1706              		.loc 13 168 0
 1707 0018 019B     		ldr	r3, [sp, #4]
 1708              		.loc 13 169 0
 1709 001a 1846     		mov	r0, r3
 1710 001c 03B0     		add	sp, sp, #12
 1711              		.cfi_def_cfa_offset 4
 1712              		@ sp needed
 1713 001e 5DF804FB 		ldr	pc, [sp], #4
 1714              		.cfi_endproc
 1715              	.LFE645:
 1716              		.size	_ZN3r2p10StaticListINS_15LocalSubscriberEE8IteratorppEv, .-_ZN3r2p10StaticListINS_15LocalSub
 1717 0022 00BFAFF3 		.section	.text._ZNK3r2p10StaticListINS_15LocalSubscriberEE8IteratorptEv,"axG",%progbits,_ZNK3r2p10
 1717      0080AFF3 
 1717      0080AFF3 
 1717      0080
 1718              		.align	2
 1719              		.p2align 4,,15
 1720              		.weak	_ZNK3r2p10StaticListINS_15LocalSubscriberEE8IteratorptEv
 1721              		.thumb
 1722              		.thumb_func
 1723              		.type	_ZNK3r2p10StaticListINS_15LocalSubscriberEE8IteratorptEv, %function
 1724              	_ZNK3r2p10StaticListINS_15LocalSubscriberEE8IteratorptEv:
 1725              	.LFB646:
 1726              		.loc 13 156 0
 1727              		.cfi_startproc
 1728              		@ args = 0, pretend = 0, frame = 8
 1729              		@ frame_needed = 0, uses_anonymous_args = 0
 1730              		@ link register save eliminated.
 1731 0000 82B0     		sub	sp, sp, #8
 1732              		.cfi_def_cfa_offset 8
 1733 0002 0190     		str	r0, [sp, #4]
 1734              		.loc 13 157 0
 1735 0004 019B     		ldr	r3, [sp, #4]
ARM GAS  /tmp/ccxyu2nZ.s 			page 32


 1736 0006 1B68     		ldr	r3, [r3]
 1737 0008 5B68     		ldr	r3, [r3, #4]
 1738              		.loc 13 158 0
 1739 000a 1846     		mov	r0, r3
 1740 000c 02B0     		add	sp, sp, #8
 1741              		.cfi_def_cfa_offset 0
 1742              		@ sp needed
 1743 000e 7047     		bx	lr
 1744              		.cfi_endproc
 1745              	.LFE646:
 1746              		.size	_ZNK3r2p10StaticListINS_15LocalSubscriberEE8IteratorptEv, .-_ZNK3r2p10StaticListINS_15LocalS
 1747              		.section	.text._ZN3r2p10StaticListINS_14LocalPublisherEEC2Ev,"axG",%progbits,_ZN3r2p10StaticListIN
 1748              		.align	2
 1749              		.p2align 4,,15
 1750              		.weak	_ZN3r2p10StaticListINS_14LocalPublisherEEC2Ev
 1751              		.thumb
 1752              		.thumb_func
 1753              		.type	_ZN3r2p10StaticListINS_14LocalPublisherEEC2Ev, %function
 1754              	_ZN3r2p10StaticListINS_14LocalPublisherEEC2Ev:
 1755              	.LFB648:
 1756              		.loc 13 506 0
 1757              		.cfi_startproc
 1758              		@ args = 0, pretend = 0, frame = 8
 1759              		@ frame_needed = 0, uses_anonymous_args = 0
 1760 0000 00B5     		push	{lr}
 1761              		.cfi_def_cfa_offset 4
 1762              		.cfi_offset 14, -4
 1763 0002 83B0     		sub	sp, sp, #12
 1764              		.cfi_def_cfa_offset 16
 1765 0004 0190     		str	r0, [sp, #4]
 1766              	.LBB28:
 1767              		.loc 13 506 0
 1768 0006 0198     		ldr	r0, [sp, #4]
 1769 0008 FFF7FEFF 		bl	_ZN3r2p10UncopyableC2Ev
 1770 000c 019B     		ldr	r3, [sp, #4]
 1771 000e 0022     		movs	r2, #0
 1772 0010 1A60     		str	r2, [r3]
 1773              	.LBE28:
 1774 0012 019B     		ldr	r3, [sp, #4]
 1775 0014 1846     		mov	r0, r3
 1776 0016 03B0     		add	sp, sp, #12
 1777              		.cfi_def_cfa_offset 4
 1778              		@ sp needed
 1779 0018 5DF804FB 		ldr	pc, [sp], #4
 1780              		.cfi_endproc
 1781              	.LFE648:
 1782              		.size	_ZN3r2p10StaticListINS_14LocalPublisherEEC2Ev, .-_ZN3r2p10StaticListINS_14LocalPublisherEEC2
 1783              		.weak	_ZN3r2p10StaticListINS_14LocalPublisherEEC1Ev
 1784              		.thumb_set _ZN3r2p10StaticListINS_14LocalPublisherEEC1Ev,_ZN3r2p10StaticListINS_14LocalPublisherEE
 1785 001c AFF30080 		.section	.text._ZN3r2p10StaticListINS_15LocalSubscriberEEC2Ev,"axG",%progbits,_ZN3r2p10StaticListI
 1786              		.align	2
 1787              		.p2align 4,,15
 1788              		.weak	_ZN3r2p10StaticListINS_15LocalSubscriberEEC2Ev
 1789              		.thumb
 1790              		.thumb_func
 1791              		.type	_ZN3r2p10StaticListINS_15LocalSubscriberEEC2Ev, %function
 1792              	_ZN3r2p10StaticListINS_15LocalSubscriberEEC2Ev:
ARM GAS  /tmp/ccxyu2nZ.s 			page 33


 1793              	.LFB651:
 1794              		.loc 13 506 0
 1795              		.cfi_startproc
 1796              		@ args = 0, pretend = 0, frame = 8
 1797              		@ frame_needed = 0, uses_anonymous_args = 0
 1798 0000 00B5     		push	{lr}
 1799              		.cfi_def_cfa_offset 4
 1800              		.cfi_offset 14, -4
 1801 0002 83B0     		sub	sp, sp, #12
 1802              		.cfi_def_cfa_offset 16
 1803 0004 0190     		str	r0, [sp, #4]
 1804              	.LBB29:
 1805              		.loc 13 506 0
 1806 0006 0198     		ldr	r0, [sp, #4]
 1807 0008 FFF7FEFF 		bl	_ZN3r2p10UncopyableC2Ev
 1808 000c 019B     		ldr	r3, [sp, #4]
 1809 000e 0022     		movs	r2, #0
 1810 0010 1A60     		str	r2, [r3]
 1811              	.LBE29:
 1812 0012 019B     		ldr	r3, [sp, #4]
 1813 0014 1846     		mov	r0, r3
 1814 0016 03B0     		add	sp, sp, #12
 1815              		.cfi_def_cfa_offset 4
 1816              		@ sp needed
 1817 0018 5DF804FB 		ldr	pc, [sp], #4
 1818              		.cfi_endproc
 1819              	.LFE651:
 1820              		.size	_ZN3r2p10StaticListINS_15LocalSubscriberEEC2Ev, .-_ZN3r2p10StaticListINS_15LocalSubscriberEE
 1821              		.weak	_ZN3r2p10StaticListINS_15LocalSubscriberEEC1Ev
 1822              		.thumb_set _ZN3r2p10StaticListINS_15LocalSubscriberEEC1Ev,_ZN3r2p10StaticListINS_15LocalSubscriber
 1823 001c AFF30080 		.section	.text._ZN3r2p10StaticListINS_4NodeEE4LinkC2ERS1_,"axG",%progbits,_ZN3r2p10StaticListINS_4
 1824              		.align	2
 1825              		.p2align 4,,15
 1826              		.weak	_ZN3r2p10StaticListINS_4NodeEE4LinkC2ERS1_
 1827              		.thumb
 1828              		.thumb_func
 1829              		.type	_ZN3r2p10StaticListINS_4NodeEE4LinkC2ERS1_, %function
 1830              	_ZN3r2p10StaticListINS_4NodeEE4LinkC2ERS1_:
 1831              	.LFB654:
 1832              		.loc 13 21 0
 1833              		.cfi_startproc
 1834              		@ args = 0, pretend = 0, frame = 8
 1835              		@ frame_needed = 0, uses_anonymous_args = 0
 1836              		@ link register save eliminated.
 1837 0000 82B0     		sub	sp, sp, #8
 1838              		.cfi_def_cfa_offset 8
 1839 0002 0190     		str	r0, [sp, #4]
 1840 0004 0091     		str	r1, [sp]
 1841              	.LBB30:
 1842              		.loc 13 21 0
 1843 0006 019B     		ldr	r3, [sp, #4]
 1844 0008 0022     		movs	r2, #0
 1845 000a 1A60     		str	r2, [r3]
 1846 000c 019B     		ldr	r3, [sp, #4]
 1847 000e 009A     		ldr	r2, [sp]
 1848 0010 5A60     		str	r2, [r3, #4]
 1849              	.LBE30:
ARM GAS  /tmp/ccxyu2nZ.s 			page 34


 1850 0012 019B     		ldr	r3, [sp, #4]
 1851 0014 1846     		mov	r0, r3
 1852 0016 02B0     		add	sp, sp, #8
 1853              		.cfi_def_cfa_offset 0
 1854              		@ sp needed
 1855 0018 7047     		bx	lr
 1856              		.cfi_endproc
 1857              	.LFE654:
 1858              		.size	_ZN3r2p10StaticListINS_4NodeEE4LinkC2ERS1_, .-_ZN3r2p10StaticListINS_4NodeEE4LinkC2ERS1_
 1859              		.weak	_ZN3r2p10StaticListINS_4NodeEE4LinkC1ERS1_
 1860              		.thumb_set _ZN3r2p10StaticListINS_4NodeEE4LinkC1ERS1_,_ZN3r2p10StaticListINS_4NodeEE4LinkC2ERS1_
 1861 001a 00BFAFF3 		.section	.text._ZN3r2p10StaticListINS_14LocalPublisherEE16link_tail_unsafeERNS2_4LinkE,"axG",%prog
 1861      0080
 1862              		.align	2
 1863              		.p2align 4,,15
 1864              		.weak	_ZN3r2p10StaticListINS_14LocalPublisherEE16link_tail_unsafeERNS2_4LinkE
 1865              		.thumb
 1866              		.thumb_func
 1867              		.type	_ZN3r2p10StaticListINS_14LocalPublisherEE16link_tail_unsafeERNS2_4LinkE, %function
 1868              	_ZN3r2p10StaticListINS_14LocalPublisherEE16link_tail_unsafeERNS2_4LinkE:
 1869              	.LFB656:
 1870              		.loc 13 415 0
 1871              		.cfi_startproc
 1872              		@ args = 0, pretend = 0, frame = 16
 1873              		@ frame_needed = 0, uses_anonymous_args = 0
 1874 0000 00B5     		push	{lr}
 1875              		.cfi_def_cfa_offset 4
 1876              		.cfi_offset 14, -4
 1877 0002 85B0     		sub	sp, sp, #20
 1878              		.cfi_def_cfa_offset 24
 1879 0004 0190     		str	r0, [sp, #4]
 1880 0006 0091     		str	r1, [sp]
 1881              	.LBB31:
 1882              		.loc 13 416 0
 1883 0008 019B     		ldr	r3, [sp, #4]
 1884 000a 1B68     		ldr	r3, [r3]
 1885 000c 0393     		str	r3, [sp, #12]
 1886              		.loc 13 418 0
 1887 000e 009B     		ldr	r3, [sp]
 1888 0010 1B68     		ldr	r3, [r3]
 1889 0012 002B     		cmp	r3, #0
 1890 0014 02D0     		beq	.L129
 1891              		.loc 13 418 0 is_stmt 0 discriminator 1
 1892 0016 1248     		ldr	r0, .L135
 1893 0018 FFF7FEFF 		bl	chDbgPanic
 1894              	.L129:
 1895              		.loc 13 419 0 is_stmt 1
 1896 001c 0198     		ldr	r0, [sp, #4]
 1897 001e 0099     		ldr	r1, [sp]
 1898 0020 FFF7FEFF 		bl	_ZN3r2p10StaticListINS_14LocalPublisherEE13unlink_unsafeERNS2_4LinkE
 1899 0024 0346     		mov	r3, r0
 1900 0026 002B     		cmp	r3, #0
 1901 0028 02D0     		beq	.L130
 1902              		.loc 13 419 0 is_stmt 0 discriminator 1
 1903 002a 0D48     		ldr	r0, .L135
 1904 002c FFF7FEFF 		bl	chDbgPanic
 1905              	.L130:
ARM GAS  /tmp/ccxyu2nZ.s 			page 35


 1906              		.loc 13 421 0 is_stmt 1
 1907 0030 0198     		ldr	r0, [sp, #4]
 1908 0032 FFF7FEFF 		bl	_ZNK3r2p10StaticListINS_14LocalPublisherEE15is_empty_unsafeEv
 1909 0036 0346     		mov	r3, r0
 1910 0038 002B     		cmp	r3, #0
 1911 003a 03D0     		beq	.L131
 1912              		.loc 13 422 0
 1913 003c 019B     		ldr	r3, [sp, #4]
 1914 003e 009A     		ldr	r2, [sp]
 1915 0040 1A60     		str	r2, [r3]
 1916 0042 0AE0     		b	.L128
 1917              	.L131:
 1918              		.loc 13 424 0
 1919 0044 02E0     		b	.L133
 1920              	.L134:
 1921              		.loc 13 424 0 is_stmt 0 discriminator 2
 1922 0046 039B     		ldr	r3, [sp, #12]
 1923 0048 1B68     		ldr	r3, [r3]
 1924 004a 0393     		str	r3, [sp, #12]
 1925              	.L133:
 1926              		.loc 13 424 0 discriminator 1
 1927 004c 039B     		ldr	r3, [sp, #12]
 1928 004e 1B68     		ldr	r3, [r3]
 1929 0050 002B     		cmp	r3, #0
 1930 0052 F8D1     		bne	.L134
 1931              		.loc 13 425 0 is_stmt 1
 1932 0054 039B     		ldr	r3, [sp, #12]
 1933 0056 009A     		ldr	r2, [sp]
 1934 0058 1A60     		str	r2, [r3]
 1935              	.L128:
 1936              	.LBE31:
 1937              		.loc 13 427 0
 1938 005a 05B0     		add	sp, sp, #20
 1939              		.cfi_def_cfa_offset 4
 1940              		@ sp needed
 1941 005c 5DF804FB 		ldr	pc, [sp], #4
 1942              	.L136:
 1943              		.align	2
 1944              	.L135:
 1945 0060 00000000 		.word	.LC0
 1946              		.cfi_endproc
 1947              	.LFE656:
 1948              		.size	_ZN3r2p10StaticListINS_14LocalPublisherEE16link_tail_unsafeERNS2_4LinkE, .-_ZN3r2p10StaticLi
 1949 0064 AFF30080 		.section	.text._ZN3r2p10StaticListINS_15LocalSubscriberEE16link_tail_unsafeERNS2_4LinkE,"axG",%pro
 1949      AFF30080 
 1949      AFF30080 
 1950              		.align	2
 1951              		.p2align 4,,15
 1952              		.weak	_ZN3r2p10StaticListINS_15LocalSubscriberEE16link_tail_unsafeERNS2_4LinkE
 1953              		.thumb
 1954              		.thumb_func
 1955              		.type	_ZN3r2p10StaticListINS_15LocalSubscriberEE16link_tail_unsafeERNS2_4LinkE, %function
 1956              	_ZN3r2p10StaticListINS_15LocalSubscriberEE16link_tail_unsafeERNS2_4LinkE:
 1957              	.LFB657:
 1958              		.loc 13 415 0
 1959              		.cfi_startproc
 1960              		@ args = 0, pretend = 0, frame = 16
ARM GAS  /tmp/ccxyu2nZ.s 			page 36


 1961              		@ frame_needed = 0, uses_anonymous_args = 0
 1962 0000 00B5     		push	{lr}
 1963              		.cfi_def_cfa_offset 4
 1964              		.cfi_offset 14, -4
 1965 0002 85B0     		sub	sp, sp, #20
 1966              		.cfi_def_cfa_offset 24
 1967 0004 0190     		str	r0, [sp, #4]
 1968 0006 0091     		str	r1, [sp]
 1969              	.LBB32:
 1970              		.loc 13 416 0
 1971 0008 019B     		ldr	r3, [sp, #4]
 1972 000a 1B68     		ldr	r3, [r3]
 1973 000c 0393     		str	r3, [sp, #12]
 1974              		.loc 13 418 0
 1975 000e 009B     		ldr	r3, [sp]
 1976 0010 1B68     		ldr	r3, [r3]
 1977 0012 002B     		cmp	r3, #0
 1978 0014 02D0     		beq	.L138
 1979              		.loc 13 418 0 is_stmt 0 discriminator 1
 1980 0016 1248     		ldr	r0, .L144
 1981 0018 FFF7FEFF 		bl	chDbgPanic
 1982              	.L138:
 1983              		.loc 13 419 0 is_stmt 1
 1984 001c 0198     		ldr	r0, [sp, #4]
 1985 001e 0099     		ldr	r1, [sp]
 1986 0020 FFF7FEFF 		bl	_ZN3r2p10StaticListINS_15LocalSubscriberEE13unlink_unsafeERNS2_4LinkE
 1987 0024 0346     		mov	r3, r0
 1988 0026 002B     		cmp	r3, #0
 1989 0028 02D0     		beq	.L139
 1990              		.loc 13 419 0 is_stmt 0 discriminator 1
 1991 002a 0D48     		ldr	r0, .L144
 1992 002c FFF7FEFF 		bl	chDbgPanic
 1993              	.L139:
 1994              		.loc 13 421 0 is_stmt 1
 1995 0030 0198     		ldr	r0, [sp, #4]
 1996 0032 FFF7FEFF 		bl	_ZNK3r2p10StaticListINS_15LocalSubscriberEE15is_empty_unsafeEv
 1997 0036 0346     		mov	r3, r0
 1998 0038 002B     		cmp	r3, #0
 1999 003a 03D0     		beq	.L140
 2000              		.loc 13 422 0
 2001 003c 019B     		ldr	r3, [sp, #4]
 2002 003e 009A     		ldr	r2, [sp]
 2003 0040 1A60     		str	r2, [r3]
 2004 0042 0AE0     		b	.L137
 2005              	.L140:
 2006              		.loc 13 424 0
 2007 0044 02E0     		b	.L142
 2008              	.L143:
 2009              		.loc 13 424 0 is_stmt 0 discriminator 2
 2010 0046 039B     		ldr	r3, [sp, #12]
 2011 0048 1B68     		ldr	r3, [r3]
 2012 004a 0393     		str	r3, [sp, #12]
 2013              	.L142:
 2014              		.loc 13 424 0 discriminator 1
 2015 004c 039B     		ldr	r3, [sp, #12]
 2016 004e 1B68     		ldr	r3, [r3]
 2017 0050 002B     		cmp	r3, #0
ARM GAS  /tmp/ccxyu2nZ.s 			page 37


 2018 0052 F8D1     		bne	.L143
 2019              		.loc 13 425 0 is_stmt 1
 2020 0054 039B     		ldr	r3, [sp, #12]
 2021 0056 009A     		ldr	r2, [sp]
 2022 0058 1A60     		str	r2, [r3]
 2023              	.L137:
 2024              	.LBE32:
 2025              		.loc 13 427 0
 2026 005a 05B0     		add	sp, sp, #20
 2027              		.cfi_def_cfa_offset 4
 2028              		@ sp needed
 2029 005c 5DF804FB 		ldr	pc, [sp], #4
 2030              	.L145:
 2031              		.align	2
 2032              	.L144:
 2033 0060 00000000 		.word	.LC0
 2034              		.cfi_endproc
 2035              	.LFE657:
 2036              		.size	_ZN3r2p10StaticListINS_15LocalSubscriberEE16link_tail_unsafeERNS2_4LinkE, .-_ZN3r2p10StaticL
 2037 0064 AFF30080 		.section	.text._ZN3r2p10StaticListINS_15LocalSubscriberEE13unlink_unsafeERNS2_4LinkE,"axG",%progbi
 2037      AFF30080 
 2037      AFF30080 
 2038              		.align	2
 2039              		.p2align 4,,15
 2040              		.weak	_ZN3r2p10StaticListINS_15LocalSubscriberEE13unlink_unsafeERNS2_4LinkE
 2041              		.thumb
 2042              		.thumb_func
 2043              		.type	_ZN3r2p10StaticListINS_15LocalSubscriberEE13unlink_unsafeERNS2_4LinkE, %function
 2044              	_ZN3r2p10StaticListINS_15LocalSubscriberEE13unlink_unsafeERNS2_4LinkE:
 2045              	.LFB658:
 2046              		.loc 13 526 0
 2047              		.cfi_startproc
 2048              		@ args = 0, pretend = 0, frame = 16
 2049              		@ frame_needed = 0, uses_anonymous_args = 0
 2050              		@ link register save eliminated.
 2051 0000 84B0     		sub	sp, sp, #16
 2052              		.cfi_def_cfa_offset 16
 2053 0002 0190     		str	r0, [sp, #4]
 2054 0004 0091     		str	r1, [sp]
 2055              	.LBB33:
 2056              	.LBB34:
 2057              		.loc 13 528 0
 2058 0006 019B     		ldr	r3, [sp, #4]
 2059 0008 1B68     		ldr	r3, [r3]
 2060 000a 0393     		str	r3, [sp, #12]
 2061 000c 0023     		movs	r3, #0
 2062 000e 0293     		str	r3, [sp, #8]
 2063 0010 19E0     		b	.L147
 2064              	.L152:
 2065              		.loc 13 531 0
 2066 0012 039A     		ldr	r2, [sp, #12]
 2067 0014 009B     		ldr	r3, [sp]
 2068 0016 9A42     		cmp	r2, r3
 2069 0018 10D1     		bne	.L148
 2070              		.loc 13 532 0
 2071 001a 029B     		ldr	r3, [sp, #8]
 2072 001c 002B     		cmp	r3, #0
ARM GAS  /tmp/ccxyu2nZ.s 			page 38


 2073 001e 04D0     		beq	.L149
 2074              		.loc 13 532 0 is_stmt 0 discriminator 1
 2075 0020 039B     		ldr	r3, [sp, #12]
 2076 0022 1A68     		ldr	r2, [r3]
 2077 0024 029B     		ldr	r3, [sp, #8]
 2078 0026 1A60     		str	r2, [r3]
 2079 0028 03E0     		b	.L150
 2080              	.L149:
 2081              		.loc 13 533 0 is_stmt 1
 2082 002a 039B     		ldr	r3, [sp, #12]
 2083 002c 1A68     		ldr	r2, [r3]
 2084 002e 019B     		ldr	r3, [sp, #4]
 2085 0030 1A60     		str	r2, [r3]
 2086              	.L150:
 2087              		.loc 13 534 0
 2088 0032 039B     		ldr	r3, [sp, #12]
 2089 0034 0022     		movs	r2, #0
 2090 0036 1A60     		str	r2, [r3]
 2091              		.loc 13 535 0
 2092 0038 0123     		movs	r3, #1
 2093 003a 08E0     		b	.L151
 2094              	.L148:
 2095              		.loc 13 528 0 discriminator 2
 2096 003c 039B     		ldr	r3, [sp, #12]
 2097 003e 0293     		str	r3, [sp, #8]
 2098 0040 039B     		ldr	r3, [sp, #12]
 2099 0042 1B68     		ldr	r3, [r3]
 2100 0044 0393     		str	r3, [sp, #12]
 2101              	.L147:
 2102              		.loc 13 528 0 is_stmt 0 discriminator 1
 2103 0046 039B     		ldr	r3, [sp, #12]
 2104 0048 002B     		cmp	r3, #0
 2105 004a E2D1     		bne	.L152
 2106              	.LBE34:
 2107              		.loc 13 538 0 is_stmt 1
 2108 004c 0023     		movs	r3, #0
 2109              	.L151:
 2110              	.LBE33:
 2111              		.loc 13 539 0
 2112 004e 1846     		mov	r0, r3
 2113 0050 04B0     		add	sp, sp, #16
 2114              		.cfi_def_cfa_offset 0
 2115              		@ sp needed
 2116 0052 7047     		bx	lr
 2117              		.cfi_endproc
 2118              	.LFE658:
 2119              		.size	_ZN3r2p10StaticListINS_15LocalSubscriberEE13unlink_unsafeERNS2_4LinkE, .-_ZN3r2p10StaticList
 2120              		.section	.text._ZNK3r2p10StaticListINS_15LocalSubscriberEE8get_headEv,"axG",%progbits,_ZNK3r2p10St
 2121              		.align	2
 2122              		.p2align 4,,15
 2123              		.weak	_ZNK3r2p10StaticListINS_15LocalSubscriberEE8get_headEv
 2124              		.thumb
 2125              		.thumb_func
 2126              		.type	_ZNK3r2p10StaticListINS_15LocalSubscriberEE8get_headEv, %function
 2127              	_ZNK3r2p10StaticListINS_15LocalSubscriberEE8get_headEv:
 2128              	.LFB659:
 2129              		.loc 13 595 0
ARM GAS  /tmp/ccxyu2nZ.s 			page 39


 2130              		.cfi_startproc
 2131              		@ args = 0, pretend = 0, frame = 16
 2132              		@ frame_needed = 0, uses_anonymous_args = 0
 2133 0000 00B5     		push	{lr}
 2134              		.cfi_def_cfa_offset 4
 2135              		.cfi_offset 14, -4
 2136 0002 85B0     		sub	sp, sp, #20
 2137              		.cfi_def_cfa_offset 24
 2138 0004 0190     		str	r0, [sp, #4]
 2139              	.LBB35:
 2140              		.loc 13 597 0
 2141 0006 FFF7FEFF 		bl	_ZN3r2p7SysLock7acquireEv
 2142              		.loc 13 598 0
 2143 000a 0198     		ldr	r0, [sp, #4]
 2144 000c FFF7FEFF 		bl	_ZNK3r2p10StaticListINS_15LocalSubscriberEE15get_head_unsafeEv
 2145 0010 0390     		str	r0, [sp, #12]
 2146              		.loc 13 599 0
 2147 0012 FFF7FEFF 		bl	_ZN3r2p7SysLock7releaseEv
 2148              		.loc 13 600 0
 2149 0016 039B     		ldr	r3, [sp, #12]
 2150              	.LBE35:
 2151              		.loc 13 601 0
 2152 0018 1846     		mov	r0, r3
 2153 001a 05B0     		add	sp, sp, #20
 2154              		.cfi_def_cfa_offset 4
 2155              		@ sp needed
 2156 001c 5DF804FB 		ldr	pc, [sp], #4
 2157              		.cfi_endproc
 2158              	.LFE659:
 2159              		.size	_ZNK3r2p10StaticListINS_15LocalSubscriberEE8get_headEv, .-_ZNK3r2p10StaticListINS_15LocalSub
 2160              		.section	.text._ZN3r2p10StaticListINS_15LocalSubscriberEE8IteratorC2EPKNS2_4LinkE,"axG",%progbits,
 2161              		.align	2
 2162              		.p2align 4,,15
 2163              		.weak	_ZN3r2p10StaticListINS_15LocalSubscriberEE8IteratorC2EPKNS2_4LinkE
 2164              		.thumb
 2165              		.thumb_func
 2166              		.type	_ZN3r2p10StaticListINS_15LocalSubscriberEE8IteratorC2EPKNS2_4LinkE, %function
 2167              	_ZN3r2p10StaticListINS_15LocalSubscriberEE8IteratorC2EPKNS2_4LinkE:
 2168              	.LFB661:
 2169              		.loc 13 147 0
 2170              		.cfi_startproc
 2171              		@ args = 0, pretend = 0, frame = 8
 2172              		@ frame_needed = 0, uses_anonymous_args = 0
 2173              		@ link register save eliminated.
 2174 0000 82B0     		sub	sp, sp, #8
 2175              		.cfi_def_cfa_offset 8
 2176 0002 0190     		str	r0, [sp, #4]
 2177 0004 0091     		str	r1, [sp]
 2178              	.LBB36:
 2179              		.loc 13 147 0
 2180 0006 019B     		ldr	r3, [sp, #4]
 2181 0008 009A     		ldr	r2, [sp]
 2182 000a 1A60     		str	r2, [r3]
 2183              	.LBE36:
 2184 000c 019B     		ldr	r3, [sp, #4]
 2185 000e 1846     		mov	r0, r3
 2186 0010 02B0     		add	sp, sp, #8
ARM GAS  /tmp/ccxyu2nZ.s 			page 40


 2187              		.cfi_def_cfa_offset 0
 2188              		@ sp needed
 2189 0012 7047     		bx	lr
 2190              		.cfi_endproc
 2191              	.LFE661:
 2192              		.size	_ZN3r2p10StaticListINS_15LocalSubscriberEE8IteratorC2EPKNS2_4LinkE, .-_ZN3r2p10StaticListINS
 2193              		.weak	_ZN3r2p10StaticListINS_15LocalSubscriberEE8IteratorC1EPKNS2_4LinkE
 2194              		.thumb_set _ZN3r2p10StaticListINS_15LocalSubscriberEE8IteratorC1EPKNS2_4LinkE,_ZN3r2p10StaticListI
 2195 0014 AFF30080 		.section	.text._ZN3r2p10StaticListINS_14LocalPublisherEE13unlink_unsafeERNS2_4LinkE,"axG",%progbit
 2195      AFF30080 
 2195      AFF30080 
 2196              		.align	2
 2197              		.p2align 4,,15
 2198              		.weak	_ZN3r2p10StaticListINS_14LocalPublisherEE13unlink_unsafeERNS2_4LinkE
 2199              		.thumb
 2200              		.thumb_func
 2201              		.type	_ZN3r2p10StaticListINS_14LocalPublisherEE13unlink_unsafeERNS2_4LinkE, %function
 2202              	_ZN3r2p10StaticListINS_14LocalPublisherEE13unlink_unsafeERNS2_4LinkE:
 2203              	.LFB663:
 2204              		.loc 13 526 0
 2205              		.cfi_startproc
 2206              		@ args = 0, pretend = 0, frame = 16
 2207              		@ frame_needed = 0, uses_anonymous_args = 0
 2208              		@ link register save eliminated.
 2209 0000 84B0     		sub	sp, sp, #16
 2210              		.cfi_def_cfa_offset 16
 2211 0002 0190     		str	r0, [sp, #4]
 2212 0004 0091     		str	r1, [sp]
 2213              	.LBB37:
 2214              	.LBB38:
 2215              		.loc 13 528 0
 2216 0006 019B     		ldr	r3, [sp, #4]
 2217 0008 1B68     		ldr	r3, [r3]
 2218 000a 0393     		str	r3, [sp, #12]
 2219 000c 0023     		movs	r3, #0
 2220 000e 0293     		str	r3, [sp, #8]
 2221 0010 19E0     		b	.L159
 2222              	.L164:
 2223              		.loc 13 531 0
 2224 0012 039A     		ldr	r2, [sp, #12]
 2225 0014 009B     		ldr	r3, [sp]
 2226 0016 9A42     		cmp	r2, r3
 2227 0018 10D1     		bne	.L160
 2228              		.loc 13 532 0
 2229 001a 029B     		ldr	r3, [sp, #8]
 2230 001c 002B     		cmp	r3, #0
 2231 001e 04D0     		beq	.L161
 2232              		.loc 13 532 0 is_stmt 0 discriminator 1
 2233 0020 039B     		ldr	r3, [sp, #12]
 2234 0022 1A68     		ldr	r2, [r3]
 2235 0024 029B     		ldr	r3, [sp, #8]
 2236 0026 1A60     		str	r2, [r3]
 2237 0028 03E0     		b	.L162
 2238              	.L161:
 2239              		.loc 13 533 0 is_stmt 1
 2240 002a 039B     		ldr	r3, [sp, #12]
 2241 002c 1A68     		ldr	r2, [r3]
ARM GAS  /tmp/ccxyu2nZ.s 			page 41


 2242 002e 019B     		ldr	r3, [sp, #4]
 2243 0030 1A60     		str	r2, [r3]
 2244              	.L162:
 2245              		.loc 13 534 0
 2246 0032 039B     		ldr	r3, [sp, #12]
 2247 0034 0022     		movs	r2, #0
 2248 0036 1A60     		str	r2, [r3]
 2249              		.loc 13 535 0
 2250 0038 0123     		movs	r3, #1
 2251 003a 08E0     		b	.L163
 2252              	.L160:
 2253              		.loc 13 528 0 discriminator 2
 2254 003c 039B     		ldr	r3, [sp, #12]
 2255 003e 0293     		str	r3, [sp, #8]
 2256 0040 039B     		ldr	r3, [sp, #12]
 2257 0042 1B68     		ldr	r3, [r3]
 2258 0044 0393     		str	r3, [sp, #12]
 2259              	.L159:
 2260              		.loc 13 528 0 is_stmt 0 discriminator 1
 2261 0046 039B     		ldr	r3, [sp, #12]
 2262 0048 002B     		cmp	r3, #0
 2263 004a E2D1     		bne	.L164
 2264              	.LBE38:
 2265              		.loc 13 538 0 is_stmt 1
 2266 004c 0023     		movs	r3, #0
 2267              	.L163:
 2268              	.LBE37:
 2269              		.loc 13 539 0
 2270 004e 1846     		mov	r0, r3
 2271 0050 04B0     		add	sp, sp, #16
 2272              		.cfi_def_cfa_offset 0
 2273              		@ sp needed
 2274 0052 7047     		bx	lr
 2275              		.cfi_endproc
 2276              	.LFE663:
 2277              		.size	_ZN3r2p10StaticListINS_14LocalPublisherEE13unlink_unsafeERNS2_4LinkE, .-_ZN3r2p10StaticListI
 2278              		.section	.text._ZNK3r2p10StaticListINS_14LocalPublisherEE15is_empty_unsafeEv,"axG",%progbits,_ZNK3
 2279              		.align	2
 2280              		.p2align 4,,15
 2281              		.weak	_ZNK3r2p10StaticListINS_14LocalPublisherEE15is_empty_unsafeEv
 2282              		.thumb
 2283              		.thumb_func
 2284              		.type	_ZNK3r2p10StaticListINS_14LocalPublisherEE15is_empty_unsafeEv, %function
 2285              	_ZNK3r2p10StaticListINS_14LocalPublisherEE15is_empty_unsafeEv:
 2286              	.LFB664:
 2287              		.loc 13 401 0
 2288              		.cfi_startproc
 2289              		@ args = 0, pretend = 0, frame = 8
 2290              		@ frame_needed = 0, uses_anonymous_args = 0
 2291              		@ link register save eliminated.
 2292 0000 82B0     		sub	sp, sp, #8
 2293              		.cfi_def_cfa_offset 8
 2294 0002 0190     		str	r0, [sp, #4]
 2295              		.loc 13 402 0
 2296 0004 019B     		ldr	r3, [sp, #4]
 2297 0006 1B68     		ldr	r3, [r3]
 2298 0008 002B     		cmp	r3, #0
ARM GAS  /tmp/ccxyu2nZ.s 			page 42


 2299 000a 0CBF     		ite	eq
 2300 000c 0123     		moveq	r3, #1
 2301 000e 0023     		movne	r3, #0
 2302 0010 DBB2     		uxtb	r3, r3
 2303              		.loc 13 403 0
 2304 0012 1846     		mov	r0, r3
 2305 0014 02B0     		add	sp, sp, #8
 2306              		.cfi_def_cfa_offset 0
 2307              		@ sp needed
 2308 0016 7047     		bx	lr
 2309              		.cfi_endproc
 2310              	.LFE664:
 2311              		.size	_ZNK3r2p10StaticListINS_14LocalPublisherEE15is_empty_unsafeEv, .-_ZNK3r2p10StaticListINS_14L
 2312 0018 AFF30080 		.section	.text._ZNK3r2p10StaticListINS_15LocalSubscriberEE15get_head_unsafeEv,"axG",%progbits,_ZNK
 2312      AFF30080 
 2313              		.align	2
 2314              		.p2align 4,,15
 2315              		.weak	_ZNK3r2p10StaticListINS_15LocalSubscriberEE15get_head_unsafeEv
 2316              		.thumb
 2317              		.thumb_func
 2318              		.type	_ZNK3r2p10StaticListINS_15LocalSubscriberEE15get_head_unsafeEv, %function
 2319              	_ZNK3r2p10StaticListINS_15LocalSubscriberEE15get_head_unsafeEv:
 2320              	.LFB665:
 2321              		.loc 13 397 0
 2322              		.cfi_startproc
 2323              		@ args = 0, pretend = 0, frame = 8
 2324              		@ frame_needed = 0, uses_anonymous_args = 0
 2325              		@ link register save eliminated.
 2326 0000 82B0     		sub	sp, sp, #8
 2327              		.cfi_def_cfa_offset 8
 2328 0002 0190     		str	r0, [sp, #4]
 2329              		.loc 13 398 0
 2330 0004 019B     		ldr	r3, [sp, #4]
 2331 0006 1B68     		ldr	r3, [r3]
 2332              		.loc 13 399 0
 2333 0008 1846     		mov	r0, r3
 2334 000a 02B0     		add	sp, sp, #8
 2335              		.cfi_def_cfa_offset 0
 2336              		@ sp needed
 2337 000c 7047     		bx	lr
 2338              		.cfi_endproc
 2339              	.LFE665:
 2340              		.size	_ZNK3r2p10StaticListINS_15LocalSubscriberEE15get_head_unsafeEv, .-_ZNK3r2p10StaticListINS_15
 2341 000e 00BF     		.text
 2342              	.Letext0:
 2343              		.file 14 "/home/denny/r2p-sdk/tools/gcc-arm-none-eabi-4_9-2014q4/lib/gcc/arm-none-eabi/4.9.3/inclu
 2344              		.file 15 "/home/denny/r2p-sdk/tools/gcc-arm-none-eabi-4_9-2014q4/arm-none-eabi/include/machine/_de
 2345              		.file 16 "/home/denny/r2p-sdk/tools/gcc-arm-none-eabi-4_9-2014q4/arm-none-eabi/include/c++/4.9.3/c
 2346              		.file 17 "/home/denny/r2p-sdk/tools/gcc-arm-none-eabi-4_9-2014q4/arm-none-eabi/include/string.h"
 2347              		.file 18 "<built-in>"
 2348              		.file 19 "/home/denny/r2p-sdk/core/Middleware/port/chibios/include/r2p/impl/MemoryPool_.hpp"
 2349              		.file 20 "/home/denny/r2p-sdk/core/Middleware/include/r2p/Message.hpp"
 2350              		.file 21 "/home/denny/r2p-sdk/core/Middleware/include/r2p/Node.hpp"
 2351              		.file 22 "/home/denny/r2p-sdk/core/Middleware/include/r2p/Topic.hpp"
 2352              		.file 23 "/home/denny/r2p-sdk/tools/gcc-arm-none-eabi-4_9-2014q4/arm-none-eabi/include/stdint.h"
 2353              		.file 24 "/home/denny/r2p-sdk/core/ChibiOS/os/ports/GCC/ARMCMx/chtypes.h"
 2354              		.file 25 "/home/denny/r2p-sdk/core/ChibiOS/os/kernel/include/chlists.h"
ARM GAS  /tmp/ccxyu2nZ.s 			page 43


 2355              		.file 26 "/home/denny/r2p-sdk/core/ChibiOS/os/kernel/include/chthreads.h"
 2356              		.file 27 "/home/denny/r2p-sdk/core/ChibiOS/os/ports/GCC/ARMCMx/chcore_v7m.h"
 2357              		.file 28 "/home/denny/r2p-sdk/core/ChibiOS/os/kernel/include/chschd.h"
 2358              		.file 29 "/home/denny/r2p-sdk/core/ChibiOS/os/kernel/include/chmtx.h"
 2359              		.file 30 "/home/denny/r2p-sdk/core/ChibiOS/os/kernel/include/chmemcore.h"
 2360              		.file 31 "/home/denny/r2p-sdk/core/ChibiOS/os/kernel/include/chmempools.h"
 2361              		.file 32 "/home/denny/r2p-sdk/core/ChibiOS/os/ports/common/ARMCMx/CMSIS/include/core_cm4.h"