ARM GAS  /tmp/ccWQ6gKG.s 			page 1


   1              		.syntax unified
   2              		.cpu cortex-m4
   3              		.eabi_attribute 27, 3
   4              		.eabi_attribute 28, 1
   5              		.fpu fpv4-sp-d16
   6              		.eabi_attribute 20, 1
   7              		.eabi_attribute 21, 1
   8              		.eabi_attribute 23, 3
   9              		.eabi_attribute 24, 1
  10              		.eabi_attribute 25, 1
  11              		.eabi_attribute 26, 1
  12              		.eabi_attribute 30, 6
  13              		.eabi_attribute 34, 1
  14              		.eabi_attribute 18, 4
  15              		.thumb
  16              		.file	"pid_node.cpp"
  17              		.text
  18              	.Ltext0:
  19              		.cfi_sections	.debug_frame
  20              		.section	.text._ZN3r2p4TimeaSERKS0_,"axG",%progbits,_ZN3r2p4TimeaSERKS0_,comdat
  21              		.align	2
  22              		.p2align 4,,15
  23              		.weak	_ZN3r2p4TimeaSERKS0_
  24              		.thumb
  25              		.thumb_func
  26              		.type	_ZN3r2p4TimeaSERKS0_, %function
  27              	_ZN3r2p4TimeaSERKS0_:
  28              	.LFB262:
  29              		.file 1 "/home/denny/r2p-sdk/core/Middleware/include/r2p/Time.hpp"
  30              		.loc 1 131 0
  31              		.cfi_startproc
  32              		@ args = 0, pretend = 0, frame = 8
  33              		@ frame_needed = 0, uses_anonymous_args = 0
  34              		@ link register save eliminated.
  35 0000 82B0     		sub	sp, sp, #8
  36              		.cfi_def_cfa_offset 8
  37 0002 0190     		str	r0, [sp, #4]
  38 0004 0091     		str	r1, [sp]
  39              		.loc 1 133 0
  40 0006 009B     		ldr	r3, [sp]
  41 0008 1A68     		ldr	r2, [r3]
  42 000a 019B     		ldr	r3, [sp, #4]
  43 000c 1A60     		str	r2, [r3]
  44              		.loc 1 134 0
  45 000e 019B     		ldr	r3, [sp, #4]
  46              		.loc 1 135 0
  47 0010 1846     		mov	r0, r3
  48 0012 02B0     		add	sp, sp, #8
  49              		.cfi_def_cfa_offset 0
  50              		@ sp needed
  51 0014 7047     		bx	lr
  52              		.cfi_endproc
  53              	.LFE262:
  54              		.size	_ZN3r2p4TimeaSERKS0_, .-_ZN3r2p4TimeaSERKS0_
  55 0016 00BFAFF3 		.section	.text._ZN3r2p4Time2msEl,"axG",%progbits,_ZN3r2p4Time2msEl,comdat
  55      0080AFF3 
  55      0080
ARM GAS  /tmp/ccWQ6gKG.s 			page 2


  56              		.align	2
  57              		.p2align 4,,15
  58              		.weak	_ZN3r2p4Time2msEl
  59              		.thumb
  60              		.thumb_func
  61              		.type	_ZN3r2p4Time2msEl, %function
  62              	_ZN3r2p4Time2msEl:
  63              	.LFB276:
  64              		.loc 1 184 0
  65              		.cfi_startproc
  66              		@ args = 0, pretend = 0, frame = 8
  67              		@ frame_needed = 0, uses_anonymous_args = 0
  68 0000 00B5     		push	{lr}
  69              		.cfi_def_cfa_offset 4
  70              		.cfi_offset 14, -4
  71 0002 83B0     		sub	sp, sp, #12
  72              		.cfi_def_cfa_offset 16
  73 0004 0190     		str	r0, [sp, #4]
  74 0006 0091     		str	r1, [sp]
  75              		.loc 1 186 0
  76 0008 009B     		ldr	r3, [sp]
  77 000a 4FF47A72 		mov	r2, #1000
  78 000e 02FB03F3 		mul	r3, r2, r3
  79 0012 0198     		ldr	r0, [sp, #4]
  80 0014 1946     		mov	r1, r3
  81 0016 FFF7FEFF 		bl	_ZN3r2p4TimeC1IlEET_
  82              		.loc 1 187 0
  83 001a 0198     		ldr	r0, [sp, #4]
  84 001c 03B0     		add	sp, sp, #12
  85              		.cfi_def_cfa_offset 4
  86              		@ sp needed
  87 001e 5DF804FB 		ldr	pc, [sp], #4
  88              		.cfi_endproc
  89              	.LFE276:
  90              		.size	_ZN3r2p4Time2msEl, .-_ZN3r2p4Time2msEl
  91 0022 00BFAFF3 		.section	.text._ZN3r2pgtERKNS_4TimeES2_,"axG",%progbits,_ZN3r2pgtERKNS_4TimeES2_,comdat
  91      0080AFF3 
  91      0080AFF3 
  91      0080
  92              		.align	2
  93              		.p2align 4,,15
  94              		.weak	_ZN3r2pgtERKNS_4TimeES2_
  95              		.thumb
  96              		.thumb_func
  97              		.type	_ZN3r2pgtERKNS_4TimeES2_, %function
  98              	_ZN3r2pgtERKNS_4TimeES2_:
  99              	.LFB282:
 100              		.loc 1 228 0
 101              		.cfi_startproc
 102              		@ args = 0, pretend = 0, frame = 8
 103              		@ frame_needed = 0, uses_anonymous_args = 0
 104              		@ link register save eliminated.
 105 0000 82B0     		sub	sp, sp, #8
 106              		.cfi_def_cfa_offset 8
 107 0002 0190     		str	r0, [sp, #4]
 108 0004 0091     		str	r1, [sp]
 109              		.loc 1 230 0
ARM GAS  /tmp/ccWQ6gKG.s 			page 3


 110 0006 019B     		ldr	r3, [sp, #4]
 111 0008 1A68     		ldr	r2, [r3]
 112 000a 009B     		ldr	r3, [sp]
 113 000c 1B68     		ldr	r3, [r3]
 114 000e 9A42     		cmp	r2, r3
 115 0010 CCBF     		ite	gt
 116 0012 0123     		movgt	r3, #1
 117 0014 0023     		movle	r3, #0
 118 0016 DBB2     		uxtb	r3, r3
 119              		.loc 1 231 0
 120 0018 1846     		mov	r0, r3
 121 001a 02B0     		add	sp, sp, #8
 122              		.cfi_def_cfa_offset 0
 123              		@ sp needed
 124 001c 7047     		bx	lr
 125              		.cfi_endproc
 126              	.LFE282:
 127              		.size	_ZN3r2pgtERKNS_4TimeES2_, .-_ZN3r2pgtERKNS_4TimeES2_
 128 001e 00BF     		.section	.text._ZN3r2pmiERKNS_4TimeES2_,"axG",%progbits,_ZN3r2pmiERKNS_4TimeES2_,comdat
 129              		.align	2
 130              		.p2align 4,,15
 131              		.weak	_ZN3r2pmiERKNS_4TimeES2_
 132              		.thumb
 133              		.thumb_func
 134              		.type	_ZN3r2pmiERKNS_4TimeES2_, %function
 135              	_ZN3r2pmiERKNS_4TimeES2_:
 136              	.LFB287:
 137              		.loc 1 263 0
 138              		.cfi_startproc
 139              		@ args = 0, pretend = 0, frame = 16
 140              		@ frame_needed = 0, uses_anonymous_args = 0
 141 0000 00B5     		push	{lr}
 142              		.cfi_def_cfa_offset 4
 143              		.cfi_offset 14, -4
 144 0002 85B0     		sub	sp, sp, #20
 145              		.cfi_def_cfa_offset 24
 146 0004 0390     		str	r0, [sp, #12]
 147 0006 0291     		str	r1, [sp, #8]
 148 0008 0192     		str	r2, [sp, #4]
 149              		.loc 1 265 0
 150 000a 029B     		ldr	r3, [sp, #8]
 151 000c 1A68     		ldr	r2, [r3]
 152 000e 019B     		ldr	r3, [sp, #4]
 153 0010 1B68     		ldr	r3, [r3]
 154 0012 D31A     		subs	r3, r2, r3
 155 0014 0398     		ldr	r0, [sp, #12]
 156 0016 1946     		mov	r1, r3
 157 0018 FFF7FEFF 		bl	_ZN3r2p4TimeC1IlEET_
 158              		.loc 1 266 0
 159 001c 0398     		ldr	r0, [sp, #12]
 160 001e 05B0     		add	sp, sp, #20
 161              		.cfi_def_cfa_offset 4
 162              		@ sp needed
 163 0020 5DF804FB 		ldr	pc, [sp], #4
 164              		.cfi_endproc
 165              	.LFE287:
 166              		.size	_ZN3r2pmiERKNS_4TimeES2_, .-_ZN3r2pmiERKNS_4TimeES2_
ARM GAS  /tmp/ccWQ6gKG.s 			page 4


 167 0024 AFF30080 		.section	.text._ZN3r2p7MessageC2Ev,"axG",%progbits,_ZN3r2p7MessageC5Ev,comdat
 167      AFF30080 
 167      AFF30080 
 168              		.align	2
 169              		.p2align 4,,15
 170              		.weak	_ZN3r2p7MessageC2Ev
 171              		.thumb
 172              		.thumb_func
 173              		.type	_ZN3r2p7MessageC2Ev, %function
 174              	_ZN3r2p7MessageC2Ev:
 175              	.LFB294:
 176              		.file 2 "/home/denny/r2p-sdk/core/Middleware/include/r2p/Message.hpp"
 177              		.loc 2 132 0
 178              		.cfi_startproc
 179              		@ args = 0, pretend = 0, frame = 8
 180              		@ frame_needed = 0, uses_anonymous_args = 0
 181              		@ link register save eliminated.
 182 0000 82B0     		sub	sp, sp, #8
 183              		.cfi_def_cfa_offset 8
 184 0002 0190     		str	r0, [sp, #4]
 185              	.LBB32:
 186              		.loc 2 137 0
 187 0004 019B     		ldr	r3, [sp, #4]
 188 0006 0022     		movs	r2, #0
 189 0008 1A70     		strb	r2, [r3]
 190 000a 0022     		movs	r2, #0
 191 000c 5A70     		strb	r2, [r3, #1]
 192              	.LBE32:
 193              		.loc 2 138 0
 194 000e 019B     		ldr	r3, [sp, #4]
 195 0010 1846     		mov	r0, r3
 196 0012 02B0     		add	sp, sp, #8
 197              		.cfi_def_cfa_offset 0
 198              		@ sp needed
 199 0014 7047     		bx	lr
 200              		.cfi_endproc
 201              	.LFE294:
 202              		.size	_ZN3r2p7MessageC2Ev, .-_ZN3r2p7MessageC2Ev
 203              		.weak	_ZN3r2p7MessageC1Ev
 204              		.thumb_set _ZN3r2p7MessageC1Ev,_ZN3r2p7MessageC2Ev
 205 0016 00BFAFF3 		.section	.text._ZNK3r2p10SpinEvent_10get_threadEv,"axG",%progbits,_ZNK3r2p10SpinEvent_10get_thread
 205      0080AFF3 
 205      0080
 206              		.align	2
 207              		.p2align 4,,15
 208              		.weak	_ZNK3r2p10SpinEvent_10get_threadEv
 209              		.thumb
 210              		.thumb_func
 211              		.type	_ZNK3r2p10SpinEvent_10get_threadEv, %function
 212              	_ZNK3r2p10SpinEvent_10get_threadEv:
 213              	.LFB353:
 214              		.file 3 "/home/denny/r2p-sdk/core/Middleware/port/chibios/include/r2p/impl/SpinEvent_.hpp"
 215              		.loc 3 36 0
 216              		.cfi_startproc
 217              		@ args = 0, pretend = 0, frame = 8
 218              		@ frame_needed = 0, uses_anonymous_args = 0
 219              		@ link register save eliminated.
ARM GAS  /tmp/ccWQ6gKG.s 			page 5


 220 0000 82B0     		sub	sp, sp, #8
 221              		.cfi_def_cfa_offset 8
 222 0002 0190     		str	r0, [sp, #4]
 223              		.loc 3 38 0
 224 0004 019B     		ldr	r3, [sp, #4]
 225 0006 1B68     		ldr	r3, [r3]
 226              		.loc 3 39 0
 227 0008 1846     		mov	r0, r3
 228 000a 02B0     		add	sp, sp, #8
 229              		.cfi_def_cfa_offset 0
 230              		@ sp needed
 231 000c 7047     		bx	lr
 232              		.cfi_endproc
 233              	.LFE353:
 234              		.size	_ZNK3r2p10SpinEvent_10get_threadEv, .-_ZNK3r2p10SpinEvent_10get_threadEv
 235 000e 00BF     		.section	.rodata
 236              		.align	2
 237              	.LC0:
 238 0000 5232505F 		.ascii	"R2P_ASSERT()\000"
 238      41535345 
 238      52542829 
 238      00
 239              		.section	.text._ZN3r2p10SpinEvent_13signal_unsafeEj,"axG",%progbits,_ZN3r2p10SpinEvent_13signal_un
 240              		.align	2
 241              		.p2align 4,,15
 242              		.weak	_ZN3r2p10SpinEvent_13signal_unsafeEj
 243              		.thumb
 244              		.thumb_func
 245              		.type	_ZN3r2p10SpinEvent_13signal_unsafeEj, %function
 246              	_ZN3r2p10SpinEvent_13signal_unsafeEj:
 247              	.LFB355:
 248              		.loc 3 50 0
 249              		.cfi_startproc
 250              		@ args = 0, pretend = 0, frame = 8
 251              		@ frame_needed = 0, uses_anonymous_args = 0
 252 0000 00B5     		push	{lr}
 253              		.cfi_def_cfa_offset 4
 254              		.cfi_offset 14, -4
 255 0002 83B0     		sub	sp, sp, #12
 256              		.cfi_def_cfa_offset 16
 257 0004 0190     		str	r0, [sp, #4]
 258 0006 0091     		str	r1, [sp]
 259              		.loc 3 52 0
 260 0008 019B     		ldr	r3, [sp, #4]
 261 000a 1B68     		ldr	r3, [r3]
 262 000c 002B     		cmp	r3, #0
 263 000e 10D0     		beq	.L14
 264              		.loc 3 53 0
 265 0010 2022     		movs	r2, #32
 266 0012 009B     		ldr	r3, [sp]
 267 0014 9A42     		cmp	r2, r3
 268 0016 02D8     		bhi	.L16
 269              		.loc 3 53 0 is_stmt 0 discriminator 1
 270 0018 0748     		ldr	r0, .L17
 271 001a FFF7FEFF 		bl	chDbgPanic
 272              	.L16:
 273              		.loc 3 54 0 is_stmt 1
ARM GAS  /tmp/ccWQ6gKG.s 			page 6


 274 001e 019B     		ldr	r3, [sp, #4]
 275 0020 1968     		ldr	r1, [r3]
 276 0022 009B     		ldr	r3, [sp]
 277 0024 0122     		movs	r2, #1
 278 0026 02FA03F3 		lsl	r3, r2, r3
 279 002a 0846     		mov	r0, r1
 280 002c 1946     		mov	r1, r3
 281 002e FFF7FEFF 		bl	chEvtSignalI
 282              	.L14:
 283              		.loc 3 56 0
 284 0032 03B0     		add	sp, sp, #12
 285              		.cfi_def_cfa_offset 4
 286              		@ sp needed
 287 0034 5DF804FB 		ldr	pc, [sp], #4
 288              	.L18:
 289              		.align	2
 290              	.L17:
 291 0038 00000000 		.word	.LC0
 292              		.cfi_endproc
 293              	.LFE355:
 294              		.size	_ZN3r2p10SpinEvent_13signal_unsafeEj, .-_ZN3r2p10SpinEvent_13signal_unsafeEj
 295 003c AFF30080 		.section	.text._ZNK3r2p9SpinEvent10get_threadEv,"axG",%progbits,_ZNK3r2p9SpinEvent10get_threadEv,c
 296              		.align	2
 297              		.p2align 4,,15
 298              		.weak	_ZNK3r2p9SpinEvent10get_threadEv
 299              		.thumb
 300              		.thumb_func
 301              		.type	_ZNK3r2p9SpinEvent10get_threadEv, %function
 302              	_ZNK3r2p9SpinEvent10get_threadEv:
 303              	.LFB361:
 304              		.file 4 "/home/denny/r2p-sdk/core/Middleware/include/r2p/SpinEvent.hpp"
 305              		.loc 4 35 0
 306              		.cfi_startproc
 307              		@ args = 0, pretend = 0, frame = 8
 308              		@ frame_needed = 0, uses_anonymous_args = 0
 309 0000 00B5     		push	{lr}
 310              		.cfi_def_cfa_offset 4
 311              		.cfi_offset 14, -4
 312 0002 83B0     		sub	sp, sp, #12
 313              		.cfi_def_cfa_offset 16
 314 0004 0190     		str	r0, [sp, #4]
 315              		.loc 4 37 0
 316 0006 019B     		ldr	r3, [sp, #4]
 317 0008 1846     		mov	r0, r3
 318 000a FFF7FEFF 		bl	_ZNK3r2p10SpinEvent_10get_threadEv
 319 000e 0346     		mov	r3, r0
 320              		.loc 4 38 0
 321 0010 1846     		mov	r0, r3
 322 0012 03B0     		add	sp, sp, #12
 323              		.cfi_def_cfa_offset 4
 324              		@ sp needed
 325 0014 5DF804FB 		ldr	pc, [sp], #4
 326              		.cfi_endproc
 327              	.LFE361:
 328              		.size	_ZNK3r2p9SpinEvent10get_threadEv, .-_ZNK3r2p9SpinEvent10get_threadEv
 329 0018 AFF30080 		.section	.text._ZN3r2p9SpinEvent13signal_unsafeEj,"axG",%progbits,_ZN3r2p9SpinEvent13signal_unsafe
 329      AFF30080 
ARM GAS  /tmp/ccWQ6gKG.s 			page 7


 330              		.align	2
 331              		.p2align 4,,15
 332              		.weak	_ZN3r2p9SpinEvent13signal_unsafeEj
 333              		.thumb
 334              		.thumb_func
 335              		.type	_ZN3r2p9SpinEvent13signal_unsafeEj, %function
 336              	_ZN3r2p9SpinEvent13signal_unsafeEj:
 337              	.LFB363:
 338              		.loc 4 49 0
 339              		.cfi_startproc
 340              		@ args = 0, pretend = 0, frame = 8
 341              		@ frame_needed = 0, uses_anonymous_args = 0
 342 0000 00B5     		push	{lr}
 343              		.cfi_def_cfa_offset 4
 344              		.cfi_offset 14, -4
 345 0002 83B0     		sub	sp, sp, #12
 346              		.cfi_def_cfa_offset 16
 347 0004 0190     		str	r0, [sp, #4]
 348 0006 0091     		str	r1, [sp]
 349              		.loc 4 51 0
 350 0008 019B     		ldr	r3, [sp, #4]
 351 000a 1846     		mov	r0, r3
 352 000c 0099     		ldr	r1, [sp]
 353 000e FFF7FEFF 		bl	_ZN3r2p10SpinEvent_13signal_unsafeEj
 354              		.loc 4 52 0
 355 0012 03B0     		add	sp, sp, #12
 356              		.cfi_def_cfa_offset 4
 357              		@ sp needed
 358 0014 5DF804FB 		ldr	pc, [sp], #4
 359              		.cfi_endproc
 360              	.LFE363:
 361              		.size	_ZN3r2p9SpinEvent13signal_unsafeEj, .-_ZN3r2p9SpinEvent13signal_unsafeEj
 362 0018 AFF30080 		.section	.text._ZNK3r2p4Node11get_enabledEv,"axG",%progbits,_ZNK3r2p4Node11get_enabledEv,comdat
 362      AFF30080 
 363              		.align	2
 364              		.p2align 4,,15
 365              		.weak	_ZNK3r2p4Node11get_enabledEv
 366              		.thumb
 367              		.thumb_func
 368              		.type	_ZNK3r2p4Node11get_enabledEv, %function
 369              	_ZNK3r2p4Node11get_enabledEv:
 370              	.LFB380:
 371              		.file 5 "/home/denny/r2p-sdk/core/Middleware/include/r2p/Node.hpp"
 372              		.loc 5 103 0
 373              		.cfi_startproc
 374              		@ args = 0, pretend = 0, frame = 8
 375              		@ frame_needed = 0, uses_anonymous_args = 0
 376 0000 00B5     		push	{lr}
 377              		.cfi_def_cfa_offset 4
 378              		.cfi_offset 14, -4
 379 0002 83B0     		sub	sp, sp, #12
 380              		.cfi_def_cfa_offset 16
 381 0004 0190     		str	r0, [sp, #4]
 382              		.loc 5 105 0
 383 0006 019B     		ldr	r3, [sp, #4]
 384 0008 0C33     		adds	r3, r3, #12
 385 000a 1846     		mov	r0, r3
ARM GAS  /tmp/ccWQ6gKG.s 			page 8


 386 000c FFF7FEFF 		bl	_ZNK3r2p9SpinEvent10get_threadEv
 387 0010 0346     		mov	r3, r0
 388 0012 002B     		cmp	r3, #0
 389 0014 14BF     		ite	ne
 390 0016 0123     		movne	r3, #1
 391 0018 0023     		moveq	r3, #0
 392 001a DBB2     		uxtb	r3, r3
 393              		.loc 5 106 0
 394 001c 1846     		mov	r0, r3
 395 001e 03B0     		add	sp, sp, #12
 396              		.cfi_def_cfa_offset 4
 397              		@ sp needed
 398 0020 5DF804FB 		ldr	pc, [sp], #4
 399              		.cfi_endproc
 400              	.LFE380:
 401              		.size	_ZNK3r2p4Node11get_enabledEv, .-_ZNK3r2p4Node11get_enabledEv
 402 0024 AFF30080 		.section	.text._ZN3r2p4Node13notify_unsafeEj,"axG",%progbits,_ZN3r2p4Node13notify_unsafeEj,comdat
 402      AFF30080 
 402      AFF30080 
 403              		.align	2
 404              		.p2align 4,,15
 405              		.weak	_ZN3r2p4Node13notify_unsafeEj
 406              		.thumb
 407              		.thumb_func
 408              		.type	_ZN3r2p4Node13notify_unsafeEj, %function
 409              	_ZN3r2p4Node13notify_unsafeEj:
 410              	.LFB385:
 411              		.loc 5 140 0
 412              		.cfi_startproc
 413              		@ args = 0, pretend = 0, frame = 8
 414              		@ frame_needed = 0, uses_anonymous_args = 0
 415 0000 00B5     		push	{lr}
 416              		.cfi_def_cfa_offset 4
 417              		.cfi_offset 14, -4
 418 0002 83B0     		sub	sp, sp, #12
 419              		.cfi_def_cfa_offset 16
 420 0004 0190     		str	r0, [sp, #4]
 421 0006 0091     		str	r1, [sp]
 422              		.loc 5 142 0
 423 0008 019B     		ldr	r3, [sp, #4]
 424 000a 0C33     		adds	r3, r3, #12
 425 000c 1846     		mov	r0, r3
 426 000e 0099     		ldr	r1, [sp]
 427 0010 FFF7FEFF 		bl	_ZN3r2p9SpinEvent13signal_unsafeEj
 428              		.loc 5 143 0
 429 0014 03B0     		add	sp, sp, #12
 430              		.cfi_def_cfa_offset 4
 431              		@ sp needed
 432 0016 5DF804FB 		ldr	pc, [sp], #4
 433              		.cfi_endproc
 434              	.LFE385:
 435              		.size	_ZN3r2p4Node13notify_unsafeEj, .-_ZN3r2p4Node13notify_unsafeEj
 436 001a 00BFAFF3 		.section	.text._ZNK3r2p15LocalSubscriber16get_queue_lengthEv,"axG",%progbits,_ZNK3r2p15LocalSubscr
 436      0080
 437              		.align	2
 438              		.p2align 4,,15
 439              		.weak	_ZNK3r2p15LocalSubscriber16get_queue_lengthEv
ARM GAS  /tmp/ccWQ6gKG.s 			page 9


 440              		.thumb
 441              		.thumb_func
 442              		.type	_ZNK3r2p15LocalSubscriber16get_queue_lengthEv, %function
 443              	_ZNK3r2p15LocalSubscriber16get_queue_lengthEv:
 444              	.LFB391:
 445              		.file 6 "/home/denny/r2p-sdk/core/Middleware/include/r2p/LocalSubscriber.hpp"
 446              		.loc 6 64 0
 447              		.cfi_startproc
 448              		@ args = 0, pretend = 0, frame = 8
 449              		@ frame_needed = 0, uses_anonymous_args = 0
 450 0000 00B5     		push	{lr}
 451              		.cfi_def_cfa_offset 4
 452              		.cfi_offset 14, -4
 453 0002 83B0     		sub	sp, sp, #12
 454              		.cfi_def_cfa_offset 16
 455 0004 0190     		str	r0, [sp, #4]
 456              		.loc 6 66 0
 457 0006 019B     		ldr	r3, [sp, #4]
 458 0008 1033     		adds	r3, r3, #16
 459 000a 1846     		mov	r0, r3
 460 000c FFF7FEFF 		bl	_ZNK3r2p10ArrayQueueIPNS_7MessageEE10get_lengthEv
 461 0010 0346     		mov	r3, r0
 462              		.loc 6 67 0
 463 0012 1846     		mov	r0, r3
 464 0014 03B0     		add	sp, sp, #12
 465              		.cfi_def_cfa_offset 4
 466              		@ sp needed
 467 0016 5DF804FB 		ldr	pc, [sp], #4
 468              		.cfi_endproc
 469              	.LFE391:
 470              		.size	_ZNK3r2p15LocalSubscriber16get_queue_lengthEv, .-_ZNK3r2p15LocalSubscriber16get_queue_length
 471 001a 00BFAFF3 		.section	.text._ZN3r2p15LocalSubscriber12fetch_unsafeERPNS_7MessageERNS_4TimeE,"axG",%progbits,_ZN
 471      0080
 472              		.align	2
 473              		.p2align 4,,15
 474              		.weak	_ZN3r2p15LocalSubscriber12fetch_unsafeERPNS_7MessageERNS_4TimeE
 475              		.thumb
 476              		.thumb_func
 477              		.type	_ZN3r2p15LocalSubscriber12fetch_unsafeERPNS_7MessageERNS_4TimeE, %function
 478              	_ZN3r2p15LocalSubscriber12fetch_unsafeERPNS_7MessageERNS_4TimeE:
 479              	.LFB392:
 480              		.loc 6 71 0
 481              		.cfi_startproc
 482              		@ args = 0, pretend = 0, frame = 24
 483              		@ frame_needed = 0, uses_anonymous_args = 0
 484 0000 00B5     		push	{lr}
 485              		.cfi_def_cfa_offset 4
 486              		.cfi_offset 14, -4
 487 0002 87B0     		sub	sp, sp, #28
 488              		.cfi_def_cfa_offset 32
 489 0004 0390     		str	r0, [sp, #12]
 490 0006 0291     		str	r1, [sp, #8]
 491 0008 0192     		str	r2, [sp, #4]
 492              		.loc 6 73 0
 493 000a 039B     		ldr	r3, [sp, #12]
 494 000c 1033     		adds	r3, r3, #16
 495 000e 1846     		mov	r0, r3
ARM GAS  /tmp/ccWQ6gKG.s 			page 10


 496 0010 0299     		ldr	r1, [sp, #8]
 497 0012 FFF7FEFF 		bl	_ZN3r2p10ArrayQueueIPNS_7MessageEE12fetch_unsafeERS2_
 498 0016 0346     		mov	r3, r0
 499 0018 002B     		cmp	r3, #0
 500 001a 0AD0     		beq	.L28
 501              		.loc 6 74 0
 502 001c 05AB     		add	r3, sp, #20
 503 001e 1846     		mov	r0, r3
 504 0020 FFF7FEFF 		bl	_ZN3r2p4Time3nowEv
 505 0024 05AB     		add	r3, sp, #20
 506 0026 0198     		ldr	r0, [sp, #4]
 507 0028 1946     		mov	r1, r3
 508 002a FFF7FEFF 		bl	_ZN3r2p4TimeaSERKS0_
 509              		.loc 6 75 0
 510 002e 0123     		movs	r3, #1
 511 0030 00E0     		b	.L29
 512              	.L28:
 513              		.loc 6 77 0
 514 0032 0023     		movs	r3, #0
 515              	.L29:
 516              		.loc 6 78 0
 517 0034 1846     		mov	r0, r3
 518 0036 07B0     		add	sp, sp, #28
 519              		.cfi_def_cfa_offset 4
 520              		@ sp needed
 521 0038 5DF804FB 		ldr	pc, [sp], #4
 522              		.cfi_endproc
 523              	.LFE392:
 524              		.size	_ZN3r2p15LocalSubscriber12fetch_unsafeERPNS_7MessageERNS_4TimeE, .-_ZN3r2p15LocalSubscriber1
 525 003c AFF30080 		.section	.text._ZN3r2p15LocalSubscriber13notify_unsafeERNS_7MessageERKNS_4TimeE,"axG",%progbits,_Z
 526              		.align	2
 527              		.p2align 4,,15
 528              		.weak	_ZN3r2p15LocalSubscriber13notify_unsafeERNS_7MessageERKNS_4TimeE
 529              		.thumb
 530              		.thumb_func
 531              		.type	_ZN3r2p15LocalSubscriber13notify_unsafeERNS_7MessageERKNS_4TimeE, %function
 532              	_ZN3r2p15LocalSubscriber13notify_unsafeERNS_7MessageERKNS_4TimeE:
 533              	.LFB393:
 534              		.loc 6 82 0
 535              		.cfi_startproc
 536              		@ args = 0, pretend = 0, frame = 16
 537              		@ frame_needed = 0, uses_anonymous_args = 0
 538 0000 00B5     		push	{lr}
 539              		.cfi_def_cfa_offset 4
 540              		.cfi_offset 14, -4
 541 0002 85B0     		sub	sp, sp, #20
 542              		.cfi_def_cfa_offset 24
 543 0004 0390     		str	r0, [sp, #12]
 544 0006 0291     		str	r1, [sp, #8]
 545 0008 0192     		str	r2, [sp, #4]
 546              		.loc 6 86 0
 547 000a 039B     		ldr	r3, [sp, #12]
 548 000c 9B68     		ldr	r3, [r3, #8]
 549 000e 1846     		mov	r0, r3
 550 0010 FFF7FEFF 		bl	_ZNK3r2p4Node11get_enabledEv
 551 0014 0346     		mov	r3, r0
 552 0016 002B     		cmp	r3, #0
ARM GAS  /tmp/ccWQ6gKG.s 			page 11


 553 0018 0AD0     		beq	.L31
 554              		.loc 6 86 0 is_stmt 0 discriminator 1
 555 001a 039B     		ldr	r3, [sp, #12]
 556 001c 1033     		adds	r3, r3, #16
 557 001e 1846     		mov	r0, r3
 558 0020 0299     		ldr	r1, [sp, #8]
 559 0022 FFF7FEFF 		bl	_ZN3r2p10ArrayQueueIPNS_7MessageEE11post_unsafeES2_
 560 0026 0346     		mov	r3, r0
 561 0028 002B     		cmp	r3, #0
 562 002a 01D0     		beq	.L31
 563              		.loc 6 86 0 discriminator 3
 564 002c 0123     		movs	r3, #1
 565 002e 00E0     		b	.L32
 566              	.L31:
 567              		.loc 6 86 0 discriminator 4
 568 0030 0023     		movs	r3, #0
 569              	.L32:
 570              		.loc 6 86 0 discriminator 6
 571 0032 002B     		cmp	r3, #0
 572 0034 0AD0     		beq	.L33
 573              		.loc 6 87 0 is_stmt 1
 574 0036 039B     		ldr	r3, [sp, #12]
 575 0038 9A68     		ldr	r2, [r3, #8]
 576 003a 039B     		ldr	r3, [sp, #12]
 577 003c 93F82430 		ldrb	r3, [r3, #36]	@ zero_extendqisi2
 578 0040 1046     		mov	r0, r2
 579 0042 1946     		mov	r1, r3
 580 0044 FFF7FEFF 		bl	_ZN3r2p4Node13notify_unsafeEj
 581              		.loc 6 88 0
 582 0048 0123     		movs	r3, #1
 583 004a 00E0     		b	.L34
 584              	.L33:
 585              		.loc 6 90 0
 586 004c 0023     		movs	r3, #0
 587              	.L34:
 588              		.loc 6 91 0
 589 004e 1846     		mov	r0, r3
 590 0050 05B0     		add	sp, sp, #20
 591              		.cfi_def_cfa_offset 4
 592              		@ sp needed
 593 0052 5DF804FB 		ldr	pc, [sp], #4
 594              		.cfi_endproc
 595              	.LFE393:
 596              		.size	_ZN3r2p15LocalSubscriber13notify_unsafeERNS_7MessageERKNS_4TimeE, .-_ZN3r2p15LocalSubscriber
 597 0056 00BFAFF3 		.section	.text._ZN3PIDC2Ev,"ax",%progbits
 597      0080AFF3 
 597      0080
 598              		.align	2
 599              		.p2align 4,,15
 600              		.global	_ZN3PIDC2Ev
 601              		.thumb
 602              		.thumb_func
 603              		.type	_ZN3PIDC2Ev, %function
 604              	_ZN3PIDC2Ev:
 605              	.LFB597:
 606              		.file 7 "nodes/pid.hpp"
 607              		.loc 7 24 0
ARM GAS  /tmp/ccWQ6gKG.s 			page 12


 608              		.cfi_startproc
 609              		@ args = 0, pretend = 0, frame = 8
 610              		@ frame_needed = 0, uses_anonymous_args = 0
 611              		@ link register save eliminated.
 612 0000 82B0     		sub	sp, sp, #8
 613              		.cfi_def_cfa_offset 8
 614 0002 0190     		str	r0, [sp, #4]
 615              	.LBB33:
 616              		.loc 7 25 0
 617 0004 019B     		ldr	r3, [sp, #4]
 618 0006 4FF00002 		mov	r2, #0
 619 000a 1A60     		str	r2, [r3]	@ float
 620              		.loc 7 26 0
 621 000c 019B     		ldr	r3, [sp, #4]
 622 000e 4FF00002 		mov	r2, #0
 623 0012 5A60     		str	r2, [r3, #4]	@ float
 624              		.loc 7 27 0
 625 0014 019B     		ldr	r3, [sp, #4]
 626 0016 4FF00002 		mov	r2, #0
 627 001a 9A60     		str	r2, [r3, #8]	@ float
 628              		.loc 7 28 0
 629 001c 019B     		ldr	r3, [sp, #4]
 630 001e 4FF00002 		mov	r2, #0
 631 0022 DA60     		str	r2, [r3, #12]	@ float
 632              		.loc 7 29 0
 633 0024 019B     		ldr	r3, [sp, #4]
 634 0026 4FF00002 		mov	r2, #0
 635 002a 1A61     		str	r2, [r3, #16]	@ float
 636              		.loc 7 30 0
 637 002c 019B     		ldr	r3, [sp, #4]
 638 002e 4FF00002 		mov	r2, #0
 639 0032 5A61     		str	r2, [r3, #20]	@ float
 640              		.loc 7 31 0
 641 0034 019B     		ldr	r3, [sp, #4]
 642 0036 6FF40002 		mvn	r2, #8388608
 643 003a 9A61     		str	r2, [r3, #24]	@ float
 644              		.loc 7 32 0
 645 003c 019B     		ldr	r3, [sp, #4]
 646 003e 034A     		ldr	r2, .L38
 647 0040 DA61     		str	r2, [r3, #28]	@ float
 648              	.LBE33:
 649              		.loc 7 34 0
 650 0042 019B     		ldr	r3, [sp, #4]
 651 0044 1846     		mov	r0, r3
 652 0046 02B0     		add	sp, sp, #8
 653              		.cfi_def_cfa_offset 0
 654              		@ sp needed
 655 0048 7047     		bx	lr
 656              	.L39:
 657 004a 00BF     		.align	2
 658              	.L38:
 659 004c FFFF7F7F 		.word	2139095039
 660              		.cfi_endproc
 661              	.LFE597:
 662              		.size	_ZN3PIDC2Ev, .-_ZN3PIDC2Ev
 663              		.global	_ZN3PIDC1Ev
 664              		.thumb_set _ZN3PIDC1Ev,_ZN3PIDC2Ev
ARM GAS  /tmp/ccWQ6gKG.s 			page 13


 665              		.section	.text._ZN3PID6configEffffff,"ax",%progbits
 666              		.align	2
 667              		.p2align 4,,15
 668              		.global	_ZN3PID6configEffffff
 669              		.thumb
 670              		.thumb_func
 671              		.type	_ZN3PID6configEffffff, %function
 672              	_ZN3PID6configEffffff:
 673              	.LFB599:
 674              		.loc 7 37 0
 675              		.cfi_startproc
 676              		@ args = 0, pretend = 0, frame = 32
 677              		@ frame_needed = 0, uses_anonymous_args = 0
 678 0000 00B5     		push	{lr}
 679              		.cfi_def_cfa_offset 4
 680              		.cfi_offset 14, -4
 681 0002 89B0     		sub	sp, sp, #36
 682              		.cfi_def_cfa_offset 40
 683 0004 0790     		str	r0, [sp, #28]
 684 0006 8DED060A 		fsts	s0, [sp, #24]
 685 000a CDED050A 		fsts	s1, [sp, #20]
 686 000e 8DED041A 		fsts	s2, [sp, #16]
 687 0012 CDED031A 		fsts	s3, [sp, #12]
 688 0016 8DED022A 		fsts	s4, [sp, #8]
 689 001a CDED012A 		fsts	s5, [sp, #4]
 690              	.LBB34:
 691              	.LBB35:
 692              	.LBB36:
 693              		.loc 7 39 0
 694 001e 2023     		movs	r3, #32
 695              	@ 39 "nodes/pid.hpp" 1
 696 0020 83F31188 		msr     BASEPRI, r3
 697              	@ 0 "" 2
 698              		.thumb
 699              	.LBE36:
 700 0024 FFF7FEFF 		bl	dbg_check_lock
 701              	.LBE35:
 702              		.loc 7 40 0
 703 0028 079B     		ldr	r3, [sp, #28]
 704 002a 069A     		ldr	r2, [sp, #24]	@ float
 705 002c DA60     		str	r2, [r3, #12]	@ float
 706              		.loc 7 41 0
 707 002e DDED057A 		flds	s15, [sp, #20]
 708 0032 F5EE407A 		fcmpzs	s15
 709 0036 F1EE10FA 		fmstat
 710 003a 0AD0     		beq	.L41
 711              		.loc 7 41 0 is_stmt 0 discriminator 1
 712 003c 9DED037A 		flds	s14, [sp, #12]
 713 0040 DDED057A 		flds	s15, [sp, #20]
 714 0044 87EE277A 		fdivs	s14, s14, s15
 715 0048 DDED067A 		flds	s15, [sp, #24]
 716 004c 67EE277A 		fmuls	s15, s14, s15
 717 0050 01E0     		b	.L42
 718              	.L41:
 719              		.loc 7 41 0 discriminator 2
 720 0052 DFED147A 		flds	s15, .L43
 721              	.L42:
ARM GAS  /tmp/ccWQ6gKG.s 			page 14


 722              		.loc 7 41 0 discriminator 4
 723 0056 079B     		ldr	r3, [sp, #28]
 724 0058 C3ED047A 		fsts	s15, [r3, #16]
 725              		.loc 7 42 0 is_stmt 1 discriminator 4
 726 005c 9DED047A 		flds	s14, [sp, #16]
 727 0060 DDED037A 		flds	s15, [sp, #12]
 728 0064 87EE277A 		fdivs	s14, s14, s15
 729 0068 DDED067A 		flds	s15, [sp, #24]
 730 006c 67EE277A 		fmuls	s15, s14, s15
 731 0070 079B     		ldr	r3, [sp, #28]
 732 0072 C3ED057A 		fsts	s15, [r3, #20]
 733              		.loc 7 43 0 discriminator 4
 734 0076 079B     		ldr	r3, [sp, #28]
 735 0078 029A     		ldr	r2, [sp, #8]	@ float
 736 007a 9A61     		str	r2, [r3, #24]	@ float
 737              		.loc 7 44 0 discriminator 4
 738 007c 079B     		ldr	r3, [sp, #28]
 739 007e 019A     		ldr	r2, [sp, #4]	@ float
 740 0080 DA61     		str	r2, [r3, #28]	@ float
 741              		.loc 7 45 0 discriminator 4
 742 0082 079B     		ldr	r3, [sp, #28]
 743 0084 4FF00002 		mov	r2, #0
 744 0088 1A60     		str	r2, [r3]	@ float
 745              		.loc 7 46 0 discriminator 4
 746 008a 079B     		ldr	r3, [sp, #28]
 747 008c 4FF00002 		mov	r2, #0
 748 0090 5A60     		str	r2, [r3, #4]	@ float
 749              	.LBB37:
 750              		.loc 7 47 0 discriminator 4
 751 0092 FFF7FEFF 		bl	dbg_check_unlock
 752              	.LBB38:
 753 0096 0023     		movs	r3, #0
 754              	@ 47 "nodes/pid.hpp" 1
 755 0098 83F31188 		msr     BASEPRI, r3
 756              	@ 0 "" 2
 757              		.thumb
 758              	.LBE38:
 759              	.LBE37:
 760              	.LBE34:
 761              		.loc 7 48 0 discriminator 4
 762 009c 09B0     		add	sp, sp, #36
 763              		.cfi_def_cfa_offset 4
 764              		@ sp needed
 765 009e 5DF804FB 		ldr	pc, [sp], #4
 766              	.L44:
 767 00a2 00BF     		.align	2
 768              	.L43:
 769 00a4 00000000 		.word	0
 770              		.cfi_endproc
 771              	.LFE599:
 772              		.size	_ZN3PID6configEffffff, .-_ZN3PID6configEffffff
 773 00a8 AFF30080 		.section	.text._ZN3PID3setEf,"ax",%progbits
 773      AFF30080 
 774              		.align	2
 775              		.p2align 4,,15
 776              		.global	_ZN3PID3setEf
 777              		.thumb
ARM GAS  /tmp/ccWQ6gKG.s 			page 15


 778              		.thumb_func
 779              		.type	_ZN3PID3setEf, %function
 780              	_ZN3PID3setEf:
 781              	.LFB600:
 782              		.loc 7 51 0
 783              		.cfi_startproc
 784              		@ args = 0, pretend = 0, frame = 8
 785              		@ frame_needed = 0, uses_anonymous_args = 0
 786 0000 00B5     		push	{lr}
 787              		.cfi_def_cfa_offset 4
 788              		.cfi_offset 14, -4
 789 0002 83B0     		sub	sp, sp, #12
 790              		.cfi_def_cfa_offset 16
 791 0004 0190     		str	r0, [sp, #4]
 792 0006 8DED000A 		fsts	s0, [sp]
 793              	.LBB39:
 794              	.LBB40:
 795              	.LBB41:
 796              		.loc 7 53 0
 797 000a 2023     		movs	r3, #32
 798              	@ 53 "nodes/pid.hpp" 1
 799 000c 83F31188 		msr     BASEPRI, r3
 800              	@ 0 "" 2
 801              		.thumb
 802              	.LBE41:
 803 0010 FFF7FEFF 		bl	dbg_check_lock
 804              	.LBE40:
 805              		.loc 7 55 0
 806 0014 DDED007A 		flds	s15, [sp]
 807 0018 F5EEC07A 		fcmpezs	s15
 808 001c F1EE10FA 		fmstat
 809 0020 CCBF     		ite	gt
 810 0022 0123     		movgt	r3, #1
 811 0024 0023     		movle	r3, #0
 812 0026 DAB2     		uxtb	r2, r3
 813 0028 019B     		ldr	r3, [sp, #4]
 814 002a D3ED027A 		flds	s15, [r3, #8]
 815 002e F5EEC07A 		fcmpezs	s15
 816 0032 F1EE10FA 		fmstat
 817 0036 CCBF     		ite	gt
 818 0038 0123     		movgt	r3, #1
 819 003a 0023     		movle	r3, #0
 820 003c DBB2     		uxtb	r3, r3
 821 003e 5340     		eors	r3, r3, r2
 822 0040 DBB2     		uxtb	r3, r3
 823 0042 002B     		cmp	r3, #0
 824 0044 07D0     		beq	.L46
 825              		.loc 7 56 0
 826 0046 019B     		ldr	r3, [sp, #4]
 827 0048 4FF00002 		mov	r2, #0
 828 004c 1A60     		str	r2, [r3]	@ float
 829              		.loc 7 57 0
 830 004e 019B     		ldr	r3, [sp, #4]
 831 0050 4FF00002 		mov	r2, #0
 832 0054 5A60     		str	r2, [r3, #4]	@ float
 833              	.L46:
 834              		.loc 7 60 0
ARM GAS  /tmp/ccWQ6gKG.s 			page 16


 835 0056 019B     		ldr	r3, [sp, #4]
 836 0058 009A     		ldr	r2, [sp]	@ float
 837 005a 9A60     		str	r2, [r3, #8]	@ float
 838              	.LBB42:
 839              		.loc 7 61 0
 840 005c FFF7FEFF 		bl	dbg_check_unlock
 841              	.LBB43:
 842 0060 0023     		movs	r3, #0
 843              	@ 61 "nodes/pid.hpp" 1
 844 0062 83F31188 		msr     BASEPRI, r3
 845              	@ 0 "" 2
 846              		.thumb
 847              	.LBE43:
 848              	.LBE42:
 849              	.LBE39:
 850              		.loc 7 62 0
 851 0066 03B0     		add	sp, sp, #12
 852              		.cfi_def_cfa_offset 4
 853              		@ sp needed
 854 0068 5DF804FB 		ldr	pc, [sp], #4
 855              		.cfi_endproc
 856              	.LFE600:
 857              		.size	_ZN3PID3setEf, .-_ZN3PID3setEf
 858 006c AFF30080 		.section	.text._ZN3PID6updateEf,"ax",%progbits
 859              		.align	2
 860              		.p2align 4,,15
 861              		.global	_ZN3PID6updateEf
 862              		.thumb
 863              		.thumb_func
 864              		.type	_ZN3PID6updateEf, %function
 865              	_ZN3PID6updateEf:
 866              	.LFB601:
 867              		.loc 7 65 0
 868              		.cfi_startproc
 869              		@ args = 0, pretend = 0, frame = 16
 870              		@ frame_needed = 0, uses_anonymous_args = 0
 871              		@ link register save eliminated.
 872 0000 84B0     		sub	sp, sp, #16
 873              		.cfi_def_cfa_offset 16
 874 0002 0190     		str	r0, [sp, #4]
 875 0004 8DED000A 		fsts	s0, [sp]
 876              	.LBB44:
 877              		.loc 7 70 0
 878 0008 019B     		ldr	r3, [sp, #4]
 879 000a 93ED027A 		flds	s14, [r3, #8]
 880 000e DDED007A 		flds	s15, [sp]
 881 0012 77EE677A 		fsubs	s15, s14, s15
 882 0016 CDED027A 		fsts	s15, [sp, #8]
 883              		.loc 7 73 0
 884 001a 019B     		ldr	r3, [sp, #4]
 885 001c 93ED037A 		flds	s14, [r3, #12]
 886 0020 DDED027A 		flds	s15, [sp, #8]
 887 0024 67EE277A 		fmuls	s15, s14, s15
 888 0028 CDED037A 		fsts	s15, [sp, #12]
 889              		.loc 7 76 0
 890 002c 019B     		ldr	r3, [sp, #4]
 891 002e 93ED007A 		flds	s14, [r3]
ARM GAS  /tmp/ccWQ6gKG.s 			page 17


 892 0032 019B     		ldr	r3, [sp, #4]
 893 0034 D3ED046A 		flds	s13, [r3, #16]
 894 0038 DDED027A 		flds	s15, [sp, #8]
 895 003c 66EEA77A 		fmuls	s15, s13, s15
 896 0040 77EE277A 		fadds	s15, s14, s15
 897 0044 019B     		ldr	r3, [sp, #4]
 898 0046 C3ED007A 		fsts	s15, [r3]
 899              		.loc 7 77 0
 900 004a 019B     		ldr	r3, [sp, #4]
 901 004c D3ED007A 		flds	s15, [r3]
 902 0050 9DED037A 		flds	s14, [sp, #12]
 903 0054 77EE277A 		fadds	s15, s14, s15
 904 0058 CDED037A 		fsts	s15, [sp, #12]
 905              		.loc 7 80 0
 906 005c 019B     		ldr	r3, [sp, #4]
 907 005e 93ED057A 		flds	s14, [r3, #20]
 908 0062 019B     		ldr	r3, [sp, #4]
 909 0064 D3ED017A 		flds	s15, [r3, #4]
 910 0068 DDED026A 		flds	s13, [sp, #8]
 911 006c 76EEE77A 		fsubs	s15, s13, s15
 912 0070 67EE277A 		fmuls	s15, s14, s15
 913 0074 9DED037A 		flds	s14, [sp, #12]
 914 0078 77EE277A 		fadds	s15, s14, s15
 915 007c CDED037A 		fsts	s15, [sp, #12]
 916              		.loc 7 81 0
 917 0080 019B     		ldr	r3, [sp, #4]
 918 0082 029A     		ldr	r2, [sp, #8]	@ float
 919 0084 5A60     		str	r2, [r3, #4]	@ float
 920              		.loc 7 84 0
 921 0086 019B     		ldr	r3, [sp, #4]
 922 0088 93ED077A 		flds	s14, [r3, #28]
 923 008c DDED037A 		flds	s15, [sp, #12]
 924 0090 B4EEE77A 		fcmpes	s14, s15
 925 0094 F1EE10FA 		fmstat
 926 0098 12D5     		bpl	.L55
 927              		.loc 7 85 0
 928 009a 019B     		ldr	r3, [sp, #4]
 929 009c DB69     		ldr	r3, [r3, #28]	@ float
 930 009e 0393     		str	r3, [sp, #12]	@ float
 931              		.loc 7 87 0
 932 00a0 019B     		ldr	r3, [sp, #4]
 933 00a2 93ED007A 		flds	s14, [r3]
 934 00a6 019B     		ldr	r3, [sp, #4]
 935 00a8 D3ED046A 		flds	s13, [r3, #16]
 936 00ac DDED027A 		flds	s15, [sp, #8]
 937 00b0 66EEA77A 		fmuls	s15, s13, s15
 938 00b4 77EE677A 		fsubs	s15, s14, s15
 939 00b8 019B     		ldr	r3, [sp, #4]
 940 00ba C3ED007A 		fsts	s15, [r3]
 941 00be 1BE0     		b	.L50
 942              	.L55:
 943              		.loc 7 88 0
 944 00c0 019B     		ldr	r3, [sp, #4]
 945 00c2 93ED067A 		flds	s14, [r3, #24]
 946 00c6 DDED037A 		flds	s15, [sp, #12]
 947 00ca B4EEE77A 		fcmpes	s14, s15
 948 00ce F1EE10FA 		fmstat
ARM GAS  /tmp/ccWQ6gKG.s 			page 18


 949 00d2 11DD     		ble	.L50
 950              		.loc 7 89 0
 951 00d4 019B     		ldr	r3, [sp, #4]
 952 00d6 9B69     		ldr	r3, [r3, #24]	@ float
 953 00d8 0393     		str	r3, [sp, #12]	@ float
 954              		.loc 7 91 0
 955 00da 019B     		ldr	r3, [sp, #4]
 956 00dc 93ED007A 		flds	s14, [r3]
 957 00e0 019B     		ldr	r3, [sp, #4]
 958 00e2 D3ED046A 		flds	s13, [r3, #16]
 959 00e6 DDED027A 		flds	s15, [sp, #8]
 960 00ea 66EEA77A 		fmuls	s15, s13, s15
 961 00ee 77EE677A 		fsubs	s15, s14, s15
 962 00f2 019B     		ldr	r3, [sp, #4]
 963 00f4 C3ED007A 		fsts	s15, [r3]
 964              	.L50:
 965              		.loc 7 94 0
 966 00f8 039B     		ldr	r3, [sp, #12]	@ float
 967 00fa 07EE903A 		fmsr	s15, r3
 968              	.LBE44:
 969              		.loc 7 95 0
 970 00fe B0EE670A 		fcpys	s0, s15
 971 0102 04B0     		add	sp, sp, #16
 972              		.cfi_def_cfa_offset 0
 973              		@ sp needed
 974 0104 7047     		bx	lr
 975              		.cfi_endproc
 976              	.LFE601:
 977              		.size	_ZN3PID6updateEf, .-_ZN3PID6updateEf
 978              		.global	pwm
 979 0106 00BFAFF3 		.section	.bss.pwm,"aw",%nobits
 979      0080AFF3 
 979      0080
 980              		.align	1
 981              		.type	pwm, %object
 982              		.size	pwm, 2
 983              	pwm:
 984 0000 0000     		.space	2
 985              		.section	.text._ZL5pwmcbP9PWMDriver,"ax",%progbits
 986              		.align	2
 987              		.p2align 4,,15
 988              		.thumb
 989              		.thumb_func
 990              		.type	_ZL5pwmcbP9PWMDriver, %function
 991              	_ZL5pwmcbP9PWMDriver:
 992              	.LFB602:
 993              		.file 8 "nodes/pid_node.cpp"
 994              		.loc 8 15 0
 995              		.cfi_startproc
 996              		@ args = 0, pretend = 0, frame = 8
 997              		@ frame_needed = 0, uses_anonymous_args = 0
 998 0000 00B5     		push	{lr}
 999              		.cfi_def_cfa_offset 4
 1000              		.cfi_offset 14, -4
 1001 0002 83B0     		sub	sp, sp, #12
 1002              		.cfi_def_cfa_offset 16
 1003 0004 0190     		str	r0, [sp, #4]
ARM GAS  /tmp/ccWQ6gKG.s 			page 19


 1004              	.LBB45:
 1005              	.LBB46:
 1006              	.LBB47:
 1007              		.loc 8 18 0
 1008 0006 2023     		movs	r3, #32
 1009              	@ 18 "nodes/pid_node.cpp" 1
 1010 0008 83F31188 		msr     BASEPRI, r3
 1011              	@ 0 "" 2
 1012              		.thumb
 1013              	.LBE47:
 1014 000c FFF7FEFF 		bl	dbg_check_lock_from_isr
 1015              	.LBE46:
 1016              		.loc 8 20 0
 1017 0010 144B     		ldr	r3, .L59
 1018 0012 1B88     		ldrh	r3, [r3]
 1019 0014 1BB2     		sxth	r3, r3
 1020 0016 002B     		cmp	r3, #0
 1021 0018 0DDB     		blt	.L57
 1022              		.loc 8 21 0
 1023 001a 124B     		ldr	r3, .L59
 1024 001c 1B88     		ldrh	r3, [r3]
 1025 001e 9BB2     		uxth	r3, r3
 1026 0020 1148     		ldr	r0, .L59+4
 1027 0022 0021     		movs	r1, #0
 1028 0024 1A46     		mov	r2, r3
 1029 0026 FFF7FEFF 		bl	pwm_lld_enable_channel
 1030              		.loc 8 22 0
 1031 002a 0F48     		ldr	r0, .L59+4
 1032 002c 0121     		movs	r1, #1
 1033 002e 0022     		movs	r2, #0
 1034 0030 FFF7FEFF 		bl	pwm_lld_enable_channel
 1035 0034 0EE0     		b	.L58
 1036              	.L57:
 1037              		.loc 8 24 0
 1038 0036 0C48     		ldr	r0, .L59+4
 1039 0038 0021     		movs	r1, #0
 1040 003a 0022     		movs	r2, #0
 1041 003c FFF7FEFF 		bl	pwm_lld_enable_channel
 1042              		.loc 8 25 0
 1043 0040 084B     		ldr	r3, .L59
 1044 0042 1B88     		ldrh	r3, [r3]
 1045 0044 9BB2     		uxth	r3, r3
 1046 0046 5B42     		negs	r3, r3
 1047 0048 9BB2     		uxth	r3, r3
 1048 004a 0748     		ldr	r0, .L59+4
 1049 004c 0121     		movs	r1, #1
 1050 004e 1A46     		mov	r2, r3
 1051 0050 FFF7FEFF 		bl	pwm_lld_enable_channel
 1052              	.L58:
 1053              	.LBB48:
 1054              		.loc 8 27 0
 1055 0054 FFF7FEFF 		bl	dbg_check_unlock_from_isr
 1056              	.LBB49:
 1057 0058 0023     		movs	r3, #0
 1058              	@ 27 "nodes/pid_node.cpp" 1
 1059 005a 83F31188 		msr     BASEPRI, r3
 1060              	@ 0 "" 2
ARM GAS  /tmp/ccWQ6gKG.s 			page 20


 1061              		.thumb
 1062              	.LBE49:
 1063              	.LBE48:
 1064              	.LBE45:
 1065              		.loc 8 28 0
 1066 005e 03B0     		add	sp, sp, #12
 1067              		.cfi_def_cfa_offset 4
 1068              		@ sp needed
 1069 0060 5DF804FB 		ldr	pc, [sp], #4
 1070              	.L60:
 1071              		.align	2
 1072              	.L59:
 1073 0064 00000000 		.word	pwm
 1074 0068 00000000 		.word	PWMD1
 1075              		.cfi_endproc
 1076              	.LFE602:
 1077              		.size	_ZL5pwmcbP9PWMDriver, .-_ZL5pwmcbP9PWMDriver
 1078 006c AFF30080 		.section	.data._ZL6pwmcfg,"aw",%progbits
 1079              		.align	2
 1080              		.type	_ZL6pwmcfg, %object
 1081              		.size	_ZL6pwmcfg, 52
 1082              	_ZL6pwmcfg:
 1083 0000 00512502 		.word	36000000
 1084 0004 0010     		.short	4096
 1085 0006 0000     		.space	2
 1086 0008 00000000 		.word	_ZL5pwmcbP9PWMDriver
 1087 000c 01000000 		.word	1
 1088 0010 00000000 		.word	0
 1089 0014 01000000 		.word	1
 1090 0018 00000000 		.word	0
 1091 001c 00000000 		.word	0
 1092 0020 00000000 		.word	0
 1093 0024 00000000 		.word	0
 1094 0028 00000000 		.word	0
 1095 002c 00000000 		.word	0
 1096 0030 00000000 		.word	0
 1097              		.global	speed_pid
 1098              		.section	.bss.speed_pid,"aw",%nobits
 1099              		.align	2
 1100              		.type	speed_pid, %object
 1101              		.size	speed_pid, 32
 1102              	speed_pid:
 1103 0000 00000000 		.space	32
 1103      00000000 
 1103      00000000 
 1103      00000000 
 1103      00000000 
 1104              		.section	.text._Z12enc_callbackRKN3r2p10EncoderMsgE,"ax",%progbits
 1105              		.align	2
 1106              		.p2align 4,,15
 1107              		.global	_Z12enc_callbackRKN3r2p10EncoderMsgE
 1108              		.thumb
 1109              		.thumb_func
 1110              		.type	_Z12enc_callbackRKN3r2p10EncoderMsgE, %function
 1111              	_Z12enc_callbackRKN3r2p10EncoderMsgE:
 1112              	.LFB603:
 1113              		.loc 8 43 0
ARM GAS  /tmp/ccWQ6gKG.s 			page 21


 1114              		.cfi_startproc
 1115              		@ args = 0, pretend = 0, frame = 8
 1116              		@ frame_needed = 0, uses_anonymous_args = 0
 1117 0000 00B5     		push	{lr}
 1118              		.cfi_def_cfa_offset 4
 1119              		.cfi_offset 14, -4
 1120 0002 83B0     		sub	sp, sp, #12
 1121              		.cfi_def_cfa_offset 16
 1122 0004 0190     		str	r0, [sp, #4]
 1123              	.LBB50:
 1124              		.loc 8 45 0
 1125 0006 019B     		ldr	r3, [sp, #4]
 1126 0008 D3F80230 		ldr	r3, [r3, #2]	@ unaligned
 1127 000c DFED237A 		flds	s15, .L65
 1128 0010 07EE103A 		fmsr	s14, r3
 1129 0014 67EE277A 		fmuls	s15, s14, s15
 1130 0018 2148     		ldr	r0, .L65+4
 1131 001a B0EE670A 		fcpys	s0, s15
 1132 001e FFF7FEFF 		bl	_ZN3PID6updateEf
 1133 0022 F0EE407A 		fcpys	s15, s0
 1134 0026 FDEEE77A 		ftosizs	s15, s15
 1135 002a CDED007A 		fsts	s15, [sp]	@ int
 1136 002e BDF80030 		ldrh	r3, [sp]	@ movhi
 1137 0032 9AB2     		uxth	r2, r3
 1138 0034 1B4B     		ldr	r3, .L65+8
 1139 0036 1A80     		strh	r2, [r3]	@ movhi
 1140              	.LBB51:
 1141              	.LBB52:
 1142              		.loc 8 47 0
 1143 0038 2023     		movs	r3, #32
 1144              	@ 47 "nodes/pid_node.cpp" 1
 1145 003a 83F31188 		msr     BASEPRI, r3
 1146              	@ 0 "" 2
 1147              		.thumb
 1148              	.LBE52:
 1149 003e FFF7FEFF 		bl	dbg_check_lock
 1150              	.LBE51:
 1151              		.loc 8 49 0
 1152 0042 184B     		ldr	r3, .L65+8
 1153 0044 1B88     		ldrh	r3, [r3]
 1154 0046 1BB2     		sxth	r3, r3
 1155 0048 002B     		cmp	r3, #0
 1156 004a 0DDD     		ble	.L62
 1157              		.loc 8 50 0
 1158 004c 154B     		ldr	r3, .L65+8
 1159 004e 1B88     		ldrh	r3, [r3]
 1160 0050 9BB2     		uxth	r3, r3
 1161 0052 1548     		ldr	r0, .L65+12
 1162 0054 0121     		movs	r1, #1
 1163 0056 1A46     		mov	r2, r3
 1164 0058 FFF7FEFF 		bl	pwm_lld_enable_channel
 1165              		.loc 8 51 0
 1166 005c 1248     		ldr	r0, .L65+12
 1167 005e 0021     		movs	r1, #0
 1168 0060 0022     		movs	r2, #0
 1169 0062 FFF7FEFF 		bl	pwm_lld_enable_channel
 1170 0066 0EE0     		b	.L63
ARM GAS  /tmp/ccWQ6gKG.s 			page 22


 1171              	.L62:
 1172              		.loc 8 53 0
 1173 0068 0F48     		ldr	r0, .L65+12
 1174 006a 0121     		movs	r1, #1
 1175 006c 0022     		movs	r2, #0
 1176 006e FFF7FEFF 		bl	pwm_lld_enable_channel
 1177              		.loc 8 54 0
 1178 0072 0C4B     		ldr	r3, .L65+8
 1179 0074 1B88     		ldrh	r3, [r3]
 1180 0076 9BB2     		uxth	r3, r3
 1181 0078 5B42     		negs	r3, r3
 1182 007a 9BB2     		uxth	r3, r3
 1183 007c 0A48     		ldr	r0, .L65+12
 1184 007e 0021     		movs	r1, #0
 1185 0080 1A46     		mov	r2, r3
 1186 0082 FFF7FEFF 		bl	pwm_lld_enable_channel
 1187              	.L63:
 1188              	.LBB53:
 1189              		.loc 8 56 0
 1190 0086 FFF7FEFF 		bl	dbg_check_unlock
 1191              	.LBB54:
 1192 008a 0023     		movs	r3, #0
 1193              	@ 56 "nodes/pid_node.cpp" 1
 1194 008c 83F31188 		msr     BASEPRI, r3
 1195              	@ 0 "" 2
 1196              		.thumb
 1197              	.LBE54:
 1198              	.LBE53:
 1199              		.loc 8 58 0
 1200 0090 0123     		movs	r3, #1
 1201              	.LBE50:
 1202              		.loc 8 59 0
 1203 0092 1846     		mov	r0, r3
 1204 0094 03B0     		add	sp, sp, #12
 1205              		.cfi_def_cfa_offset 4
 1206              		@ sp needed
 1207 0096 5DF804FB 		ldr	pc, [sp], #4
 1208              	.L66:
 1209 009a 00BF     		.align	2
 1210              	.L65:
 1211 009c 00004842 		.word	1112014848
 1212 00a0 00000000 		.word	speed_pid
 1213 00a4 00000000 		.word	pwm
 1214 00a8 00000000 		.word	PWMD1
 1215              		.cfi_endproc
 1216              	.LFE603:
 1217              		.size	_Z12enc_callbackRKN3r2p10EncoderMsgE, .-_Z12enc_callbackRKN3r2p10EncoderMsgE
 1218 00ac AFF30080 		.section	.rodata
 1219 000d 000000   		.align	2
 1220              	.LC1:
 1221 0010 70696400 		.ascii	"pid\000"
 1222              		.align	2
 1223              	.LC2:
 1224 0014 73706565 		.ascii	"speed3\000"
 1224      643300
 1225 001b 00       		.align	2
 1226              	.LC3:
ARM GAS  /tmp/ccWQ6gKG.s 			page 23


 1227 001c 70696463 		.ascii	"pidcfg\000"
 1227      666700
 1228 0023 00       		.section	.text._Z8pid_nodePv,"ax",%progbits
 1229              		.align	2
 1230              		.p2align 4,,15
 1231              		.global	_Z8pid_nodePv
 1232              		.thumb
 1233              		.thumb_func
 1234              		.type	_Z8pid_nodePv, %function
 1235              	_Z8pid_nodePv:
 1236              	.LFB604:
 1237              		.loc 8 61 0
 1238              		.cfi_startproc
 1239              		@ args = 0, pretend = 0, frame = 480
 1240              		@ frame_needed = 0, uses_anonymous_args = 0
 1241 0000 00B5     		push	{lr}
 1242              		.cfi_def_cfa_offset 4
 1243              		.cfi_offset 14, -4
 1244 0002 F9B0     		sub	sp, sp, #484
 1245              		.cfi_def_cfa_offset 488
 1246 0004 01AB     		add	r3, sp, #4
 1247 0006 1860     		str	r0, [r3]
 1248              	.LBB55:
 1249              		.loc 8 62 0
 1250 0008 01AB     		add	r3, sp, #4
 1251 000a 1B68     		ldr	r3, [r3]
 1252 000c 7793     		str	r3, [sp, #476]
 1253              		.loc 8 63 0
 1254 000e 779B     		ldr	r3, [sp, #476]
 1255 0010 0C33     		adds	r3, r3, #12
 1256 0012 7693     		str	r3, [sp, #472]
 1257              		.loc 8 64 0
 1258 0014 779B     		ldr	r3, [sp, #476]
 1259 0016 1B68     		ldr	r3, [r3]
 1260 0018 6AAA     		add	r2, sp, #424
 1261 001a 1046     		mov	r0, r2
 1262 001c 1946     		mov	r1, r3
 1263 001e 0122     		movs	r2, #1
 1264 0020 FFF7FEFF 		bl	_ZN3r2p4NodeC1EPKcb
 1265              		.loc 8 65 0
 1266 0024 1DAB     		add	r3, sp, #116
 1267 0026 1846     		mov	r0, r3
 1268 0028 0021     		movs	r1, #0
 1269 002a FFF7FEFF 		bl	_ZN3r2p10SubscriberINS_9Speed3MsgELj5EEC1EPFbRKS1_E
 1270              		.loc 8 66 0
 1271 002e 02AB     		add	r3, sp, #8
 1272 0030 1846     		mov	r0, r3
 1273 0032 6E49     		ldr	r1, .L73
 1274 0034 FFF7FEFF 		bl	_ZN3r2p10SubscriberINS_10EncoderMsgELj5EEC1EPFbRKS1_E
 1275              		.loc 8 67 0
 1276 0038 42AB     		add	r3, sp, #264
 1277 003a 1846     		mov	r0, r3
 1278 003c 0021     		movs	r1, #0
 1279 003e FFF7FEFF 		bl	_ZN3r2p10SubscriberINS_9PIDCfgMsgELj5EEC1EPFbRKS1_E
 1280              		.loc 8 70 0
 1281 0042 67AB     		add	r3, sp, #412
 1282 0044 1846     		mov	r0, r3
ARM GAS  /tmp/ccWQ6gKG.s 			page 24


 1283 0046 0021     		movs	r1, #0
 1284 0048 FFF7FEFF 		bl	_ZN3r2p4TimeC1IiEET_
 1285              		.loc 8 73 0
 1286 004c 684B     		ldr	r3, .L73+4
 1287 004e 9B69     		ldr	r3, [r3, #24]
 1288 0050 684A     		ldr	r2, .L73+8
 1289 0052 9A61     		str	r2, [r3, #24]
 1290              		.loc 8 75 0
 1291 0054 769B     		ldr	r3, [sp, #472]
 1292 0056 93ED006A 		flds	s12, [r3]
 1293 005a 769B     		ldr	r3, [sp, #472]
 1294 005c D3ED016A 		flds	s13, [r3, #4]
 1295 0060 769B     		ldr	r3, [sp, #472]
 1296 0062 93ED027A 		flds	s14, [r3, #8]
 1297 0066 769B     		ldr	r3, [sp, #472]
 1298 0068 D3ED037A 		flds	s15, [r3, #12]
 1299 006c 6248     		ldr	r0, .L73+12
 1300 006e B0EE460A 		fcpys	s0, s12
 1301 0072 F0EE660A 		fcpys	s1, s13
 1302 0076 B0EE471A 		fcpys	s2, s14
 1303 007a F0EE671A 		fcpys	s3, s15
 1304 007e 9FED5F2A 		flds	s4, .L73+16
 1305 0082 DFED5F2A 		flds	s5, .L73+20
 1306 0086 FFF7FEFF 		bl	_ZN3PID6configEffffff
 1307              		.loc 8 78 0
 1308 008a 5E4B     		ldr	r3, .L73+24
 1309 008c 0122     		movs	r2, #1
 1310 008e 1A83     		strh	r2, [r3, #24]	@ movhi
 1311 0090 4FF09043 		mov	r3, #1207959552
 1312 0094 4FF40062 		mov	r2, #2048
 1313 0098 5A83     		strh	r2, [r3, #26]	@ movhi
 1314              		.loc 8 79 0
 1315 009a 4FF4FA70 		mov	r0, #500
 1316 009e FFF7FEFF 		bl	chThdSleep
 1317              		.loc 8 80 0
 1318 00a2 5948     		ldr	r0, .L73+28
 1319 00a4 5949     		ldr	r1, .L73+32
 1320 00a6 FFF7FEFF 		bl	pwmStart
 1321              		.loc 8 82 0
 1322 00aa 6AAA     		add	r2, sp, #424
 1323 00ac 1DAB     		add	r3, sp, #116
 1324 00ae 1046     		mov	r0, r2
 1325 00b0 1946     		mov	r1, r3
 1326 00b2 574A     		ldr	r2, .L73+36
 1327 00b4 FFF7FEFF 		bl	_ZN3r2p4Node9subscribeINS_9Speed3MsgELj5EEEbRNS_10SubscriberIT_XT0_EEEPKc
 1328              		.loc 8 83 0
 1329 00b8 779B     		ldr	r3, [sp, #476]
 1330 00ba 5B68     		ldr	r3, [r3, #4]
 1331 00bc 6AA9     		add	r1, sp, #424
 1332 00be 02AA     		add	r2, sp, #8
 1333 00c0 0846     		mov	r0, r1
 1334 00c2 1146     		mov	r1, r2
 1335 00c4 1A46     		mov	r2, r3
 1336 00c6 FFF7FEFF 		bl	_ZN3r2p4Node9subscribeINS_10EncoderMsgELj5EEEbRNS_10SubscriberIT_XT0_EEEPKc
 1337              		.loc 8 84 0
 1338 00ca 6AAA     		add	r2, sp, #424
 1339 00cc 42AB     		add	r3, sp, #264
ARM GAS  /tmp/ccWQ6gKG.s 			page 25


 1340 00ce 1046     		mov	r0, r2
 1341 00d0 1946     		mov	r1, r3
 1342 00d2 504A     		ldr	r2, .L73+40
 1343 00d4 FFF7FEFF 		bl	_ZN3r2p4Node9subscribeINS_9PIDCfgMsgELj5EEEbRNS_10SubscriberIT_XT0_EEEPKc
 1344              	.L72:
 1345              		.loc 8 88 0
 1346 00d8 42AA     		add	r2, sp, #264
 1347 00da 68AB     		add	r3, sp, #416
 1348 00dc 1046     		mov	r0, r2
 1349 00de 1946     		mov	r1, r3
 1350 00e0 FFF7FEFF 		bl	_ZN3r2p16SubscriberExtBufINS_9PIDCfgMsgEE5fetchERPS1_
 1351 00e4 0346     		mov	r3, r0
 1352 00e6 002B     		cmp	r3, #0
 1353 00e8 21D0     		beq	.L68
 1354              		.loc 8 89 0
 1355 00ea 689B     		ldr	r3, [sp, #416]
 1356 00ec D3F80210 		ldr	r1, [r3, #2]	@ unaligned
 1357 00f0 0B46     		mov	r3, r1
 1358 00f2 1946     		mov	r1, r3	@ float
 1359 00f4 689B     		ldr	r3, [sp, #416]
 1360 00f6 D3F80620 		ldr	r2, [r3, #6]	@ unaligned
 1361 00fa 1346     		mov	r3, r2
 1362 00fc 1A46     		mov	r2, r3	@ float
 1363 00fe 689B     		ldr	r3, [sp, #416]
 1364 0100 D3F80A30 		ldr	r3, [r3, #10]	@ unaligned
 1365 0104 3C48     		ldr	r0, .L73+12
 1366 0106 00EE101A 		fmsr	s0, r1
 1367 010a 00EE902A 		fmsr	s1, r2
 1368 010e 01EE103A 		fmsr	s2, r3
 1369 0112 DFED411A 		flds	s3, .L73+44
 1370 0116 9FED392A 		flds	s4, .L73+16
 1371 011a DFED392A 		flds	s5, .L73+20
 1372 011e FFF7FEFF 		bl	_ZN3PID6configEffffff
 1373              		.loc 8 90 0
 1374 0122 689B     		ldr	r3, [sp, #416]
 1375 0124 42AA     		add	r2, sp, #264
 1376 0126 1046     		mov	r0, r2
 1377 0128 1946     		mov	r1, r3
 1378 012a FFF7FEFF 		bl	_ZN3r2p16SubscriberExtBufINS_9PIDCfgMsgEE7releaseERS1_
 1379              	.L68:
 1380              		.loc 8 93 0
 1381 012e 71AB     		add	r3, sp, #452
 1382 0130 1846     		mov	r0, r3
 1383 0132 4FF47A71 		mov	r1, #1000
 1384 0136 FFF7FEFF 		bl	_ZN3r2p4Time2msEl
 1385 013a 6AAA     		add	r2, sp, #424
 1386 013c 71AB     		add	r3, sp, #452
 1387 013e 1046     		mov	r0, r2
 1388 0140 1946     		mov	r1, r3
 1389 0142 FFF7FEFF 		bl	_ZN3r2p4Node4spinERKNS_4TimeE
 1390 0146 0346     		mov	r3, r0
 1391 0148 002B     		cmp	r3, #0
 1392 014a 46D0     		beq	.L69
 1393              		.loc 8 95 0
 1394 014c 1DAA     		add	r2, sp, #116
 1395 014e 69AB     		add	r3, sp, #420
 1396 0150 1046     		mov	r0, r2
ARM GAS  /tmp/ccWQ6gKG.s 			page 26


 1397 0152 1946     		mov	r1, r3
 1398 0154 FFF7FEFF 		bl	_ZN3r2p16SubscriberExtBufINS_9Speed3MsgEE5fetchERPS1_
 1399 0158 0346     		mov	r3, r0
 1400 015a 002B     		cmp	r3, #0
 1401 015c 1CD0     		beq	.L70
 1402              		.loc 8 96 0
 1403 015e 699A     		ldr	r2, [sp, #420]
 1404 0160 779B     		ldr	r3, [sp, #476]
 1405 0162 1B7A     		ldrb	r3, [r3, #8]	@ zero_extendqisi2
 1406 0164 9B00     		lsls	r3, r3, #2
 1407 0166 1344     		add	r3, r3, r2
 1408 0168 D3F80230 		ldr	r3, [r3, #2]	@ unaligned
 1409 016c 2248     		ldr	r0, .L73+12
 1410 016e 00EE103A 		fmsr	s0, r3
 1411 0172 FFF7FEFF 		bl	_ZN3PID3setEf
 1412              		.loc 8 97 0
 1413 0176 72AB     		add	r3, sp, #456
 1414 0178 1846     		mov	r0, r3
 1415 017a FFF7FEFF 		bl	_ZN3r2p4Time3nowEv
 1416 017e 67AA     		add	r2, sp, #412
 1417 0180 72AB     		add	r3, sp, #456
 1418 0182 1046     		mov	r0, r2
 1419 0184 1946     		mov	r1, r3
 1420 0186 FFF7FEFF 		bl	_ZN3r2p4TimeaSERKS0_
 1421              		.loc 8 98 0
 1422 018a 699B     		ldr	r3, [sp, #420]
 1423 018c 1DAA     		add	r2, sp, #116
 1424 018e 1046     		mov	r0, r2
 1425 0190 1946     		mov	r1, r3
 1426 0192 FFF7FEFF 		bl	_ZN3r2p16SubscriberExtBufINS_9Speed3MsgEE7releaseERS1_
 1427 0196 9FE7     		b	.L72
 1428              	.L70:
 1429              		.loc 8 99 0
 1430 0198 74AB     		add	r3, sp, #464
 1431 019a 1846     		mov	r0, r3
 1432 019c FFF7FEFF 		bl	_ZN3r2p4Time3nowEv
 1433 01a0 73A9     		add	r1, sp, #460
 1434 01a2 74AA     		add	r2, sp, #464
 1435 01a4 67AB     		add	r3, sp, #412
 1436 01a6 0846     		mov	r0, r1
 1437 01a8 1146     		mov	r1, r2
 1438 01aa 1A46     		mov	r2, r3
 1439 01ac FFF7FEFF 		bl	_ZN3r2pmiERKNS_4TimeES2_
 1440 01b0 75AB     		add	r3, sp, #468
 1441 01b2 1846     		mov	r0, r3
 1442 01b4 4FF47A71 		mov	r1, #1000
 1443 01b8 FFF7FEFF 		bl	_ZN3r2p4Time2msEl
 1444 01bc 73AA     		add	r2, sp, #460
 1445 01be 75AB     		add	r3, sp, #468
 1446 01c0 1046     		mov	r0, r2
 1447 01c2 1946     		mov	r1, r3
 1448 01c4 FFF7FEFF 		bl	_ZN3r2pgtERKNS_4TimeES2_
 1449 01c8 0346     		mov	r3, r0
 1450 01ca 002B     		cmp	r3, #0
 1451 01cc 84D0     		beq	.L72
 1452              		.loc 8 101 0
 1453 01ce 0A48     		ldr	r0, .L73+12
ARM GAS  /tmp/ccWQ6gKG.s 			page 27


 1454 01d0 9FED120A 		flds	s0, .L73+48
 1455 01d4 FFF7FEFF 		bl	_ZN3PID3setEf
 1456 01d8 7EE7     		b	.L72
 1457              	.L69:
 1458              		.loc 8 105 0
 1459 01da 0B48     		ldr	r0, .L73+28
 1460 01dc 0021     		movs	r1, #0
 1461 01de FFF7FEFF 		bl	pwm_lld_disable_channel
 1462              		.loc 8 106 0
 1463 01e2 0948     		ldr	r0, .L73+28
 1464 01e4 0121     		movs	r1, #1
 1465 01e6 FFF7FEFF 		bl	pwm_lld_disable_channel
 1466 01ea 75E7     		b	.L72
 1467              	.L74:
 1468              		.align	2
 1469              	.L73:
 1470 01ec 00000000 		.word	_Z12enc_callbackRKN3r2p10EncoderMsgE
 1471 01f0 00000000 		.word	rlist
 1472 01f4 10000000 		.word	.LC1
 1473 01f8 00000000 		.word	speed_pid
 1474 01fc 00F07FC5 		.word	-981471232
 1475 0200 00F07F45 		.word	1166012416
 1476 0204 00040048 		.word	1207960576
 1477 0208 00000000 		.word	PWMD1
 1478 020c 00000000 		.word	_ZL6pwmcfg
 1479 0210 14000000 		.word	.LC2
 1480 0214 1C000000 		.word	.LC3
 1481 0218 0AD7A33C 		.word	1017370378
 1482 021c 00000000 		.word	0
 1483              	.LBE55:
 1484              		.cfi_endproc
 1485              	.LFE604:
 1486              		.size	_Z8pid_nodePv, .-_Z8pid_nodePv
 1487              		.section	.text._ZN3r2p4TimeC2IlEET_,"axG",%progbits,_ZN3r2p4TimeC5IlEET_,comdat
 1488              		.align	2
 1489              		.p2align 4,,15
 1490              		.weak	_ZN3r2p4TimeC2IlEET_
 1491              		.thumb
 1492              		.thumb_func
 1493              		.type	_ZN3r2p4TimeC2IlEET_, %function
 1494              	_ZN3r2p4TimeC2IlEET_:
 1495              	.LFB606:
 1496              		.loc 1 159 0
 1497              		.cfi_startproc
 1498              		@ args = 0, pretend = 0, frame = 8
 1499              		@ frame_needed = 0, uses_anonymous_args = 0
 1500              		@ link register save eliminated.
 1501 0000 82B0     		sub	sp, sp, #8
 1502              		.cfi_def_cfa_offset 8
 1503 0002 0190     		str	r0, [sp, #4]
 1504 0004 0091     		str	r1, [sp]
 1505              	.LBB56:
 1506              		.loc 1 161 0
 1507 0006 019B     		ldr	r3, [sp, #4]
 1508 0008 009A     		ldr	r2, [sp]
 1509 000a 1A60     		str	r2, [r3]
 1510              	.LBE56:
ARM GAS  /tmp/ccWQ6gKG.s 			page 28


 1511              		.loc 1 162 0
 1512 000c 019B     		ldr	r3, [sp, #4]
 1513 000e 1846     		mov	r0, r3
 1514 0010 02B0     		add	sp, sp, #8
 1515              		.cfi_def_cfa_offset 0
 1516              		@ sp needed
 1517 0012 7047     		bx	lr
 1518              		.cfi_endproc
 1519              	.LFE606:
 1520              		.size	_ZN3r2p4TimeC2IlEET_, .-_ZN3r2p4TimeC2IlEET_
 1521              		.weak	_ZN3r2p4TimeC1IlEET_
 1522              		.thumb_set _ZN3r2p4TimeC1IlEET_,_ZN3r2p4TimeC2IlEET_
 1523 0014 AFF30080 		.section	.text._ZN3r2p4TimeC2IiEET_,"axG",%progbits,_ZN3r2p4TimeC5IiEET_,comdat
 1523      AFF30080 
 1523      AFF30080 
 1524              		.align	2
 1525              		.p2align 4,,15
 1526              		.weak	_ZN3r2p4TimeC2IiEET_
 1527              		.thumb
 1528              		.thumb_func
 1529              		.type	_ZN3r2p4TimeC2IiEET_, %function
 1530              	_ZN3r2p4TimeC2IiEET_:
 1531              	.LFB612:
 1532              		.loc 1 159 0
 1533              		.cfi_startproc
 1534              		@ args = 0, pretend = 0, frame = 8
 1535              		@ frame_needed = 0, uses_anonymous_args = 0
 1536              		@ link register save eliminated.
 1537 0000 82B0     		sub	sp, sp, #8
 1538              		.cfi_def_cfa_offset 8
 1539 0002 0190     		str	r0, [sp, #4]
 1540 0004 0091     		str	r1, [sp]
 1541              	.LBB57:
 1542              		.loc 1 161 0
 1543 0006 019B     		ldr	r3, [sp, #4]
 1544 0008 009A     		ldr	r2, [sp]
 1545 000a 1A60     		str	r2, [r3]
 1546              	.LBE57:
 1547              		.loc 1 162 0
 1548 000c 019B     		ldr	r3, [sp, #4]
 1549 000e 1846     		mov	r0, r3
 1550 0010 02B0     		add	sp, sp, #8
 1551              		.cfi_def_cfa_offset 0
 1552              		@ sp needed
 1553 0012 7047     		bx	lr
 1554              		.cfi_endproc
 1555              	.LFE612:
 1556              		.size	_ZN3r2p4TimeC2IiEET_, .-_ZN3r2p4TimeC2IiEET_
 1557              		.weak	_ZN3r2p4TimeC1IiEET_
 1558              		.thumb_set _ZN3r2p4TimeC1IiEET_,_ZN3r2p4TimeC2IiEET_
 1559 0014 AFF30080 		.section	.text._ZNK3r2p10ArrayQueueIPNS_7MessageEE10get_lengthEv,"axG",%progbits,_ZNK3r2p10ArrayQu
 1559      AFF30080 
 1559      AFF30080 
 1560              		.align	2
 1561              		.p2align 4,,15
 1562              		.weak	_ZNK3r2p10ArrayQueueIPNS_7MessageEE10get_lengthEv
 1563              		.thumb
ARM GAS  /tmp/ccWQ6gKG.s 			page 29


 1564              		.thumb_func
 1565              		.type	_ZNK3r2p10ArrayQueueIPNS_7MessageEE10get_lengthEv, %function
 1566              	_ZNK3r2p10ArrayQueueIPNS_7MessageEE10get_lengthEv:
 1567              	.LFB614:
 1568              		.file 9 "/home/denny/r2p-sdk/core/Middleware/include/r2p/ArrayQueue.hpp"
 1569              		.loc 9 81 0
 1570              		.cfi_startproc
 1571              		@ args = 0, pretend = 0, frame = 8
 1572              		@ frame_needed = 0, uses_anonymous_args = 0
 1573              		@ link register save eliminated.
 1574 0000 82B0     		sub	sp, sp, #8
 1575              		.cfi_def_cfa_offset 8
 1576 0002 0190     		str	r0, [sp, #4]
 1577              		.loc 9 83 0
 1578 0004 019B     		ldr	r3, [sp, #4]
 1579 0006 5B68     		ldr	r3, [r3, #4]
 1580              		.loc 9 84 0
 1581 0008 1846     		mov	r0, r3
 1582 000a 02B0     		add	sp, sp, #8
 1583              		.cfi_def_cfa_offset 0
 1584              		@ sp needed
 1585 000c 7047     		bx	lr
 1586              		.cfi_endproc
 1587              	.LFE614:
 1588              		.size	_ZNK3r2p10ArrayQueueIPNS_7MessageEE10get_lengthEv, .-_ZNK3r2p10ArrayQueueIPNS_7MessageEE10ge
 1589 000e 00BF     		.section	.text._ZN3r2p10ArrayQueueIPNS_7MessageEE12fetch_unsafeERS2_,"axG",%progbits,_ZN3r2p10Arra
 1590              		.align	2
 1591              		.p2align 4,,15
 1592              		.weak	_ZN3r2p10ArrayQueueIPNS_7MessageEE12fetch_unsafeERS2_
 1593              		.thumb
 1594              		.thumb_func
 1595              		.type	_ZN3r2p10ArrayQueueIPNS_7MessageEE12fetch_unsafeERS2_, %function
 1596              	_ZN3r2p10ArrayQueueIPNS_7MessageEE12fetch_unsafeERS2_:
 1597              	.LFB615:
 1598              		.loc 9 52 0
 1599              		.cfi_startproc
 1600              		@ args = 0, pretend = 0, frame = 8
 1601              		@ frame_needed = 0, uses_anonymous_args = 0
 1602              		@ link register save eliminated.
 1603 0000 82B0     		sub	sp, sp, #8
 1604              		.cfi_def_cfa_offset 8
 1605 0002 0190     		str	r0, [sp, #4]
 1606 0004 0091     		str	r1, [sp]
 1607              		.loc 9 54 0
 1608 0006 019B     		ldr	r3, [sp, #4]
 1609 0008 9B68     		ldr	r3, [r3, #8]
 1610 000a 002B     		cmp	r3, #0
 1611 000c 23D0     		beq	.L84
 1612              		.loc 9 55 0
 1613 000e 019B     		ldr	r3, [sp, #4]
 1614 0010 9B68     		ldr	r3, [r3, #8]
 1615 0012 5A1E     		subs	r2, r3, #1
 1616 0014 019B     		ldr	r3, [sp, #4]
 1617 0016 9A60     		str	r2, [r3, #8]
 1618              		.loc 9 56 0
 1619 0018 019B     		ldr	r3, [sp, #4]
 1620 001a DB68     		ldr	r3, [r3, #12]
ARM GAS  /tmp/ccWQ6gKG.s 			page 30


 1621 001c 1A68     		ldr	r2, [r3]
 1622 001e 009B     		ldr	r3, [sp]
 1623 0020 1A60     		str	r2, [r3]
 1624              		.loc 9 57 0
 1625 0022 019B     		ldr	r3, [sp, #4]
 1626 0024 DB68     		ldr	r3, [r3, #12]
 1627 0026 1A1D     		adds	r2, r3, #4
 1628 0028 019B     		ldr	r3, [sp, #4]
 1629 002a DA60     		str	r2, [r3, #12]
 1630 002c 019B     		ldr	r3, [sp, #4]
 1631 002e DA68     		ldr	r2, [r3, #12]
 1632 0030 019B     		ldr	r3, [sp, #4]
 1633 0032 1968     		ldr	r1, [r3]
 1634 0034 019B     		ldr	r3, [sp, #4]
 1635 0036 5B68     		ldr	r3, [r3, #4]
 1636 0038 9B00     		lsls	r3, r3, #2
 1637 003a 0B44     		add	r3, r3, r1
 1638 003c 9A42     		cmp	r2, r3
 1639 003e 2CBF     		ite	cs
 1640 0040 0123     		movcs	r3, #1
 1641 0042 0023     		movcc	r3, #0
 1642 0044 DBB2     		uxtb	r3, r3
 1643 0046 002B     		cmp	r3, #0
 1644 0048 03D0     		beq	.L85
 1645              		.loc 9 58 0
 1646 004a 019B     		ldr	r3, [sp, #4]
 1647 004c 1A68     		ldr	r2, [r3]
 1648 004e 019B     		ldr	r3, [sp, #4]
 1649 0050 DA60     		str	r2, [r3, #12]
 1650              	.L85:
 1651              		.loc 9 60 0
 1652 0052 0123     		movs	r3, #1
 1653 0054 00E0     		b	.L86
 1654              	.L84:
 1655              		.loc 9 62 0
 1656 0056 0023     		movs	r3, #0
 1657              	.L86:
 1658              		.loc 9 63 0
 1659 0058 1846     		mov	r0, r3
 1660 005a 02B0     		add	sp, sp, #8
 1661              		.cfi_def_cfa_offset 0
 1662              		@ sp needed
 1663 005c 7047     		bx	lr
 1664              		.cfi_endproc
 1665              	.LFE615:
 1666              		.size	_ZN3r2p10ArrayQueueIPNS_7MessageEE12fetch_unsafeERS2_, .-_ZN3r2p10ArrayQueueIPNS_7MessageEE1
 1667 005e 00BF     		.section	.text._ZN3r2p10ArrayQueueIPNS_7MessageEE11post_unsafeES2_,"axG",%progbits,_ZN3r2p10ArrayQ
 1668              		.align	2
 1669              		.p2align 4,,15
 1670              		.weak	_ZN3r2p10ArrayQueueIPNS_7MessageEE11post_unsafeES2_
 1671              		.thumb
 1672              		.thumb_func
 1673              		.type	_ZN3r2p10ArrayQueueIPNS_7MessageEE11post_unsafeES2_, %function
 1674              	_ZN3r2p10ArrayQueueIPNS_7MessageEE11post_unsafeES2_:
 1675              	.LFB616:
 1676              		.loc 9 37 0
 1677              		.cfi_startproc
ARM GAS  /tmp/ccWQ6gKG.s 			page 31


 1678              		@ args = 0, pretend = 0, frame = 8
 1679              		@ frame_needed = 0, uses_anonymous_args = 0
 1680              		@ link register save eliminated.
 1681 0000 82B0     		sub	sp, sp, #8
 1682              		.cfi_def_cfa_offset 8
 1683 0002 0190     		str	r0, [sp, #4]
 1684 0004 0091     		str	r1, [sp]
 1685              		.loc 9 39 0
 1686 0006 019B     		ldr	r3, [sp, #4]
 1687 0008 9A68     		ldr	r2, [r3, #8]
 1688 000a 019B     		ldr	r3, [sp, #4]
 1689 000c 5B68     		ldr	r3, [r3, #4]
 1690 000e 9A42     		cmp	r2, r3
 1691 0010 22D2     		bcs	.L88
 1692              		.loc 9 40 0
 1693 0012 019B     		ldr	r3, [sp, #4]
 1694 0014 9B68     		ldr	r3, [r3, #8]
 1695 0016 5A1C     		adds	r2, r3, #1
 1696 0018 019B     		ldr	r3, [sp, #4]
 1697 001a 9A60     		str	r2, [r3, #8]
 1698              		.loc 9 41 0
 1699 001c 019B     		ldr	r3, [sp, #4]
 1700 001e 1B69     		ldr	r3, [r3, #16]
 1701 0020 009A     		ldr	r2, [sp]
 1702 0022 1A60     		str	r2, [r3]
 1703              		.loc 9 42 0
 1704 0024 019B     		ldr	r3, [sp, #4]
 1705 0026 1B69     		ldr	r3, [r3, #16]
 1706 0028 1A1D     		adds	r2, r3, #4
 1707 002a 019B     		ldr	r3, [sp, #4]
 1708 002c 1A61     		str	r2, [r3, #16]
 1709 002e 019B     		ldr	r3, [sp, #4]
 1710 0030 1A69     		ldr	r2, [r3, #16]
 1711 0032 019B     		ldr	r3, [sp, #4]
 1712 0034 1968     		ldr	r1, [r3]
 1713 0036 019B     		ldr	r3, [sp, #4]
 1714 0038 5B68     		ldr	r3, [r3, #4]
 1715 003a 9B00     		lsls	r3, r3, #2
 1716 003c 0B44     		add	r3, r3, r1
 1717 003e 9A42     		cmp	r2, r3
 1718 0040 2CBF     		ite	cs
 1719 0042 0123     		movcs	r3, #1
 1720 0044 0023     		movcc	r3, #0
 1721 0046 DBB2     		uxtb	r3, r3
 1722 0048 002B     		cmp	r3, #0
 1723 004a 03D0     		beq	.L89
 1724              		.loc 9 43 0
 1725 004c 019B     		ldr	r3, [sp, #4]
 1726 004e 1A68     		ldr	r2, [r3]
 1727 0050 019B     		ldr	r3, [sp, #4]
 1728 0052 1A61     		str	r2, [r3, #16]
 1729              	.L89:
 1730              		.loc 9 45 0
 1731 0054 0123     		movs	r3, #1
 1732 0056 00E0     		b	.L90
 1733              	.L88:
 1734              		.loc 9 47 0
ARM GAS  /tmp/ccWQ6gKG.s 			page 32


 1735 0058 0023     		movs	r3, #0
 1736              	.L90:
 1737              		.loc 9 48 0
 1738 005a 1846     		mov	r0, r3
 1739 005c 02B0     		add	sp, sp, #8
 1740              		.cfi_def_cfa_offset 0
 1741              		@ sp needed
 1742 005e 7047     		bx	lr
 1743              		.cfi_endproc
 1744              	.LFE616:
 1745              		.size	_ZN3r2p10ArrayQueueIPNS_7MessageEE11post_unsafeES2_, .-_ZN3r2p10ArrayQueueIPNS_7MessageEE11p
 1746              		.section	.text._ZN3r2p9Speed3MsgC2Ev,"axG",%progbits,_ZN3r2p9Speed3MsgC5Ev,comdat
 1747              		.align	2
 1748              		.p2align 4,,15
 1749              		.weak	_ZN3r2p9Speed3MsgC2Ev
 1750              		.thumb
 1751              		.thumb_func
 1752              		.type	_ZN3r2p9Speed3MsgC2Ev, %function
 1753              	_ZN3r2p9Speed3MsgC2Ev:
 1754              	.LFB628:
 1755              		.file 10 "/home/denny/r2p-sdk/core/Middleware/include/r2p/msg/motor.hpp"
 1756              		.loc 10 35 0
 1757              		.cfi_startproc
 1758              		@ args = 0, pretend = 0, frame = 8
 1759              		@ frame_needed = 0, uses_anonymous_args = 0
 1760 0000 00B5     		push	{lr}
 1761              		.cfi_def_cfa_offset 4
 1762              		.cfi_offset 14, -4
 1763 0002 83B0     		sub	sp, sp, #12
 1764              		.cfi_def_cfa_offset 16
 1765 0004 0190     		str	r0, [sp, #4]
 1766              	.LBB58:
 1767              		.loc 10 35 0
 1768 0006 019B     		ldr	r3, [sp, #4]
 1769 0008 1846     		mov	r0, r3
 1770 000a FFF7FEFF 		bl	_ZN3r2p7MessageC2Ev
 1771              	.LBE58:
 1772 000e 019B     		ldr	r3, [sp, #4]
 1773 0010 1846     		mov	r0, r3
 1774 0012 03B0     		add	sp, sp, #12
 1775              		.cfi_def_cfa_offset 4
 1776              		@ sp needed
 1777 0014 5DF804FB 		ldr	pc, [sp], #4
 1778              		.cfi_endproc
 1779              	.LFE628:
 1780              		.size	_ZN3r2p9Speed3MsgC2Ev, .-_ZN3r2p9Speed3MsgC2Ev
 1781              		.weak	_ZN3r2p9Speed3MsgC1Ev
 1782              		.thumb_set _ZN3r2p9Speed3MsgC1Ev,_ZN3r2p9Speed3MsgC2Ev
 1783 0018 AFF30080 		.section	.text._ZN3r2p10SubscriberINS_9Speed3MsgELj5EEC2EPFbRKS1_E,"axG",%progbits,_ZN3r2p10Subscr
 1783      AFF30080 
 1784              		.align	2
 1785              		.p2align 4,,15
 1786              		.weak	_ZN3r2p10SubscriberINS_9Speed3MsgELj5EEC2EPFbRKS1_E
 1787              		.thumb
 1788              		.thumb_func
 1789              		.type	_ZN3r2p10SubscriberINS_9Speed3MsgELj5EEC2EPFbRKS1_E, %function
 1790              	_ZN3r2p10SubscriberINS_9Speed3MsgELj5EEC2EPFbRKS1_E:
ARM GAS  /tmp/ccWQ6gKG.s 			page 33


 1791              	.LFB630:
 1792              		.file 11 "/home/denny/r2p-sdk/core/Middleware/include/r2p/Subscriber.hpp"
 1793              		.loc 11 31 0
 1794              		.cfi_startproc
 1795              		@ args = 0, pretend = 0, frame = 8
 1796              		@ frame_needed = 0, uses_anonymous_args = 0
 1797 0000 30B5     		push	{r4, r5, lr}
 1798              		.cfi_def_cfa_offset 12
 1799              		.cfi_offset 4, -12
 1800              		.cfi_offset 5, -8
 1801              		.cfi_offset 14, -4
 1802 0002 83B0     		sub	sp, sp, #12
 1803              		.cfi_def_cfa_offset 24
 1804 0004 0190     		str	r0, [sp, #4]
 1805 0006 0091     		str	r1, [sp]
 1806              	.LBB59:
 1807              		.loc 11 33 0
 1808 0008 019A     		ldr	r2, [sp, #4]
 1809 000a 019B     		ldr	r3, [sp, #4]
 1810 000c 8033     		adds	r3, r3, #128
 1811 000e 1046     		mov	r0, r2
 1812 0010 1946     		mov	r1, r3
 1813 0012 0522     		movs	r2, #5
 1814 0014 009B     		ldr	r3, [sp]
 1815 0016 FFF7FEFF 		bl	_ZN3r2p16SubscriberExtBufINS_9Speed3MsgEEC2EPPS1_jPFbRKS1_E
 1816 001a 019B     		ldr	r3, [sp, #4]
 1817 001c 094A     		ldr	r2, .L99
 1818 001e 1A60     		str	r2, [r3]
 1819 0020 019B     		ldr	r3, [sp, #4]
 1820 0022 3833     		adds	r3, r3, #56
 1821 0024 0424     		movs	r4, #4
 1822 0026 1D46     		mov	r5, r3
 1823 0028 04E0     		b	.L95
 1824              	.L96:
 1825              		.loc 11 33 0 is_stmt 0 discriminator 3
 1826 002a 2846     		mov	r0, r5
 1827 002c FFF7FEFF 		bl	_ZN3r2p9Speed3MsgC1Ev
 1828 0030 0E35     		adds	r5, r5, #14
 1829 0032 013C     		subs	r4, r4, #1
 1830              	.L95:
 1831              		.loc 11 33 0 discriminator 1
 1832 0034 B4F1FF3F 		cmp	r4, #-1
 1833 0038 F7D1     		bne	.L96
 1834              	.LBE59:
 1835              		.loc 11 34 0 is_stmt 1 discriminator 4
 1836 003a 019B     		ldr	r3, [sp, #4]
 1837 003c 1846     		mov	r0, r3
 1838 003e 03B0     		add	sp, sp, #12
 1839              		.cfi_def_cfa_offset 12
 1840              		@ sp needed
 1841 0040 30BD     		pop	{r4, r5, pc}
 1842              	.L100:
 1843 0042 00BF     		.align	2
 1844              	.L99:
 1845 0044 08000000 		.word	_ZTVN3r2p10SubscriberINS_9Speed3MsgELj5EEE+8
 1846              		.cfi_endproc
 1847              	.LFE630:
ARM GAS  /tmp/ccWQ6gKG.s 			page 34


 1848              		.size	_ZN3r2p10SubscriberINS_9Speed3MsgELj5EEC2EPFbRKS1_E, .-_ZN3r2p10SubscriberINS_9Speed3MsgELj5
 1849              		.weak	_ZN3r2p10SubscriberINS_9Speed3MsgELj5EEC1EPFbRKS1_E
 1850              		.thumb_set _ZN3r2p10SubscriberINS_9Speed3MsgELj5EEC1EPFbRKS1_E,_ZN3r2p10SubscriberINS_9Speed3MsgEL
 1851 0048 AFF30080 		.section	.text._ZN3r2p10SubscriberINS_9Speed3MsgELj5EED2Ev,"axG",%progbits,_ZN3r2p10SubscriberINS_
 1851      AFF30080 
 1852              		.align	2
 1853              		.p2align 4,,15
 1854              		.weak	_ZN3r2p10SubscriberINS_9Speed3MsgELj5EED2Ev
 1855              		.thumb
 1856              		.thumb_func
 1857              		.type	_ZN3r2p10SubscriberINS_9Speed3MsgELj5EED2Ev, %function
 1858              	_ZN3r2p10SubscriberINS_9Speed3MsgELj5EED2Ev:
 1859              	.LFB633:
 1860              		.loc 11 38 0
 1861              		.cfi_startproc
 1862              		@ args = 0, pretend = 0, frame = 8
 1863              		@ frame_needed = 0, uses_anonymous_args = 0
 1864 0000 00B5     		push	{lr}
 1865              		.cfi_def_cfa_offset 4
 1866              		.cfi_offset 14, -4
 1867 0002 83B0     		sub	sp, sp, #12
 1868              		.cfi_def_cfa_offset 16
 1869 0004 0190     		str	r0, [sp, #4]
 1870              	.LBB60:
 1871              		.loc 11 38 0
 1872 0006 019B     		ldr	r3, [sp, #4]
 1873 0008 084A     		ldr	r2, .L105
 1874 000a 1A60     		str	r2, [r3]
 1875 000c 019B     		ldr	r3, [sp, #4]
 1876 000e 1846     		mov	r0, r3
 1877 0010 FFF7FEFF 		bl	_ZN3r2p16SubscriberExtBufINS_9Speed3MsgEED2Ev
 1878              	.LBE60:
 1879 0014 0023     		movs	r3, #0
 1880 0016 002B     		cmp	r3, #0
 1881 0018 02D0     		beq	.L103
 1882              		.loc 11 38 0 is_stmt 0 discriminator 2
 1883 001a 0198     		ldr	r0, [sp, #4]
 1884 001c FFF7FEFF 		bl	_ZdlPv
 1885              	.L103:
 1886              		.loc 11 38 0 discriminator 4
 1887 0020 019B     		ldr	r3, [sp, #4]
 1888 0022 1846     		mov	r0, r3
 1889 0024 03B0     		add	sp, sp, #12
 1890              		.cfi_def_cfa_offset 4
 1891              		@ sp needed
 1892 0026 5DF804FB 		ldr	pc, [sp], #4
 1893              	.L106:
 1894 002a 00BF     		.align	2
 1895              	.L105:
 1896 002c 08000000 		.word	_ZTVN3r2p10SubscriberINS_9Speed3MsgELj5EEE+8
 1897              		.cfi_endproc
 1898              	.LFE633:
 1899              		.size	_ZN3r2p10SubscriberINS_9Speed3MsgELj5EED2Ev, .-_ZN3r2p10SubscriberINS_9Speed3MsgELj5EED2Ev
 1900              		.weak	_ZN3r2p10SubscriberINS_9Speed3MsgELj5EED1Ev
 1901              		.thumb_set _ZN3r2p10SubscriberINS_9Speed3MsgELj5EED1Ev,_ZN3r2p10SubscriberINS_9Speed3MsgELj5EED2Ev
 1902              		.section	.text._ZN3r2p10SubscriberINS_9Speed3MsgELj5EED0Ev,"axG",%progbits,_ZN3r2p10SubscriberINS_
 1903              		.align	2
ARM GAS  /tmp/ccWQ6gKG.s 			page 35


 1904              		.p2align 4,,15
 1905              		.weak	_ZN3r2p10SubscriberINS_9Speed3MsgELj5EED0Ev
 1906              		.thumb
 1907              		.thumb_func
 1908              		.type	_ZN3r2p10SubscriberINS_9Speed3MsgELj5EED0Ev, %function
 1909              	_ZN3r2p10SubscriberINS_9Speed3MsgELj5EED0Ev:
 1910              	.LFB635:
 1911              		.loc 11 38 0 is_stmt 1
 1912              		.cfi_startproc
 1913              		@ args = 0, pretend = 0, frame = 8
 1914              		@ frame_needed = 0, uses_anonymous_args = 0
 1915 0000 00B5     		push	{lr}
 1916              		.cfi_def_cfa_offset 4
 1917              		.cfi_offset 14, -4
 1918 0002 83B0     		sub	sp, sp, #12
 1919              		.cfi_def_cfa_offset 16
 1920 0004 0190     		str	r0, [sp, #4]
 1921              		.loc 11 38 0
 1922 0006 0198     		ldr	r0, [sp, #4]
 1923 0008 FFF7FEFF 		bl	_ZN3r2p10SubscriberINS_9Speed3MsgELj5EED1Ev
 1924 000c 0198     		ldr	r0, [sp, #4]
 1925 000e FFF7FEFF 		bl	_ZdlPv
 1926 0012 019B     		ldr	r3, [sp, #4]
 1927 0014 1846     		mov	r0, r3
 1928 0016 03B0     		add	sp, sp, #12
 1929              		.cfi_def_cfa_offset 4
 1930              		@ sp needed
 1931 0018 5DF804FB 		ldr	pc, [sp], #4
 1932              		.cfi_endproc
 1933              	.LFE635:
 1934              		.size	_ZN3r2p10SubscriberINS_9Speed3MsgELj5EED0Ev, .-_ZN3r2p10SubscriberINS_9Speed3MsgELj5EED0Ev
 1935 001c AFF30080 		.section	.text._ZN3r2p10EncoderMsgC2Ev,"axG",%progbits,_ZN3r2p10EncoderMsgC5Ev,comdat
 1936              		.align	2
 1937              		.p2align 4,,15
 1938              		.weak	_ZN3r2p10EncoderMsgC2Ev
 1939              		.thumb
 1940              		.thumb_func
 1941              		.type	_ZN3r2p10EncoderMsgC2Ev, %function
 1942              	_ZN3r2p10EncoderMsgC2Ev:
 1943              	.LFB638:
 1944              		.loc 10 51 0
 1945              		.cfi_startproc
 1946              		@ args = 0, pretend = 0, frame = 8
 1947              		@ frame_needed = 0, uses_anonymous_args = 0
 1948 0000 00B5     		push	{lr}
 1949              		.cfi_def_cfa_offset 4
 1950              		.cfi_offset 14, -4
 1951 0002 83B0     		sub	sp, sp, #12
 1952              		.cfi_def_cfa_offset 16
 1953 0004 0190     		str	r0, [sp, #4]
 1954              	.LBB61:
 1955              		.loc 10 51 0
 1956 0006 019B     		ldr	r3, [sp, #4]
 1957 0008 1846     		mov	r0, r3
 1958 000a FFF7FEFF 		bl	_ZN3r2p7MessageC2Ev
 1959              	.LBE61:
 1960 000e 019B     		ldr	r3, [sp, #4]
ARM GAS  /tmp/ccWQ6gKG.s 			page 36


 1961 0010 1846     		mov	r0, r3
 1962 0012 03B0     		add	sp, sp, #12
 1963              		.cfi_def_cfa_offset 4
 1964              		@ sp needed
 1965 0014 5DF804FB 		ldr	pc, [sp], #4
 1966              		.cfi_endproc
 1967              	.LFE638:
 1968              		.size	_ZN3r2p10EncoderMsgC2Ev, .-_ZN3r2p10EncoderMsgC2Ev
 1969              		.weak	_ZN3r2p10EncoderMsgC1Ev
 1970              		.thumb_set _ZN3r2p10EncoderMsgC1Ev,_ZN3r2p10EncoderMsgC2Ev
 1971 0018 AFF30080 		.section	.text._ZN3r2p10SubscriberINS_10EncoderMsgELj5EEC2EPFbRKS1_E,"axG",%progbits,_ZN3r2p10Subs
 1971      AFF30080 
 1972              		.align	2
 1973              		.p2align 4,,15
 1974              		.weak	_ZN3r2p10SubscriberINS_10EncoderMsgELj5EEC2EPFbRKS1_E
 1975              		.thumb
 1976              		.thumb_func
 1977              		.type	_ZN3r2p10SubscriberINS_10EncoderMsgELj5EEC2EPFbRKS1_E, %function
 1978              	_ZN3r2p10SubscriberINS_10EncoderMsgELj5EEC2EPFbRKS1_E:
 1979              	.LFB640:
 1980              		.loc 11 31 0
 1981              		.cfi_startproc
 1982              		@ args = 0, pretend = 0, frame = 8
 1983              		@ frame_needed = 0, uses_anonymous_args = 0
 1984 0000 30B5     		push	{r4, r5, lr}
 1985              		.cfi_def_cfa_offset 12
 1986              		.cfi_offset 4, -12
 1987              		.cfi_offset 5, -8
 1988              		.cfi_offset 14, -4
 1989 0002 83B0     		sub	sp, sp, #12
 1990              		.cfi_def_cfa_offset 24
 1991 0004 0190     		str	r0, [sp, #4]
 1992 0006 0091     		str	r1, [sp]
 1993              	.LBB62:
 1994              		.loc 11 33 0
 1995 0008 019A     		ldr	r2, [sp, #4]
 1996 000a 019B     		ldr	r3, [sp, #4]
 1997 000c 5833     		adds	r3, r3, #88
 1998 000e 1046     		mov	r0, r2
 1999 0010 1946     		mov	r1, r3
 2000 0012 0522     		movs	r2, #5
 2001 0014 009B     		ldr	r3, [sp]
 2002 0016 FFF7FEFF 		bl	_ZN3r2p16SubscriberExtBufINS_10EncoderMsgEEC2EPPS1_jPFbRKS1_E
 2003 001a 019B     		ldr	r3, [sp, #4]
 2004 001c 094A     		ldr	r2, .L118
 2005 001e 1A60     		str	r2, [r3]
 2006 0020 019B     		ldr	r3, [sp, #4]
 2007 0022 3833     		adds	r3, r3, #56
 2008 0024 0424     		movs	r4, #4
 2009 0026 1D46     		mov	r5, r3
 2010 0028 04E0     		b	.L114
 2011              	.L115:
 2012              		.loc 11 33 0 is_stmt 0 discriminator 3
 2013 002a 2846     		mov	r0, r5
 2014 002c FFF7FEFF 		bl	_ZN3r2p10EncoderMsgC1Ev
 2015 0030 0635     		adds	r5, r5, #6
 2016 0032 013C     		subs	r4, r4, #1
ARM GAS  /tmp/ccWQ6gKG.s 			page 37


 2017              	.L114:
 2018              		.loc 11 33 0 discriminator 1
 2019 0034 B4F1FF3F 		cmp	r4, #-1
 2020 0038 F7D1     		bne	.L115
 2021              	.LBE62:
 2022              		.loc 11 34 0 is_stmt 1 discriminator 4
 2023 003a 019B     		ldr	r3, [sp, #4]
 2024 003c 1846     		mov	r0, r3
 2025 003e 03B0     		add	sp, sp, #12
 2026              		.cfi_def_cfa_offset 12
 2027              		@ sp needed
 2028 0040 30BD     		pop	{r4, r5, pc}
 2029              	.L119:
 2030 0042 00BF     		.align	2
 2031              	.L118:
 2032 0044 08000000 		.word	_ZTVN3r2p10SubscriberINS_10EncoderMsgELj5EEE+8
 2033              		.cfi_endproc
 2034              	.LFE640:
 2035              		.size	_ZN3r2p10SubscriberINS_10EncoderMsgELj5EEC2EPFbRKS1_E, .-_ZN3r2p10SubscriberINS_10EncoderMsg
 2036              		.weak	_ZN3r2p10SubscriberINS_10EncoderMsgELj5EEC1EPFbRKS1_E
 2037              		.thumb_set _ZN3r2p10SubscriberINS_10EncoderMsgELj5EEC1EPFbRKS1_E,_ZN3r2p10SubscriberINS_10EncoderM
 2038 0048 AFF30080 		.section	.text._ZN3r2p10SubscriberINS_10EncoderMsgELj5EED2Ev,"axG",%progbits,_ZN3r2p10SubscriberIN
 2038      AFF30080 
 2039              		.align	2
 2040              		.p2align 4,,15
 2041              		.weak	_ZN3r2p10SubscriberINS_10EncoderMsgELj5EED2Ev
 2042              		.thumb
 2043              		.thumb_func
 2044              		.type	_ZN3r2p10SubscriberINS_10EncoderMsgELj5EED2Ev, %function
 2045              	_ZN3r2p10SubscriberINS_10EncoderMsgELj5EED2Ev:
 2046              	.LFB643:
 2047              		.loc 11 38 0
 2048              		.cfi_startproc
 2049              		@ args = 0, pretend = 0, frame = 8
 2050              		@ frame_needed = 0, uses_anonymous_args = 0
 2051 0000 00B5     		push	{lr}
 2052              		.cfi_def_cfa_offset 4
 2053              		.cfi_offset 14, -4
 2054 0002 83B0     		sub	sp, sp, #12
 2055              		.cfi_def_cfa_offset 16
 2056 0004 0190     		str	r0, [sp, #4]
 2057              	.LBB63:
 2058              		.loc 11 38 0
 2059 0006 019B     		ldr	r3, [sp, #4]
 2060 0008 084A     		ldr	r2, .L124
 2061 000a 1A60     		str	r2, [r3]
 2062 000c 019B     		ldr	r3, [sp, #4]
 2063 000e 1846     		mov	r0, r3
 2064 0010 FFF7FEFF 		bl	_ZN3r2p16SubscriberExtBufINS_10EncoderMsgEED2Ev
 2065              	.LBE63:
 2066 0014 0023     		movs	r3, #0
 2067 0016 002B     		cmp	r3, #0
 2068 0018 02D0     		beq	.L122
 2069              		.loc 11 38 0 is_stmt 0 discriminator 2
 2070 001a 0198     		ldr	r0, [sp, #4]
 2071 001c FFF7FEFF 		bl	_ZdlPv
 2072              	.L122:
ARM GAS  /tmp/ccWQ6gKG.s 			page 38


 2073              		.loc 11 38 0 discriminator 4
 2074 0020 019B     		ldr	r3, [sp, #4]
 2075 0022 1846     		mov	r0, r3
 2076 0024 03B0     		add	sp, sp, #12
 2077              		.cfi_def_cfa_offset 4
 2078              		@ sp needed
 2079 0026 5DF804FB 		ldr	pc, [sp], #4
 2080              	.L125:
 2081 002a 00BF     		.align	2
 2082              	.L124:
 2083 002c 08000000 		.word	_ZTVN3r2p10SubscriberINS_10EncoderMsgELj5EEE+8
 2084              		.cfi_endproc
 2085              	.LFE643:
 2086              		.size	_ZN3r2p10SubscriberINS_10EncoderMsgELj5EED2Ev, .-_ZN3r2p10SubscriberINS_10EncoderMsgELj5EED2
 2087              		.weak	_ZN3r2p10SubscriberINS_10EncoderMsgELj5EED1Ev
 2088              		.thumb_set _ZN3r2p10SubscriberINS_10EncoderMsgELj5EED1Ev,_ZN3r2p10SubscriberINS_10EncoderMsgELj5EE
 2089              		.section	.text._ZN3r2p10SubscriberINS_10EncoderMsgELj5EED0Ev,"axG",%progbits,_ZN3r2p10SubscriberIN
 2090              		.align	2
 2091              		.p2align 4,,15
 2092              		.weak	_ZN3r2p10SubscriberINS_10EncoderMsgELj5EED0Ev
 2093              		.thumb
 2094              		.thumb_func
 2095              		.type	_ZN3r2p10SubscriberINS_10EncoderMsgELj5EED0Ev, %function
 2096              	_ZN3r2p10SubscriberINS_10EncoderMsgELj5EED0Ev:
 2097              	.LFB645:
 2098              		.loc 11 38 0 is_stmt 1
 2099              		.cfi_startproc
 2100              		@ args = 0, pretend = 0, frame = 8
 2101              		@ frame_needed = 0, uses_anonymous_args = 0
 2102 0000 00B5     		push	{lr}
 2103              		.cfi_def_cfa_offset 4
 2104              		.cfi_offset 14, -4
 2105 0002 83B0     		sub	sp, sp, #12
 2106              		.cfi_def_cfa_offset 16
 2107 0004 0190     		str	r0, [sp, #4]
 2108              		.loc 11 38 0
 2109 0006 0198     		ldr	r0, [sp, #4]
 2110 0008 FFF7FEFF 		bl	_ZN3r2p10SubscriberINS_10EncoderMsgELj5EED1Ev
 2111 000c 0198     		ldr	r0, [sp, #4]
 2112 000e FFF7FEFF 		bl	_ZdlPv
 2113 0012 019B     		ldr	r3, [sp, #4]
 2114 0014 1846     		mov	r0, r3
 2115 0016 03B0     		add	sp, sp, #12
 2116              		.cfi_def_cfa_offset 4
 2117              		@ sp needed
 2118 0018 5DF804FB 		ldr	pc, [sp], #4
 2119              		.cfi_endproc
 2120              	.LFE645:
 2121              		.size	_ZN3r2p10SubscriberINS_10EncoderMsgELj5EED0Ev, .-_ZN3r2p10SubscriberINS_10EncoderMsgELj5EED0
 2122 001c AFF30080 		.section	.text._ZN3r2p9PIDCfgMsgC2Ev,"axG",%progbits,_ZN3r2p9PIDCfgMsgC5Ev,comdat
 2123              		.align	2
 2124              		.p2align 4,,15
 2125              		.weak	_ZN3r2p9PIDCfgMsgC2Ev
 2126              		.thumb
 2127              		.thumb_func
 2128              		.type	_ZN3r2p9PIDCfgMsgC2Ev, %function
 2129              	_ZN3r2p9PIDCfgMsgC2Ev:
ARM GAS  /tmp/ccWQ6gKG.s 			page 39


 2130              	.LFB648:
 2131              		.loc 10 95 0
 2132              		.cfi_startproc
 2133              		@ args = 0, pretend = 0, frame = 8
 2134              		@ frame_needed = 0, uses_anonymous_args = 0
 2135 0000 00B5     		push	{lr}
 2136              		.cfi_def_cfa_offset 4
 2137              		.cfi_offset 14, -4
 2138 0002 83B0     		sub	sp, sp, #12
 2139              		.cfi_def_cfa_offset 16
 2140 0004 0190     		str	r0, [sp, #4]
 2141              	.LBB64:
 2142              		.loc 10 95 0
 2143 0006 019B     		ldr	r3, [sp, #4]
 2144 0008 1846     		mov	r0, r3
 2145 000a FFF7FEFF 		bl	_ZN3r2p7MessageC2Ev
 2146              	.LBE64:
 2147 000e 019B     		ldr	r3, [sp, #4]
 2148 0010 1846     		mov	r0, r3
 2149 0012 03B0     		add	sp, sp, #12
 2150              		.cfi_def_cfa_offset 4
 2151              		@ sp needed
 2152 0014 5DF804FB 		ldr	pc, [sp], #4
 2153              		.cfi_endproc
 2154              	.LFE648:
 2155              		.size	_ZN3r2p9PIDCfgMsgC2Ev, .-_ZN3r2p9PIDCfgMsgC2Ev
 2156              		.weak	_ZN3r2p9PIDCfgMsgC1Ev
 2157              		.thumb_set _ZN3r2p9PIDCfgMsgC1Ev,_ZN3r2p9PIDCfgMsgC2Ev
 2158 0018 AFF30080 		.section	.text._ZN3r2p10SubscriberINS_9PIDCfgMsgELj5EEC2EPFbRKS1_E,"axG",%progbits,_ZN3r2p10Subscr
 2158      AFF30080 
 2159              		.align	2
 2160              		.p2align 4,,15
 2161              		.weak	_ZN3r2p10SubscriberINS_9PIDCfgMsgELj5EEC2EPFbRKS1_E
 2162              		.thumb
 2163              		.thumb_func
 2164              		.type	_ZN3r2p10SubscriberINS_9PIDCfgMsgELj5EEC2EPFbRKS1_E, %function
 2165              	_ZN3r2p10SubscriberINS_9PIDCfgMsgELj5EEC2EPFbRKS1_E:
 2166              	.LFB650:
 2167              		.loc 11 31 0
 2168              		.cfi_startproc
 2169              		@ args = 0, pretend = 0, frame = 8
 2170              		@ frame_needed = 0, uses_anonymous_args = 0
 2171 0000 30B5     		push	{r4, r5, lr}
 2172              		.cfi_def_cfa_offset 12
 2173              		.cfi_offset 4, -12
 2174              		.cfi_offset 5, -8
 2175              		.cfi_offset 14, -4
 2176 0002 83B0     		sub	sp, sp, #12
 2177              		.cfi_def_cfa_offset 24
 2178 0004 0190     		str	r0, [sp, #4]
 2179 0006 0091     		str	r1, [sp]
 2180              	.LBB65:
 2181              		.loc 11 33 0
 2182 0008 019A     		ldr	r2, [sp, #4]
 2183 000a 019B     		ldr	r3, [sp, #4]
 2184 000c 8033     		adds	r3, r3, #128
 2185 000e 1046     		mov	r0, r2
ARM GAS  /tmp/ccWQ6gKG.s 			page 40


 2186 0010 1946     		mov	r1, r3
 2187 0012 0522     		movs	r2, #5
 2188 0014 009B     		ldr	r3, [sp]
 2189 0016 FFF7FEFF 		bl	_ZN3r2p16SubscriberExtBufINS_9PIDCfgMsgEEC2EPPS1_jPFbRKS1_E
 2190 001a 019B     		ldr	r3, [sp, #4]
 2191 001c 094A     		ldr	r2, .L137
 2192 001e 1A60     		str	r2, [r3]
 2193 0020 019B     		ldr	r3, [sp, #4]
 2194 0022 3833     		adds	r3, r3, #56
 2195 0024 0424     		movs	r4, #4
 2196 0026 1D46     		mov	r5, r3
 2197 0028 04E0     		b	.L133
 2198              	.L134:
 2199              		.loc 11 33 0 is_stmt 0 discriminator 3
 2200 002a 2846     		mov	r0, r5
 2201 002c FFF7FEFF 		bl	_ZN3r2p9PIDCfgMsgC1Ev
 2202 0030 0E35     		adds	r5, r5, #14
 2203 0032 013C     		subs	r4, r4, #1
 2204              	.L133:
 2205              		.loc 11 33 0 discriminator 1
 2206 0034 B4F1FF3F 		cmp	r4, #-1
 2207 0038 F7D1     		bne	.L134
 2208              	.LBE65:
 2209              		.loc 11 34 0 is_stmt 1 discriminator 4
 2210 003a 019B     		ldr	r3, [sp, #4]
 2211 003c 1846     		mov	r0, r3
 2212 003e 03B0     		add	sp, sp, #12
 2213              		.cfi_def_cfa_offset 12
 2214              		@ sp needed
 2215 0040 30BD     		pop	{r4, r5, pc}
 2216              	.L138:
 2217 0042 00BF     		.align	2
 2218              	.L137:
 2219 0044 08000000 		.word	_ZTVN3r2p10SubscriberINS_9PIDCfgMsgELj5EEE+8
 2220              		.cfi_endproc
 2221              	.LFE650:
 2222              		.size	_ZN3r2p10SubscriberINS_9PIDCfgMsgELj5EEC2EPFbRKS1_E, .-_ZN3r2p10SubscriberINS_9PIDCfgMsgELj5
 2223              		.weak	_ZN3r2p10SubscriberINS_9PIDCfgMsgELj5EEC1EPFbRKS1_E
 2224              		.thumb_set _ZN3r2p10SubscriberINS_9PIDCfgMsgELj5EEC1EPFbRKS1_E,_ZN3r2p10SubscriberINS_9PIDCfgMsgEL
 2225 0048 AFF30080 		.section	.text._ZN3r2p10SubscriberINS_9PIDCfgMsgELj5EED2Ev,"axG",%progbits,_ZN3r2p10SubscriberINS_
 2225      AFF30080 
 2226              		.align	2
 2227              		.p2align 4,,15
 2228              		.weak	_ZN3r2p10SubscriberINS_9PIDCfgMsgELj5EED2Ev
 2229              		.thumb
 2230              		.thumb_func
 2231              		.type	_ZN3r2p10SubscriberINS_9PIDCfgMsgELj5EED2Ev, %function
 2232              	_ZN3r2p10SubscriberINS_9PIDCfgMsgELj5EED2Ev:
 2233              	.LFB653:
 2234              		.loc 11 38 0
 2235              		.cfi_startproc
 2236              		@ args = 0, pretend = 0, frame = 8
 2237              		@ frame_needed = 0, uses_anonymous_args = 0
 2238 0000 00B5     		push	{lr}
 2239              		.cfi_def_cfa_offset 4
 2240              		.cfi_offset 14, -4
 2241 0002 83B0     		sub	sp, sp, #12
ARM GAS  /tmp/ccWQ6gKG.s 			page 41


 2242              		.cfi_def_cfa_offset 16
 2243 0004 0190     		str	r0, [sp, #4]
 2244              	.LBB66:
 2245              		.loc 11 38 0
 2246 0006 019B     		ldr	r3, [sp, #4]
 2247 0008 084A     		ldr	r2, .L143
 2248 000a 1A60     		str	r2, [r3]
 2249 000c 019B     		ldr	r3, [sp, #4]
 2250 000e 1846     		mov	r0, r3
 2251 0010 FFF7FEFF 		bl	_ZN3r2p16SubscriberExtBufINS_9PIDCfgMsgEED2Ev
 2252              	.LBE66:
 2253 0014 0023     		movs	r3, #0
 2254 0016 002B     		cmp	r3, #0
 2255 0018 02D0     		beq	.L141
 2256              		.loc 11 38 0 is_stmt 0 discriminator 2
 2257 001a 0198     		ldr	r0, [sp, #4]
 2258 001c FFF7FEFF 		bl	_ZdlPv
 2259              	.L141:
 2260              		.loc 11 38 0 discriminator 4
 2261 0020 019B     		ldr	r3, [sp, #4]
 2262 0022 1846     		mov	r0, r3
 2263 0024 03B0     		add	sp, sp, #12
 2264              		.cfi_def_cfa_offset 4
 2265              		@ sp needed
 2266 0026 5DF804FB 		ldr	pc, [sp], #4
 2267              	.L144:
 2268 002a 00BF     		.align	2
 2269              	.L143:
 2270 002c 08000000 		.word	_ZTVN3r2p10SubscriberINS_9PIDCfgMsgELj5EEE+8
 2271              		.cfi_endproc
 2272              	.LFE653:
 2273              		.size	_ZN3r2p10SubscriberINS_9PIDCfgMsgELj5EED2Ev, .-_ZN3r2p10SubscriberINS_9PIDCfgMsgELj5EED2Ev
 2274              		.weak	_ZN3r2p10SubscriberINS_9PIDCfgMsgELj5EED1Ev
 2275              		.thumb_set _ZN3r2p10SubscriberINS_9PIDCfgMsgELj5EED1Ev,_ZN3r2p10SubscriberINS_9PIDCfgMsgELj5EED2Ev
 2276              		.section	.text._ZN3r2p10SubscriberINS_9PIDCfgMsgELj5EED0Ev,"axG",%progbits,_ZN3r2p10SubscriberINS_
 2277              		.align	2
 2278              		.p2align 4,,15
 2279              		.weak	_ZN3r2p10SubscriberINS_9PIDCfgMsgELj5EED0Ev
 2280              		.thumb
 2281              		.thumb_func
 2282              		.type	_ZN3r2p10SubscriberINS_9PIDCfgMsgELj5EED0Ev, %function
 2283              	_ZN3r2p10SubscriberINS_9PIDCfgMsgELj5EED0Ev:
 2284              	.LFB655:
 2285              		.loc 11 38 0 is_stmt 1
 2286              		.cfi_startproc
 2287              		@ args = 0, pretend = 0, frame = 8
 2288              		@ frame_needed = 0, uses_anonymous_args = 0
 2289 0000 00B5     		push	{lr}
 2290              		.cfi_def_cfa_offset 4
 2291              		.cfi_offset 14, -4
 2292 0002 83B0     		sub	sp, sp, #12
 2293              		.cfi_def_cfa_offset 16
 2294 0004 0190     		str	r0, [sp, #4]
 2295              		.loc 11 38 0
 2296 0006 0198     		ldr	r0, [sp, #4]
 2297 0008 FFF7FEFF 		bl	_ZN3r2p10SubscriberINS_9PIDCfgMsgELj5EED1Ev
 2298 000c 0198     		ldr	r0, [sp, #4]
ARM GAS  /tmp/ccWQ6gKG.s 			page 42


 2299 000e FFF7FEFF 		bl	_ZdlPv
 2300 0012 019B     		ldr	r3, [sp, #4]
 2301 0014 1846     		mov	r0, r3
 2302 0016 03B0     		add	sp, sp, #12
 2303              		.cfi_def_cfa_offset 4
 2304              		@ sp needed
 2305 0018 5DF804FB 		ldr	pc, [sp], #4
 2306              		.cfi_endproc
 2307              	.LFE655:
 2308              		.size	_ZN3r2p10SubscriberINS_9PIDCfgMsgELj5EED0Ev, .-_ZN3r2p10SubscriberINS_9PIDCfgMsgELj5EED0Ev
 2309 001c AFF30080 		.section	.text._ZN3r2p4Node9subscribeINS_9Speed3MsgELj5EEEbRNS_10SubscriberIT_XT0_EEEPKc,"axG",%pr
 2310              		.align	2
 2311              		.p2align 4,,15
 2312              		.weak	_ZN3r2p4Node9subscribeINS_9Speed3MsgELj5EEEbRNS_10SubscriberIT_XT0_EEEPKc
 2313              		.thumb
 2314              		.thumb_func
 2315              		.type	_ZN3r2p4Node9subscribeINS_9Speed3MsgELj5EEEbRNS_10SubscriberIT_XT0_EEEPKc, %function
 2316              	_ZN3r2p4Node9subscribeINS_9Speed3MsgELj5EEEbRNS_10SubscriberIT_XT0_EEEPKc:
 2317              	.LFB656:
 2318              		.loc 5 133 0
 2319              		.cfi_startproc
 2320              		@ args = 0, pretend = 0, frame = 16
 2321              		@ frame_needed = 0, uses_anonymous_args = 0
 2322 0000 10B5     		push	{r4, lr}
 2323              		.cfi_def_cfa_offset 8
 2324              		.cfi_offset 4, -8
 2325              		.cfi_offset 14, -4
 2326 0002 86B0     		sub	sp, sp, #24
 2327              		.cfi_def_cfa_offset 32
 2328 0004 0590     		str	r0, [sp, #20]
 2329 0006 0491     		str	r1, [sp, #16]
 2330 0008 0392     		str	r2, [sp, #12]
 2331              		.loc 5 135 0
 2332 000a 049A     		ldr	r2, [sp, #16]
 2333 000c 049B     		ldr	r3, [sp, #16]
 2334 000e 03F13804 		add	r4, r3, #56
 2335 0012 0E23     		movs	r3, #14
 2336 0014 0093     		str	r3, [sp]
 2337 0016 0598     		ldr	r0, [sp, #20]
 2338 0018 1146     		mov	r1, r2
 2339 001a 039A     		ldr	r2, [sp, #12]
 2340 001c 2346     		mov	r3, r4
 2341 001e FFF7FEFF 		bl	_ZN3r2p4Node9subscribeERNS_15LocalSubscriberEPKcPNS_7MessageEj
 2342 0022 0346     		mov	r3, r0
 2343              		.loc 5 136 0
 2344 0024 1846     		mov	r0, r3
 2345 0026 06B0     		add	sp, sp, #24
 2346              		.cfi_def_cfa_offset 8
 2347              		@ sp needed
 2348 0028 10BD     		pop	{r4, pc}
 2349              		.cfi_endproc
 2350              	.LFE656:
 2351              		.size	_ZN3r2p4Node9subscribeINS_9Speed3MsgELj5EEEbRNS_10SubscriberIT_XT0_EEEPKc, .-_ZN3r2p4Node9su
 2352 002a 00BFAFF3 		.section	.text._ZN3r2p4Node9subscribeINS_10EncoderMsgELj5EEEbRNS_10SubscriberIT_XT0_EEEPKc,"axG",%
 2352      0080
 2353              		.align	2
 2354              		.p2align 4,,15
ARM GAS  /tmp/ccWQ6gKG.s 			page 43


 2355              		.weak	_ZN3r2p4Node9subscribeINS_10EncoderMsgELj5EEEbRNS_10SubscriberIT_XT0_EEEPKc
 2356              		.thumb
 2357              		.thumb_func
 2358              		.type	_ZN3r2p4Node9subscribeINS_10EncoderMsgELj5EEEbRNS_10SubscriberIT_XT0_EEEPKc, %function
 2359              	_ZN3r2p4Node9subscribeINS_10EncoderMsgELj5EEEbRNS_10SubscriberIT_XT0_EEEPKc:
 2360              	.LFB657:
 2361              		.loc 5 133 0
 2362              		.cfi_startproc
 2363              		@ args = 0, pretend = 0, frame = 16
 2364              		@ frame_needed = 0, uses_anonymous_args = 0
 2365 0000 10B5     		push	{r4, lr}
 2366              		.cfi_def_cfa_offset 8
 2367              		.cfi_offset 4, -8
 2368              		.cfi_offset 14, -4
 2369 0002 86B0     		sub	sp, sp, #24
 2370              		.cfi_def_cfa_offset 32
 2371 0004 0590     		str	r0, [sp, #20]
 2372 0006 0491     		str	r1, [sp, #16]
 2373 0008 0392     		str	r2, [sp, #12]
 2374              		.loc 5 135 0
 2375 000a 049A     		ldr	r2, [sp, #16]
 2376 000c 049B     		ldr	r3, [sp, #16]
 2377 000e 03F13804 		add	r4, r3, #56
 2378 0012 0623     		movs	r3, #6
 2379 0014 0093     		str	r3, [sp]
 2380 0016 0598     		ldr	r0, [sp, #20]
 2381 0018 1146     		mov	r1, r2
 2382 001a 039A     		ldr	r2, [sp, #12]
 2383 001c 2346     		mov	r3, r4
 2384 001e FFF7FEFF 		bl	_ZN3r2p4Node9subscribeERNS_15LocalSubscriberEPKcPNS_7MessageEj
 2385 0022 0346     		mov	r3, r0
 2386              		.loc 5 136 0
 2387 0024 1846     		mov	r0, r3
 2388 0026 06B0     		add	sp, sp, #24
 2389              		.cfi_def_cfa_offset 8
 2390              		@ sp needed
 2391 0028 10BD     		pop	{r4, pc}
 2392              		.cfi_endproc
 2393              	.LFE657:
 2394              		.size	_ZN3r2p4Node9subscribeINS_10EncoderMsgELj5EEEbRNS_10SubscriberIT_XT0_EEEPKc, .-_ZN3r2p4Node9
 2395 002a 00BFAFF3 		.section	.text._ZN3r2p4Node9subscribeINS_9PIDCfgMsgELj5EEEbRNS_10SubscriberIT_XT0_EEEPKc,"axG",%pr
 2395      0080
 2396              		.align	2
 2397              		.p2align 4,,15
 2398              		.weak	_ZN3r2p4Node9subscribeINS_9PIDCfgMsgELj5EEEbRNS_10SubscriberIT_XT0_EEEPKc
 2399              		.thumb
 2400              		.thumb_func
 2401              		.type	_ZN3r2p4Node9subscribeINS_9PIDCfgMsgELj5EEEbRNS_10SubscriberIT_XT0_EEEPKc, %function
 2402              	_ZN3r2p4Node9subscribeINS_9PIDCfgMsgELj5EEEbRNS_10SubscriberIT_XT0_EEEPKc:
 2403              	.LFB658:
 2404              		.loc 5 133 0
 2405              		.cfi_startproc
 2406              		@ args = 0, pretend = 0, frame = 16
 2407              		@ frame_needed = 0, uses_anonymous_args = 0
 2408 0000 10B5     		push	{r4, lr}
 2409              		.cfi_def_cfa_offset 8
 2410              		.cfi_offset 4, -8
ARM GAS  /tmp/ccWQ6gKG.s 			page 44


 2411              		.cfi_offset 14, -4
 2412 0002 86B0     		sub	sp, sp, #24
 2413              		.cfi_def_cfa_offset 32
 2414 0004 0590     		str	r0, [sp, #20]
 2415 0006 0491     		str	r1, [sp, #16]
 2416 0008 0392     		str	r2, [sp, #12]
 2417              		.loc 5 135 0
 2418 000a 049A     		ldr	r2, [sp, #16]
 2419 000c 049B     		ldr	r3, [sp, #16]
 2420 000e 03F13804 		add	r4, r3, #56
 2421 0012 0E23     		movs	r3, #14
 2422 0014 0093     		str	r3, [sp]
 2423 0016 0598     		ldr	r0, [sp, #20]
 2424 0018 1146     		mov	r1, r2
 2425 001a 039A     		ldr	r2, [sp, #12]
 2426 001c 2346     		mov	r3, r4
 2427 001e FFF7FEFF 		bl	_ZN3r2p4Node9subscribeERNS_15LocalSubscriberEPKcPNS_7MessageEj
 2428 0022 0346     		mov	r3, r0
 2429              		.loc 5 136 0
 2430 0024 1846     		mov	r0, r3
 2431 0026 06B0     		add	sp, sp, #24
 2432              		.cfi_def_cfa_offset 8
 2433              		@ sp needed
 2434 0028 10BD     		pop	{r4, pc}
 2435              		.cfi_endproc
 2436              	.LFE658:
 2437              		.size	_ZN3r2p4Node9subscribeINS_9PIDCfgMsgELj5EEEbRNS_10SubscriberIT_XT0_EEEPKc, .-_ZN3r2p4Node9su
 2438 002a 00BFAFF3 		.section	.text._ZN3r2p16SubscriberExtBufINS_9PIDCfgMsgEE5fetchERPS1_,"axG",%progbits,_ZN3r2p16Subs
 2438      0080
 2439              		.align	2
 2440              		.p2align 4,,15
 2441              		.weak	_ZN3r2p16SubscriberExtBufINS_9PIDCfgMsgEE5fetchERPS1_
 2442              		.thumb
 2443              		.thumb_func
 2444              		.type	_ZN3r2p16SubscriberExtBufINS_9PIDCfgMsgEE5fetchERPS1_, %function
 2445              	_ZN3r2p16SubscriberExtBufINS_9PIDCfgMsgEE5fetchERPS1_:
 2446              	.LFB659:
 2447              		.file 12 "/home/denny/r2p-sdk/core/Middleware/include/r2p/SubscriberExtBuf.hpp"
 2448              		.loc 12 31 0
 2449              		.cfi_startproc
 2450              		@ args = 0, pretend = 0, frame = 8
 2451              		@ frame_needed = 0, uses_anonymous_args = 0
 2452 0000 00B5     		push	{lr}
 2453              		.cfi_def_cfa_offset 4
 2454              		.cfi_offset 14, -4
 2455 0002 83B0     		sub	sp, sp, #12
 2456              		.cfi_def_cfa_offset 16
 2457 0004 0190     		str	r0, [sp, #4]
 2458 0006 0091     		str	r1, [sp]
 2459              		.loc 12 34 0
 2460 0008 019B     		ldr	r3, [sp, #4]
 2461 000a 1846     		mov	r0, r3
 2462 000c 0099     		ldr	r1, [sp]
 2463 000e FFF7FEFF 		bl	_ZN3r2p15LocalSubscriber5fetchERPNS_7MessageE
 2464 0012 0346     		mov	r3, r0
 2465              		.loc 12 35 0
 2466 0014 1846     		mov	r0, r3
ARM GAS  /tmp/ccWQ6gKG.s 			page 45


 2467 0016 03B0     		add	sp, sp, #12
 2468              		.cfi_def_cfa_offset 4
 2469              		@ sp needed
 2470 0018 5DF804FB 		ldr	pc, [sp], #4
 2471              		.cfi_endproc
 2472              	.LFE659:
 2473              		.size	_ZN3r2p16SubscriberExtBufINS_9PIDCfgMsgEE5fetchERPS1_, .-_ZN3r2p16SubscriberExtBufINS_9PIDCf
 2474 001c AFF30080 		.section	.text._ZN3r2p16SubscriberExtBufINS_9PIDCfgMsgEE7releaseERS1_,"axG",%progbits,_ZN3r2p16Sub
 2475              		.align	2
 2476              		.p2align 4,,15
 2477              		.weak	_ZN3r2p16SubscriberExtBufINS_9PIDCfgMsgEE7releaseERS1_
 2478              		.thumb
 2479              		.thumb_func
 2480              		.type	_ZN3r2p16SubscriberExtBufINS_9PIDCfgMsgEE7releaseERS1_, %function
 2481              	_ZN3r2p16SubscriberExtBufINS_9PIDCfgMsgEE7releaseERS1_:
 2482              	.LFB660:
 2483              		.loc 12 57 0
 2484              		.cfi_startproc
 2485              		@ args = 0, pretend = 0, frame = 8
 2486              		@ frame_needed = 0, uses_anonymous_args = 0
 2487 0000 00B5     		push	{lr}
 2488              		.cfi_def_cfa_offset 4
 2489              		.cfi_offset 14, -4
 2490 0002 83B0     		sub	sp, sp, #12
 2491              		.cfi_def_cfa_offset 16
 2492 0004 0190     		str	r0, [sp, #4]
 2493 0006 0091     		str	r1, [sp]
 2494              		.loc 12 60 0
 2495 0008 019A     		ldr	r2, [sp, #4]
 2496 000a 009B     		ldr	r3, [sp]
 2497 000c 1046     		mov	r0, r2
 2498 000e 1946     		mov	r1, r3
 2499 0010 FFF7FEFF 		bl	_ZN3r2p14BaseSubscriber7releaseERNS_7MessageE
 2500 0014 0346     		mov	r3, r0
 2501              		.loc 12 61 0
 2502 0016 1846     		mov	r0, r3
 2503 0018 03B0     		add	sp, sp, #12
 2504              		.cfi_def_cfa_offset 4
 2505              		@ sp needed
 2506 001a 5DF804FB 		ldr	pc, [sp], #4
 2507              		.cfi_endproc
 2508              	.LFE660:
 2509              		.size	_ZN3r2p16SubscriberExtBufINS_9PIDCfgMsgEE7releaseERS1_, .-_ZN3r2p16SubscriberExtBufINS_9PIDC
 2510 001e 00BF     		.section	.text._ZN3r2p16SubscriberExtBufINS_9Speed3MsgEE5fetchERPS1_,"axG",%progbits,_ZN3r2p16Subs
 2511              		.align	2
 2512              		.p2align 4,,15
 2513              		.weak	_ZN3r2p16SubscriberExtBufINS_9Speed3MsgEE5fetchERPS1_
 2514              		.thumb
 2515              		.thumb_func
 2516              		.type	_ZN3r2p16SubscriberExtBufINS_9Speed3MsgEE5fetchERPS1_, %function
 2517              	_ZN3r2p16SubscriberExtBufINS_9Speed3MsgEE5fetchERPS1_:
 2518              	.LFB661:
 2519              		.loc 12 31 0
 2520              		.cfi_startproc
 2521              		@ args = 0, pretend = 0, frame = 8
 2522              		@ frame_needed = 0, uses_anonymous_args = 0
 2523 0000 00B5     		push	{lr}
ARM GAS  /tmp/ccWQ6gKG.s 			page 46


 2524              		.cfi_def_cfa_offset 4
 2525              		.cfi_offset 14, -4
 2526 0002 83B0     		sub	sp, sp, #12
 2527              		.cfi_def_cfa_offset 16
 2528 0004 0190     		str	r0, [sp, #4]
 2529 0006 0091     		str	r1, [sp]
 2530              		.loc 12 34 0
 2531 0008 019B     		ldr	r3, [sp, #4]
 2532 000a 1846     		mov	r0, r3
 2533 000c 0099     		ldr	r1, [sp]
 2534 000e FFF7FEFF 		bl	_ZN3r2p15LocalSubscriber5fetchERPNS_7MessageE
 2535 0012 0346     		mov	r3, r0
 2536              		.loc 12 35 0
 2537 0014 1846     		mov	r0, r3
 2538 0016 03B0     		add	sp, sp, #12
 2539              		.cfi_def_cfa_offset 4
 2540              		@ sp needed
 2541 0018 5DF804FB 		ldr	pc, [sp], #4
 2542              		.cfi_endproc
 2543              	.LFE661:
 2544              		.size	_ZN3r2p16SubscriberExtBufINS_9Speed3MsgEE5fetchERPS1_, .-_ZN3r2p16SubscriberExtBufINS_9Speed
 2545 001c AFF30080 		.section	.text._ZN3r2p16SubscriberExtBufINS_9Speed3MsgEE7releaseERS1_,"axG",%progbits,_ZN3r2p16Sub
 2546              		.align	2
 2547              		.p2align 4,,15
 2548              		.weak	_ZN3r2p16SubscriberExtBufINS_9Speed3MsgEE7releaseERS1_
 2549              		.thumb
 2550              		.thumb_func
 2551              		.type	_ZN3r2p16SubscriberExtBufINS_9Speed3MsgEE7releaseERS1_, %function
 2552              	_ZN3r2p16SubscriberExtBufINS_9Speed3MsgEE7releaseERS1_:
 2553              	.LFB662:
 2554              		.loc 12 57 0
 2555              		.cfi_startproc
 2556              		@ args = 0, pretend = 0, frame = 8
 2557              		@ frame_needed = 0, uses_anonymous_args = 0
 2558 0000 00B5     		push	{lr}
 2559              		.cfi_def_cfa_offset 4
 2560              		.cfi_offset 14, -4
 2561 0002 83B0     		sub	sp, sp, #12
 2562              		.cfi_def_cfa_offset 16
 2563 0004 0190     		str	r0, [sp, #4]
 2564 0006 0091     		str	r1, [sp]
 2565              		.loc 12 60 0
 2566 0008 019A     		ldr	r2, [sp, #4]
 2567 000a 009B     		ldr	r3, [sp]
 2568 000c 1046     		mov	r0, r2
 2569 000e 1946     		mov	r1, r3
 2570 0010 FFF7FEFF 		bl	_ZN3r2p14BaseSubscriber7releaseERNS_7MessageE
 2571 0014 0346     		mov	r3, r0
 2572              		.loc 12 61 0
 2573 0016 1846     		mov	r0, r3
 2574 0018 03B0     		add	sp, sp, #12
 2575              		.cfi_def_cfa_offset 4
 2576              		@ sp needed
 2577 001a 5DF804FB 		ldr	pc, [sp], #4
 2578              		.cfi_endproc
 2579              	.LFE662:
 2580              		.size	_ZN3r2p16SubscriberExtBufINS_9Speed3MsgEE7releaseERS1_, .-_ZN3r2p16SubscriberExtBufINS_9Spee
ARM GAS  /tmp/ccWQ6gKG.s 			page 47


 2581 001e 00BF     		.section	.text._ZN3r2p16SubscriberExtBufINS_9Speed3MsgEEC2EPPS1_jPFbRKS1_E,"axG",%progbits,_ZN3r2p
 2582              		.align	2
 2583              		.p2align 4,,15
 2584              		.weak	_ZN3r2p16SubscriberExtBufINS_9Speed3MsgEEC2EPPS1_jPFbRKS1_E
 2585              		.thumb
 2586              		.thumb_func
 2587              		.type	_ZN3r2p16SubscriberExtBufINS_9Speed3MsgEEC2EPPS1_jPFbRKS1_E, %function
 2588              	_ZN3r2p16SubscriberExtBufINS_9Speed3MsgEEC2EPPS1_jPFbRKS1_E:
 2589              	.LFB664:
 2590              		.loc 12 65 0
 2591              		.cfi_startproc
 2592              		@ args = 0, pretend = 0, frame = 16
 2593              		@ frame_needed = 0, uses_anonymous_args = 0
 2594 0000 00B5     		push	{lr}
 2595              		.cfi_def_cfa_offset 4
 2596              		.cfi_offset 14, -4
 2597 0002 85B0     		sub	sp, sp, #20
 2598              		.cfi_def_cfa_offset 24
 2599 0004 0390     		str	r0, [sp, #12]
 2600 0006 0291     		str	r1, [sp, #8]
 2601 0008 0192     		str	r2, [sp, #4]
 2602 000a 0093     		str	r3, [sp]
 2603              	.LBB67:
 2604              		.loc 12 69 0
 2605 000c 039B     		ldr	r3, [sp, #12]
 2606 000e 1846     		mov	r0, r3
 2607 0010 0299     		ldr	r1, [sp, #8]
 2608 0012 019A     		ldr	r2, [sp, #4]
 2609 0014 009B     		ldr	r3, [sp]
 2610 0016 FFF7FEFF 		bl	_ZN3r2p15LocalSubscriberC2EPPNS_7MessageEjPFbRKS1_E
 2611 001a 039B     		ldr	r3, [sp, #12]
 2612 001c 034A     		ldr	r2, .L165
 2613 001e 1A60     		str	r2, [r3]
 2614              	.LBE67:
 2615              		.loc 12 72 0
 2616 0020 039B     		ldr	r3, [sp, #12]
 2617 0022 1846     		mov	r0, r3
 2618 0024 05B0     		add	sp, sp, #20
 2619              		.cfi_def_cfa_offset 4
 2620              		@ sp needed
 2621 0026 5DF804FB 		ldr	pc, [sp], #4
 2622              	.L166:
 2623 002a 00BF     		.align	2
 2624              	.L165:
 2625 002c 08000000 		.word	_ZTVN3r2p16SubscriberExtBufINS_9Speed3MsgEEE+8
 2626              		.cfi_endproc
 2627              	.LFE664:
 2628              		.size	_ZN3r2p16SubscriberExtBufINS_9Speed3MsgEEC2EPPS1_jPFbRKS1_E, .-_ZN3r2p16SubscriberExtBufINS_
 2629              		.weak	_ZN3r2p16SubscriberExtBufINS_9Speed3MsgEEC1EPPS1_jPFbRKS1_E
 2630              		.thumb_set _ZN3r2p16SubscriberExtBufINS_9Speed3MsgEEC1EPPS1_jPFbRKS1_E,_ZN3r2p16SubscriberExtBufIN
 2631              		.section	.text._ZN3r2p16SubscriberExtBufINS_9Speed3MsgEED2Ev,"axG",%progbits,_ZN3r2p16SubscriberEx
 2632              		.align	2
 2633              		.p2align 4,,15
 2634              		.weak	_ZN3r2p16SubscriberExtBufINS_9Speed3MsgEED2Ev
 2635              		.thumb
 2636              		.thumb_func
 2637              		.type	_ZN3r2p16SubscriberExtBufINS_9Speed3MsgEED2Ev, %function
ARM GAS  /tmp/ccWQ6gKG.s 			page 48


 2638              	_ZN3r2p16SubscriberExtBufINS_9Speed3MsgEED2Ev:
 2639              	.LFB667:
 2640              		.loc 12 76 0
 2641              		.cfi_startproc
 2642              		@ args = 0, pretend = 0, frame = 8
 2643              		@ frame_needed = 0, uses_anonymous_args = 0
 2644 0000 00B5     		push	{lr}
 2645              		.cfi_def_cfa_offset 4
 2646              		.cfi_offset 14, -4
 2647 0002 83B0     		sub	sp, sp, #12
 2648              		.cfi_def_cfa_offset 16
 2649 0004 0190     		str	r0, [sp, #4]
 2650              	.LBB68:
 2651              		.loc 12 79 0
 2652 0006 019B     		ldr	r3, [sp, #4]
 2653 0008 084A     		ldr	r2, .L171
 2654 000a 1A60     		str	r2, [r3]
 2655 000c 019B     		ldr	r3, [sp, #4]
 2656 000e 1846     		mov	r0, r3
 2657 0010 FFF7FEFF 		bl	_ZN3r2p15LocalSubscriberD2Ev
 2658              	.LBE68:
 2659 0014 0023     		movs	r3, #0
 2660 0016 002B     		cmp	r3, #0
 2661 0018 02D0     		beq	.L169
 2662              		.loc 12 79 0 is_stmt 0 discriminator 2
 2663 001a 0198     		ldr	r0, [sp, #4]
 2664 001c FFF7FEFF 		bl	_ZdlPv
 2665              	.L169:
 2666              		.loc 12 79 0 discriminator 4
 2667 0020 019B     		ldr	r3, [sp, #4]
 2668 0022 1846     		mov	r0, r3
 2669 0024 03B0     		add	sp, sp, #12
 2670              		.cfi_def_cfa_offset 4
 2671              		@ sp needed
 2672 0026 5DF804FB 		ldr	pc, [sp], #4
 2673              	.L172:
 2674 002a 00BF     		.align	2
 2675              	.L171:
 2676 002c 08000000 		.word	_ZTVN3r2p16SubscriberExtBufINS_9Speed3MsgEEE+8
 2677              		.cfi_endproc
 2678              	.LFE667:
 2679              		.size	_ZN3r2p16SubscriberExtBufINS_9Speed3MsgEED2Ev, .-_ZN3r2p16SubscriberExtBufINS_9Speed3MsgEED2
 2680              		.weak	_ZN3r2p16SubscriberExtBufINS_9Speed3MsgEED1Ev
 2681              		.thumb_set _ZN3r2p16SubscriberExtBufINS_9Speed3MsgEED1Ev,_ZN3r2p16SubscriberExtBufINS_9Speed3MsgEE
 2682              		.section	.text._ZN3r2p16SubscriberExtBufINS_9Speed3MsgEED0Ev,"axG",%progbits,_ZN3r2p16SubscriberEx
 2683              		.align	2
 2684              		.p2align 4,,15
 2685              		.weak	_ZN3r2p16SubscriberExtBufINS_9Speed3MsgEED0Ev
 2686              		.thumb
 2687              		.thumb_func
 2688              		.type	_ZN3r2p16SubscriberExtBufINS_9Speed3MsgEED0Ev, %function
 2689              	_ZN3r2p16SubscriberExtBufINS_9Speed3MsgEED0Ev:
 2690              	.LFB669:
 2691              		.loc 12 76 0 is_stmt 1
 2692              		.cfi_startproc
 2693              		@ args = 0, pretend = 0, frame = 8
 2694              		@ frame_needed = 0, uses_anonymous_args = 0
ARM GAS  /tmp/ccWQ6gKG.s 			page 49


 2695 0000 00B5     		push	{lr}
 2696              		.cfi_def_cfa_offset 4
 2697              		.cfi_offset 14, -4
 2698 0002 83B0     		sub	sp, sp, #12
 2699              		.cfi_def_cfa_offset 16
 2700 0004 0190     		str	r0, [sp, #4]
 2701              		.loc 12 79 0
 2702 0006 0198     		ldr	r0, [sp, #4]
 2703 0008 FFF7FEFF 		bl	_ZN3r2p16SubscriberExtBufINS_9Speed3MsgEED1Ev
 2704 000c 0198     		ldr	r0, [sp, #4]
 2705 000e FFF7FEFF 		bl	_ZdlPv
 2706 0012 019B     		ldr	r3, [sp, #4]
 2707 0014 1846     		mov	r0, r3
 2708 0016 03B0     		add	sp, sp, #12
 2709              		.cfi_def_cfa_offset 4
 2710              		@ sp needed
 2711 0018 5DF804FB 		ldr	pc, [sp], #4
 2712              		.cfi_endproc
 2713              	.LFE669:
 2714              		.size	_ZN3r2p16SubscriberExtBufINS_9Speed3MsgEED0Ev, .-_ZN3r2p16SubscriberExtBufINS_9Speed3MsgEED0
 2715 001c AFF30080 		.section	.text._ZN3r2p16SubscriberExtBufINS_10EncoderMsgEEC2EPPS1_jPFbRKS1_E,"axG",%progbits,_ZN3r
 2716              		.align	2
 2717              		.p2align 4,,15
 2718              		.weak	_ZN3r2p16SubscriberExtBufINS_10EncoderMsgEEC2EPPS1_jPFbRKS1_E
 2719              		.thumb
 2720              		.thumb_func
 2721              		.type	_ZN3r2p16SubscriberExtBufINS_10EncoderMsgEEC2EPPS1_jPFbRKS1_E, %function
 2722              	_ZN3r2p16SubscriberExtBufINS_10EncoderMsgEEC2EPPS1_jPFbRKS1_E:
 2723              	.LFB671:
 2724              		.loc 12 65 0
 2725              		.cfi_startproc
 2726              		@ args = 0, pretend = 0, frame = 16
 2727              		@ frame_needed = 0, uses_anonymous_args = 0
 2728 0000 00B5     		push	{lr}
 2729              		.cfi_def_cfa_offset 4
 2730              		.cfi_offset 14, -4
 2731 0002 85B0     		sub	sp, sp, #20
 2732              		.cfi_def_cfa_offset 24
 2733 0004 0390     		str	r0, [sp, #12]
 2734 0006 0291     		str	r1, [sp, #8]
 2735 0008 0192     		str	r2, [sp, #4]
 2736 000a 0093     		str	r3, [sp]
 2737              	.LBB69:
 2738              		.loc 12 69 0
 2739 000c 039B     		ldr	r3, [sp, #12]
 2740 000e 1846     		mov	r0, r3
 2741 0010 0299     		ldr	r1, [sp, #8]
 2742 0012 019A     		ldr	r2, [sp, #4]
 2743 0014 009B     		ldr	r3, [sp]
 2744 0016 FFF7FEFF 		bl	_ZN3r2p15LocalSubscriberC2EPPNS_7MessageEjPFbRKS1_E
 2745 001a 039B     		ldr	r3, [sp, #12]
 2746 001c 034A     		ldr	r2, .L179
 2747 001e 1A60     		str	r2, [r3]
 2748              	.LBE69:
 2749              		.loc 12 72 0
 2750 0020 039B     		ldr	r3, [sp, #12]
 2751 0022 1846     		mov	r0, r3
ARM GAS  /tmp/ccWQ6gKG.s 			page 50


 2752 0024 05B0     		add	sp, sp, #20
 2753              		.cfi_def_cfa_offset 4
 2754              		@ sp needed
 2755 0026 5DF804FB 		ldr	pc, [sp], #4
 2756              	.L180:
 2757 002a 00BF     		.align	2
 2758              	.L179:
 2759 002c 08000000 		.word	_ZTVN3r2p16SubscriberExtBufINS_10EncoderMsgEEE+8
 2760              		.cfi_endproc
 2761              	.LFE671:
 2762              		.size	_ZN3r2p16SubscriberExtBufINS_10EncoderMsgEEC2EPPS1_jPFbRKS1_E, .-_ZN3r2p16SubscriberExtBufIN
 2763              		.weak	_ZN3r2p16SubscriberExtBufINS_10EncoderMsgEEC1EPPS1_jPFbRKS1_E
 2764              		.thumb_set _ZN3r2p16SubscriberExtBufINS_10EncoderMsgEEC1EPPS1_jPFbRKS1_E,_ZN3r2p16SubscriberExtBuf
 2765              		.section	.text._ZN3r2p16SubscriberExtBufINS_10EncoderMsgEED2Ev,"axG",%progbits,_ZN3r2p16Subscriber
 2766              		.align	2
 2767              		.p2align 4,,15
 2768              		.weak	_ZN3r2p16SubscriberExtBufINS_10EncoderMsgEED2Ev
 2769              		.thumb
 2770              		.thumb_func
 2771              		.type	_ZN3r2p16SubscriberExtBufINS_10EncoderMsgEED2Ev, %function
 2772              	_ZN3r2p16SubscriberExtBufINS_10EncoderMsgEED2Ev:
 2773              	.LFB674:
 2774              		.loc 12 76 0
 2775              		.cfi_startproc
 2776              		@ args = 0, pretend = 0, frame = 8
 2777              		@ frame_needed = 0, uses_anonymous_args = 0
 2778 0000 00B5     		push	{lr}
 2779              		.cfi_def_cfa_offset 4
 2780              		.cfi_offset 14, -4
 2781 0002 83B0     		sub	sp, sp, #12
 2782              		.cfi_def_cfa_offset 16
 2783 0004 0190     		str	r0, [sp, #4]
 2784              	.LBB70:
 2785              		.loc 12 79 0
 2786 0006 019B     		ldr	r3, [sp, #4]
 2787 0008 084A     		ldr	r2, .L185
 2788 000a 1A60     		str	r2, [r3]
 2789 000c 019B     		ldr	r3, [sp, #4]
 2790 000e 1846     		mov	r0, r3
 2791 0010 FFF7FEFF 		bl	_ZN3r2p15LocalSubscriberD2Ev
 2792              	.LBE70:
 2793 0014 0023     		movs	r3, #0
 2794 0016 002B     		cmp	r3, #0
 2795 0018 02D0     		beq	.L183
 2796              		.loc 12 79 0 is_stmt 0 discriminator 2
 2797 001a 0198     		ldr	r0, [sp, #4]
 2798 001c FFF7FEFF 		bl	_ZdlPv
 2799              	.L183:
 2800              		.loc 12 79 0 discriminator 4
 2801 0020 019B     		ldr	r3, [sp, #4]
 2802 0022 1846     		mov	r0, r3
 2803 0024 03B0     		add	sp, sp, #12
 2804              		.cfi_def_cfa_offset 4
 2805              		@ sp needed
 2806 0026 5DF804FB 		ldr	pc, [sp], #4
 2807              	.L186:
 2808 002a 00BF     		.align	2
ARM GAS  /tmp/ccWQ6gKG.s 			page 51


 2809              	.L185:
 2810 002c 08000000 		.word	_ZTVN3r2p16SubscriberExtBufINS_10EncoderMsgEEE+8
 2811              		.cfi_endproc
 2812              	.LFE674:
 2813              		.size	_ZN3r2p16SubscriberExtBufINS_10EncoderMsgEED2Ev, .-_ZN3r2p16SubscriberExtBufINS_10EncoderMsg
 2814              		.weak	_ZN3r2p16SubscriberExtBufINS_10EncoderMsgEED1Ev
 2815              		.thumb_set _ZN3r2p16SubscriberExtBufINS_10EncoderMsgEED1Ev,_ZN3r2p16SubscriberExtBufINS_10EncoderM
 2816              		.section	.text._ZN3r2p16SubscriberExtBufINS_10EncoderMsgEED0Ev,"axG",%progbits,_ZN3r2p16Subscriber
 2817              		.align	2
 2818              		.p2align 4,,15
 2819              		.weak	_ZN3r2p16SubscriberExtBufINS_10EncoderMsgEED0Ev
 2820              		.thumb
 2821              		.thumb_func
 2822              		.type	_ZN3r2p16SubscriberExtBufINS_10EncoderMsgEED0Ev, %function
 2823              	_ZN3r2p16SubscriberExtBufINS_10EncoderMsgEED0Ev:
 2824              	.LFB676:
 2825              		.loc 12 76 0 is_stmt 1
 2826              		.cfi_startproc
 2827              		@ args = 0, pretend = 0, frame = 8
 2828              		@ frame_needed = 0, uses_anonymous_args = 0
 2829 0000 00B5     		push	{lr}
 2830              		.cfi_def_cfa_offset 4
 2831              		.cfi_offset 14, -4
 2832 0002 83B0     		sub	sp, sp, #12
 2833              		.cfi_def_cfa_offset 16
 2834 0004 0190     		str	r0, [sp, #4]
 2835              		.loc 12 79 0
 2836 0006 0198     		ldr	r0, [sp, #4]
 2837 0008 FFF7FEFF 		bl	_ZN3r2p16SubscriberExtBufINS_10EncoderMsgEED1Ev
 2838 000c 0198     		ldr	r0, [sp, #4]
 2839 000e FFF7FEFF 		bl	_ZdlPv
 2840 0012 019B     		ldr	r3, [sp, #4]
 2841 0014 1846     		mov	r0, r3
 2842 0016 03B0     		add	sp, sp, #12
 2843              		.cfi_def_cfa_offset 4
 2844              		@ sp needed
 2845 0018 5DF804FB 		ldr	pc, [sp], #4
 2846              		.cfi_endproc
 2847              	.LFE676:
 2848              		.size	_ZN3r2p16SubscriberExtBufINS_10EncoderMsgEED0Ev, .-_ZN3r2p16SubscriberExtBufINS_10EncoderMsg
 2849 001c AFF30080 		.section	.text._ZN3r2p16SubscriberExtBufINS_9PIDCfgMsgEEC2EPPS1_jPFbRKS1_E,"axG",%progbits,_ZN3r2p
 2850              		.align	2
 2851              		.p2align 4,,15
 2852              		.weak	_ZN3r2p16SubscriberExtBufINS_9PIDCfgMsgEEC2EPPS1_jPFbRKS1_E
 2853              		.thumb
 2854              		.thumb_func
 2855              		.type	_ZN3r2p16SubscriberExtBufINS_9PIDCfgMsgEEC2EPPS1_jPFbRKS1_E, %function
 2856              	_ZN3r2p16SubscriberExtBufINS_9PIDCfgMsgEEC2EPPS1_jPFbRKS1_E:
 2857              	.LFB678:
 2858              		.loc 12 65 0
 2859              		.cfi_startproc
 2860              		@ args = 0, pretend = 0, frame = 16
 2861              		@ frame_needed = 0, uses_anonymous_args = 0
 2862 0000 00B5     		push	{lr}
 2863              		.cfi_def_cfa_offset 4
 2864              		.cfi_offset 14, -4
 2865 0002 85B0     		sub	sp, sp, #20
ARM GAS  /tmp/ccWQ6gKG.s 			page 52


 2866              		.cfi_def_cfa_offset 24
 2867 0004 0390     		str	r0, [sp, #12]
 2868 0006 0291     		str	r1, [sp, #8]
 2869 0008 0192     		str	r2, [sp, #4]
 2870 000a 0093     		str	r3, [sp]
 2871              	.LBB71:
 2872              		.loc 12 69 0
 2873 000c 039B     		ldr	r3, [sp, #12]
 2874 000e 1846     		mov	r0, r3
 2875 0010 0299     		ldr	r1, [sp, #8]
 2876 0012 019A     		ldr	r2, [sp, #4]
 2877 0014 009B     		ldr	r3, [sp]
 2878 0016 FFF7FEFF 		bl	_ZN3r2p15LocalSubscriberC2EPPNS_7MessageEjPFbRKS1_E
 2879 001a 039B     		ldr	r3, [sp, #12]
 2880 001c 034A     		ldr	r2, .L193
 2881 001e 1A60     		str	r2, [r3]
 2882              	.LBE71:
 2883              		.loc 12 72 0
 2884 0020 039B     		ldr	r3, [sp, #12]
 2885 0022 1846     		mov	r0, r3
 2886 0024 05B0     		add	sp, sp, #20
 2887              		.cfi_def_cfa_offset 4
 2888              		@ sp needed
 2889 0026 5DF804FB 		ldr	pc, [sp], #4
 2890              	.L194:
 2891 002a 00BF     		.align	2
 2892              	.L193:
 2893 002c 08000000 		.word	_ZTVN3r2p16SubscriberExtBufINS_9PIDCfgMsgEEE+8
 2894              		.cfi_endproc
 2895              	.LFE678:
 2896              		.size	_ZN3r2p16SubscriberExtBufINS_9PIDCfgMsgEEC2EPPS1_jPFbRKS1_E, .-_ZN3r2p16SubscriberExtBufINS_
 2897              		.weak	_ZN3r2p16SubscriberExtBufINS_9PIDCfgMsgEEC1EPPS1_jPFbRKS1_E
 2898              		.thumb_set _ZN3r2p16SubscriberExtBufINS_9PIDCfgMsgEEC1EPPS1_jPFbRKS1_E,_ZN3r2p16SubscriberExtBufIN
 2899              		.section	.text._ZN3r2p16SubscriberExtBufINS_9PIDCfgMsgEED2Ev,"axG",%progbits,_ZN3r2p16SubscriberEx
 2900              		.align	2
 2901              		.p2align 4,,15
 2902              		.weak	_ZN3r2p16SubscriberExtBufINS_9PIDCfgMsgEED2Ev
 2903              		.thumb
 2904              		.thumb_func
 2905              		.type	_ZN3r2p16SubscriberExtBufINS_9PIDCfgMsgEED2Ev, %function
 2906              	_ZN3r2p16SubscriberExtBufINS_9PIDCfgMsgEED2Ev:
 2907              	.LFB681:
 2908              		.loc 12 76 0
 2909              		.cfi_startproc
 2910              		@ args = 0, pretend = 0, frame = 8
 2911              		@ frame_needed = 0, uses_anonymous_args = 0
 2912 0000 00B5     		push	{lr}
 2913              		.cfi_def_cfa_offset 4
 2914              		.cfi_offset 14, -4
 2915 0002 83B0     		sub	sp, sp, #12
 2916              		.cfi_def_cfa_offset 16
 2917 0004 0190     		str	r0, [sp, #4]
 2918              	.LBB72:
 2919              		.loc 12 79 0
 2920 0006 019B     		ldr	r3, [sp, #4]
 2921 0008 084A     		ldr	r2, .L199
 2922 000a 1A60     		str	r2, [r3]
ARM GAS  /tmp/ccWQ6gKG.s 			page 53


 2923 000c 019B     		ldr	r3, [sp, #4]
 2924 000e 1846     		mov	r0, r3
 2925 0010 FFF7FEFF 		bl	_ZN3r2p15LocalSubscriberD2Ev
 2926              	.LBE72:
 2927 0014 0023     		movs	r3, #0
 2928 0016 002B     		cmp	r3, #0
 2929 0018 02D0     		beq	.L197
 2930              		.loc 12 79 0 is_stmt 0 discriminator 2
 2931 001a 0198     		ldr	r0, [sp, #4]
 2932 001c FFF7FEFF 		bl	_ZdlPv
 2933              	.L197:
 2934              		.loc 12 79 0 discriminator 4
 2935 0020 019B     		ldr	r3, [sp, #4]
 2936 0022 1846     		mov	r0, r3
 2937 0024 03B0     		add	sp, sp, #12
 2938              		.cfi_def_cfa_offset 4
 2939              		@ sp needed
 2940 0026 5DF804FB 		ldr	pc, [sp], #4
 2941              	.L200:
 2942 002a 00BF     		.align	2
 2943              	.L199:
 2944 002c 08000000 		.word	_ZTVN3r2p16SubscriberExtBufINS_9PIDCfgMsgEEE+8
 2945              		.cfi_endproc
 2946              	.LFE681:
 2947              		.size	_ZN3r2p16SubscriberExtBufINS_9PIDCfgMsgEED2Ev, .-_ZN3r2p16SubscriberExtBufINS_9PIDCfgMsgEED2
 2948              		.weak	_ZN3r2p16SubscriberExtBufINS_9PIDCfgMsgEED1Ev
 2949              		.thumb_set _ZN3r2p16SubscriberExtBufINS_9PIDCfgMsgEED1Ev,_ZN3r2p16SubscriberExtBufINS_9PIDCfgMsgEE
 2950              		.section	.text._ZN3r2p16SubscriberExtBufINS_9PIDCfgMsgEED0Ev,"axG",%progbits,_ZN3r2p16SubscriberEx
 2951              		.align	2
 2952              		.p2align 4,,15
 2953              		.weak	_ZN3r2p16SubscriberExtBufINS_9PIDCfgMsgEED0Ev
 2954              		.thumb
 2955              		.thumb_func
 2956              		.type	_ZN3r2p16SubscriberExtBufINS_9PIDCfgMsgEED0Ev, %function
 2957              	_ZN3r2p16SubscriberExtBufINS_9PIDCfgMsgEED0Ev:
 2958              	.LFB683:
 2959              		.loc 12 76 0 is_stmt 1
 2960              		.cfi_startproc
 2961              		@ args = 0, pretend = 0, frame = 8
 2962              		@ frame_needed = 0, uses_anonymous_args = 0
 2963 0000 00B5     		push	{lr}
 2964              		.cfi_def_cfa_offset 4
 2965              		.cfi_offset 14, -4
 2966 0002 83B0     		sub	sp, sp, #12
 2967              		.cfi_def_cfa_offset 16
 2968 0004 0190     		str	r0, [sp, #4]
 2969              		.loc 12 79 0
 2970 0006 0198     		ldr	r0, [sp, #4]
 2971 0008 FFF7FEFF 		bl	_ZN3r2p16SubscriberExtBufINS_9PIDCfgMsgEED1Ev
 2972 000c 0198     		ldr	r0, [sp, #4]
 2973 000e FFF7FEFF 		bl	_ZdlPv
 2974 0012 019B     		ldr	r3, [sp, #4]
 2975 0014 1846     		mov	r0, r3
 2976 0016 03B0     		add	sp, sp, #12
 2977              		.cfi_def_cfa_offset 4
 2978              		@ sp needed
 2979 0018 5DF804FB 		ldr	pc, [sp], #4
ARM GAS  /tmp/ccWQ6gKG.s 			page 54


 2980              		.cfi_endproc
 2981              	.LFE683:
 2982              		.size	_ZN3r2p16SubscriberExtBufINS_9PIDCfgMsgEED0Ev, .-_ZN3r2p16SubscriberExtBufINS_9PIDCfgMsgEED0
 2983              		.weak	_ZTVN3r2p10SubscriberINS_9PIDCfgMsgELj5EEE
 2984 001c AFF30080 		.section	.rodata._ZTVN3r2p10SubscriberINS_9PIDCfgMsgELj5EEE,"aG",%progbits,_ZTVN3r2p10SubscriberIN
 2985              		.align	3
 2986              		.type	_ZTVN3r2p10SubscriberINS_9PIDCfgMsgELj5EEE, %object
 2987              		.size	_ZTVN3r2p10SubscriberINS_9PIDCfgMsgELj5EEE, 36
 2988              	_ZTVN3r2p10SubscriberINS_9PIDCfgMsgELj5EEE:
 2989 0000 00000000 		.word	0
 2990 0004 00000000 		.word	0
 2991 0008 00000000 		.word	_ZNK3r2p15LocalSubscriber16get_queue_lengthEv
 2992 000c 00000000 		.word	_ZN3r2p15LocalSubscriber13notify_unsafeERNS_7MessageERKNS_4TimeE
 2993 0010 00000000 		.word	_ZN3r2p15LocalSubscriber12fetch_unsafeERPNS_7MessageERNS_4TimeE
 2994 0014 00000000 		.word	_ZN3r2p15LocalSubscriber6notifyERNS_7MessageERKNS_4TimeE
 2995 0018 00000000 		.word	_ZN3r2p15LocalSubscriber5fetchERPNS_7MessageERNS_4TimeE
 2996 001c 00000000 		.word	_ZN3r2p10SubscriberINS_9PIDCfgMsgELj5EED1Ev
 2997 0020 00000000 		.word	_ZN3r2p10SubscriberINS_9PIDCfgMsgELj5EED0Ev
 2998              		.weak	_ZTVN3r2p16SubscriberExtBufINS_9PIDCfgMsgEEE
 2999 0024 00000000 		.section	.rodata._ZTVN3r2p16SubscriberExtBufINS_9PIDCfgMsgEEE,"aG",%progbits,_ZTVN3r2p16Subscriber
 3000              		.align	3
 3001              		.type	_ZTVN3r2p16SubscriberExtBufINS_9PIDCfgMsgEEE, %object
 3002              		.size	_ZTVN3r2p16SubscriberExtBufINS_9PIDCfgMsgEEE, 36
 3003              	_ZTVN3r2p16SubscriberExtBufINS_9PIDCfgMsgEEE:
 3004 0000 00000000 		.word	0
 3005 0004 00000000 		.word	0
 3006 0008 00000000 		.word	_ZNK3r2p15LocalSubscriber16get_queue_lengthEv
 3007 000c 00000000 		.word	_ZN3r2p15LocalSubscriber13notify_unsafeERNS_7MessageERKNS_4TimeE
 3008 0010 00000000 		.word	_ZN3r2p15LocalSubscriber12fetch_unsafeERPNS_7MessageERNS_4TimeE
 3009 0014 00000000 		.word	_ZN3r2p15LocalSubscriber6notifyERNS_7MessageERKNS_4TimeE
 3010 0018 00000000 		.word	_ZN3r2p15LocalSubscriber5fetchERPNS_7MessageERNS_4TimeE
 3011 001c 00000000 		.word	_ZN3r2p16SubscriberExtBufINS_9PIDCfgMsgEED1Ev
 3012 0020 00000000 		.word	_ZN3r2p16SubscriberExtBufINS_9PIDCfgMsgEED0Ev
 3013              		.weak	_ZTVN3r2p10SubscriberINS_10EncoderMsgELj5EEE
 3014 0024 00000000 		.section	.rodata._ZTVN3r2p10SubscriberINS_10EncoderMsgELj5EEE,"aG",%progbits,_ZTVN3r2p10Subscriber
 3015              		.align	3
 3016              		.type	_ZTVN3r2p10SubscriberINS_10EncoderMsgELj5EEE, %object
 3017              		.size	_ZTVN3r2p10SubscriberINS_10EncoderMsgELj5EEE, 36
 3018              	_ZTVN3r2p10SubscriberINS_10EncoderMsgELj5EEE:
 3019 0000 00000000 		.word	0
 3020 0004 00000000 		.word	0
 3021 0008 00000000 		.word	_ZNK3r2p15LocalSubscriber16get_queue_lengthEv
 3022 000c 00000000 		.word	_ZN3r2p15LocalSubscriber13notify_unsafeERNS_7MessageERKNS_4TimeE
 3023 0010 00000000 		.word	_ZN3r2p15LocalSubscriber12fetch_unsafeERPNS_7MessageERNS_4TimeE
 3024 0014 00000000 		.word	_ZN3r2p15LocalSubscriber6notifyERNS_7MessageERKNS_4TimeE
 3025 0018 00000000 		.word	_ZN3r2p15LocalSubscriber5fetchERPNS_7MessageERNS_4TimeE
 3026 001c 00000000 		.word	_ZN3r2p10SubscriberINS_10EncoderMsgELj5EED1Ev
 3027 0020 00000000 		.word	_ZN3r2p10SubscriberINS_10EncoderMsgELj5EED0Ev
 3028              		.weak	_ZTVN3r2p16SubscriberExtBufINS_10EncoderMsgEEE
 3029 0024 00000000 		.section	.rodata._ZTVN3r2p16SubscriberExtBufINS_10EncoderMsgEEE,"aG",%progbits,_ZTVN3r2p16Subscrib
 3030              		.align	3
 3031              		.type	_ZTVN3r2p16SubscriberExtBufINS_10EncoderMsgEEE, %object
 3032              		.size	_ZTVN3r2p16SubscriberExtBufINS_10EncoderMsgEEE, 36
 3033              	_ZTVN3r2p16SubscriberExtBufINS_10EncoderMsgEEE:
 3034 0000 00000000 		.word	0
 3035 0004 00000000 		.word	0
 3036 0008 00000000 		.word	_ZNK3r2p15LocalSubscriber16get_queue_lengthEv
ARM GAS  /tmp/ccWQ6gKG.s 			page 55


 3037 000c 00000000 		.word	_ZN3r2p15LocalSubscriber13notify_unsafeERNS_7MessageERKNS_4TimeE
 3038 0010 00000000 		.word	_ZN3r2p15LocalSubscriber12fetch_unsafeERPNS_7MessageERNS_4TimeE
 3039 0014 00000000 		.word	_ZN3r2p15LocalSubscriber6notifyERNS_7MessageERKNS_4TimeE
 3040 0018 00000000 		.word	_ZN3r2p15LocalSubscriber5fetchERPNS_7MessageERNS_4TimeE
 3041 001c 00000000 		.word	_ZN3r2p16SubscriberExtBufINS_10EncoderMsgEED1Ev
 3042 0020 00000000 		.word	_ZN3r2p16SubscriberExtBufINS_10EncoderMsgEED0Ev
 3043              		.weak	_ZTVN3r2p10SubscriberINS_9Speed3MsgELj5EEE
 3044 0024 00000000 		.section	.rodata._ZTVN3r2p10SubscriberINS_9Speed3MsgELj5EEE,"aG",%progbits,_ZTVN3r2p10SubscriberIN
 3045              		.align	3
 3046              		.type	_ZTVN3r2p10SubscriberINS_9Speed3MsgELj5EEE, %object
 3047              		.size	_ZTVN3r2p10SubscriberINS_9Speed3MsgELj5EEE, 36
 3048              	_ZTVN3r2p10SubscriberINS_9Speed3MsgELj5EEE:
 3049 0000 00000000 		.word	0
 3050 0004 00000000 		.word	0
 3051 0008 00000000 		.word	_ZNK3r2p15LocalSubscriber16get_queue_lengthEv
 3052 000c 00000000 		.word	_ZN3r2p15LocalSubscriber13notify_unsafeERNS_7MessageERKNS_4TimeE
 3053 0010 00000000 		.word	_ZN3r2p15LocalSubscriber12fetch_unsafeERPNS_7MessageERNS_4TimeE
 3054 0014 00000000 		.word	_ZN3r2p15LocalSubscriber6notifyERNS_7MessageERKNS_4TimeE
 3055 0018 00000000 		.word	_ZN3r2p15LocalSubscriber5fetchERPNS_7MessageERNS_4TimeE
 3056 001c 00000000 		.word	_ZN3r2p10SubscriberINS_9Speed3MsgELj5EED1Ev
 3057 0020 00000000 		.word	_ZN3r2p10SubscriberINS_9Speed3MsgELj5EED0Ev
 3058              		.weak	_ZTVN3r2p16SubscriberExtBufINS_9Speed3MsgEEE
 3059 0024 00000000 		.section	.rodata._ZTVN3r2p16SubscriberExtBufINS_9Speed3MsgEEE,"aG",%progbits,_ZTVN3r2p16Subscriber
 3060              		.align	3
 3061              		.type	_ZTVN3r2p16SubscriberExtBufINS_9Speed3MsgEEE, %object
 3062              		.size	_ZTVN3r2p16SubscriberExtBufINS_9Speed3MsgEEE, 36
 3063              	_ZTVN3r2p16SubscriberExtBufINS_9Speed3MsgEEE:
 3064 0000 00000000 		.word	0
 3065 0004 00000000 		.word	0
 3066 0008 00000000 		.word	_ZNK3r2p15LocalSubscriber16get_queue_lengthEv
 3067 000c 00000000 		.word	_ZN3r2p15LocalSubscriber13notify_unsafeERNS_7MessageERKNS_4TimeE
 3068 0010 00000000 		.word	_ZN3r2p15LocalSubscriber12fetch_unsafeERPNS_7MessageERNS_4TimeE
 3069 0014 00000000 		.word	_ZN3r2p15LocalSubscriber6notifyERNS_7MessageERKNS_4TimeE
 3070 0018 00000000 		.word	_ZN3r2p15LocalSubscriber5fetchERPNS_7MessageERNS_4TimeE
 3071 001c 00000000 		.word	_ZN3r2p16SubscriberExtBufINS_9Speed3MsgEED1Ev
 3072 0020 00000000 		.word	_ZN3r2p16SubscriberExtBufINS_9Speed3MsgEED0Ev
 3073 0024 00000000 		.section	.text._Z41__static_initialization_and_destruction_0ii,"ax",%progbits
 3074              		.align	2
 3075              		.p2align 4,,15
 3076              		.thumb
 3077              		.thumb_func
 3078              		.type	_Z41__static_initialization_and_destruction_0ii, %function
 3079              	_Z41__static_initialization_and_destruction_0ii:
 3080              	.LFB687:
 3081              		.loc 8 111 0
 3082              		.cfi_startproc
 3083              		@ args = 0, pretend = 0, frame = 8
 3084              		@ frame_needed = 0, uses_anonymous_args = 0
 3085 0000 00B5     		push	{lr}
 3086              		.cfi_def_cfa_offset 4
 3087              		.cfi_offset 14, -4
 3088 0002 83B0     		sub	sp, sp, #12
 3089              		.cfi_def_cfa_offset 16
 3090 0004 0190     		str	r0, [sp, #4]
 3091 0006 0091     		str	r1, [sp]
 3092              		.loc 8 111 0
 3093 0008 019B     		ldr	r3, [sp, #4]
ARM GAS  /tmp/ccWQ6gKG.s 			page 56


 3094 000a 012B     		cmp	r3, #1
 3095 000c 07D1     		bne	.L204
 3096              		.loc 8 111 0 is_stmt 0 discriminator 1
 3097 000e 009B     		ldr	r3, [sp]
 3098 0010 4FF6FF72 		movw	r2, #65535
 3099 0014 9342     		cmp	r3, r2
 3100 0016 02D1     		bne	.L204
 3101              		.loc 8 42 0 is_stmt 1
 3102 0018 0248     		ldr	r0, .L206
 3103 001a FFF7FEFF 		bl	_ZN3PIDC2Ev
 3104              	.L204:
 3105              		.loc 8 111 0
 3106 001e 03B0     		add	sp, sp, #12
 3107              		.cfi_def_cfa_offset 4
 3108              		@ sp needed
 3109 0020 5DF804FB 		ldr	pc, [sp], #4
 3110              	.L207:
 3111              		.align	2
 3112              	.L206:
 3113 0024 00000000 		.word	speed_pid
 3114              		.cfi_endproc
 3115              	.LFE687:
 3116              		.size	_Z41__static_initialization_and_destruction_0ii, .-_Z41__static_initialization_and_destructi
 3117 0028 AFF30080 		.section	.text._GLOBAL__sub_I__ZN3PIDC2Ev,"ax",%progbits
 3117      AFF30080 
 3118              		.align	2
 3119              		.p2align 4,,15
 3120              		.thumb
 3121              		.thumb_func
 3122              		.type	_GLOBAL__sub_I__ZN3PIDC2Ev, %function
 3123              	_GLOBAL__sub_I__ZN3PIDC2Ev:
 3124              	.LFB688:
 3125              		.loc 8 111 0
 3126              		.cfi_startproc
 3127              		@ args = 0, pretend = 0, frame = 0
 3128              		@ frame_needed = 0, uses_anonymous_args = 0
 3129 0000 08B5     		push	{r3, lr}
 3130              		.cfi_def_cfa_offset 8
 3131              		.cfi_offset 3, -8
 3132              		.cfi_offset 14, -4
 3133              		.loc 8 111 0
 3134 0002 0120     		movs	r0, #1
 3135 0004 4FF6FF71 		movw	r1, #65535
 3136 0008 FFF7FEFF 		bl	_Z41__static_initialization_and_destruction_0ii
 3137 000c 08BD     		pop	{r3, pc}
 3138              		.cfi_endproc
 3139              	.LFE688:
 3140              		.size	_GLOBAL__sub_I__ZN3PIDC2Ev, .-_GLOBAL__sub_I__ZN3PIDC2Ev
 3141 000e 00BF     		.section	.init_array,"aw",%init_array
 3142              		.align	2
 3143 0000 00000000 		.word	_GLOBAL__sub_I__ZN3PIDC2Ev(target1)
 3144              		.text
 3145              	.Letext0:
 3146              		.file 13 "/home/denny/r2p-sdk/tools/gcc-arm-none-eabi-4_9-2014q4/lib/gcc/arm-none-eabi/4.9.3/inclu
 3147              		.file 14 "/home/denny/r2p-sdk/tools/gcc-arm-none-eabi-4_9-2014q4/arm-none-eabi/include/machine/_de
 3148              		.file 15 "/home/denny/r2p-sdk/tools/gcc-arm-none-eabi-4_9-2014q4/arm-none-eabi/include/stdint.h"
 3149              		.file 16 "/home/denny/r2p-sdk/core/ChibiOS/os/ports/GCC/ARMCMx/chtypes.h"
ARM GAS  /tmp/ccWQ6gKG.s 			page 57


 3150              		.file 17 "/home/denny/r2p-sdk/core/ChibiOS/os/kernel/include/chlists.h"
 3151              		.file 18 "/home/denny/r2p-sdk/core/ChibiOS/os/kernel/include/chthreads.h"
 3152              		.file 19 "/home/denny/r2p-sdk/core/ChibiOS/os/ports/GCC/ARMCMx/chcore_v7m.h"
 3153              		.file 20 "/home/denny/r2p-sdk/core/ChibiOS/os/kernel/include/chschd.h"
 3154              		.file 21 "/home/denny/r2p-sdk/core/ChibiOS/os/kernel/include/chmtx.h"
 3155              		.file 22 "/home/denny/r2p-sdk/core/ChibiOS/os/kernel/include/chmemcore.h"
 3156              		.file 23 "/home/denny/r2p-sdk/core/ChibiOS/os/kernel/include/chmempools.h"
 3157              		.file 24 "/home/denny/r2p-sdk/core/ChibiOS/os/hal/platforms/STM32/GPIOv2/pal_lld.h"
 3158              		.file 25 "/home/denny/r2p-sdk/core/ChibiOS/os/hal/include/pwm.h"
 3159              		.file 26 "/home/denny/r2p-sdk/core/ChibiOS/os/hal/platforms/STM32/TIMv1/pwm_lld.h"
 3160              		.file 27 "/home/denny/r2p-sdk/core/ChibiOS/os/hal/platforms/STM32/TIMv1/stm32_tim.h"
 3161              		.file 28 "/home/denny/r2p-sdk/tools/gcc-arm-none-eabi-4_9-2014q4/arm-none-eabi/include/c++/4.9.3/c
 3162              		.file 29 "/home/denny/r2p-sdk/tools/gcc-arm-none-eabi-4_9-2014q4/arm-none-eabi/include/string.h"
 3163              		.file 30 "<built-in>"
 3164              		.file 31 "/home/denny/r2p-sdk/core/Middleware/include/r2p/Uncopyable.hpp"
 3165              		.file 32 "/home/denny/r2p-sdk/core/Middleware/port/chibios/include/r2p/impl/MemoryPool_.hpp"
 3166              		.file 33 "/home/denny/r2p-sdk/core/Middleware/include/r2p/StaticList.hpp"
 3167              		.file 34 "/home/denny/r2p-sdk/core/Middleware/include/r2p/Topic.hpp"
 3168              		.file 35 "/home/denny/r2p-sdk/core/Middleware/port/chibios/include/r2p/impl/Thread_.hpp"
 3169              		.file 36 "/home/denny/r2p-sdk/core/Middleware/include/r2p/Thread.hpp"
 3170              		.file 37 "/home/denny/r2p-sdk/core/Middleware/include/r2p/BaseSubscriber.hpp"
 3171              		.file 38 "/home/denny/r2p-sdk/core/Middleware/include/r2p/common.hpp"
 3172              		.file 39 "nodes/pid_node.hpp"
 3173              		.file 40 "/home/denny/r2p-sdk/core/ChibiOS/os/ports/common/ARMCMx/CMSIS/include/core_cm4.h"
 3174              		.section	.debug_info,"",%progbits
 3175              	.Ldebug_info0:
 3176 0000 EF5C0000 		.4byte	0x5cef
 3177 0004 0400     		.2byte	0x4
 3178 0006 00000000 		.4byte	.Ldebug_abbrev0
 3179 000a 04       		.byte	0x4
 3180 000b 01       		.uleb128 0x1
 3181 000c 48090000 		.4byte	.LASF766
 3182 0010 04       		.byte	0x4
 3183 0011 521B0000 		.4byte	.LASF767
 3184 0015 121D0000 		.4byte	.LASF768
 3185 0019 00000000 		.4byte	.Ldebug_ranges0+0
 3186 001d 00000000 		.4byte	0
 3187 0021 00000000 		.4byte	.Ldebug_line0
 3188 0025 02       		.uleb128 0x2
 3189 0026 04       		.byte	0x4
 3190 0027 05       		.byte	0x5
 3191 0028 696E7400 		.ascii	"int\000"
 3192 002c 03       		.uleb128 0x3
 3193 002d 471E0000 		.4byte	.LASF2
 3194 0031 0D       		.byte	0xd
 3195 0032 D4       		.byte	0xd4
 3196 0033 37000000 		.4byte	0x37
 3197 0037 04       		.uleb128 0x4
 3198 0038 04       		.byte	0x4
 3199 0039 07       		.byte	0x7
 3200 003a EF570000 		.4byte	.LASF0
 3201 003e 04       		.uleb128 0x4
 3202 003f 01       		.byte	0x1
 3203 0040 06       		.byte	0x6
 3204 0041 492F0000 		.4byte	.LASF1
 3205 0045 03       		.uleb128 0x3
 3206 0046 82020000 		.4byte	.LASF3
ARM GAS  /tmp/ccWQ6gKG.s 			page 58


 3207 004a 0E       		.byte	0xe
 3208 004b 1D       		.byte	0x1d
 3209 004c 50000000 		.4byte	0x50
 3210 0050 04       		.uleb128 0x4
 3211 0051 01       		.byte	0x1
 3212 0052 08       		.byte	0x8
 3213 0053 84150000 		.4byte	.LASF4
 3214 0057 03       		.uleb128 0x3
 3215 0058 88120000 		.4byte	.LASF5
 3216 005c 0E       		.byte	0xe
 3217 005d 29       		.byte	0x29
 3218 005e 62000000 		.4byte	0x62
 3219 0062 04       		.uleb128 0x4
 3220 0063 02       		.byte	0x2
 3221 0064 05       		.byte	0x5
 3222 0065 8B580000 		.4byte	.LASF6
 3223 0069 03       		.uleb128 0x3
 3224 006a A6120000 		.4byte	.LASF7
 3225 006e 0E       		.byte	0xe
 3226 006f 2B       		.byte	0x2b
 3227 0070 74000000 		.4byte	0x74
 3228 0074 04       		.uleb128 0x4
 3229 0075 02       		.byte	0x2
 3230 0076 07       		.byte	0x7
 3231 0077 362F0000 		.4byte	.LASF8
 3232 007b 03       		.uleb128 0x3
 3233 007c D6450000 		.4byte	.LASF9
 3234 0080 0E       		.byte	0xe
 3235 0081 3F       		.byte	0x3f
 3236 0082 86000000 		.4byte	0x86
 3237 0086 04       		.uleb128 0x4
 3238 0087 04       		.byte	0x4
 3239 0088 05       		.byte	0x5
 3240 0089 34360000 		.4byte	.LASF10
 3241 008d 03       		.uleb128 0x3
 3242 008e 1B460000 		.4byte	.LASF11
 3243 0092 0E       		.byte	0xe
 3244 0093 41       		.byte	0x41
 3245 0094 98000000 		.4byte	0x98
 3246 0098 04       		.uleb128 0x4
 3247 0099 04       		.byte	0x4
 3248 009a 07       		.byte	0x7
 3249 009b 2D3A0000 		.4byte	.LASF12
 3250 009f 04       		.uleb128 0x4
 3251 00a0 08       		.byte	0x8
 3252 00a1 05       		.byte	0x5
 3253 00a2 BE500000 		.4byte	.LASF13
 3254 00a6 03       		.uleb128 0x3
 3255 00a7 CC240000 		.4byte	.LASF14
 3256 00ab 0E       		.byte	0xe
 3257 00ac 5B       		.byte	0x5b
 3258 00ad B1000000 		.4byte	0xb1
 3259 00b1 04       		.uleb128 0x4
 3260 00b2 08       		.byte	0x8
 3261 00b3 07       		.byte	0x7
 3262 00b4 104A0000 		.4byte	.LASF15
 3263 00b8 03       		.uleb128 0x3
ARM GAS  /tmp/ccWQ6gKG.s 			page 59


 3264 00b9 C11E0000 		.4byte	.LASF16
 3265 00bd 0F       		.byte	0xf
 3266 00be 15       		.byte	0x15
 3267 00bf 45000000 		.4byte	0x45
 3268 00c3 03       		.uleb128 0x3
 3269 00c4 2E2F0000 		.4byte	.LASF17
 3270 00c8 0F       		.byte	0xf
 3271 00c9 20       		.byte	0x20
 3272 00ca 57000000 		.4byte	0x57
 3273 00ce 03       		.uleb128 0x3
 3274 00cf 43060000 		.4byte	.LASF18
 3275 00d3 0F       		.byte	0xf
 3276 00d4 21       		.byte	0x21
 3277 00d5 69000000 		.4byte	0x69
 3278 00d9 03       		.uleb128 0x3
 3279 00da 3B0B0000 		.4byte	.LASF19
 3280 00de 0F       		.byte	0xf
 3281 00df 2C       		.byte	0x2c
 3282 00e0 7B000000 		.4byte	0x7b
 3283 00e4 03       		.uleb128 0x3
 3284 00e5 55380000 		.4byte	.LASF20
 3285 00e9 0F       		.byte	0xf
 3286 00ea 2D       		.byte	0x2d
 3287 00eb 8D000000 		.4byte	0x8d
 3288 00ef 03       		.uleb128 0x3
 3289 00f0 84180000 		.4byte	.LASF21
 3290 00f4 0F       		.byte	0xf
 3291 00f5 39       		.byte	0x39
 3292 00f6 A6000000 		.4byte	0xa6
 3293 00fa 04       		.uleb128 0x4
 3294 00fb 01       		.byte	0x1
 3295 00fc 02       		.byte	0x2
 3296 00fd 43090000 		.4byte	.LASF22
 3297 0101 03       		.uleb128 0x3
 3298 0102 0C290000 		.4byte	.LASF23
 3299 0106 10       		.byte	0x10
 3300 0107 2C       		.byte	0x2c
 3301 0108 B8000000 		.4byte	0xb8
 3302 010c 03       		.uleb128 0x3
 3303 010d 834D0000 		.4byte	.LASF24
 3304 0111 10       		.byte	0x10
 3305 0112 2D       		.byte	0x2d
 3306 0113 B8000000 		.4byte	0xb8
 3307 0117 03       		.uleb128 0x3
 3308 0118 A7280000 		.4byte	.LASF25
 3309 011c 10       		.byte	0x10
 3310 011d 2E       		.byte	0x2e
 3311 011e B8000000 		.4byte	0xb8
 3312 0122 03       		.uleb128 0x3
 3313 0123 9D2D0000 		.4byte	.LASF26
 3314 0127 10       		.byte	0x10
 3315 0128 2F       		.byte	0x2f
 3316 0129 B8000000 		.4byte	0xb8
 3317 012d 03       		.uleb128 0x3
 3318 012e 3F110000 		.4byte	.LASF27
 3319 0132 10       		.byte	0x10
 3320 0133 30       		.byte	0x30
ARM GAS  /tmp/ccWQ6gKG.s 			page 60


 3321 0134 E4000000 		.4byte	0xe4
 3322 0138 03       		.uleb128 0x3
 3323 0139 04010000 		.4byte	.LASF28
 3324 013d 10       		.byte	0x10
 3325 013e 31       		.byte	0x31
 3326 013f D9000000 		.4byte	0xd9
 3327 0143 03       		.uleb128 0x3
 3328 0144 84390000 		.4byte	.LASF29
 3329 0148 10       		.byte	0x10
 3330 0149 33       		.byte	0x33
 3331 014a E4000000 		.4byte	0xe4
 3332 014e 03       		.uleb128 0x3
 3333 014f 910B0000 		.4byte	.LASF30
 3334 0153 10       		.byte	0x10
 3335 0154 35       		.byte	0x35
 3336 0155 E4000000 		.4byte	0xe4
 3337 0159 03       		.uleb128 0x3
 3338 015a A8180000 		.4byte	.LASF31
 3339 015e 11       		.byte	0x11
 3340 015f 2A       		.byte	0x2a
 3341 0160 64010000 		.4byte	0x164
 3342 0164 05       		.uleb128 0x5
 3343 0165 A8180000 		.4byte	.LASF31
 3344 0169 4C       		.byte	0x4c
 3345 016a 12       		.byte	0x12
 3346 016b 5E       		.byte	0x5e
 3347 016c A2020000 		.4byte	0x2a2
 3348 0170 06       		.uleb128 0x6
 3349 0171 04       		.byte	0x4
 3350 0172 12       		.byte	0x12
 3351 0173 96       		.byte	0x96
 3352 0174 A5010000 		.4byte	0x1a5
 3353 0178 07       		.uleb128 0x7
 3354 0179 72230000 		.4byte	.LASF32
 3355 017d 12       		.byte	0x12
 3356 017e 9D       		.byte	0x9d
 3357 017f 38010000 		.4byte	0x138
 3358 0183 07       		.uleb128 0x7
 3359 0184 00200000 		.4byte	.LASF33
 3360 0188 12       		.byte	0x12
 3361 0189 A4       		.byte	0xa4
 3362 018a 38010000 		.4byte	0x138
 3363 018e 07       		.uleb128 0x7
 3364 018f 1C430000 		.4byte	.LASF34
 3365 0193 12       		.byte	0x12
 3366 0194 AB       		.byte	0xab
 3367 0195 07030000 		.4byte	0x307
 3368 0199 07       		.uleb128 0x7
 3369 019a 6D4C0000 		.4byte	.LASF35
 3370 019e 12       		.byte	0x12
 3371 019f B2       		.byte	0xb2
 3372 01a0 43010000 		.4byte	0x143
 3373 01a4 00       		.byte	0
 3374 01a5 08       		.uleb128 0x8
 3375 01a6 31260000 		.4byte	.LASF36
 3376 01aa 12       		.byte	0x12
 3377 01ab 5F       		.byte	0x5f
ARM GAS  /tmp/ccWQ6gKG.s 			page 61


 3378 01ac BF050000 		.4byte	0x5bf
 3379 01b0 00       		.byte	0
 3380 01b1 08       		.uleb128 0x8
 3381 01b2 D11E0000 		.4byte	.LASF37
 3382 01b6 12       		.byte	0x12
 3383 01b7 61       		.byte	0x61
 3384 01b8 BF050000 		.4byte	0x5bf
 3385 01bc 04       		.byte	0x4
 3386 01bd 08       		.uleb128 0x8
 3387 01be E6230000 		.4byte	.LASF38
 3388 01c2 12       		.byte	0x12
 3389 01c3 63       		.byte	0x63
 3390 01c4 2D010000 		.4byte	0x12d
 3391 01c8 08       		.byte	0x8
 3392 01c9 08       		.uleb128 0x8
 3393 01ca 21170000 		.4byte	.LASF39
 3394 01ce 12       		.byte	0x12
 3395 01cf 64       		.byte	0x64
 3396 01d0 60040000 		.4byte	0x460
 3397 01d4 0C       		.byte	0xc
 3398 01d5 08       		.uleb128 0x8
 3399 01d6 81070000 		.4byte	.LASF40
 3400 01da 12       		.byte	0x12
 3401 01db 66       		.byte	0x66
 3402 01dc BF050000 		.4byte	0x5bf
 3403 01e0 10       		.byte	0x10
 3404 01e1 08       		.uleb128 0x8
 3405 01e2 5B540000 		.4byte	.LASF41
 3406 01e6 12       		.byte	0x12
 3407 01e7 67       		.byte	0x67
 3408 01e8 BF050000 		.4byte	0x5bf
 3409 01ec 14       		.byte	0x14
 3410 01ed 08       		.uleb128 0x8
 3411 01ee 314E0000 		.4byte	.LASF42
 3412 01f2 12       		.byte	0x12
 3413 01f3 6E       		.byte	0x6e
 3414 01f4 C5050000 		.4byte	0x5c5
 3415 01f8 18       		.byte	0x18
 3416 01f9 08       		.uleb128 0x8
 3417 01fa 0B410000 		.4byte	.LASF43
 3418 01fe 12       		.byte	0x12
 3419 01ff 74       		.byte	0x74
 3420 0200 D7050000 		.4byte	0x5d7
 3421 0204 1C       		.byte	0x1c
 3422 0205 08       		.uleb128 0x8
 3423 0206 EC590000 		.4byte	.LASF44
 3424 020a 12       		.byte	0x12
 3425 020b 79       		.byte	0x79
 3426 020c 0C010000 		.4byte	0x10c
 3427 0210 20       		.byte	0x20
 3428 0211 08       		.uleb128 0x8
 3429 0212 274C0000 		.4byte	.LASF45
 3430 0216 12       		.byte	0x12
 3431 0217 7D       		.byte	0x7d
 3432 0218 01010000 		.4byte	0x101
 3433 021c 21       		.byte	0x21
 3434 021d 08       		.uleb128 0x8
ARM GAS  /tmp/ccWQ6gKG.s 			page 62


 3435 021e D3350000 		.4byte	.LASF46
 3436 0222 12       		.byte	0x12
 3437 0223 82       		.byte	0x82
 3438 0224 17010000 		.4byte	0x117
 3439 0228 22       		.byte	0x22
 3440 0229 08       		.uleb128 0x8
 3441 022a 552F0000 		.4byte	.LASF47
 3442 022e 12       		.byte	0x12
 3443 022f 88       		.byte	0x88
 3444 0230 22010000 		.4byte	0x122
 3445 0234 23       		.byte	0x23
 3446 0235 08       		.uleb128 0x8
 3447 0236 5F2F0000 		.4byte	.LASF48
 3448 023a 12       		.byte	0x12
 3449 023b 8F       		.byte	0x8f
 3450 023c 9D040000 		.4byte	0x49d
 3451 0240 24       		.byte	0x24
 3452 0241 09       		.uleb128 0x9
 3453 0242 705F7500 		.ascii	"p_u\000"
 3454 0246 12       		.byte	0x12
 3455 0247 B4       		.byte	0xb4
 3456 0248 70010000 		.4byte	0x170
 3457 024c 28       		.byte	0x28
 3458 024d 08       		.uleb128 0x8
 3459 024e 12100000 		.4byte	.LASF49
 3460 0252 12       		.byte	0x12
 3461 0253 B9       		.byte	0xb9
 3462 0254 F1020000 		.4byte	0x2f1
 3463 0258 2C       		.byte	0x2c
 3464 0259 08       		.uleb128 0x8
 3465 025a 361D0000 		.4byte	.LASF50
 3466 025e 12       		.byte	0x12
 3467 025f BF       		.byte	0xbf
 3468 0260 CD020000 		.4byte	0x2cd
 3469 0264 30       		.byte	0x30
 3470 0265 08       		.uleb128 0x8
 3471 0266 B1120000 		.4byte	.LASF51
 3472 026a 12       		.byte	0x12
 3473 026b C3       		.byte	0xc3
 3474 026c 38010000 		.4byte	0x138
 3475 0270 38       		.byte	0x38
 3476 0271 08       		.uleb128 0x8
 3477 0272 65470000 		.4byte	.LASF52
 3478 0276 12       		.byte	0x12
 3479 0277 C9       		.byte	0xc9
 3480 0278 43010000 		.4byte	0x143
 3481 027c 3C       		.byte	0x3c
 3482 027d 08       		.uleb128 0x8
 3483 027e F44C0000 		.4byte	.LASF53
 3484 0282 12       		.byte	0x12
 3485 0283 D0       		.byte	0xd0
 3486 0284 DD050000 		.4byte	0x5dd
 3487 0288 40       		.byte	0x40
 3488 0289 08       		.uleb128 0x8
 3489 028a 46430000 		.4byte	.LASF54
 3490 028e 12       		.byte	0x12
 3491 028f D4       		.byte	0xd4
ARM GAS  /tmp/ccWQ6gKG.s 			page 63


 3492 0290 2D010000 		.4byte	0x12d
 3493 0294 44       		.byte	0x44
 3494 0295 08       		.uleb128 0x8
 3495 0296 AF280000 		.4byte	.LASF55
 3496 029a 12       		.byte	0x12
 3497 029b DA       		.byte	0xda
 3498 029c 07030000 		.4byte	0x307
 3499 02a0 48       		.byte	0x48
 3500 02a1 00       		.byte	0
 3501 02a2 0A       		.uleb128 0xa
 3502 02a3 08       		.byte	0x8
 3503 02a4 11       		.byte	0x11
 3504 02a5 61       		.byte	0x61
 3505 02a6 103F0000 		.4byte	.LASF57
 3506 02aa C7020000 		.4byte	0x2c7
 3507 02ae 08       		.uleb128 0x8
 3508 02af 31260000 		.4byte	.LASF36
 3509 02b3 11       		.byte	0x11
 3510 02b4 62       		.byte	0x62
 3511 02b5 C7020000 		.4byte	0x2c7
 3512 02b9 00       		.byte	0
 3513 02ba 08       		.uleb128 0x8
 3514 02bb D11E0000 		.4byte	.LASF37
 3515 02bf 11       		.byte	0x11
 3516 02c0 64       		.byte	0x64
 3517 02c1 C7020000 		.4byte	0x2c7
 3518 02c5 04       		.byte	0x4
 3519 02c6 00       		.byte	0
 3520 02c7 0B       		.uleb128 0xb
 3521 02c8 04       		.byte	0x4
 3522 02c9 59010000 		.4byte	0x159
 3523 02cd 03       		.uleb128 0x3
 3524 02ce B41E0000 		.4byte	.LASF56
 3525 02d2 11       		.byte	0x11
 3526 02d3 66       		.byte	0x66
 3527 02d4 A2020000 		.4byte	0x2a2
 3528 02d8 0A       		.uleb128 0xa
 3529 02d9 04       		.byte	0x4
 3530 02da 11       		.byte	0x11
 3531 02db 6B       		.byte	0x6b
 3532 02dc 81100000 		.4byte	.LASF58
 3533 02e0 F1020000 		.4byte	0x2f1
 3534 02e4 08       		.uleb128 0x8
 3535 02e5 31260000 		.4byte	.LASF36
 3536 02e9 11       		.byte	0x11
 3537 02ea 6D       		.byte	0x6d
 3538 02eb C7020000 		.4byte	0x2c7
 3539 02ef 00       		.byte	0
 3540 02f0 00       		.byte	0
 3541 02f1 03       		.uleb128 0x3
 3542 02f2 D6310000 		.4byte	.LASF59
 3543 02f6 11       		.byte	0x11
 3544 02f7 70       		.byte	0x70
 3545 02f8 D8020000 		.4byte	0x2d8
 3546 02fc 03       		.uleb128 0x3
 3547 02fd 7B390000 		.4byte	.LASF60
 3548 0301 13       		.byte	0x13
ARM GAS  /tmp/ccWQ6gKG.s 			page 64


 3549 0302 E5       		.byte	0xe5
 3550 0303 07030000 		.4byte	0x307
 3551 0307 0C       		.uleb128 0xc
 3552 0308 04       		.byte	0x4
 3553 0309 03       		.uleb128 0x3
 3554 030a 92140000 		.4byte	.LASF61
 3555 030e 13       		.byte	0x13
 3556 030f EB       		.byte	0xeb
 3557 0310 EF000000 		.4byte	0xef
 3558 0314 0D       		.uleb128 0xd
 3559 0315 60000000 		.4byte	.LASF62
 3560 0319 64       		.byte	0x64
 3561 031a 13       		.byte	0x13
 3562 031b 0C01     		.2byte	0x10c
 3563 031d 60040000 		.4byte	0x460
 3564 0321 0E       		.uleb128 0xe
 3565 0322 73313600 		.ascii	"s16\000"
 3566 0326 13       		.byte	0x13
 3567 0327 0E01     		.2byte	0x10e
 3568 0329 FC020000 		.4byte	0x2fc
 3569 032d 00       		.byte	0
 3570 032e 0E       		.uleb128 0xe
 3571 032f 73313700 		.ascii	"s17\000"
 3572 0333 13       		.byte	0x13
 3573 0334 0F01     		.2byte	0x10f
 3574 0336 FC020000 		.4byte	0x2fc
 3575 033a 04       		.byte	0x4
 3576 033b 0E       		.uleb128 0xe
 3577 033c 73313800 		.ascii	"s18\000"
 3578 0340 13       		.byte	0x13
 3579 0341 1001     		.2byte	0x110
 3580 0343 FC020000 		.4byte	0x2fc
 3581 0347 08       		.byte	0x8
 3582 0348 0E       		.uleb128 0xe
 3583 0349 73313900 		.ascii	"s19\000"
 3584 034d 13       		.byte	0x13
 3585 034e 1101     		.2byte	0x111
 3586 0350 FC020000 		.4byte	0x2fc
 3587 0354 0C       		.byte	0xc
 3588 0355 0E       		.uleb128 0xe
 3589 0356 73323000 		.ascii	"s20\000"
 3590 035a 13       		.byte	0x13
 3591 035b 1201     		.2byte	0x112
 3592 035d FC020000 		.4byte	0x2fc
 3593 0361 10       		.byte	0x10
 3594 0362 0E       		.uleb128 0xe
 3595 0363 73323100 		.ascii	"s21\000"
 3596 0367 13       		.byte	0x13
 3597 0368 1301     		.2byte	0x113
 3598 036a FC020000 		.4byte	0x2fc
 3599 036e 14       		.byte	0x14
 3600 036f 0E       		.uleb128 0xe
 3601 0370 73323200 		.ascii	"s22\000"
 3602 0374 13       		.byte	0x13
 3603 0375 1401     		.2byte	0x114
 3604 0377 FC020000 		.4byte	0x2fc
 3605 037b 18       		.byte	0x18
ARM GAS  /tmp/ccWQ6gKG.s 			page 65


 3606 037c 0E       		.uleb128 0xe
 3607 037d 73323300 		.ascii	"s23\000"
 3608 0381 13       		.byte	0x13
 3609 0382 1501     		.2byte	0x115
 3610 0384 FC020000 		.4byte	0x2fc
 3611 0388 1C       		.byte	0x1c
 3612 0389 0E       		.uleb128 0xe
 3613 038a 73323400 		.ascii	"s24\000"
 3614 038e 13       		.byte	0x13
 3615 038f 1601     		.2byte	0x116
 3616 0391 FC020000 		.4byte	0x2fc
 3617 0395 20       		.byte	0x20
 3618 0396 0E       		.uleb128 0xe
 3619 0397 73323500 		.ascii	"s25\000"
 3620 039b 13       		.byte	0x13
 3621 039c 1701     		.2byte	0x117
 3622 039e FC020000 		.4byte	0x2fc
 3623 03a2 24       		.byte	0x24
 3624 03a3 0E       		.uleb128 0xe
 3625 03a4 73323600 		.ascii	"s26\000"
 3626 03a8 13       		.byte	0x13
 3627 03a9 1801     		.2byte	0x118
 3628 03ab FC020000 		.4byte	0x2fc
 3629 03af 28       		.byte	0x28
 3630 03b0 0E       		.uleb128 0xe
 3631 03b1 73323700 		.ascii	"s27\000"
 3632 03b5 13       		.byte	0x13
 3633 03b6 1901     		.2byte	0x119
 3634 03b8 FC020000 		.4byte	0x2fc
 3635 03bc 2C       		.byte	0x2c
 3636 03bd 0E       		.uleb128 0xe
 3637 03be 73323800 		.ascii	"s28\000"
 3638 03c2 13       		.byte	0x13
 3639 03c3 1A01     		.2byte	0x11a
 3640 03c5 FC020000 		.4byte	0x2fc
 3641 03c9 30       		.byte	0x30
 3642 03ca 0E       		.uleb128 0xe
 3643 03cb 73323900 		.ascii	"s29\000"
 3644 03cf 13       		.byte	0x13
 3645 03d0 1B01     		.2byte	0x11b
 3646 03d2 FC020000 		.4byte	0x2fc
 3647 03d6 34       		.byte	0x34
 3648 03d7 0E       		.uleb128 0xe
 3649 03d8 73333000 		.ascii	"s30\000"
 3650 03dc 13       		.byte	0x13
 3651 03dd 1C01     		.2byte	0x11c
 3652 03df FC020000 		.4byte	0x2fc
 3653 03e3 38       		.byte	0x38
 3654 03e4 0E       		.uleb128 0xe
 3655 03e5 73333100 		.ascii	"s31\000"
 3656 03e9 13       		.byte	0x13
 3657 03ea 1D01     		.2byte	0x11d
 3658 03ec FC020000 		.4byte	0x2fc
 3659 03f0 3C       		.byte	0x3c
 3660 03f1 0E       		.uleb128 0xe
 3661 03f2 723400   		.ascii	"r4\000"
 3662 03f5 13       		.byte	0x13
ARM GAS  /tmp/ccWQ6gKG.s 			page 66


 3663 03f6 1F01     		.2byte	0x11f
 3664 03f8 FC020000 		.4byte	0x2fc
 3665 03fc 40       		.byte	0x40
 3666 03fd 0E       		.uleb128 0xe
 3667 03fe 723500   		.ascii	"r5\000"
 3668 0401 13       		.byte	0x13
 3669 0402 2001     		.2byte	0x120
 3670 0404 FC020000 		.4byte	0x2fc
 3671 0408 44       		.byte	0x44
 3672 0409 0E       		.uleb128 0xe
 3673 040a 723600   		.ascii	"r6\000"
 3674 040d 13       		.byte	0x13
 3675 040e 2101     		.2byte	0x121
 3676 0410 FC020000 		.4byte	0x2fc
 3677 0414 48       		.byte	0x48
 3678 0415 0E       		.uleb128 0xe
 3679 0416 723700   		.ascii	"r7\000"
 3680 0419 13       		.byte	0x13
 3681 041a 2201     		.2byte	0x122
 3682 041c FC020000 		.4byte	0x2fc
 3683 0420 4C       		.byte	0x4c
 3684 0421 0E       		.uleb128 0xe
 3685 0422 723800   		.ascii	"r8\000"
 3686 0425 13       		.byte	0x13
 3687 0426 2301     		.2byte	0x123
 3688 0428 FC020000 		.4byte	0x2fc
 3689 042c 50       		.byte	0x50
 3690 042d 0E       		.uleb128 0xe
 3691 042e 723900   		.ascii	"r9\000"
 3692 0431 13       		.byte	0x13
 3693 0432 2401     		.2byte	0x124
 3694 0434 FC020000 		.4byte	0x2fc
 3695 0438 54       		.byte	0x54
 3696 0439 0E       		.uleb128 0xe
 3697 043a 72313000 		.ascii	"r10\000"
 3698 043e 13       		.byte	0x13
 3699 043f 2501     		.2byte	0x125
 3700 0441 FC020000 		.4byte	0x2fc
 3701 0445 58       		.byte	0x58
 3702 0446 0E       		.uleb128 0xe
 3703 0447 72313100 		.ascii	"r11\000"
 3704 044b 13       		.byte	0x13
 3705 044c 2601     		.2byte	0x126
 3706 044e FC020000 		.4byte	0x2fc
 3707 0452 5C       		.byte	0x5c
 3708 0453 0E       		.uleb128 0xe
 3709 0454 6C7200   		.ascii	"lr\000"
 3710 0457 13       		.byte	0x13
 3711 0458 2701     		.2byte	0x127
 3712 045a FC020000 		.4byte	0x2fc
 3713 045e 60       		.byte	0x60
 3714 045f 00       		.byte	0
 3715 0460 0D       		.uleb128 0xd
 3716 0461 D7370000 		.4byte	.LASF63
 3717 0465 04       		.byte	0x4
 3718 0466 13       		.byte	0x13
 3719 0467 3101     		.2byte	0x131
ARM GAS  /tmp/ccWQ6gKG.s 			page 67


 3720 0469 7B040000 		.4byte	0x47b
 3721 046d 0E       		.uleb128 0xe
 3722 046e 72313300 		.ascii	"r13\000"
 3723 0472 13       		.byte	0x13
 3724 0473 3201     		.2byte	0x132
 3725 0475 7B040000 		.4byte	0x47b
 3726 0479 00       		.byte	0
 3727 047a 00       		.byte	0
 3728 047b 0B       		.uleb128 0xb
 3729 047c 04       		.byte	0x4
 3730 047d 14030000 		.4byte	0x314
 3731 0481 0F       		.uleb128 0xf
 3732 0482 E4000000 		.4byte	0xe4
 3733 0486 04       		.uleb128 0x4
 3734 0487 04       		.byte	0x4
 3735 0488 07       		.byte	0x7
 3736 0489 CA2E0000 		.4byte	.LASF64
 3737 048d 10       		.uleb128 0x10
 3738 048e 98000000 		.4byte	0x98
 3739 0492 9D040000 		.4byte	0x49d
 3740 0496 11       		.uleb128 0x11
 3741 0497 86040000 		.4byte	0x486
 3742 049b 03       		.byte	0x3
 3743 049c 00       		.byte	0
 3744 049d 0F       		.uleb128 0xf
 3745 049e 4E010000 		.4byte	0x14e
 3746 04a2 0A       		.uleb128 0xa
 3747 04a3 1C       		.byte	0x1c
 3748 04a4 14       		.byte	0x14
 3749 04a5 5E       		.byte	0x5e
 3750 04a6 3F220000 		.4byte	.LASF65
 3751 04aa F7040000 		.4byte	0x4f7
 3752 04ae 08       		.uleb128 0x8
 3753 04af CF3C0000 		.4byte	.LASF66
 3754 04b3 14       		.byte	0x14
 3755 04b4 5F       		.byte	0x5f
 3756 04b5 CD020000 		.4byte	0x2cd
 3757 04b9 00       		.byte	0
 3758 04ba 08       		.uleb128 0x8
 3759 04bb A5490000 		.4byte	.LASF67
 3760 04bf 14       		.byte	0x14
 3761 04c0 60       		.byte	0x60
 3762 04c1 2D010000 		.4byte	0x12d
 3763 04c5 08       		.byte	0x8
 3764 04c6 08       		.uleb128 0x8
 3765 04c7 BF1C0000 		.4byte	.LASF68
 3766 04cb 14       		.byte	0x14
 3767 04cc 62       		.byte	0x62
 3768 04cd 60040000 		.4byte	0x460
 3769 04d1 0C       		.byte	0xc
 3770 04d2 08       		.uleb128 0x8
 3771 04d3 F22C0000 		.4byte	.LASF69
 3772 04d7 14       		.byte	0x14
 3773 04d8 65       		.byte	0x65
 3774 04d9 C7020000 		.4byte	0x2c7
 3775 04dd 10       		.byte	0x10
 3776 04de 08       		.uleb128 0x8
ARM GAS  /tmp/ccWQ6gKG.s 			page 68


 3777 04df C91E0000 		.4byte	.LASF70
 3778 04e3 14       		.byte	0x14
 3779 04e4 66       		.byte	0x66
 3780 04e5 C7020000 		.4byte	0x2c7
 3781 04e9 14       		.byte	0x14
 3782 04ea 08       		.uleb128 0x8
 3783 04eb 39170000 		.4byte	.LASF71
 3784 04ef 14       		.byte	0x14
 3785 04f0 69       		.byte	0x69
 3786 04f1 C7020000 		.4byte	0x2c7
 3787 04f5 18       		.byte	0x18
 3788 04f6 00       		.byte	0
 3789 04f7 03       		.uleb128 0x3
 3790 04f8 47190000 		.4byte	.LASF72
 3791 04fc 14       		.byte	0x14
 3792 04fd 6B       		.byte	0x6b
 3793 04fe A2040000 		.4byte	0x4a2
 3794 0502 05       		.uleb128 0x5
 3795 0503 821B0000 		.4byte	.LASF73
 3796 0507 10       		.byte	0x10
 3797 0508 15       		.byte	0x15
 3798 0509 2C       		.byte	0x2c
 3799 050a 33050000 		.4byte	0x533
 3800 050e 08       		.uleb128 0x8
 3801 050f 4E360000 		.4byte	.LASF74
 3802 0513 15       		.byte	0x15
 3803 0514 2D       		.byte	0x2d
 3804 0515 CD020000 		.4byte	0x2cd
 3805 0519 00       		.byte	0
 3806 051a 08       		.uleb128 0x8
 3807 051b CE310000 		.4byte	.LASF75
 3808 051f 15       		.byte	0x15
 3809 0520 2F       		.byte	0x2f
 3810 0521 C7020000 		.4byte	0x2c7
 3811 0525 08       		.byte	0x8
 3812 0526 08       		.uleb128 0x8
 3813 0527 C2040000 		.4byte	.LASF76
 3814 052b 15       		.byte	0x15
 3815 052c 31       		.byte	0x31
 3816 052d 33050000 		.4byte	0x533
 3817 0531 0C       		.byte	0xc
 3818 0532 00       		.byte	0
 3819 0533 0B       		.uleb128 0xb
 3820 0534 04       		.byte	0x4
 3821 0535 02050000 		.4byte	0x502
 3822 0539 03       		.uleb128 0x3
 3823 053a 821B0000 		.4byte	.LASF73
 3824 053e 15       		.byte	0x15
 3825 053f 33       		.byte	0x33
 3826 0540 02050000 		.4byte	0x502
 3827 0544 03       		.uleb128 0x3
 3828 0545 E0030000 		.4byte	.LASF77
 3829 0549 16       		.byte	0x16
 3830 054a 2C       		.byte	0x2c
 3831 054b 4F050000 		.4byte	0x54f
 3832 054f 0B       		.uleb128 0xb
 3833 0550 04       		.byte	0x4
ARM GAS  /tmp/ccWQ6gKG.s 			page 69


 3834 0551 55050000 		.4byte	0x555
 3835 0555 12       		.uleb128 0x12
 3836 0556 07030000 		.4byte	0x307
 3837 055a 64050000 		.4byte	0x564
 3838 055e 13       		.uleb128 0x13
 3839 055f 2C000000 		.4byte	0x2c
 3840 0563 00       		.byte	0
 3841 0564 05       		.uleb128 0x5
 3842 0565 EB160000 		.4byte	.LASF78
 3843 0569 04       		.byte	0x4
 3844 056a 17       		.byte	0x17
 3845 056b 2C       		.byte	0x2c
 3846 056c 7D050000 		.4byte	0x57d
 3847 0570 08       		.uleb128 0x8
 3848 0571 65290000 		.4byte	.LASF79
 3849 0575 17       		.byte	0x17
 3850 0576 2D       		.byte	0x2d
 3851 0577 7D050000 		.4byte	0x57d
 3852 057b 00       		.byte	0
 3853 057c 00       		.byte	0
 3854 057d 0B       		.uleb128 0xb
 3855 057e 04       		.byte	0x4
 3856 057f 64050000 		.4byte	0x564
 3857 0583 0A       		.uleb128 0xa
 3858 0584 0C       		.byte	0xc
 3859 0585 17       		.byte	0x17
 3860 0586 34       		.byte	0x34
 3861 0587 034A0000 		.4byte	.LASF80
 3862 058b B4050000 		.4byte	0x5b4
 3863 058f 08       		.uleb128 0x8
 3864 0590 4C350000 		.4byte	.LASF81
 3865 0594 17       		.byte	0x17
 3866 0595 35       		.byte	0x35
 3867 0596 7D050000 		.4byte	0x57d
 3868 059a 00       		.byte	0
 3869 059b 08       		.uleb128 0x8
 3870 059c 47110000 		.4byte	.LASF82
 3871 05a0 17       		.byte	0x17
 3872 05a1 36       		.byte	0x36
 3873 05a2 2C000000 		.4byte	0x2c
 3874 05a6 04       		.byte	0x4
 3875 05a7 08       		.uleb128 0x8
 3876 05a8 93350000 		.4byte	.LASF83
 3877 05ac 17       		.byte	0x17
 3878 05ad 38       		.byte	0x38
 3879 05ae 44050000 		.4byte	0x544
 3880 05b2 08       		.byte	0x8
 3881 05b3 00       		.byte	0
 3882 05b4 03       		.uleb128 0x3
 3883 05b5 EB110000 		.4byte	.LASF84
 3884 05b9 17       		.byte	0x17
 3885 05ba 3A       		.byte	0x3a
 3886 05bb 83050000 		.4byte	0x583
 3887 05bf 0B       		.uleb128 0xb
 3888 05c0 04       		.byte	0x4
 3889 05c1 64010000 		.4byte	0x164
 3890 05c5 0B       		.uleb128 0xb
ARM GAS  /tmp/ccWQ6gKG.s 			page 70


 3891 05c6 04       		.byte	0x4
 3892 05c7 CB050000 		.4byte	0x5cb
 3893 05cb 14       		.uleb128 0x14
 3894 05cc D0050000 		.4byte	0x5d0
 3895 05d0 04       		.uleb128 0x4
 3896 05d1 01       		.byte	0x1
 3897 05d2 08       		.byte	0x8
 3898 05d3 993C0000 		.4byte	.LASF85
 3899 05d7 0B       		.uleb128 0xb
 3900 05d8 04       		.byte	0x4
 3901 05d9 09030000 		.4byte	0x309
 3902 05dd 0B       		.uleb128 0xb
 3903 05de 04       		.byte	0x4
 3904 05df 39050000 		.4byte	0x539
 3905 05e3 03       		.uleb128 0x3
 3906 05e4 45120000 		.4byte	.LASF86
 3907 05e8 12       		.byte	0x12
 3908 05e9 E5       		.byte	0xe5
 3909 05ea EE050000 		.4byte	0x5ee
 3910 05ee 0B       		.uleb128 0xb
 3911 05ef 04       		.byte	0x4
 3912 05f0 F4050000 		.4byte	0x5f4
 3913 05f4 12       		.uleb128 0x12
 3914 05f5 38010000 		.4byte	0x138
 3915 05f9 03060000 		.4byte	0x603
 3916 05fd 13       		.uleb128 0x13
 3917 05fe 07030000 		.4byte	0x307
 3918 0602 00       		.byte	0
 3919 0603 0B       		.uleb128 0xb
 3920 0604 04       		.byte	0x4
 3921 0605 09060000 		.4byte	0x609
 3922 0609 14       		.uleb128 0x14
 3923 060a B8000000 		.4byte	0xb8
 3924 060e 0F       		.uleb128 0xf
 3925 060f D9000000 		.4byte	0xd9
 3926 0613 0A       		.uleb128 0xa
 3927 0614 28       		.byte	0x28
 3928 0615 18       		.byte	0x18
 3929 0616 8C       		.byte	0x8c
 3930 0617 970F0000 		.4byte	.LASF87
 3931 061b D9060000 		.4byte	0x6d9
 3932 061f 06       		.uleb128 0x6
 3933 0620 04       		.byte	0x4
 3934 0621 18       		.byte	0x18
 3935 0622 94       		.byte	0x94
 3936 0623 5B060000 		.4byte	0x65b
 3937 0627 15       		.uleb128 0x15
 3938 0628 04       		.byte	0x4
 3939 0629 18       		.byte	0x18
 3940 062a 96       		.byte	0x96
 3941 062b 48060000 		.4byte	0x648
 3942 062f 09       		.uleb128 0x9
 3943 0630 73657400 		.ascii	"set\000"
 3944 0634 18       		.byte	0x18
 3945 0635 97       		.byte	0x97
 3946 0636 CE000000 		.4byte	0xce
 3947 063a 00       		.byte	0
ARM GAS  /tmp/ccWQ6gKG.s 			page 71


 3948 063b 08       		.uleb128 0x8
 3949 063c 061E0000 		.4byte	.LASF88
 3950 0640 18       		.byte	0x18
 3951 0641 98       		.byte	0x98
 3952 0642 CE000000 		.4byte	0xce
 3953 0646 02       		.byte	0x2
 3954 0647 00       		.byte	0
 3955 0648 16       		.uleb128 0x16
 3956 0649 5700     		.ascii	"W\000"
 3957 064b 18       		.byte	0x18
 3958 064c 95       		.byte	0x95
 3959 064d E4000000 		.4byte	0xe4
 3960 0651 16       		.uleb128 0x16
 3961 0652 4800     		.ascii	"H\000"
 3962 0654 18       		.byte	0x18
 3963 0655 99       		.byte	0x99
 3964 0656 27060000 		.4byte	0x627
 3965 065a 00       		.byte	0
 3966 065b 08       		.uleb128 0x8
 3967 065c 9F470000 		.4byte	.LASF89
 3968 0660 18       		.byte	0x18
 3969 0661 8E       		.byte	0x8e
 3970 0662 81040000 		.4byte	0x481
 3971 0666 00       		.byte	0
 3972 0667 08       		.uleb128 0x8
 3973 0668 950A0000 		.4byte	.LASF90
 3974 066c 18       		.byte	0x18
 3975 066d 8F       		.byte	0x8f
 3976 066e 81040000 		.4byte	0x481
 3977 0672 04       		.byte	0x4
 3978 0673 08       		.uleb128 0x8
 3979 0674 E5210000 		.4byte	.LASF91
 3980 0678 18       		.byte	0x18
 3981 0679 90       		.byte	0x90
 3982 067a 81040000 		.4byte	0x481
 3983 067e 08       		.byte	0x8
 3984 067f 08       		.uleb128 0x8
 3985 0680 D0450000 		.4byte	.LASF92
 3986 0684 18       		.byte	0x18
 3987 0685 91       		.byte	0x91
 3988 0686 81040000 		.4byte	0x481
 3989 068a 0C       		.byte	0xc
 3990 068b 09       		.uleb128 0x9
 3991 068c 49445200 		.ascii	"IDR\000"
 3992 0690 18       		.byte	0x18
 3993 0691 92       		.byte	0x92
 3994 0692 81040000 		.4byte	0x481
 3995 0696 10       		.byte	0x10
 3996 0697 09       		.uleb128 0x9
 3997 0698 4F445200 		.ascii	"ODR\000"
 3998 069c 18       		.byte	0x18
 3999 069d 93       		.byte	0x93
 4000 069e 81040000 		.4byte	0x481
 4001 06a2 14       		.byte	0x14
 4002 06a3 08       		.uleb128 0x8
 4003 06a4 B0290000 		.4byte	.LASF93
 4004 06a8 18       		.byte	0x18
ARM GAS  /tmp/ccWQ6gKG.s 			page 72


 4005 06a9 9A       		.byte	0x9a
 4006 06aa AF060000 		.4byte	0x6af
 4007 06ae 18       		.byte	0x18
 4008 06af 0F       		.uleb128 0xf
 4009 06b0 1F060000 		.4byte	0x61f
 4010 06b4 08       		.uleb128 0x8
 4011 06b5 47380000 		.4byte	.LASF94
 4012 06b9 18       		.byte	0x18
 4013 06ba 9B       		.byte	0x9b
 4014 06bb 81040000 		.4byte	0x481
 4015 06bf 1C       		.byte	0x1c
 4016 06c0 08       		.uleb128 0x8
 4017 06c1 D7410000 		.4byte	.LASF95
 4018 06c5 18       		.byte	0x18
 4019 06c6 9C       		.byte	0x9c
 4020 06c7 81040000 		.4byte	0x481
 4021 06cb 20       		.byte	0x20
 4022 06cc 08       		.uleb128 0x8
 4023 06cd CD410000 		.4byte	.LASF96
 4024 06d1 18       		.byte	0x18
 4025 06d2 9D       		.byte	0x9d
 4026 06d3 81040000 		.4byte	0x481
 4027 06d7 24       		.byte	0x24
 4028 06d8 00       		.byte	0
 4029 06d9 03       		.uleb128 0x3
 4030 06da B6140000 		.4byte	.LASF97
 4031 06de 18       		.byte	0x18
 4032 06df 9E       		.byte	0x9e
 4033 06e0 13060000 		.4byte	0x613
 4034 06e4 03       		.uleb128 0x3
 4035 06e5 EF2E0000 		.4byte	.LASF98
 4036 06e9 18       		.byte	0x18
 4037 06ea F0       		.byte	0xf0
 4038 06eb E4000000 		.4byte	0xe4
 4039 06ef 17       		.uleb128 0x17
 4040 06f0 01       		.byte	0x1
 4041 06f1 19       		.byte	0x19
 4042 06f2 55       		.byte	0x55
 4043 06f3 07430000 		.4byte	.LASF769
 4044 06f7 0E070000 		.4byte	0x70e
 4045 06fb 18       		.uleb128 0x18
 4046 06fc 0D120000 		.4byte	.LASF99
 4047 0700 00       		.sleb128 0
 4048 0701 18       		.uleb128 0x18
 4049 0702 041D0000 		.4byte	.LASF100
 4050 0706 01       		.sleb128 1
 4051 0707 18       		.uleb128 0x18
 4052 0708 79230000 		.4byte	.LASF101
 4053 070c 02       		.sleb128 2
 4054 070d 00       		.byte	0
 4055 070e 03       		.uleb128 0x3
 4056 070f DD0A0000 		.4byte	.LASF102
 4057 0713 19       		.byte	0x19
 4058 0714 59       		.byte	0x59
 4059 0715 EF060000 		.4byte	0x6ef
 4060 0719 03       		.uleb128 0x3
 4061 071a 3E1B0000 		.4byte	.LASF103
ARM GAS  /tmp/ccWQ6gKG.s 			page 73


 4062 071e 19       		.byte	0x19
 4063 071f 5E       		.byte	0x5e
 4064 0720 24070000 		.4byte	0x724
 4065 0724 0D       		.uleb128 0xd
 4066 0725 3E1B0000 		.4byte	.LASF103
 4067 0729 14       		.byte	0x14
 4068 072a 1A       		.byte	0x1a
 4069 072b 6F01     		.2byte	0x16f
 4070 072d 73070000 		.4byte	0x773
 4071 0731 19       		.uleb128 0x19
 4072 0732 A2320000 		.4byte	.LASF104
 4073 0736 1A       		.byte	0x1a
 4074 0737 7301     		.2byte	0x173
 4075 0739 0E070000 		.4byte	0x70e
 4076 073d 00       		.byte	0
 4077 073e 19       		.uleb128 0x19
 4078 073f 5D420000 		.4byte	.LASF105
 4079 0743 1A       		.byte	0x1a
 4080 0744 7701     		.2byte	0x177
 4081 0746 87090000 		.4byte	0x987
 4082 074a 04       		.byte	0x4
 4083 074b 19       		.uleb128 0x19
 4084 074c 662B0000 		.4byte	.LASF106
 4085 0750 1A       		.byte	0x1a
 4086 0751 7B01     		.2byte	0x17b
 4087 0753 CF080000 		.4byte	0x8cf
 4088 0757 08       		.byte	0x8
 4089 0758 19       		.uleb128 0x19
 4090 0759 CF1D0000 		.4byte	.LASF107
 4091 075d 1A       		.byte	0x1a
 4092 075e 8301     		.2byte	0x183
 4093 0760 E4000000 		.4byte	0xe4
 4094 0764 0C       		.byte	0xc
 4095 0765 0E       		.uleb128 0xe
 4096 0766 74696D00 		.ascii	"tim\000"
 4097 076a 1A       		.byte	0x1a
 4098 076b 8701     		.2byte	0x187
 4099 076d 92090000 		.4byte	0x992
 4100 0771 10       		.byte	0x10
 4101 0772 00       		.byte	0
 4102 0773 03       		.uleb128 0x3
 4103 0774 05250000 		.4byte	.LASF108
 4104 0778 19       		.byte	0x19
 4105 0779 65       		.byte	0x65
 4106 077a 7E070000 		.4byte	0x77e
 4107 077e 0B       		.uleb128 0xb
 4108 077f 04       		.byte	0x4
 4109 0780 84070000 		.4byte	0x784
 4110 0784 1A       		.uleb128 0x1a
 4111 0785 8F070000 		.4byte	0x78f
 4112 0789 13       		.uleb128 0x13
 4113 078a 8F070000 		.4byte	0x78f
 4114 078e 00       		.byte	0
 4115 078f 0B       		.uleb128 0xb
 4116 0790 04       		.byte	0x4
 4117 0791 19070000 		.4byte	0x719
 4118 0795 1B       		.uleb128 0x1b
ARM GAS  /tmp/ccWQ6gKG.s 			page 74


 4119 0796 60       		.byte	0x60
 4120 0797 1B       		.byte	0x1b
 4121 0798 9E01     		.2byte	0x19e
 4122 079a D7240000 		.4byte	.LASF122
 4123 079e B2080000 		.4byte	0x8b2
 4124 07a2 0E       		.uleb128 0xe
 4125 07a3 43523100 		.ascii	"CR1\000"
 4126 07a7 1B       		.byte	0x1b
 4127 07a8 9F01     		.2byte	0x19f
 4128 07aa 81040000 		.4byte	0x481
 4129 07ae 00       		.byte	0
 4130 07af 0E       		.uleb128 0xe
 4131 07b0 43523200 		.ascii	"CR2\000"
 4132 07b4 1B       		.byte	0x1b
 4133 07b5 A001     		.2byte	0x1a0
 4134 07b7 81040000 		.4byte	0x481
 4135 07bb 04       		.byte	0x4
 4136 07bc 19       		.uleb128 0x19
 4137 07bd 334B0000 		.4byte	.LASF109
 4138 07c1 1B       		.byte	0x1b
 4139 07c2 A101     		.2byte	0x1a1
 4140 07c4 81040000 		.4byte	0x481
 4141 07c8 08       		.byte	0x8
 4142 07c9 19       		.uleb128 0x19
 4143 07ca 09170000 		.4byte	.LASF110
 4144 07ce 1B       		.byte	0x1b
 4145 07cf A201     		.2byte	0x1a2
 4146 07d1 81040000 		.4byte	0x481
 4147 07d5 0C       		.byte	0xc
 4148 07d6 0E       		.uleb128 0xe
 4149 07d7 535200   		.ascii	"SR\000"
 4150 07da 1B       		.byte	0x1b
 4151 07db A301     		.2byte	0x1a3
 4152 07dd 81040000 		.4byte	0x481
 4153 07e1 10       		.byte	0x10
 4154 07e2 0E       		.uleb128 0xe
 4155 07e3 45475200 		.ascii	"EGR\000"
 4156 07e7 1B       		.byte	0x1b
 4157 07e8 A401     		.2byte	0x1a4
 4158 07ea 81040000 		.4byte	0x481
 4159 07ee 14       		.byte	0x14
 4160 07ef 19       		.uleb128 0x19
 4161 07f0 6C570000 		.4byte	.LASF111
 4162 07f4 1B       		.byte	0x1b
 4163 07f5 A501     		.2byte	0x1a5
 4164 07f7 81040000 		.4byte	0x481
 4165 07fb 18       		.byte	0x18
 4166 07fc 19       		.uleb128 0x19
 4167 07fd 72570000 		.4byte	.LASF112
 4168 0801 1B       		.byte	0x1b
 4169 0802 A601     		.2byte	0x1a6
 4170 0804 81040000 		.4byte	0x481
 4171 0808 1C       		.byte	0x1c
 4172 0809 19       		.uleb128 0x19
 4173 080a FC110000 		.4byte	.LASF113
 4174 080e 1B       		.byte	0x1b
 4175 080f A701     		.2byte	0x1a7
ARM GAS  /tmp/ccWQ6gKG.s 			page 75


 4176 0811 81040000 		.4byte	0x481
 4177 0815 20       		.byte	0x20
 4178 0816 0E       		.uleb128 0xe
 4179 0817 434E5400 		.ascii	"CNT\000"
 4180 081b 1B       		.byte	0x1b
 4181 081c A801     		.2byte	0x1a8
 4182 081e 81040000 		.4byte	0x481
 4183 0822 24       		.byte	0x24
 4184 0823 0E       		.uleb128 0xe
 4185 0824 50534300 		.ascii	"PSC\000"
 4186 0828 1B       		.byte	0x1b
 4187 0829 A901     		.2byte	0x1a9
 4188 082b 81040000 		.4byte	0x481
 4189 082f 28       		.byte	0x28
 4190 0830 0E       		.uleb128 0xe
 4191 0831 41525200 		.ascii	"ARR\000"
 4192 0835 1B       		.byte	0x1b
 4193 0836 AA01     		.2byte	0x1aa
 4194 0838 81040000 		.4byte	0x481
 4195 083c 2C       		.byte	0x2c
 4196 083d 0E       		.uleb128 0xe
 4197 083e 52435200 		.ascii	"RCR\000"
 4198 0842 1B       		.byte	0x1b
 4199 0843 AB01     		.2byte	0x1ab
 4200 0845 81040000 		.4byte	0x481
 4201 0849 30       		.byte	0x30
 4202 084a 0E       		.uleb128 0xe
 4203 084b 43435200 		.ascii	"CCR\000"
 4204 084f 1B       		.byte	0x1b
 4205 0850 AC01     		.2byte	0x1ac
 4206 0852 B2080000 		.4byte	0x8b2
 4207 0856 34       		.byte	0x34
 4208 0857 19       		.uleb128 0x19
 4209 0858 BD050000 		.4byte	.LASF114
 4210 085c 1B       		.byte	0x1b
 4211 085d AD01     		.2byte	0x1ad
 4212 085f 81040000 		.4byte	0x481
 4213 0863 44       		.byte	0x44
 4214 0864 0E       		.uleb128 0xe
 4215 0865 44435200 		.ascii	"DCR\000"
 4216 0869 1B       		.byte	0x1b
 4217 086a AE01     		.2byte	0x1ae
 4218 086c 81040000 		.4byte	0x481
 4219 0870 48       		.byte	0x48
 4220 0871 19       		.uleb128 0x19
 4221 0872 08340000 		.4byte	.LASF115
 4222 0876 1B       		.byte	0x1b
 4223 0877 AF01     		.2byte	0x1af
 4224 0879 81040000 		.4byte	0x481
 4225 087d 4C       		.byte	0x4c
 4226 087e 0E       		.uleb128 0xe
 4227 087f 4F5200   		.ascii	"OR\000"
 4228 0882 1B       		.byte	0x1b
 4229 0883 B001     		.2byte	0x1b0
 4230 0885 81040000 		.4byte	0x481
 4231 0889 50       		.byte	0x50
 4232 088a 19       		.uleb128 0x19
ARM GAS  /tmp/ccWQ6gKG.s 			page 76


 4233 088b 78570000 		.4byte	.LASF116
 4234 088f 1B       		.byte	0x1b
 4235 0890 B101     		.2byte	0x1b1
 4236 0892 81040000 		.4byte	0x481
 4237 0896 54       		.byte	0x54
 4238 0897 19       		.uleb128 0x19
 4239 0898 40230000 		.4byte	.LASF117
 4240 089c 1B       		.byte	0x1b
 4241 089d B201     		.2byte	0x1b2
 4242 089f 81040000 		.4byte	0x481
 4243 08a3 58       		.byte	0x58
 4244 08a4 19       		.uleb128 0x19
 4245 08a5 45230000 		.4byte	.LASF118
 4246 08a9 1B       		.byte	0x1b
 4247 08aa B301     		.2byte	0x1b3
 4248 08ac 81040000 		.4byte	0x481
 4249 08b0 5C       		.byte	0x5c
 4250 08b1 00       		.byte	0
 4251 08b2 0F       		.uleb128 0xf
 4252 08b3 8D040000 		.4byte	0x48d
 4253 08b7 1C       		.uleb128 0x1c
 4254 08b8 24490000 		.4byte	.LASF119
 4255 08bc 1B       		.byte	0x1b
 4256 08bd B401     		.2byte	0x1b4
 4257 08bf 95070000 		.4byte	0x795
 4258 08c3 1C       		.uleb128 0x1c
 4259 08c4 A42F0000 		.4byte	.LASF120
 4260 08c8 1A       		.byte	0x1a
 4261 08c9 2001     		.2byte	0x120
 4262 08cb E4000000 		.4byte	0xe4
 4263 08cf 1C       		.uleb128 0x1c
 4264 08d0 E91E0000 		.4byte	.LASF121
 4265 08d4 1A       		.byte	0x1a
 4266 08d5 2A01     		.2byte	0x12a
 4267 08d7 CE000000 		.4byte	0xce
 4268 08db 1B       		.uleb128 0x1b
 4269 08dc 08       		.byte	0x8
 4270 08dd 1A       		.byte	0x1a
 4271 08de 2F01     		.2byte	0x12f
 4272 08e0 1D250000 		.4byte	.LASF123
 4273 08e4 03090000 		.4byte	0x903
 4274 08e8 19       		.uleb128 0x19
 4275 08e9 32140000 		.4byte	.LASF124
 4276 08ed 1A       		.byte	0x1a
 4277 08ee 3301     		.2byte	0x133
 4278 08f0 C3080000 		.4byte	0x8c3
 4279 08f4 00       		.byte	0
 4280 08f5 19       		.uleb128 0x19
 4281 08f6 0D340000 		.4byte	.LASF125
 4282 08fa 1A       		.byte	0x1a
 4283 08fb 3901     		.2byte	0x139
 4284 08fd 73070000 		.4byte	0x773
 4285 0901 04       		.byte	0x4
 4286 0902 00       		.byte	0
 4287 0903 1C       		.uleb128 0x1c
 4288 0904 D81E0000 		.4byte	.LASF126
 4289 0908 1A       		.byte	0x1a
ARM GAS  /tmp/ccWQ6gKG.s 			page 77


 4290 0909 3B01     		.2byte	0x13b
 4291 090b DB080000 		.4byte	0x8db
 4292 090f 1B       		.uleb128 0x1b
 4293 0910 34       		.byte	0x34
 4294 0911 1A       		.byte	0x1a
 4295 0912 4001     		.2byte	0x140
 4296 0914 4A230000 		.4byte	.LASF127
 4297 0918 6B090000 		.4byte	0x96b
 4298 091c 19       		.uleb128 0x19
 4299 091d 9D550000 		.4byte	.LASF128
 4300 0921 1A       		.byte	0x1a
 4301 0922 4601     		.2byte	0x146
 4302 0924 E4000000 		.4byte	0xe4
 4303 0928 00       		.byte	0
 4304 0929 19       		.uleb128 0x19
 4305 092a 662B0000 		.4byte	.LASF106
 4306 092e 1A       		.byte	0x1a
 4307 092f 4C01     		.2byte	0x14c
 4308 0931 CF080000 		.4byte	0x8cf
 4309 0935 04       		.byte	0x4
 4310 0936 19       		.uleb128 0x19
 4311 0937 0D340000 		.4byte	.LASF125
 4312 093b 1A       		.byte	0x1a
 4313 093c 5201     		.2byte	0x152
 4314 093e 73070000 		.4byte	0x773
 4315 0942 08       		.byte	0x8
 4316 0943 19       		.uleb128 0x19
 4317 0944 FA4D0000 		.4byte	.LASF129
 4318 0948 1A       		.byte	0x1a
 4319 0949 5601     		.2byte	0x156
 4320 094b 6B090000 		.4byte	0x96b
 4321 094f 0C       		.byte	0xc
 4322 0950 0E       		.uleb128 0xe
 4323 0951 63723200 		.ascii	"cr2\000"
 4324 0955 1A       		.byte	0x1a
 4325 0956 5C01     		.2byte	0x15c
 4326 0958 E4000000 		.4byte	0xe4
 4327 095c 2C       		.byte	0x2c
 4328 095d 19       		.uleb128 0x19
 4329 095e 631C0000 		.4byte	.LASF130
 4330 0962 1A       		.byte	0x1a
 4331 0963 6901     		.2byte	0x169
 4332 0965 E4000000 		.4byte	0xe4
 4333 0969 30       		.byte	0x30
 4334 096a 00       		.byte	0
 4335 096b 10       		.uleb128 0x10
 4336 096c 03090000 		.4byte	0x903
 4337 0970 7B090000 		.4byte	0x97b
 4338 0974 11       		.uleb128 0x11
 4339 0975 86040000 		.4byte	0x486
 4340 0979 03       		.byte	0x3
 4341 097a 00       		.byte	0
 4342 097b 1C       		.uleb128 0x1c
 4343 097c 481B0000 		.4byte	.LASF131
 4344 0980 1A       		.byte	0x1a
 4345 0981 6A01     		.2byte	0x16a
 4346 0983 0F090000 		.4byte	0x90f
ARM GAS  /tmp/ccWQ6gKG.s 			page 78


 4347 0987 0B       		.uleb128 0xb
 4348 0988 04       		.byte	0x4
 4349 0989 8D090000 		.4byte	0x98d
 4350 098d 14       		.uleb128 0x14
 4351 098e 7B090000 		.4byte	0x97b
 4352 0992 0B       		.uleb128 0xb
 4353 0993 04       		.byte	0x4
 4354 0994 B7080000 		.4byte	0x8b7
 4355 0998 0B       		.uleb128 0xb
 4356 0999 04       		.byte	0x4
 4357 099a D0050000 		.4byte	0x5d0
 4358 099e 1D       		.uleb128 0x1d
 4359 099f 73746400 		.ascii	"std\000"
 4360 09a3 1E       		.byte	0x1e
 4361 09a4 00       		.byte	0
 4362 09a5 C6090000 		.4byte	0x9c6
 4363 09a9 1E       		.uleb128 0x1e
 4364 09aa 1C       		.byte	0x1c
 4365 09ab 52       		.byte	0x52
 4366 09ac C6090000 		.4byte	0x9c6
 4367 09b0 1E       		.uleb128 0x1e
 4368 09b1 1C       		.byte	0x1c
 4369 09b2 55       		.byte	0x55
 4370 09b3 E0090000 		.4byte	0x9e0
 4371 09b7 1E       		.uleb128 0x1e
 4372 09b8 1C       		.byte	0x1c
 4373 09b9 5B       		.byte	0x5b
 4374 09ba F5090000 		.4byte	0x9f5
 4375 09be 1E       		.uleb128 0x1e
 4376 09bf 1C       		.byte	0x1c
 4377 09c0 5C       		.byte	0x5c
 4378 09c1 0F0A0000 		.4byte	0xa0f
 4379 09c5 00       		.byte	0
 4380 09c6 1F       		.uleb128 0x1f
 4381 09c7 D50A0000 		.4byte	.LASF132
 4382 09cb 1D       		.byte	0x1d
 4383 09cc 1D       		.byte	0x1d
 4384 09cd 25000000 		.4byte	0x25
 4385 09d1 E0090000 		.4byte	0x9e0
 4386 09d5 13       		.uleb128 0x13
 4387 09d6 C5050000 		.4byte	0x5c5
 4388 09da 13       		.uleb128 0x13
 4389 09db C5050000 		.4byte	0x5c5
 4390 09df 00       		.byte	0
 4391 09e0 1F       		.uleb128 0x1f
 4392 09e1 4F280000 		.4byte	.LASF133
 4393 09e5 1D       		.byte	0x1d
 4394 09e6 20       		.byte	0x20
 4395 09e7 98090000 		.4byte	0x998
 4396 09eb F5090000 		.4byte	0x9f5
 4397 09ef 13       		.uleb128 0x13
 4398 09f0 25000000 		.4byte	0x25
 4399 09f4 00       		.byte	0
 4400 09f5 1F       		.uleb128 0x1f
 4401 09f6 74390000 		.4byte	.LASF134
 4402 09fa 1D       		.byte	0x1d
 4403 09fb 2A       		.byte	0x2a
ARM GAS  /tmp/ccWQ6gKG.s 			page 79


 4404 09fc 98090000 		.4byte	0x998
 4405 0a00 0F0A0000 		.4byte	0xa0f
 4406 0a04 13       		.uleb128 0x13
 4407 0a05 98090000 		.4byte	0x998
 4408 0a09 13       		.uleb128 0x13
 4409 0a0a C5050000 		.4byte	0x5c5
 4410 0a0e 00       		.byte	0
 4411 0a0f 1F       		.uleb128 0x1f
 4412 0a10 9F280000 		.4byte	.LASF135
 4413 0a14 1D       		.byte	0x1d
 4414 0a15 2C       		.byte	0x2c
 4415 0a16 2C000000 		.4byte	0x2c
 4416 0a1a 2E0A0000 		.4byte	0xa2e
 4417 0a1e 13       		.uleb128 0x13
 4418 0a1f 98090000 		.4byte	0x998
 4419 0a23 13       		.uleb128 0x13
 4420 0a24 C5050000 		.4byte	0x5c5
 4421 0a28 13       		.uleb128 0x13
 4422 0a29 2C000000 		.4byte	0x2c
 4423 0a2d 00       		.byte	0
 4424 0a2e 1D       		.uleb128 0x1d
 4425 0a2f 72327000 		.ascii	"r2p\000"
 4426 0a33 1F       		.byte	0x1f
 4427 0a34 03       		.byte	0x3
 4428 0a35 CA450000 		.4byte	0x45ca
 4429 0a39 20       		.uleb128 0x20
 4430 0a3a 9F290000 		.4byte	.LASF136
 4431 0a3e 01       		.byte	0x1
 4432 0a3f 1F       		.byte	0x1f
 4433 0a40 06       		.byte	0x6
 4434 0a41 990A0000 		.4byte	0xa99
 4435 0a45 21       		.uleb128 0x21
 4436 0a46 9F290000 		.4byte	.LASF136
 4437 0a4a 1F       		.byte	0x1f
 4438 0a4b 09       		.byte	0x9
 4439 0a4c CA450000 		.4byte	0x45ca
 4440 0a50 580A0000 		.4byte	0xa58
 4441 0a54 630A0000 		.4byte	0xa63
 4442 0a58 22       		.uleb128 0x22
 4443 0a59 CA450000 		.4byte	0x45ca
 4444 0a5d 13       		.uleb128 0x13
 4445 0a5e D0450000 		.4byte	0x45d0
 4446 0a62 00       		.byte	0
 4447 0a63 23       		.uleb128 0x23
 4448 0a64 9F290000 		.4byte	.LASF136
 4449 0a68 1F       		.byte	0x1f
 4450 0a69 14       		.byte	0x14
 4451 0a6a CA450000 		.4byte	0x45ca
 4452 0a6e 02       		.byte	0x2
 4453 0a6f 770A0000 		.4byte	0xa77
 4454 0a73 7D0A0000 		.4byte	0xa7d
 4455 0a77 22       		.uleb128 0x22
 4456 0a78 CA450000 		.4byte	0x45ca
 4457 0a7c 00       		.byte	0
 4458 0a7d 24       		.uleb128 0x24
 4459 0a7e 1F580000 		.4byte	.LASF137
 4460 0a82 1F       		.byte	0x1f
ARM GAS  /tmp/ccWQ6gKG.s 			page 80


 4461 0a83 15       		.byte	0x15
 4462 0a84 07030000 		.4byte	0x307
 4463 0a88 02       		.byte	0x2
 4464 0a89 8D0A0000 		.4byte	0xa8d
 4465 0a8d 22       		.uleb128 0x22
 4466 0a8e CA450000 		.4byte	0x45ca
 4467 0a92 22       		.uleb128 0x22
 4468 0a93 25000000 		.4byte	0x25
 4469 0a97 00       		.byte	0
 4470 0a98 00       		.byte	0
 4471 0a99 14       		.uleb128 0x14
 4472 0a9a 390A0000 		.4byte	0xa39
 4473 0a9e 20       		.uleb128 0x20
 4474 0a9f B2500000 		.4byte	.LASF138
 4475 0aa3 0C       		.byte	0xc
 4476 0aa4 20       		.byte	0x20
 4477 0aa5 09       		.byte	0x9
 4478 0aa6 570C0000 		.4byte	0xc57
 4479 0aaa 25       		.uleb128 0x25
 4480 0aab 390A0000 		.4byte	0xa39
 4481 0aaf 00       		.byte	0
 4482 0ab0 08       		.uleb128 0x8
 4483 0ab1 501A0000 		.4byte	.LASF139
 4484 0ab5 20       		.byte	0x20
 4485 0ab6 0E       		.byte	0xe
 4486 0ab7 B4050000 		.4byte	0x5b4
 4487 0abb 00       		.byte	0
 4488 0abc 26       		.uleb128 0x26
 4489 0abd 30000000 		.4byte	.LASF157
 4490 0ac1 20       		.byte	0x20
 4491 0ac2 0B       		.byte	0xb
 4492 0ac3 44050000 		.4byte	0x544
 4493 0ac7 01       		.byte	0x1
 4494 0ac8 27       		.uleb128 0x27
 4495 0ac9 72400000 		.4byte	.LASF140
 4496 0acd 20       		.byte	0x20
 4497 0ace 11       		.byte	0x11
 4498 0acf 51430000 		.4byte	.LASF142
 4499 0ad3 2C000000 		.4byte	0x2c
 4500 0ad7 01       		.byte	0x1
 4501 0ad8 E00A0000 		.4byte	0xae0
 4502 0adc E60A0000 		.4byte	0xae6
 4503 0ae0 22       		.uleb128 0x22
 4504 0ae1 DD450000 		.4byte	0x45dd
 4505 0ae5 00       		.byte	0
 4506 0ae6 27       		.uleb128 0x27
 4507 0ae7 F7240000 		.4byte	.LASF141
 4508 0aeb 20       		.byte	0x20
 4509 0aec 12       		.byte	0x12
 4510 0aed 871A0000 		.4byte	.LASF143
 4511 0af1 BC0A0000 		.4byte	0xabc
 4512 0af5 01       		.byte	0x1
 4513 0af6 FE0A0000 		.4byte	0xafe
 4514 0afa 040B0000 		.4byte	0xb04
 4515 0afe 22       		.uleb128 0x22
 4516 0aff DD450000 		.4byte	0x45dd
 4517 0b03 00       		.byte	0
ARM GAS  /tmp/ccWQ6gKG.s 			page 81


 4518 0b04 27       		.uleb128 0x27
 4519 0b05 FD320000 		.4byte	.LASF144
 4520 0b09 20       		.byte	0x20
 4521 0b0a 14       		.byte	0x14
 4522 0b0b 13070000 		.4byte	.LASF145
 4523 0b0f 07030000 		.4byte	0x307
 4524 0b13 01       		.byte	0x1
 4525 0b14 1C0B0000 		.4byte	0xb1c
 4526 0b18 220B0000 		.4byte	0xb22
 4527 0b1c 22       		.uleb128 0x22
 4528 0b1d E3450000 		.4byte	0x45e3
 4529 0b21 00       		.byte	0
 4530 0b22 28       		.uleb128 0x28
 4531 0b23 86140000 		.4byte	.LASF146
 4532 0b27 20       		.byte	0x20
 4533 0b28 15       		.byte	0x15
 4534 0b29 09110000 		.4byte	.LASF150
 4535 0b2d 01       		.byte	0x1
 4536 0b2e 360B0000 		.4byte	0xb36
 4537 0b32 410B0000 		.4byte	0xb41
 4538 0b36 22       		.uleb128 0x22
 4539 0b37 E3450000 		.4byte	0x45e3
 4540 0b3b 13       		.uleb128 0x13
 4541 0b3c 07030000 		.4byte	0x307
 4542 0b40 00       		.byte	0
 4543 0b41 27       		.uleb128 0x27
 4544 0b42 D5360000 		.4byte	.LASF147
 4545 0b46 20       		.byte	0x20
 4546 0b47 17       		.byte	0x17
 4547 0b48 651B0000 		.4byte	.LASF148
 4548 0b4c 07030000 		.4byte	0x307
 4549 0b50 01       		.byte	0x1
 4550 0b51 590B0000 		.4byte	0xb59
 4551 0b55 5F0B0000 		.4byte	0xb5f
 4552 0b59 22       		.uleb128 0x22
 4553 0b5a E3450000 		.4byte	0x45e3
 4554 0b5e 00       		.byte	0
 4555 0b5f 28       		.uleb128 0x28
 4556 0b60 E20F0000 		.4byte	.LASF149
 4557 0b64 20       		.byte	0x20
 4558 0b65 18       		.byte	0x18
 4559 0b66 13230000 		.4byte	.LASF151
 4560 0b6a 01       		.byte	0x1
 4561 0b6b 730B0000 		.4byte	0xb73
 4562 0b6f 7E0B0000 		.4byte	0xb7e
 4563 0b73 22       		.uleb128 0x22
 4564 0b74 E3450000 		.4byte	0x45e3
 4565 0b78 13       		.uleb128 0x13
 4566 0b79 07030000 		.4byte	0x307
 4567 0b7d 00       		.byte	0
 4568 0b7e 28       		.uleb128 0x28
 4569 0b7f 452D0000 		.4byte	.LASF152
 4570 0b83 20       		.byte	0x20
 4571 0b84 19       		.byte	0x19
 4572 0b85 A23A0000 		.4byte	.LASF153
 4573 0b89 01       		.byte	0x1
 4574 0b8a 920B0000 		.4byte	0xb92
ARM GAS  /tmp/ccWQ6gKG.s 			page 82


 4575 0b8e A20B0000 		.4byte	0xba2
 4576 0b92 22       		.uleb128 0x22
 4577 0b93 E3450000 		.4byte	0x45e3
 4578 0b97 13       		.uleb128 0x13
 4579 0b98 07030000 		.4byte	0x307
 4580 0b9c 13       		.uleb128 0x13
 4581 0b9d 2C000000 		.4byte	0x2c
 4582 0ba1 00       		.byte	0
 4583 0ba2 27       		.uleb128 0x27
 4584 0ba3 E5220000 		.4byte	.LASF154
 4585 0ba7 20       		.byte	0x20
 4586 0ba8 1B       		.byte	0x1b
 4587 0ba9 92150000 		.4byte	.LASF155
 4588 0bad E9450000 		.4byte	0x45e9
 4589 0bb1 01       		.byte	0x1
 4590 0bb2 BA0B0000 		.4byte	0xbba
 4591 0bb6 C00B0000 		.4byte	0xbc0
 4592 0bba 22       		.uleb128 0x22
 4593 0bbb E3450000 		.4byte	0x45e3
 4594 0bbf 00       		.byte	0
 4595 0bc0 23       		.uleb128 0x23
 4596 0bc1 B2500000 		.4byte	.LASF138
 4597 0bc5 20       		.byte	0x20
 4598 0bc6 1E       		.byte	0x1e
 4599 0bc7 E3450000 		.4byte	0x45e3
 4600 0bcb 01       		.byte	0x1
 4601 0bcc D40B0000 		.4byte	0xbd4
 4602 0bd0 DF0B0000 		.4byte	0xbdf
 4603 0bd4 22       		.uleb128 0x22
 4604 0bd5 E3450000 		.4byte	0x45e3
 4605 0bd9 13       		.uleb128 0x13
 4606 0bda 2C000000 		.4byte	0x2c
 4607 0bde 00       		.byte	0
 4608 0bdf 23       		.uleb128 0x23
 4609 0be0 B2500000 		.4byte	.LASF138
 4610 0be4 20       		.byte	0x20
 4611 0be5 1F       		.byte	0x1f
 4612 0be6 E3450000 		.4byte	0x45e3
 4613 0bea 01       		.byte	0x1
 4614 0beb F30B0000 		.4byte	0xbf3
 4615 0bef 080C0000 		.4byte	0xc08
 4616 0bf3 22       		.uleb128 0x22
 4617 0bf4 E3450000 		.4byte	0x45e3
 4618 0bf8 13       		.uleb128 0x13
 4619 0bf9 07030000 		.4byte	0x307
 4620 0bfd 13       		.uleb128 0x13
 4621 0bfe 2C000000 		.4byte	0x2c
 4622 0c02 13       		.uleb128 0x13
 4623 0c03 2C000000 		.4byte	0x2c
 4624 0c07 00       		.byte	0
 4625 0c08 23       		.uleb128 0x23
 4626 0c09 B2500000 		.4byte	.LASF138
 4627 0c0d 20       		.byte	0x20
 4628 0c0e 20       		.byte	0x20
 4629 0c0f E3450000 		.4byte	0x45e3
 4630 0c13 01       		.byte	0x1
 4631 0c14 1C0C0000 		.4byte	0xc1c
ARM GAS  /tmp/ccWQ6gKG.s 			page 83


 4632 0c18 2C0C0000 		.4byte	0xc2c
 4633 0c1c 22       		.uleb128 0x22
 4634 0c1d E3450000 		.4byte	0x45e3
 4635 0c21 13       		.uleb128 0x13
 4636 0c22 2C000000 		.4byte	0x2c
 4637 0c26 13       		.uleb128 0x13
 4638 0c27 BC0A0000 		.4byte	0xabc
 4639 0c2b 00       		.byte	0
 4640 0c2c 24       		.uleb128 0x24
 4641 0c2d B2500000 		.4byte	.LASF138
 4642 0c31 20       		.byte	0x20
 4643 0c32 21       		.byte	0x21
 4644 0c33 E3450000 		.4byte	0x45e3
 4645 0c37 01       		.byte	0x1
 4646 0c38 3C0C0000 		.4byte	0xc3c
 4647 0c3c 22       		.uleb128 0x22
 4648 0c3d E3450000 		.4byte	0x45e3
 4649 0c41 13       		.uleb128 0x13
 4650 0c42 07030000 		.4byte	0x307
 4651 0c46 13       		.uleb128 0x13
 4652 0c47 2C000000 		.4byte	0x2c
 4653 0c4b 13       		.uleb128 0x13
 4654 0c4c 2C000000 		.4byte	0x2c
 4655 0c50 13       		.uleb128 0x13
 4656 0c51 BC0A0000 		.4byte	0xabc
 4657 0c55 00       		.byte	0
 4658 0c56 00       		.byte	0
 4659 0c57 14       		.uleb128 0x14
 4660 0c58 9E0A0000 		.4byte	0xa9e
 4661 0c5c 20       		.uleb128 0x20
 4662 0c5d 92410000 		.4byte	.LASF156
 4663 0c61 04       		.byte	0x4
 4664 0c62 01       		.byte	0x1
 4665 0c63 08       		.byte	0x8
 4666 0c64 2F0F0000 		.4byte	0xf2f
 4667 0c68 26       		.uleb128 0x26
 4668 0c69 0D1D0000 		.4byte	.LASF158
 4669 0c6d 01       		.byte	0x1
 4670 0c6e 0A       		.byte	0xa
 4671 0c6f D9000000 		.4byte	0xd9
 4672 0c73 01       		.byte	0x1
 4673 0c74 29       		.uleb128 0x29
 4674 0c75 72617700 		.ascii	"raw\000"
 4675 0c79 01       		.byte	0x1
 4676 0c7a 1B       		.byte	0x1b
 4677 0c7b 680C0000 		.4byte	0xc68
 4678 0c7f 00       		.byte	0
 4679 0c80 01       		.byte	0x1
 4680 0c81 2A       		.uleb128 0x2a
 4681 0c82 AA1E0000 		.4byte	.LASF159
 4682 0c86 01       		.byte	0x1
 4683 0c87 3B       		.byte	0x3b
 4684 0c88 2F0F0000 		.4byte	0xf2f
 4685 0c8c 01       		.byte	0x1
 4686 0c8d 2A       		.uleb128 0x2a
 4687 0c8e 5A1C0000 		.4byte	.LASF160
 4688 0c92 01       		.byte	0x1
ARM GAS  /tmp/ccWQ6gKG.s 			page 84


 4689 0c93 3C       		.byte	0x3c
 4690 0c94 2F0F0000 		.4byte	0xf2f
 4691 0c98 01       		.byte	0x1
 4692 0c99 2A       		.uleb128 0x2a
 4693 0c9a C2590000 		.4byte	.LASF161
 4694 0c9e 01       		.byte	0x1
 4695 0c9f 3D       		.byte	0x3d
 4696 0ca0 2F0F0000 		.4byte	0xf2f
 4697 0ca4 01       		.byte	0x1
 4698 0ca5 27       		.uleb128 0x27
 4699 0ca6 68230000 		.4byte	.LASF162
 4700 0caa 01       		.byte	0x1
 4701 0cab 1E       		.byte	0x1e
 4702 0cac 43550000 		.4byte	.LASF163
 4703 0cb0 680C0000 		.4byte	0xc68
 4704 0cb4 01       		.byte	0x1
 4705 0cb5 BD0C0000 		.4byte	0xcbd
 4706 0cb9 C30C0000 		.4byte	0xcc3
 4707 0cbd 22       		.uleb128 0x22
 4708 0cbe EF450000 		.4byte	0x45ef
 4709 0cc2 00       		.byte	0
 4710 0cc3 27       		.uleb128 0x27
 4711 0cc4 BC390000 		.4byte	.LASF164
 4712 0cc8 01       		.byte	0x1
 4713 0cc9 1F       		.byte	0x1f
 4714 0cca 7E4E0000 		.4byte	.LASF165
 4715 0cce 680C0000 		.4byte	0xc68
 4716 0cd2 01       		.byte	0x1
 4717 0cd3 DB0C0000 		.4byte	0xcdb
 4718 0cd7 E10C0000 		.4byte	0xce1
 4719 0cdb 22       		.uleb128 0x22
 4720 0cdc EF450000 		.4byte	0x45ef
 4721 0ce0 00       		.byte	0
 4722 0ce1 27       		.uleb128 0x27
 4723 0ce2 C2050000 		.4byte	.LASF166
 4724 0ce6 01       		.byte	0x1
 4725 0ce7 20       		.byte	0x20
 4726 0ce8 CC4E0000 		.4byte	.LASF167
 4727 0cec 680C0000 		.4byte	0xc68
 4728 0cf0 01       		.byte	0x1
 4729 0cf1 F90C0000 		.4byte	0xcf9
 4730 0cf5 FF0C0000 		.4byte	0xcff
 4731 0cf9 22       		.uleb128 0x22
 4732 0cfa EF450000 		.4byte	0x45ef
 4733 0cfe 00       		.byte	0
 4734 0cff 27       		.uleb128 0x27
 4735 0d00 36110000 		.4byte	.LASF168
 4736 0d04 01       		.byte	0x1
 4737 0d05 21       		.byte	0x21
 4738 0d06 FE4C0000 		.4byte	.LASF169
 4739 0d0a 680C0000 		.4byte	0xc68
 4740 0d0e 01       		.byte	0x1
 4741 0d0f 170D0000 		.4byte	0xd17
 4742 0d13 1D0D0000 		.4byte	0xd1d
 4743 0d17 22       		.uleb128 0x22
 4744 0d18 EF450000 		.4byte	0x45ef
 4745 0d1c 00       		.byte	0
ARM GAS  /tmp/ccWQ6gKG.s 			page 85


 4746 0d1d 27       		.uleb128 0x27
 4747 0d1e 4A1A0000 		.4byte	.LASF170
 4748 0d22 01       		.byte	0x1
 4749 0d23 23       		.byte	0x23
 4750 0d24 43070000 		.4byte	.LASF171
 4751 0d28 F5450000 		.4byte	0x45f5
 4752 0d2c 01       		.byte	0x1
 4753 0d2d 350D0000 		.4byte	0xd35
 4754 0d31 3B0D0000 		.4byte	0xd3b
 4755 0d35 22       		.uleb128 0x22
 4756 0d36 EF450000 		.4byte	0x45ef
 4757 0d3a 00       		.byte	0
 4758 0d3b 27       		.uleb128 0x27
 4759 0d3c 99290000 		.4byte	.LASF172
 4760 0d40 01       		.byte	0x1
 4761 0d41 24       		.byte	0x24
 4762 0d42 1A130000 		.4byte	.LASF173
 4763 0d46 F5450000 		.4byte	0x45f5
 4764 0d4a 01       		.byte	0x1
 4765 0d4b 530D0000 		.4byte	0xd53
 4766 0d4f 590D0000 		.4byte	0xd59
 4767 0d53 22       		.uleb128 0x22
 4768 0d54 EF450000 		.4byte	0x45ef
 4769 0d58 00       		.byte	0
 4770 0d59 27       		.uleb128 0x27
 4771 0d5a CF560000 		.4byte	.LASF174
 4772 0d5e 01       		.byte	0x1
 4773 0d5f 25       		.byte	0x25
 4774 0d60 AD130000 		.4byte	.LASF175
 4775 0d64 F5450000 		.4byte	0x45f5
 4776 0d68 01       		.byte	0x1
 4777 0d69 710D0000 		.4byte	0xd71
 4778 0d6d 770D0000 		.4byte	0xd77
 4779 0d71 22       		.uleb128 0x22
 4780 0d72 EF450000 		.4byte	0x45ef
 4781 0d76 00       		.byte	0
 4782 0d77 27       		.uleb128 0x27
 4783 0d78 AF560000 		.4byte	.LASF176
 4784 0d7c 01       		.byte	0x1
 4785 0d7d 26       		.byte	0x26
 4786 0d7e AF180000 		.4byte	.LASF177
 4787 0d82 F5450000 		.4byte	0x45f5
 4788 0d86 01       		.byte	0x1
 4789 0d87 8F0D0000 		.4byte	0xd8f
 4790 0d8b 950D0000 		.4byte	0xd95
 4791 0d8f 22       		.uleb128 0x22
 4792 0d90 EF450000 		.4byte	0x45ef
 4793 0d94 00       		.byte	0
 4794 0d95 27       		.uleb128 0x27
 4795 0d96 92120000 		.4byte	.LASF178
 4796 0d9a 01       		.byte	0x1
 4797 0d9b 28       		.byte	0x28
 4798 0d9c 5A340000 		.4byte	.LASF179
 4799 0da0 FC450000 		.4byte	0x45fc
 4800 0da4 01       		.byte	0x1
 4801 0da5 AD0D0000 		.4byte	0xdad
 4802 0da9 B80D0000 		.4byte	0xdb8
ARM GAS  /tmp/ccWQ6gKG.s 			page 86


 4803 0dad 22       		.uleb128 0x22
 4804 0dae 02460000 		.4byte	0x4602
 4805 0db2 13       		.uleb128 0x13
 4806 0db3 08460000 		.4byte	0x4608
 4807 0db7 00       		.byte	0
 4808 0db8 27       		.uleb128 0x27
 4809 0db9 C23A0000 		.4byte	.LASF180
 4810 0dbd 01       		.byte	0x1
 4811 0dbe 29       		.byte	0x29
 4812 0dbf 8C4D0000 		.4byte	.LASF181
 4813 0dc3 FC450000 		.4byte	0x45fc
 4814 0dc7 01       		.byte	0x1
 4815 0dc8 D00D0000 		.4byte	0xdd0
 4816 0dcc DB0D0000 		.4byte	0xddb
 4817 0dd0 22       		.uleb128 0x22
 4818 0dd1 02460000 		.4byte	0x4602
 4819 0dd5 13       		.uleb128 0x13
 4820 0dd6 08460000 		.4byte	0x4608
 4821 0dda 00       		.byte	0
 4822 0ddb 27       		.uleb128 0x27
 4823 0ddc 5E3E0000 		.4byte	.LASF182
 4824 0de0 01       		.byte	0x1
 4825 0de1 2A       		.byte	0x2a
 4826 0de2 64100000 		.4byte	.LASF183
 4827 0de6 FC450000 		.4byte	0x45fc
 4828 0dea 01       		.byte	0x1
 4829 0deb F30D0000 		.4byte	0xdf3
 4830 0def FE0D0000 		.4byte	0xdfe
 4831 0df3 22       		.uleb128 0x22
 4832 0df4 02460000 		.4byte	0x4602
 4833 0df8 13       		.uleb128 0x13
 4834 0df9 08460000 		.4byte	0x4608
 4835 0dfd 00       		.byte	0
 4836 0dfe 23       		.uleb128 0x23
 4837 0dff 92410000 		.4byte	.LASF156
 4838 0e03 01       		.byte	0x1
 4839 0e04 2D       		.byte	0x2d
 4840 0e05 02460000 		.4byte	0x4602
 4841 0e09 01       		.byte	0x1
 4842 0e0a 120E0000 		.4byte	0xe12
 4843 0e0e 180E0000 		.4byte	0xe18
 4844 0e12 22       		.uleb128 0x22
 4845 0e13 02460000 		.4byte	0x4602
 4846 0e17 00       		.byte	0
 4847 0e18 2B       		.uleb128 0x2b
 4848 0e19 92410000 		.4byte	.LASF156
 4849 0e1d 01       		.byte	0x1
 4850 0e1e 2F       		.byte	0x2f
 4851 0e1f 02460000 		.4byte	0x4602
 4852 0e23 01       		.byte	0x1
 4853 0e24 2C0E0000 		.4byte	0xe2c
 4854 0e28 370E0000 		.4byte	0xe37
 4855 0e2c 22       		.uleb128 0x22
 4856 0e2d 02460000 		.4byte	0x4602
 4857 0e31 13       		.uleb128 0x13
 4858 0e32 F5450000 		.4byte	0x45f5
 4859 0e36 00       		.byte	0
ARM GAS  /tmp/ccWQ6gKG.s 			page 87


 4860 0e37 23       		.uleb128 0x23
 4861 0e38 92410000 		.4byte	.LASF156
 4862 0e3c 01       		.byte	0x1
 4863 0e3d 30       		.byte	0x30
 4864 0e3e 02460000 		.4byte	0x4602
 4865 0e42 01       		.byte	0x1
 4866 0e43 4B0E0000 		.4byte	0xe4b
 4867 0e47 560E0000 		.4byte	0xe56
 4868 0e4b 22       		.uleb128 0x22
 4869 0e4c 02460000 		.4byte	0x4602
 4870 0e50 13       		.uleb128 0x13
 4871 0e51 08460000 		.4byte	0x4608
 4872 0e55 00       		.byte	0
 4873 0e56 2C       		.uleb128 0x2c
 4874 0e57 757300   		.ascii	"us\000"
 4875 0e5a 01       		.byte	0x1
 4876 0e5b 33       		.byte	0x33
 4877 0e5c DD2E0000 		.4byte	.LASF184
 4878 0e60 5C0C0000 		.4byte	0xc5c
 4879 0e64 01       		.byte	0x1
 4880 0e65 6F0E0000 		.4byte	0xe6f
 4881 0e69 13       		.uleb128 0x13
 4882 0e6a 680C0000 		.4byte	0xc68
 4883 0e6e 00       		.byte	0
 4884 0e6f 2C       		.uleb128 0x2c
 4885 0e70 6D7300   		.ascii	"ms\000"
 4886 0e73 01       		.byte	0x1
 4887 0e74 34       		.byte	0x34
 4888 0e75 4E3B0000 		.4byte	.LASF185
 4889 0e79 5C0C0000 		.4byte	0xc5c
 4890 0e7d 01       		.byte	0x1
 4891 0e7e 880E0000 		.4byte	0xe88
 4892 0e82 13       		.uleb128 0x13
 4893 0e83 680C0000 		.4byte	0xc68
 4894 0e87 00       		.byte	0
 4895 0e88 2C       		.uleb128 0x2c
 4896 0e89 7300     		.ascii	"s\000"
 4897 0e8b 01       		.byte	0x1
 4898 0e8c 35       		.byte	0x35
 4899 0e8d C9430000 		.4byte	.LASF186
 4900 0e91 5C0C0000 		.4byte	0xc5c
 4901 0e95 01       		.byte	0x1
 4902 0e96 A00E0000 		.4byte	0xea0
 4903 0e9a 13       		.uleb128 0x13
 4904 0e9b 680C0000 		.4byte	0xc68
 4905 0e9f 00       		.byte	0
 4906 0ea0 2C       		.uleb128 0x2c
 4907 0ea1 6D00     		.ascii	"m\000"
 4908 0ea3 01       		.byte	0x1
 4909 0ea4 36       		.byte	0x36
 4910 0ea5 3D360000 		.4byte	.LASF187
 4911 0ea9 5C0C0000 		.4byte	0xc5c
 4912 0ead 01       		.byte	0x1
 4913 0eae B80E0000 		.4byte	0xeb8
 4914 0eb2 13       		.uleb128 0x13
 4915 0eb3 680C0000 		.4byte	0xc68
 4916 0eb7 00       		.byte	0
ARM GAS  /tmp/ccWQ6gKG.s 			page 88


 4917 0eb8 2C       		.uleb128 0x2c
 4918 0eb9 687A00   		.ascii	"hz\000"
 4919 0ebc 01       		.byte	0x1
 4920 0ebd 37       		.byte	0x37
 4921 0ebe 76540000 		.4byte	.LASF188
 4922 0ec2 5C0C0000 		.4byte	0xc5c
 4923 0ec6 01       		.byte	0x1
 4924 0ec7 D10E0000 		.4byte	0xed1
 4925 0ecb 13       		.uleb128 0x13
 4926 0ecc F5450000 		.4byte	0x45f5
 4927 0ed0 00       		.byte	0
 4928 0ed1 2D       		.uleb128 0x2d
 4929 0ed2 6E6F7700 		.ascii	"now\000"
 4930 0ed6 01       		.byte	0x1
 4931 0ed7 38       		.byte	0x38
 4932 0ed8 63540000 		.4byte	.LASF770
 4933 0edc 5C0C0000 		.4byte	0xc5c
 4934 0ee0 01       		.byte	0x1
 4935 0ee1 14       		.uleb128 0x14
 4936 0ee2 680C0000 		.4byte	0xc68
 4937 0ee6 23       		.uleb128 0x23
 4938 0ee7 72070000 		.4byte	.LASF189
 4939 0eeb 01       		.byte	0x1
 4940 0eec 9F       		.byte	0x9f
 4941 0eed 02460000 		.4byte	0x4602
 4942 0ef1 01       		.byte	0x1
 4943 0ef2 010F0000 		.4byte	0xf01
 4944 0ef6 0C0F0000 		.4byte	0xf0c
 4945 0efa 2E       		.uleb128 0x2e
 4946 0efb 5400     		.ascii	"T\000"
 4947 0efd 86000000 		.4byte	0x86
 4948 0f01 22       		.uleb128 0x22
 4949 0f02 02460000 		.4byte	0x4602
 4950 0f06 13       		.uleb128 0x13
 4951 0f07 86000000 		.4byte	0x86
 4952 0f0b 00       		.byte	0
 4953 0f0c 24       		.uleb128 0x24
 4954 0f0d 16410000 		.4byte	.LASF190
 4955 0f11 01       		.byte	0x1
 4956 0f12 9F       		.byte	0x9f
 4957 0f13 02460000 		.4byte	0x4602
 4958 0f17 01       		.byte	0x1
 4959 0f18 230F0000 		.4byte	0xf23
 4960 0f1c 2E       		.uleb128 0x2e
 4961 0f1d 5400     		.ascii	"T\000"
 4962 0f1f 25000000 		.4byte	0x25
 4963 0f23 22       		.uleb128 0x22
 4964 0f24 02460000 		.4byte	0x4602
 4965 0f28 13       		.uleb128 0x13
 4966 0f29 25000000 		.4byte	0x25
 4967 0f2d 00       		.byte	0
 4968 0f2e 00       		.byte	0
 4969 0f2f 14       		.uleb128 0x14
 4970 0f30 5C0C0000 		.4byte	0xc5c
 4971 0f34 20       		.uleb128 0x20
 4972 0f35 78290000 		.4byte	.LASF191
 4973 0f39 04       		.byte	0x4
ARM GAS  /tmp/ccWQ6gKG.s 			page 89


 4974 0f3a 21       		.byte	0x21
 4975 0f3b 0F       		.byte	0xf
 4976 0f3c 76150000 		.4byte	0x1576
 4977 0f40 25       		.uleb128 0x25
 4978 0f41 390A0000 		.4byte	0xa39
 4979 0f45 00       		.byte	0
 4980 0f46 2F       		.uleb128 0x2f
 4981 0f47 21500000 		.4byte	.LASF194
 4982 0f4b 08       		.byte	0x8
 4983 0f4c 21       		.byte	0x21
 4984 0f4d 11       		.byte	0x11
 4985 0f4e 01       		.byte	0x1
 4986 0f4f 860F0000 		.4byte	0xf86
 4987 0f53 08       		.uleb128 0x8
 4988 0f54 AA290000 		.4byte	.LASF192
 4989 0f58 21       		.byte	0x21
 4990 0f59 12       		.byte	0x12
 4991 0f5a 0E460000 		.4byte	0x460e
 4992 0f5e 00       		.byte	0
 4993 0f5f 08       		.uleb128 0x8
 4994 0f60 74180000 		.4byte	.LASF193
 4995 0f64 21       		.byte	0x21
 4996 0f65 13       		.byte	0x13
 4997 0f66 3B480000 		.4byte	0x483b
 4998 0f6a 04       		.byte	0x4
 4999 0f6b 30       		.uleb128 0x30
 5000 0f6c 21500000 		.4byte	.LASF194
 5001 0f70 21       		.byte	0x21
 5002 0f71 15       		.byte	0x15
 5003 0f72 0E460000 		.4byte	0x460e
 5004 0f76 7A0F0000 		.4byte	0xf7a
 5005 0f7a 22       		.uleb128 0x22
 5006 0f7b 0E460000 		.4byte	0x460e
 5007 0f7f 13       		.uleb128 0x13
 5008 0f80 95470000 		.4byte	0x4795
 5009 0f84 00       		.byte	0
 5010 0f85 00       		.byte	0
 5011 0f86 19       		.uleb128 0x19
 5012 0f87 F6110000 		.4byte	.LASF195
 5013 0f8b 21       		.byte	0x21
 5014 0f8c 8A01     		.2byte	0x18a
 5015 0f8e 0E460000 		.4byte	0x460e
 5016 0f92 00       		.byte	0
 5017 0f93 31       		.uleb128 0x31
 5018 0f94 13250000 		.4byte	.LASF442
 5019 0f98 32       		.uleb128 0x32
 5020 0f99 411D0000 		.4byte	.LASF196
 5021 0f9d 32       		.uleb128 0x32
 5022 0f9e 1B2B0000 		.4byte	.LASF197
 5023 0fa2 32       		.uleb128 0x32
 5024 0fa3 ED490000 		.4byte	.LASF198
 5025 0fa7 33       		.uleb128 0x33
 5026 0fa8 5E380000 		.4byte	.LASF200
 5027 0fac 04       		.byte	0x4
 5028 0fad 21       		.byte	0x21
 5029 0fae C0       		.byte	0xc0
 5030 0faf 01       		.byte	0x1
ARM GAS  /tmp/ccWQ6gKG.s 			page 90


 5031 0fb0 17110000 		.4byte	0x1117
 5032 0fb4 08       		.uleb128 0x8
 5033 0fb5 FE120000 		.4byte	.LASF199
 5034 0fb9 21       		.byte	0x21
 5035 0fba C4       		.byte	0xc4
 5036 0fbb 57490000 		.4byte	0x4957
 5037 0fbf 00       		.byte	0
 5038 0fc0 23       		.uleb128 0x23
 5039 0fc1 5E380000 		.4byte	.LASF200
 5040 0fc5 21       		.byte	0x21
 5041 0fc6 C7       		.byte	0xc7
 5042 0fc7 5D490000 		.4byte	0x495d
 5043 0fcb 01       		.byte	0x1
 5044 0fcc D40F0000 		.4byte	0xfd4
 5045 0fd0 DA0F0000 		.4byte	0xfda
 5046 0fd4 22       		.uleb128 0x22
 5047 0fd5 5D490000 		.4byte	0x495d
 5048 0fd9 00       		.byte	0
 5049 0fda 23       		.uleb128 0x23
 5050 0fdb 5E380000 		.4byte	.LASF200
 5051 0fdf 21       		.byte	0x21
 5052 0fe0 C8       		.byte	0xc8
 5053 0fe1 5D490000 		.4byte	0x495d
 5054 0fe5 01       		.byte	0x1
 5055 0fe6 EE0F0000 		.4byte	0xfee
 5056 0fea F90F0000 		.4byte	0xff9
 5057 0fee 22       		.uleb128 0x22
 5058 0fef 5D490000 		.4byte	0x495d
 5059 0ff3 13       		.uleb128 0x13
 5060 0ff4 63490000 		.4byte	0x4963
 5061 0ff8 00       		.byte	0
 5062 0ff9 21       		.uleb128 0x21
 5063 0ffa 5E380000 		.4byte	.LASF200
 5064 0ffe 21       		.byte	0x21
 5065 0fff CB       		.byte	0xcb
 5066 1000 5D490000 		.4byte	0x495d
 5067 1004 0C100000 		.4byte	0x100c
 5068 1008 17100000 		.4byte	0x1017
 5069 100c 22       		.uleb128 0x22
 5070 100d 5D490000 		.4byte	0x495d
 5071 1011 13       		.uleb128 0x13
 5072 1012 57490000 		.4byte	0x4957
 5073 1016 00       		.byte	0
 5074 1017 34       		.uleb128 0x34
 5075 1018 92120000 		.4byte	.LASF178
 5076 101c 21       		.byte	0x21
 5077 101d CE       		.byte	0xce
 5078 101e FA170000 		.4byte	.LASF201
 5079 1022 79460000 		.4byte	0x4679
 5080 1026 2E100000 		.4byte	0x102e
 5081 102a 39100000 		.4byte	0x1039
 5082 102e 22       		.uleb128 0x22
 5083 102f 5D490000 		.4byte	0x495d
 5084 1033 13       		.uleb128 0x13
 5085 1034 63490000 		.4byte	0x4963
 5086 1038 00       		.byte	0
 5087 1039 27       		.uleb128 0x27
ARM GAS  /tmp/ccWQ6gKG.s 			page 91


 5088 103a 693E0000 		.4byte	.LASF202
 5089 103e 21       		.byte	0x21
 5090 103f D4       		.byte	0xd4
 5091 1040 744C0000 		.4byte	.LASF203
 5092 1044 69490000 		.4byte	0x4969
 5093 1048 01       		.byte	0x1
 5094 1049 51100000 		.4byte	0x1051
 5095 104d 57100000 		.4byte	0x1057
 5096 1051 22       		.uleb128 0x22
 5097 1052 6F490000 		.4byte	0x496f
 5098 1056 00       		.byte	0
 5099 1057 27       		.uleb128 0x27
 5100 1058 1F120000 		.4byte	.LASF204
 5101 105c 21       		.byte	0x21
 5102 105d D8       		.byte	0xd8
 5103 105e 96360000 		.4byte	.LASF205
 5104 1062 29460000 		.4byte	0x4629
 5105 1066 01       		.byte	0x1
 5106 1067 6F100000 		.4byte	0x106f
 5107 106b 75100000 		.4byte	0x1075
 5108 106f 22       		.uleb128 0x22
 5109 1070 6F490000 		.4byte	0x496f
 5110 1074 00       		.byte	0
 5111 1075 27       		.uleb128 0x27
 5112 1076 B13B0000 		.4byte	.LASF206
 5113 107a 21       		.byte	0x21
 5114 107b DC       		.byte	0xdc
 5115 107c 80400000 		.4byte	.LASF207
 5116 1080 79460000 		.4byte	0x4679
 5117 1084 01       		.byte	0x1
 5118 1085 8D100000 		.4byte	0x108d
 5119 1089 93100000 		.4byte	0x1093
 5120 108d 22       		.uleb128 0x22
 5121 108e 5D490000 		.4byte	0x495d
 5122 1092 00       		.byte	0
 5123 1093 27       		.uleb128 0x27
 5124 1094 B13B0000 		.4byte	.LASF206
 5125 1098 21       		.byte	0x21
 5126 1099 E3       		.byte	0xe3
 5127 109a 803F0000 		.4byte	.LASF208
 5128 109e 08150000 		.4byte	0x1508
 5129 10a2 01       		.byte	0x1
 5130 10a3 AB100000 		.4byte	0x10ab
 5131 10a7 B6100000 		.4byte	0x10b6
 5132 10ab 22       		.uleb128 0x22
 5133 10ac 5D490000 		.4byte	0x495d
 5134 10b0 13       		.uleb128 0x13
 5135 10b1 25000000 		.4byte	0x25
 5136 10b5 00       		.byte	0
 5137 10b6 27       		.uleb128 0x27
 5138 10b7 D4560000 		.4byte	.LASF209
 5139 10bb 21       		.byte	0x21
 5140 10bc EB       		.byte	0xeb
 5141 10bd AB510000 		.4byte	.LASF210
 5142 10c1 FA000000 		.4byte	0xfa
 5143 10c5 01       		.byte	0x1
 5144 10c6 CE100000 		.4byte	0x10ce
ARM GAS  /tmp/ccWQ6gKG.s 			page 92


 5145 10ca D9100000 		.4byte	0x10d9
 5146 10ce 22       		.uleb128 0x22
 5147 10cf 6F490000 		.4byte	0x496f
 5148 10d3 13       		.uleb128 0x13
 5149 10d4 63490000 		.4byte	0x4963
 5150 10d8 00       		.byte	0
 5151 10d9 27       		.uleb128 0x27
 5152 10da 662C0000 		.4byte	.LASF211
 5153 10de 21       		.byte	0x21
 5154 10df EF       		.byte	0xef
 5155 10e0 1E300000 		.4byte	.LASF212
 5156 10e4 FA000000 		.4byte	0xfa
 5157 10e8 01       		.byte	0x1
 5158 10e9 F1100000 		.4byte	0x10f1
 5159 10ed FC100000 		.4byte	0x10fc
 5160 10f1 22       		.uleb128 0x22
 5161 10f2 6F490000 		.4byte	0x496f
 5162 10f6 13       		.uleb128 0x13
 5163 10f7 63490000 		.4byte	0x4963
 5164 10fb 00       		.byte	0
 5165 10fc 35       		.uleb128 0x35
 5166 10fd 903C0000 		.4byte	.LASF213
 5167 1101 21       		.byte	0x21
 5168 1102 F3       		.byte	0xf3
 5169 1103 510F0000 		.4byte	.LASF214
 5170 1107 FA000000 		.4byte	0xfa
 5171 110b 01       		.byte	0x1
 5172 110c 10110000 		.4byte	0x1110
 5173 1110 22       		.uleb128 0x22
 5174 1111 6F490000 		.4byte	0x496f
 5175 1115 00       		.byte	0
 5176 1116 00       		.byte	0
 5177 1117 1C       		.uleb128 0x1c
 5178 1118 7A180000 		.4byte	.LASF215
 5179 111c 21       		.byte	0x21
 5180 111d 8601     		.2byte	0x186
 5181 111f 14460000 		.4byte	0x4614
 5182 1123 1C       		.uleb128 0x1c
 5183 1124 56110000 		.4byte	.LASF216
 5184 1128 21       		.byte	0x21
 5185 1129 8701     		.2byte	0x187
 5186 112b 2F460000 		.4byte	0x462f
 5187 112f 36       		.uleb128 0x36
 5188 1130 AB590000 		.4byte	.LASF217
 5189 1134 21       		.byte	0x21
 5190 1135 8D01     		.2byte	0x18d
 5191 1137 AF380000 		.4byte	.LASF219
 5192 113b 49460000 		.4byte	0x4649
 5193 113f 01       		.byte	0x1
 5194 1140 48110000 		.4byte	0x1148
 5195 1144 4E110000 		.4byte	0x114e
 5196 1148 22       		.uleb128 0x22
 5197 1149 4F460000 		.4byte	0x464f
 5198 114d 00       		.byte	0
 5199 114e 14       		.uleb128 0x14
 5200 114f 460F0000 		.4byte	0xf46
 5201 1153 36       		.uleb128 0x36
ARM GAS  /tmp/ccWQ6gKG.s 			page 93


 5202 1154 88540000 		.4byte	.LASF218
 5203 1158 21       		.byte	0x21
 5204 1159 9101     		.2byte	0x191
 5205 115b 1C540000 		.4byte	.LASF220
 5206 115f FA000000 		.4byte	0xfa
 5207 1163 01       		.byte	0x1
 5208 1164 6C110000 		.4byte	0x116c
 5209 1168 72110000 		.4byte	0x1172
 5210 116c 22       		.uleb128 0x22
 5211 116d 4F460000 		.4byte	0x464f
 5212 1171 00       		.byte	0
 5213 1172 36       		.uleb128 0x36
 5214 1173 A31C0000 		.4byte	.LASF221
 5215 1177 21       		.byte	0x21
 5216 1178 0302     		.2byte	0x203
 5217 117a DB470000 		.4byte	.LASF222
 5218 117e 2C000000 		.4byte	0x2c
 5219 1182 01       		.byte	0x1
 5220 1183 8B110000 		.4byte	0x118b
 5221 1187 91110000 		.4byte	0x1191
 5222 118b 22       		.uleb128 0x22
 5223 118c 4F460000 		.4byte	0x464f
 5224 1190 00       		.byte	0
 5225 1191 37       		.uleb128 0x37
 5226 1192 C1410000 		.4byte	.LASF223
 5227 1196 21       		.byte	0x21
 5228 1197 9701     		.2byte	0x197
 5229 1199 862E0000 		.4byte	.LASF225
 5230 119d 01       		.byte	0x1
 5231 119e A6110000 		.4byte	0x11a6
 5232 11a2 B1110000 		.4byte	0x11b1
 5233 11a6 22       		.uleb128 0x22
 5234 11a7 55460000 		.4byte	0x4655
 5235 11ab 13       		.uleb128 0x13
 5236 11ac 5B460000 		.4byte	0x465b
 5237 11b0 00       		.byte	0
 5238 11b1 37       		.uleb128 0x37
 5239 11b2 41490000 		.4byte	.LASF224
 5240 11b6 21       		.byte	0x21
 5241 11b7 9F01     		.2byte	0x19f
 5242 11b9 A2110000 		.4byte	.LASF226
 5243 11bd 01       		.byte	0x1
 5244 11be C6110000 		.4byte	0x11c6
 5245 11c2 D1110000 		.4byte	0x11d1
 5246 11c6 22       		.uleb128 0x22
 5247 11c7 55460000 		.4byte	0x4655
 5248 11cb 13       		.uleb128 0x13
 5249 11cc 5B460000 		.4byte	0x465b
 5250 11d0 00       		.byte	0
 5251 11d1 36       		.uleb128 0x36
 5252 11d2 7E250000 		.4byte	.LASF227
 5253 11d6 21       		.byte	0x21
 5254 11d7 0E02     		.2byte	0x20e
 5255 11d9 42410000 		.4byte	.LASF228
 5256 11dd FA000000 		.4byte	0xfa
 5257 11e1 01       		.byte	0x1
 5258 11e2 EA110000 		.4byte	0x11ea
ARM GAS  /tmp/ccWQ6gKG.s 			page 94


 5259 11e6 F5110000 		.4byte	0x11f5
 5260 11ea 22       		.uleb128 0x22
 5261 11eb 55460000 		.4byte	0x4655
 5262 11ef 13       		.uleb128 0x13
 5263 11f0 5B460000 		.4byte	0x465b
 5264 11f4 00       		.byte	0
 5265 11f5 36       		.uleb128 0x36
 5266 11f6 92320000 		.4byte	.LASF229
 5267 11fa 21       		.byte	0x21
 5268 11fb 1F02     		.2byte	0x21f
 5269 11fd CD3A0000 		.4byte	.LASF230
 5270 1201 25000000 		.4byte	0x25
 5271 1205 01       		.byte	0x1
 5272 1206 0E120000 		.4byte	0x120e
 5273 120a 19120000 		.4byte	0x1219
 5274 120e 22       		.uleb128 0x22
 5275 120f 4F460000 		.4byte	0x464f
 5276 1213 13       		.uleb128 0x13
 5277 1214 29460000 		.4byte	0x4629
 5278 1218 00       		.byte	0
 5279 1219 36       		.uleb128 0x36
 5280 121a 9D460000 		.4byte	.LASF231
 5281 121e 21       		.byte	0x21
 5282 121f 2C02     		.2byte	0x22c
 5283 1221 0E3E0000 		.4byte	.LASF232
 5284 1225 FA000000 		.4byte	0xfa
 5285 1229 01       		.byte	0x1
 5286 122a 32120000 		.4byte	0x1232
 5287 122e 3D120000 		.4byte	0x123d
 5288 1232 22       		.uleb128 0x22
 5289 1233 4F460000 		.4byte	0x464f
 5290 1237 13       		.uleb128 0x13
 5291 1238 29460000 		.4byte	0x4629
 5292 123c 00       		.byte	0
 5293 123d 36       		.uleb128 0x36
 5294 123e AE2F0000 		.4byte	.LASF233
 5295 1242 21       		.byte	0x21
 5296 1243 3802     		.2byte	0x238
 5297 1245 36010000 		.4byte	.LASF234
 5298 1249 61460000 		.4byte	0x4661
 5299 124d 01       		.byte	0x1
 5300 124e 56120000 		.4byte	0x1256
 5301 1252 61120000 		.4byte	0x1261
 5302 1256 22       		.uleb128 0x22
 5303 1257 4F460000 		.4byte	0x464f
 5304 125b 13       		.uleb128 0x13
 5305 125c 17110000 		.4byte	0x1117
 5306 1260 00       		.byte	0
 5307 1261 36       		.uleb128 0x36
 5308 1262 AE2F0000 		.4byte	.LASF233
 5309 1266 21       		.byte	0x21
 5310 1267 4402     		.2byte	0x244
 5311 1269 590D0000 		.4byte	.LASF235
 5312 126d 61460000 		.4byte	0x4661
 5313 1271 01       		.byte	0x1
 5314 1272 7A120000 		.4byte	0x127a
 5315 1276 8A120000 		.4byte	0x128a
ARM GAS  /tmp/ccWQ6gKG.s 			page 95


 5316 127a 22       		.uleb128 0x22
 5317 127b 4F460000 		.4byte	0x464f
 5318 127f 13       		.uleb128 0x13
 5319 1280 23110000 		.4byte	0x1123
 5320 1284 13       		.uleb128 0x13
 5321 1285 D6450000 		.4byte	0x45d6
 5322 1289 00       		.byte	0
 5323 128a 36       		.uleb128 0x36
 5324 128b A60F0000 		.4byte	.LASF236
 5325 128f 21       		.byte	0x21
 5326 1290 B301     		.2byte	0x1b3
 5327 1292 16340000 		.4byte	.LASF237
 5328 1296 A9120000 		.4byte	0x12a9
 5329 129a 01       		.byte	0x1
 5330 129b A3120000 		.4byte	0x12a3
 5331 129f A9120000 		.4byte	0x12a9
 5332 12a3 22       		.uleb128 0x22
 5333 12a4 55460000 		.4byte	0x4655
 5334 12a8 00       		.byte	0
 5335 12a9 14       		.uleb128 0x14
 5336 12aa 980F0000 		.4byte	0xf98
 5337 12ae 36       		.uleb128 0x36
 5338 12af 712C0000 		.4byte	.LASF238
 5339 12b3 21       		.byte	0x21
 5340 12b4 B701     		.2byte	0x1b7
 5341 12b6 1D2C0000 		.4byte	.LASF239
 5342 12ba A9120000 		.4byte	0x12a9
 5343 12be 01       		.byte	0x1
 5344 12bf C7120000 		.4byte	0x12c7
 5345 12c3 CD120000 		.4byte	0x12cd
 5346 12c7 22       		.uleb128 0x22
 5347 12c8 55460000 		.4byte	0x4655
 5348 12cc 00       		.byte	0
 5349 12cd 37       		.uleb128 0x37
 5350 12ce CC590000 		.4byte	.LASF240
 5351 12d2 21       		.byte	0x21
 5352 12d3 BB01     		.2byte	0x1bb
 5353 12d5 38260000 		.4byte	.LASF241
 5354 12d9 01       		.byte	0x1
 5355 12da E2120000 		.4byte	0x12e2
 5356 12de ED120000 		.4byte	0x12ed
 5357 12e2 22       		.uleb128 0x22
 5358 12e3 55460000 		.4byte	0x4655
 5359 12e7 13       		.uleb128 0x13
 5360 12e8 67460000 		.4byte	0x4667
 5361 12ec 00       		.byte	0
 5362 12ed 36       		.uleb128 0x36
 5363 12ee A60F0000 		.4byte	.LASF236
 5364 12f2 21       		.byte	0x21
 5365 12f3 BF01     		.2byte	0x1bf
 5366 12f5 6F370000 		.4byte	.LASF242
 5367 12f9 0C130000 		.4byte	0x130c
 5368 12fd 01       		.byte	0x1
 5369 12fe 06130000 		.4byte	0x1306
 5370 1302 0C130000 		.4byte	0x130c
 5371 1306 22       		.uleb128 0x22
 5372 1307 4F460000 		.4byte	0x464f
ARM GAS  /tmp/ccWQ6gKG.s 			page 96


 5373 130b 00       		.byte	0
 5374 130c 14       		.uleb128 0x14
 5375 130d 9D0F0000 		.4byte	0xf9d
 5376 1311 36       		.uleb128 0x36
 5377 1312 712C0000 		.4byte	.LASF238
 5378 1316 21       		.byte	0x21
 5379 1317 C301     		.2byte	0x1c3
 5380 1319 7C2A0000 		.4byte	.LASF243
 5381 131d 0C130000 		.4byte	0x130c
 5382 1321 01       		.byte	0x1
 5383 1322 2A130000 		.4byte	0x132a
 5384 1326 30130000 		.4byte	0x1330
 5385 132a 22       		.uleb128 0x22
 5386 132b 4F460000 		.4byte	0x464f
 5387 132f 00       		.byte	0
 5388 1330 37       		.uleb128 0x37
 5389 1331 CC590000 		.4byte	.LASF240
 5390 1335 21       		.byte	0x21
 5391 1336 C701     		.2byte	0x1c7
 5392 1338 D61B0000 		.4byte	.LASF244
 5393 133c 01       		.byte	0x1
 5394 133d 45130000 		.4byte	0x1345
 5395 1341 50130000 		.4byte	0x1350
 5396 1345 22       		.uleb128 0x22
 5397 1346 4F460000 		.4byte	0x464f
 5398 134a 13       		.uleb128 0x13
 5399 134b 6D460000 		.4byte	0x466d
 5400 134f 00       		.byte	0
 5401 1350 36       		.uleb128 0x36
 5402 1351 8F500000 		.4byte	.LASF245
 5403 1355 21       		.byte	0x21
 5404 1356 5302     		.2byte	0x253
 5405 1358 DE550000 		.4byte	.LASF246
 5406 135c 49460000 		.4byte	0x4649
 5407 1360 01       		.byte	0x1
 5408 1361 69130000 		.4byte	0x1369
 5409 1365 6F130000 		.4byte	0x136f
 5410 1369 22       		.uleb128 0x22
 5411 136a 4F460000 		.4byte	0x464f
 5412 136e 00       		.byte	0
 5413 136f 36       		.uleb128 0x36
 5414 1370 D2470000 		.4byte	.LASF247
 5415 1374 21       		.byte	0x21
 5416 1375 5D02     		.2byte	0x25d
 5417 1377 D3180000 		.4byte	.LASF248
 5418 137b FA000000 		.4byte	0xfa
 5419 137f 01       		.byte	0x1
 5420 1380 88130000 		.4byte	0x1388
 5421 1384 8E130000 		.4byte	0x138e
 5422 1388 22       		.uleb128 0x22
 5423 1389 4F460000 		.4byte	0x464f
 5424 138d 00       		.byte	0
 5425 138e 36       		.uleb128 0x36
 5426 138f 18300000 		.4byte	.LASF249
 5427 1393 21       		.byte	0x21
 5428 1394 6702     		.2byte	0x267
 5429 1396 D0000000 		.4byte	.LASF250
ARM GAS  /tmp/ccWQ6gKG.s 			page 97


 5430 139a 2C000000 		.4byte	0x2c
 5431 139e 01       		.byte	0x1
 5432 139f A7130000 		.4byte	0x13a7
 5433 13a3 AD130000 		.4byte	0x13ad
 5434 13a7 22       		.uleb128 0x22
 5435 13a8 4F460000 		.4byte	0x464f
 5436 13ac 00       		.byte	0
 5437 13ad 37       		.uleb128 0x37
 5438 13ae B01C0000 		.4byte	.LASF251
 5439 13b2 21       		.byte	0x21
 5440 13b3 7602     		.2byte	0x276
 5441 13b5 612D0000 		.4byte	.LASF252
 5442 13b9 01       		.byte	0x1
 5443 13ba C2130000 		.4byte	0x13c2
 5444 13be CD130000 		.4byte	0x13cd
 5445 13c2 22       		.uleb128 0x22
 5446 13c3 55460000 		.4byte	0x4655
 5447 13c7 13       		.uleb128 0x13
 5448 13c8 5B460000 		.4byte	0x465b
 5449 13cc 00       		.byte	0
 5450 13cd 36       		.uleb128 0x36
 5451 13ce 18120000 		.4byte	.LASF253
 5452 13d2 21       		.byte	0x21
 5453 13d3 8002     		.2byte	0x280
 5454 13d5 DB360000 		.4byte	.LASF254
 5455 13d9 FA000000 		.4byte	0xfa
 5456 13dd 01       		.byte	0x1
 5457 13de E6130000 		.4byte	0x13e6
 5458 13e2 F1130000 		.4byte	0x13f1
 5459 13e6 22       		.uleb128 0x22
 5460 13e7 55460000 		.4byte	0x4655
 5461 13eb 13       		.uleb128 0x13
 5462 13ec 5B460000 		.4byte	0x465b
 5463 13f0 00       		.byte	0
 5464 13f1 36       		.uleb128 0x36
 5465 13f2 51340000 		.4byte	.LASF255
 5466 13f6 21       		.byte	0x21
 5467 13f7 8A02     		.2byte	0x28a
 5468 13f9 621F0000 		.4byte	.LASF256
 5469 13fd 25000000 		.4byte	0x25
 5470 1401 01       		.byte	0x1
 5471 1402 0A140000 		.4byte	0x140a
 5472 1406 15140000 		.4byte	0x1415
 5473 140a 22       		.uleb128 0x22
 5474 140b 4F460000 		.4byte	0x464f
 5475 140f 13       		.uleb128 0x13
 5476 1410 29460000 		.4byte	0x4629
 5477 1414 00       		.byte	0
 5478 1415 36       		.uleb128 0x36
 5479 1416 AB220000 		.4byte	.LASF257
 5480 141a 21       		.byte	0x21
 5481 141b 9B02     		.2byte	0x29b
 5482 141d 0C380000 		.4byte	.LASF258
 5483 1421 FA000000 		.4byte	0xfa
 5484 1425 01       		.byte	0x1
 5485 1426 2E140000 		.4byte	0x142e
 5486 142a 39140000 		.4byte	0x1439
ARM GAS  /tmp/ccWQ6gKG.s 			page 98


 5487 142e 22       		.uleb128 0x22
 5488 142f 4F460000 		.4byte	0x464f
 5489 1433 13       		.uleb128 0x13
 5490 1434 29460000 		.4byte	0x4629
 5491 1438 00       		.byte	0
 5492 1439 36       		.uleb128 0x36
 5493 143a 2E370000 		.4byte	.LASF259
 5494 143e 21       		.byte	0x21
 5495 143f AC02     		.2byte	0x2ac
 5496 1441 B44A0000 		.4byte	.LASF260
 5497 1445 61460000 		.4byte	0x4661
 5498 1449 01       		.byte	0x1
 5499 144a 52140000 		.4byte	0x1452
 5500 144e 5D140000 		.4byte	0x145d
 5501 1452 22       		.uleb128 0x22
 5502 1453 4F460000 		.4byte	0x464f
 5503 1457 13       		.uleb128 0x13
 5504 1458 17110000 		.4byte	0x1117
 5505 145c 00       		.byte	0
 5506 145d 36       		.uleb128 0x36
 5507 145e 2E370000 		.4byte	.LASF259
 5508 1462 21       		.byte	0x21
 5509 1463 BC02     		.2byte	0x2bc
 5510 1465 FF140000 		.4byte	.LASF261
 5511 1469 61460000 		.4byte	0x4661
 5512 146d 01       		.byte	0x1
 5513 146e 76140000 		.4byte	0x1476
 5514 1472 86140000 		.4byte	0x1486
 5515 1476 22       		.uleb128 0x22
 5516 1477 4F460000 		.4byte	0x464f
 5517 147b 13       		.uleb128 0x13
 5518 147c 23110000 		.4byte	0x1123
 5519 1480 13       		.uleb128 0x13
 5520 1481 D6450000 		.4byte	0x45d6
 5521 1485 00       		.byte	0
 5522 1486 36       		.uleb128 0x36
 5523 1487 95580000 		.4byte	.LASF262
 5524 148b 21       		.byte	0x21
 5525 148c E001     		.2byte	0x1e0
 5526 148e 12270000 		.4byte	.LASF263
 5527 1492 A5140000 		.4byte	0x14a5
 5528 1496 01       		.byte	0x1
 5529 1497 9F140000 		.4byte	0x149f
 5530 149b A5140000 		.4byte	0x14a5
 5531 149f 22       		.uleb128 0x22
 5532 14a0 55460000 		.4byte	0x4655
 5533 14a4 00       		.byte	0
 5534 14a5 14       		.uleb128 0x14
 5535 14a6 A20F0000 		.4byte	0xfa2
 5536 14aa 38       		.uleb128 0x38
 5537 14ab 656E6400 		.ascii	"end\000"
 5538 14af 21       		.byte	0x21
 5539 14b0 E401     		.2byte	0x1e4
 5540 14b2 ED230000 		.4byte	.LASF267
 5541 14b6 A5140000 		.4byte	0x14a5
 5542 14ba 01       		.byte	0x1
 5543 14bb C3140000 		.4byte	0x14c3
ARM GAS  /tmp/ccWQ6gKG.s 			page 99


 5544 14bf C9140000 		.4byte	0x14c9
 5545 14c3 22       		.uleb128 0x22
 5546 14c4 55460000 		.4byte	0x4655
 5547 14c8 00       		.byte	0
 5548 14c9 37       		.uleb128 0x37
 5549 14ca 2E110000 		.4byte	.LASF264
 5550 14ce 21       		.byte	0x21
 5551 14cf E801     		.2byte	0x1e8
 5552 14d1 7C2C0000 		.4byte	.LASF265
 5553 14d5 01       		.byte	0x1
 5554 14d6 DE140000 		.4byte	0x14de
 5555 14da E9140000 		.4byte	0x14e9
 5556 14de 22       		.uleb128 0x22
 5557 14df 55460000 		.4byte	0x4655
 5558 14e3 13       		.uleb128 0x13
 5559 14e4 73460000 		.4byte	0x4673
 5560 14e8 00       		.byte	0
 5561 14e9 36       		.uleb128 0x36
 5562 14ea 95580000 		.4byte	.LASF262
 5563 14ee 21       		.byte	0x21
 5564 14ef EC01     		.2byte	0x1ec
 5565 14f1 58160000 		.4byte	.LASF266
 5566 14f5 08150000 		.4byte	0x1508
 5567 14f9 01       		.byte	0x1
 5568 14fa 02150000 		.4byte	0x1502
 5569 14fe 08150000 		.4byte	0x1508
 5570 1502 22       		.uleb128 0x22
 5571 1503 4F460000 		.4byte	0x464f
 5572 1507 00       		.byte	0
 5573 1508 14       		.uleb128 0x14
 5574 1509 A70F0000 		.4byte	0xfa7
 5575 150d 38       		.uleb128 0x38
 5576 150e 656E6400 		.ascii	"end\000"
 5577 1512 21       		.byte	0x21
 5578 1513 F201     		.2byte	0x1f2
 5579 1515 59580000 		.4byte	.LASF268
 5580 1519 08150000 		.4byte	0x1508
 5581 151d 01       		.byte	0x1
 5582 151e 26150000 		.4byte	0x1526
 5583 1522 2C150000 		.4byte	0x152c
 5584 1526 22       		.uleb128 0x22
 5585 1527 4F460000 		.4byte	0x464f
 5586 152b 00       		.byte	0
 5587 152c 37       		.uleb128 0x37
 5588 152d 2E110000 		.4byte	.LASF264
 5589 1531 21       		.byte	0x21
 5590 1532 F601     		.2byte	0x1f6
 5591 1534 14290000 		.4byte	.LASF269
 5592 1538 01       		.byte	0x1
 5593 1539 41150000 		.4byte	0x1541
 5594 153d 4C150000 		.4byte	0x154c
 5595 1541 22       		.uleb128 0x22
 5596 1542 4F460000 		.4byte	0x464f
 5597 1546 13       		.uleb128 0x13
 5598 1547 79460000 		.4byte	0x4679
 5599 154b 00       		.byte	0
 5600 154c 39       		.uleb128 0x39
ARM GAS  /tmp/ccWQ6gKG.s 			page 100


 5601 154d E70F0000 		.4byte	.LASF270
 5602 1551 21       		.byte	0x21
 5603 1552 FA01     		.2byte	0x1fa
 5604 1554 55460000 		.4byte	0x4655
 5605 1558 01       		.byte	0x1
 5606 1559 61150000 		.4byte	0x1561
 5607 155d 67150000 		.4byte	0x1567
 5608 1561 22       		.uleb128 0x22
 5609 1562 55460000 		.4byte	0x4655
 5610 1566 00       		.byte	0
 5611 1567 14       		.uleb128 0x14
 5612 1568 930F0000 		.4byte	0xf93
 5613 156c 3A       		.uleb128 0x3a
 5614 156d EE190000 		.4byte	.LASF271
 5615 1571 7B150000 		.4byte	0x157b
 5616 1575 00       		.byte	0
 5617 1576 14       		.uleb128 0x14
 5618 1577 7B150000 		.4byte	0x157b
 5619 157b 3B       		.uleb128 0x3b
 5620 157c B4560000 		.4byte	.LASF771
 5621 1580 07160000 		.4byte	0x1607
 5622 1584 3C       		.uleb128 0x3c
 5623 1585 491C0000 		.4byte	.LASF272
 5624 1589 06       		.byte	0x6
 5625 158a 40       		.byte	0x40
 5626 158b AA1F0000 		.4byte	.LASF274
 5627 158f 2C000000 		.4byte	0x2c
 5628 1593 01       		.byte	0x1
 5629 1594 02       		.uleb128 0x2
 5630 1595 10       		.byte	0x10
 5631 1596 00       		.uleb128 0
 5632 1597 7B150000 		.4byte	0x157b
 5633 159b 01       		.byte	0x1
 5634 159c A4150000 		.4byte	0x15a4
 5635 15a0 AA150000 		.4byte	0x15aa
 5636 15a4 22       		.uleb128 0x22
 5637 15a5 69490000 		.4byte	0x4969
 5638 15a9 00       		.byte	0
 5639 15aa 3C       		.uleb128 0x3c
 5640 15ab E2310000 		.4byte	.LASF273
 5641 15af 06       		.byte	0x6
 5642 15b0 47       		.byte	0x47
 5643 15b1 03060000 		.4byte	.LASF275
 5644 15b5 FA000000 		.4byte	0xfa
 5645 15b9 01       		.byte	0x1
 5646 15ba 02       		.uleb128 0x2
 5647 15bb 10       		.byte	0x10
 5648 15bc 02       		.uleb128 0x2
 5649 15bd 7B150000 		.4byte	0x157b
 5650 15c1 01       		.byte	0x1
 5651 15c2 CA150000 		.4byte	0x15ca
 5652 15c6 DA150000 		.4byte	0x15da
 5653 15ca 22       		.uleb128 0x22
 5654 15cb 61460000 		.4byte	0x4661
 5655 15cf 13       		.uleb128 0x13
 5656 15d0 2F480000 		.4byte	0x482f
 5657 15d4 13       		.uleb128 0x13
ARM GAS  /tmp/ccWQ6gKG.s 			page 101


 5658 15d5 FC450000 		.4byte	0x45fc
 5659 15d9 00       		.byte	0
 5660 15da 3D       		.uleb128 0x3d
 5661 15db CA220000 		.4byte	.LASF617
 5662 15df 06       		.byte	0x6
 5663 15e0 52       		.byte	0x52
 5664 15e1 8A260000 		.4byte	.LASF772
 5665 15e5 FA000000 		.4byte	0xfa
 5666 15e9 01       		.byte	0x1
 5667 15ea 02       		.uleb128 0x2
 5668 15eb 10       		.byte	0x10
 5669 15ec 01       		.uleb128 0x1
 5670 15ed 7B150000 		.4byte	0x157b
 5671 15f1 01       		.byte	0x1
 5672 15f2 F6150000 		.4byte	0x15f6
 5673 15f6 22       		.uleb128 0x22
 5674 15f7 61460000 		.4byte	0x4661
 5675 15fb 13       		.uleb128 0x13
 5676 15fc 7D470000 		.4byte	0x477d
 5677 1600 13       		.uleb128 0x13
 5678 1601 08460000 		.4byte	0x4608
 5679 1605 00       		.byte	0
 5680 1606 00       		.byte	0
 5681 1607 14       		.uleb128 0x14
 5682 1608 340F0000 		.4byte	0xf34
 5683 160c 20       		.uleb128 0x20
 5684 160d 02490000 		.4byte	.LASF276
 5685 1611 04       		.byte	0x4
 5686 1612 21       		.byte	0x21
 5687 1613 0F       		.byte	0xf
 5688 1614 D91A0000 		.4byte	0x1ad9
 5689 1618 25       		.uleb128 0x25
 5690 1619 390A0000 		.4byte	0xa39
 5691 161d 00       		.byte	0
 5692 161e 2F       		.uleb128 0x2f
 5693 161f 21500000 		.4byte	.LASF194
 5694 1623 08       		.byte	0x8
 5695 1624 21       		.byte	0x21
 5696 1625 11       		.byte	0x11
 5697 1626 01       		.byte	0x1
 5698 1627 5E160000 		.4byte	0x165e
 5699 162b 08       		.uleb128 0x8
 5700 162c AA290000 		.4byte	.LASF192
 5701 1630 21       		.byte	0x21
 5702 1631 12       		.byte	0x12
 5703 1632 7F460000 		.4byte	0x467f
 5704 1636 00       		.byte	0
 5705 1637 08       		.uleb128 0x8
 5706 1638 74180000 		.4byte	.LASF193
 5707 163c 21       		.byte	0x21
 5708 163d 13       		.byte	0x13
 5709 163e 16490000 		.4byte	0x4916
 5710 1642 04       		.byte	0x4
 5711 1643 30       		.uleb128 0x30
 5712 1644 21500000 		.4byte	.LASF194
 5713 1648 21       		.byte	0x21
 5714 1649 15       		.byte	0x15
ARM GAS  /tmp/ccWQ6gKG.s 			page 102


 5715 164a 7F460000 		.4byte	0x467f
 5716 164e 52160000 		.4byte	0x1652
 5717 1652 22       		.uleb128 0x22
 5718 1653 7F460000 		.4byte	0x467f
 5719 1657 13       		.uleb128 0x13
 5720 1658 9B470000 		.4byte	0x479b
 5721 165c 00       		.byte	0
 5722 165d 00       		.byte	0
 5723 165e 19       		.uleb128 0x19
 5724 165f F6110000 		.4byte	.LASF195
 5725 1663 21       		.byte	0x21
 5726 1664 8A01     		.2byte	0x18a
 5727 1666 7F460000 		.4byte	0x467f
 5728 166a 00       		.byte	0
 5729 166b 32       		.uleb128 0x32
 5730 166c 411D0000 		.4byte	.LASF196
 5731 1670 32       		.uleb128 0x32
 5732 1671 1B2B0000 		.4byte	.LASF197
 5733 1675 32       		.uleb128 0x32
 5734 1676 ED490000 		.4byte	.LASF198
 5735 167a 32       		.uleb128 0x32
 5736 167b 5E380000 		.4byte	.LASF200
 5737 167f 1C       		.uleb128 0x1c
 5738 1680 7A180000 		.4byte	.LASF215
 5739 1684 21       		.byte	0x21
 5740 1685 8601     		.2byte	0x186
 5741 1687 85460000 		.4byte	0x4685
 5742 168b 1C       		.uleb128 0x1c
 5743 168c 56110000 		.4byte	.LASF216
 5744 1690 21       		.byte	0x21
 5745 1691 8701     		.2byte	0x187
 5746 1693 A0460000 		.4byte	0x46a0
 5747 1697 36       		.uleb128 0x36
 5748 1698 AB590000 		.4byte	.LASF217
 5749 169c 21       		.byte	0x21
 5750 169d 8D01     		.2byte	0x18d
 5751 169f CB580000 		.4byte	.LASF277
 5752 16a3 BA460000 		.4byte	0x46ba
 5753 16a7 01       		.byte	0x1
 5754 16a8 B0160000 		.4byte	0x16b0
 5755 16ac B6160000 		.4byte	0x16b6
 5756 16b0 22       		.uleb128 0x22
 5757 16b1 C0460000 		.4byte	0x46c0
 5758 16b5 00       		.byte	0
 5759 16b6 14       		.uleb128 0x14
 5760 16b7 1E160000 		.4byte	0x161e
 5761 16bb 36       		.uleb128 0x36
 5762 16bc 88540000 		.4byte	.LASF218
 5763 16c0 21       		.byte	0x21
 5764 16c1 9101     		.2byte	0x191
 5765 16c3 56360000 		.4byte	.LASF278
 5766 16c7 FA000000 		.4byte	0xfa
 5767 16cb 01       		.byte	0x1
 5768 16cc D4160000 		.4byte	0x16d4
 5769 16d0 DA160000 		.4byte	0x16da
 5770 16d4 22       		.uleb128 0x22
 5771 16d5 C0460000 		.4byte	0x46c0
ARM GAS  /tmp/ccWQ6gKG.s 			page 103


 5772 16d9 00       		.byte	0
 5773 16da 36       		.uleb128 0x36
 5774 16db A31C0000 		.4byte	.LASF221
 5775 16df 21       		.byte	0x21
 5776 16e0 0302     		.2byte	0x203
 5777 16e2 0A190000 		.4byte	.LASF279
 5778 16e6 2C000000 		.4byte	0x2c
 5779 16ea 01       		.byte	0x1
 5780 16eb F3160000 		.4byte	0x16f3
 5781 16ef F9160000 		.4byte	0x16f9
 5782 16f3 22       		.uleb128 0x22
 5783 16f4 C0460000 		.4byte	0x46c0
 5784 16f8 00       		.byte	0
 5785 16f9 37       		.uleb128 0x37
 5786 16fa C1410000 		.4byte	.LASF223
 5787 16fe 21       		.byte	0x21
 5788 16ff 9701     		.2byte	0x197
 5789 1701 37510000 		.4byte	.LASF280
 5790 1705 01       		.byte	0x1
 5791 1706 0E170000 		.4byte	0x170e
 5792 170a 19170000 		.4byte	0x1719
 5793 170e 22       		.uleb128 0x22
 5794 170f C6460000 		.4byte	0x46c6
 5795 1713 13       		.uleb128 0x13
 5796 1714 CC460000 		.4byte	0x46cc
 5797 1718 00       		.byte	0
 5798 1719 37       		.uleb128 0x37
 5799 171a 41490000 		.4byte	.LASF224
 5800 171e 21       		.byte	0x21
 5801 171f 9F01     		.2byte	0x19f
 5802 1721 88080000 		.4byte	.LASF281
 5803 1725 01       		.byte	0x1
 5804 1726 2E170000 		.4byte	0x172e
 5805 172a 39170000 		.4byte	0x1739
 5806 172e 22       		.uleb128 0x22
 5807 172f C6460000 		.4byte	0x46c6
 5808 1733 13       		.uleb128 0x13
 5809 1734 CC460000 		.4byte	0x46cc
 5810 1738 00       		.byte	0
 5811 1739 36       		.uleb128 0x36
 5812 173a 7E250000 		.4byte	.LASF227
 5813 173e 21       		.byte	0x21
 5814 173f 0E02     		.2byte	0x20e
 5815 1741 58280000 		.4byte	.LASF282
 5816 1745 FA000000 		.4byte	0xfa
 5817 1749 01       		.byte	0x1
 5818 174a 52170000 		.4byte	0x1752
 5819 174e 5D170000 		.4byte	0x175d
 5820 1752 22       		.uleb128 0x22
 5821 1753 C6460000 		.4byte	0x46c6
 5822 1757 13       		.uleb128 0x13
 5823 1758 CC460000 		.4byte	0x46cc
 5824 175c 00       		.byte	0
 5825 175d 36       		.uleb128 0x36
 5826 175e 92320000 		.4byte	.LASF229
 5827 1762 21       		.byte	0x21
 5828 1763 1F02     		.2byte	0x21f
ARM GAS  /tmp/ccWQ6gKG.s 			page 104


 5829 1765 68310000 		.4byte	.LASF283
 5830 1769 25000000 		.4byte	0x25
 5831 176d 01       		.byte	0x1
 5832 176e 76170000 		.4byte	0x1776
 5833 1772 81170000 		.4byte	0x1781
 5834 1776 22       		.uleb128 0x22
 5835 1777 C0460000 		.4byte	0x46c0
 5836 177b 13       		.uleb128 0x13
 5837 177c 9A460000 		.4byte	0x469a
 5838 1780 00       		.byte	0
 5839 1781 36       		.uleb128 0x36
 5840 1782 9D460000 		.4byte	.LASF231
 5841 1786 21       		.byte	0x21
 5842 1787 2C02     		.2byte	0x22c
 5843 1789 6F340000 		.4byte	.LASF284
 5844 178d FA000000 		.4byte	0xfa
 5845 1791 01       		.byte	0x1
 5846 1792 9A170000 		.4byte	0x179a
 5847 1796 A5170000 		.4byte	0x17a5
 5848 179a 22       		.uleb128 0x22
 5849 179b C0460000 		.4byte	0x46c0
 5850 179f 13       		.uleb128 0x13
 5851 17a0 9A460000 		.4byte	0x469a
 5852 17a4 00       		.byte	0
 5853 17a5 36       		.uleb128 0x36
 5854 17a6 AE2F0000 		.4byte	.LASF233
 5855 17aa 21       		.byte	0x21
 5856 17ab 3802     		.2byte	0x238
 5857 17ad 99060000 		.4byte	.LASF285
 5858 17b1 D2460000 		.4byte	0x46d2
 5859 17b5 01       		.byte	0x1
 5860 17b6 BE170000 		.4byte	0x17be
 5861 17ba C9170000 		.4byte	0x17c9
 5862 17be 22       		.uleb128 0x22
 5863 17bf C0460000 		.4byte	0x46c0
 5864 17c3 13       		.uleb128 0x13
 5865 17c4 7F160000 		.4byte	0x167f
 5866 17c8 00       		.byte	0
 5867 17c9 36       		.uleb128 0x36
 5868 17ca AE2F0000 		.4byte	.LASF233
 5869 17ce 21       		.byte	0x21
 5870 17cf 4402     		.2byte	0x244
 5871 17d1 DC410000 		.4byte	.LASF286
 5872 17d5 D2460000 		.4byte	0x46d2
 5873 17d9 01       		.byte	0x1
 5874 17da E2170000 		.4byte	0x17e2
 5875 17de F2170000 		.4byte	0x17f2
 5876 17e2 22       		.uleb128 0x22
 5877 17e3 C0460000 		.4byte	0x46c0
 5878 17e7 13       		.uleb128 0x13
 5879 17e8 8B160000 		.4byte	0x168b
 5880 17ec 13       		.uleb128 0x13
 5881 17ed D6450000 		.4byte	0x45d6
 5882 17f1 00       		.byte	0
 5883 17f2 36       		.uleb128 0x36
 5884 17f3 A60F0000 		.4byte	.LASF236
 5885 17f7 21       		.byte	0x21
ARM GAS  /tmp/ccWQ6gKG.s 			page 105


 5886 17f8 B301     		.2byte	0x1b3
 5887 17fa EB4B0000 		.4byte	.LASF287
 5888 17fe 11180000 		.4byte	0x1811
 5889 1802 01       		.byte	0x1
 5890 1803 0B180000 		.4byte	0x180b
 5891 1807 11180000 		.4byte	0x1811
 5892 180b 22       		.uleb128 0x22
 5893 180c C6460000 		.4byte	0x46c6
 5894 1810 00       		.byte	0
 5895 1811 14       		.uleb128 0x14
 5896 1812 6B160000 		.4byte	0x166b
 5897 1816 36       		.uleb128 0x36
 5898 1817 712C0000 		.4byte	.LASF238
 5899 181b 21       		.byte	0x21
 5900 181c B701     		.2byte	0x1b7
 5901 181e DA070000 		.4byte	.LASF288
 5902 1822 11180000 		.4byte	0x1811
 5903 1826 01       		.byte	0x1
 5904 1827 2F180000 		.4byte	0x182f
 5905 182b 35180000 		.4byte	0x1835
 5906 182f 22       		.uleb128 0x22
 5907 1830 C6460000 		.4byte	0x46c6
 5908 1834 00       		.byte	0
 5909 1835 37       		.uleb128 0x37
 5910 1836 CC590000 		.4byte	.LASF240
 5911 183a 21       		.byte	0x21
 5912 183b BB01     		.2byte	0x1bb
 5913 183d D92D0000 		.4byte	.LASF289
 5914 1841 01       		.byte	0x1
 5915 1842 4A180000 		.4byte	0x184a
 5916 1846 55180000 		.4byte	0x1855
 5917 184a 22       		.uleb128 0x22
 5918 184b C6460000 		.4byte	0x46c6
 5919 184f 13       		.uleb128 0x13
 5920 1850 D8460000 		.4byte	0x46d8
 5921 1854 00       		.byte	0
 5922 1855 36       		.uleb128 0x36
 5923 1856 A60F0000 		.4byte	.LASF236
 5924 185a 21       		.byte	0x21
 5925 185b BF01     		.2byte	0x1bf
 5926 185d 4B080000 		.4byte	.LASF290
 5927 1861 74180000 		.4byte	0x1874
 5928 1865 01       		.byte	0x1
 5929 1866 6E180000 		.4byte	0x186e
 5930 186a 74180000 		.4byte	0x1874
 5931 186e 22       		.uleb128 0x22
 5932 186f C0460000 		.4byte	0x46c0
 5933 1873 00       		.byte	0
 5934 1874 14       		.uleb128 0x14
 5935 1875 70160000 		.4byte	0x1670
 5936 1879 36       		.uleb128 0x36
 5937 187a 712C0000 		.4byte	.LASF238
 5938 187e 21       		.byte	0x21
 5939 187f C301     		.2byte	0x1c3
 5940 1881 681C0000 		.4byte	.LASF291
 5941 1885 74180000 		.4byte	0x1874
 5942 1889 01       		.byte	0x1
ARM GAS  /tmp/ccWQ6gKG.s 			page 106


 5943 188a 92180000 		.4byte	0x1892
 5944 188e 98180000 		.4byte	0x1898
 5945 1892 22       		.uleb128 0x22
 5946 1893 C0460000 		.4byte	0x46c0
 5947 1897 00       		.byte	0
 5948 1898 37       		.uleb128 0x37
 5949 1899 CC590000 		.4byte	.LASF240
 5950 189d 21       		.byte	0x21
 5951 189e C701     		.2byte	0x1c7
 5952 18a0 AE420000 		.4byte	.LASF292
 5953 18a4 01       		.byte	0x1
 5954 18a5 AD180000 		.4byte	0x18ad
 5955 18a9 B8180000 		.4byte	0x18b8
 5956 18ad 22       		.uleb128 0x22
 5957 18ae C0460000 		.4byte	0x46c0
 5958 18b2 13       		.uleb128 0x13
 5959 18b3 DE460000 		.4byte	0x46de
 5960 18b7 00       		.byte	0
 5961 18b8 36       		.uleb128 0x36
 5962 18b9 8F500000 		.4byte	.LASF245
 5963 18bd 21       		.byte	0x21
 5964 18be 5302     		.2byte	0x253
 5965 18c0 84210000 		.4byte	.LASF293
 5966 18c4 BA460000 		.4byte	0x46ba
 5967 18c8 01       		.byte	0x1
 5968 18c9 D1180000 		.4byte	0x18d1
 5969 18cd D7180000 		.4byte	0x18d7
 5970 18d1 22       		.uleb128 0x22
 5971 18d2 C0460000 		.4byte	0x46c0
 5972 18d6 00       		.byte	0
 5973 18d7 36       		.uleb128 0x36
 5974 18d8 D2470000 		.4byte	.LASF247
 5975 18dc 21       		.byte	0x21
 5976 18dd 5D02     		.2byte	0x25d
 5977 18df BE400000 		.4byte	.LASF294
 5978 18e3 FA000000 		.4byte	0xfa
 5979 18e7 01       		.byte	0x1
 5980 18e8 F0180000 		.4byte	0x18f0
 5981 18ec F6180000 		.4byte	0x18f6
 5982 18f0 22       		.uleb128 0x22
 5983 18f1 C0460000 		.4byte	0x46c0
 5984 18f5 00       		.byte	0
 5985 18f6 36       		.uleb128 0x36
 5986 18f7 18300000 		.4byte	.LASF249
 5987 18fb 21       		.byte	0x21
 5988 18fc 6702     		.2byte	0x267
 5989 18fe 434B0000 		.4byte	.LASF295
 5990 1902 2C000000 		.4byte	0x2c
 5991 1906 01       		.byte	0x1
 5992 1907 0F190000 		.4byte	0x190f
 5993 190b 15190000 		.4byte	0x1915
 5994 190f 22       		.uleb128 0x22
 5995 1910 C0460000 		.4byte	0x46c0
 5996 1914 00       		.byte	0
 5997 1915 37       		.uleb128 0x37
 5998 1916 B01C0000 		.4byte	.LASF251
 5999 191a 21       		.byte	0x21
ARM GAS  /tmp/ccWQ6gKG.s 			page 107


 6000 191b 7602     		.2byte	0x276
 6001 191d 2E4F0000 		.4byte	.LASF296
 6002 1921 01       		.byte	0x1
 6003 1922 2A190000 		.4byte	0x192a
 6004 1926 35190000 		.4byte	0x1935
 6005 192a 22       		.uleb128 0x22
 6006 192b C6460000 		.4byte	0x46c6
 6007 192f 13       		.uleb128 0x13
 6008 1930 CC460000 		.4byte	0x46cc
 6009 1934 00       		.byte	0
 6010 1935 36       		.uleb128 0x36
 6011 1936 18120000 		.4byte	.LASF253
 6012 193a 21       		.byte	0x21
 6013 193b 8002     		.2byte	0x280
 6014 193d 3F250000 		.4byte	.LASF297
 6015 1941 FA000000 		.4byte	0xfa
 6016 1945 01       		.byte	0x1
 6017 1946 4E190000 		.4byte	0x194e
 6018 194a 59190000 		.4byte	0x1959
 6019 194e 22       		.uleb128 0x22
 6020 194f C6460000 		.4byte	0x46c6
 6021 1953 13       		.uleb128 0x13
 6022 1954 CC460000 		.4byte	0x46cc
 6023 1958 00       		.byte	0
 6024 1959 36       		.uleb128 0x36
 6025 195a 51340000 		.4byte	.LASF255
 6026 195e 21       		.byte	0x21
 6027 195f 8A02     		.2byte	0x28a
 6028 1961 784B0000 		.4byte	.LASF298
 6029 1965 25000000 		.4byte	0x25
 6030 1969 01       		.byte	0x1
 6031 196a 72190000 		.4byte	0x1972
 6032 196e 7D190000 		.4byte	0x197d
 6033 1972 22       		.uleb128 0x22
 6034 1973 C0460000 		.4byte	0x46c0
 6035 1977 13       		.uleb128 0x13
 6036 1978 9A460000 		.4byte	0x469a
 6037 197c 00       		.byte	0
 6038 197d 36       		.uleb128 0x36
 6039 197e AB220000 		.4byte	.LASF257
 6040 1982 21       		.byte	0x21
 6041 1983 9B02     		.2byte	0x29b
 6042 1985 05530000 		.4byte	.LASF299
 6043 1989 FA000000 		.4byte	0xfa
 6044 198d 01       		.byte	0x1
 6045 198e 96190000 		.4byte	0x1996
 6046 1992 A1190000 		.4byte	0x19a1
 6047 1996 22       		.uleb128 0x22
 6048 1997 C0460000 		.4byte	0x46c0
 6049 199b 13       		.uleb128 0x13
 6050 199c 9A460000 		.4byte	0x469a
 6051 19a0 00       		.byte	0
 6052 19a1 36       		.uleb128 0x36
 6053 19a2 2E370000 		.4byte	.LASF259
 6054 19a6 21       		.byte	0x21
 6055 19a7 AC02     		.2byte	0x2ac
 6056 19a9 DE4F0000 		.4byte	.LASF300
ARM GAS  /tmp/ccWQ6gKG.s 			page 108


 6057 19ad D2460000 		.4byte	0x46d2
 6058 19b1 01       		.byte	0x1
 6059 19b2 BA190000 		.4byte	0x19ba
 6060 19b6 C5190000 		.4byte	0x19c5
 6061 19ba 22       		.uleb128 0x22
 6062 19bb C0460000 		.4byte	0x46c0
 6063 19bf 13       		.uleb128 0x13
 6064 19c0 7F160000 		.4byte	0x167f
 6065 19c4 00       		.byte	0
 6066 19c5 36       		.uleb128 0x36
 6067 19c6 2E370000 		.4byte	.LASF259
 6068 19ca 21       		.byte	0x21
 6069 19cb BC02     		.2byte	0x2bc
 6070 19cd 37440000 		.4byte	.LASF301
 6071 19d1 D2460000 		.4byte	0x46d2
 6072 19d5 01       		.byte	0x1
 6073 19d6 DE190000 		.4byte	0x19de
 6074 19da EE190000 		.4byte	0x19ee
 6075 19de 22       		.uleb128 0x22
 6076 19df C0460000 		.4byte	0x46c0
 6077 19e3 13       		.uleb128 0x13
 6078 19e4 8B160000 		.4byte	0x168b
 6079 19e8 13       		.uleb128 0x13
 6080 19e9 D6450000 		.4byte	0x45d6
 6081 19ed 00       		.byte	0
 6082 19ee 36       		.uleb128 0x36
 6083 19ef 95580000 		.4byte	.LASF262
 6084 19f3 21       		.byte	0x21
 6085 19f4 E001     		.2byte	0x1e0
 6086 19f6 72130000 		.4byte	.LASF302
 6087 19fa 0D1A0000 		.4byte	0x1a0d
 6088 19fe 01       		.byte	0x1
 6089 19ff 071A0000 		.4byte	0x1a07
 6090 1a03 0D1A0000 		.4byte	0x1a0d
 6091 1a07 22       		.uleb128 0x22
 6092 1a08 C6460000 		.4byte	0x46c6
 6093 1a0c 00       		.byte	0
 6094 1a0d 14       		.uleb128 0x14
 6095 1a0e 75160000 		.4byte	0x1675
 6096 1a12 38       		.uleb128 0x38
 6097 1a13 656E6400 		.ascii	"end\000"
 6098 1a17 21       		.byte	0x21
 6099 1a18 E401     		.2byte	0x1e4
 6100 1a1a F8130000 		.4byte	.LASF303
 6101 1a1e 0D1A0000 		.4byte	0x1a0d
 6102 1a22 01       		.byte	0x1
 6103 1a23 2B1A0000 		.4byte	0x1a2b
 6104 1a27 311A0000 		.4byte	0x1a31
 6105 1a2b 22       		.uleb128 0x22
 6106 1a2c C6460000 		.4byte	0x46c6
 6107 1a30 00       		.byte	0
 6108 1a31 37       		.uleb128 0x37
 6109 1a32 2E110000 		.4byte	.LASF264
 6110 1a36 21       		.byte	0x21
 6111 1a37 E801     		.2byte	0x1e8
 6112 1a39 9A160000 		.4byte	.LASF304
 6113 1a3d 01       		.byte	0x1
ARM GAS  /tmp/ccWQ6gKG.s 			page 109


 6114 1a3e 461A0000 		.4byte	0x1a46
 6115 1a42 511A0000 		.4byte	0x1a51
 6116 1a46 22       		.uleb128 0x22
 6117 1a47 C6460000 		.4byte	0x46c6
 6118 1a4b 13       		.uleb128 0x13
 6119 1a4c E4460000 		.4byte	0x46e4
 6120 1a50 00       		.byte	0
 6121 1a51 36       		.uleb128 0x36
 6122 1a52 95580000 		.4byte	.LASF262
 6123 1a56 21       		.byte	0x21
 6124 1a57 EC01     		.2byte	0x1ec
 6125 1a59 EF390000 		.4byte	.LASF305
 6126 1a5d 701A0000 		.4byte	0x1a70
 6127 1a61 01       		.byte	0x1
 6128 1a62 6A1A0000 		.4byte	0x1a6a
 6129 1a66 701A0000 		.4byte	0x1a70
 6130 1a6a 22       		.uleb128 0x22
 6131 1a6b C0460000 		.4byte	0x46c0
 6132 1a6f 00       		.byte	0
 6133 1a70 14       		.uleb128 0x14
 6134 1a71 7A160000 		.4byte	0x167a
 6135 1a75 38       		.uleb128 0x38
 6136 1a76 656E6400 		.ascii	"end\000"
 6137 1a7a 21       		.byte	0x21
 6138 1a7b F201     		.2byte	0x1f2
 6139 1a7d 6D330000 		.4byte	.LASF306
 6140 1a81 701A0000 		.4byte	0x1a70
 6141 1a85 01       		.byte	0x1
 6142 1a86 8E1A0000 		.4byte	0x1a8e
 6143 1a8a 941A0000 		.4byte	0x1a94
 6144 1a8e 22       		.uleb128 0x22
 6145 1a8f C0460000 		.4byte	0x46c0
 6146 1a93 00       		.byte	0
 6147 1a94 37       		.uleb128 0x37
 6148 1a95 2E110000 		.4byte	.LASF264
 6149 1a99 21       		.byte	0x21
 6150 1a9a F601     		.2byte	0x1f6
 6151 1a9c FA2C0000 		.4byte	.LASF307
 6152 1aa0 01       		.byte	0x1
 6153 1aa1 A91A0000 		.4byte	0x1aa9
 6154 1aa5 B41A0000 		.4byte	0x1ab4
 6155 1aa9 22       		.uleb128 0x22
 6156 1aaa C0460000 		.4byte	0x46c0
 6157 1aae 13       		.uleb128 0x13
 6158 1aaf EA460000 		.4byte	0x46ea
 6159 1ab3 00       		.byte	0
 6160 1ab4 39       		.uleb128 0x39
 6161 1ab5 E70F0000 		.4byte	.LASF270
 6162 1ab9 21       		.byte	0x21
 6163 1aba FA01     		.2byte	0x1fa
 6164 1abc C6460000 		.4byte	0x46c6
 6165 1ac0 01       		.byte	0x1
 6166 1ac1 C91A0000 		.4byte	0x1ac9
 6167 1ac5 CF1A0000 		.4byte	0x1acf
 6168 1ac9 22       		.uleb128 0x22
 6169 1aca C6460000 		.4byte	0x46c6
 6170 1ace 00       		.byte	0
ARM GAS  /tmp/ccWQ6gKG.s 			page 110


 6171 1acf 3A       		.uleb128 0x3a
 6172 1ad0 EE190000 		.4byte	.LASF271
 6173 1ad4 DE1A0000 		.4byte	0x1ade
 6174 1ad8 00       		.byte	0
 6175 1ad9 14       		.uleb128 0x14
 6176 1ada DE1A0000 		.4byte	0x1ade
 6177 1ade 32       		.uleb128 0x32
 6178 1adf 30490000 		.4byte	.LASF308
 6179 1ae3 14       		.uleb128 0x14
 6180 1ae4 0C160000 		.4byte	0x160c
 6181 1ae8 20       		.uleb128 0x20
 6182 1ae9 9D4A0000 		.4byte	.LASF309
 6183 1aed 04       		.byte	0x4
 6184 1aee 21       		.byte	0x21
 6185 1aef 0F       		.byte	0xf
 6186 1af0 B51F0000 		.4byte	0x1fb5
 6187 1af4 25       		.uleb128 0x25
 6188 1af5 390A0000 		.4byte	0xa39
 6189 1af9 00       		.byte	0
 6190 1afa 2F       		.uleb128 0x2f
 6191 1afb 21500000 		.4byte	.LASF194
 6192 1aff 08       		.byte	0x8
 6193 1b00 21       		.byte	0x21
 6194 1b01 11       		.byte	0x11
 6195 1b02 01       		.byte	0x1
 6196 1b03 3A1B0000 		.4byte	0x1b3a
 6197 1b07 08       		.uleb128 0x8
 6198 1b08 AA290000 		.4byte	.LASF192
 6199 1b0c 21       		.byte	0x21
 6200 1b0d 12       		.byte	0x12
 6201 1b0e F0460000 		.4byte	0x46f0
 6202 1b12 00       		.byte	0
 6203 1b13 08       		.uleb128 0x8
 6204 1b14 74180000 		.4byte	.LASF193
 6205 1b18 21       		.byte	0x21
 6206 1b19 13       		.byte	0x13
 6207 1b1a 61470000 		.4byte	0x4761
 6208 1b1e 04       		.byte	0x4
 6209 1b1f 30       		.uleb128 0x30
 6210 1b20 21500000 		.4byte	.LASF194
 6211 1b24 21       		.byte	0x21
 6212 1b25 15       		.byte	0x15
 6213 1b26 F0460000 		.4byte	0x46f0
 6214 1b2a 2E1B0000 		.4byte	0x1b2e
 6215 1b2e 22       		.uleb128 0x22
 6216 1b2f F0460000 		.4byte	0x46f0
 6217 1b33 13       		.uleb128 0x13
 6218 1b34 66470000 		.4byte	0x4766
 6219 1b38 00       		.byte	0
 6220 1b39 00       		.byte	0
 6221 1b3a 19       		.uleb128 0x19
 6222 1b3b F6110000 		.4byte	.LASF195
 6223 1b3f 21       		.byte	0x21
 6224 1b40 8A01     		.2byte	0x18a
 6225 1b42 F0460000 		.4byte	0x46f0
 6226 1b46 00       		.byte	0
 6227 1b47 32       		.uleb128 0x32
ARM GAS  /tmp/ccWQ6gKG.s 			page 111


 6228 1b48 411D0000 		.4byte	.LASF196
 6229 1b4c 32       		.uleb128 0x32
 6230 1b4d 1B2B0000 		.4byte	.LASF197
 6231 1b51 32       		.uleb128 0x32
 6232 1b52 ED490000 		.4byte	.LASF198
 6233 1b56 32       		.uleb128 0x32
 6234 1b57 5E380000 		.4byte	.LASF200
 6235 1b5b 1C       		.uleb128 0x1c
 6236 1b5c 7A180000 		.4byte	.LASF215
 6237 1b60 21       		.byte	0x21
 6238 1b61 8601     		.2byte	0x186
 6239 1b63 F6460000 		.4byte	0x46f6
 6240 1b67 1C       		.uleb128 0x1c
 6241 1b68 56110000 		.4byte	.LASF216
 6242 1b6c 21       		.byte	0x21
 6243 1b6d 8701     		.2byte	0x187
 6244 1b6f 11470000 		.4byte	0x4711
 6245 1b73 36       		.uleb128 0x36
 6246 1b74 AB590000 		.4byte	.LASF217
 6247 1b78 21       		.byte	0x21
 6248 1b79 8D01     		.2byte	0x18d
 6249 1b7b 662F0000 		.4byte	.LASF310
 6250 1b7f 2B470000 		.4byte	0x472b
 6251 1b83 01       		.byte	0x1
 6252 1b84 8C1B0000 		.4byte	0x1b8c
 6253 1b88 921B0000 		.4byte	0x1b92
 6254 1b8c 22       		.uleb128 0x22
 6255 1b8d 31470000 		.4byte	0x4731
 6256 1b91 00       		.byte	0
 6257 1b92 14       		.uleb128 0x14
 6258 1b93 FA1A0000 		.4byte	0x1afa
 6259 1b97 36       		.uleb128 0x36
 6260 1b98 88540000 		.4byte	.LASF218
 6261 1b9c 21       		.byte	0x21
 6262 1b9d 9101     		.2byte	0x191
 6263 1b9f 482A0000 		.4byte	.LASF311
 6264 1ba3 FA000000 		.4byte	0xfa
 6265 1ba7 01       		.byte	0x1
 6266 1ba8 B01B0000 		.4byte	0x1bb0
 6267 1bac B61B0000 		.4byte	0x1bb6
 6268 1bb0 22       		.uleb128 0x22
 6269 1bb1 31470000 		.4byte	0x4731
 6270 1bb5 00       		.byte	0
 6271 1bb6 36       		.uleb128 0x36
 6272 1bb7 A31C0000 		.4byte	.LASF221
 6273 1bbb 21       		.byte	0x21
 6274 1bbc 0302     		.2byte	0x203
 6275 1bbe 9E100000 		.4byte	.LASF312
 6276 1bc2 2C000000 		.4byte	0x2c
 6277 1bc6 01       		.byte	0x1
 6278 1bc7 CF1B0000 		.4byte	0x1bcf
 6279 1bcb D51B0000 		.4byte	0x1bd5
 6280 1bcf 22       		.uleb128 0x22
 6281 1bd0 31470000 		.4byte	0x4731
 6282 1bd4 00       		.byte	0
 6283 1bd5 37       		.uleb128 0x37
 6284 1bd6 C1410000 		.4byte	.LASF223
ARM GAS  /tmp/ccWQ6gKG.s 			page 112


 6285 1bda 21       		.byte	0x21
 6286 1bdb 9701     		.2byte	0x197
 6287 1bdd 64460000 		.4byte	.LASF313
 6288 1be1 01       		.byte	0x1
 6289 1be2 EA1B0000 		.4byte	0x1bea
 6290 1be6 F51B0000 		.4byte	0x1bf5
 6291 1bea 22       		.uleb128 0x22
 6292 1beb 37470000 		.4byte	0x4737
 6293 1bef 13       		.uleb128 0x13
 6294 1bf0 3D470000 		.4byte	0x473d
 6295 1bf4 00       		.byte	0
 6296 1bf5 37       		.uleb128 0x37
 6297 1bf6 41490000 		.4byte	.LASF224
 6298 1bfa 21       		.byte	0x21
 6299 1bfb 9F01     		.2byte	0x19f
 6300 1bfd 11280000 		.4byte	.LASF314
 6301 1c01 01       		.byte	0x1
 6302 1c02 0A1C0000 		.4byte	0x1c0a
 6303 1c06 151C0000 		.4byte	0x1c15
 6304 1c0a 22       		.uleb128 0x22
 6305 1c0b 37470000 		.4byte	0x4737
 6306 1c0f 13       		.uleb128 0x13
 6307 1c10 3D470000 		.4byte	0x473d
 6308 1c14 00       		.byte	0
 6309 1c15 36       		.uleb128 0x36
 6310 1c16 7E250000 		.4byte	.LASF227
 6311 1c1a 21       		.byte	0x21
 6312 1c1b 0E02     		.2byte	0x20e
 6313 1c1d 6F1E0000 		.4byte	.LASF315
 6314 1c21 FA000000 		.4byte	0xfa
 6315 1c25 01       		.byte	0x1
 6316 1c26 2E1C0000 		.4byte	0x1c2e
 6317 1c2a 391C0000 		.4byte	0x1c39
 6318 1c2e 22       		.uleb128 0x22
 6319 1c2f 37470000 		.4byte	0x4737
 6320 1c33 13       		.uleb128 0x13
 6321 1c34 3D470000 		.4byte	0x473d
 6322 1c38 00       		.byte	0
 6323 1c39 36       		.uleb128 0x36
 6324 1c3a 92320000 		.4byte	.LASF229
 6325 1c3e 21       		.byte	0x21
 6326 1c3f 1F02     		.2byte	0x21f
 6327 1c41 6D490000 		.4byte	.LASF316
 6328 1c45 25000000 		.4byte	0x25
 6329 1c49 01       		.byte	0x1
 6330 1c4a 521C0000 		.4byte	0x1c52
 6331 1c4e 5D1C0000 		.4byte	0x1c5d
 6332 1c52 22       		.uleb128 0x22
 6333 1c53 31470000 		.4byte	0x4731
 6334 1c57 13       		.uleb128 0x13
 6335 1c58 0B470000 		.4byte	0x470b
 6336 1c5c 00       		.byte	0
 6337 1c5d 36       		.uleb128 0x36
 6338 1c5e 9D460000 		.4byte	.LASF231
 6339 1c62 21       		.byte	0x21
 6340 1c63 2C02     		.2byte	0x22c
 6341 1c65 2F4C0000 		.4byte	.LASF317
ARM GAS  /tmp/ccWQ6gKG.s 			page 113


 6342 1c69 FA000000 		.4byte	0xfa
 6343 1c6d 01       		.byte	0x1
 6344 1c6e 761C0000 		.4byte	0x1c76
 6345 1c72 811C0000 		.4byte	0x1c81
 6346 1c76 22       		.uleb128 0x22
 6347 1c77 31470000 		.4byte	0x4731
 6348 1c7b 13       		.uleb128 0x13
 6349 1c7c 0B470000 		.4byte	0x470b
 6350 1c80 00       		.byte	0
 6351 1c81 36       		.uleb128 0x36
 6352 1c82 AE2F0000 		.4byte	.LASF233
 6353 1c86 21       		.byte	0x21
 6354 1c87 3802     		.2byte	0x238
 6355 1c89 54320000 		.4byte	.LASF318
 6356 1c8d 43470000 		.4byte	0x4743
 6357 1c91 01       		.byte	0x1
 6358 1c92 9A1C0000 		.4byte	0x1c9a
 6359 1c96 A51C0000 		.4byte	0x1ca5
 6360 1c9a 22       		.uleb128 0x22
 6361 1c9b 31470000 		.4byte	0x4731
 6362 1c9f 13       		.uleb128 0x13
 6363 1ca0 5B1B0000 		.4byte	0x1b5b
 6364 1ca4 00       		.byte	0
 6365 1ca5 36       		.uleb128 0x36
 6366 1ca6 AE2F0000 		.4byte	.LASF233
 6367 1caa 21       		.byte	0x21
 6368 1cab 4402     		.2byte	0x244
 6369 1cad 45270000 		.4byte	.LASF319
 6370 1cb1 43470000 		.4byte	0x4743
 6371 1cb5 01       		.byte	0x1
 6372 1cb6 BE1C0000 		.4byte	0x1cbe
 6373 1cba CE1C0000 		.4byte	0x1cce
 6374 1cbe 22       		.uleb128 0x22
 6375 1cbf 31470000 		.4byte	0x4731
 6376 1cc3 13       		.uleb128 0x13
 6377 1cc4 671B0000 		.4byte	0x1b67
 6378 1cc8 13       		.uleb128 0x13
 6379 1cc9 D6450000 		.4byte	0x45d6
 6380 1ccd 00       		.byte	0
 6381 1cce 36       		.uleb128 0x36
 6382 1ccf A60F0000 		.4byte	.LASF236
 6383 1cd3 21       		.byte	0x21
 6384 1cd4 B301     		.2byte	0x1b3
 6385 1cd6 85040000 		.4byte	.LASF320
 6386 1cda ED1C0000 		.4byte	0x1ced
 6387 1cde 01       		.byte	0x1
 6388 1cdf E71C0000 		.4byte	0x1ce7
 6389 1ce3 ED1C0000 		.4byte	0x1ced
 6390 1ce7 22       		.uleb128 0x22
 6391 1ce8 37470000 		.4byte	0x4737
 6392 1cec 00       		.byte	0
 6393 1ced 14       		.uleb128 0x14
 6394 1cee 471B0000 		.4byte	0x1b47
 6395 1cf2 36       		.uleb128 0x36
 6396 1cf3 712C0000 		.4byte	.LASF238
 6397 1cf7 21       		.byte	0x21
 6398 1cf8 B701     		.2byte	0x1b7
ARM GAS  /tmp/ccWQ6gKG.s 			page 114


 6399 1cfa AD270000 		.4byte	.LASF321
 6400 1cfe ED1C0000 		.4byte	0x1ced
 6401 1d02 01       		.byte	0x1
 6402 1d03 0B1D0000 		.4byte	0x1d0b
 6403 1d07 111D0000 		.4byte	0x1d11
 6404 1d0b 22       		.uleb128 0x22
 6405 1d0c 37470000 		.4byte	0x4737
 6406 1d10 00       		.byte	0
 6407 1d11 37       		.uleb128 0x37
 6408 1d12 CC590000 		.4byte	.LASF240
 6409 1d16 21       		.byte	0x21
 6410 1d17 BB01     		.2byte	0x1bb
 6411 1d19 B7120000 		.4byte	.LASF322
 6412 1d1d 01       		.byte	0x1
 6413 1d1e 261D0000 		.4byte	0x1d26
 6414 1d22 311D0000 		.4byte	0x1d31
 6415 1d26 22       		.uleb128 0x22
 6416 1d27 37470000 		.4byte	0x4737
 6417 1d2b 13       		.uleb128 0x13
 6418 1d2c 49470000 		.4byte	0x4749
 6419 1d30 00       		.byte	0
 6420 1d31 36       		.uleb128 0x36
 6421 1d32 A60F0000 		.4byte	.LASF236
 6422 1d36 21       		.byte	0x21
 6423 1d37 BF01     		.2byte	0x1bf
 6424 1d39 74170000 		.4byte	.LASF323
 6425 1d3d 501D0000 		.4byte	0x1d50
 6426 1d41 01       		.byte	0x1
 6427 1d42 4A1D0000 		.4byte	0x1d4a
 6428 1d46 501D0000 		.4byte	0x1d50
 6429 1d4a 22       		.uleb128 0x22
 6430 1d4b 31470000 		.4byte	0x4731
 6431 1d4f 00       		.byte	0
 6432 1d50 14       		.uleb128 0x14
 6433 1d51 4C1B0000 		.4byte	0x1b4c
 6434 1d55 36       		.uleb128 0x36
 6435 1d56 712C0000 		.4byte	.LASF238
 6436 1d5a 21       		.byte	0x21
 6437 1d5b C301     		.2byte	0x1c3
 6438 1d5d C0460000 		.4byte	.LASF324
 6439 1d61 501D0000 		.4byte	0x1d50
 6440 1d65 01       		.byte	0x1
 6441 1d66 6E1D0000 		.4byte	0x1d6e
 6442 1d6a 741D0000 		.4byte	0x1d74
 6443 1d6e 22       		.uleb128 0x22
 6444 1d6f 31470000 		.4byte	0x4731
 6445 1d73 00       		.byte	0
 6446 1d74 37       		.uleb128 0x37
 6447 1d75 CC590000 		.4byte	.LASF240
 6448 1d79 21       		.byte	0x21
 6449 1d7a C701     		.2byte	0x1c7
 6450 1d7c EA500000 		.4byte	.LASF325
 6451 1d80 01       		.byte	0x1
 6452 1d81 891D0000 		.4byte	0x1d89
 6453 1d85 941D0000 		.4byte	0x1d94
 6454 1d89 22       		.uleb128 0x22
 6455 1d8a 31470000 		.4byte	0x4731
ARM GAS  /tmp/ccWQ6gKG.s 			page 115


 6456 1d8e 13       		.uleb128 0x13
 6457 1d8f 4F470000 		.4byte	0x474f
 6458 1d93 00       		.byte	0
 6459 1d94 36       		.uleb128 0x36
 6460 1d95 8F500000 		.4byte	.LASF245
 6461 1d99 21       		.byte	0x21
 6462 1d9a 5302     		.2byte	0x253
 6463 1d9c 543F0000 		.4byte	.LASF326
 6464 1da0 2B470000 		.4byte	0x472b
 6465 1da4 01       		.byte	0x1
 6466 1da5 AD1D0000 		.4byte	0x1dad
 6467 1da9 B31D0000 		.4byte	0x1db3
 6468 1dad 22       		.uleb128 0x22
 6469 1dae 31470000 		.4byte	0x4731
 6470 1db2 00       		.byte	0
 6471 1db3 36       		.uleb128 0x36
 6472 1db4 D2470000 		.4byte	.LASF247
 6473 1db8 21       		.byte	0x21
 6474 1db9 5D02     		.2byte	0x25d
 6475 1dbb 29040000 		.4byte	.LASF327
 6476 1dbf FA000000 		.4byte	0xfa
 6477 1dc3 01       		.byte	0x1
 6478 1dc4 CC1D0000 		.4byte	0x1dcc
 6479 1dc8 D21D0000 		.4byte	0x1dd2
 6480 1dcc 22       		.uleb128 0x22
 6481 1dcd 31470000 		.4byte	0x4731
 6482 1dd1 00       		.byte	0
 6483 1dd2 36       		.uleb128 0x36
 6484 1dd3 18300000 		.4byte	.LASF249
 6485 1dd7 21       		.byte	0x21
 6486 1dd8 6702     		.2byte	0x267
 6487 1dda A7000000 		.4byte	.LASF328
 6488 1dde 2C000000 		.4byte	0x2c
 6489 1de2 01       		.byte	0x1
 6490 1de3 EB1D0000 		.4byte	0x1deb
 6491 1de7 F11D0000 		.4byte	0x1df1
 6492 1deb 22       		.uleb128 0x22
 6493 1dec 31470000 		.4byte	0x4731
 6494 1df0 00       		.byte	0
 6495 1df1 37       		.uleb128 0x37
 6496 1df2 B01C0000 		.4byte	.LASF251
 6497 1df6 21       		.byte	0x21
 6498 1df7 7602     		.2byte	0x276
 6499 1df9 D51D0000 		.4byte	.LASF329
 6500 1dfd 01       		.byte	0x1
 6501 1dfe 061E0000 		.4byte	0x1e06
 6502 1e02 111E0000 		.4byte	0x1e11
 6503 1e06 22       		.uleb128 0x22
 6504 1e07 37470000 		.4byte	0x4737
 6505 1e0b 13       		.uleb128 0x13
 6506 1e0c 3D470000 		.4byte	0x473d
 6507 1e10 00       		.byte	0
 6508 1e11 36       		.uleb128 0x36
 6509 1e12 18120000 		.4byte	.LASF253
 6510 1e16 21       		.byte	0x21
 6511 1e17 8002     		.2byte	0x280
 6512 1e19 AE1A0000 		.4byte	.LASF330
ARM GAS  /tmp/ccWQ6gKG.s 			page 116


 6513 1e1d FA000000 		.4byte	0xfa
 6514 1e21 01       		.byte	0x1
 6515 1e22 2A1E0000 		.4byte	0x1e2a
 6516 1e26 351E0000 		.4byte	0x1e35
 6517 1e2a 22       		.uleb128 0x22
 6518 1e2b 37470000 		.4byte	0x4737
 6519 1e2f 13       		.uleb128 0x13
 6520 1e30 3D470000 		.4byte	0x473d
 6521 1e34 00       		.byte	0
 6522 1e35 36       		.uleb128 0x36
 6523 1e36 51340000 		.4byte	.LASF255
 6524 1e3a 21       		.byte	0x21
 6525 1e3b 8A02     		.2byte	0x28a
 6526 1e3d E3060000 		.4byte	.LASF331
 6527 1e41 25000000 		.4byte	0x25
 6528 1e45 01       		.byte	0x1
 6529 1e46 4E1E0000 		.4byte	0x1e4e
 6530 1e4a 591E0000 		.4byte	0x1e59
 6531 1e4e 22       		.uleb128 0x22
 6532 1e4f 31470000 		.4byte	0x4731
 6533 1e53 13       		.uleb128 0x13
 6534 1e54 0B470000 		.4byte	0x470b
 6535 1e58 00       		.byte	0
 6536 1e59 36       		.uleb128 0x36
 6537 1e5a AB220000 		.4byte	.LASF257
 6538 1e5e 21       		.byte	0x21
 6539 1e5f 9B02     		.2byte	0x29b
 6540 1e61 820E0000 		.4byte	.LASF332
 6541 1e65 FA000000 		.4byte	0xfa
 6542 1e69 01       		.byte	0x1
 6543 1e6a 721E0000 		.4byte	0x1e72
 6544 1e6e 7D1E0000 		.4byte	0x1e7d
 6545 1e72 22       		.uleb128 0x22
 6546 1e73 31470000 		.4byte	0x4731
 6547 1e77 13       		.uleb128 0x13
 6548 1e78 0B470000 		.4byte	0x470b
 6549 1e7c 00       		.byte	0
 6550 1e7d 36       		.uleb128 0x36
 6551 1e7e 2E370000 		.4byte	.LASF259
 6552 1e82 21       		.byte	0x21
 6553 1e83 AC02     		.2byte	0x2ac
 6554 1e85 DA290000 		.4byte	.LASF333
 6555 1e89 43470000 		.4byte	0x4743
 6556 1e8d 01       		.byte	0x1
 6557 1e8e 961E0000 		.4byte	0x1e96
 6558 1e92 A11E0000 		.4byte	0x1ea1
 6559 1e96 22       		.uleb128 0x22
 6560 1e97 31470000 		.4byte	0x4731
 6561 1e9b 13       		.uleb128 0x13
 6562 1e9c 5B1B0000 		.4byte	0x1b5b
 6563 1ea0 00       		.byte	0
 6564 1ea1 36       		.uleb128 0x36
 6565 1ea2 2E370000 		.4byte	.LASF259
 6566 1ea6 21       		.byte	0x21
 6567 1ea7 BC02     		.2byte	0x2bc
 6568 1ea9 41530000 		.4byte	.LASF334
 6569 1ead 43470000 		.4byte	0x4743
ARM GAS  /tmp/ccWQ6gKG.s 			page 117


 6570 1eb1 01       		.byte	0x1
 6571 1eb2 BA1E0000 		.4byte	0x1eba
 6572 1eb6 CA1E0000 		.4byte	0x1eca
 6573 1eba 22       		.uleb128 0x22
 6574 1ebb 31470000 		.4byte	0x4731
 6575 1ebf 13       		.uleb128 0x13
 6576 1ec0 671B0000 		.4byte	0x1b67
 6577 1ec4 13       		.uleb128 0x13
 6578 1ec5 D6450000 		.4byte	0x45d6
 6579 1ec9 00       		.byte	0
 6580 1eca 36       		.uleb128 0x36
 6581 1ecb 95580000 		.4byte	.LASF262
 6582 1ecf 21       		.byte	0x21
 6583 1ed0 E001     		.2byte	0x1e0
 6584 1ed2 08310000 		.4byte	.LASF335
 6585 1ed6 E91E0000 		.4byte	0x1ee9
 6586 1eda 01       		.byte	0x1
 6587 1edb E31E0000 		.4byte	0x1ee3
 6588 1edf E91E0000 		.4byte	0x1ee9
 6589 1ee3 22       		.uleb128 0x22
 6590 1ee4 37470000 		.4byte	0x4737
 6591 1ee8 00       		.byte	0
 6592 1ee9 14       		.uleb128 0x14
 6593 1eea 511B0000 		.4byte	0x1b51
 6594 1eee 38       		.uleb128 0x38
 6595 1eef 656E6400 		.ascii	"end\000"
 6596 1ef3 21       		.byte	0x21
 6597 1ef4 E401     		.2byte	0x1e4
 6598 1ef6 0A210000 		.4byte	.LASF336
 6599 1efa E91E0000 		.4byte	0x1ee9
 6600 1efe 01       		.byte	0x1
 6601 1eff 071F0000 		.4byte	0x1f07
 6602 1f03 0D1F0000 		.4byte	0x1f0d
 6603 1f07 22       		.uleb128 0x22
 6604 1f08 37470000 		.4byte	0x4737
 6605 1f0c 00       		.byte	0
 6606 1f0d 37       		.uleb128 0x37
 6607 1f0e 2E110000 		.4byte	.LASF264
 6608 1f12 21       		.byte	0x21
 6609 1f13 E801     		.2byte	0x1e8
 6610 1f15 F20C0000 		.4byte	.LASF337
 6611 1f19 01       		.byte	0x1
 6612 1f1a 221F0000 		.4byte	0x1f22
 6613 1f1e 2D1F0000 		.4byte	0x1f2d
 6614 1f22 22       		.uleb128 0x22
 6615 1f23 37470000 		.4byte	0x4737
 6616 1f27 13       		.uleb128 0x13
 6617 1f28 55470000 		.4byte	0x4755
 6618 1f2c 00       		.byte	0
 6619 1f2d 36       		.uleb128 0x36
 6620 1f2e 95580000 		.4byte	.LASF262
 6621 1f32 21       		.byte	0x21
 6622 1f33 EC01     		.2byte	0x1ec
 6623 1f35 0D160000 		.4byte	.LASF338
 6624 1f39 4C1F0000 		.4byte	0x1f4c
 6625 1f3d 01       		.byte	0x1
 6626 1f3e 461F0000 		.4byte	0x1f46
ARM GAS  /tmp/ccWQ6gKG.s 			page 118


 6627 1f42 4C1F0000 		.4byte	0x1f4c
 6628 1f46 22       		.uleb128 0x22
 6629 1f47 31470000 		.4byte	0x4731
 6630 1f4b 00       		.byte	0
 6631 1f4c 14       		.uleb128 0x14
 6632 1f4d 561B0000 		.4byte	0x1b56
 6633 1f51 38       		.uleb128 0x38
 6634 1f52 656E6400 		.ascii	"end\000"
 6635 1f56 21       		.byte	0x21
 6636 1f57 F201     		.2byte	0x1f2
 6637 1f59 68500000 		.4byte	.LASF339
 6638 1f5d 4C1F0000 		.4byte	0x1f4c
 6639 1f61 01       		.byte	0x1
 6640 1f62 6A1F0000 		.4byte	0x1f6a
 6641 1f66 701F0000 		.4byte	0x1f70
 6642 1f6a 22       		.uleb128 0x22
 6643 1f6b 31470000 		.4byte	0x4731
 6644 1f6f 00       		.byte	0
 6645 1f70 37       		.uleb128 0x37
 6646 1f71 2E110000 		.4byte	.LASF264
 6647 1f75 21       		.byte	0x21
 6648 1f76 F601     		.2byte	0x1f6
 6649 1f78 5E4A0000 		.4byte	.LASF340
 6650 1f7c 01       		.byte	0x1
 6651 1f7d 851F0000 		.4byte	0x1f85
 6652 1f81 901F0000 		.4byte	0x1f90
 6653 1f85 22       		.uleb128 0x22
 6654 1f86 31470000 		.4byte	0x4731
 6655 1f8a 13       		.uleb128 0x13
 6656 1f8b 5B470000 		.4byte	0x475b
 6657 1f8f 00       		.byte	0
 6658 1f90 39       		.uleb128 0x39
 6659 1f91 E70F0000 		.4byte	.LASF270
 6660 1f95 21       		.byte	0x21
 6661 1f96 FA01     		.2byte	0x1fa
 6662 1f98 37470000 		.4byte	0x4737
 6663 1f9c 01       		.byte	0x1
 6664 1f9d A51F0000 		.4byte	0x1fa5
 6665 1fa1 AB1F0000 		.4byte	0x1fab
 6666 1fa5 22       		.uleb128 0x22
 6667 1fa6 37470000 		.4byte	0x4737
 6668 1faa 00       		.byte	0
 6669 1fab 3A       		.uleb128 0x3a
 6670 1fac EE190000 		.4byte	.LASF271
 6671 1fb0 BA1F0000 		.4byte	0x1fba
 6672 1fb4 00       		.byte	0
 6673 1fb5 14       		.uleb128 0x14
 6674 1fb6 BA1F0000 		.4byte	0x1fba
 6675 1fba 20       		.uleb128 0x20
 6676 1fbb A2180000 		.4byte	.LASF341
 6677 1fbf 30       		.byte	0x30
 6678 1fc0 22       		.byte	0x22
 6679 1fc1 17       		.byte	0x17
 6680 1fc2 2A250000 		.4byte	0x252a
 6681 1fc6 25       		.uleb128 0x25
 6682 1fc7 390A0000 		.4byte	0xa39
 6683 1fcb 00       		.byte	0
ARM GAS  /tmp/ccWQ6gKG.s 			page 119


 6684 1fcc 08       		.uleb128 0x8
 6685 1fcd 2D4B0000 		.4byte	.LASF342
 6686 1fd1 22       		.byte	0x22
 6687 1fd2 1B       		.byte	0x1b
 6688 1fd3 6C470000 		.4byte	0x476c
 6689 1fd7 00       		.byte	0
 6690 1fd8 08       		.uleb128 0x8
 6691 1fd9 2F570000 		.4byte	.LASF343
 6692 1fdd 22       		.byte	0x22
 6693 1fde 1C       		.byte	0x1c
 6694 1fdf 5C0C0000 		.4byte	0xc5c
 6695 1fe3 04       		.byte	0x4
 6696 1fe4 08       		.uleb128 0x8
 6697 1fe5 DC210000 		.4byte	.LASF344
 6698 1fe9 22       		.byte	0x22
 6699 1fea 1D       		.byte	0x1d
 6700 1feb 9E0A0000 		.4byte	0xa9e
 6701 1fef 08       		.byte	0x8
 6702 1ff0 08       		.uleb128 0x8
 6703 1ff1 44520000 		.4byte	.LASF345
 6704 1ff5 22       		.byte	0x22
 6705 1ff6 1E       		.byte	0x1e
 6706 1ff7 2C000000 		.4byte	0x2c
 6707 1ffb 14       		.byte	0x14
 6708 1ffc 08       		.uleb128 0x8
 6709 1ffd 030F0000 		.4byte	.LASF346
 6710 2001 22       		.byte	0x22
 6711 2002 1F       		.byte	0x1f
 6712 2003 2C000000 		.4byte	0x2c
 6713 2007 18       		.byte	0x18
 6714 2008 08       		.uleb128 0x8
 6715 2009 33120000 		.4byte	.LASF347
 6716 200d 22       		.byte	0x22
 6717 200e 20       		.byte	0x20
 6718 200f 340F0000 		.4byte	0xf34
 6719 2013 1C       		.byte	0x1c
 6720 2014 08       		.uleb128 0x8
 6721 2015 E4010000 		.4byte	.LASF348
 6722 2019 22       		.byte	0x22
 6723 201a 21       		.byte	0x21
 6724 201b 0C160000 		.4byte	0x160c
 6725 201f 20       		.byte	0x20
 6726 2020 08       		.uleb128 0x8
 6727 2021 0B3D0000 		.4byte	.LASF349
 6728 2025 22       		.byte	0x22
 6729 2026 22       		.byte	0x22
 6730 2027 2C000000 		.4byte	0x2c
 6731 202b 24       		.byte	0x24
 6732 202c 08       		.uleb128 0x8
 6733 202d E64C0000 		.4byte	.LASF350
 6734 2031 22       		.byte	0x22
 6735 2032 27       		.byte	0x27
 6736 2033 FA1A0000 		.4byte	0x1afa
 6737 2037 28       		.byte	0x28
 6738 2038 27       		.uleb128 0x27
 6739 2039 85350000 		.4byte	.LASF351
 6740 203d 22       		.byte	0x22
ARM GAS  /tmp/ccWQ6gKG.s 			page 120


 6741 203e 2A       		.byte	0x2a
 6742 203f B3340000 		.4byte	.LASF352
 6743 2043 C5050000 		.4byte	0x5c5
 6744 2047 01       		.byte	0x1
 6745 2048 50200000 		.4byte	0x2050
 6746 204c 56200000 		.4byte	0x2056
 6747 2050 22       		.uleb128 0x22
 6748 2051 71470000 		.4byte	0x4771
 6749 2055 00       		.byte	0
 6750 2056 27       		.uleb128 0x27
 6751 2057 D6500000 		.4byte	.LASF353
 6752 205b 22       		.byte	0x22
 6753 205c 2B       		.byte	0x2b
 6754 205d 984E0000 		.4byte	.LASF354
 6755 2061 08460000 		.4byte	0x4608
 6756 2065 01       		.byte	0x1
 6757 2066 6E200000 		.4byte	0x206e
 6758 206a 74200000 		.4byte	0x2074
 6759 206e 22       		.uleb128 0x22
 6760 206f 71470000 		.4byte	0x4771
 6761 2073 00       		.byte	0
 6762 2074 27       		.uleb128 0x27
 6763 2075 43170000 		.4byte	.LASF355
 6764 2079 22       		.byte	0x22
 6765 207a 2C       		.byte	0x2c
 6766 207b F20F0000 		.4byte	.LASF356
 6767 207f 2C000000 		.4byte	0x2c
 6768 2083 01       		.byte	0x1
 6769 2084 8C200000 		.4byte	0x208c
 6770 2088 92200000 		.4byte	0x2092
 6771 208c 22       		.uleb128 0x22
 6772 208d 71470000 		.4byte	0x4771
 6773 2091 00       		.byte	0
 6774 2092 27       		.uleb128 0x27
 6775 2093 05550000 		.4byte	.LASF357
 6776 2097 22       		.byte	0x22
 6777 2098 2D       		.byte	0x2d
 6778 2099 23430000 		.4byte	.LASF358
 6779 209d 2C000000 		.4byte	0x2c
 6780 20a1 01       		.byte	0x1
 6781 20a2 AA200000 		.4byte	0x20aa
 6782 20a6 B0200000 		.4byte	0x20b0
 6783 20aa 22       		.uleb128 0x22
 6784 20ab 71470000 		.4byte	0x4771
 6785 20af 00       		.byte	0
 6786 20b0 27       		.uleb128 0x27
 6787 20b1 8D180000 		.4byte	.LASF359
 6788 20b5 22       		.byte	0x22
 6789 20b6 2E       		.byte	0x2e
 6790 20b7 A14D0000 		.4byte	.LASF360
 6791 20bb 2C000000 		.4byte	0x2c
 6792 20bf 01       		.byte	0x1
 6793 20c0 C8200000 		.4byte	0x20c8
 6794 20c4 CE200000 		.4byte	0x20ce
 6795 20c8 22       		.uleb128 0x22
 6796 20c9 71470000 		.4byte	0x4771
 6797 20cd 00       		.byte	0
ARM GAS  /tmp/ccWQ6gKG.s 			page 121


 6798 20ce 27       		.uleb128 0x27
 6799 20cf 63200000 		.4byte	.LASF361
 6800 20d3 22       		.byte	0x22
 6801 20d4 2F       		.byte	0x2f
 6802 20d5 3A000000 		.4byte	.LASF362
 6803 20d9 FA000000 		.4byte	0xfa
 6804 20dd 01       		.byte	0x1
 6805 20de E6200000 		.4byte	0x20e6
 6806 20e2 EC200000 		.4byte	0x20ec
 6807 20e6 22       		.uleb128 0x22
 6808 20e7 71470000 		.4byte	0x4771
 6809 20eb 00       		.byte	0
 6810 20ec 27       		.uleb128 0x27
 6811 20ed 4C2D0000 		.4byte	.LASF363
 6812 20f1 22       		.byte	0x22
 6813 20f2 31       		.byte	0x31
 6814 20f3 6B4F0000 		.4byte	.LASF364
 6815 20f7 FA000000 		.4byte	0xfa
 6816 20fb 01       		.byte	0x1
 6817 20fc 04210000 		.4byte	0x2104
 6818 2100 0A210000 		.4byte	0x210a
 6819 2104 22       		.uleb128 0x22
 6820 2105 71470000 		.4byte	0x4771
 6821 2109 00       		.byte	0
 6822 210a 27       		.uleb128 0x27
 6823 210b 89070000 		.4byte	.LASF365
 6824 210f 22       		.byte	0x22
 6825 2110 32       		.byte	0x32
 6826 2111 260E0000 		.4byte	.LASF366
 6827 2115 FA000000 		.4byte	0xfa
 6828 2119 01       		.byte	0x1
 6829 211a 22210000 		.4byte	0x2122
 6830 211e 28210000 		.4byte	0x2128
 6831 2122 22       		.uleb128 0x22
 6832 2123 71470000 		.4byte	0x4771
 6833 2127 00       		.byte	0
 6834 2128 27       		.uleb128 0x27
 6835 2129 30250000 		.4byte	.LASF367
 6836 212d 22       		.byte	0x22
 6837 212e 33       		.byte	0x33
 6838 212f EF3E0000 		.4byte	.LASF368
 6839 2133 FA000000 		.4byte	0xfa
 6840 2137 01       		.byte	0x1
 6841 2138 40210000 		.4byte	0x2140
 6842 213c 46210000 		.4byte	0x2146
 6843 2140 22       		.uleb128 0x22
 6844 2141 71470000 		.4byte	0x4771
 6845 2145 00       		.byte	0
 6846 2146 27       		.uleb128 0x27
 6847 2147 C1370000 		.4byte	.LASF369
 6848 214b 22       		.byte	0x22
 6849 214c 34       		.byte	0x34
 6850 214d AB350000 		.4byte	.LASF370
 6851 2151 FA000000 		.4byte	0xfa
 6852 2155 01       		.byte	0x1
 6853 2156 5E210000 		.4byte	0x215e
 6854 215a 64210000 		.4byte	0x2164
ARM GAS  /tmp/ccWQ6gKG.s 			page 122


 6855 215e 22       		.uleb128 0x22
 6856 215f 71470000 		.4byte	0x4771
 6857 2163 00       		.byte	0
 6858 2164 27       		.uleb128 0x27
 6859 2165 2C550000 		.4byte	.LASF371
 6860 2169 22       		.byte	0x22
 6861 216a 35       		.byte	0x35
 6862 216b DA0E0000 		.4byte	.LASF372
 6863 216f FA000000 		.4byte	0xfa
 6864 2173 01       		.byte	0x1
 6865 2174 7C210000 		.4byte	0x217c
 6866 2178 82210000 		.4byte	0x2182
 6867 217c 22       		.uleb128 0x22
 6868 217d 71470000 		.4byte	0x4771
 6869 2181 00       		.byte	0
 6870 2182 27       		.uleb128 0x27
 6871 2183 98500000 		.4byte	.LASF373
 6872 2187 22       		.byte	0x22
 6873 2188 36       		.byte	0x36
 6874 2189 C00F0000 		.4byte	.LASF374
 6875 218d FA000000 		.4byte	0xfa
 6876 2191 01       		.byte	0x1
 6877 2192 9A210000 		.4byte	0x219a
 6878 2196 A0210000 		.4byte	0x21a0
 6879 219a 22       		.uleb128 0x22
 6880 219b 71470000 		.4byte	0x4771
 6881 219f 00       		.byte	0
 6882 21a0 27       		.uleb128 0x27
 6883 21a1 66450000 		.4byte	.LASF375
 6884 21a5 22       		.byte	0x22
 6885 21a6 37       		.byte	0x37
 6886 21a7 014F0000 		.4byte	.LASF376
 6887 21ab FA000000 		.4byte	0xfa
 6888 21af 01       		.byte	0x1
 6889 21b0 B8210000 		.4byte	0x21b8
 6890 21b4 BE210000 		.4byte	0x21be
 6891 21b8 22       		.uleb128 0x22
 6892 21b9 71470000 		.4byte	0x4771
 6893 21bd 00       		.byte	0
 6894 21be 27       		.uleb128 0x27
 6895 21bf 032C0000 		.4byte	.LASF377
 6896 21c3 22       		.byte	0x22
 6897 21c4 38       		.byte	0x38
 6898 21c5 EF450000 		.4byte	.LASF378
 6899 21c9 FA000000 		.4byte	0xfa
 6900 21cd 01       		.byte	0x1
 6901 21ce D6210000 		.4byte	0x21d6
 6902 21d2 DC210000 		.4byte	0x21dc
 6903 21d6 22       		.uleb128 0x22
 6904 21d7 71470000 		.4byte	0x4771
 6905 21db 00       		.byte	0
 6906 21dc 27       		.uleb128 0x27
 6907 21dd 703D0000 		.4byte	.LASF379
 6908 21e1 22       		.byte	0x22
 6909 21e2 3A       		.byte	0x3a
 6910 21e3 8C250000 		.4byte	.LASF380
 6911 21e7 2F0F0000 		.4byte	0xf2f
ARM GAS  /tmp/ccWQ6gKG.s 			page 123


 6912 21eb 01       		.byte	0x1
 6913 21ec F4210000 		.4byte	0x21f4
 6914 21f0 FF210000 		.4byte	0x21ff
 6915 21f4 22       		.uleb128 0x22
 6916 21f5 71470000 		.4byte	0x4771
 6917 21f9 13       		.uleb128 0x13
 6918 21fa 08460000 		.4byte	0x4608
 6919 21fe 00       		.byte	0
 6920 21ff 27       		.uleb128 0x27
 6921 2200 703D0000 		.4byte	.LASF379
 6922 2204 22       		.byte	0x22
 6923 2205 3B       		.byte	0x3b
 6924 2206 EC340000 		.4byte	.LASF381
 6925 220a 2F0F0000 		.4byte	0xf2f
 6926 220e 01       		.byte	0x1
 6927 220f 17220000 		.4byte	0x2217
 6928 2213 1D220000 		.4byte	0x221d
 6929 2217 22       		.uleb128 0x22
 6930 2218 71470000 		.4byte	0x4771
 6931 221c 00       		.byte	0
 6932 221d 27       		.uleb128 0x27
 6933 221e FD320000 		.4byte	.LASF144
 6934 2222 22       		.byte	0x22
 6935 2223 3C       		.byte	0x3c
 6936 2224 EE280000 		.4byte	.LASF382
 6937 2228 77470000 		.4byte	0x4777
 6938 222c 01       		.byte	0x1
 6939 222d 35220000 		.4byte	0x2235
 6940 2231 3B220000 		.4byte	0x223b
 6941 2235 22       		.uleb128 0x22
 6942 2236 43470000 		.4byte	0x4743
 6943 223a 00       		.byte	0
 6944 223b 27       		.uleb128 0x27
 6945 223c 6B240000 		.4byte	.LASF383
 6946 2240 22       		.byte	0x22
 6947 2241 3E       		.byte	0x3e
 6948 2242 1C100000 		.4byte	.LASF384
 6949 2246 FA000000 		.4byte	0xfa
 6950 224a 01       		.byte	0x1
 6951 224b 53220000 		.4byte	0x2253
 6952 224f 5E220000 		.4byte	0x225e
 6953 2253 22       		.uleb128 0x22
 6954 2254 43470000 		.4byte	0x4743
 6955 2258 13       		.uleb128 0x13
 6956 2259 7D470000 		.4byte	0x477d
 6957 225d 00       		.byte	0
 6958 225e 28       		.uleb128 0x28
 6959 225f 86140000 		.4byte	.LASF146
 6960 2263 22       		.byte	0x22
 6961 2264 3F       		.byte	0x3f
 6962 2265 C6390000 		.4byte	.LASF385
 6963 2269 01       		.byte	0x1
 6964 226a 72220000 		.4byte	0x2272
 6965 226e 7D220000 		.4byte	0x227d
 6966 2272 22       		.uleb128 0x22
 6967 2273 43470000 		.4byte	0x4743
 6968 2277 13       		.uleb128 0x13
ARM GAS  /tmp/ccWQ6gKG.s 			page 124


 6969 2278 7D470000 		.4byte	0x477d
 6970 227c 00       		.byte	0
 6971 227d 27       		.uleb128 0x27
 6972 227e F6400000 		.4byte	.LASF386
 6973 2282 22       		.byte	0x22
 6974 2283 40       		.byte	0x40
 6975 2284 61300000 		.4byte	.LASF387
 6976 2288 FA000000 		.4byte	0xfa
 6977 228c 01       		.byte	0x1
 6978 228d 95220000 		.4byte	0x2295
 6979 2291 A5220000 		.4byte	0x22a5
 6980 2295 22       		.uleb128 0x22
 6981 2296 43470000 		.4byte	0x4743
 6982 229a 13       		.uleb128 0x13
 6983 229b 7D470000 		.4byte	0x477d
 6984 229f 13       		.uleb128 0x13
 6985 22a0 08460000 		.4byte	0x4608
 6986 22a4 00       		.byte	0
 6987 22a5 27       		.uleb128 0x27
 6988 22a6 16550000 		.4byte	.LASF388
 6989 22aa 22       		.byte	0x22
 6990 22ab 41       		.byte	0x41
 6991 22ac 103B0000 		.4byte	.LASF389
 6992 22b0 FA000000 		.4byte	0xfa
 6993 22b4 01       		.byte	0x1
 6994 22b5 BD220000 		.4byte	0x22bd
 6995 22b9 CD220000 		.4byte	0x22cd
 6996 22bd 22       		.uleb128 0x22
 6997 22be 43470000 		.4byte	0x4743
 6998 22c2 13       		.uleb128 0x13
 6999 22c3 7D470000 		.4byte	0x477d
 7000 22c7 13       		.uleb128 0x13
 7001 22c8 08460000 		.4byte	0x4608
 7002 22cc 00       		.byte	0
 7003 22cd 27       		.uleb128 0x27
 7004 22ce 7D0B0000 		.4byte	.LASF390
 7005 22d2 22       		.byte	0x22
 7006 22d3 42       		.byte	0x42
 7007 22d4 AE530000 		.4byte	.LASF391
 7008 22d8 FA000000 		.4byte	0xfa
 7009 22dc 01       		.byte	0x1
 7010 22dd E5220000 		.4byte	0x22e5
 7011 22e1 F5220000 		.4byte	0x22f5
 7012 22e5 22       		.uleb128 0x22
 7013 22e6 43470000 		.4byte	0x4743
 7014 22ea 13       		.uleb128 0x13
 7015 22eb 83470000 		.4byte	0x4783
 7016 22ef 13       		.uleb128 0x13
 7017 22f0 08460000 		.4byte	0x4608
 7018 22f4 00       		.byte	0
 7019 22f5 27       		.uleb128 0x27
 7020 22f6 B2240000 		.4byte	.LASF392
 7021 22fa 22       		.byte	0x22
 7022 22fb 45       		.byte	0x45
 7023 22fc A5470000 		.4byte	.LASF393
 7024 2300 2F0F0000 		.4byte	0xf2f
 7025 2304 01       		.byte	0x1
ARM GAS  /tmp/ccWQ6gKG.s 			page 125


 7026 2305 0D230000 		.4byte	0x230d
 7027 2309 18230000 		.4byte	0x2318
 7028 230d 22       		.uleb128 0x22
 7029 230e 71470000 		.4byte	0x4771
 7030 2312 13       		.uleb128 0x13
 7031 2313 08460000 		.4byte	0x4608
 7032 2317 00       		.byte	0
 7033 2318 27       		.uleb128 0x27
 7034 2319 B2240000 		.4byte	.LASF392
 7035 231d 22       		.byte	0x22
 7036 231e 46       		.byte	0x46
 7037 231f 1E240000 		.4byte	.LASF394
 7038 2323 2F0F0000 		.4byte	0xf2f
 7039 2327 01       		.byte	0x1
 7040 2328 30230000 		.4byte	0x2330
 7041 232c 36230000 		.4byte	0x2336
 7042 2330 22       		.uleb128 0x22
 7043 2331 71470000 		.4byte	0x4771
 7044 2335 00       		.byte	0
 7045 2336 27       		.uleb128 0x27
 7046 2337 D5360000 		.4byte	.LASF147
 7047 233b 22       		.byte	0x22
 7048 233c 47       		.byte	0x47
 7049 233d 4E100000 		.4byte	.LASF395
 7050 2341 77470000 		.4byte	0x4777
 7051 2345 01       		.byte	0x1
 7052 2346 4E230000 		.4byte	0x234e
 7053 234a 54230000 		.4byte	0x2354
 7054 234e 22       		.uleb128 0x22
 7055 234f 43470000 		.4byte	0x4743
 7056 2353 00       		.byte	0
 7057 2354 27       		.uleb128 0x27
 7058 2355 F0430000 		.4byte	.LASF396
 7059 2359 22       		.byte	0x22
 7060 235a 49       		.byte	0x49
 7061 235b 89270000 		.4byte	.LASF397
 7062 235f FA000000 		.4byte	0xfa
 7063 2363 01       		.byte	0x1
 7064 2364 6C230000 		.4byte	0x236c
 7065 2368 77230000 		.4byte	0x2377
 7066 236c 22       		.uleb128 0x22
 7067 236d 43470000 		.4byte	0x4743
 7068 2371 13       		.uleb128 0x13
 7069 2372 7D470000 		.4byte	0x477d
 7070 2376 00       		.byte	0
 7071 2377 28       		.uleb128 0x28
 7072 2378 E20F0000 		.4byte	.LASF149
 7073 237c 22       		.byte	0x22
 7074 237d 4A       		.byte	0x4a
 7075 237e 53390000 		.4byte	.LASF398
 7076 2382 01       		.byte	0x1
 7077 2383 8B230000 		.4byte	0x238b
 7078 2387 96230000 		.4byte	0x2396
 7079 238b 22       		.uleb128 0x22
 7080 238c 43470000 		.4byte	0x4743
 7081 2390 13       		.uleb128 0x13
 7082 2391 7D470000 		.4byte	0x477d
ARM GAS  /tmp/ccWQ6gKG.s 			page 126


 7083 2395 00       		.byte	0
 7084 2396 27       		.uleb128 0x27
 7085 2397 59520000 		.4byte	.LASF399
 7086 239b 22       		.byte	0x22
 7087 239c 4B       		.byte	0x4b
 7088 239d C9300000 		.4byte	.LASF400
 7089 23a1 FA000000 		.4byte	0xfa
 7090 23a5 01       		.byte	0x1
 7091 23a6 AE230000 		.4byte	0x23ae
 7092 23aa BE230000 		.4byte	0x23be
 7093 23ae 22       		.uleb128 0x22
 7094 23af 43470000 		.4byte	0x4743
 7095 23b3 13       		.uleb128 0x13
 7096 23b4 7D470000 		.4byte	0x477d
 7097 23b8 13       		.uleb128 0x13
 7098 23b9 08460000 		.4byte	0x4608
 7099 23bd 00       		.byte	0
 7100 23be 27       		.uleb128 0x27
 7101 23bf C4180000 		.4byte	.LASF401
 7102 23c3 22       		.byte	0x22
 7103 23c4 4C       		.byte	0x4c
 7104 23c5 D3200000 		.4byte	.LASF402
 7105 23c9 FA000000 		.4byte	0xfa
 7106 23cd 01       		.byte	0x1
 7107 23ce D6230000 		.4byte	0x23d6
 7108 23d2 E6230000 		.4byte	0x23e6
 7109 23d6 22       		.uleb128 0x22
 7110 23d7 43470000 		.4byte	0x4743
 7111 23db 13       		.uleb128 0x13
 7112 23dc 7D470000 		.4byte	0x477d
 7113 23e0 13       		.uleb128 0x13
 7114 23e1 08460000 		.4byte	0x4608
 7115 23e5 00       		.byte	0
 7116 23e6 27       		.uleb128 0x27
 7117 23e7 B5040000 		.4byte	.LASF403
 7118 23eb 22       		.byte	0x22
 7119 23ec 4D       		.byte	0x4d
 7120 23ed 67550000 		.4byte	.LASF404
 7121 23f1 FA000000 		.4byte	0xfa
 7122 23f5 01       		.byte	0x1
 7123 23f6 FE230000 		.4byte	0x23fe
 7124 23fa 0E240000 		.4byte	0x240e
 7125 23fe 22       		.uleb128 0x22
 7126 23ff 43470000 		.4byte	0x4743
 7127 2403 13       		.uleb128 0x13
 7128 2404 83470000 		.4byte	0x4783
 7129 2408 13       		.uleb128 0x13
 7130 2409 08460000 		.4byte	0x4608
 7131 240d 00       		.byte	0
 7132 240e 28       		.uleb128 0x28
 7133 240f 1B080000 		.4byte	.LASF405
 7134 2413 22       		.byte	0x22
 7135 2414 4E       		.byte	0x4e
 7136 2415 97410000 		.4byte	.LASF406
 7137 2419 01       		.byte	0x1
 7138 241a 22240000 		.4byte	0x2422
 7139 241e 32240000 		.4byte	0x2432
ARM GAS  /tmp/ccWQ6gKG.s 			page 127


 7140 2422 22       		.uleb128 0x22
 7141 2423 43470000 		.4byte	0x4743
 7142 2427 13       		.uleb128 0x13
 7143 2428 77470000 		.4byte	0x4777
 7144 242c 13       		.uleb128 0x13
 7145 242d 2C000000 		.4byte	0x2c
 7146 2431 00       		.byte	0
 7147 2432 28       		.uleb128 0x28
 7148 2433 88410000 		.4byte	.LASF407
 7149 2437 22       		.byte	0x22
 7150 2438 50       		.byte	0x50
 7151 2439 9C0A0000 		.4byte	.LASF408
 7152 243d 01       		.byte	0x1
 7153 243e 46240000 		.4byte	0x2446
 7154 2442 56240000 		.4byte	0x2456
 7155 2446 22       		.uleb128 0x22
 7156 2447 43470000 		.4byte	0x4743
 7157 244b 13       		.uleb128 0x13
 7158 244c 89470000 		.4byte	0x4789
 7159 2450 13       		.uleb128 0x13
 7160 2451 08460000 		.4byte	0x4608
 7161 2455 00       		.byte	0
 7162 2456 28       		.uleb128 0x28
 7163 2457 88410000 		.4byte	.LASF407
 7164 245b 22       		.byte	0x22
 7165 245c 51       		.byte	0x51
 7166 245d 48020000 		.4byte	.LASF409
 7167 2461 01       		.byte	0x1
 7168 2462 6A240000 		.4byte	0x246a
 7169 2466 7A240000 		.4byte	0x247a
 7170 246a 22       		.uleb128 0x22
 7171 246b 43470000 		.4byte	0x4743
 7172 246f 13       		.uleb128 0x13
 7173 2470 8F470000 		.4byte	0x478f
 7174 2474 13       		.uleb128 0x13
 7175 2475 08460000 		.4byte	0x4608
 7176 2479 00       		.byte	0
 7177 247a 28       		.uleb128 0x28
 7178 247b 5D550000 		.4byte	.LASF410
 7179 247f 22       		.byte	0x22
 7180 2480 52       		.byte	0x52
 7181 2481 00000000 		.4byte	.LASF411
 7182 2485 01       		.byte	0x1
 7183 2486 8E240000 		.4byte	0x248e
 7184 248a 9E240000 		.4byte	0x249e
 7185 248e 22       		.uleb128 0x22
 7186 248f 43470000 		.4byte	0x4743
 7187 2493 13       		.uleb128 0x13
 7188 2494 95470000 		.4byte	0x4795
 7189 2498 13       		.uleb128 0x13
 7190 2499 2C000000 		.4byte	0x2c
 7191 249d 00       		.byte	0
 7192 249e 28       		.uleb128 0x28
 7193 249f 5D550000 		.4byte	.LASF410
 7194 24a3 22       		.byte	0x22
 7195 24a4 53       		.byte	0x53
 7196 24a5 2C420000 		.4byte	.LASF412
ARM GAS  /tmp/ccWQ6gKG.s 			page 128


 7197 24a9 01       		.byte	0x1
 7198 24aa B2240000 		.4byte	0x24b2
 7199 24ae C2240000 		.4byte	0x24c2
 7200 24b2 22       		.uleb128 0x22
 7201 24b3 43470000 		.4byte	0x4743
 7202 24b7 13       		.uleb128 0x13
 7203 24b8 9B470000 		.4byte	0x479b
 7204 24bc 13       		.uleb128 0x13
 7205 24bd 2C000000 		.4byte	0x2c
 7206 24c1 00       		.byte	0
 7207 24c2 3E       		.uleb128 0x3e
 7208 24c3 59350000 		.4byte	.LASF413
 7209 24c7 22       		.byte	0x22
 7210 24c8 56       		.byte	0x56
 7211 24c9 F7460000 		.4byte	.LASF415
 7212 24cd D5240000 		.4byte	0x24d5
 7213 24d1 E5240000 		.4byte	0x24e5
 7214 24d5 22       		.uleb128 0x22
 7215 24d6 71470000 		.4byte	0x4771
 7216 24da 13       		.uleb128 0x13
 7217 24db 7D470000 		.4byte	0x477d
 7218 24df 13       		.uleb128 0x13
 7219 24e0 A1470000 		.4byte	0x47a1
 7220 24e4 00       		.byte	0
 7221 24e5 23       		.uleb128 0x23
 7222 24e6 A2180000 		.4byte	.LASF341
 7223 24ea 22       		.byte	0x22
 7224 24eb 59       		.byte	0x59
 7225 24ec 43470000 		.4byte	0x4743
 7226 24f0 01       		.byte	0x1
 7227 24f1 F9240000 		.4byte	0x24f9
 7228 24f5 0E250000 		.4byte	0x250e
 7229 24f9 22       		.uleb128 0x22
 7230 24fa 43470000 		.4byte	0x4743
 7231 24fe 13       		.uleb128 0x13
 7232 24ff C5050000 		.4byte	0x5c5
 7233 2503 13       		.uleb128 0x13
 7234 2504 2C000000 		.4byte	0x2c
 7235 2508 13       		.uleb128 0x13
 7236 2509 FA000000 		.4byte	0xfa
 7237 250d 00       		.byte	0
 7238 250e 3F       		.uleb128 0x3f
 7239 250f C7450000 		.4byte	.LASF414
 7240 2513 22       		.byte	0x22
 7241 2514 5D       		.byte	0x5d
 7242 2515 F21E0000 		.4byte	.LASF416
 7243 2519 FA000000 		.4byte	0xfa
 7244 251d 01       		.byte	0x1
 7245 251e 13       		.uleb128 0x13
 7246 251f 0B470000 		.4byte	0x470b
 7247 2523 13       		.uleb128 0x13
 7248 2524 C5050000 		.4byte	0x5c5
 7249 2528 00       		.byte	0
 7250 2529 00       		.byte	0
 7251 252a 14       		.uleb128 0x14
 7252 252b E81A0000 		.4byte	0x1ae8
 7253 252f 20       		.uleb128 0x20
ARM GAS  /tmp/ccWQ6gKG.s 			page 129


 7254 2530 14430000 		.4byte	.LASF417
 7255 2534 02       		.byte	0x2
 7256 2535 02       		.byte	0x2
 7257 2536 14       		.byte	0x14
 7258 2537 9A260000 		.4byte	0x269a
 7259 253b 26       		.uleb128 0x26
 7260 253c 3E080000 		.4byte	.LASF418
 7261 2540 02       		.byte	0x2
 7262 2541 16       		.byte	0x16
 7263 2542 CE000000 		.4byte	0xce
 7264 2546 01       		.byte	0x1
 7265 2547 08       		.uleb128 0x8
 7266 2548 C3240000 		.4byte	.LASF419
 7267 254c 02       		.byte	0x2
 7268 254d 1D       		.byte	0x1d
 7269 254e 3B250000 		.4byte	0x253b
 7270 2552 00       		.byte	0
 7271 2553 27       		.uleb128 0x27
 7272 2554 55040000 		.4byte	.LASF420
 7273 2558 02       		.byte	0x2
 7274 2559 20       		.byte	0x20
 7275 255a B20E0000 		.4byte	.LASF421
 7276 255e 03060000 		.4byte	0x603
 7277 2562 01       		.byte	0x1
 7278 2563 6B250000 		.4byte	0x256b
 7279 2567 71250000 		.4byte	0x2571
 7280 256b 22       		.uleb128 0x22
 7281 256c A7470000 		.4byte	0x47a7
 7282 2570 00       		.byte	0
 7283 2571 28       		.uleb128 0x28
 7284 2572 E0450000 		.4byte	.LASF422
 7285 2576 02       		.byte	0x2
 7286 2577 26       		.byte	0x26
 7287 2578 36160000 		.4byte	.LASF423
 7288 257c 01       		.byte	0x1
 7289 257d 85250000 		.4byte	0x2585
 7290 2581 8B250000 		.4byte	0x258b
 7291 2585 22       		.uleb128 0x22
 7292 2586 77470000 		.4byte	0x4777
 7293 258a 00       		.byte	0
 7294 258b 27       		.uleb128 0x27
 7295 258c 6B240000 		.4byte	.LASF383
 7296 2590 02       		.byte	0x2
 7297 2591 27       		.byte	0x27
 7298 2592 AC310000 		.4byte	.LASF424
 7299 2596 FA000000 		.4byte	0xfa
 7300 259a 01       		.byte	0x1
 7301 259b A3250000 		.4byte	0x25a3
 7302 259f A9250000 		.4byte	0x25a9
 7303 25a3 22       		.uleb128 0x22
 7304 25a4 77470000 		.4byte	0x4777
 7305 25a8 00       		.byte	0
 7306 25a9 28       		.uleb128 0x28
 7307 25aa C62D0000 		.4byte	.LASF425
 7308 25ae 02       		.byte	0x2
 7309 25af 28       		.byte	0x28
 7310 25b0 FB020000 		.4byte	.LASF426
ARM GAS  /tmp/ccWQ6gKG.s 			page 130


 7311 25b4 01       		.byte	0x1
 7312 25b5 BD250000 		.4byte	0x25bd
 7313 25b9 C3250000 		.4byte	0x25c3
 7314 25bd 22       		.uleb128 0x22
 7315 25be 77470000 		.4byte	0x4777
 7316 25c2 00       		.byte	0
 7317 25c3 28       		.uleb128 0x28
 7318 25c4 7D1D0000 		.4byte	.LASF427
 7319 25c8 02       		.byte	0x2
 7320 25c9 2A       		.byte	0x2a
 7321 25ca 4C2B0000 		.4byte	.LASF428
 7322 25ce 01       		.byte	0x1
 7323 25cf D7250000 		.4byte	0x25d7
 7324 25d3 DD250000 		.4byte	0x25dd
 7325 25d7 22       		.uleb128 0x22
 7326 25d8 77470000 		.4byte	0x4777
 7327 25dc 00       		.byte	0
 7328 25dd 27       		.uleb128 0x27
 7329 25de F0430000 		.4byte	.LASF396
 7330 25e2 02       		.byte	0x2
 7331 25e3 2B       		.byte	0x2b
 7332 25e4 29090000 		.4byte	.LASF429
 7333 25e8 FA000000 		.4byte	0xfa
 7334 25ec 01       		.byte	0x1
 7335 25ed F5250000 		.4byte	0x25f5
 7336 25f1 FB250000 		.4byte	0x25fb
 7337 25f5 22       		.uleb128 0x22
 7338 25f6 77470000 		.4byte	0x4777
 7339 25fa 00       		.byte	0
 7340 25fb 28       		.uleb128 0x28
 7341 25fc D32D0000 		.4byte	.LASF430
 7342 2600 02       		.byte	0x2
 7343 2601 2C       		.byte	0x2c
 7344 2602 162F0000 		.4byte	.LASF431
 7345 2606 01       		.byte	0x1
 7346 2607 0F260000 		.4byte	0x260f
 7347 260b 15260000 		.4byte	0x2615
 7348 260f 22       		.uleb128 0x22
 7349 2610 77470000 		.4byte	0x4777
 7350 2614 00       		.byte	0
 7351 2615 23       		.uleb128 0x23
 7352 2616 14430000 		.4byte	.LASF417
 7353 261a 02       		.byte	0x2
 7354 261b 2F       		.byte	0x2f
 7355 261c 77470000 		.4byte	0x4777
 7356 2620 02       		.byte	0x2
 7357 2621 29260000 		.4byte	0x2629
 7358 2625 2F260000 		.4byte	0x262f
 7359 2629 22       		.uleb128 0x22
 7360 262a 77470000 		.4byte	0x4777
 7361 262e 00       		.byte	0
 7362 262f 40       		.uleb128 0x40
 7363 2630 8E350000 		.4byte	.LASF432
 7364 2634 02       		.byte	0x2
 7365 2635 32       		.byte	0x32
 7366 2636 1F320000 		.4byte	.LASF433
 7367 263a 01       		.byte	0x1
ARM GAS  /tmp/ccWQ6gKG.s 			page 131


 7368 263b 4F260000 		.4byte	0x264f
 7369 263f 13       		.uleb128 0x13
 7370 2640 7D470000 		.4byte	0x477d
 7371 2644 13       		.uleb128 0x13
 7372 2645 83470000 		.4byte	0x4783
 7373 2649 13       		.uleb128 0x13
 7374 264a 2C000000 		.4byte	0x2c
 7375 264e 00       		.byte	0
 7376 264f 41       		.uleb128 0x41
 7377 2650 83060000 		.4byte	.LASF434
 7378 2654 02       		.byte	0x2
 7379 2655 33       		.byte	0x33
 7380 2656 1C1E0000 		.4byte	.LASF435
 7381 265a 83470000 		.4byte	0x4783
 7382 265e 01       		.byte	0x1
 7383 265f 69260000 		.4byte	0x2669
 7384 2663 13       		.uleb128 0x13
 7385 2664 03060000 		.4byte	0x603
 7386 2668 00       		.byte	0
 7387 2669 41       		.uleb128 0x41
 7388 266a 05550000 		.4byte	.LASF357
 7389 266e 02       		.byte	0x2
 7390 266f 34       		.byte	0x34
 7391 2670 C0010000 		.4byte	.LASF436
 7392 2674 2C000000 		.4byte	0x2c
 7393 2678 01       		.byte	0x1
 7394 2679 83260000 		.4byte	0x2683
 7395 267d 13       		.uleb128 0x13
 7396 267e 2C000000 		.4byte	0x2c
 7397 2682 00       		.byte	0
 7398 2683 3F       		.uleb128 0x3f
 7399 2684 43170000 		.4byte	.LASF355
 7400 2688 02       		.byte	0x2
 7401 2689 35       		.byte	0x35
 7402 268a 4E1E0000 		.4byte	.LASF437
 7403 268e 2C000000 		.4byte	0x2c
 7404 2692 01       		.byte	0x1
 7405 2693 13       		.uleb128 0x13
 7406 2694 2C000000 		.4byte	0x2c
 7407 2698 00       		.byte	0
 7408 2699 00       		.byte	0
 7409 269a 14       		.uleb128 0x14
 7410 269b 2F250000 		.4byte	0x252f
 7411 269f 32       		.uleb128 0x32
 7412 26a0 8F100000 		.4byte	.LASF438
 7413 26a4 32       		.uleb128 0x32
 7414 26a5 F7010000 		.4byte	.LASF439
 7415 26a9 32       		.uleb128 0x32
 7416 26aa BC3B0000 		.4byte	.LASF440
 7417 26ae 20       		.uleb128 0x20
 7418 26af 7F010000 		.4byte	.LASF441
 7419 26b3 04       		.byte	0x4
 7420 26b4 21       		.byte	0x21
 7421 26b5 0F       		.byte	0xf
 7422 26b6 F02C0000 		.4byte	0x2cf0
 7423 26ba 25       		.uleb128 0x25
 7424 26bb 390A0000 		.4byte	0xa39
ARM GAS  /tmp/ccWQ6gKG.s 			page 132


 7425 26bf 00       		.byte	0
 7426 26c0 2F       		.uleb128 0x2f
 7427 26c1 21500000 		.4byte	.LASF194
 7428 26c5 08       		.byte	0x8
 7429 26c6 21       		.byte	0x21
 7430 26c7 11       		.byte	0x11
 7431 26c8 01       		.byte	0x1
 7432 26c9 00270000 		.4byte	0x2700
 7433 26cd 08       		.uleb128 0x8
 7434 26ce AA290000 		.4byte	.LASF192
 7435 26d2 21       		.byte	0x21
 7436 26d3 12       		.byte	0x12
 7437 26d4 AD470000 		.4byte	0x47ad
 7438 26d8 00       		.byte	0
 7439 26d9 08       		.uleb128 0x8
 7440 26da 74180000 		.4byte	.LASF193
 7441 26de 21       		.byte	0x21
 7442 26df 13       		.byte	0x13
 7443 26e0 1E480000 		.4byte	0x481e
 7444 26e4 04       		.byte	0x4
 7445 26e5 30       		.uleb128 0x30
 7446 26e6 21500000 		.4byte	.LASF194
 7447 26ea 21       		.byte	0x21
 7448 26eb 15       		.byte	0x15
 7449 26ec AD470000 		.4byte	0x47ad
 7450 26f0 F4260000 		.4byte	0x26f4
 7451 26f4 22       		.uleb128 0x22
 7452 26f5 AD470000 		.4byte	0x47ad
 7453 26f9 13       		.uleb128 0x13
 7454 26fa 89470000 		.4byte	0x4789
 7455 26fe 00       		.byte	0
 7456 26ff 00       		.byte	0
 7457 2700 19       		.uleb128 0x19
 7458 2701 F6110000 		.4byte	.LASF195
 7459 2705 21       		.byte	0x21
 7460 2706 8A01     		.2byte	0x18a
 7461 2708 AD470000 		.4byte	0x47ad
 7462 270c 00       		.byte	0
 7463 270d 31       		.uleb128 0x31
 7464 270e 13250000 		.4byte	.LASF442
 7465 2712 32       		.uleb128 0x32
 7466 2713 411D0000 		.4byte	.LASF196
 7467 2717 32       		.uleb128 0x32
 7468 2718 1B2B0000 		.4byte	.LASF197
 7469 271c 32       		.uleb128 0x32
 7470 271d ED490000 		.4byte	.LASF198
 7471 2721 33       		.uleb128 0x33
 7472 2722 5E380000 		.4byte	.LASF200
 7473 2726 04       		.byte	0x4
 7474 2727 21       		.byte	0x21
 7475 2728 C0       		.byte	0xc0
 7476 2729 01       		.byte	0x1
 7477 272a 91280000 		.4byte	0x2891
 7478 272e 08       		.uleb128 0x8
 7479 272f FE120000 		.4byte	.LASF199
 7480 2733 21       		.byte	0x21
 7481 2734 C4       		.byte	0xc4
ARM GAS  /tmp/ccWQ6gKG.s 			page 133


 7482 2735 39490000 		.4byte	0x4939
 7483 2739 00       		.byte	0
 7484 273a 23       		.uleb128 0x23
 7485 273b 5E380000 		.4byte	.LASF200
 7486 273f 21       		.byte	0x21
 7487 2740 C7       		.byte	0xc7
 7488 2741 3F490000 		.4byte	0x493f
 7489 2745 01       		.byte	0x1
 7490 2746 4E270000 		.4byte	0x274e
 7491 274a 54270000 		.4byte	0x2754
 7492 274e 22       		.uleb128 0x22
 7493 274f 3F490000 		.4byte	0x493f
 7494 2753 00       		.byte	0
 7495 2754 23       		.uleb128 0x23
 7496 2755 5E380000 		.4byte	.LASF200
 7497 2759 21       		.byte	0x21
 7498 275a C8       		.byte	0xc8
 7499 275b 3F490000 		.4byte	0x493f
 7500 275f 01       		.byte	0x1
 7501 2760 68270000 		.4byte	0x2768
 7502 2764 73270000 		.4byte	0x2773
 7503 2768 22       		.uleb128 0x22
 7504 2769 3F490000 		.4byte	0x493f
 7505 276d 13       		.uleb128 0x13
 7506 276e 45490000 		.4byte	0x4945
 7507 2772 00       		.byte	0
 7508 2773 21       		.uleb128 0x21
 7509 2774 5E380000 		.4byte	.LASF200
 7510 2778 21       		.byte	0x21
 7511 2779 CB       		.byte	0xcb
 7512 277a 3F490000 		.4byte	0x493f
 7513 277e 86270000 		.4byte	0x2786
 7514 2782 91270000 		.4byte	0x2791
 7515 2786 22       		.uleb128 0x22
 7516 2787 3F490000 		.4byte	0x493f
 7517 278b 13       		.uleb128 0x13
 7518 278c 39490000 		.4byte	0x4939
 7519 2790 00       		.byte	0
 7520 2791 34       		.uleb128 0x34
 7521 2792 92120000 		.4byte	.LASF178
 7522 2796 21       		.byte	0x21
 7523 2797 CE       		.byte	0xce
 7524 2798 07020000 		.4byte	.LASF443
 7525 279c 18480000 		.4byte	0x4818
 7526 27a0 A8270000 		.4byte	0x27a8
 7527 27a4 B3270000 		.4byte	0x27b3
 7528 27a8 22       		.uleb128 0x22
 7529 27a9 3F490000 		.4byte	0x493f
 7530 27ad 13       		.uleb128 0x13
 7531 27ae 45490000 		.4byte	0x4945
 7532 27b2 00       		.byte	0
 7533 27b3 27       		.uleb128 0x27
 7534 27b4 693E0000 		.4byte	.LASF202
 7535 27b8 21       		.byte	0x21
 7536 27b9 D4       		.byte	0xd4
 7537 27ba 26460000 		.4byte	.LASF444
 7538 27be 4B490000 		.4byte	0x494b
ARM GAS  /tmp/ccWQ6gKG.s 			page 134


 7539 27c2 01       		.byte	0x1
 7540 27c3 CB270000 		.4byte	0x27cb
 7541 27c7 D1270000 		.4byte	0x27d1
 7542 27cb 22       		.uleb128 0x22
 7543 27cc 51490000 		.4byte	0x4951
 7544 27d0 00       		.byte	0
 7545 27d1 27       		.uleb128 0x27
 7546 27d2 1F120000 		.4byte	.LASF204
 7547 27d6 21       		.byte	0x21
 7548 27d7 D8       		.byte	0xd8
 7549 27d8 C02F0000 		.4byte	.LASF445
 7550 27dc C8470000 		.4byte	0x47c8
 7551 27e0 01       		.byte	0x1
 7552 27e1 E9270000 		.4byte	0x27e9
 7553 27e5 EF270000 		.4byte	0x27ef
 7554 27e9 22       		.uleb128 0x22
 7555 27ea 51490000 		.4byte	0x4951
 7556 27ee 00       		.byte	0
 7557 27ef 27       		.uleb128 0x27
 7558 27f0 B13B0000 		.4byte	.LASF206
 7559 27f4 21       		.byte	0x21
 7560 27f5 DC       		.byte	0xdc
 7561 27f6 B9480000 		.4byte	.LASF446
 7562 27fa 18480000 		.4byte	0x4818
 7563 27fe 01       		.byte	0x1
 7564 27ff 07280000 		.4byte	0x2807
 7565 2803 0D280000 		.4byte	0x280d
 7566 2807 22       		.uleb128 0x22
 7567 2808 3F490000 		.4byte	0x493f
 7568 280c 00       		.byte	0
 7569 280d 27       		.uleb128 0x27
 7570 280e B13B0000 		.4byte	.LASF206
 7571 2812 21       		.byte	0x21
 7572 2813 E3       		.byte	0xe3
 7573 2814 17480000 		.4byte	.LASF447
 7574 2818 822C0000 		.4byte	0x2c82
 7575 281c 01       		.byte	0x1
 7576 281d 25280000 		.4byte	0x2825
 7577 2821 30280000 		.4byte	0x2830
 7578 2825 22       		.uleb128 0x22
 7579 2826 3F490000 		.4byte	0x493f
 7580 282a 13       		.uleb128 0x13
 7581 282b 25000000 		.4byte	0x25
 7582 282f 00       		.byte	0
 7583 2830 27       		.uleb128 0x27
 7584 2831 D4560000 		.4byte	.LASF209
 7585 2835 21       		.byte	0x21
 7586 2836 EB       		.byte	0xeb
 7587 2837 9C4F0000 		.4byte	.LASF448
 7588 283b FA000000 		.4byte	0xfa
 7589 283f 01       		.byte	0x1
 7590 2840 48280000 		.4byte	0x2848
 7591 2844 53280000 		.4byte	0x2853
 7592 2848 22       		.uleb128 0x22
 7593 2849 51490000 		.4byte	0x4951
 7594 284d 13       		.uleb128 0x13
 7595 284e 45490000 		.4byte	0x4945
ARM GAS  /tmp/ccWQ6gKG.s 			page 135


 7596 2852 00       		.byte	0
 7597 2853 27       		.uleb128 0x27
 7598 2854 662C0000 		.4byte	.LASF211
 7599 2858 21       		.byte	0x21
 7600 2859 EF       		.byte	0xef
 7601 285a 6F190000 		.4byte	.LASF449
 7602 285e FA000000 		.4byte	0xfa
 7603 2862 01       		.byte	0x1
 7604 2863 6B280000 		.4byte	0x286b
 7605 2867 76280000 		.4byte	0x2876
 7606 286b 22       		.uleb128 0x22
 7607 286c 51490000 		.4byte	0x4951
 7608 2870 13       		.uleb128 0x13
 7609 2871 45490000 		.4byte	0x4945
 7610 2875 00       		.byte	0
 7611 2876 35       		.uleb128 0x35
 7612 2877 903C0000 		.4byte	.LASF213
 7613 287b 21       		.byte	0x21
 7614 287c F3       		.byte	0xf3
 7615 287d 80520000 		.4byte	.LASF450
 7616 2881 FA000000 		.4byte	0xfa
 7617 2885 01       		.byte	0x1
 7618 2886 8A280000 		.4byte	0x288a
 7619 288a 22       		.uleb128 0x22
 7620 288b 51490000 		.4byte	0x4951
 7621 288f 00       		.byte	0
 7622 2890 00       		.byte	0
 7623 2891 1C       		.uleb128 0x1c
 7624 2892 7A180000 		.4byte	.LASF215
 7625 2896 21       		.byte	0x21
 7626 2897 8601     		.2byte	0x186
 7627 2899 B3470000 		.4byte	0x47b3
 7628 289d 1C       		.uleb128 0x1c
 7629 289e 56110000 		.4byte	.LASF216
 7630 28a2 21       		.byte	0x21
 7631 28a3 8701     		.2byte	0x187
 7632 28a5 CE470000 		.4byte	0x47ce
 7633 28a9 36       		.uleb128 0x36
 7634 28aa AB590000 		.4byte	.LASF217
 7635 28ae 21       		.byte	0x21
 7636 28af 8D01     		.2byte	0x18d
 7637 28b1 0A330000 		.4byte	.LASF451
 7638 28b5 E8470000 		.4byte	0x47e8
 7639 28b9 01       		.byte	0x1
 7640 28ba C2280000 		.4byte	0x28c2
 7641 28be C8280000 		.4byte	0x28c8
 7642 28c2 22       		.uleb128 0x22
 7643 28c3 EE470000 		.4byte	0x47ee
 7644 28c7 00       		.byte	0
 7645 28c8 14       		.uleb128 0x14
 7646 28c9 C0260000 		.4byte	0x26c0
 7647 28cd 36       		.uleb128 0x36
 7648 28ce 88540000 		.4byte	.LASF218
 7649 28d2 21       		.byte	0x21
 7650 28d3 9101     		.2byte	0x191
 7651 28d5 1F450000 		.4byte	.LASF452
 7652 28d9 FA000000 		.4byte	0xfa
ARM GAS  /tmp/ccWQ6gKG.s 			page 136


 7653 28dd 01       		.byte	0x1
 7654 28de E6280000 		.4byte	0x28e6
 7655 28e2 EC280000 		.4byte	0x28ec
 7656 28e6 22       		.uleb128 0x22
 7657 28e7 EE470000 		.4byte	0x47ee
 7658 28eb 00       		.byte	0
 7659 28ec 36       		.uleb128 0x36
 7660 28ed A31C0000 		.4byte	.LASF221
 7661 28f1 21       		.byte	0x21
 7662 28f2 0302     		.2byte	0x203
 7663 28f4 A73E0000 		.4byte	.LASF453
 7664 28f8 2C000000 		.4byte	0x2c
 7665 28fc 01       		.byte	0x1
 7666 28fd 05290000 		.4byte	0x2905
 7667 2901 0B290000 		.4byte	0x290b
 7668 2905 22       		.uleb128 0x22
 7669 2906 EE470000 		.4byte	0x47ee
 7670 290a 00       		.byte	0
 7671 290b 37       		.uleb128 0x37
 7672 290c C1410000 		.4byte	.LASF223
 7673 2910 21       		.byte	0x21
 7674 2911 9701     		.2byte	0x197
 7675 2913 E9250000 		.4byte	.LASF454
 7676 2917 01       		.byte	0x1
 7677 2918 20290000 		.4byte	0x2920
 7678 291c 2B290000 		.4byte	0x292b
 7679 2920 22       		.uleb128 0x22
 7680 2921 F4470000 		.4byte	0x47f4
 7681 2925 13       		.uleb128 0x13
 7682 2926 FA470000 		.4byte	0x47fa
 7683 292a 00       		.byte	0
 7684 292b 37       		.uleb128 0x37
 7685 292c 41490000 		.4byte	.LASF224
 7686 2930 21       		.byte	0x21
 7687 2931 9F01     		.2byte	0x19f
 7688 2933 B00B0000 		.4byte	.LASF455
 7689 2937 01       		.byte	0x1
 7690 2938 40290000 		.4byte	0x2940
 7691 293c 4B290000 		.4byte	0x294b
 7692 2940 22       		.uleb128 0x22
 7693 2941 F4470000 		.4byte	0x47f4
 7694 2945 13       		.uleb128 0x13
 7695 2946 FA470000 		.4byte	0x47fa
 7696 294a 00       		.byte	0
 7697 294b 36       		.uleb128 0x36
 7698 294c 7E250000 		.4byte	.LASF227
 7699 2950 21       		.byte	0x21
 7700 2951 0E02     		.2byte	0x20e
 7701 2953 1D1F0000 		.4byte	.LASF456
 7702 2957 FA000000 		.4byte	0xfa
 7703 295b 01       		.byte	0x1
 7704 295c 64290000 		.4byte	0x2964
 7705 2960 6F290000 		.4byte	0x296f
 7706 2964 22       		.uleb128 0x22
 7707 2965 F4470000 		.4byte	0x47f4
 7708 2969 13       		.uleb128 0x13
 7709 296a FA470000 		.4byte	0x47fa
ARM GAS  /tmp/ccWQ6gKG.s 			page 137


 7710 296e 00       		.byte	0
 7711 296f 36       		.uleb128 0x36
 7712 2970 92320000 		.4byte	.LASF229
 7713 2974 21       		.byte	0x21
 7714 2975 1F02     		.2byte	0x21f
 7715 2977 26500000 		.4byte	.LASF457
 7716 297b 25000000 		.4byte	0x25
 7717 297f 01       		.byte	0x1
 7718 2980 88290000 		.4byte	0x2988
 7719 2984 93290000 		.4byte	0x2993
 7720 2988 22       		.uleb128 0x22
 7721 2989 EE470000 		.4byte	0x47ee
 7722 298d 13       		.uleb128 0x13
 7723 298e C8470000 		.4byte	0x47c8
 7724 2992 00       		.byte	0
 7725 2993 36       		.uleb128 0x36
 7726 2994 9D460000 		.4byte	.LASF231
 7727 2998 21       		.byte	0x21
 7728 2999 2C02     		.2byte	0x22c
 7729 299b 30130000 		.4byte	.LASF458
 7730 299f FA000000 		.4byte	0xfa
 7731 29a3 01       		.byte	0x1
 7732 29a4 AC290000 		.4byte	0x29ac
 7733 29a8 B7290000 		.4byte	0x29b7
 7734 29ac 22       		.uleb128 0x22
 7735 29ad EE470000 		.4byte	0x47ee
 7736 29b1 13       		.uleb128 0x13
 7737 29b2 C8470000 		.4byte	0x47c8
 7738 29b6 00       		.byte	0
 7739 29b7 36       		.uleb128 0x36
 7740 29b8 AE2F0000 		.4byte	.LASF233
 7741 29bc 21       		.byte	0x21
 7742 29bd 3802     		.2byte	0x238
 7743 29bf 0D3C0000 		.4byte	.LASF459
 7744 29c3 00480000 		.4byte	0x4800
 7745 29c7 01       		.byte	0x1
 7746 29c8 D0290000 		.4byte	0x29d0
 7747 29cc DB290000 		.4byte	0x29db
 7748 29d0 22       		.uleb128 0x22
 7749 29d1 EE470000 		.4byte	0x47ee
 7750 29d5 13       		.uleb128 0x13
 7751 29d6 91280000 		.4byte	0x2891
 7752 29da 00       		.byte	0
 7753 29db 36       		.uleb128 0x36
 7754 29dc AE2F0000 		.4byte	.LASF233
 7755 29e0 21       		.byte	0x21
 7756 29e1 4402     		.2byte	0x244
 7757 29e3 881B0000 		.4byte	.LASF460
 7758 29e7 00480000 		.4byte	0x4800
 7759 29eb 01       		.byte	0x1
 7760 29ec F4290000 		.4byte	0x29f4
 7761 29f0 042A0000 		.4byte	0x2a04
 7762 29f4 22       		.uleb128 0x22
 7763 29f5 EE470000 		.4byte	0x47ee
 7764 29f9 13       		.uleb128 0x13
 7765 29fa 9D280000 		.4byte	0x289d
 7766 29fe 13       		.uleb128 0x13
ARM GAS  /tmp/ccWQ6gKG.s 			page 138


 7767 29ff D6450000 		.4byte	0x45d6
 7768 2a03 00       		.byte	0
 7769 2a04 36       		.uleb128 0x36
 7770 2a05 A60F0000 		.4byte	.LASF236
 7771 2a09 21       		.byte	0x21
 7772 2a0a B301     		.2byte	0x1b3
 7773 2a0c 05220000 		.4byte	.LASF461
 7774 2a10 232A0000 		.4byte	0x2a23
 7775 2a14 01       		.byte	0x1
 7776 2a15 1D2A0000 		.4byte	0x2a1d
 7777 2a19 232A0000 		.4byte	0x2a23
 7778 2a1d 22       		.uleb128 0x22
 7779 2a1e F4470000 		.4byte	0x47f4
 7780 2a22 00       		.byte	0
 7781 2a23 14       		.uleb128 0x14
 7782 2a24 12270000 		.4byte	0x2712
 7783 2a28 36       		.uleb128 0x36
 7784 2a29 712C0000 		.4byte	.LASF238
 7785 2a2d 21       		.byte	0x21
 7786 2a2e B701     		.2byte	0x1b7
 7787 2a30 190F0000 		.4byte	.LASF462
 7788 2a34 232A0000 		.4byte	0x2a23
 7789 2a38 01       		.byte	0x1
 7790 2a39 412A0000 		.4byte	0x2a41
 7791 2a3d 472A0000 		.4byte	0x2a47
 7792 2a41 22       		.uleb128 0x22
 7793 2a42 F4470000 		.4byte	0x47f4
 7794 2a46 00       		.byte	0
 7795 2a47 37       		.uleb128 0x37
 7796 2a48 CC590000 		.4byte	.LASF240
 7797 2a4c 21       		.byte	0x21
 7798 2a4d BB01     		.2byte	0x1bb
 7799 2a4f 603B0000 		.4byte	.LASF463
 7800 2a53 01       		.byte	0x1
 7801 2a54 5C2A0000 		.4byte	0x2a5c
 7802 2a58 672A0000 		.4byte	0x2a67
 7803 2a5c 22       		.uleb128 0x22
 7804 2a5d F4470000 		.4byte	0x47f4
 7805 2a61 13       		.uleb128 0x13
 7806 2a62 06480000 		.4byte	0x4806
 7807 2a66 00       		.byte	0
 7808 2a67 36       		.uleb128 0x36
 7809 2a68 A60F0000 		.4byte	.LASF236
 7810 2a6c 21       		.byte	0x21
 7811 2a6d BF01     		.2byte	0x1bf
 7812 2a6f 4E560000 		.4byte	.LASF464
 7813 2a73 862A0000 		.4byte	0x2a86
 7814 2a77 01       		.byte	0x1
 7815 2a78 802A0000 		.4byte	0x2a80
 7816 2a7c 862A0000 		.4byte	0x2a86
 7817 2a80 22       		.uleb128 0x22
 7818 2a81 EE470000 		.4byte	0x47ee
 7819 2a85 00       		.byte	0
 7820 2a86 14       		.uleb128 0x14
 7821 2a87 17270000 		.4byte	0x2717
 7822 2a8b 36       		.uleb128 0x36
 7823 2a8c 712C0000 		.4byte	.LASF238
ARM GAS  /tmp/ccWQ6gKG.s 			page 139


 7824 2a90 21       		.byte	0x21
 7825 2a91 C301     		.2byte	0x1c3
 7826 2a93 09400000 		.4byte	.LASF465
 7827 2a97 862A0000 		.4byte	0x2a86
 7828 2a9b 01       		.byte	0x1
 7829 2a9c A42A0000 		.4byte	0x2aa4
 7830 2aa0 AA2A0000 		.4byte	0x2aaa
 7831 2aa4 22       		.uleb128 0x22
 7832 2aa5 EE470000 		.4byte	0x47ee
 7833 2aa9 00       		.byte	0
 7834 2aaa 37       		.uleb128 0x37
 7835 2aab CC590000 		.4byte	.LASF240
 7836 2aaf 21       		.byte	0x21
 7837 2ab0 C701     		.2byte	0x1c7
 7838 2ab2 77200000 		.4byte	.LASF466
 7839 2ab6 01       		.byte	0x1
 7840 2ab7 BF2A0000 		.4byte	0x2abf
 7841 2abb CA2A0000 		.4byte	0x2aca
 7842 2abf 22       		.uleb128 0x22
 7843 2ac0 EE470000 		.4byte	0x47ee
 7844 2ac4 13       		.uleb128 0x13
 7845 2ac5 0C480000 		.4byte	0x480c
 7846 2ac9 00       		.byte	0
 7847 2aca 36       		.uleb128 0x36
 7848 2acb 8F500000 		.4byte	.LASF245
 7849 2acf 21       		.byte	0x21
 7850 2ad0 5302     		.2byte	0x253
 7851 2ad2 91450000 		.4byte	.LASF467
 7852 2ad6 E8470000 		.4byte	0x47e8
 7853 2ada 01       		.byte	0x1
 7854 2adb E32A0000 		.4byte	0x2ae3
 7855 2adf E92A0000 		.4byte	0x2ae9
 7856 2ae3 22       		.uleb128 0x22
 7857 2ae4 EE470000 		.4byte	0x47ee
 7858 2ae8 00       		.byte	0
 7859 2ae9 36       		.uleb128 0x36
 7860 2aea D2470000 		.4byte	.LASF247
 7861 2aee 21       		.byte	0x21
 7862 2aef 5D02     		.2byte	0x25d
 7863 2af1 4F0C0000 		.4byte	.LASF468
 7864 2af5 FA000000 		.4byte	0xfa
 7865 2af9 01       		.byte	0x1
 7866 2afa 022B0000 		.4byte	0x2b02
 7867 2afe 082B0000 		.4byte	0x2b08
 7868 2b02 22       		.uleb128 0x22
 7869 2b03 EE470000 		.4byte	0x47ee
 7870 2b07 00       		.byte	0
 7871 2b08 36       		.uleb128 0x36
 7872 2b09 18300000 		.4byte	.LASF249
 7873 2b0d 21       		.byte	0x21
 7874 2b0e 6702     		.2byte	0x267
 7875 2b10 743E0000 		.4byte	.LASF469
 7876 2b14 2C000000 		.4byte	0x2c
 7877 2b18 01       		.byte	0x1
 7878 2b19 212B0000 		.4byte	0x2b21
 7879 2b1d 272B0000 		.4byte	0x2b27
 7880 2b21 22       		.uleb128 0x22
ARM GAS  /tmp/ccWQ6gKG.s 			page 140


 7881 2b22 EE470000 		.4byte	0x47ee
 7882 2b26 00       		.byte	0
 7883 2b27 37       		.uleb128 0x37
 7884 2b28 B01C0000 		.4byte	.LASF251
 7885 2b2c 21       		.byte	0x21
 7886 2b2d 7602     		.2byte	0x276
 7887 2b2f 9F070000 		.4byte	.LASF470
 7888 2b33 01       		.byte	0x1
 7889 2b34 3C2B0000 		.4byte	0x2b3c
 7890 2b38 472B0000 		.4byte	0x2b47
 7891 2b3c 22       		.uleb128 0x22
 7892 2b3d F4470000 		.4byte	0x47f4
 7893 2b41 13       		.uleb128 0x13
 7894 2b42 FA470000 		.4byte	0x47fa
 7895 2b46 00       		.byte	0
 7896 2b47 36       		.uleb128 0x36
 7897 2b48 18120000 		.4byte	.LASF253
 7898 2b4c 21       		.byte	0x21
 7899 2b4d 8002     		.2byte	0x280
 7900 2b4f B1190000 		.4byte	.LASF471
 7901 2b53 FA000000 		.4byte	0xfa
 7902 2b57 01       		.byte	0x1
 7903 2b58 602B0000 		.4byte	0x2b60
 7904 2b5c 6B2B0000 		.4byte	0x2b6b
 7905 2b60 22       		.uleb128 0x22
 7906 2b61 F4470000 		.4byte	0x47f4
 7907 2b65 13       		.uleb128 0x13
 7908 2b66 FA470000 		.4byte	0x47fa
 7909 2b6a 00       		.byte	0
 7910 2b6b 36       		.uleb128 0x36
 7911 2b6c 51340000 		.4byte	.LASF255
 7912 2b70 21       		.byte	0x21
 7913 2b71 8A02     		.2byte	0x28a
 7914 2b73 1B030000 		.4byte	.LASF472
 7915 2b77 25000000 		.4byte	0x25
 7916 2b7b 01       		.byte	0x1
 7917 2b7c 842B0000 		.4byte	0x2b84
 7918 2b80 8F2B0000 		.4byte	0x2b8f
 7919 2b84 22       		.uleb128 0x22
 7920 2b85 EE470000 		.4byte	0x47ee
 7921 2b89 13       		.uleb128 0x13
 7922 2b8a C8470000 		.4byte	0x47c8
 7923 2b8e 00       		.byte	0
 7924 2b8f 36       		.uleb128 0x36
 7925 2b90 AB220000 		.4byte	.LASF257
 7926 2b94 21       		.byte	0x21
 7927 2b95 9B02     		.2byte	0x29b
 7928 2b97 D2080000 		.4byte	.LASF473
 7929 2b9b FA000000 		.4byte	0xfa
 7930 2b9f 01       		.byte	0x1
 7931 2ba0 A82B0000 		.4byte	0x2ba8
 7932 2ba4 B32B0000 		.4byte	0x2bb3
 7933 2ba8 22       		.uleb128 0x22
 7934 2ba9 EE470000 		.4byte	0x47ee
 7935 2bad 13       		.uleb128 0x13
 7936 2bae C8470000 		.4byte	0x47c8
 7937 2bb2 00       		.byte	0
ARM GAS  /tmp/ccWQ6gKG.s 			page 141


 7938 2bb3 36       		.uleb128 0x36
 7939 2bb4 2E370000 		.4byte	.LASF259
 7940 2bb8 21       		.byte	0x21
 7941 2bb9 AC02     		.2byte	0x2ac
 7942 2bbb AC490000 		.4byte	.LASF474
 7943 2bbf 00480000 		.4byte	0x4800
 7944 2bc3 01       		.byte	0x1
 7945 2bc4 CC2B0000 		.4byte	0x2bcc
 7946 2bc8 D72B0000 		.4byte	0x2bd7
 7947 2bcc 22       		.uleb128 0x22
 7948 2bcd EE470000 		.4byte	0x47ee
 7949 2bd1 13       		.uleb128 0x13
 7950 2bd2 91280000 		.4byte	0x2891
 7951 2bd6 00       		.byte	0
 7952 2bd7 36       		.uleb128 0x36
 7953 2bd8 2E370000 		.4byte	.LASF259
 7954 2bdc 21       		.byte	0x21
 7955 2bdd BC02     		.2byte	0x2bc
 7956 2bdf 64590000 		.4byte	.LASF475
 7957 2be3 00480000 		.4byte	0x4800
 7958 2be7 01       		.byte	0x1
 7959 2be8 F02B0000 		.4byte	0x2bf0
 7960 2bec 002C0000 		.4byte	0x2c00
 7961 2bf0 22       		.uleb128 0x22
 7962 2bf1 EE470000 		.4byte	0x47ee
 7963 2bf5 13       		.uleb128 0x13
 7964 2bf6 9D280000 		.4byte	0x289d
 7965 2bfa 13       		.uleb128 0x13
 7966 2bfb D6450000 		.4byte	0x45d6
 7967 2bff 00       		.byte	0
 7968 2c00 36       		.uleb128 0x36
 7969 2c01 95580000 		.4byte	.LASF262
 7970 2c05 21       		.byte	0x21
 7971 2c06 E001     		.2byte	0x1e0
 7972 2c08 D6330000 		.4byte	.LASF476
 7973 2c0c 1F2C0000 		.4byte	0x2c1f
 7974 2c10 01       		.byte	0x1
 7975 2c11 192C0000 		.4byte	0x2c19
 7976 2c15 1F2C0000 		.4byte	0x2c1f
 7977 2c19 22       		.uleb128 0x22
 7978 2c1a F4470000 		.4byte	0x47f4
 7979 2c1e 00       		.byte	0
 7980 2c1f 14       		.uleb128 0x14
 7981 2c20 1C270000 		.4byte	0x271c
 7982 2c24 38       		.uleb128 0x38
 7983 2c25 656E6400 		.ascii	"end\000"
 7984 2c29 21       		.byte	0x21
 7985 2c2a E401     		.2byte	0x1e4
 7986 2c2c 1F3F0000 		.4byte	.LASF477
 7987 2c30 1F2C0000 		.4byte	0x2c1f
 7988 2c34 01       		.byte	0x1
 7989 2c35 3D2C0000 		.4byte	0x2c3d
 7990 2c39 432C0000 		.4byte	0x2c43
 7991 2c3d 22       		.uleb128 0x22
 7992 2c3e F4470000 		.4byte	0x47f4
 7993 2c42 00       		.byte	0
 7994 2c43 37       		.uleb128 0x37
ARM GAS  /tmp/ccWQ6gKG.s 			page 142


 7995 2c44 2E110000 		.4byte	.LASF264
 7996 2c48 21       		.byte	0x21
 7997 2c49 E801     		.2byte	0x1e8
 7998 2c4b BE3F0000 		.4byte	.LASF478
 7999 2c4f 01       		.byte	0x1
 8000 2c50 582C0000 		.4byte	0x2c58
 8001 2c54 632C0000 		.4byte	0x2c63
 8002 2c58 22       		.uleb128 0x22
 8003 2c59 F4470000 		.4byte	0x47f4
 8004 2c5d 13       		.uleb128 0x13
 8005 2c5e 12480000 		.4byte	0x4812
 8006 2c62 00       		.byte	0
 8007 2c63 36       		.uleb128 0x36
 8008 2c64 95580000 		.4byte	.LASF262
 8009 2c68 21       		.byte	0x21
 8010 2c69 EC01     		.2byte	0x1ec
 8011 2c6b BF2C0000 		.4byte	.LASF479
 8012 2c6f 822C0000 		.4byte	0x2c82
 8013 2c73 01       		.byte	0x1
 8014 2c74 7C2C0000 		.4byte	0x2c7c
 8015 2c78 822C0000 		.4byte	0x2c82
 8016 2c7c 22       		.uleb128 0x22
 8017 2c7d EE470000 		.4byte	0x47ee
 8018 2c81 00       		.byte	0
 8019 2c82 14       		.uleb128 0x14
 8020 2c83 21270000 		.4byte	0x2721
 8021 2c87 38       		.uleb128 0x38
 8022 2c88 656E6400 		.ascii	"end\000"
 8023 2c8c 21       		.byte	0x21
 8024 2c8d F201     		.2byte	0x1f2
 8025 2c8f EB530000 		.4byte	.LASF480
 8026 2c93 822C0000 		.4byte	0x2c82
 8027 2c97 01       		.byte	0x1
 8028 2c98 A02C0000 		.4byte	0x2ca0
 8029 2c9c A62C0000 		.4byte	0x2ca6
 8030 2ca0 22       		.uleb128 0x22
 8031 2ca1 EE470000 		.4byte	0x47ee
 8032 2ca5 00       		.byte	0
 8033 2ca6 37       		.uleb128 0x37
 8034 2ca7 2E110000 		.4byte	.LASF264
 8035 2cab 21       		.byte	0x21
 8036 2cac F601     		.2byte	0x1f6
 8037 2cae B4320000 		.4byte	.LASF481
 8038 2cb2 01       		.byte	0x1
 8039 2cb3 BB2C0000 		.4byte	0x2cbb
 8040 2cb7 C62C0000 		.4byte	0x2cc6
 8041 2cbb 22       		.uleb128 0x22
 8042 2cbc EE470000 		.4byte	0x47ee
 8043 2cc0 13       		.uleb128 0x13
 8044 2cc1 18480000 		.4byte	0x4818
 8045 2cc5 00       		.byte	0
 8046 2cc6 39       		.uleb128 0x39
 8047 2cc7 E70F0000 		.4byte	.LASF270
 8048 2ccb 21       		.byte	0x21
 8049 2ccc FA01     		.2byte	0x1fa
 8050 2cce F4470000 		.4byte	0x47f4
 8051 2cd2 01       		.byte	0x1
ARM GAS  /tmp/ccWQ6gKG.s 			page 143


 8052 2cd3 DB2C0000 		.4byte	0x2cdb
 8053 2cd7 E12C0000 		.4byte	0x2ce1
 8054 2cdb 22       		.uleb128 0x22
 8055 2cdc F4470000 		.4byte	0x47f4
 8056 2ce0 00       		.byte	0
 8057 2ce1 14       		.uleb128 0x14
 8058 2ce2 0D270000 		.4byte	0x270d
 8059 2ce6 3A       		.uleb128 0x3a
 8060 2ce7 EE190000 		.4byte	.LASF271
 8061 2ceb 9F260000 		.4byte	0x269f
 8062 2cef 00       		.byte	0
 8063 2cf0 14       		.uleb128 0x14
 8064 2cf1 9F260000 		.4byte	0x269f
 8065 2cf5 14       		.uleb128 0x14
 8066 2cf6 AE260000 		.4byte	0x26ae
 8067 2cfa 20       		.uleb128 0x20
 8068 2cfb FA190000 		.4byte	.LASF482
 8069 2cff 14       		.byte	0x14
 8070 2d00 09       		.byte	0x9
 8071 2d01 09       		.byte	0x9
 8072 2d02 7A2E0000 		.4byte	0x2e7a
 8073 2d06 25       		.uleb128 0x25
 8074 2d07 390A0000 		.4byte	0xa39
 8075 2d0b 00       		.byte	0
 8076 2d0c 08       		.uleb128 0x8
 8077 2d0d A6130000 		.4byte	.LASF483
 8078 2d11 09       		.byte	0x9
 8079 2d12 0B       		.byte	0xb
 8080 2d13 23480000 		.4byte	0x4823
 8081 2d17 00       		.byte	0
 8082 2d18 08       		.uleb128 0x8
 8083 2d19 D30E0000 		.4byte	.LASF484
 8084 2d1d 09       		.byte	0x9
 8085 2d1e 0C       		.byte	0xc
 8086 2d1f 2C000000 		.4byte	0x2c
 8087 2d23 04       		.byte	0x4
 8088 2d24 08       		.uleb128 0x8
 8089 2d25 18300000 		.4byte	.LASF249
 8090 2d29 09       		.byte	0x9
 8091 2d2a 0D       		.byte	0xd
 8092 2d2b 2C000000 		.4byte	0x2c
 8093 2d2f 08       		.byte	0x8
 8094 2d30 08       		.uleb128 0x8
 8095 2d31 F6110000 		.4byte	.LASF195
 8096 2d35 09       		.byte	0x9
 8097 2d36 0E       		.byte	0xe
 8098 2d37 23480000 		.4byte	0x4823
 8099 2d3b 0C       		.byte	0xc
 8100 2d3c 08       		.uleb128 0x8
 8101 2d3d 71200000 		.4byte	.LASF485
 8102 2d41 09       		.byte	0x9
 8103 2d42 0F       		.byte	0xf
 8104 2d43 23480000 		.4byte	0x4823
 8105 2d47 10       		.byte	0x10
 8106 2d48 27       		.uleb128 0x27
 8107 2d49 F6480000 		.4byte	.LASF486
 8108 2d4d 09       		.byte	0x9
ARM GAS  /tmp/ccWQ6gKG.s 			page 144


 8109 2d4e 25       		.byte	0x25
 8110 2d4f D73C0000 		.4byte	.LASF487
 8111 2d53 FA000000 		.4byte	0xfa
 8112 2d57 01       		.byte	0x1
 8113 2d58 602D0000 		.4byte	0x2d60
 8114 2d5c 6B2D0000 		.4byte	0x2d6b
 8115 2d60 22       		.uleb128 0x22
 8116 2d61 29480000 		.4byte	0x4829
 8117 2d65 13       		.uleb128 0x13
 8118 2d66 77470000 		.4byte	0x4777
 8119 2d6a 00       		.byte	0
 8120 2d6b 27       		.uleb128 0x27
 8121 2d6c E2310000 		.4byte	.LASF273
 8122 2d70 09       		.byte	0x9
 8123 2d71 34       		.byte	0x34
 8124 2d72 DB270000 		.4byte	.LASF488
 8125 2d76 FA000000 		.4byte	0xfa
 8126 2d7a 01       		.byte	0x1
 8127 2d7b 832D0000 		.4byte	0x2d83
 8128 2d7f 8E2D0000 		.4byte	0x2d8e
 8129 2d83 22       		.uleb128 0x22
 8130 2d84 29480000 		.4byte	0x4829
 8131 2d88 13       		.uleb128 0x13
 8132 2d89 2F480000 		.4byte	0x482f
 8133 2d8d 00       		.byte	0
 8134 2d8e 27       		.uleb128 0x27
 8135 2d8f 6A350000 		.4byte	.LASF489
 8136 2d93 09       		.byte	0x9
 8137 2d94 43       		.byte	0x43
 8138 2d95 70110000 		.4byte	.LASF490
 8139 2d99 FA000000 		.4byte	0xfa
 8140 2d9d 01       		.byte	0x1
 8141 2d9e A62D0000 		.4byte	0x2da6
 8142 2da2 AC2D0000 		.4byte	0x2dac
 8143 2da6 22       		.uleb128 0x22
 8144 2da7 29480000 		.4byte	0x4829
 8145 2dab 00       		.byte	0
 8146 2dac 27       		.uleb128 0x27
 8147 2dad 38070000 		.4byte	.LASF491
 8148 2db1 09       		.byte	0x9
 8149 2db2 51       		.byte	0x51
 8150 2db3 DA350000 		.4byte	.LASF492
 8151 2db7 2C000000 		.4byte	0x2c
 8152 2dbb 01       		.byte	0x1
 8153 2dbc C42D0000 		.4byte	0x2dc4
 8154 2dc0 CA2D0000 		.4byte	0x2dca
 8155 2dc4 22       		.uleb128 0x22
 8156 2dc5 35480000 		.4byte	0x4835
 8157 2dc9 00       		.byte	0
 8158 2dca 27       		.uleb128 0x27
 8159 2dcb FC2E0000 		.4byte	.LASF493
 8160 2dcf 09       		.byte	0x9
 8161 2dd0 58       		.byte	0x58
 8162 2dd1 35470000 		.4byte	.LASF494
 8163 2dd5 2C000000 		.4byte	0x2c
 8164 2dd9 01       		.byte	0x1
 8165 2dda E22D0000 		.4byte	0x2de2
ARM GAS  /tmp/ccWQ6gKG.s 			page 145


 8166 2dde E82D0000 		.4byte	0x2de8
 8167 2de2 22       		.uleb128 0x22
 8168 2de3 35480000 		.4byte	0x4835
 8169 2de7 00       		.byte	0
 8170 2de8 27       		.uleb128 0x27
 8171 2de9 9A470000 		.4byte	.LASF495
 8172 2ded 09       		.byte	0x9
 8173 2dee 5F       		.byte	0x5f
 8174 2def 90390000 		.4byte	.LASF496
 8175 2df3 FA000000 		.4byte	0xfa
 8176 2df7 01       		.byte	0x1
 8177 2df8 002E0000 		.4byte	0x2e00
 8178 2dfc 0B2E0000 		.4byte	0x2e0b
 8179 2e00 22       		.uleb128 0x22
 8180 2e01 29480000 		.4byte	0x4829
 8181 2e05 13       		.uleb128 0x13
 8182 2e06 77470000 		.4byte	0x4777
 8183 2e0a 00       		.byte	0
 8184 2e0b 27       		.uleb128 0x27
 8185 2e0c 4A220000 		.4byte	.LASF497
 8186 2e10 09       		.byte	0x9
 8187 2e11 69       		.byte	0x69
 8188 2e12 B34C0000 		.4byte	.LASF498
 8189 2e16 FA000000 		.4byte	0xfa
 8190 2e1a 01       		.byte	0x1
 8191 2e1b 232E0000 		.4byte	0x2e23
 8192 2e1f 2E2E0000 		.4byte	0x2e2e
 8193 2e23 22       		.uleb128 0x22
 8194 2e24 29480000 		.4byte	0x4829
 8195 2e28 13       		.uleb128 0x13
 8196 2e29 2F480000 		.4byte	0x482f
 8197 2e2d 00       		.byte	0
 8198 2e2e 27       		.uleb128 0x27
 8199 2e2f 08160000 		.4byte	.LASF499
 8200 2e33 09       		.byte	0x9
 8201 2e34 73       		.byte	0x73
 8202 2e35 70470000 		.4byte	.LASF500
 8203 2e39 FA000000 		.4byte	0xfa
 8204 2e3d 01       		.byte	0x1
 8205 2e3e 462E0000 		.4byte	0x2e46
 8206 2e42 4C2E0000 		.4byte	0x2e4c
 8207 2e46 22       		.uleb128 0x22
 8208 2e47 29480000 		.4byte	0x4829
 8209 2e4b 00       		.byte	0
 8210 2e4c 23       		.uleb128 0x23
 8211 2e4d 384B0000 		.4byte	.LASF501
 8212 2e51 09       		.byte	0x9
 8213 2e52 7D       		.byte	0x7d
 8214 2e53 29480000 		.4byte	0x4829
 8215 2e57 01       		.byte	0x1
 8216 2e58 602E0000 		.4byte	0x2e60
 8217 2e5c 702E0000 		.4byte	0x2e70
 8218 2e60 22       		.uleb128 0x22
 8219 2e61 29480000 		.4byte	0x4829
 8220 2e65 13       		.uleb128 0x13
 8221 2e66 23480000 		.4byte	0x4823
 8222 2e6a 13       		.uleb128 0x13
ARM GAS  /tmp/ccWQ6gKG.s 			page 146


 8223 2e6b 2C000000 		.4byte	0x2c
 8224 2e6f 00       		.byte	0
 8225 2e70 3A       		.uleb128 0x3a
 8226 2e71 EE190000 		.4byte	.LASF271
 8227 2e75 77470000 		.4byte	0x4777
 8228 2e79 00       		.byte	0
 8229 2e7a 14       		.uleb128 0x14
 8230 2e7b FA2C0000 		.4byte	0x2cfa
 8231 2e7f 20       		.uleb128 0x20
 8232 2e80 7E2E0000 		.4byte	.LASF502
 8233 2e84 4C       		.byte	0x4c
 8234 2e85 23       		.byte	0x23
 8235 2e86 0C       		.byte	0xc
 8236 2e87 21300000 		.4byte	0x3021
 8237 2e8b 08       		.uleb128 0x8
 8238 2e8c 501A0000 		.4byte	.LASF139
 8239 2e90 23       		.byte	0x23
 8240 2e91 0E       		.byte	0xe
 8241 2e92 59010000 		.4byte	0x159
 8242 2e96 00       		.byte	0
 8243 2e97 26       		.uleb128 0x26
 8244 2e98 243A0000 		.4byte	.LASF503
 8245 2e9c 23       		.byte	0x23
 8246 2e9d 1C       		.byte	0x1c
 8247 2e9e 2D010000 		.4byte	0x12d
 8248 2ea2 01       		.byte	0x1
 8249 2ea3 26       		.uleb128 0x26
 8250 2ea4 FF300000 		.4byte	.LASF504
 8251 2ea8 23       		.byte	0x23
 8252 2ea9 1D       		.byte	0x1d
 8253 2eaa E3050000 		.4byte	0x5e3
 8254 2eae 01       		.byte	0x1
 8255 2eaf 27       		.uleb128 0x27
 8256 2eb0 85350000 		.4byte	.LASF351
 8257 2eb4 23       		.byte	0x23
 8258 2eb5 22       		.byte	0x22
 8259 2eb6 B31D0000 		.4byte	.LASF505
 8260 2eba C5050000 		.4byte	0x5c5
 8261 2ebe 01       		.byte	0x1
 8262 2ebf C72E0000 		.4byte	0x2ec7
 8263 2ec3 CD2E0000 		.4byte	0x2ecd
 8264 2ec7 22       		.uleb128 0x22
 8265 2ec8 40480000 		.4byte	0x4840
 8266 2ecc 00       		.byte	0
 8267 2ecd 27       		.uleb128 0x27
 8268 2ece E5220000 		.4byte	.LASF154
 8269 2ed2 23       		.byte	0x23
 8270 2ed3 24       		.byte	0x24
 8271 2ed4 52490000 		.4byte	.LASF506
 8272 2ed8 46480000 		.4byte	0x4846
 8273 2edc 01       		.byte	0x1
 8274 2edd E52E0000 		.4byte	0x2ee5
 8275 2ee1 EB2E0000 		.4byte	0x2eeb
 8276 2ee5 22       		.uleb128 0x22
 8277 2ee6 4C480000 		.4byte	0x484c
 8278 2eea 00       		.byte	0
 8279 2eeb 21       		.uleb128 0x21
ARM GAS  /tmp/ccWQ6gKG.s 			page 147


 8280 2eec 7E2E0000 		.4byte	.LASF502
 8281 2ef0 23       		.byte	0x23
 8282 2ef1 27       		.byte	0x27
 8283 2ef2 4C480000 		.4byte	0x484c
 8284 2ef6 FE2E0000 		.4byte	0x2efe
 8285 2efa 042F0000 		.4byte	0x2f04
 8286 2efe 22       		.uleb128 0x22
 8287 2eff 4C480000 		.4byte	0x484c
 8288 2f03 00       		.byte	0
 8289 2f04 41       		.uleb128 0x41
 8290 2f05 0E170000 		.4byte	.LASF507
 8291 2f09 23       		.byte	0x23
 8292 2f0a 2A       		.byte	0x2a
 8293 2f0b 89560000 		.4byte	.LASF508
 8294 2f0f 2C000000 		.4byte	0x2c
 8295 2f13 01       		.byte	0x1
 8296 2f14 1E2F0000 		.4byte	0x2f1e
 8297 2f18 13       		.uleb128 0x13
 8298 2f19 2C000000 		.4byte	0x2c
 8299 2f1d 00       		.byte	0
 8300 2f1e 41       		.uleb128 0x41
 8301 2f1f C0250000 		.4byte	.LASF509
 8302 2f23 23       		.byte	0x23
 8303 2f24 2B       		.byte	0x2b
 8304 2f25 C63B0000 		.4byte	.LASF510
 8305 2f29 4C480000 		.4byte	0x484c
 8306 2f2d 01       		.byte	0x1
 8307 2f2e 512F0000 		.4byte	0x2f51
 8308 2f32 13       		.uleb128 0x13
 8309 2f33 07030000 		.4byte	0x307
 8310 2f37 13       		.uleb128 0x13
 8311 2f38 2C000000 		.4byte	0x2c
 8312 2f3c 13       		.uleb128 0x13
 8313 2f3d 972E0000 		.4byte	0x2e97
 8314 2f41 13       		.uleb128 0x13
 8315 2f42 A32E0000 		.4byte	0x2ea3
 8316 2f46 13       		.uleb128 0x13
 8317 2f47 07030000 		.4byte	0x307
 8318 2f4b 13       		.uleb128 0x13
 8319 2f4c C5050000 		.4byte	0x5c5
 8320 2f50 00       		.byte	0
 8321 2f51 41       		.uleb128 0x41
 8322 2f52 6C380000 		.4byte	.LASF511
 8323 2f56 23       		.byte	0x23
 8324 2f57 2F       		.byte	0x2f
 8325 2f58 7C510000 		.4byte	.LASF512
 8326 2f5c 4C480000 		.4byte	0x484c
 8327 2f60 01       		.byte	0x1
 8328 2f61 842F0000 		.4byte	0x2f84
 8329 2f65 13       		.uleb128 0x13
 8330 2f66 07030000 		.4byte	0x307
 8331 2f6a 13       		.uleb128 0x13
 8332 2f6b 2C000000 		.4byte	0x2c
 8333 2f6f 13       		.uleb128 0x13
 8334 2f70 972E0000 		.4byte	0x2e97
 8335 2f74 13       		.uleb128 0x13
 8336 2f75 A32E0000 		.4byte	0x2ea3
ARM GAS  /tmp/ccWQ6gKG.s 			page 148


 8337 2f79 13       		.uleb128 0x13
 8338 2f7a 07030000 		.4byte	0x307
 8339 2f7e 13       		.uleb128 0x13
 8340 2f7f C5050000 		.4byte	0x5c5
 8341 2f83 00       		.byte	0
 8342 2f84 41       		.uleb128 0x41
 8343 2f85 9F350000 		.4byte	.LASF513
 8344 2f89 23       		.byte	0x23
 8345 2f8a 32       		.byte	0x32
 8346 2f8b 6D2B0000 		.4byte	.LASF514
 8347 2f8f 4C480000 		.4byte	0x484c
 8348 2f93 01       		.byte	0x1
 8349 2f94 B22F0000 		.4byte	0x2fb2
 8350 2f98 13       		.uleb128 0x13
 8351 2f99 52480000 		.4byte	0x4852
 8352 2f9d 13       		.uleb128 0x13
 8353 2f9e 972E0000 		.4byte	0x2e97
 8354 2fa2 13       		.uleb128 0x13
 8355 2fa3 A32E0000 		.4byte	0x2ea3
 8356 2fa7 13       		.uleb128 0x13
 8357 2fa8 07030000 		.4byte	0x307
 8358 2fac 13       		.uleb128 0x13
 8359 2fad C5050000 		.4byte	0x5c5
 8360 2fb1 00       		.byte	0
 8361 2fb2 42       		.uleb128 0x42
 8362 2fb3 51190000 		.4byte	.LASF515
 8363 2fb7 23       		.byte	0x23
 8364 2fb8 35       		.byte	0x35
 8365 2fb9 27080000 		.4byte	.LASF517
 8366 2fbd 58480000 		.4byte	0x4858
 8367 2fc1 01       		.byte	0x1
 8368 2fc2 42       		.uleb128 0x42
 8369 2fc3 513E0000 		.4byte	.LASF516
 8370 2fc7 23       		.byte	0x23
 8371 2fc8 36       		.byte	0x36
 8372 2fc9 963D0000 		.4byte	.LASF518
 8373 2fcd 972E0000 		.4byte	0x2e97
 8374 2fd1 01       		.byte	0x1
 8375 2fd2 40       		.uleb128 0x40
 8376 2fd3 420C0000 		.4byte	.LASF519
 8377 2fd7 23       		.byte	0x23
 8378 2fd8 37       		.byte	0x37
 8379 2fd9 BC210000 		.4byte	.LASF520
 8380 2fdd 01       		.byte	0x1
 8381 2fde E82F0000 		.4byte	0x2fe8
 8382 2fe2 13       		.uleb128 0x13
 8383 2fe3 972E0000 		.4byte	0x2e97
 8384 2fe7 00       		.byte	0
 8385 2fe8 43       		.uleb128 0x43
 8386 2fe9 EE220000 		.4byte	.LASF538
 8387 2fed 23       		.byte	0x23
 8388 2fee 38       		.byte	0x38
 8389 2fef A0330000 		.4byte	.LASF539
 8390 2ff3 01       		.byte	0x1
 8391 2ff4 40       		.uleb128 0x40
 8392 2ff5 674C0000 		.4byte	.LASF521
 8393 2ff9 23       		.byte	0x23
ARM GAS  /tmp/ccWQ6gKG.s 			page 149


 8394 2ffa 39       		.byte	0x39
 8395 2ffb 20410000 		.4byte	.LASF522
 8396 2fff 01       		.byte	0x1
 8397 3000 0A300000 		.4byte	0x300a
 8398 3004 13       		.uleb128 0x13
 8399 3005 08460000 		.4byte	0x4608
 8400 3009 00       		.byte	0
 8401 300a 3F       		.uleb128 0x3f
 8402 300b E14C0000 		.4byte	.LASF523
 8403 300f 23       		.byte	0x23
 8404 3010 3A       		.byte	0x3a
 8405 3011 FE2F0000 		.4byte	.LASF524
 8406 3015 FA000000 		.4byte	0xfa
 8407 3019 01       		.byte	0x1
 8408 301a 13       		.uleb128 0x13
 8409 301b 58480000 		.4byte	0x4858
 8410 301f 00       		.byte	0
 8411 3020 00       		.byte	0
 8412 3021 14       		.uleb128 0x14
 8413 3022 7F2E0000 		.4byte	0x2e7f
 8414 3026 20       		.uleb128 0x20
 8415 3027 A8180000 		.4byte	.LASF31
 8416 302b 4C       		.byte	0x4c
 8417 302c 24       		.byte	0x24
 8418 302d 0C       		.byte	0xc
 8419 302e B7310000 		.4byte	0x31b7
 8420 3032 44       		.uleb128 0x44
 8421 3033 DE160000 		.4byte	.LASF773
 8422 3037 01       		.byte	0x1
 8423 3038 24       		.byte	0x24
 8424 3039 0E       		.byte	0xe
 8425 303a 01       		.byte	0x1
 8426 303b 67300000 		.4byte	0x3067
 8427 303f 18       		.uleb128 0x18
 8428 3040 B2150000 		.4byte	.LASF525
 8429 3044 00       		.sleb128 0
 8430 3045 18       		.uleb128 0x18
 8431 3046 821A0000 		.4byte	.LASF526
 8432 304a 01       		.sleb128 1
 8433 304b 18       		.uleb128 0x18
 8434 304c 0C1E0000 		.4byte	.LASF527
 8435 3050 02       		.sleb128 2
 8436 3051 18       		.uleb128 0x18
 8437 3052 30210000 		.4byte	.LASF528
 8438 3056 C000     		.sleb128 64
 8439 3058 18       		.uleb128 0x18
 8440 3059 79100000 		.4byte	.LASF529
 8441 305d FE00     		.sleb128 126
 8442 305f 18       		.uleb128 0x18
 8443 3060 CC500000 		.4byte	.LASF530
 8444 3064 FF00     		.sleb128 127
 8445 3066 00       		.byte	0
 8446 3067 25       		.uleb128 0x25
 8447 3068 390A0000 		.4byte	0xa39
 8448 306c 00       		.byte	0
 8449 306d 08       		.uleb128 0x8
 8450 306e 501A0000 		.4byte	.LASF139
ARM GAS  /tmp/ccWQ6gKG.s 			page 150


 8451 3072 24       		.byte	0x24
 8452 3073 1F       		.byte	0x1f
 8453 3074 7F2E0000 		.4byte	0x2e7f
 8454 3078 00       		.byte	0
 8455 3079 26       		.uleb128 0x26
 8456 307a 243A0000 		.4byte	.LASF503
 8457 307e 24       		.byte	0x24
 8458 307f 19       		.byte	0x19
 8459 3080 972E0000 		.4byte	0x2e97
 8460 3084 01       		.byte	0x1
 8461 3085 26       		.uleb128 0x26
 8462 3086 FF300000 		.4byte	.LASF504
 8463 308a 24       		.byte	0x24
 8464 308b 1A       		.byte	0x1a
 8465 308c A32E0000 		.4byte	0x2ea3
 8466 3090 01       		.byte	0x1
 8467 3091 27       		.uleb128 0x27
 8468 3092 85350000 		.4byte	.LASF351
 8469 3096 24       		.byte	0x24
 8470 3097 23       		.byte	0x23
 8471 3098 CE250000 		.4byte	.LASF531
 8472 309c C5050000 		.4byte	0x5c5
 8473 30a0 01       		.byte	0x1
 8474 30a1 A9300000 		.4byte	0x30a9
 8475 30a5 AF300000 		.4byte	0x30af
 8476 30a9 22       		.uleb128 0x22
 8477 30aa 5E480000 		.4byte	0x485e
 8478 30ae 00       		.byte	0
 8479 30af 21       		.uleb128 0x21
 8480 30b0 A8180000 		.4byte	.LASF31
 8481 30b4 24       		.byte	0x24
 8482 30b5 26       		.byte	0x26
 8483 30b6 64480000 		.4byte	0x4864
 8484 30ba C2300000 		.4byte	0x30c2
 8485 30be C8300000 		.4byte	0x30c8
 8486 30c2 22       		.uleb128 0x22
 8487 30c3 64480000 		.4byte	0x4864
 8488 30c7 00       		.byte	0
 8489 30c8 41       		.uleb128 0x41
 8490 30c9 0E170000 		.4byte	.LASF507
 8491 30cd 24       		.byte	0x24
 8492 30ce 29       		.byte	0x29
 8493 30cf 48330000 		.4byte	.LASF532
 8494 30d3 2C000000 		.4byte	0x2c
 8495 30d7 01       		.byte	0x1
 8496 30d8 E2300000 		.4byte	0x30e2
 8497 30dc 13       		.uleb128 0x13
 8498 30dd 2C000000 		.4byte	0x2c
 8499 30e1 00       		.byte	0
 8500 30e2 41       		.uleb128 0x41
 8501 30e3 C0250000 		.4byte	.LASF509
 8502 30e7 24       		.byte	0x24
 8503 30e8 2A       		.byte	0x2a
 8504 30e9 9B580000 		.4byte	.LASF533
 8505 30ed 64480000 		.4byte	0x4864
 8506 30f1 01       		.byte	0x1
 8507 30f2 15310000 		.4byte	0x3115
ARM GAS  /tmp/ccWQ6gKG.s 			page 151


 8508 30f6 13       		.uleb128 0x13
 8509 30f7 07030000 		.4byte	0x307
 8510 30fb 13       		.uleb128 0x13
 8511 30fc 2C000000 		.4byte	0x2c
 8512 3100 13       		.uleb128 0x13
 8513 3101 79300000 		.4byte	0x3079
 8514 3105 13       		.uleb128 0x13
 8515 3106 85300000 		.4byte	0x3085
 8516 310a 13       		.uleb128 0x13
 8517 310b 07030000 		.4byte	0x307
 8518 310f 13       		.uleb128 0x13
 8519 3110 C5050000 		.4byte	0x5c5
 8520 3114 00       		.byte	0
 8521 3115 41       		.uleb128 0x41
 8522 3116 6C380000 		.4byte	.LASF511
 8523 311a 24       		.byte	0x24
 8524 311b 2D       		.byte	0x2d
 8525 311c E11A0000 		.4byte	.LASF534
 8526 3120 64480000 		.4byte	0x4864
 8527 3124 01       		.byte	0x1
 8528 3125 48310000 		.4byte	0x3148
 8529 3129 13       		.uleb128 0x13
 8530 312a 07030000 		.4byte	0x307
 8531 312e 13       		.uleb128 0x13
 8532 312f 2C000000 		.4byte	0x2c
 8533 3133 13       		.uleb128 0x13
 8534 3134 79300000 		.4byte	0x3079
 8535 3138 13       		.uleb128 0x13
 8536 3139 85300000 		.4byte	0x3085
 8537 313d 13       		.uleb128 0x13
 8538 313e 07030000 		.4byte	0x307
 8539 3142 13       		.uleb128 0x13
 8540 3143 C5050000 		.4byte	0x5c5
 8541 3147 00       		.byte	0
 8542 3148 42       		.uleb128 0x42
 8543 3149 51190000 		.4byte	.LASF515
 8544 314d 24       		.byte	0x24
 8545 314e 36       		.byte	0x36
 8546 314f F73B0000 		.4byte	.LASF535
 8547 3153 6A480000 		.4byte	0x486a
 8548 3157 01       		.byte	0x1
 8549 3158 42       		.uleb128 0x42
 8550 3159 513E0000 		.4byte	.LASF516
 8551 315d 24       		.byte	0x24
 8552 315e 37       		.byte	0x37
 8553 315f F4220000 		.4byte	.LASF536
 8554 3163 79300000 		.4byte	0x3079
 8555 3167 01       		.byte	0x1
 8556 3168 40       		.uleb128 0x40
 8557 3169 420C0000 		.4byte	.LASF519
 8558 316d 24       		.byte	0x24
 8559 316e 38       		.byte	0x38
 8560 316f 5D3A0000 		.4byte	.LASF537
 8561 3173 01       		.byte	0x1
 8562 3174 7E310000 		.4byte	0x317e
 8563 3178 13       		.uleb128 0x13
 8564 3179 79300000 		.4byte	0x3079
ARM GAS  /tmp/ccWQ6gKG.s 			page 152


 8565 317d 00       		.byte	0
 8566 317e 43       		.uleb128 0x43
 8567 317f EE220000 		.4byte	.LASF538
 8568 3183 24       		.byte	0x24
 8569 3184 39       		.byte	0x39
 8570 3185 03130000 		.4byte	.LASF540
 8571 3189 01       		.byte	0x1
 8572 318a 40       		.uleb128 0x40
 8573 318b 674C0000 		.4byte	.LASF521
 8574 318f 24       		.byte	0x24
 8575 3190 3A       		.byte	0x3a
 8576 3191 78430000 		.4byte	.LASF541
 8577 3195 01       		.byte	0x1
 8578 3196 A0310000 		.4byte	0x31a0
 8579 319a 13       		.uleb128 0x13
 8580 319b 08460000 		.4byte	0x4608
 8581 319f 00       		.byte	0
 8582 31a0 3F       		.uleb128 0x3f
 8583 31a1 E14C0000 		.4byte	.LASF523
 8584 31a5 24       		.byte	0x24
 8585 31a6 3B       		.byte	0x3b
 8586 31a7 BD330000 		.4byte	.LASF542
 8587 31ab FA000000 		.4byte	0xfa
 8588 31af 01       		.byte	0x1
 8589 31b0 13       		.uleb128 0x13
 8590 31b1 6A480000 		.4byte	0x486a
 8591 31b5 00       		.byte	0
 8592 31b6 00       		.byte	0
 8593 31b7 14       		.uleb128 0x14
 8594 31b8 26300000 		.4byte	0x3026
 8595 31bc 20       		.uleb128 0x20
 8596 31bd FE160000 		.4byte	.LASF543
 8597 31c1 04       		.byte	0x4
 8598 31c2 03       		.byte	0x3
 8599 31c3 0B       		.byte	0xb
 8600 31c4 A5320000 		.4byte	0x32a5
 8601 31c8 08       		.uleb128 0x8
 8602 31c9 2A140000 		.4byte	.LASF544
 8603 31cd 03       		.byte	0x3
 8604 31ce 13       		.byte	0x13
 8605 31cf 64480000 		.4byte	0x4864
 8606 31d3 00       		.byte	0
 8607 31d4 26       		.uleb128 0x26
 8608 31d5 6B3D0000 		.4byte	.LASF545
 8609 31d9 03       		.byte	0x3
 8610 31da 0D       		.byte	0xd
 8611 31db 43010000 		.4byte	0x143
 8612 31df 01       		.byte	0x1
 8613 31e0 03       		.uleb128 0x3
 8614 31e1 00400000 		.4byte	.LASF546
 8615 31e5 03       		.byte	0x3
 8616 31e6 10       		.byte	0x10
 8617 31e7 59010000 		.4byte	0x159
 8618 31eb 27       		.uleb128 0x27
 8619 31ec F0020000 		.4byte	.LASF547
 8620 31f0 03       		.byte	0x3
 8621 31f1 16       		.byte	0x16
ARM GAS  /tmp/ccWQ6gKG.s 			page 153


 8622 31f2 62040000 		.4byte	.LASF548
 8623 31f6 64480000 		.4byte	0x4864
 8624 31fa 01       		.byte	0x1
 8625 31fb 03320000 		.4byte	0x3203
 8626 31ff 09320000 		.4byte	0x3209
 8627 3203 22       		.uleb128 0x22
 8628 3204 70480000 		.4byte	0x4870
 8629 3208 00       		.byte	0
 8630 3209 28       		.uleb128 0x28
 8631 320a 3E1C0000 		.4byte	.LASF549
 8632 320e 03       		.byte	0x3
 8633 320f 17       		.byte	0x17
 8634 3210 DF370000 		.4byte	.LASF550
 8635 3214 01       		.byte	0x1
 8636 3215 1D320000 		.4byte	0x321d
 8637 3219 28320000 		.4byte	0x3228
 8638 321d 22       		.uleb128 0x22
 8639 321e 76480000 		.4byte	0x4876
 8640 3222 13       		.uleb128 0x13
 8641 3223 64480000 		.4byte	0x4864
 8642 3227 00       		.byte	0
 8643 3228 28       		.uleb128 0x28
 8644 3229 73140000 		.4byte	.LASF551
 8645 322d 03       		.byte	0x3
 8646 322e 19       		.byte	0x19
 8647 322f 64420000 		.4byte	.LASF552
 8648 3233 01       		.byte	0x1
 8649 3234 3C320000 		.4byte	0x323c
 8650 3238 47320000 		.4byte	0x3247
 8651 323c 22       		.uleb128 0x22
 8652 323d 76480000 		.4byte	0x4876
 8653 3241 13       		.uleb128 0x13
 8654 3242 37000000 		.4byte	0x37
 8655 3246 00       		.byte	0
 8656 3247 28       		.uleb128 0x28
 8657 3248 14080000 		.4byte	.LASF553
 8658 324c 03       		.byte	0x3
 8659 324d 1B       		.byte	0x1b
 8660 324e 2F2B0000 		.4byte	.LASF554
 8661 3252 01       		.byte	0x1
 8662 3253 5B320000 		.4byte	0x325b
 8663 3257 66320000 		.4byte	0x3266
 8664 325b 22       		.uleb128 0x22
 8665 325c 76480000 		.4byte	0x4876
 8666 3260 13       		.uleb128 0x13
 8667 3261 37000000 		.4byte	0x37
 8668 3265 00       		.byte	0
 8669 3266 27       		.uleb128 0x27
 8670 3267 CB050000 		.4byte	.LASF555
 8671 326b 03       		.byte	0x3
 8672 326c 1C       		.byte	0x1c
 8673 326d B5290000 		.4byte	.LASF556
 8674 3271 D4310000 		.4byte	0x31d4
 8675 3275 01       		.byte	0x1
 8676 3276 7E320000 		.4byte	0x327e
 8677 327a 89320000 		.4byte	0x3289
 8678 327e 22       		.uleb128 0x22
ARM GAS  /tmp/ccWQ6gKG.s 			page 154


 8679 327f 76480000 		.4byte	0x4876
 8680 3283 13       		.uleb128 0x13
 8681 3284 08460000 		.4byte	0x4608
 8682 3288 00       		.byte	0
 8683 3289 24       		.uleb128 0x24
 8684 328a FE160000 		.4byte	.LASF543
 8685 328e 03       		.byte	0x3
 8686 328f 1F       		.byte	0x1f
 8687 3290 76480000 		.4byte	0x4876
 8688 3294 01       		.byte	0x1
 8689 3295 99320000 		.4byte	0x3299
 8690 3299 22       		.uleb128 0x22
 8691 329a 76480000 		.4byte	0x4876
 8692 329e 13       		.uleb128 0x13
 8693 329f 64480000 		.4byte	0x4864
 8694 32a3 00       		.byte	0
 8695 32a4 00       		.byte	0
 8696 32a5 14       		.uleb128 0x14
 8697 32a6 BC310000 		.4byte	0x31bc
 8698 32aa 20       		.uleb128 0x20
 8699 32ab 81450000 		.4byte	.LASF557
 8700 32af 04       		.byte	0x4
 8701 32b0 04       		.byte	0x4
 8702 32b1 0B       		.byte	0xb
 8703 32b2 8E330000 		.4byte	0x338e
 8704 32b6 25       		.uleb128 0x25
 8705 32b7 390A0000 		.4byte	0xa39
 8706 32bb 00       		.byte	0
 8707 32bc 08       		.uleb128 0x8
 8708 32bd 501A0000 		.4byte	.LASF139
 8709 32c1 04       		.byte	0x4
 8710 32c2 12       		.byte	0x12
 8711 32c3 BC310000 		.4byte	0x31bc
 8712 32c7 00       		.byte	0
 8713 32c8 26       		.uleb128 0x26
 8714 32c9 6B3D0000 		.4byte	.LASF545
 8715 32cd 04       		.byte	0x4
 8716 32ce 0D       		.byte	0xd
 8717 32cf D4310000 		.4byte	0x31d4
 8718 32d3 01       		.byte	0x1
 8719 32d4 27       		.uleb128 0x27
 8720 32d5 F0020000 		.4byte	.LASF547
 8721 32d9 04       		.byte	0x4
 8722 32da 15       		.byte	0x15
 8723 32db 9F010000 		.4byte	.LASF558
 8724 32df 64480000 		.4byte	0x4864
 8725 32e3 01       		.byte	0x1
 8726 32e4 EC320000 		.4byte	0x32ec
 8727 32e8 F2320000 		.4byte	0x32f2
 8728 32ec 22       		.uleb128 0x22
 8729 32ed 7C480000 		.4byte	0x487c
 8730 32f1 00       		.byte	0
 8731 32f2 28       		.uleb128 0x28
 8732 32f3 3E1C0000 		.4byte	.LASF549
 8733 32f7 04       		.byte	0x4
 8734 32f8 16       		.byte	0x16
 8735 32f9 D82B0000 		.4byte	.LASF559
ARM GAS  /tmp/ccWQ6gKG.s 			page 155


 8736 32fd 01       		.byte	0x1
 8737 32fe 06330000 		.4byte	0x3306
 8738 3302 11330000 		.4byte	0x3311
 8739 3306 22       		.uleb128 0x22
 8740 3307 82480000 		.4byte	0x4882
 8741 330b 13       		.uleb128 0x13
 8742 330c 64480000 		.4byte	0x4864
 8743 3310 00       		.byte	0
 8744 3311 28       		.uleb128 0x28
 8745 3312 73140000 		.4byte	.LASF551
 8746 3316 04       		.byte	0x4
 8747 3317 18       		.byte	0x18
 8748 3318 F02A0000 		.4byte	.LASF560
 8749 331c 01       		.byte	0x1
 8750 331d 25330000 		.4byte	0x3325
 8751 3321 30330000 		.4byte	0x3330
 8752 3325 22       		.uleb128 0x22
 8753 3326 82480000 		.4byte	0x4882
 8754 332a 13       		.uleb128 0x13
 8755 332b 37000000 		.4byte	0x37
 8756 332f 00       		.byte	0
 8757 3330 28       		.uleb128 0x28
 8758 3331 14080000 		.4byte	.LASF553
 8759 3335 04       		.byte	0x4
 8760 3336 1A       		.byte	0x1a
 8761 3337 671A0000 		.4byte	.LASF561
 8762 333b 01       		.byte	0x1
 8763 333c 44330000 		.4byte	0x3344
 8764 3340 4F330000 		.4byte	0x334f
 8765 3344 22       		.uleb128 0x22
 8766 3345 82480000 		.4byte	0x4882
 8767 3349 13       		.uleb128 0x13
 8768 334a 37000000 		.4byte	0x37
 8769 334e 00       		.byte	0
 8770 334f 27       		.uleb128 0x27
 8771 3350 CB050000 		.4byte	.LASF555
 8772 3354 04       		.byte	0x4
 8773 3355 1B       		.byte	0x1b
 8774 3356 FC570000 		.4byte	.LASF562
 8775 335a C8320000 		.4byte	0x32c8
 8776 335e 01       		.byte	0x1
 8777 335f 67330000 		.4byte	0x3367
 8778 3363 72330000 		.4byte	0x3372
 8779 3367 22       		.uleb128 0x22
 8780 3368 82480000 		.4byte	0x4882
 8781 336c 13       		.uleb128 0x13
 8782 336d 08460000 		.4byte	0x4608
 8783 3371 00       		.byte	0
 8784 3372 24       		.uleb128 0x24
 8785 3373 81450000 		.4byte	.LASF557
 8786 3377 04       		.byte	0x4
 8787 3378 1E       		.byte	0x1e
 8788 3379 82480000 		.4byte	0x4882
 8789 337d 01       		.byte	0x1
 8790 337e 82330000 		.4byte	0x3382
 8791 3382 22       		.uleb128 0x22
 8792 3383 82480000 		.4byte	0x4882
ARM GAS  /tmp/ccWQ6gKG.s 			page 156


 8793 3387 13       		.uleb128 0x13
 8794 3388 64480000 		.4byte	0x4864
 8795 338c 00       		.byte	0
 8796 338d 00       		.byte	0
 8797 338e 14       		.uleb128 0x14
 8798 338f AA320000 		.4byte	0x32aa
 8799 3393 20       		.uleb128 0x20
 8800 3394 21520000 		.4byte	.LASF563
 8801 3398 04       		.byte	0x4
 8802 3399 21       		.byte	0x21
 8803 339a 0F       		.byte	0xf
 8804 339b D5390000 		.4byte	0x39d5
 8805 339f 25       		.uleb128 0x25
 8806 33a0 390A0000 		.4byte	0xa39
 8807 33a4 00       		.byte	0
 8808 33a5 2F       		.uleb128 0x2f
 8809 33a6 21500000 		.4byte	.LASF194
 8810 33aa 08       		.byte	0x8
 8811 33ab 21       		.byte	0x21
 8812 33ac 11       		.byte	0x11
 8813 33ad 01       		.byte	0x1
 8814 33ae E5330000 		.4byte	0x33e5
 8815 33b2 08       		.uleb128 0x8
 8816 33b3 AA290000 		.4byte	.LASF192
 8817 33b7 21       		.byte	0x21
 8818 33b8 12       		.byte	0x12
 8819 33b9 88480000 		.4byte	0x4888
 8820 33bd 00       		.byte	0
 8821 33be 08       		.uleb128 0x8
 8822 33bf 74180000 		.4byte	.LASF193
 8823 33c3 21       		.byte	0x21
 8824 33c4 13       		.byte	0x13
 8825 33c5 F9480000 		.4byte	0x48f9
 8826 33c9 04       		.byte	0x4
 8827 33ca 30       		.uleb128 0x30
 8828 33cb 21500000 		.4byte	.LASF194
 8829 33cf 21       		.byte	0x21
 8830 33d0 15       		.byte	0x15
 8831 33d1 88480000 		.4byte	0x4888
 8832 33d5 D9330000 		.4byte	0x33d9
 8833 33d9 22       		.uleb128 0x22
 8834 33da 88480000 		.4byte	0x4888
 8835 33de 13       		.uleb128 0x13
 8836 33df FE480000 		.4byte	0x48fe
 8837 33e3 00       		.byte	0
 8838 33e4 00       		.byte	0
 8839 33e5 19       		.uleb128 0x19
 8840 33e6 F6110000 		.4byte	.LASF195
 8841 33ea 21       		.byte	0x21
 8842 33eb 8A01     		.2byte	0x18a
 8843 33ed 88480000 		.4byte	0x4888
 8844 33f1 00       		.byte	0
 8845 33f2 31       		.uleb128 0x31
 8846 33f3 13250000 		.4byte	.LASF442
 8847 33f7 32       		.uleb128 0x32
 8848 33f8 411D0000 		.4byte	.LASF196
 8849 33fc 32       		.uleb128 0x32
ARM GAS  /tmp/ccWQ6gKG.s 			page 157


 8850 33fd 1B2B0000 		.4byte	.LASF197
 8851 3401 32       		.uleb128 0x32
 8852 3402 ED490000 		.4byte	.LASF198
 8853 3406 33       		.uleb128 0x33
 8854 3407 5E380000 		.4byte	.LASF200
 8855 340b 04       		.byte	0x4
 8856 340c 21       		.byte	0x21
 8857 340d C0       		.byte	0xc0
 8858 340e 01       		.byte	0x1
 8859 340f 76350000 		.4byte	0x3576
 8860 3413 08       		.uleb128 0x8
 8861 3414 FE120000 		.4byte	.LASF199
 8862 3418 21       		.byte	0x21
 8863 3419 C4       		.byte	0xc4
 8864 341a 21490000 		.4byte	0x4921
 8865 341e 00       		.byte	0
 8866 341f 23       		.uleb128 0x23
 8867 3420 5E380000 		.4byte	.LASF200
 8868 3424 21       		.byte	0x21
 8869 3425 C7       		.byte	0xc7
 8870 3426 27490000 		.4byte	0x4927
 8871 342a 01       		.byte	0x1
 8872 342b 33340000 		.4byte	0x3433
 8873 342f 39340000 		.4byte	0x3439
 8874 3433 22       		.uleb128 0x22
 8875 3434 27490000 		.4byte	0x4927
 8876 3438 00       		.byte	0
 8877 3439 23       		.uleb128 0x23
 8878 343a 5E380000 		.4byte	.LASF200
 8879 343e 21       		.byte	0x21
 8880 343f C8       		.byte	0xc8
 8881 3440 27490000 		.4byte	0x4927
 8882 3444 01       		.byte	0x1
 8883 3445 4D340000 		.4byte	0x344d
 8884 3449 58340000 		.4byte	0x3458
 8885 344d 22       		.uleb128 0x22
 8886 344e 27490000 		.4byte	0x4927
 8887 3452 13       		.uleb128 0x13
 8888 3453 2D490000 		.4byte	0x492d
 8889 3457 00       		.byte	0
 8890 3458 21       		.uleb128 0x21
 8891 3459 5E380000 		.4byte	.LASF200
 8892 345d 21       		.byte	0x21
 8893 345e CB       		.byte	0xcb
 8894 345f 27490000 		.4byte	0x4927
 8895 3463 6B340000 		.4byte	0x346b
 8896 3467 76340000 		.4byte	0x3476
 8897 346b 22       		.uleb128 0x22
 8898 346c 27490000 		.4byte	0x4927
 8899 3470 13       		.uleb128 0x13
 8900 3471 21490000 		.4byte	0x4921
 8901 3475 00       		.byte	0
 8902 3476 34       		.uleb128 0x34
 8903 3477 92120000 		.4byte	.LASF178
 8904 347b 21       		.byte	0x21
 8905 347c CE       		.byte	0xce
 8906 347d 174D0000 		.4byte	.LASF564
ARM GAS  /tmp/ccWQ6gKG.s 			page 158


 8907 3481 F3480000 		.4byte	0x48f3
 8908 3485 8D340000 		.4byte	0x348d
 8909 3489 98340000 		.4byte	0x3498
 8910 348d 22       		.uleb128 0x22
 8911 348e 27490000 		.4byte	0x4927
 8912 3492 13       		.uleb128 0x13
 8913 3493 2D490000 		.4byte	0x492d
 8914 3497 00       		.byte	0
 8915 3498 27       		.uleb128 0x27
 8916 3499 693E0000 		.4byte	.LASF202
 8917 349d 21       		.byte	0x21
 8918 349e D4       		.byte	0xd4
 8919 349f C7170000 		.4byte	.LASF565
 8920 34a3 04490000 		.4byte	0x4904
 8921 34a7 01       		.byte	0x1
 8922 34a8 B0340000 		.4byte	0x34b0
 8923 34ac B6340000 		.4byte	0x34b6
 8924 34b0 22       		.uleb128 0x22
 8925 34b1 33490000 		.4byte	0x4933
 8926 34b5 00       		.byte	0
 8927 34b6 27       		.uleb128 0x27
 8928 34b7 1F120000 		.4byte	.LASF204
 8929 34bb 21       		.byte	0x21
 8930 34bc D8       		.byte	0xd8
 8931 34bd 55030000 		.4byte	.LASF566
 8932 34c1 A3480000 		.4byte	0x48a3
 8933 34c5 01       		.byte	0x1
 8934 34c6 CE340000 		.4byte	0x34ce
 8935 34ca D4340000 		.4byte	0x34d4
 8936 34ce 22       		.uleb128 0x22
 8937 34cf 33490000 		.4byte	0x4933
 8938 34d3 00       		.byte	0
 8939 34d4 27       		.uleb128 0x27
 8940 34d5 B13B0000 		.4byte	.LASF206
 8941 34d9 21       		.byte	0x21
 8942 34da DC       		.byte	0xdc
 8943 34db BD570000 		.4byte	.LASF567
 8944 34df F3480000 		.4byte	0x48f3
 8945 34e3 01       		.byte	0x1
 8946 34e4 EC340000 		.4byte	0x34ec
 8947 34e8 F2340000 		.4byte	0x34f2
 8948 34ec 22       		.uleb128 0x22
 8949 34ed 27490000 		.4byte	0x4927
 8950 34f1 00       		.byte	0
 8951 34f2 27       		.uleb128 0x27
 8952 34f3 B13B0000 		.4byte	.LASF206
 8953 34f7 21       		.byte	0x21
 8954 34f8 E3       		.byte	0xe3
 8955 34f9 FD560000 		.4byte	.LASF568
 8956 34fd 67390000 		.4byte	0x3967
 8957 3501 01       		.byte	0x1
 8958 3502 0A350000 		.4byte	0x350a
 8959 3506 15350000 		.4byte	0x3515
 8960 350a 22       		.uleb128 0x22
 8961 350b 27490000 		.4byte	0x4927
 8962 350f 13       		.uleb128 0x13
 8963 3510 25000000 		.4byte	0x25
ARM GAS  /tmp/ccWQ6gKG.s 			page 159


 8964 3514 00       		.byte	0
 8965 3515 27       		.uleb128 0x27
 8966 3516 D4560000 		.4byte	.LASF209
 8967 351a 21       		.byte	0x21
 8968 351b EB       		.byte	0xeb
 8969 351c 274A0000 		.4byte	.LASF569
 8970 3520 FA000000 		.4byte	0xfa
 8971 3524 01       		.byte	0x1
 8972 3525 2D350000 		.4byte	0x352d
 8973 3529 38350000 		.4byte	0x3538
 8974 352d 22       		.uleb128 0x22
 8975 352e 33490000 		.4byte	0x4933
 8976 3532 13       		.uleb128 0x13
 8977 3533 2D490000 		.4byte	0x492d
 8978 3537 00       		.byte	0
 8979 3538 27       		.uleb128 0x27
 8980 3539 662C0000 		.4byte	.LASF211
 8981 353d 21       		.byte	0x21
 8982 353e EF       		.byte	0xef
 8983 353f 112A0000 		.4byte	.LASF570
 8984 3543 FA000000 		.4byte	0xfa
 8985 3547 01       		.byte	0x1
 8986 3548 50350000 		.4byte	0x3550
 8987 354c 5B350000 		.4byte	0x355b
 8988 3550 22       		.uleb128 0x22
 8989 3551 33490000 		.4byte	0x4933
 8990 3555 13       		.uleb128 0x13
 8991 3556 2D490000 		.4byte	0x492d
 8992 355a 00       		.byte	0
 8993 355b 35       		.uleb128 0x35
 8994 355c 903C0000 		.4byte	.LASF213
 8995 3560 21       		.byte	0x21
 8996 3561 F3       		.byte	0xf3
 8997 3562 430B0000 		.4byte	.LASF571
 8998 3566 FA000000 		.4byte	0xfa
 8999 356a 01       		.byte	0x1
 9000 356b 6F350000 		.4byte	0x356f
 9001 356f 22       		.uleb128 0x22
 9002 3570 33490000 		.4byte	0x4933
 9003 3574 00       		.byte	0
 9004 3575 00       		.byte	0
 9005 3576 1C       		.uleb128 0x1c
 9006 3577 7A180000 		.4byte	.LASF215
 9007 357b 21       		.byte	0x21
 9008 357c 8601     		.2byte	0x186
 9009 357e 8E480000 		.4byte	0x488e
 9010 3582 1C       		.uleb128 0x1c
 9011 3583 56110000 		.4byte	.LASF216
 9012 3587 21       		.byte	0x21
 9013 3588 8701     		.2byte	0x187
 9014 358a A9480000 		.4byte	0x48a9
 9015 358e 36       		.uleb128 0x36
 9016 358f AB590000 		.4byte	.LASF217
 9017 3593 21       		.byte	0x21
 9018 3594 8D01     		.2byte	0x18d
 9019 3596 D0050000 		.4byte	.LASF572
 9020 359a C3480000 		.4byte	0x48c3
ARM GAS  /tmp/ccWQ6gKG.s 			page 160


 9021 359e 01       		.byte	0x1
 9022 359f A7350000 		.4byte	0x35a7
 9023 35a3 AD350000 		.4byte	0x35ad
 9024 35a7 22       		.uleb128 0x22
 9025 35a8 C9480000 		.4byte	0x48c9
 9026 35ac 00       		.byte	0
 9027 35ad 14       		.uleb128 0x14
 9028 35ae A5330000 		.4byte	0x33a5
 9029 35b2 36       		.uleb128 0x36
 9030 35b3 88540000 		.4byte	.LASF218
 9031 35b7 21       		.byte	0x21
 9032 35b8 9101     		.2byte	0x191
 9033 35ba EE510000 		.4byte	.LASF573
 9034 35be FA000000 		.4byte	0xfa
 9035 35c2 01       		.byte	0x1
 9036 35c3 CB350000 		.4byte	0x35cb
 9037 35c7 D1350000 		.4byte	0x35d1
 9038 35cb 22       		.uleb128 0x22
 9039 35cc C9480000 		.4byte	0x48c9
 9040 35d0 00       		.byte	0
 9041 35d1 36       		.uleb128 0x36
 9042 35d2 A31C0000 		.4byte	.LASF221
 9043 35d6 21       		.byte	0x21
 9044 35d7 0302     		.2byte	0x203
 9045 35d9 EF310000 		.4byte	.LASF574
 9046 35dd 2C000000 		.4byte	0x2c
 9047 35e1 01       		.byte	0x1
 9048 35e2 EA350000 		.4byte	0x35ea
 9049 35e6 F0350000 		.4byte	0x35f0
 9050 35ea 22       		.uleb128 0x22
 9051 35eb C9480000 		.4byte	0x48c9
 9052 35ef 00       		.byte	0
 9053 35f0 37       		.uleb128 0x37
 9054 35f1 C1410000 		.4byte	.LASF223
 9055 35f5 21       		.byte	0x21
 9056 35f6 9701     		.2byte	0x197
 9057 35f8 7A240000 		.4byte	.LASF575
 9058 35fc 01       		.byte	0x1
 9059 35fd 05360000 		.4byte	0x3605
 9060 3601 10360000 		.4byte	0x3610
 9061 3605 22       		.uleb128 0x22
 9062 3606 CF480000 		.4byte	0x48cf
 9063 360a 13       		.uleb128 0x13
 9064 360b D5480000 		.4byte	0x48d5
 9065 360f 00       		.byte	0
 9066 3610 37       		.uleb128 0x37
 9067 3611 41490000 		.4byte	.LASF224
 9068 3615 21       		.byte	0x21
 9069 3616 9F01     		.2byte	0x19f
 9070 3618 A9230000 		.4byte	.LASF576
 9071 361c 01       		.byte	0x1
 9072 361d 25360000 		.4byte	0x3625
 9073 3621 30360000 		.4byte	0x3630
 9074 3625 22       		.uleb128 0x22
 9075 3626 CF480000 		.4byte	0x48cf
 9076 362a 13       		.uleb128 0x13
 9077 362b D5480000 		.4byte	0x48d5
ARM GAS  /tmp/ccWQ6gKG.s 			page 161


 9078 362f 00       		.byte	0
 9079 3630 36       		.uleb128 0x36
 9080 3631 7E250000 		.4byte	.LASF227
 9081 3635 21       		.byte	0x21
 9082 3636 0E02     		.2byte	0x20e
 9083 3638 B62A0000 		.4byte	.LASF577
 9084 363c FA000000 		.4byte	0xfa
 9085 3640 01       		.byte	0x1
 9086 3641 49360000 		.4byte	0x3649
 9087 3645 54360000 		.4byte	0x3654
 9088 3649 22       		.uleb128 0x22
 9089 364a CF480000 		.4byte	0x48cf
 9090 364e 13       		.uleb128 0x13
 9091 364f D5480000 		.4byte	0x48d5
 9092 3653 00       		.byte	0
 9093 3654 36       		.uleb128 0x36
 9094 3655 92320000 		.4byte	.LASF229
 9095 3659 21       		.byte	0x21
 9096 365a 1F02     		.2byte	0x21f
 9097 365c 88030000 		.4byte	.LASF578
 9098 3660 25000000 		.4byte	0x25
 9099 3664 01       		.byte	0x1
 9100 3665 6D360000 		.4byte	0x366d
 9101 3669 78360000 		.4byte	0x3678
 9102 366d 22       		.uleb128 0x22
 9103 366e C9480000 		.4byte	0x48c9
 9104 3672 13       		.uleb128 0x13
 9105 3673 A3480000 		.4byte	0x48a3
 9106 3677 00       		.byte	0
 9107 3678 36       		.uleb128 0x36
 9108 3679 9D460000 		.4byte	.LASF231
 9109 367d 21       		.byte	0x21
 9110 367e 2C02     		.2byte	0x22c
 9111 3680 4C060000 		.4byte	.LASF579
 9112 3684 FA000000 		.4byte	0xfa
 9113 3688 01       		.byte	0x1
 9114 3689 91360000 		.4byte	0x3691
 9115 368d 9C360000 		.4byte	0x369c
 9116 3691 22       		.uleb128 0x22
 9117 3692 C9480000 		.4byte	0x48c9
 9118 3696 13       		.uleb128 0x13
 9119 3697 A3480000 		.4byte	0x48a3
 9120 369b 00       		.byte	0
 9121 369c 36       		.uleb128 0x36
 9122 369d AE2F0000 		.4byte	.LASF233
 9123 36a1 21       		.byte	0x21
 9124 36a2 3802     		.2byte	0x238
 9125 36a4 FE0A0000 		.4byte	.LASF580
 9126 36a8 DB480000 		.4byte	0x48db
 9127 36ac 01       		.byte	0x1
 9128 36ad B5360000 		.4byte	0x36b5
 9129 36b1 C0360000 		.4byte	0x36c0
 9130 36b5 22       		.uleb128 0x22
 9131 36b6 C9480000 		.4byte	0x48c9
 9132 36ba 13       		.uleb128 0x13
 9133 36bb 76350000 		.4byte	0x3576
 9134 36bf 00       		.byte	0
ARM GAS  /tmp/ccWQ6gKG.s 			page 162


 9135 36c0 36       		.uleb128 0x36
 9136 36c1 AE2F0000 		.4byte	.LASF233
 9137 36c5 21       		.byte	0x21
 9138 36c6 4402     		.2byte	0x244
 9139 36c8 15050000 		.4byte	.LASF581
 9140 36cc DB480000 		.4byte	0x48db
 9141 36d0 01       		.byte	0x1
 9142 36d1 D9360000 		.4byte	0x36d9
 9143 36d5 E9360000 		.4byte	0x36e9
 9144 36d9 22       		.uleb128 0x22
 9145 36da C9480000 		.4byte	0x48c9
 9146 36de 13       		.uleb128 0x13
 9147 36df 82350000 		.4byte	0x3582
 9148 36e3 13       		.uleb128 0x13
 9149 36e4 D6450000 		.4byte	0x45d6
 9150 36e8 00       		.byte	0
 9151 36e9 36       		.uleb128 0x36
 9152 36ea A60F0000 		.4byte	.LASF236
 9153 36ee 21       		.byte	0x21
 9154 36ef B301     		.2byte	0x1b3
 9155 36f1 850C0000 		.4byte	.LASF582
 9156 36f5 08370000 		.4byte	0x3708
 9157 36f9 01       		.byte	0x1
 9158 36fa 02370000 		.4byte	0x3702
 9159 36fe 08370000 		.4byte	0x3708
 9160 3702 22       		.uleb128 0x22
 9161 3703 CF480000 		.4byte	0x48cf
 9162 3707 00       		.byte	0
 9163 3708 14       		.uleb128 0x14
 9164 3709 F7330000 		.4byte	0x33f7
 9165 370d 36       		.uleb128 0x36
 9166 370e 712C0000 		.4byte	.LASF238
 9167 3712 21       		.byte	0x21
 9168 3713 B701     		.2byte	0x1b7
 9169 3715 501D0000 		.4byte	.LASF583
 9170 3719 08370000 		.4byte	0x3708
 9171 371d 01       		.byte	0x1
 9172 371e 26370000 		.4byte	0x3726
 9173 3722 2C370000 		.4byte	0x372c
 9174 3726 22       		.uleb128 0x22
 9175 3727 CF480000 		.4byte	0x48cf
 9176 372b 00       		.byte	0
 9177 372c 37       		.uleb128 0x37
 9178 372d CC590000 		.4byte	.LASF240
 9179 3731 21       		.byte	0x21
 9180 3732 BB01     		.2byte	0x1bb
 9181 3734 384E0000 		.4byte	.LASF584
 9182 3738 01       		.byte	0x1
 9183 3739 41370000 		.4byte	0x3741
 9184 373d 4C370000 		.4byte	0x374c
 9185 3741 22       		.uleb128 0x22
 9186 3742 CF480000 		.4byte	0x48cf
 9187 3746 13       		.uleb128 0x13
 9188 3747 E1480000 		.4byte	0x48e1
 9189 374b 00       		.byte	0
 9190 374c 36       		.uleb128 0x36
 9191 374d A60F0000 		.4byte	.LASF236
ARM GAS  /tmp/ccWQ6gKG.s 			page 163


 9192 3751 21       		.byte	0x21
 9193 3752 BF01     		.2byte	0x1bf
 9194 3754 7E530000 		.4byte	.LASF585
 9195 3758 6B370000 		.4byte	0x376b
 9196 375c 01       		.byte	0x1
 9197 375d 65370000 		.4byte	0x3765
 9198 3761 6B370000 		.4byte	0x376b
 9199 3765 22       		.uleb128 0x22
 9200 3766 C9480000 		.4byte	0x48c9
 9201 376a 00       		.byte	0
 9202 376b 14       		.uleb128 0x14
 9203 376c FC330000 		.4byte	0x33fc
 9204 3770 36       		.uleb128 0x36
 9205 3771 712C0000 		.4byte	.LASF238
 9206 3775 21       		.byte	0x21
 9207 3776 C301     		.2byte	0x1c3
 9208 3778 851D0000 		.4byte	.LASF586
 9209 377c 6B370000 		.4byte	0x376b
 9210 3780 01       		.byte	0x1
 9211 3781 89370000 		.4byte	0x3789
 9212 3785 8F370000 		.4byte	0x378f
 9213 3789 22       		.uleb128 0x22
 9214 378a C9480000 		.4byte	0x48c9
 9215 378e 00       		.byte	0
 9216 378f 37       		.uleb128 0x37
 9217 3790 CC590000 		.4byte	.LASF240
 9218 3794 21       		.byte	0x21
 9219 3795 C701     		.2byte	0x1c7
 9220 3797 C9040000 		.4byte	.LASF587
 9221 379b 01       		.byte	0x1
 9222 379c A4370000 		.4byte	0x37a4
 9223 37a0 AF370000 		.4byte	0x37af
 9224 37a4 22       		.uleb128 0x22
 9225 37a5 C9480000 		.4byte	0x48c9
 9226 37a9 13       		.uleb128 0x13
 9227 37aa E7480000 		.4byte	0x48e7
 9228 37ae 00       		.byte	0
 9229 37af 36       		.uleb128 0x36
 9230 37b0 8F500000 		.4byte	.LASF245
 9231 37b4 21       		.byte	0x21
 9232 37b5 5302     		.2byte	0x253
 9233 37b7 9E300000 		.4byte	.LASF588
 9234 37bb C3480000 		.4byte	0x48c3
 9235 37bf 01       		.byte	0x1
 9236 37c0 C8370000 		.4byte	0x37c8
 9237 37c4 CE370000 		.4byte	0x37ce
 9238 37c8 22       		.uleb128 0x22
 9239 37c9 C9480000 		.4byte	0x48c9
 9240 37cd 00       		.byte	0
 9241 37ce 36       		.uleb128 0x36
 9242 37cf D2470000 		.4byte	.LASF247
 9243 37d3 21       		.byte	0x21
 9244 37d4 5D02     		.2byte	0x25d
 9245 37d6 09200000 		.4byte	.LASF589
 9246 37da FA000000 		.4byte	0xfa
 9247 37de 01       		.byte	0x1
 9248 37df E7370000 		.4byte	0x37e7
ARM GAS  /tmp/ccWQ6gKG.s 			page 164


 9249 37e3 ED370000 		.4byte	0x37ed
 9250 37e7 22       		.uleb128 0x22
 9251 37e8 C9480000 		.4byte	0x48c9
 9252 37ec 00       		.byte	0
 9253 37ed 36       		.uleb128 0x36
 9254 37ee 18300000 		.4byte	.LASF249
 9255 37f2 21       		.byte	0x21
 9256 37f3 6702     		.2byte	0x267
 9257 37f5 D81F0000 		.4byte	.LASF590
 9258 37f9 2C000000 		.4byte	0x2c
 9259 37fd 01       		.byte	0x1
 9260 37fe 06380000 		.4byte	0x3806
 9261 3802 0C380000 		.4byte	0x380c
 9262 3806 22       		.uleb128 0x22
 9263 3807 C9480000 		.4byte	0x48c9
 9264 380b 00       		.byte	0
 9265 380c 37       		.uleb128 0x37
 9266 380d B01C0000 		.4byte	.LASF251
 9267 3811 21       		.byte	0x21
 9268 3812 7602     		.2byte	0x276
 9269 3814 98540000 		.4byte	.LASF591
 9270 3818 01       		.byte	0x1
 9271 3819 21380000 		.4byte	0x3821
 9272 381d 2C380000 		.4byte	0x382c
 9273 3821 22       		.uleb128 0x22
 9274 3822 CF480000 		.4byte	0x48cf
 9275 3826 13       		.uleb128 0x13
 9276 3827 D5480000 		.4byte	0x48d5
 9277 382b 00       		.byte	0
 9278 382c 36       		.uleb128 0x36
 9279 382d 18120000 		.4byte	.LASF253
 9280 3831 21       		.byte	0x21
 9281 3832 8002     		.2byte	0x280
 9282 3834 C84D0000 		.4byte	.LASF592
 9283 3838 FA000000 		.4byte	0xfa
 9284 383c 01       		.byte	0x1
 9285 383d 45380000 		.4byte	0x3845
 9286 3841 50380000 		.4byte	0x3850
 9287 3845 22       		.uleb128 0x22
 9288 3846 CF480000 		.4byte	0x48cf
 9289 384a 13       		.uleb128 0x13
 9290 384b D5480000 		.4byte	0x48d5
 9291 384f 00       		.byte	0
 9292 3850 36       		.uleb128 0x36
 9293 3851 51340000 		.4byte	.LASF255
 9294 3855 21       		.byte	0x21
 9295 3856 8A02     		.2byte	0x28a
 9296 3858 0F1B0000 		.4byte	.LASF593
 9297 385c 25000000 		.4byte	0x25
 9298 3860 01       		.byte	0x1
 9299 3861 69380000 		.4byte	0x3869
 9300 3865 74380000 		.4byte	0x3874
 9301 3869 22       		.uleb128 0x22
 9302 386a C9480000 		.4byte	0x48c9
 9303 386e 13       		.uleb128 0x13
 9304 386f A3480000 		.4byte	0x48a3
 9305 3873 00       		.byte	0
ARM GAS  /tmp/ccWQ6gKG.s 			page 165


 9306 3874 36       		.uleb128 0x36
 9307 3875 AB220000 		.4byte	.LASF257
 9308 3879 21       		.byte	0x21
 9309 387a 9B02     		.2byte	0x29b
 9310 387c 34200000 		.4byte	.LASF594
 9311 3880 FA000000 		.4byte	0xfa
 9312 3884 01       		.byte	0x1
 9313 3885 8D380000 		.4byte	0x388d
 9314 3889 98380000 		.4byte	0x3898
 9315 388d 22       		.uleb128 0x22
 9316 388e C9480000 		.4byte	0x48c9
 9317 3892 13       		.uleb128 0x13
 9318 3893 A3480000 		.4byte	0x48a3
 9319 3897 00       		.byte	0
 9320 3898 36       		.uleb128 0x36
 9321 3899 2E370000 		.4byte	.LASF259
 9322 389d 21       		.byte	0x21
 9323 389e AC02     		.2byte	0x2ac
 9324 38a0 4D4D0000 		.4byte	.LASF595
 9325 38a4 DB480000 		.4byte	0x48db
 9326 38a8 01       		.byte	0x1
 9327 38a9 B1380000 		.4byte	0x38b1
 9328 38ad BC380000 		.4byte	0x38bc
 9329 38b1 22       		.uleb128 0x22
 9330 38b2 C9480000 		.4byte	0x48c9
 9331 38b6 13       		.uleb128 0x13
 9332 38b7 76350000 		.4byte	0x3576
 9333 38bb 00       		.byte	0
 9334 38bc 36       		.uleb128 0x36
 9335 38bd 2E370000 		.4byte	.LASF259
 9336 38c1 21       		.byte	0x21
 9337 38c2 BC02     		.2byte	0x2bc
 9338 38c4 ED030000 		.4byte	.LASF596
 9339 38c8 DB480000 		.4byte	0x48db
 9340 38cc 01       		.byte	0x1
 9341 38cd D5380000 		.4byte	0x38d5
 9342 38d1 E5380000 		.4byte	0x38e5
 9343 38d5 22       		.uleb128 0x22
 9344 38d6 C9480000 		.4byte	0x48c9
 9345 38da 13       		.uleb128 0x13
 9346 38db 82350000 		.4byte	0x3582
 9347 38df 13       		.uleb128 0x13
 9348 38e0 D6450000 		.4byte	0x45d6
 9349 38e4 00       		.byte	0
 9350 38e5 36       		.uleb128 0x36
 9351 38e6 95580000 		.4byte	.LASF262
 9352 38ea 21       		.byte	0x21
 9353 38eb E001     		.2byte	0x1e0
 9354 38ed F8440000 		.4byte	.LASF597
 9355 38f1 04390000 		.4byte	0x3904
 9356 38f5 01       		.byte	0x1
 9357 38f6 FE380000 		.4byte	0x38fe
 9358 38fa 04390000 		.4byte	0x3904
 9359 38fe 22       		.uleb128 0x22
 9360 38ff CF480000 		.4byte	0x48cf
 9361 3903 00       		.byte	0
 9362 3904 14       		.uleb128 0x14
ARM GAS  /tmp/ccWQ6gKG.s 			page 166


 9363 3905 01340000 		.4byte	0x3401
 9364 3909 38       		.uleb128 0x38
 9365 390a 656E6400 		.ascii	"end\000"
 9366 390e 21       		.byte	0x21
 9367 390f E401     		.2byte	0x1e4
 9368 3911 340D0000 		.4byte	.LASF598
 9369 3915 04390000 		.4byte	0x3904
 9370 3919 01       		.byte	0x1
 9371 391a 22390000 		.4byte	0x3922
 9372 391e 28390000 		.4byte	0x3928
 9373 3922 22       		.uleb128 0x22
 9374 3923 CF480000 		.4byte	0x48cf
 9375 3927 00       		.byte	0
 9376 3928 37       		.uleb128 0x37
 9377 3929 2E110000 		.4byte	.LASF264
 9378 392d 21       		.byte	0x21
 9379 392e E801     		.2byte	0x1e8
 9380 3930 B44B0000 		.4byte	.LASF599
 9381 3934 01       		.byte	0x1
 9382 3935 3D390000 		.4byte	0x393d
 9383 3939 48390000 		.4byte	0x3948
 9384 393d 22       		.uleb128 0x22
 9385 393e CF480000 		.4byte	0x48cf
 9386 3942 13       		.uleb128 0x13
 9387 3943 ED480000 		.4byte	0x48ed
 9388 3947 00       		.byte	0
 9389 3948 36       		.uleb128 0x36
 9390 3949 95580000 		.4byte	.LASF262
 9391 394d 21       		.byte	0x21
 9392 394e EC01     		.2byte	0x1ec
 9393 3950 0C360000 		.4byte	.LASF600
 9394 3954 67390000 		.4byte	0x3967
 9395 3958 01       		.byte	0x1
 9396 3959 61390000 		.4byte	0x3961
 9397 395d 67390000 		.4byte	0x3967
 9398 3961 22       		.uleb128 0x22
 9399 3962 C9480000 		.4byte	0x48c9
 9400 3966 00       		.byte	0
 9401 3967 14       		.uleb128 0x14
 9402 3968 06340000 		.4byte	0x3406
 9403 396c 38       		.uleb128 0x38
 9404 396d 656E6400 		.ascii	"end\000"
 9405 3971 21       		.byte	0x21
 9406 3972 F201     		.2byte	0x1f2
 9407 3974 83230000 		.4byte	.LASF601
 9408 3978 67390000 		.4byte	0x3967
 9409 397c 01       		.byte	0x1
 9410 397d 85390000 		.4byte	0x3985
 9411 3981 8B390000 		.4byte	0x398b
 9412 3985 22       		.uleb128 0x22
 9413 3986 C9480000 		.4byte	0x48c9
 9414 398a 00       		.byte	0
 9415 398b 37       		.uleb128 0x37
 9416 398c 2E110000 		.4byte	.LASF264
 9417 3990 21       		.byte	0x21
 9418 3991 F601     		.2byte	0x1f6
 9419 3993 B40C0000 		.4byte	.LASF602
ARM GAS  /tmp/ccWQ6gKG.s 			page 167


 9420 3997 01       		.byte	0x1
 9421 3998 A0390000 		.4byte	0x39a0
 9422 399c AB390000 		.4byte	0x39ab
 9423 39a0 22       		.uleb128 0x22
 9424 39a1 C9480000 		.4byte	0x48c9
 9425 39a5 13       		.uleb128 0x13
 9426 39a6 F3480000 		.4byte	0x48f3
 9427 39aa 00       		.byte	0
 9428 39ab 39       		.uleb128 0x39
 9429 39ac E70F0000 		.4byte	.LASF270
 9430 39b0 21       		.byte	0x21
 9431 39b1 FA01     		.2byte	0x1fa
 9432 39b3 CF480000 		.4byte	0x48cf
 9433 39b7 01       		.byte	0x1
 9434 39b8 C0390000 		.4byte	0x39c0
 9435 39bc C6390000 		.4byte	0x39c6
 9436 39c0 22       		.uleb128 0x22
 9437 39c1 CF480000 		.4byte	0x48cf
 9438 39c5 00       		.byte	0
 9439 39c6 14       		.uleb128 0x14
 9440 39c7 F2330000 		.4byte	0x33f2
 9441 39cb 3A       		.uleb128 0x3a
 9442 39cc EE190000 		.4byte	.LASF271
 9443 39d0 DA390000 		.4byte	0x39da
 9444 39d4 00       		.byte	0
 9445 39d5 14       		.uleb128 0x14
 9446 39d6 DA390000 		.4byte	0x39da
 9447 39da 20       		.uleb128 0x20
 9448 39db 3C180000 		.4byte	.LASF603
 9449 39df 1C       		.byte	0x1c
 9450 39e0 05       		.byte	0x5
 9451 39e1 15       		.byte	0x15
 9452 39e2 CC3C0000 		.4byte	0x3ccc
 9453 39e6 25       		.uleb128 0x25
 9454 39e7 390A0000 		.4byte	0xa39
 9455 39eb 00       		.byte	0
 9456 39ec 08       		.uleb128 0x8
 9457 39ed 2D4B0000 		.4byte	.LASF342
 9458 39f1 05       		.byte	0x5
 9459 39f2 19       		.byte	0x19
 9460 39f3 6C470000 		.4byte	0x476c
 9461 39f7 00       		.byte	0
 9462 39f8 08       		.uleb128 0x8
 9463 39f9 5B2C0000 		.4byte	.LASF604
 9464 39fd 05       		.byte	0x5
 9465 39fe 1A       		.byte	0x1a
 9466 39ff AE260000 		.4byte	0x26ae
 9467 3a03 04       		.byte	0x4
 9468 3a04 08       		.uleb128 0x8
 9469 3a05 63190000 		.4byte	.LASF605
 9470 3a09 05       		.byte	0x5
 9471 3a0a 1B       		.byte	0x1b
 9472 3a0b 340F0000 		.4byte	0xf34
 9473 3a0f 08       		.byte	0x8
 9474 3a10 08       		.uleb128 0x8
 9475 3a11 5A000000 		.4byte	.LASF606
 9476 3a15 05       		.byte	0x5
ARM GAS  /tmp/ccWQ6gKG.s 			page 168


 9477 3a16 1C       		.byte	0x1c
 9478 3a17 AA320000 		.4byte	0x32aa
 9479 3a1b 0C       		.byte	0xc
 9480 3a1c 08       		.uleb128 0x8
 9481 3a1d 6C180000 		.4byte	.LASF607
 9482 3a21 05       		.byte	0x5
 9483 3a22 1D       		.byte	0x1d
 9484 3a23 5C0C0000 		.4byte	0xc5c
 9485 3a27 10       		.byte	0x10
 9486 3a28 08       		.uleb128 0x8
 9487 3a29 E64C0000 		.4byte	.LASF350
 9488 3a2d 05       		.byte	0x5
 9489 3a2e 1F       		.byte	0x1f
 9490 3a2f A5330000 		.4byte	0x33a5
 9491 3a33 14       		.byte	0x14
 9492 3a34 27       		.uleb128 0x27
 9493 3a35 85350000 		.4byte	.LASF351
 9494 3a39 05       		.byte	0x5
 9495 3a3a 22       		.byte	0x22
 9496 3a3b 67520000 		.4byte	.LASF608
 9497 3a3f C5050000 		.4byte	0x5c5
 9498 3a43 01       		.byte	0x1
 9499 3a44 4C3A0000 		.4byte	0x3a4c
 9500 3a48 523A0000 		.4byte	0x3a52
 9501 3a4c 22       		.uleb128 0x22
 9502 3a4d 04490000 		.4byte	0x4904
 9503 3a51 00       		.byte	0
 9504 3a52 27       		.uleb128 0x27
 9505 3a53 F6540000 		.4byte	.LASF609
 9506 3a57 05       		.byte	0x5
 9507 3a58 23       		.byte	0x23
 9508 3a59 4B240000 		.4byte	.LASF610
 9509 3a5d 0A490000 		.4byte	0x490a
 9510 3a61 01       		.byte	0x1
 9511 3a62 6A3A0000 		.4byte	0x3a6a
 9512 3a66 703A0000 		.4byte	0x3a70
 9513 3a6a 22       		.uleb128 0x22
 9514 3a6b 04490000 		.4byte	0x4904
 9515 3a6f 00       		.byte	0
 9516 3a70 27       		.uleb128 0x27
 9517 3a71 062F0000 		.4byte	.LASF611
 9518 3a75 05       		.byte	0x5
 9519 3a76 24       		.byte	0x24
 9520 3a77 813A0000 		.4byte	.LASF612
 9521 3a7b 10490000 		.4byte	0x4910
 9522 3a7f 01       		.byte	0x1
 9523 3a80 883A0000 		.4byte	0x3a88
 9524 3a84 8E3A0000 		.4byte	0x3a8e
 9525 3a88 22       		.uleb128 0x22
 9526 3a89 04490000 		.4byte	0x4904
 9527 3a8d 00       		.byte	0
 9528 3a8e 27       		.uleb128 0x27
 9529 3a8f DF560000 		.4byte	.LASF613
 9530 3a93 05       		.byte	0x5
 9531 3a94 25       		.byte	0x25
 9532 3a95 0C090000 		.4byte	.LASF614
 9533 3a99 FA000000 		.4byte	0xfa
ARM GAS  /tmp/ccWQ6gKG.s 			page 169


 9534 3a9d 01       		.byte	0x1
 9535 3a9e A63A0000 		.4byte	0x3aa6
 9536 3aa2 AC3A0000 		.4byte	0x3aac
 9537 3aa6 22       		.uleb128 0x22
 9538 3aa7 04490000 		.4byte	0x4904
 9539 3aab 00       		.byte	0
 9540 3aac 28       		.uleb128 0x28
 9541 3aad A8320000 		.4byte	.LASF615
 9542 3ab1 05       		.byte	0x5
 9543 3ab2 26       		.byte	0x26
 9544 3ab3 47150000 		.4byte	.LASF616
 9545 3ab7 01       		.byte	0x1
 9546 3ab8 C03A0000 		.4byte	0x3ac0
 9547 3abc CB3A0000 		.4byte	0x3acb
 9548 3ac0 22       		.uleb128 0x22
 9549 3ac1 DB480000 		.4byte	0x48db
 9550 3ac5 13       		.uleb128 0x13
 9551 3ac6 FA000000 		.4byte	0xfa
 9552 3aca 00       		.byte	0
 9553 3acb 28       		.uleb128 0x28
 9554 3acc CA220000 		.4byte	.LASF617
 9555 3ad0 05       		.byte	0x5
 9556 3ad1 32       		.byte	0x32
 9557 3ad2 B8150000 		.4byte	.LASF618
 9558 3ad6 01       		.byte	0x1
 9559 3ad7 DF3A0000 		.4byte	0x3adf
 9560 3adb EA3A0000 		.4byte	0x3aea
 9561 3adf 22       		.uleb128 0x22
 9562 3ae0 DB480000 		.4byte	0x48db
 9563 3ae4 13       		.uleb128 0x13
 9564 3ae5 37000000 		.4byte	0x37
 9565 3ae9 00       		.byte	0
 9566 3aea 28       		.uleb128 0x28
 9567 3aeb 55230000 		.4byte	.LASF619
 9568 3aef 05       		.byte	0x5
 9569 3af0 33       		.byte	0x33
 9570 3af1 51170000 		.4byte	.LASF620
 9571 3af5 01       		.byte	0x1
 9572 3af6 FE3A0000 		.4byte	0x3afe
 9573 3afa 043B0000 		.4byte	0x3b04
 9574 3afe 22       		.uleb128 0x22
 9575 3aff DB480000 		.4byte	0x48db
 9576 3b03 00       		.byte	0
 9577 3b04 28       		.uleb128 0x28
 9578 3b05 5E290000 		.4byte	.LASF621
 9579 3b09 05       		.byte	0x5
 9580 3b0a 35       		.byte	0x35
 9581 3b0b DA430000 		.4byte	.LASF622
 9582 3b0f 01       		.byte	0x1
 9583 3b10 183B0000 		.4byte	0x3b18
 9584 3b14 233B0000 		.4byte	0x3b23
 9585 3b18 22       		.uleb128 0x22
 9586 3b19 DB480000 		.4byte	0x48db
 9587 3b1d 13       		.uleb128 0x13
 9588 3b1e 37000000 		.4byte	0x37
 9589 3b22 00       		.byte	0
 9590 3b23 28       		.uleb128 0x28
ARM GAS  /tmp/ccWQ6gKG.s 			page 170


 9591 3b24 2D170000 		.4byte	.LASF623
 9592 3b28 05       		.byte	0x5
 9593 3b29 36       		.byte	0x36
 9594 3b2a E54E0000 		.4byte	.LASF624
 9595 3b2e 01       		.byte	0x1
 9596 3b2f 373B0000 		.4byte	0x3b37
 9597 3b33 3D3B0000 		.4byte	0x3b3d
 9598 3b37 22       		.uleb128 0x22
 9599 3b38 DB480000 		.4byte	0x48db
 9600 3b3c 00       		.byte	0
 9601 3b3d 27       		.uleb128 0x27
 9602 3b3e D2410000 		.4byte	.LASF625
 9603 3b42 05       		.byte	0x5
 9604 3b43 38       		.byte	0x38
 9605 3b44 8D220000 		.4byte	.LASF626
 9606 3b48 FA000000 		.4byte	0xfa
 9607 3b4c 01       		.byte	0x1
 9608 3b4d 553B0000 		.4byte	0x3b55
 9609 3b51 603B0000 		.4byte	0x3b60
 9610 3b55 22       		.uleb128 0x22
 9611 3b56 DB480000 		.4byte	0x48db
 9612 3b5a 13       		.uleb128 0x13
 9613 3b5b 08460000 		.4byte	0x4608
 9614 3b5f 00       		.byte	0
 9615 3b60 34       		.uleb128 0x34
 9616 3b61 88410000 		.4byte	.LASF407
 9617 3b65 05       		.byte	0x5
 9618 3b66 3B       		.byte	0x3b
 9619 3b67 C3140000 		.4byte	.LASF627
 9620 3b6b FA000000 		.4byte	0xfa
 9621 3b6f 773B0000 		.4byte	0x3b77
 9622 3b73 913B0000 		.4byte	0x3b91
 9623 3b77 22       		.uleb128 0x22
 9624 3b78 DB480000 		.4byte	0x48db
 9625 3b7c 13       		.uleb128 0x13
 9626 3b7d 89470000 		.4byte	0x4789
 9627 3b81 13       		.uleb128 0x13
 9628 3b82 C5050000 		.4byte	0x5c5
 9629 3b86 13       		.uleb128 0x13
 9630 3b87 08460000 		.4byte	0x4608
 9631 3b8b 13       		.uleb128 0x13
 9632 3b8c 2C000000 		.4byte	0x2c
 9633 3b90 00       		.byte	0
 9634 3b91 34       		.uleb128 0x34
 9635 3b92 5D550000 		.4byte	.LASF410
 9636 3b96 05       		.byte	0x5
 9637 3b97 3D       		.byte	0x3d
 9638 3b98 7E570000 		.4byte	.LASF628
 9639 3b9c FA000000 		.4byte	0xfa
 9640 3ba0 A83B0000 		.4byte	0x3ba8
 9641 3ba4 C23B0000 		.4byte	0x3bc2
 9642 3ba8 22       		.uleb128 0x22
 9643 3ba9 DB480000 		.4byte	0x48db
 9644 3bad 13       		.uleb128 0x13
 9645 3bae 95470000 		.4byte	0x4795
 9646 3bb2 13       		.uleb128 0x13
 9647 3bb3 C5050000 		.4byte	0x5c5
ARM GAS  /tmp/ccWQ6gKG.s 			page 171


 9648 3bb7 13       		.uleb128 0x13
 9649 3bb8 77470000 		.4byte	0x4777
 9650 3bbc 13       		.uleb128 0x13
 9651 3bbd 2C000000 		.4byte	0x2c
 9652 3bc1 00       		.byte	0
 9653 3bc2 23       		.uleb128 0x23
 9654 3bc3 3C180000 		.4byte	.LASF603
 9655 3bc7 05       		.byte	0x5
 9656 3bc8 41       		.byte	0x41
 9657 3bc9 DB480000 		.4byte	0x48db
 9658 3bcd 01       		.byte	0x1
 9659 3bce D63B0000 		.4byte	0x3bd6
 9660 3bd2 E63B0000 		.4byte	0x3be6
 9661 3bd6 22       		.uleb128 0x22
 9662 3bd7 DB480000 		.4byte	0x48db
 9663 3bdb 13       		.uleb128 0x13
 9664 3bdc C5050000 		.4byte	0x5c5
 9665 3be0 13       		.uleb128 0x13
 9666 3be1 FA000000 		.4byte	0xfa
 9667 3be5 00       		.byte	0
 9668 3be6 23       		.uleb128 0x23
 9669 3be7 8B450000 		.4byte	.LASF629
 9670 3beb 05       		.byte	0x5
 9671 3bec 42       		.byte	0x42
 9672 3bed 07030000 		.4byte	0x307
 9673 3bf1 01       		.byte	0x1
 9674 3bf2 FA3B0000 		.4byte	0x3bfa
 9675 3bf6 053C0000 		.4byte	0x3c05
 9676 3bfa 22       		.uleb128 0x22
 9677 3bfb DB480000 		.4byte	0x48db
 9678 3bff 22       		.uleb128 0x22
 9679 3c00 25000000 		.4byte	0x25
 9680 3c04 00       		.byte	0
 9681 3c05 41       		.uleb128 0x41
 9682 3c06 C7450000 		.4byte	.LASF414
 9683 3c0a 05       		.byte	0x5
 9684 3c0b 45       		.byte	0x45
 9685 3c0c CD340000 		.4byte	.LASF630
 9686 3c10 FA000000 		.4byte	0xfa
 9687 3c14 01       		.byte	0x1
 9688 3c15 243C0000 		.4byte	0x3c24
 9689 3c19 13       		.uleb128 0x13
 9690 3c1a A3480000 		.4byte	0x48a3
 9691 3c1e 13       		.uleb128 0x13
 9692 3c1f C5050000 		.4byte	0x5c5
 9693 3c23 00       		.byte	0
 9694 3c24 27       		.uleb128 0x27
 9695 3c25 58050000 		.4byte	.LASF631
 9696 3c29 05       		.byte	0x5
 9697 3c2a 85       		.byte	0x85
 9698 3c2b 80440000 		.4byte	.LASF632
 9699 3c2f FA000000 		.4byte	0xfa
 9700 3c33 01       		.byte	0x1
 9701 3c34 4D3C0000 		.4byte	0x3c4d
 9702 3c38 5D3C0000 		.4byte	0x3c5d
 9703 3c3c 2E       		.uleb128 0x2e
 9704 3c3d 4D5400   		.ascii	"MT\000"
ARM GAS  /tmp/ccWQ6gKG.s 			page 172


 9705 3c40 DE3E0000 		.4byte	0x3ede
 9706 3c44 45       		.uleb128 0x45
 9707 3c45 514C00   		.ascii	"QL\000"
 9708 3c48 37000000 		.4byte	0x37
 9709 3c4c 05       		.byte	0x5
 9710 3c4d 22       		.uleb128 0x22
 9711 3c4e DB480000 		.4byte	0x48db
 9712 3c52 13       		.uleb128 0x13
 9713 3c53 B5570000 		.4byte	0x57b5
 9714 3c57 13       		.uleb128 0x13
 9715 3c58 C5050000 		.4byte	0x5c5
 9716 3c5c 00       		.byte	0
 9717 3c5d 27       		.uleb128 0x27
 9718 3c5e A72D0000 		.4byte	.LASF633
 9719 3c62 05       		.byte	0x5
 9720 3c63 85       		.byte	0x85
 9721 3c64 322E0000 		.4byte	.LASF634
 9722 3c68 FA000000 		.4byte	0xfa
 9723 3c6c 01       		.byte	0x1
 9724 3c6d 863C0000 		.4byte	0x3c86
 9725 3c71 963C0000 		.4byte	0x3c96
 9726 3c75 2E       		.uleb128 0x2e
 9727 3c76 4D5400   		.ascii	"MT\000"
 9728 3c79 133F0000 		.4byte	0x3f13
 9729 3c7d 45       		.uleb128 0x45
 9730 3c7e 514C00   		.ascii	"QL\000"
 9731 3c81 37000000 		.4byte	0x37
 9732 3c85 05       		.byte	0x5
 9733 3c86 22       		.uleb128 0x22
 9734 3c87 DB480000 		.4byte	0x48db
 9735 3c8b 13       		.uleb128 0x13
 9736 3c8c 11580000 		.4byte	0x5811
 9737 3c90 13       		.uleb128 0x13
 9738 3c91 C5050000 		.4byte	0x5c5
 9739 3c95 00       		.byte	0
 9740 3c96 35       		.uleb128 0x35
 9741 3c97 3F3A0000 		.4byte	.LASF635
 9742 3c9b 05       		.byte	0x5
 9743 3c9c 85       		.byte	0x85
 9744 3c9d F80B0000 		.4byte	.LASF636
 9745 3ca1 FA000000 		.4byte	0xfa
 9746 3ca5 01       		.byte	0x1
 9747 3ca6 BB3C0000 		.4byte	0x3cbb
 9748 3caa 2E       		.uleb128 0x2e
 9749 3cab 4D5400   		.ascii	"MT\000"
 9750 3cae 483F0000 		.4byte	0x3f48
 9751 3cb2 45       		.uleb128 0x45
 9752 3cb3 514C00   		.ascii	"QL\000"
 9753 3cb6 37000000 		.4byte	0x37
 9754 3cba 05       		.byte	0x5
 9755 3cbb 22       		.uleb128 0x22
 9756 3cbc DB480000 		.4byte	0x48db
 9757 3cc0 13       		.uleb128 0x13
 9758 3cc1 6D580000 		.4byte	0x586d
 9759 3cc5 13       		.uleb128 0x13
 9760 3cc6 C5050000 		.4byte	0x5c5
 9761 3cca 00       		.byte	0
ARM GAS  /tmp/ccWQ6gKG.s 			page 173


 9762 3ccb 00       		.byte	0
 9763 3ccc 14       		.uleb128 0x14
 9764 3ccd 93330000 		.4byte	0x3393
 9765 3cd1 46       		.uleb128 0x46
 9766 3cd2 76350000 		.4byte	.LASF637
 9767 3cd6 08       		.byte	0x8
 9768 3cd7 25       		.byte	0x25
 9769 3cd8 0F       		.byte	0xf
 9770 3cd9 D13C0000 		.4byte	0x3cd1
 9771 3cdd DE3E0000 		.4byte	0x3ede
 9772 3ce1 25       		.uleb128 0x25
 9773 3ce2 390A0000 		.4byte	0xa39
 9774 3ce6 00       		.byte	0
 9775 3ce7 47       		.uleb128 0x47
 9776 3ce8 3F320000 		.4byte	.LASF638
 9777 3cec 5E4C0000 		.4byte	0x4c5e
 9778 3cf0 00       		.byte	0
 9779 3cf1 01       		.byte	0x1
 9780 3cf2 08       		.uleb128 0x8
 9781 3cf3 264B0000 		.4byte	.LASF639
 9782 3cf7 25       		.byte	0x25
 9783 3cf8 11       		.byte	0x11
 9784 3cf9 43470000 		.4byte	0x4743
 9785 3cfd 04       		.byte	0x4
 9786 3cfe 48       		.uleb128 0x48
 9787 3cff 76350000 		.4byte	.LASF637
 9788 3d03 1B490000 		.4byte	0x491b
 9789 3d07 01       		.byte	0x1
 9790 3d08 103D0000 		.4byte	0x3d10
 9791 3d0c 1B3D0000 		.4byte	0x3d1b
 9792 3d10 22       		.uleb128 0x22
 9793 3d11 1B490000 		.4byte	0x491b
 9794 3d15 13       		.uleb128 0x13
 9795 3d16 6E4C0000 		.4byte	0x4c6e
 9796 3d1a 00       		.byte	0
 9797 3d1b 27       		.uleb128 0x27
 9798 3d1c 2A0D0000 		.4byte	.LASF640
 9799 3d20 25       		.byte	0x25
 9800 3d21 2A       		.byte	0x2a
 9801 3d22 3F590000 		.4byte	.LASF641
 9802 3d26 43470000 		.4byte	0x4743
 9803 3d2a 01       		.byte	0x1
 9804 3d2b 333D0000 		.4byte	0x3d33
 9805 3d2f 393D0000 		.4byte	0x3d39
 9806 3d33 22       		.uleb128 0x22
 9807 3d34 744C0000 		.4byte	0x4c74
 9808 3d38 00       		.byte	0
 9809 3d39 3C       		.uleb128 0x3c
 9810 3d3a 491C0000 		.4byte	.LASF272
 9811 3d3e 25       		.byte	0x25
 9812 3d3f 15       		.byte	0x15
 9813 3d40 3F570000 		.4byte	.LASF642
 9814 3d44 2C000000 		.4byte	0x2c
 9815 3d48 01       		.byte	0x1
 9816 3d49 02       		.uleb128 0x2
 9817 3d4a 10       		.byte	0x10
 9818 3d4b 00       		.uleb128 0
ARM GAS  /tmp/ccWQ6gKG.s 			page 174


 9819 3d4c D13C0000 		.4byte	0x3cd1
 9820 3d50 01       		.byte	0x1
 9821 3d51 593D0000 		.4byte	0x3d59
 9822 3d55 5F3D0000 		.4byte	0x3d5f
 9823 3d59 22       		.uleb128 0x22
 9824 3d5a 744C0000 		.4byte	0x4c74
 9825 3d5e 00       		.byte	0
 9826 3d5f 28       		.uleb128 0x28
 9827 3d60 551A0000 		.4byte	.LASF643
 9828 3d64 25       		.byte	0x25
 9829 3d65 31       		.byte	0x31
 9830 3d66 A7550000 		.4byte	.LASF644
 9831 3d6a 01       		.byte	0x1
 9832 3d6b 733D0000 		.4byte	0x3d73
 9833 3d6f 7E3D0000 		.4byte	0x3d7e
 9834 3d73 22       		.uleb128 0x22
 9835 3d74 1B490000 		.4byte	0x491b
 9836 3d78 13       		.uleb128 0x13
 9837 3d79 66470000 		.4byte	0x4766
 9838 3d7d 00       		.byte	0
 9839 3d7e 3C       		.uleb128 0x3c
 9840 3d7f CA220000 		.4byte	.LASF617
 9841 3d83 25       		.byte	0x25
 9842 3d84 18       		.byte	0x18
 9843 3d85 A80D0000 		.4byte	.LASF645
 9844 3d89 FA000000 		.4byte	0xfa
 9845 3d8d 01       		.byte	0x1
 9846 3d8e 02       		.uleb128 0x2
 9847 3d8f 10       		.byte	0x10
 9848 3d90 01       		.uleb128 0x1
 9849 3d91 D13C0000 		.4byte	0x3cd1
 9850 3d95 01       		.byte	0x1
 9851 3d96 9E3D0000 		.4byte	0x3d9e
 9852 3d9a AE3D0000 		.4byte	0x3dae
 9853 3d9e 22       		.uleb128 0x22
 9854 3d9f 1B490000 		.4byte	0x491b
 9855 3da3 13       		.uleb128 0x13
 9856 3da4 7D470000 		.4byte	0x477d
 9857 3da8 13       		.uleb128 0x13
 9858 3da9 08460000 		.4byte	0x4608
 9859 3dad 00       		.byte	0
 9860 3dae 3C       		.uleb128 0x3c
 9861 3daf E2310000 		.4byte	.LASF273
 9862 3db3 25       		.byte	0x25
 9863 3db4 19       		.byte	0x19
 9864 3db5 C51C0000 		.4byte	.LASF646
 9865 3db9 FA000000 		.4byte	0xfa
 9866 3dbd 01       		.byte	0x1
 9867 3dbe 02       		.uleb128 0x2
 9868 3dbf 10       		.byte	0x10
 9869 3dc0 02       		.uleb128 0x2
 9870 3dc1 D13C0000 		.4byte	0x3cd1
 9871 3dc5 01       		.byte	0x1
 9872 3dc6 CE3D0000 		.4byte	0x3dce
 9873 3dca DE3D0000 		.4byte	0x3dde
 9874 3dce 22       		.uleb128 0x22
 9875 3dcf 1B490000 		.4byte	0x491b
ARM GAS  /tmp/ccWQ6gKG.s 			page 175


 9876 3dd3 13       		.uleb128 0x13
 9877 3dd4 2F480000 		.4byte	0x482f
 9878 3dd8 13       		.uleb128 0x13
 9879 3dd9 FC450000 		.4byte	0x45fc
 9880 3ddd 00       		.byte	0
 9881 3dde 27       		.uleb128 0x27
 9882 3ddf 6B240000 		.4byte	.LASF383
 9883 3de3 25       		.byte	0x25
 9884 3de4 1A       		.byte	0x1a
 9885 3de5 39370000 		.4byte	.LASF647
 9886 3de9 FA000000 		.4byte	0xfa
 9887 3ded 01       		.byte	0x1
 9888 3dee F63D0000 		.4byte	0x3df6
 9889 3df2 013E0000 		.4byte	0x3e01
 9890 3df6 22       		.uleb128 0x22
 9891 3df7 1B490000 		.4byte	0x491b
 9892 3dfb 13       		.uleb128 0x13
 9893 3dfc 7D470000 		.4byte	0x477d
 9894 3e00 00       		.byte	0
 9895 3e01 3C       		.uleb128 0x3c
 9896 3e02 5E290000 		.4byte	.LASF621
 9897 3e06 25       		.byte	0x25
 9898 3e07 1C       		.byte	0x1c
 9899 3e08 F8430000 		.4byte	.LASF648
 9900 3e0c FA000000 		.4byte	0xfa
 9901 3e10 01       		.byte	0x1
 9902 3e11 02       		.uleb128 0x2
 9903 3e12 10       		.byte	0x10
 9904 3e13 03       		.uleb128 0x3
 9905 3e14 D13C0000 		.4byte	0x3cd1
 9906 3e18 01       		.byte	0x1
 9907 3e19 213E0000 		.4byte	0x3e21
 9908 3e1d 313E0000 		.4byte	0x3e31
 9909 3e21 22       		.uleb128 0x22
 9910 3e22 1B490000 		.4byte	0x491b
 9911 3e26 13       		.uleb128 0x13
 9912 3e27 7D470000 		.4byte	0x477d
 9913 3e2b 13       		.uleb128 0x13
 9914 3e2c 08460000 		.4byte	0x4608
 9915 3e30 00       		.byte	0
 9916 3e31 3C       		.uleb128 0x3c
 9917 3e32 4A220000 		.4byte	.LASF497
 9918 3e36 25       		.byte	0x25
 9919 3e37 1D       		.byte	0x1d
 9920 3e38 B7280000 		.4byte	.LASF649
 9921 3e3c FA000000 		.4byte	0xfa
 9922 3e40 01       		.byte	0x1
 9923 3e41 02       		.uleb128 0x2
 9924 3e42 10       		.byte	0x10
 9925 3e43 04       		.uleb128 0x4
 9926 3e44 D13C0000 		.4byte	0x3cd1
 9927 3e48 01       		.byte	0x1
 9928 3e49 513E0000 		.4byte	0x3e51
 9929 3e4d 613E0000 		.4byte	0x3e61
 9930 3e51 22       		.uleb128 0x22
 9931 3e52 1B490000 		.4byte	0x491b
 9932 3e56 13       		.uleb128 0x13
ARM GAS  /tmp/ccWQ6gKG.s 			page 176


 9933 3e57 2F480000 		.4byte	0x482f
 9934 3e5b 13       		.uleb128 0x13
 9935 3e5c FC450000 		.4byte	0x45fc
 9936 3e60 00       		.byte	0
 9937 3e61 27       		.uleb128 0x27
 9938 3e62 F0430000 		.4byte	.LASF396
 9939 3e66 25       		.byte	0x25
 9940 3e67 1E       		.byte	0x1e
 9941 3e68 C8540000 		.4byte	.LASF650
 9942 3e6c FA000000 		.4byte	0xfa
 9943 3e70 01       		.byte	0x1
 9944 3e71 793E0000 		.4byte	0x3e79
 9945 3e75 843E0000 		.4byte	0x3e84
 9946 3e79 22       		.uleb128 0x22
 9947 3e7a 1B490000 		.4byte	0x491b
 9948 3e7e 13       		.uleb128 0x13
 9949 3e7f 7D470000 		.4byte	0x477d
 9950 3e83 00       		.byte	0
 9951 3e84 23       		.uleb128 0x23
 9952 3e85 76350000 		.4byte	.LASF637
 9953 3e89 25       		.byte	0x25
 9954 3e8a 21       		.byte	0x21
 9955 3e8b 1B490000 		.4byte	0x491b
 9956 3e8f 02       		.byte	0x2
 9957 3e90 983E0000 		.4byte	0x3e98
 9958 3e94 9E3E0000 		.4byte	0x3e9e
 9959 3e98 22       		.uleb128 0x22
 9960 3e99 1B490000 		.4byte	0x491b
 9961 3e9d 00       		.byte	0
 9962 3e9e 49       		.uleb128 0x49
 9963 3e9f D0030000 		.4byte	.LASF663
 9964 3ea3 25       		.byte	0x25
 9965 3ea4 22       		.byte	0x22
 9966 3ea5 07030000 		.4byte	0x307
 9967 3ea9 01       		.byte	0x1
 9968 3eaa D13C0000 		.4byte	0x3cd1
 9969 3eae 02       		.byte	0x2
 9970 3eaf B73E0000 		.4byte	0x3eb7
 9971 3eb3 C23E0000 		.4byte	0x3ec2
 9972 3eb7 22       		.uleb128 0x22
 9973 3eb8 1B490000 		.4byte	0x491b
 9974 3ebc 22       		.uleb128 0x22
 9975 3ebd 25000000 		.4byte	0x25
 9976 3ec1 00       		.byte	0
 9977 3ec2 3F       		.uleb128 0x3f
 9978 3ec3 9A2F0000 		.4byte	.LASF651
 9979 3ec7 25       		.byte	0x25
 9980 3ec8 25       		.byte	0x25
 9981 3ec9 EE380000 		.4byte	.LASF652
 9982 3ecd FA000000 		.4byte	0xfa
 9983 3ed1 01       		.byte	0x1
 9984 3ed2 13       		.uleb128 0x13
 9985 3ed3 6E4C0000 		.4byte	0x4c6e
 9986 3ed7 13       		.uleb128 0x13
 9987 3ed8 C5050000 		.4byte	0x5c5
 9988 3edc 00       		.byte	0
 9989 3edd 00       		.byte	0
ARM GAS  /tmp/ccWQ6gKG.s 			page 177


 9990 3ede 20       		.uleb128 0x20
 9991 3edf A8500000 		.4byte	.LASF653
 9992 3ee3 0E       		.byte	0xe
 9993 3ee4 0A       		.byte	0xa
 9994 3ee5 23       		.byte	0x23
 9995 3ee6 133F0000 		.4byte	0x3f13
 9996 3eea 4A       		.uleb128 0x4a
 9997 3eeb 2F250000 		.4byte	0x252f
 9998 3eef 00       		.byte	0
 9999 3ef0 01       		.byte	0x1
 10000 3ef1 4B       		.uleb128 0x4b
 10001 3ef2 2E1C0000 		.4byte	.LASF654
 10002 3ef6 0A       		.byte	0xa
 10003 3ef7 25       		.byte	0x25
 10004 3ef8 7C490000 		.4byte	0x497c
 10005 3efc 02       		.byte	0x2
 10006 3efd 01       		.byte	0x1
 10007 3efe 4C       		.uleb128 0x4c
 10008 3eff A8500000 		.4byte	.LASF653
 10009 3f03 024C0000 		.4byte	0x4c02
 10010 3f07 01       		.byte	0x1
 10011 3f08 0C3F0000 		.4byte	0x3f0c
 10012 3f0c 22       		.uleb128 0x22
 10013 3f0d 024C0000 		.4byte	0x4c02
 10014 3f11 00       		.byte	0
 10015 3f12 00       		.byte	0
 10016 3f13 20       		.uleb128 0x20
 10017 3f14 6D290000 		.4byte	.LASF655
 10018 3f18 06       		.byte	0x6
 10019 3f19 0A       		.byte	0xa
 10020 3f1a 33       		.byte	0x33
 10021 3f1b 483F0000 		.4byte	0x3f48
 10022 3f1f 4A       		.uleb128 0x4a
 10023 3f20 2F250000 		.4byte	0x252f
 10024 3f24 00       		.byte	0
 10025 3f25 01       		.byte	0x1
 10026 3f26 4B       		.uleb128 0x4b
 10027 3f27 27170000 		.4byte	.LASF656
 10028 3f2b 0A       		.byte	0xa
 10029 3f2c 35       		.byte	0x35
 10030 3f2d 75490000 		.4byte	0x4975
 10031 3f31 02       		.byte	0x2
 10032 3f32 01       		.byte	0x1
 10033 3f33 4C       		.uleb128 0x4c
 10034 3f34 6D290000 		.4byte	.LASF655
 10035 3f38 914B0000 		.4byte	0x4b91
 10036 3f3c 01       		.byte	0x1
 10037 3f3d 413F0000 		.4byte	0x3f41
 10038 3f41 22       		.uleb128 0x22
 10039 3f42 914B0000 		.4byte	0x4b91
 10040 3f46 00       		.byte	0
 10041 3f47 00       		.byte	0
 10042 3f48 05       		.uleb128 0x5
 10043 3f49 341C0000 		.4byte	.LASF657
 10044 3f4d 0E       		.byte	0xe
 10045 3f4e 0A       		.byte	0xa
 10046 3f4f 5F       		.byte	0x5f
ARM GAS  /tmp/ccWQ6gKG.s 			page 178


 10047 3f50 8E3F0000 		.4byte	0x3f8e
 10048 3f54 25       		.uleb128 0x25
 10049 3f55 2F250000 		.4byte	0x252f
 10050 3f59 00       		.byte	0
 10051 3f5a 09       		.uleb128 0x9
 10052 3f5b 6B00     		.ascii	"k\000"
 10053 3f5d 0A       		.byte	0xa
 10054 3f5e 60       		.byte	0x60
 10055 3f5f 75490000 		.4byte	0x4975
 10056 3f63 02       		.byte	0x2
 10057 3f64 09       		.uleb128 0x9
 10058 3f65 746900   		.ascii	"ti\000"
 10059 3f68 0A       		.byte	0xa
 10060 3f69 61       		.byte	0x61
 10061 3f6a 75490000 		.4byte	0x4975
 10062 3f6e 06       		.byte	0x6
 10063 3f6f 09       		.uleb128 0x9
 10064 3f70 746400   		.ascii	"td\000"
 10065 3f73 0A       		.byte	0xa
 10066 3f74 62       		.byte	0x62
 10067 3f75 75490000 		.4byte	0x4975
 10068 3f79 0A       		.byte	0xa
 10069 3f7a 4D       		.uleb128 0x4d
 10070 3f7b 341C0000 		.4byte	.LASF657
 10071 3f7f 204B0000 		.4byte	0x4b20
 10072 3f83 873F0000 		.4byte	0x3f87
 10073 3f87 22       		.uleb128 0x22
 10074 3f88 204B0000 		.4byte	0x4b20
 10075 3f8c 00       		.byte	0
 10076 3f8d 00       		.byte	0
 10077 3f8e 46       		.uleb128 0x46
 10078 3f8f 8C020000 		.4byte	.LASF658
 10079 3f93 94       		.byte	0x94
 10080 3f94 0B       		.byte	0xb
 10081 3f95 0E       		.byte	0xe
 10082 3f96 D13C0000 		.4byte	0x3cd1
 10083 3f9a 3D400000 		.4byte	0x403d
 10084 3f9e 4A       		.uleb128 0x4a
 10085 3f9f 3D400000 		.4byte	0x403d
 10086 3fa3 00       		.byte	0
 10087 3fa4 01       		.byte	0x1
 10088 3fa5 08       		.uleb128 0x8
 10089 3fa6 01120000 		.4byte	.LASF659
 10090 3faa 0B       		.byte	0xb
 10091 3fab 15       		.byte	0x15
 10092 3fac 004B0000 		.4byte	0x4b00
 10093 3fb0 38       		.byte	0x38
 10094 3fb1 08       		.uleb128 0x8
 10095 3fb2 19390000 		.4byte	.LASF660
 10096 3fb6 0B       		.byte	0xb
 10097 3fb7 16       		.byte	0x16
 10098 3fb8 104B0000 		.4byte	0x4b10
 10099 3fbc 80       		.byte	0x80
 10100 3fbd 26       		.uleb128 0x26
 10101 3fbe A70B0000 		.4byte	.LASF661
 10102 3fc2 0B       		.byte	0xb
 10103 3fc3 12       		.byte	0x12
ARM GAS  /tmp/ccWQ6gKG.s 			page 179


 10104 3fc4 4D400000 		.4byte	0x404d
 10105 3fc8 01       		.byte	0x1
 10106 3fc9 48       		.uleb128 0x48
 10107 3fca C4560000 		.4byte	.LASF662
 10108 3fce 414B0000 		.4byte	0x4b41
 10109 3fd2 01       		.byte	0x1
 10110 3fd3 DB3F0000 		.4byte	0x3fdb
 10111 3fd7 E63F0000 		.4byte	0x3fe6
 10112 3fdb 22       		.uleb128 0x22
 10113 3fdc 414B0000 		.4byte	0x4b41
 10114 3fe0 13       		.uleb128 0x13
 10115 3fe1 474B0000 		.4byte	0x4b47
 10116 3fe5 00       		.byte	0
 10117 3fe6 23       		.uleb128 0x23
 10118 3fe7 C4560000 		.4byte	.LASF662
 10119 3feb 0B       		.byte	0xb
 10120 3fec 1F       		.byte	0x1f
 10121 3fed 414B0000 		.4byte	0x4b41
 10122 3ff1 01       		.byte	0x1
 10123 3ff2 FA3F0000 		.4byte	0x3ffa
 10124 3ff6 05400000 		.4byte	0x4005
 10125 3ffa 22       		.uleb128 0x22
 10126 3ffb 414B0000 		.4byte	0x4b41
 10127 3fff 13       		.uleb128 0x13
 10128 4000 BD3F0000 		.4byte	0x3fbd
 10129 4004 00       		.byte	0
 10130 4005 49       		.uleb128 0x49
 10131 4006 06270000 		.4byte	.LASF664
 10132 400a 0B       		.byte	0xb
 10133 400b 26       		.byte	0x26
 10134 400c 07030000 		.4byte	0x307
 10135 4010 01       		.byte	0x1
 10136 4011 8E3F0000 		.4byte	0x3f8e
 10137 4015 01       		.byte	0x1
 10138 4016 1E400000 		.4byte	0x401e
 10139 401a 29400000 		.4byte	0x4029
 10140 401e 22       		.uleb128 0x22
 10141 401f 414B0000 		.4byte	0x4b41
 10142 4023 22       		.uleb128 0x22
 10143 4024 25000000 		.4byte	0x25
 10144 4028 00       		.byte	0
 10145 4029 3A       		.uleb128 0x3a
 10146 402a DE100000 		.4byte	.LASF665
 10147 402e 483F0000 		.4byte	0x3f48
 10148 4032 4E       		.uleb128 0x4e
 10149 4033 37520000 		.4byte	.LASF666
 10150 4037 37000000 		.4byte	0x37
 10151 403b 05       		.byte	0x5
 10152 403c 00       		.byte	0
 10153 403d 46       		.uleb128 0x46
 10154 403e 4A3D0000 		.4byte	.LASF667
 10155 4042 38       		.byte	0x38
 10156 4043 0C       		.byte	0xc
 10157 4044 0D       		.byte	0xd
 10158 4045 D13C0000 		.4byte	0x3cd1
 10159 4049 60410000 		.4byte	0x4160
 10160 404d 26       		.uleb128 0x26
ARM GAS  /tmp/ccWQ6gKG.s 			page 180


 10161 404e A70B0000 		.4byte	.LASF661
 10162 4052 0C       		.byte	0xc
 10163 4053 0F       		.byte	0xf
 10164 4054 264B0000 		.4byte	0x4b26
 10165 4058 01       		.byte	0x1
 10166 4059 4A       		.uleb128 0x4a
 10167 405a 7B150000 		.4byte	0x157b
 10168 405e 00       		.byte	0
 10169 405f 01       		.byte	0x1
 10170 4060 48       		.uleb128 0x48
 10171 4061 DB590000 		.4byte	.LASF668
 10172 4065 4D4B0000 		.4byte	0x4b4d
 10173 4069 01       		.byte	0x1
 10174 406a 72400000 		.4byte	0x4072
 10175 406e 7D400000 		.4byte	0x407d
 10176 4072 22       		.uleb128 0x22
 10177 4073 4D4B0000 		.4byte	0x4b4d
 10178 4077 13       		.uleb128 0x13
 10179 4078 534B0000 		.4byte	0x4b53
 10180 407c 00       		.byte	0
 10181 407d 27       		.uleb128 0x27
 10182 407e B30F0000 		.4byte	.LASF669
 10183 4082 0C       		.byte	0xc
 10184 4083 32       		.byte	0x32
 10185 4084 4D120000 		.4byte	.LASF670
 10186 4088 4D400000 		.4byte	0x404d
 10187 408c 01       		.byte	0x1
 10188 408d 95400000 		.4byte	0x4095
 10189 4091 9B400000 		.4byte	0x409b
 10190 4095 22       		.uleb128 0x22
 10191 4096 594B0000 		.4byte	0x4b59
 10192 409a 00       		.byte	0
 10193 409b 27       		.uleb128 0x27
 10194 409c 4A220000 		.4byte	.LASF497
 10195 40a0 0C       		.byte	0xc
 10196 40a1 1F       		.byte	0x1f
 10197 40a2 C2130000 		.4byte	.LASF671
 10198 40a6 FA000000 		.4byte	0xfa
 10199 40aa 01       		.byte	0x1
 10200 40ab B3400000 		.4byte	0x40b3
 10201 40af BE400000 		.4byte	0x40be
 10202 40b3 22       		.uleb128 0x22
 10203 40b4 4D4B0000 		.4byte	0x4b4d
 10204 40b8 13       		.uleb128 0x13
 10205 40b9 5F4B0000 		.4byte	0x4b5f
 10206 40bd 00       		.byte	0
 10207 40be 27       		.uleb128 0x27
 10208 40bf 4A220000 		.4byte	.LASF497
 10209 40c3 0C       		.byte	0xc
 10210 40c4 27       		.byte	0x27
 10211 40c5 C5520000 		.4byte	.LASF672
 10212 40c9 FA000000 		.4byte	0xfa
 10213 40cd 01       		.byte	0x1
 10214 40ce D6400000 		.4byte	0x40d6
 10215 40d2 E6400000 		.4byte	0x40e6
 10216 40d6 22       		.uleb128 0x22
 10217 40d7 4D4B0000 		.4byte	0x4b4d
ARM GAS  /tmp/ccWQ6gKG.s 			page 181


 10218 40db 13       		.uleb128 0x13
 10219 40dc 5F4B0000 		.4byte	0x4b5f
 10220 40e0 13       		.uleb128 0x13
 10221 40e1 FC450000 		.4byte	0x45fc
 10222 40e5 00       		.byte	0
 10223 40e6 27       		.uleb128 0x27
 10224 40e7 F0430000 		.4byte	.LASF396
 10225 40eb 0C       		.byte	0xc
 10226 40ec 39       		.byte	0x39
 10227 40ed B9020000 		.4byte	.LASF673
 10228 40f1 FA000000 		.4byte	0xfa
 10229 40f5 01       		.byte	0x1
 10230 40f6 FE400000 		.4byte	0x40fe
 10231 40fa 09410000 		.4byte	0x4109
 10232 40fe 22       		.uleb128 0x22
 10233 40ff 4D4B0000 		.4byte	0x4b4d
 10234 4103 13       		.uleb128 0x13
 10235 4104 654B0000 		.4byte	0x4b65
 10236 4108 00       		.byte	0
 10237 4109 23       		.uleb128 0x23
 10238 410a DB590000 		.4byte	.LASF668
 10239 410e 0C       		.byte	0xc
 10240 410f 41       		.byte	0x41
 10241 4110 4D4B0000 		.4byte	0x4b4d
 10242 4114 01       		.byte	0x1
 10243 4115 1D410000 		.4byte	0x411d
 10244 4119 32410000 		.4byte	0x4132
 10245 411d 22       		.uleb128 0x22
 10246 411e 4D4B0000 		.4byte	0x4b4d
 10247 4122 13       		.uleb128 0x13
 10248 4123 6B4B0000 		.4byte	0x4b6b
 10249 4127 13       		.uleb128 0x13
 10250 4128 2C000000 		.4byte	0x2c
 10251 412c 13       		.uleb128 0x13
 10252 412d 4D400000 		.4byte	0x404d
 10253 4131 00       		.byte	0
 10254 4132 49       		.uleb128 0x49
 10255 4133 EB560000 		.4byte	.LASF674
 10256 4137 0C       		.byte	0xc
 10257 4138 4C       		.byte	0x4c
 10258 4139 07030000 		.4byte	0x307
 10259 413d 01       		.byte	0x1
 10260 413e 3D400000 		.4byte	0x403d
 10261 4142 01       		.byte	0x1
 10262 4143 4B410000 		.4byte	0x414b
 10263 4147 56410000 		.4byte	0x4156
 10264 414b 22       		.uleb128 0x22
 10265 414c 4D4B0000 		.4byte	0x4b4d
 10266 4150 22       		.uleb128 0x22
 10267 4151 25000000 		.4byte	0x25
 10268 4155 00       		.byte	0
 10269 4156 3A       		.uleb128 0x3a
 10270 4157 DE100000 		.4byte	.LASF665
 10271 415b 483F0000 		.4byte	0x3f48
 10272 415f 00       		.byte	0
 10273 4160 14       		.uleb128 0x14
 10274 4161 483F0000 		.4byte	0x3f48
ARM GAS  /tmp/ccWQ6gKG.s 			page 182


 10275 4165 14       		.uleb128 0x14
 10276 4166 8E3F0000 		.4byte	0x3f8e
 10277 416a 14       		.uleb128 0x14
 10278 416b 3D400000 		.4byte	0x403d
 10279 416f 46       		.uleb128 0x46
 10280 4170 4C180000 		.4byte	.LASF675
 10281 4174 6C       		.byte	0x6c
 10282 4175 0B       		.byte	0xb
 10283 4176 0E       		.byte	0xe
 10284 4177 D13C0000 		.4byte	0x3cd1
 10285 417b 1E420000 		.4byte	0x421e
 10286 417f 4A       		.uleb128 0x4a
 10287 4180 1E420000 		.4byte	0x421e
 10288 4184 00       		.byte	0
 10289 4185 01       		.byte	0x1
 10290 4186 08       		.uleb128 0x8
 10291 4187 01120000 		.4byte	.LASF659
 10292 418b 0B       		.byte	0xb
 10293 418c 15       		.byte	0x15
 10294 418d 714B0000 		.4byte	0x4b71
 10295 4191 38       		.byte	0x38
 10296 4192 08       		.uleb128 0x8
 10297 4193 19390000 		.4byte	.LASF660
 10298 4197 0B       		.byte	0xb
 10299 4198 16       		.byte	0x16
 10300 4199 814B0000 		.4byte	0x4b81
 10301 419d 58       		.byte	0x58
 10302 419e 26       		.uleb128 0x26
 10303 419f A70B0000 		.4byte	.LASF661
 10304 41a3 0B       		.byte	0xb
 10305 41a4 12       		.byte	0x12
 10306 41a5 2E420000 		.4byte	0x422e
 10307 41a9 01       		.byte	0x1
 10308 41aa 48       		.uleb128 0x48
 10309 41ab C4560000 		.4byte	.LASF662
 10310 41af B24B0000 		.4byte	0x4bb2
 10311 41b3 01       		.byte	0x1
 10312 41b4 BC410000 		.4byte	0x41bc
 10313 41b8 C7410000 		.4byte	0x41c7
 10314 41bc 22       		.uleb128 0x22
 10315 41bd B24B0000 		.4byte	0x4bb2
 10316 41c1 13       		.uleb128 0x13
 10317 41c2 B84B0000 		.4byte	0x4bb8
 10318 41c6 00       		.byte	0
 10319 41c7 23       		.uleb128 0x23
 10320 41c8 C4560000 		.4byte	.LASF662
 10321 41cc 0B       		.byte	0xb
 10322 41cd 1F       		.byte	0x1f
 10323 41ce B24B0000 		.4byte	0x4bb2
 10324 41d2 01       		.byte	0x1
 10325 41d3 DB410000 		.4byte	0x41db
 10326 41d7 E6410000 		.4byte	0x41e6
 10327 41db 22       		.uleb128 0x22
 10328 41dc B24B0000 		.4byte	0x4bb2
 10329 41e0 13       		.uleb128 0x13
 10330 41e1 9E410000 		.4byte	0x419e
 10331 41e5 00       		.byte	0
ARM GAS  /tmp/ccWQ6gKG.s 			page 183


 10332 41e6 49       		.uleb128 0x49
 10333 41e7 06270000 		.4byte	.LASF664
 10334 41eb 0B       		.byte	0xb
 10335 41ec 26       		.byte	0x26
 10336 41ed 07030000 		.4byte	0x307
 10337 41f1 01       		.byte	0x1
 10338 41f2 6F410000 		.4byte	0x416f
 10339 41f6 01       		.byte	0x1
 10340 41f7 FF410000 		.4byte	0x41ff
 10341 41fb 0A420000 		.4byte	0x420a
 10342 41ff 22       		.uleb128 0x22
 10343 4200 B24B0000 		.4byte	0x4bb2
 10344 4204 22       		.uleb128 0x22
 10345 4205 25000000 		.4byte	0x25
 10346 4209 00       		.byte	0
 10347 420a 3A       		.uleb128 0x3a
 10348 420b DE100000 		.4byte	.LASF665
 10349 420f 133F0000 		.4byte	0x3f13
 10350 4213 4E       		.uleb128 0x4e
 10351 4214 37520000 		.4byte	.LASF666
 10352 4218 37000000 		.4byte	0x37
 10353 421c 05       		.byte	0x5
 10354 421d 00       		.byte	0
 10355 421e 46       		.uleb128 0x46
 10356 421f A5170000 		.4byte	.LASF676
 10357 4223 38       		.byte	0x38
 10358 4224 0C       		.byte	0xc
 10359 4225 0D       		.byte	0xd
 10360 4226 D13C0000 		.4byte	0x3cd1
 10361 422a 41430000 		.4byte	0x4341
 10362 422e 26       		.uleb128 0x26
 10363 422f A70B0000 		.4byte	.LASF661
 10364 4233 0C       		.byte	0xc
 10365 4234 0F       		.byte	0xf
 10366 4235 974B0000 		.4byte	0x4b97
 10367 4239 01       		.byte	0x1
 10368 423a 4A       		.uleb128 0x4a
 10369 423b 7B150000 		.4byte	0x157b
 10370 423f 00       		.byte	0
 10371 4240 01       		.byte	0x1
 10372 4241 48       		.uleb128 0x48
 10373 4242 DB590000 		.4byte	.LASF668
 10374 4246 BE4B0000 		.4byte	0x4bbe
 10375 424a 01       		.byte	0x1
 10376 424b 53420000 		.4byte	0x4253
 10377 424f 5E420000 		.4byte	0x425e
 10378 4253 22       		.uleb128 0x22
 10379 4254 BE4B0000 		.4byte	0x4bbe
 10380 4258 13       		.uleb128 0x13
 10381 4259 C44B0000 		.4byte	0x4bc4
 10382 425d 00       		.byte	0
 10383 425e 27       		.uleb128 0x27
 10384 425f B30F0000 		.4byte	.LASF669
 10385 4263 0C       		.byte	0xc
 10386 4264 32       		.byte	0x32
 10387 4265 50220000 		.4byte	.LASF677
 10388 4269 2E420000 		.4byte	0x422e
ARM GAS  /tmp/ccWQ6gKG.s 			page 184


 10389 426d 01       		.byte	0x1
 10390 426e 76420000 		.4byte	0x4276
 10391 4272 7C420000 		.4byte	0x427c
 10392 4276 22       		.uleb128 0x22
 10393 4277 CA4B0000 		.4byte	0x4bca
 10394 427b 00       		.byte	0
 10395 427c 27       		.uleb128 0x27
 10396 427d 4A220000 		.4byte	.LASF497
 10397 4281 0C       		.byte	0xc
 10398 4282 1F       		.byte	0x1f
 10399 4283 30310000 		.4byte	.LASF678
 10400 4287 FA000000 		.4byte	0xfa
 10401 428b 01       		.byte	0x1
 10402 428c 94420000 		.4byte	0x4294
 10403 4290 9F420000 		.4byte	0x429f
 10404 4294 22       		.uleb128 0x22
 10405 4295 BE4B0000 		.4byte	0x4bbe
 10406 4299 13       		.uleb128 0x13
 10407 429a D04B0000 		.4byte	0x4bd0
 10408 429e 00       		.byte	0
 10409 429f 27       		.uleb128 0x27
 10410 42a0 4A220000 		.4byte	.LASF497
 10411 42a4 0C       		.byte	0xc
 10412 42a5 27       		.byte	0x27
 10413 42a6 37210000 		.4byte	.LASF679
 10414 42aa FA000000 		.4byte	0xfa
 10415 42ae 01       		.byte	0x1
 10416 42af B7420000 		.4byte	0x42b7
 10417 42b3 C7420000 		.4byte	0x42c7
 10418 42b7 22       		.uleb128 0x22
 10419 42b8 BE4B0000 		.4byte	0x4bbe
 10420 42bc 13       		.uleb128 0x13
 10421 42bd D04B0000 		.4byte	0x4bd0
 10422 42c1 13       		.uleb128 0x13
 10423 42c2 FC450000 		.4byte	0x45fc
 10424 42c6 00       		.byte	0
 10425 42c7 27       		.uleb128 0x27
 10426 42c8 F0430000 		.4byte	.LASF396
 10427 42cc 0C       		.byte	0xc
 10428 42cd 39       		.byte	0x39
 10429 42ce 15560000 		.4byte	.LASF680
 10430 42d2 FA000000 		.4byte	0xfa
 10431 42d6 01       		.byte	0x1
 10432 42d7 DF420000 		.4byte	0x42df
 10433 42db EA420000 		.4byte	0x42ea
 10434 42df 22       		.uleb128 0x22
 10435 42e0 BE4B0000 		.4byte	0x4bbe
 10436 42e4 13       		.uleb128 0x13
 10437 42e5 D64B0000 		.4byte	0x4bd6
 10438 42e9 00       		.byte	0
 10439 42ea 23       		.uleb128 0x23
 10440 42eb DB590000 		.4byte	.LASF668
 10441 42ef 0C       		.byte	0xc
 10442 42f0 41       		.byte	0x41
 10443 42f1 BE4B0000 		.4byte	0x4bbe
 10444 42f5 01       		.byte	0x1
 10445 42f6 FE420000 		.4byte	0x42fe
ARM GAS  /tmp/ccWQ6gKG.s 			page 185


 10446 42fa 13430000 		.4byte	0x4313
 10447 42fe 22       		.uleb128 0x22
 10448 42ff BE4B0000 		.4byte	0x4bbe
 10449 4303 13       		.uleb128 0x13
 10450 4304 DC4B0000 		.4byte	0x4bdc
 10451 4308 13       		.uleb128 0x13
 10452 4309 2C000000 		.4byte	0x2c
 10453 430d 13       		.uleb128 0x13
 10454 430e 2E420000 		.4byte	0x422e
 10455 4312 00       		.byte	0
 10456 4313 49       		.uleb128 0x49
 10457 4314 EB560000 		.4byte	.LASF674
 10458 4318 0C       		.byte	0xc
 10459 4319 4C       		.byte	0x4c
 10460 431a 07030000 		.4byte	0x307
 10461 431e 01       		.byte	0x1
 10462 431f 1E420000 		.4byte	0x421e
 10463 4323 01       		.byte	0x1
 10464 4324 2C430000 		.4byte	0x432c
 10465 4328 37430000 		.4byte	0x4337
 10466 432c 22       		.uleb128 0x22
 10467 432d BE4B0000 		.4byte	0x4bbe
 10468 4331 22       		.uleb128 0x22
 10469 4332 25000000 		.4byte	0x25
 10470 4336 00       		.byte	0
 10471 4337 3A       		.uleb128 0x3a
 10472 4338 DE100000 		.4byte	.LASF665
 10473 433c 133F0000 		.4byte	0x3f13
 10474 4340 00       		.byte	0
 10475 4341 14       		.uleb128 0x14
 10476 4342 133F0000 		.4byte	0x3f13
 10477 4346 14       		.uleb128 0x14
 10478 4347 6F410000 		.4byte	0x416f
 10479 434b 14       		.uleb128 0x14
 10480 434c 1E420000 		.4byte	0x421e
 10481 4350 46       		.uleb128 0x46
 10482 4351 EA100000 		.4byte	.LASF681
 10483 4355 94       		.byte	0x94
 10484 4356 0B       		.byte	0xb
 10485 4357 0E       		.byte	0xe
 10486 4358 D13C0000 		.4byte	0x3cd1
 10487 435c FF430000 		.4byte	0x43ff
 10488 4360 4A       		.uleb128 0x4a
 10489 4361 FF430000 		.4byte	0x43ff
 10490 4365 00       		.byte	0
 10491 4366 01       		.byte	0x1
 10492 4367 08       		.uleb128 0x8
 10493 4368 01120000 		.4byte	.LASF659
 10494 436c 0B       		.byte	0xb
 10495 436d 15       		.byte	0x15
 10496 436e E24B0000 		.4byte	0x4be2
 10497 4372 38       		.byte	0x38
 10498 4373 08       		.uleb128 0x8
 10499 4374 19390000 		.4byte	.LASF660
 10500 4378 0B       		.byte	0xb
 10501 4379 16       		.byte	0x16
 10502 437a F24B0000 		.4byte	0x4bf2
ARM GAS  /tmp/ccWQ6gKG.s 			page 186


 10503 437e 80       		.byte	0x80
 10504 437f 26       		.uleb128 0x26
 10505 4380 A70B0000 		.4byte	.LASF661
 10506 4384 0B       		.byte	0xb
 10507 4385 12       		.byte	0x12
 10508 4386 0F440000 		.4byte	0x440f
 10509 438a 01       		.byte	0x1
 10510 438b 48       		.uleb128 0x48
 10511 438c C4560000 		.4byte	.LASF662
 10512 4390 234C0000 		.4byte	0x4c23
 10513 4394 01       		.byte	0x1
 10514 4395 9D430000 		.4byte	0x439d
 10515 4399 A8430000 		.4byte	0x43a8
 10516 439d 22       		.uleb128 0x22
 10517 439e 234C0000 		.4byte	0x4c23
 10518 43a2 13       		.uleb128 0x13
 10519 43a3 294C0000 		.4byte	0x4c29
 10520 43a7 00       		.byte	0
 10521 43a8 23       		.uleb128 0x23
 10522 43a9 C4560000 		.4byte	.LASF662
 10523 43ad 0B       		.byte	0xb
 10524 43ae 1F       		.byte	0x1f
 10525 43af 234C0000 		.4byte	0x4c23
 10526 43b3 01       		.byte	0x1
 10527 43b4 BC430000 		.4byte	0x43bc
 10528 43b8 C7430000 		.4byte	0x43c7
 10529 43bc 22       		.uleb128 0x22
 10530 43bd 234C0000 		.4byte	0x4c23
 10531 43c1 13       		.uleb128 0x13
 10532 43c2 7F430000 		.4byte	0x437f
 10533 43c6 00       		.byte	0
 10534 43c7 49       		.uleb128 0x49
 10535 43c8 06270000 		.4byte	.LASF664
 10536 43cc 0B       		.byte	0xb
 10537 43cd 26       		.byte	0x26
 10538 43ce 07030000 		.4byte	0x307
 10539 43d2 01       		.byte	0x1
 10540 43d3 50430000 		.4byte	0x4350
 10541 43d7 01       		.byte	0x1
 10542 43d8 E0430000 		.4byte	0x43e0
 10543 43dc EB430000 		.4byte	0x43eb
 10544 43e0 22       		.uleb128 0x22
 10545 43e1 234C0000 		.4byte	0x4c23
 10546 43e5 22       		.uleb128 0x22
 10547 43e6 25000000 		.4byte	0x25
 10548 43ea 00       		.byte	0
 10549 43eb 3A       		.uleb128 0x3a
 10550 43ec DE100000 		.4byte	.LASF665
 10551 43f0 DE3E0000 		.4byte	0x3ede
 10552 43f4 4E       		.uleb128 0x4e
 10553 43f5 37520000 		.4byte	.LASF666
 10554 43f9 37000000 		.4byte	0x37
 10555 43fd 05       		.byte	0x5
 10556 43fe 00       		.byte	0
 10557 43ff 46       		.uleb128 0x46
 10558 4400 63150000 		.4byte	.LASF682
 10559 4404 38       		.byte	0x38
ARM GAS  /tmp/ccWQ6gKG.s 			page 187


 10560 4405 0C       		.byte	0xc
 10561 4406 0D       		.byte	0xd
 10562 4407 D13C0000 		.4byte	0x3cd1
 10563 440b 22450000 		.4byte	0x4522
 10564 440f 26       		.uleb128 0x26
 10565 4410 A70B0000 		.4byte	.LASF661
 10566 4414 0C       		.byte	0xc
 10567 4415 0F       		.byte	0xf
 10568 4416 084C0000 		.4byte	0x4c08
 10569 441a 01       		.byte	0x1
 10570 441b 4A       		.uleb128 0x4a
 10571 441c 7B150000 		.4byte	0x157b
 10572 4420 00       		.byte	0
 10573 4421 01       		.byte	0x1
 10574 4422 48       		.uleb128 0x48
 10575 4423 DB590000 		.4byte	.LASF668
 10576 4427 2F4C0000 		.4byte	0x4c2f
 10577 442b 01       		.byte	0x1
 10578 442c 34440000 		.4byte	0x4434
 10579 4430 3F440000 		.4byte	0x443f
 10580 4434 22       		.uleb128 0x22
 10581 4435 2F4C0000 		.4byte	0x4c2f
 10582 4439 13       		.uleb128 0x13
 10583 443a 354C0000 		.4byte	0x4c35
 10584 443e 00       		.byte	0
 10585 443f 27       		.uleb128 0x27
 10586 4440 B30F0000 		.4byte	.LASF669
 10587 4444 0C       		.byte	0xc
 10588 4445 32       		.byte	0x32
 10589 4446 553C0000 		.4byte	.LASF683
 10590 444a 0F440000 		.4byte	0x440f
 10591 444e 01       		.byte	0x1
 10592 444f 57440000 		.4byte	0x4457
 10593 4453 5D440000 		.4byte	0x445d
 10594 4457 22       		.uleb128 0x22
 10595 4458 3B4C0000 		.4byte	0x4c3b
 10596 445c 00       		.byte	0
 10597 445d 27       		.uleb128 0x27
 10598 445e 4A220000 		.4byte	.LASF497
 10599 4462 0C       		.byte	0xc
 10600 4463 1F       		.byte	0x1f
 10601 4464 16350000 		.4byte	.LASF684
 10602 4468 FA000000 		.4byte	0xfa
 10603 446c 01       		.byte	0x1
 10604 446d 75440000 		.4byte	0x4475
 10605 4471 80440000 		.4byte	0x4480
 10606 4475 22       		.uleb128 0x22
 10607 4476 2F4C0000 		.4byte	0x4c2f
 10608 447a 13       		.uleb128 0x13
 10609 447b 414C0000 		.4byte	0x4c41
 10610 447f 00       		.byte	0
 10611 4480 27       		.uleb128 0x27
 10612 4481 4A220000 		.4byte	.LASF497
 10613 4485 0C       		.byte	0xc
 10614 4486 27       		.byte	0x27
 10615 4487 67000000 		.4byte	.LASF685
 10616 448b FA000000 		.4byte	0xfa
ARM GAS  /tmp/ccWQ6gKG.s 			page 188


 10617 448f 01       		.byte	0x1
 10618 4490 98440000 		.4byte	0x4498
 10619 4494 A8440000 		.4byte	0x44a8
 10620 4498 22       		.uleb128 0x22
 10621 4499 2F4C0000 		.4byte	0x4c2f
 10622 449d 13       		.uleb128 0x13
 10623 449e 414C0000 		.4byte	0x4c41
 10624 44a2 13       		.uleb128 0x13
 10625 44a3 FC450000 		.4byte	0x45fc
 10626 44a7 00       		.byte	0
 10627 44a8 27       		.uleb128 0x27
 10628 44a9 F0430000 		.4byte	.LASF396
 10629 44ad 0C       		.byte	0xc
 10630 44ae 39       		.byte	0x39
 10631 44af 78380000 		.4byte	.LASF686
 10632 44b3 FA000000 		.4byte	0xfa
 10633 44b7 01       		.byte	0x1
 10634 44b8 C0440000 		.4byte	0x44c0
 10635 44bc CB440000 		.4byte	0x44cb
 10636 44c0 22       		.uleb128 0x22
 10637 44c1 2F4C0000 		.4byte	0x4c2f
 10638 44c5 13       		.uleb128 0x13
 10639 44c6 474C0000 		.4byte	0x4c47
 10640 44ca 00       		.byte	0
 10641 44cb 23       		.uleb128 0x23
 10642 44cc DB590000 		.4byte	.LASF668
 10643 44d0 0C       		.byte	0xc
 10644 44d1 41       		.byte	0x41
 10645 44d2 2F4C0000 		.4byte	0x4c2f
 10646 44d6 01       		.byte	0x1
 10647 44d7 DF440000 		.4byte	0x44df
 10648 44db F4440000 		.4byte	0x44f4
 10649 44df 22       		.uleb128 0x22
 10650 44e0 2F4C0000 		.4byte	0x4c2f
 10651 44e4 13       		.uleb128 0x13
 10652 44e5 4D4C0000 		.4byte	0x4c4d
 10653 44e9 13       		.uleb128 0x13
 10654 44ea 2C000000 		.4byte	0x2c
 10655 44ee 13       		.uleb128 0x13
 10656 44ef 0F440000 		.4byte	0x440f
 10657 44f3 00       		.byte	0
 10658 44f4 49       		.uleb128 0x49
 10659 44f5 EB560000 		.4byte	.LASF674
 10660 44f9 0C       		.byte	0xc
 10661 44fa 4C       		.byte	0x4c
 10662 44fb 07030000 		.4byte	0x307
 10663 44ff 01       		.byte	0x1
 10664 4500 FF430000 		.4byte	0x43ff
 10665 4504 01       		.byte	0x1
 10666 4505 0D450000 		.4byte	0x450d
 10667 4509 18450000 		.4byte	0x4518
 10668 450d 22       		.uleb128 0x22
 10669 450e 2F4C0000 		.4byte	0x4c2f
 10670 4512 22       		.uleb128 0x22
 10671 4513 25000000 		.4byte	0x25
 10672 4517 00       		.byte	0
 10673 4518 3A       		.uleb128 0x3a
ARM GAS  /tmp/ccWQ6gKG.s 			page 189


 10674 4519 DE100000 		.4byte	.LASF665
 10675 451d DE3E0000 		.4byte	0x3ede
 10676 4521 00       		.byte	0
 10677 4522 14       		.uleb128 0x14
 10678 4523 DE3E0000 		.4byte	0x3ede
 10679 4527 14       		.uleb128 0x14
 10680 4528 50430000 		.4byte	0x4350
 10681 452c 14       		.uleb128 0x14
 10682 452d FF430000 		.4byte	0x43ff
 10683 4531 14       		.uleb128 0x14
 10684 4532 D13C0000 		.4byte	0x3cd1
 10685 4536 4F       		.uleb128 0x4f
 10686 4537 42400000 		.4byte	.LASF687
 10687 453b 26       		.byte	0x26
 10688 453c 1F       		.byte	0x1f
 10689 453d 54450000 		.4byte	0x4554
 10690 4541 3A       		.uleb128 0x3a
 10691 4542 01270000 		.4byte	.LASF688
 10692 4546 483F0000 		.4byte	0x3f48
 10693 454a 3A       		.uleb128 0x3a
 10694 454b CE200000 		.4byte	.LASF689
 10695 454f 2F250000 		.4byte	0x252f
 10696 4553 00       		.byte	0
 10697 4554 4F       		.uleb128 0x4f
 10698 4555 99430000 		.4byte	.LASF690
 10699 4559 26       		.byte	0x26
 10700 455a 1F       		.byte	0x1f
 10701 455b 72450000 		.4byte	0x4572
 10702 455f 3A       		.uleb128 0x3a
 10703 4560 01270000 		.4byte	.LASF688
 10704 4564 DE3E0000 		.4byte	0x3ede
 10705 4568 3A       		.uleb128 0x3a
 10706 4569 CE200000 		.4byte	.LASF689
 10707 456d 2F250000 		.4byte	0x252f
 10708 4571 00       		.byte	0
 10709 4572 4F       		.uleb128 0x4f
 10710 4573 9E3C0000 		.4byte	.LASF691
 10711 4577 26       		.byte	0x26
 10712 4578 1F       		.byte	0x1f
 10713 4579 90450000 		.4byte	0x4590
 10714 457d 3A       		.uleb128 0x3a
 10715 457e 01270000 		.4byte	.LASF688
 10716 4582 133F0000 		.4byte	0x3f13
 10717 4586 3A       		.uleb128 0x3a
 10718 4587 CE200000 		.4byte	.LASF689
 10719 458b 2F250000 		.4byte	0x252f
 10720 458f 00       		.byte	0
 10721 4590 50       		.uleb128 0x50
 10722 4591 9C120000 		.4byte	.LASF692
 10723 4595 01       		.byte	0x1
 10724 4596 E4       		.byte	0xe4
 10725 4597 9D140000 		.4byte	.LASF693
 10726 459b FA000000 		.4byte	0xfa
 10727 459f AE450000 		.4byte	0x45ae
 10728 45a3 13       		.uleb128 0x13
 10729 45a4 08460000 		.4byte	0x4608
 10730 45a8 13       		.uleb128 0x13
ARM GAS  /tmp/ccWQ6gKG.s 			page 190


 10731 45a9 08460000 		.4byte	0x4608
 10732 45ad 00       		.byte	0
 10733 45ae 51       		.uleb128 0x51
 10734 45af 29120000 		.4byte	.LASF694
 10735 45b3 01       		.byte	0x1
 10736 45b4 0701     		.2byte	0x107
 10737 45b6 59070000 		.4byte	.LASF774
 10738 45ba 2F0F0000 		.4byte	0xf2f
 10739 45be 13       		.uleb128 0x13
 10740 45bf 08460000 		.4byte	0x4608
 10741 45c3 13       		.uleb128 0x13
 10742 45c4 08460000 		.4byte	0x4608
 10743 45c8 00       		.byte	0
 10744 45c9 00       		.byte	0
 10745 45ca 0B       		.uleb128 0xb
 10746 45cb 04       		.byte	0x4
 10747 45cc 390A0000 		.4byte	0xa39
 10748 45d0 52       		.uleb128 0x52
 10749 45d1 04       		.byte	0x4
 10750 45d2 990A0000 		.4byte	0xa99
 10751 45d6 0B       		.uleb128 0xb
 10752 45d7 04       		.byte	0x4
 10753 45d8 DC450000 		.4byte	0x45dc
 10754 45dc 53       		.uleb128 0x53
 10755 45dd 0B       		.uleb128 0xb
 10756 45de 04       		.byte	0x4
 10757 45df 570C0000 		.4byte	0xc57
 10758 45e3 0B       		.uleb128 0xb
 10759 45e4 04       		.byte	0x4
 10760 45e5 9E0A0000 		.4byte	0xa9e
 10761 45e9 52       		.uleb128 0x52
 10762 45ea 04       		.byte	0x4
 10763 45eb B4050000 		.4byte	0x5b4
 10764 45ef 0B       		.uleb128 0xb
 10765 45f0 04       		.byte	0x4
 10766 45f1 2F0F0000 		.4byte	0xf2f
 10767 45f5 04       		.uleb128 0x4
 10768 45f6 08       		.byte	0x8
 10769 45f7 04       		.byte	0x4
 10770 45f8 30440000 		.4byte	.LASF695
 10771 45fc 52       		.uleb128 0x52
 10772 45fd 04       		.byte	0x4
 10773 45fe 5C0C0000 		.4byte	0xc5c
 10774 4602 0B       		.uleb128 0xb
 10775 4603 04       		.byte	0x4
 10776 4604 5C0C0000 		.4byte	0xc5c
 10777 4608 52       		.uleb128 0x52
 10778 4609 04       		.byte	0x4
 10779 460a 2F0F0000 		.4byte	0xf2f
 10780 460e 0B       		.uleb128 0xb
 10781 460f 04       		.byte	0x4
 10782 4610 460F0000 		.4byte	0xf46
 10783 4614 0B       		.uleb128 0xb
 10784 4615 04       		.byte	0x4
 10785 4616 1A460000 		.4byte	0x461a
 10786 461a 12       		.uleb128 0x12
 10787 461b FA000000 		.4byte	0xfa
ARM GAS  /tmp/ccWQ6gKG.s 			page 191


 10788 461f 29460000 		.4byte	0x4629
 10789 4623 13       		.uleb128 0x13
 10790 4624 29460000 		.4byte	0x4629
 10791 4628 00       		.byte	0
 10792 4629 52       		.uleb128 0x52
 10793 462a 04       		.byte	0x4
 10794 462b 76150000 		.4byte	0x1576
 10795 462f 0B       		.uleb128 0xb
 10796 4630 04       		.byte	0x4
 10797 4631 35460000 		.4byte	0x4635
 10798 4635 12       		.uleb128 0x12
 10799 4636 FA000000 		.4byte	0xfa
 10800 463a 49460000 		.4byte	0x4649
 10801 463e 13       		.uleb128 0x13
 10802 463f 29460000 		.4byte	0x4629
 10803 4643 13       		.uleb128 0x13
 10804 4644 D6450000 		.4byte	0x45d6
 10805 4648 00       		.byte	0
 10806 4649 0B       		.uleb128 0xb
 10807 464a 04       		.byte	0x4
 10808 464b 4E110000 		.4byte	0x114e
 10809 464f 0B       		.uleb128 0xb
 10810 4650 04       		.byte	0x4
 10811 4651 07160000 		.4byte	0x1607
 10812 4655 0B       		.uleb128 0xb
 10813 4656 04       		.byte	0x4
 10814 4657 340F0000 		.4byte	0xf34
 10815 465b 52       		.uleb128 0x52
 10816 465c 04       		.byte	0x4
 10817 465d 460F0000 		.4byte	0xf46
 10818 4661 0B       		.uleb128 0xb
 10819 4662 04       		.byte	0x4
 10820 4663 7B150000 		.4byte	0x157b
 10821 4667 52       		.uleb128 0x52
 10822 4668 04       		.byte	0x4
 10823 4669 980F0000 		.4byte	0xf98
 10824 466d 52       		.uleb128 0x52
 10825 466e 04       		.byte	0x4
 10826 466f 9D0F0000 		.4byte	0xf9d
 10827 4673 52       		.uleb128 0x52
 10828 4674 04       		.byte	0x4
 10829 4675 A20F0000 		.4byte	0xfa2
 10830 4679 52       		.uleb128 0x52
 10831 467a 04       		.byte	0x4
 10832 467b A70F0000 		.4byte	0xfa7
 10833 467f 0B       		.uleb128 0xb
 10834 4680 04       		.byte	0x4
 10835 4681 1E160000 		.4byte	0x161e
 10836 4685 0B       		.uleb128 0xb
 10837 4686 04       		.byte	0x4
 10838 4687 8B460000 		.4byte	0x468b
 10839 468b 12       		.uleb128 0x12
 10840 468c FA000000 		.4byte	0xfa
 10841 4690 9A460000 		.4byte	0x469a
 10842 4694 13       		.uleb128 0x13
 10843 4695 9A460000 		.4byte	0x469a
 10844 4699 00       		.byte	0
ARM GAS  /tmp/ccWQ6gKG.s 			page 192


 10845 469a 52       		.uleb128 0x52
 10846 469b 04       		.byte	0x4
 10847 469c D91A0000 		.4byte	0x1ad9
 10848 46a0 0B       		.uleb128 0xb
 10849 46a1 04       		.byte	0x4
 10850 46a2 A6460000 		.4byte	0x46a6
 10851 46a6 12       		.uleb128 0x12
 10852 46a7 FA000000 		.4byte	0xfa
 10853 46ab BA460000 		.4byte	0x46ba
 10854 46af 13       		.uleb128 0x13
 10855 46b0 9A460000 		.4byte	0x469a
 10856 46b4 13       		.uleb128 0x13
 10857 46b5 D6450000 		.4byte	0x45d6
 10858 46b9 00       		.byte	0
 10859 46ba 0B       		.uleb128 0xb
 10860 46bb 04       		.byte	0x4
 10861 46bc B6160000 		.4byte	0x16b6
 10862 46c0 0B       		.uleb128 0xb
 10863 46c1 04       		.byte	0x4
 10864 46c2 E31A0000 		.4byte	0x1ae3
 10865 46c6 0B       		.uleb128 0xb
 10866 46c7 04       		.byte	0x4
 10867 46c8 0C160000 		.4byte	0x160c
 10868 46cc 52       		.uleb128 0x52
 10869 46cd 04       		.byte	0x4
 10870 46ce 1E160000 		.4byte	0x161e
 10871 46d2 0B       		.uleb128 0xb
 10872 46d3 04       		.byte	0x4
 10873 46d4 DE1A0000 		.4byte	0x1ade
 10874 46d8 52       		.uleb128 0x52
 10875 46d9 04       		.byte	0x4
 10876 46da 6B160000 		.4byte	0x166b
 10877 46de 52       		.uleb128 0x52
 10878 46df 04       		.byte	0x4
 10879 46e0 70160000 		.4byte	0x1670
 10880 46e4 52       		.uleb128 0x52
 10881 46e5 04       		.byte	0x4
 10882 46e6 75160000 		.4byte	0x1675
 10883 46ea 52       		.uleb128 0x52
 10884 46eb 04       		.byte	0x4
 10885 46ec 7A160000 		.4byte	0x167a
 10886 46f0 0B       		.uleb128 0xb
 10887 46f1 04       		.byte	0x4
 10888 46f2 FA1A0000 		.4byte	0x1afa
 10889 46f6 0B       		.uleb128 0xb
 10890 46f7 04       		.byte	0x4
 10891 46f8 FC460000 		.4byte	0x46fc
 10892 46fc 12       		.uleb128 0x12
 10893 46fd FA000000 		.4byte	0xfa
 10894 4701 0B470000 		.4byte	0x470b
 10895 4705 13       		.uleb128 0x13
 10896 4706 0B470000 		.4byte	0x470b
 10897 470a 00       		.byte	0
 10898 470b 52       		.uleb128 0x52
 10899 470c 04       		.byte	0x4
 10900 470d B51F0000 		.4byte	0x1fb5
 10901 4711 0B       		.uleb128 0xb
ARM GAS  /tmp/ccWQ6gKG.s 			page 193


 10902 4712 04       		.byte	0x4
 10903 4713 17470000 		.4byte	0x4717
 10904 4717 12       		.uleb128 0x12
 10905 4718 FA000000 		.4byte	0xfa
 10906 471c 2B470000 		.4byte	0x472b
 10907 4720 13       		.uleb128 0x13
 10908 4721 0B470000 		.4byte	0x470b
 10909 4725 13       		.uleb128 0x13
 10910 4726 D6450000 		.4byte	0x45d6
 10911 472a 00       		.byte	0
 10912 472b 0B       		.uleb128 0xb
 10913 472c 04       		.byte	0x4
 10914 472d 921B0000 		.4byte	0x1b92
 10915 4731 0B       		.uleb128 0xb
 10916 4732 04       		.byte	0x4
 10917 4733 2A250000 		.4byte	0x252a
 10918 4737 0B       		.uleb128 0xb
 10919 4738 04       		.byte	0x4
 10920 4739 E81A0000 		.4byte	0x1ae8
 10921 473d 52       		.uleb128 0x52
 10922 473e 04       		.byte	0x4
 10923 473f FA1A0000 		.4byte	0x1afa
 10924 4743 0B       		.uleb128 0xb
 10925 4744 04       		.byte	0x4
 10926 4745 BA1F0000 		.4byte	0x1fba
 10927 4749 52       		.uleb128 0x52
 10928 474a 04       		.byte	0x4
 10929 474b 471B0000 		.4byte	0x1b47
 10930 474f 52       		.uleb128 0x52
 10931 4750 04       		.byte	0x4
 10932 4751 4C1B0000 		.4byte	0x1b4c
 10933 4755 52       		.uleb128 0x52
 10934 4756 04       		.byte	0x4
 10935 4757 511B0000 		.4byte	0x1b51
 10936 475b 52       		.uleb128 0x52
 10937 475c 04       		.byte	0x4
 10938 475d 561B0000 		.4byte	0x1b56
 10939 4761 14       		.uleb128 0x14
 10940 4762 43470000 		.4byte	0x4743
 10941 4766 52       		.uleb128 0x52
 10942 4767 04       		.byte	0x4
 10943 4768 BA1F0000 		.4byte	0x1fba
 10944 476c 14       		.uleb128 0x14
 10945 476d C5050000 		.4byte	0x5c5
 10946 4771 0B       		.uleb128 0xb
 10947 4772 04       		.byte	0x4
 10948 4773 B51F0000 		.4byte	0x1fb5
 10949 4777 0B       		.uleb128 0xb
 10950 4778 04       		.byte	0x4
 10951 4779 2F250000 		.4byte	0x252f
 10952 477d 52       		.uleb128 0x52
 10953 477e 04       		.byte	0x4
 10954 477f 2F250000 		.4byte	0x252f
 10955 4783 52       		.uleb128 0x52
 10956 4784 04       		.byte	0x4
 10957 4785 9A260000 		.4byte	0x269a
 10958 4789 52       		.uleb128 0x52
ARM GAS  /tmp/ccWQ6gKG.s 			page 194


 10959 478a 04       		.byte	0x4
 10960 478b 9F260000 		.4byte	0x269f
 10961 478f 52       		.uleb128 0x52
 10962 4790 04       		.byte	0x4
 10963 4791 A4260000 		.4byte	0x26a4
 10964 4795 52       		.uleb128 0x52
 10965 4796 04       		.byte	0x4
 10966 4797 7B150000 		.4byte	0x157b
 10967 479b 52       		.uleb128 0x52
 10968 479c 04       		.byte	0x4
 10969 479d DE1A0000 		.4byte	0x1ade
 10970 47a1 52       		.uleb128 0x52
 10971 47a2 04       		.byte	0x4
 10972 47a3 A9260000 		.4byte	0x26a9
 10973 47a7 0B       		.uleb128 0xb
 10974 47a8 04       		.byte	0x4
 10975 47a9 9A260000 		.4byte	0x269a
 10976 47ad 0B       		.uleb128 0xb
 10977 47ae 04       		.byte	0x4
 10978 47af C0260000 		.4byte	0x26c0
 10979 47b3 0B       		.uleb128 0xb
 10980 47b4 04       		.byte	0x4
 10981 47b5 B9470000 		.4byte	0x47b9
 10982 47b9 12       		.uleb128 0x12
 10983 47ba FA000000 		.4byte	0xfa
 10984 47be C8470000 		.4byte	0x47c8
 10985 47c2 13       		.uleb128 0x13
 10986 47c3 C8470000 		.4byte	0x47c8
 10987 47c7 00       		.byte	0
 10988 47c8 52       		.uleb128 0x52
 10989 47c9 04       		.byte	0x4
 10990 47ca F02C0000 		.4byte	0x2cf0
 10991 47ce 0B       		.uleb128 0xb
 10992 47cf 04       		.byte	0x4
 10993 47d0 D4470000 		.4byte	0x47d4
 10994 47d4 12       		.uleb128 0x12
 10995 47d5 FA000000 		.4byte	0xfa
 10996 47d9 E8470000 		.4byte	0x47e8
 10997 47dd 13       		.uleb128 0x13
 10998 47de C8470000 		.4byte	0x47c8
 10999 47e2 13       		.uleb128 0x13
 11000 47e3 D6450000 		.4byte	0x45d6
 11001 47e7 00       		.byte	0
 11002 47e8 0B       		.uleb128 0xb
 11003 47e9 04       		.byte	0x4
 11004 47ea C8280000 		.4byte	0x28c8
 11005 47ee 0B       		.uleb128 0xb
 11006 47ef 04       		.byte	0x4
 11007 47f0 F52C0000 		.4byte	0x2cf5
 11008 47f4 0B       		.uleb128 0xb
 11009 47f5 04       		.byte	0x4
 11010 47f6 AE260000 		.4byte	0x26ae
 11011 47fa 52       		.uleb128 0x52
 11012 47fb 04       		.byte	0x4
 11013 47fc C0260000 		.4byte	0x26c0
 11014 4800 0B       		.uleb128 0xb
 11015 4801 04       		.byte	0x4
ARM GAS  /tmp/ccWQ6gKG.s 			page 195


 11016 4802 9F260000 		.4byte	0x269f
 11017 4806 52       		.uleb128 0x52
 11018 4807 04       		.byte	0x4
 11019 4808 12270000 		.4byte	0x2712
 11020 480c 52       		.uleb128 0x52
 11021 480d 04       		.byte	0x4
 11022 480e 17270000 		.4byte	0x2717
 11023 4812 52       		.uleb128 0x52
 11024 4813 04       		.byte	0x4
 11025 4814 1C270000 		.4byte	0x271c
 11026 4818 52       		.uleb128 0x52
 11027 4819 04       		.byte	0x4
 11028 481a 21270000 		.4byte	0x2721
 11029 481e 14       		.uleb128 0x14
 11030 481f 00480000 		.4byte	0x4800
 11031 4823 0B       		.uleb128 0xb
 11032 4824 04       		.byte	0x4
 11033 4825 77470000 		.4byte	0x4777
 11034 4829 0B       		.uleb128 0xb
 11035 482a 04       		.byte	0x4
 11036 482b FA2C0000 		.4byte	0x2cfa
 11037 482f 52       		.uleb128 0x52
 11038 4830 04       		.byte	0x4
 11039 4831 77470000 		.4byte	0x4777
 11040 4835 0B       		.uleb128 0xb
 11041 4836 04       		.byte	0x4
 11042 4837 7A2E0000 		.4byte	0x2e7a
 11043 483b 14       		.uleb128 0x14
 11044 483c 61460000 		.4byte	0x4661
 11045 4840 0B       		.uleb128 0xb
 11046 4841 04       		.byte	0x4
 11047 4842 21300000 		.4byte	0x3021
 11048 4846 52       		.uleb128 0x52
 11049 4847 04       		.byte	0x4
 11050 4848 59010000 		.4byte	0x159
 11051 484c 0B       		.uleb128 0xb
 11052 484d 04       		.byte	0x4
 11053 484e 7F2E0000 		.4byte	0x2e7f
 11054 4852 52       		.uleb128 0x52
 11055 4853 04       		.byte	0x4
 11056 4854 9E0A0000 		.4byte	0xa9e
 11057 4858 52       		.uleb128 0x52
 11058 4859 04       		.byte	0x4
 11059 485a 7F2E0000 		.4byte	0x2e7f
 11060 485e 0B       		.uleb128 0xb
 11061 485f 04       		.byte	0x4
 11062 4860 B7310000 		.4byte	0x31b7
 11063 4864 0B       		.uleb128 0xb
 11064 4865 04       		.byte	0x4
 11065 4866 26300000 		.4byte	0x3026
 11066 486a 52       		.uleb128 0x52
 11067 486b 04       		.byte	0x4
 11068 486c 26300000 		.4byte	0x3026
 11069 4870 0B       		.uleb128 0xb
 11070 4871 04       		.byte	0x4
 11071 4872 A5320000 		.4byte	0x32a5
 11072 4876 0B       		.uleb128 0xb
ARM GAS  /tmp/ccWQ6gKG.s 			page 196


 11073 4877 04       		.byte	0x4
 11074 4878 BC310000 		.4byte	0x31bc
 11075 487c 0B       		.uleb128 0xb
 11076 487d 04       		.byte	0x4
 11077 487e 8E330000 		.4byte	0x338e
 11078 4882 0B       		.uleb128 0xb
 11079 4883 04       		.byte	0x4
 11080 4884 AA320000 		.4byte	0x32aa
 11081 4888 0B       		.uleb128 0xb
 11082 4889 04       		.byte	0x4
 11083 488a A5330000 		.4byte	0x33a5
 11084 488e 0B       		.uleb128 0xb
 11085 488f 04       		.byte	0x4
 11086 4890 94480000 		.4byte	0x4894
 11087 4894 12       		.uleb128 0x12
 11088 4895 FA000000 		.4byte	0xfa
 11089 4899 A3480000 		.4byte	0x48a3
 11090 489d 13       		.uleb128 0x13
 11091 489e A3480000 		.4byte	0x48a3
 11092 48a2 00       		.byte	0
 11093 48a3 52       		.uleb128 0x52
 11094 48a4 04       		.byte	0x4
 11095 48a5 D5390000 		.4byte	0x39d5
 11096 48a9 0B       		.uleb128 0xb
 11097 48aa 04       		.byte	0x4
 11098 48ab AF480000 		.4byte	0x48af
 11099 48af 12       		.uleb128 0x12
 11100 48b0 FA000000 		.4byte	0xfa
 11101 48b4 C3480000 		.4byte	0x48c3
 11102 48b8 13       		.uleb128 0x13
 11103 48b9 A3480000 		.4byte	0x48a3
 11104 48bd 13       		.uleb128 0x13
 11105 48be D6450000 		.4byte	0x45d6
 11106 48c2 00       		.byte	0
 11107 48c3 0B       		.uleb128 0xb
 11108 48c4 04       		.byte	0x4
 11109 48c5 AD350000 		.4byte	0x35ad
 11110 48c9 0B       		.uleb128 0xb
 11111 48ca 04       		.byte	0x4
 11112 48cb CC3C0000 		.4byte	0x3ccc
 11113 48cf 0B       		.uleb128 0xb
 11114 48d0 04       		.byte	0x4
 11115 48d1 93330000 		.4byte	0x3393
 11116 48d5 52       		.uleb128 0x52
 11117 48d6 04       		.byte	0x4
 11118 48d7 A5330000 		.4byte	0x33a5
 11119 48db 0B       		.uleb128 0xb
 11120 48dc 04       		.byte	0x4
 11121 48dd DA390000 		.4byte	0x39da
 11122 48e1 52       		.uleb128 0x52
 11123 48e2 04       		.byte	0x4
 11124 48e3 F7330000 		.4byte	0x33f7
 11125 48e7 52       		.uleb128 0x52
 11126 48e8 04       		.byte	0x4
 11127 48e9 FC330000 		.4byte	0x33fc
 11128 48ed 52       		.uleb128 0x52
 11129 48ee 04       		.byte	0x4
ARM GAS  /tmp/ccWQ6gKG.s 			page 197


 11130 48ef 01340000 		.4byte	0x3401
 11131 48f3 52       		.uleb128 0x52
 11132 48f4 04       		.byte	0x4
 11133 48f5 06340000 		.4byte	0x3406
 11134 48f9 14       		.uleb128 0x14
 11135 48fa DB480000 		.4byte	0x48db
 11136 48fe 52       		.uleb128 0x52
 11137 48ff 04       		.byte	0x4
 11138 4900 DA390000 		.4byte	0x39da
 11139 4904 0B       		.uleb128 0xb
 11140 4905 04       		.byte	0x4
 11141 4906 D5390000 		.4byte	0x39d5
 11142 490a 52       		.uleb128 0x52
 11143 490b 04       		.byte	0x4
 11144 490c F52C0000 		.4byte	0x2cf5
 11145 4910 52       		.uleb128 0x52
 11146 4911 04       		.byte	0x4
 11147 4912 07160000 		.4byte	0x1607
 11148 4916 14       		.uleb128 0x14
 11149 4917 D2460000 		.4byte	0x46d2
 11150 491b 0B       		.uleb128 0xb
 11151 491c 04       		.byte	0x4
 11152 491d D13C0000 		.4byte	0x3cd1
 11153 4921 0B       		.uleb128 0xb
 11154 4922 04       		.byte	0x4
 11155 4923 C6390000 		.4byte	0x39c6
 11156 4927 0B       		.uleb128 0xb
 11157 4928 04       		.byte	0x4
 11158 4929 06340000 		.4byte	0x3406
 11159 492d 52       		.uleb128 0x52
 11160 492e 04       		.byte	0x4
 11161 492f 67390000 		.4byte	0x3967
 11162 4933 0B       		.uleb128 0xb
 11163 4934 04       		.byte	0x4
 11164 4935 67390000 		.4byte	0x3967
 11165 4939 0B       		.uleb128 0xb
 11166 493a 04       		.byte	0x4
 11167 493b E12C0000 		.4byte	0x2ce1
 11168 493f 0B       		.uleb128 0xb
 11169 4940 04       		.byte	0x4
 11170 4941 21270000 		.4byte	0x2721
 11171 4945 52       		.uleb128 0x52
 11172 4946 04       		.byte	0x4
 11173 4947 822C0000 		.4byte	0x2c82
 11174 494b 0B       		.uleb128 0xb
 11175 494c 04       		.byte	0x4
 11176 494d F02C0000 		.4byte	0x2cf0
 11177 4951 0B       		.uleb128 0xb
 11178 4952 04       		.byte	0x4
 11179 4953 822C0000 		.4byte	0x2c82
 11180 4957 0B       		.uleb128 0xb
 11181 4958 04       		.byte	0x4
 11182 4959 67150000 		.4byte	0x1567
 11183 495d 0B       		.uleb128 0xb
 11184 495e 04       		.byte	0x4
 11185 495f A70F0000 		.4byte	0xfa7
 11186 4963 52       		.uleb128 0x52
ARM GAS  /tmp/ccWQ6gKG.s 			page 198


 11187 4964 04       		.byte	0x4
 11188 4965 08150000 		.4byte	0x1508
 11189 4969 0B       		.uleb128 0xb
 11190 496a 04       		.byte	0x4
 11191 496b 76150000 		.4byte	0x1576
 11192 496f 0B       		.uleb128 0xb
 11193 4970 04       		.byte	0x4
 11194 4971 08150000 		.4byte	0x1508
 11195 4975 04       		.uleb128 0x4
 11196 4976 04       		.byte	0x4
 11197 4977 04       		.byte	0x4
 11198 4978 02160000 		.4byte	.LASF696
 11199 497c 10       		.uleb128 0x10
 11200 497d 75490000 		.4byte	0x4975
 11201 4981 8C490000 		.4byte	0x498c
 11202 4985 11       		.uleb128 0x11
 11203 4986 86040000 		.4byte	0x486
 11204 498a 02       		.byte	0x2
 11205 498b 00       		.byte	0
 11206 498c 05       		.uleb128 0x5
 11207 498d 79210000 		.4byte	.LASF697
 11208 4991 10       		.byte	0x10
 11209 4992 27       		.byte	0x27
 11210 4993 07       		.byte	0x7
 11211 4994 C4490000 		.4byte	0x49c4
 11212 4998 09       		.uleb128 0x9
 11213 4999 6B00     		.ascii	"k\000"
 11214 499b 27       		.byte	0x27
 11215 499c 08       		.byte	0x8
 11216 499d 75490000 		.4byte	0x4975
 11217 49a1 00       		.byte	0
 11218 49a2 09       		.uleb128 0x9
 11219 49a3 746900   		.ascii	"ti\000"
 11220 49a6 27       		.byte	0x27
 11221 49a7 09       		.byte	0x9
 11222 49a8 75490000 		.4byte	0x4975
 11223 49ac 04       		.byte	0x4
 11224 49ad 09       		.uleb128 0x9
 11225 49ae 746400   		.ascii	"td\000"
 11226 49b1 27       		.byte	0x27
 11227 49b2 0A       		.byte	0xa
 11228 49b3 75490000 		.4byte	0x4975
 11229 49b7 08       		.byte	0x8
 11230 49b8 09       		.uleb128 0x9
 11231 49b9 747300   		.ascii	"ts\000"
 11232 49bc 27       		.byte	0x27
 11233 49bd 0B       		.byte	0xb
 11234 49be 75490000 		.4byte	0x4975
 11235 49c2 0C       		.byte	0xc
 11236 49c3 00       		.byte	0
 11237 49c4 05       		.uleb128 0x5
 11238 49c5 883D0000 		.4byte	.LASF698
 11239 49c9 1C       		.byte	0x1c
 11240 49ca 27       		.byte	0x27
 11241 49cb 0E       		.byte	0xe
 11242 49cc 004A0000 		.4byte	0x4a00
 11243 49d0 08       		.uleb128 0x8
ARM GAS  /tmp/ccWQ6gKG.s 			page 199


 11244 49d1 562C0000 		.4byte	.LASF699
 11245 49d5 27       		.byte	0x27
 11246 49d6 0F       		.byte	0xf
 11247 49d7 C5050000 		.4byte	0x5c5
 11248 49db 00       		.byte	0
 11249 49dc 08       		.uleb128 0x8
 11250 49dd AB020000 		.4byte	.LASF700
 11251 49e1 27       		.byte	0x27
 11252 49e2 10       		.byte	0x10
 11253 49e3 C5050000 		.4byte	0x5c5
 11254 49e7 04       		.byte	0x4
 11255 49e8 09       		.uleb128 0x9
 11256 49e9 696400   		.ascii	"id\000"
 11257 49ec 27       		.byte	0x27
 11258 49ed 11       		.byte	0x11
 11259 49ee B8000000 		.4byte	0xb8
 11260 49f2 08       		.byte	0x8
 11261 49f3 08       		.uleb128 0x8
 11262 49f4 4C380000 		.4byte	.LASF701
 11263 49f8 27       		.byte	0x27
 11264 49f9 12       		.byte	0x12
 11265 49fa 8C490000 		.4byte	0x498c
 11266 49fe 0C       		.byte	0xc
 11267 49ff 00       		.byte	0
 11268 4a00 54       		.uleb128 0x54
 11269 4a01 50494400 		.ascii	"PID\000"
 11270 4a05 20       		.byte	0x20
 11271 4a06 07       		.byte	0x7
 11272 4a07 05       		.byte	0x5
 11273 4a08 FA4A0000 		.4byte	0x4afa
 11274 4a0c 09       		.uleb128 0x9
 11275 4a0d 5F6900   		.ascii	"_i\000"
 11276 4a10 07       		.byte	0x7
 11277 4a11 07       		.byte	0x7
 11278 4a12 75490000 		.4byte	0x4975
 11279 4a16 00       		.byte	0
 11280 4a17 09       		.uleb128 0x9
 11281 4a18 5F6400   		.ascii	"_d\000"
 11282 4a1b 07       		.byte	0x7
 11283 4a1c 08       		.byte	0x8
 11284 4a1d 75490000 		.4byte	0x4975
 11285 4a21 04       		.byte	0x4
 11286 4a22 08       		.uleb128 0x8
 11287 4a23 401A0000 		.4byte	.LASF702
 11288 4a27 07       		.byte	0x7
 11289 4a28 09       		.byte	0x9
 11290 4a29 75490000 		.4byte	0x4975
 11291 4a2d 08       		.byte	0x8
 11292 4a2e 09       		.uleb128 0x9
 11293 4a2f 5F6B00   		.ascii	"_k\000"
 11294 4a32 07       		.byte	0x7
 11295 4a33 0A       		.byte	0xa
 11296 4a34 75490000 		.4byte	0x4975
 11297 4a38 0C       		.byte	0xc
 11298 4a39 09       		.uleb128 0x9
 11299 4a3a 5F6B6900 		.ascii	"_ki\000"
 11300 4a3e 07       		.byte	0x7
ARM GAS  /tmp/ccWQ6gKG.s 			page 200


 11301 4a3f 0B       		.byte	0xb
 11302 4a40 75490000 		.4byte	0x4975
 11303 4a44 10       		.byte	0x10
 11304 4a45 09       		.uleb128 0x9
 11305 4a46 5F6B6400 		.ascii	"_kd\000"
 11306 4a4a 07       		.byte	0x7
 11307 4a4b 0C       		.byte	0xc
 11308 4a4c 75490000 		.4byte	0x4975
 11309 4a50 14       		.byte	0x14
 11310 4a51 08       		.uleb128 0x8
 11311 4a52 181F0000 		.4byte	.LASF703
 11312 4a56 07       		.byte	0x7
 11313 4a57 0D       		.byte	0xd
 11314 4a58 75490000 		.4byte	0x4975
 11315 4a5c 18       		.byte	0x18
 11316 4a5d 08       		.uleb128 0x8
 11317 4a5e 81140000 		.4byte	.LASF704
 11318 4a62 07       		.byte	0x7
 11319 4a63 0E       		.byte	0xe
 11320 4a64 75490000 		.4byte	0x4975
 11321 4a68 1C       		.byte	0x1c
 11322 4a69 55       		.uleb128 0x55
 11323 4a6a 50494400 		.ascii	"PID\000"
 11324 4a6e 07       		.byte	0x7
 11325 4a6f 11       		.byte	0x11
 11326 4a70 FA4A0000 		.4byte	0x4afa
 11327 4a74 01       		.byte	0x1
 11328 4a75 7D4A0000 		.4byte	0x4a7d
 11329 4a79 834A0000 		.4byte	0x4a83
 11330 4a7d 22       		.uleb128 0x22
 11331 4a7e FA4A0000 		.4byte	0x4afa
 11332 4a82 00       		.byte	0
 11333 4a83 28       		.uleb128 0x28
 11334 4a84 5D420000 		.4byte	.LASF105
 11335 4a88 07       		.byte	0x7
 11336 4a89 12       		.byte	0x12
 11337 4a8a B4220000 		.4byte	.LASF705
 11338 4a8e 01       		.byte	0x1
 11339 4a8f 974A0000 		.4byte	0x4a97
 11340 4a93 BB4A0000 		.4byte	0x4abb
 11341 4a97 22       		.uleb128 0x22
 11342 4a98 FA4A0000 		.4byte	0x4afa
 11343 4a9c 13       		.uleb128 0x13
 11344 4a9d 75490000 		.4byte	0x4975
 11345 4aa1 13       		.uleb128 0x13
 11346 4aa2 75490000 		.4byte	0x4975
 11347 4aa6 13       		.uleb128 0x13
 11348 4aa7 75490000 		.4byte	0x4975
 11349 4aab 13       		.uleb128 0x13
 11350 4aac 75490000 		.4byte	0x4975
 11351 4ab0 13       		.uleb128 0x13
 11352 4ab1 75490000 		.4byte	0x4975
 11353 4ab5 13       		.uleb128 0x13
 11354 4ab6 75490000 		.4byte	0x4975
 11355 4aba 00       		.byte	0
 11356 4abb 56       		.uleb128 0x56
 11357 4abc 73657400 		.ascii	"set\000"
ARM GAS  /tmp/ccWQ6gKG.s 			page 201


 11358 4ac0 07       		.byte	0x7
 11359 4ac1 13       		.byte	0x13
 11360 4ac2 AD460000 		.4byte	.LASF706
 11361 4ac6 01       		.byte	0x1
 11362 4ac7 CF4A0000 		.4byte	0x4acf
 11363 4acb DA4A0000 		.4byte	0x4ada
 11364 4acf 22       		.uleb128 0x22
 11365 4ad0 FA4A0000 		.4byte	0x4afa
 11366 4ad4 13       		.uleb128 0x13
 11367 4ad5 75490000 		.4byte	0x4975
 11368 4ad9 00       		.byte	0
 11369 4ada 35       		.uleb128 0x35
 11370 4adb F3190000 		.4byte	.LASF707
 11371 4adf 07       		.byte	0x7
 11372 4ae0 14       		.byte	0x14
 11373 4ae1 BF030000 		.4byte	.LASF708
 11374 4ae5 75490000 		.4byte	0x4975
 11375 4ae9 01       		.byte	0x1
 11376 4aea EE4A0000 		.4byte	0x4aee
 11377 4aee 22       		.uleb128 0x22
 11378 4aef FA4A0000 		.4byte	0x4afa
 11379 4af3 13       		.uleb128 0x13
 11380 4af4 75490000 		.4byte	0x4975
 11381 4af8 00       		.byte	0
 11382 4af9 00       		.byte	0
 11383 4afa 0B       		.uleb128 0xb
 11384 4afb 04       		.byte	0x4
 11385 4afc 004A0000 		.4byte	0x4a00
 11386 4b00 10       		.uleb128 0x10
 11387 4b01 483F0000 		.4byte	0x3f48
 11388 4b05 104B0000 		.4byte	0x4b10
 11389 4b09 11       		.uleb128 0x11
 11390 4b0a 86040000 		.4byte	0x486
 11391 4b0e 04       		.byte	0x4
 11392 4b0f 00       		.byte	0
 11393 4b10 10       		.uleb128 0x10
 11394 4b11 204B0000 		.4byte	0x4b20
 11395 4b15 204B0000 		.4byte	0x4b20
 11396 4b19 11       		.uleb128 0x11
 11397 4b1a 86040000 		.4byte	0x486
 11398 4b1e 04       		.byte	0x4
 11399 4b1f 00       		.byte	0
 11400 4b20 0B       		.uleb128 0xb
 11401 4b21 04       		.byte	0x4
 11402 4b22 483F0000 		.4byte	0x3f48
 11403 4b26 0B       		.uleb128 0xb
 11404 4b27 04       		.byte	0x4
 11405 4b28 2C4B0000 		.4byte	0x4b2c
 11406 4b2c 12       		.uleb128 0x12
 11407 4b2d FA000000 		.4byte	0xfa
 11408 4b31 3B4B0000 		.4byte	0x4b3b
 11409 4b35 13       		.uleb128 0x13
 11410 4b36 3B4B0000 		.4byte	0x4b3b
 11411 4b3a 00       		.byte	0
 11412 4b3b 52       		.uleb128 0x52
 11413 4b3c 04       		.byte	0x4
 11414 4b3d 60410000 		.4byte	0x4160
ARM GAS  /tmp/ccWQ6gKG.s 			page 202


 11415 4b41 0B       		.uleb128 0xb
 11416 4b42 04       		.byte	0x4
 11417 4b43 8E3F0000 		.4byte	0x3f8e
 11418 4b47 52       		.uleb128 0x52
 11419 4b48 04       		.byte	0x4
 11420 4b49 65410000 		.4byte	0x4165
 11421 4b4d 0B       		.uleb128 0xb
 11422 4b4e 04       		.byte	0x4
 11423 4b4f 3D400000 		.4byte	0x403d
 11424 4b53 52       		.uleb128 0x52
 11425 4b54 04       		.byte	0x4
 11426 4b55 6A410000 		.4byte	0x416a
 11427 4b59 0B       		.uleb128 0xb
 11428 4b5a 04       		.byte	0x4
 11429 4b5b 6A410000 		.4byte	0x416a
 11430 4b5f 52       		.uleb128 0x52
 11431 4b60 04       		.byte	0x4
 11432 4b61 204B0000 		.4byte	0x4b20
 11433 4b65 52       		.uleb128 0x52
 11434 4b66 04       		.byte	0x4
 11435 4b67 483F0000 		.4byte	0x3f48
 11436 4b6b 0B       		.uleb128 0xb
 11437 4b6c 04       		.byte	0x4
 11438 4b6d 204B0000 		.4byte	0x4b20
 11439 4b71 10       		.uleb128 0x10
 11440 4b72 133F0000 		.4byte	0x3f13
 11441 4b76 814B0000 		.4byte	0x4b81
 11442 4b7a 11       		.uleb128 0x11
 11443 4b7b 86040000 		.4byte	0x486
 11444 4b7f 04       		.byte	0x4
 11445 4b80 00       		.byte	0
 11446 4b81 10       		.uleb128 0x10
 11447 4b82 914B0000 		.4byte	0x4b91
 11448 4b86 914B0000 		.4byte	0x4b91
 11449 4b8a 11       		.uleb128 0x11
 11450 4b8b 86040000 		.4byte	0x486
 11451 4b8f 04       		.byte	0x4
 11452 4b90 00       		.byte	0
 11453 4b91 0B       		.uleb128 0xb
 11454 4b92 04       		.byte	0x4
 11455 4b93 133F0000 		.4byte	0x3f13
 11456 4b97 0B       		.uleb128 0xb
 11457 4b98 04       		.byte	0x4
 11458 4b99 9D4B0000 		.4byte	0x4b9d
 11459 4b9d 12       		.uleb128 0x12
 11460 4b9e FA000000 		.4byte	0xfa
 11461 4ba2 AC4B0000 		.4byte	0x4bac
 11462 4ba6 13       		.uleb128 0x13
 11463 4ba7 AC4B0000 		.4byte	0x4bac
 11464 4bab 00       		.byte	0
 11465 4bac 52       		.uleb128 0x52
 11466 4bad 04       		.byte	0x4
 11467 4bae 41430000 		.4byte	0x4341
 11468 4bb2 0B       		.uleb128 0xb
 11469 4bb3 04       		.byte	0x4
 11470 4bb4 6F410000 		.4byte	0x416f
 11471 4bb8 52       		.uleb128 0x52
ARM GAS  /tmp/ccWQ6gKG.s 			page 203


 11472 4bb9 04       		.byte	0x4
 11473 4bba 46430000 		.4byte	0x4346
 11474 4bbe 0B       		.uleb128 0xb
 11475 4bbf 04       		.byte	0x4
 11476 4bc0 1E420000 		.4byte	0x421e
 11477 4bc4 52       		.uleb128 0x52
 11478 4bc5 04       		.byte	0x4
 11479 4bc6 4B430000 		.4byte	0x434b
 11480 4bca 0B       		.uleb128 0xb
 11481 4bcb 04       		.byte	0x4
 11482 4bcc 4B430000 		.4byte	0x434b
 11483 4bd0 52       		.uleb128 0x52
 11484 4bd1 04       		.byte	0x4
 11485 4bd2 914B0000 		.4byte	0x4b91
 11486 4bd6 52       		.uleb128 0x52
 11487 4bd7 04       		.byte	0x4
 11488 4bd8 133F0000 		.4byte	0x3f13
 11489 4bdc 0B       		.uleb128 0xb
 11490 4bdd 04       		.byte	0x4
 11491 4bde 914B0000 		.4byte	0x4b91
 11492 4be2 10       		.uleb128 0x10
 11493 4be3 DE3E0000 		.4byte	0x3ede
 11494 4be7 F24B0000 		.4byte	0x4bf2
 11495 4beb 11       		.uleb128 0x11
 11496 4bec 86040000 		.4byte	0x486
 11497 4bf0 04       		.byte	0x4
 11498 4bf1 00       		.byte	0
 11499 4bf2 10       		.uleb128 0x10
 11500 4bf3 024C0000 		.4byte	0x4c02
 11501 4bf7 024C0000 		.4byte	0x4c02
 11502 4bfb 11       		.uleb128 0x11
 11503 4bfc 86040000 		.4byte	0x486
 11504 4c00 04       		.byte	0x4
 11505 4c01 00       		.byte	0
 11506 4c02 0B       		.uleb128 0xb
 11507 4c03 04       		.byte	0x4
 11508 4c04 DE3E0000 		.4byte	0x3ede
 11509 4c08 0B       		.uleb128 0xb
 11510 4c09 04       		.byte	0x4
 11511 4c0a 0E4C0000 		.4byte	0x4c0e
 11512 4c0e 12       		.uleb128 0x12
 11513 4c0f FA000000 		.4byte	0xfa
 11514 4c13 1D4C0000 		.4byte	0x4c1d
 11515 4c17 13       		.uleb128 0x13
 11516 4c18 1D4C0000 		.4byte	0x4c1d
 11517 4c1c 00       		.byte	0
 11518 4c1d 52       		.uleb128 0x52
 11519 4c1e 04       		.byte	0x4
 11520 4c1f 22450000 		.4byte	0x4522
 11521 4c23 0B       		.uleb128 0xb
 11522 4c24 04       		.byte	0x4
 11523 4c25 50430000 		.4byte	0x4350
 11524 4c29 52       		.uleb128 0x52
 11525 4c2a 04       		.byte	0x4
 11526 4c2b 27450000 		.4byte	0x4527
 11527 4c2f 0B       		.uleb128 0xb
 11528 4c30 04       		.byte	0x4
ARM GAS  /tmp/ccWQ6gKG.s 			page 204


 11529 4c31 FF430000 		.4byte	0x43ff
 11530 4c35 52       		.uleb128 0x52
 11531 4c36 04       		.byte	0x4
 11532 4c37 2C450000 		.4byte	0x452c
 11533 4c3b 0B       		.uleb128 0xb
 11534 4c3c 04       		.byte	0x4
 11535 4c3d 2C450000 		.4byte	0x452c
 11536 4c41 52       		.uleb128 0x52
 11537 4c42 04       		.byte	0x4
 11538 4c43 024C0000 		.4byte	0x4c02
 11539 4c47 52       		.uleb128 0x52
 11540 4c48 04       		.byte	0x4
 11541 4c49 DE3E0000 		.4byte	0x3ede
 11542 4c4d 0B       		.uleb128 0xb
 11543 4c4e 04       		.byte	0x4
 11544 4c4f 024C0000 		.4byte	0x4c02
 11545 4c53 12       		.uleb128 0x12
 11546 4c54 25000000 		.4byte	0x25
 11547 4c58 5E4C0000 		.4byte	0x4c5e
 11548 4c5c 57       		.uleb128 0x57
 11549 4c5d 00       		.byte	0
 11550 4c5e 0B       		.uleb128 0xb
 11551 4c5f 04       		.byte	0x4
 11552 4c60 644C0000 		.4byte	0x4c64
 11553 4c64 58       		.uleb128 0x58
 11554 4c65 04       		.byte	0x4
 11555 4c66 30230000 		.4byte	.LASF775
 11556 4c6a 534C0000 		.4byte	0x4c53
 11557 4c6e 52       		.uleb128 0x52
 11558 4c6f 04       		.byte	0x4
 11559 4c70 31450000 		.4byte	0x4531
 11560 4c74 0B       		.uleb128 0xb
 11561 4c75 04       		.byte	0x4
 11562 4c76 31450000 		.4byte	0x4531
 11563 4c7a 59       		.uleb128 0x59
 11564 4c7b 36450000 		.4byte	0x4536
 11565 4c7f 03       		.byte	0x3
 11566 4c80 AD4C0000 		.4byte	0x4cad
 11567 4c84 3A       		.uleb128 0x3a
 11568 4c85 01270000 		.4byte	.LASF688
 11569 4c89 483F0000 		.4byte	0x3f48
 11570 4c8d 3A       		.uleb128 0x3a
 11571 4c8e CE200000 		.4byte	.LASF689
 11572 4c92 2F250000 		.4byte	0x252f
 11573 4c96 5A       		.uleb128 0x5a
 11574 4c97 5B       		.uleb128 0x5b
 11575 4c98 706400   		.ascii	"pd\000"
 11576 4c9b 26       		.byte	0x26
 11577 4c9c 21       		.byte	0x21
 11578 4c9d AD4C0000 		.4byte	0x4cad
 11579 4ca1 5B       		.uleb128 0x5b
 11580 4ca2 706200   		.ascii	"pb\000"
 11581 4ca5 26       		.byte	0x26
 11582 4ca6 22       		.byte	0x22
 11583 4ca7 B84C0000 		.4byte	0x4cb8
 11584 4cab 00       		.byte	0
 11585 4cac 00       		.byte	0
ARM GAS  /tmp/ccWQ6gKG.s 			page 205


 11586 4cad 14       		.uleb128 0x14
 11587 4cae B24C0000 		.4byte	0x4cb2
 11588 4cb2 0B       		.uleb128 0xb
 11589 4cb3 04       		.byte	0x4
 11590 4cb4 60410000 		.4byte	0x4160
 11591 4cb8 14       		.uleb128 0x14
 11592 4cb9 A7470000 		.4byte	0x47a7
 11593 4cbd 59       		.uleb128 0x59
 11594 4cbe 54450000 		.4byte	0x4554
 11595 4cc2 03       		.byte	0x3
 11596 4cc3 F04C0000 		.4byte	0x4cf0
 11597 4cc7 3A       		.uleb128 0x3a
 11598 4cc8 01270000 		.4byte	.LASF688
 11599 4ccc DE3E0000 		.4byte	0x3ede
 11600 4cd0 3A       		.uleb128 0x3a
 11601 4cd1 CE200000 		.4byte	.LASF689
 11602 4cd5 2F250000 		.4byte	0x252f
 11603 4cd9 5A       		.uleb128 0x5a
 11604 4cda 5B       		.uleb128 0x5b
 11605 4cdb 706400   		.ascii	"pd\000"
 11606 4cde 26       		.byte	0x26
 11607 4cdf 21       		.byte	0x21
 11608 4ce0 F04C0000 		.4byte	0x4cf0
 11609 4ce4 5B       		.uleb128 0x5b
 11610 4ce5 706200   		.ascii	"pb\000"
 11611 4ce8 26       		.byte	0x26
 11612 4ce9 22       		.byte	0x22
 11613 4cea B84C0000 		.4byte	0x4cb8
 11614 4cee 00       		.byte	0
 11615 4cef 00       		.byte	0
 11616 4cf0 14       		.uleb128 0x14
 11617 4cf1 F54C0000 		.4byte	0x4cf5
 11618 4cf5 0B       		.uleb128 0xb
 11619 4cf6 04       		.byte	0x4
 11620 4cf7 22450000 		.4byte	0x4522
 11621 4cfb 59       		.uleb128 0x59
 11622 4cfc 72450000 		.4byte	0x4572
 11623 4d00 03       		.byte	0x3
 11624 4d01 2E4D0000 		.4byte	0x4d2e
 11625 4d05 3A       		.uleb128 0x3a
 11626 4d06 01270000 		.4byte	.LASF688
 11627 4d0a 133F0000 		.4byte	0x3f13
 11628 4d0e 3A       		.uleb128 0x3a
 11629 4d0f CE200000 		.4byte	.LASF689
 11630 4d13 2F250000 		.4byte	0x252f
 11631 4d17 5A       		.uleb128 0x5a
 11632 4d18 5B       		.uleb128 0x5b
 11633 4d19 706400   		.ascii	"pd\000"
 11634 4d1c 26       		.byte	0x26
 11635 4d1d 21       		.byte	0x21
 11636 4d1e 2E4D0000 		.4byte	0x4d2e
 11637 4d22 5B       		.uleb128 0x5b
 11638 4d23 706200   		.ascii	"pb\000"
 11639 4d26 26       		.byte	0x26
 11640 4d27 22       		.byte	0x22
 11641 4d28 B84C0000 		.4byte	0x4cb8
 11642 4d2c 00       		.byte	0
ARM GAS  /tmp/ccWQ6gKG.s 			page 206


 11643 4d2d 00       		.byte	0
 11644 4d2e 14       		.uleb128 0x14
 11645 4d2f 334D0000 		.4byte	0x4d33
 11646 4d33 0B       		.uleb128 0xb
 11647 4d34 04       		.byte	0x4
 11648 4d35 41430000 		.4byte	0x4341
 11649 4d39 5C       		.uleb128 0x5c
 11650 4d3a 950D0000 		.4byte	0xd95
 11651 4d3e 83       		.byte	0x83
 11652 4d3f 00000000 		.4byte	.LFB262
 11653 4d43 16000000 		.4byte	.LFE262-.LFB262
 11654 4d47 01       		.uleb128 0x1
 11655 4d48 9C       		.byte	0x9c
 11656 4d49 514D0000 		.4byte	0x4d51
 11657 4d4d 6C4D0000 		.4byte	0x4d6c
 11658 4d51 5D       		.uleb128 0x5d
 11659 4d52 2C260000 		.4byte	.LASF710
 11660 4d56 6C4D0000 		.4byte	0x4d6c
 11661 4d5a 02       		.uleb128 0x2
 11662 4d5b 91       		.byte	0x91
 11663 4d5c 7C       		.sleb128 -4
 11664 4d5d 5E       		.uleb128 0x5e
 11665 4d5e 72687300 		.ascii	"rhs\000"
 11666 4d62 01       		.byte	0x1
 11667 4d63 83       		.byte	0x83
 11668 4d64 714D0000 		.4byte	0x4d71
 11669 4d68 02       		.uleb128 0x2
 11670 4d69 91       		.byte	0x91
 11671 4d6a 78       		.sleb128 -8
 11672 4d6b 00       		.byte	0
 11673 4d6c 14       		.uleb128 0x14
 11674 4d6d 02460000 		.4byte	0x4602
 11675 4d71 14       		.uleb128 0x14
 11676 4d72 08460000 		.4byte	0x4608
 11677 4d76 5F       		.uleb128 0x5f
 11678 4d77 6F0E0000 		.4byte	0xe6f
 11679 4d7b B8       		.byte	0xb8
 11680 4d7c 00000000 		.4byte	.LFB276
 11681 4d80 22000000 		.4byte	.LFE276-.LFB276
 11682 4d84 01       		.uleb128 0x1
 11683 4d85 9C       		.byte	0x9c
 11684 4d86 994D0000 		.4byte	0x4d99
 11685 4d8a 60       		.uleb128 0x60
 11686 4d8b D8220000 		.4byte	.LASF709
 11687 4d8f 01       		.byte	0x1
 11688 4d90 B8       		.byte	0xb8
 11689 4d91 E10E0000 		.4byte	0xee1
 11690 4d95 02       		.uleb128 0x2
 11691 4d96 91       		.byte	0x91
 11692 4d97 70       		.sleb128 -16
 11693 4d98 00       		.byte	0
 11694 4d99 61       		.uleb128 0x61
 11695 4d9a 90450000 		.4byte	0x4590
 11696 4d9e 00000000 		.4byte	.LFB282
 11697 4da2 1E000000 		.4byte	.LFE282-.LFB282
 11698 4da6 01       		.uleb128 0x1
 11699 4da7 9C       		.byte	0x9c
ARM GAS  /tmp/ccWQ6gKG.s 			page 207


 11700 4da8 C94D0000 		.4byte	0x4dc9
 11701 4dac 5E       		.uleb128 0x5e
 11702 4dad 6C687300 		.ascii	"lhs\000"
 11703 4db1 01       		.byte	0x1
 11704 4db2 E4       		.byte	0xe4
 11705 4db3 C94D0000 		.4byte	0x4dc9
 11706 4db7 02       		.uleb128 0x2
 11707 4db8 91       		.byte	0x91
 11708 4db9 7C       		.sleb128 -4
 11709 4dba 5E       		.uleb128 0x5e
 11710 4dbb 72687300 		.ascii	"rhs\000"
 11711 4dbf 01       		.byte	0x1
 11712 4dc0 E4       		.byte	0xe4
 11713 4dc1 CE4D0000 		.4byte	0x4dce
 11714 4dc5 02       		.uleb128 0x2
 11715 4dc6 91       		.byte	0x91
 11716 4dc7 78       		.sleb128 -8
 11717 4dc8 00       		.byte	0
 11718 4dc9 14       		.uleb128 0x14
 11719 4dca 08460000 		.4byte	0x4608
 11720 4dce 14       		.uleb128 0x14
 11721 4dcf 08460000 		.4byte	0x4608
 11722 4dd3 62       		.uleb128 0x62
 11723 4dd4 AE450000 		.4byte	0x45ae
 11724 4dd8 00000000 		.4byte	.LFB287
 11725 4ddc 24000000 		.4byte	.LFE287-.LFB287
 11726 4de0 01       		.uleb128 0x1
 11727 4de1 9C       		.byte	0x9c
 11728 4de2 054E0000 		.4byte	0x4e05
 11729 4de6 63       		.uleb128 0x63
 11730 4de7 6C687300 		.ascii	"lhs\000"
 11731 4deb 01       		.byte	0x1
 11732 4dec 0701     		.2byte	0x107
 11733 4dee 054E0000 		.4byte	0x4e05
 11734 4df2 02       		.uleb128 0x2
 11735 4df3 91       		.byte	0x91
 11736 4df4 70       		.sleb128 -16
 11737 4df5 63       		.uleb128 0x63
 11738 4df6 72687300 		.ascii	"rhs\000"
 11739 4dfa 01       		.byte	0x1
 11740 4dfb 0701     		.2byte	0x107
 11741 4dfd 0A4E0000 		.4byte	0x4e0a
 11742 4e01 02       		.uleb128 0x2
 11743 4e02 91       		.byte	0x91
 11744 4e03 6C       		.sleb128 -20
 11745 4e04 00       		.byte	0
 11746 4e05 14       		.uleb128 0x14
 11747 4e06 08460000 		.4byte	0x4608
 11748 4e0a 14       		.uleb128 0x14
 11749 4e0b 08460000 		.4byte	0x4608
 11750 4e0f 64       		.uleb128 0x64
 11751 4e10 15260000 		.4byte	0x2615
 11752 4e14 84       		.byte	0x84
 11753 4e15 02       		.byte	0x2
 11754 4e16 1E4E0000 		.4byte	0x4e1e
 11755 4e1a 284E0000 		.4byte	0x4e28
 11756 4e1e 65       		.uleb128 0x65
ARM GAS  /tmp/ccWQ6gKG.s 			page 208


 11757 4e1f 2C260000 		.4byte	.LASF710
 11758 4e23 284E0000 		.4byte	0x4e28
 11759 4e27 00       		.byte	0
 11760 4e28 14       		.uleb128 0x14
 11761 4e29 77470000 		.4byte	0x4777
 11762 4e2d 66       		.uleb128 0x66
 11763 4e2e 0F4E0000 		.4byte	0x4e0f
 11764 4e32 90480000 		.4byte	.LASF714
 11765 4e36 00000000 		.4byte	.LFB294
 11766 4e3a 16000000 		.4byte	.LFE294-.LFB294
 11767 4e3e 01       		.uleb128 0x1
 11768 4e3f 9C       		.byte	0x9c
 11769 4e40 484E0000 		.4byte	0x4e48
 11770 4e44 514E0000 		.4byte	0x4e51
 11771 4e48 67       		.uleb128 0x67
 11772 4e49 1E4E0000 		.4byte	0x4e1e
 11773 4e4d 02       		.uleb128 0x2
 11774 4e4e 91       		.byte	0x91
 11775 4e4f 7C       		.sleb128 -4
 11776 4e50 00       		.byte	0
 11777 4e51 5C       		.uleb128 0x5c
 11778 4e52 EB310000 		.4byte	0x31eb
 11779 4e56 24       		.byte	0x24
 11780 4e57 00000000 		.4byte	.LFB353
 11781 4e5b 0E000000 		.4byte	.LFE353-.LFB353
 11782 4e5f 01       		.uleb128 0x1
 11783 4e60 9C       		.byte	0x9c
 11784 4e61 694E0000 		.4byte	0x4e69
 11785 4e65 764E0000 		.4byte	0x4e76
 11786 4e69 5D       		.uleb128 0x5d
 11787 4e6a 2C260000 		.4byte	.LASF710
 11788 4e6e 764E0000 		.4byte	0x4e76
 11789 4e72 02       		.uleb128 0x2
 11790 4e73 91       		.byte	0x91
 11791 4e74 7C       		.sleb128 -4
 11792 4e75 00       		.byte	0
 11793 4e76 14       		.uleb128 0x14
 11794 4e77 70480000 		.4byte	0x4870
 11795 4e7b 68       		.uleb128 0x68
 11796 4e7c 28320000 		.4byte	0x3228
 11797 4e80 32       		.byte	0x32
 11798 4e81 00000000 		.4byte	.LFB355
 11799 4e85 3C000000 		.4byte	.LFE355-.LFB355
 11800 4e89 01       		.uleb128 0x1
 11801 4e8a 9C       		.byte	0x9c
 11802 4e8b 934E0000 		.4byte	0x4e93
 11803 4e8f AE4E0000 		.4byte	0x4eae
 11804 4e93 5D       		.uleb128 0x5d
 11805 4e94 2C260000 		.4byte	.LASF710
 11806 4e98 AE4E0000 		.4byte	0x4eae
 11807 4e9c 02       		.uleb128 0x2
 11808 4e9d 91       		.byte	0x91
 11809 4e9e 74       		.sleb128 -12
 11810 4e9f 60       		.uleb128 0x60
 11811 4ea0 5E110000 		.4byte	.LASF711
 11812 4ea4 03       		.byte	0x3
 11813 4ea5 32       		.byte	0x32
ARM GAS  /tmp/ccWQ6gKG.s 			page 209


 11814 4ea6 37000000 		.4byte	0x37
 11815 4eaa 02       		.uleb128 0x2
 11816 4eab 91       		.byte	0x91
 11817 4eac 70       		.sleb128 -16
 11818 4ead 00       		.byte	0
 11819 4eae 14       		.uleb128 0x14
 11820 4eaf 76480000 		.4byte	0x4876
 11821 4eb3 68       		.uleb128 0x68
 11822 4eb4 D4320000 		.4byte	0x32d4
 11823 4eb8 23       		.byte	0x23
 11824 4eb9 00000000 		.4byte	.LFB361
 11825 4ebd 18000000 		.4byte	.LFE361-.LFB361
 11826 4ec1 01       		.uleb128 0x1
 11827 4ec2 9C       		.byte	0x9c
 11828 4ec3 CB4E0000 		.4byte	0x4ecb
 11829 4ec7 D84E0000 		.4byte	0x4ed8
 11830 4ecb 5D       		.uleb128 0x5d
 11831 4ecc 2C260000 		.4byte	.LASF710
 11832 4ed0 D84E0000 		.4byte	0x4ed8
 11833 4ed4 02       		.uleb128 0x2
 11834 4ed5 91       		.byte	0x91
 11835 4ed6 74       		.sleb128 -12
 11836 4ed7 00       		.byte	0
 11837 4ed8 14       		.uleb128 0x14
 11838 4ed9 7C480000 		.4byte	0x487c
 11839 4edd 68       		.uleb128 0x68
 11840 4ede 11330000 		.4byte	0x3311
 11841 4ee2 31       		.byte	0x31
 11842 4ee3 00000000 		.4byte	.LFB363
 11843 4ee7 18000000 		.4byte	.LFE363-.LFB363
 11844 4eeb 01       		.uleb128 0x1
 11845 4eec 9C       		.byte	0x9c
 11846 4eed F54E0000 		.4byte	0x4ef5
 11847 4ef1 104F0000 		.4byte	0x4f10
 11848 4ef5 5D       		.uleb128 0x5d
 11849 4ef6 2C260000 		.4byte	.LASF710
 11850 4efa 104F0000 		.4byte	0x4f10
 11851 4efe 02       		.uleb128 0x2
 11852 4eff 91       		.byte	0x91
 11853 4f00 74       		.sleb128 -12
 11854 4f01 60       		.uleb128 0x60
 11855 4f02 5E110000 		.4byte	.LASF711
 11856 4f06 04       		.byte	0x4
 11857 4f07 31       		.byte	0x31
 11858 4f08 37000000 		.4byte	0x37
 11859 4f0c 02       		.uleb128 0x2
 11860 4f0d 91       		.byte	0x91
 11861 4f0e 70       		.sleb128 -16
 11862 4f0f 00       		.byte	0
 11863 4f10 14       		.uleb128 0x14
 11864 4f11 82480000 		.4byte	0x4882
 11865 4f15 68       		.uleb128 0x68
 11866 4f16 8E3A0000 		.4byte	0x3a8e
 11867 4f1a 67       		.byte	0x67
 11868 4f1b 00000000 		.4byte	.LFB380
 11869 4f1f 24000000 		.4byte	.LFE380-.LFB380
 11870 4f23 01       		.uleb128 0x1
ARM GAS  /tmp/ccWQ6gKG.s 			page 210


 11871 4f24 9C       		.byte	0x9c
 11872 4f25 2D4F0000 		.4byte	0x4f2d
 11873 4f29 3A4F0000 		.4byte	0x4f3a
 11874 4f2d 5D       		.uleb128 0x5d
 11875 4f2e 2C260000 		.4byte	.LASF710
 11876 4f32 3A4F0000 		.4byte	0x4f3a
 11877 4f36 02       		.uleb128 0x2
 11878 4f37 91       		.byte	0x91
 11879 4f38 74       		.sleb128 -12
 11880 4f39 00       		.byte	0
 11881 4f3a 14       		.uleb128 0x14
 11882 4f3b 04490000 		.4byte	0x4904
 11883 4f3f 68       		.uleb128 0x68
 11884 4f40 CB3A0000 		.4byte	0x3acb
 11885 4f44 8C       		.byte	0x8c
 11886 4f45 00000000 		.4byte	.LFB385
 11887 4f49 1A000000 		.4byte	.LFE385-.LFB385
 11888 4f4d 01       		.uleb128 0x1
 11889 4f4e 9C       		.byte	0x9c
 11890 4f4f 574F0000 		.4byte	0x4f57
 11891 4f53 724F0000 		.4byte	0x4f72
 11892 4f57 5D       		.uleb128 0x5d
 11893 4f58 2C260000 		.4byte	.LASF710
 11894 4f5c F9480000 		.4byte	0x48f9
 11895 4f60 02       		.uleb128 0x2
 11896 4f61 91       		.byte	0x91
 11897 4f62 74       		.sleb128 -12
 11898 4f63 60       		.uleb128 0x60
 11899 4f64 5E110000 		.4byte	.LASF711
 11900 4f68 05       		.byte	0x5
 11901 4f69 8C       		.byte	0x8c
 11902 4f6a 37000000 		.4byte	0x37
 11903 4f6e 02       		.uleb128 0x2
 11904 4f6f 91       		.byte	0x91
 11905 4f70 70       		.sleb128 -16
 11906 4f71 00       		.byte	0
 11907 4f72 69       		.uleb128 0x69
 11908 4f73 84150000 		.4byte	0x1584
 11909 4f77 00000000 		.4byte	.LFB391
 11910 4f7b 1A000000 		.4byte	.LFE391-.LFB391
 11911 4f7f 01       		.uleb128 0x1
 11912 4f80 9C       		.byte	0x9c
 11913 4f81 894F0000 		.4byte	0x4f89
 11914 4f85 964F0000 		.4byte	0x4f96
 11915 4f89 5D       		.uleb128 0x5d
 11916 4f8a 2C260000 		.4byte	.LASF710
 11917 4f8e 964F0000 		.4byte	0x4f96
 11918 4f92 02       		.uleb128 0x2
 11919 4f93 91       		.byte	0x91
 11920 4f94 74       		.sleb128 -12
 11921 4f95 00       		.byte	0
 11922 4f96 14       		.uleb128 0x14
 11923 4f97 69490000 		.4byte	0x4969
 11924 4f9b 69       		.uleb128 0x69
 11925 4f9c AA150000 		.4byte	0x15aa
 11926 4fa0 00000000 		.4byte	.LFB392
 11927 4fa4 3C000000 		.4byte	.LFE392-.LFB392
ARM GAS  /tmp/ccWQ6gKG.s 			page 211


 11928 4fa8 01       		.uleb128 0x1
 11929 4fa9 9C       		.byte	0x9c
 11930 4faa B24F0000 		.4byte	0x4fb2
 11931 4fae DB4F0000 		.4byte	0x4fdb
 11932 4fb2 5D       		.uleb128 0x5d
 11933 4fb3 2C260000 		.4byte	.LASF710
 11934 4fb7 3B480000 		.4byte	0x483b
 11935 4fbb 02       		.uleb128 0x2
 11936 4fbc 91       		.byte	0x91
 11937 4fbd 6C       		.sleb128 -20
 11938 4fbe 60       		.uleb128 0x60
 11939 4fbf 7C3A0000 		.4byte	.LASF712
 11940 4fc3 06       		.byte	0x6
 11941 4fc4 47       		.byte	0x47
 11942 4fc5 DB4F0000 		.4byte	0x4fdb
 11943 4fc9 02       		.uleb128 0x2
 11944 4fca 91       		.byte	0x91
 11945 4fcb 68       		.sleb128 -24
 11946 4fcc 60       		.uleb128 0x60
 11947 4fcd 41240000 		.4byte	.LASF713
 11948 4fd1 06       		.byte	0x6
 11949 4fd2 47       		.byte	0x47
 11950 4fd3 E04F0000 		.4byte	0x4fe0
 11951 4fd7 02       		.uleb128 0x2
 11952 4fd8 91       		.byte	0x91
 11953 4fd9 64       		.sleb128 -28
 11954 4fda 00       		.byte	0
 11955 4fdb 14       		.uleb128 0x14
 11956 4fdc 2F480000 		.4byte	0x482f
 11957 4fe0 14       		.uleb128 0x14
 11958 4fe1 FC450000 		.4byte	0x45fc
 11959 4fe5 69       		.uleb128 0x69
 11960 4fe6 DA150000 		.4byte	0x15da
 11961 4fea 00000000 		.4byte	.LFB393
 11962 4fee 56000000 		.4byte	.LFE393-.LFB393
 11963 4ff2 01       		.uleb128 0x1
 11964 4ff3 9C       		.byte	0x9c
 11965 4ff4 FC4F0000 		.4byte	0x4ffc
 11966 4ff8 25500000 		.4byte	0x5025
 11967 4ffc 5D       		.uleb128 0x5d
 11968 4ffd 2C260000 		.4byte	.LASF710
 11969 5001 3B480000 		.4byte	0x483b
 11970 5005 02       		.uleb128 0x2
 11971 5006 91       		.byte	0x91
 11972 5007 74       		.sleb128 -12
 11973 5008 5E       		.uleb128 0x5e
 11974 5009 6D736700 		.ascii	"msg\000"
 11975 500d 06       		.byte	0x6
 11976 500e 52       		.byte	0x52
 11977 500f 25500000 		.4byte	0x5025
 11978 5013 02       		.uleb128 0x2
 11979 5014 91       		.byte	0x91
 11980 5015 70       		.sleb128 -16
 11981 5016 60       		.uleb128 0x60
 11982 5017 41240000 		.4byte	.LASF713
 11983 501b 06       		.byte	0x6
 11984 501c 52       		.byte	0x52
ARM GAS  /tmp/ccWQ6gKG.s 			page 212


 11985 501d 2A500000 		.4byte	0x502a
 11986 5021 02       		.uleb128 0x2
 11987 5022 91       		.byte	0x91
 11988 5023 6C       		.sleb128 -20
 11989 5024 00       		.byte	0
 11990 5025 14       		.uleb128 0x14
 11991 5026 7D470000 		.4byte	0x477d
 11992 502a 14       		.uleb128 0x14
 11993 502b 08460000 		.4byte	0x4608
 11994 502f 64       		.uleb128 0x64
 11995 5030 694A0000 		.4byte	0x4a69
 11996 5034 18       		.byte	0x18
 11997 5035 00       		.byte	0
 11998 5036 3E500000 		.4byte	0x503e
 11999 503a 48500000 		.4byte	0x5048
 12000 503e 65       		.uleb128 0x65
 12001 503f 2C260000 		.4byte	.LASF710
 12002 5043 48500000 		.4byte	0x5048
 12003 5047 00       		.byte	0
 12004 5048 14       		.uleb128 0x14
 12005 5049 FA4A0000 		.4byte	0x4afa
 12006 504d 66       		.uleb128 0x66
 12007 504e 2F500000 		.4byte	0x502f
 12008 5052 9B0B0000 		.4byte	.LASF715
 12009 5056 00000000 		.4byte	.LFB597
 12010 505a 50000000 		.4byte	.LFE597-.LFB597
 12011 505e 01       		.uleb128 0x1
 12012 505f 9C       		.byte	0x9c
 12013 5060 68500000 		.4byte	0x5068
 12014 5064 71500000 		.4byte	0x5071
 12015 5068 67       		.uleb128 0x67
 12016 5069 3E500000 		.4byte	0x503e
 12017 506d 02       		.uleb128 0x2
 12018 506e 91       		.byte	0x91
 12019 506f 7C       		.sleb128 -4
 12020 5070 00       		.byte	0
 12021 5071 68       		.uleb128 0x68
 12022 5072 834A0000 		.4byte	0x4a83
 12023 5076 25       		.byte	0x25
 12024 5077 00000000 		.4byte	.LFB599
 12025 507b A8000000 		.4byte	.LFE599-.LFB599
 12026 507f 01       		.uleb128 0x1
 12027 5080 9C       		.byte	0x9c
 12028 5081 89500000 		.4byte	0x5089
 12029 5085 17510000 		.4byte	0x5117
 12030 5089 5D       		.uleb128 0x5d
 12031 508a 2C260000 		.4byte	.LASF710
 12032 508e 48500000 		.4byte	0x5048
 12033 5092 02       		.uleb128 0x2
 12034 5093 91       		.byte	0x91
 12035 5094 74       		.sleb128 -12
 12036 5095 5E       		.uleb128 0x5e
 12037 5096 6B00     		.ascii	"k\000"
 12038 5098 07       		.byte	0x7
 12039 5099 25       		.byte	0x25
 12040 509a 75490000 		.4byte	0x4975
 12041 509e 02       		.uleb128 0x2
ARM GAS  /tmp/ccWQ6gKG.s 			page 213


 12042 509f 91       		.byte	0x91
 12043 50a0 70       		.sleb128 -16
 12044 50a1 5E       		.uleb128 0x5e
 12045 50a2 746900   		.ascii	"ti\000"
 12046 50a5 07       		.byte	0x7
 12047 50a6 25       		.byte	0x25
 12048 50a7 75490000 		.4byte	0x4975
 12049 50ab 02       		.uleb128 0x2
 12050 50ac 91       		.byte	0x91
 12051 50ad 6C       		.sleb128 -20
 12052 50ae 5E       		.uleb128 0x5e
 12053 50af 746400   		.ascii	"td\000"
 12054 50b2 07       		.byte	0x7
 12055 50b3 25       		.byte	0x25
 12056 50b4 75490000 		.4byte	0x4975
 12057 50b8 02       		.uleb128 0x2
 12058 50b9 91       		.byte	0x91
 12059 50ba 68       		.sleb128 -24
 12060 50bb 5E       		.uleb128 0x5e
 12061 50bc 747300   		.ascii	"ts\000"
 12062 50bf 07       		.byte	0x7
 12063 50c0 25       		.byte	0x25
 12064 50c1 75490000 		.4byte	0x4975
 12065 50c5 02       		.uleb128 0x2
 12066 50c6 91       		.byte	0x91
 12067 50c7 64       		.sleb128 -28
 12068 50c8 5E       		.uleb128 0x5e
 12069 50c9 6D696E00 		.ascii	"min\000"
 12070 50cd 07       		.byte	0x7
 12071 50ce 25       		.byte	0x25
 12072 50cf 75490000 		.4byte	0x4975
 12073 50d3 02       		.uleb128 0x2
 12074 50d4 91       		.byte	0x91
 12075 50d5 60       		.sleb128 -32
 12076 50d6 5E       		.uleb128 0x5e
 12077 50d7 6D617800 		.ascii	"max\000"
 12078 50db 07       		.byte	0x7
 12079 50dc 25       		.byte	0x25
 12080 50dd 75490000 		.4byte	0x4975
 12081 50e1 02       		.uleb128 0x2
 12082 50e2 91       		.byte	0x91
 12083 50e3 5C       		.sleb128 -36
 12084 50e4 6A       		.uleb128 0x6a
 12085 50e5 1E000000 		.4byte	.LBB36
 12086 50e9 06000000 		.4byte	.LBE36-.LBB36
 12087 50ed FF500000 		.4byte	0x50ff
 12088 50f1 6B       		.uleb128 0x6b
 12089 50f2 746D7000 		.ascii	"tmp\000"
 12090 50f6 07       		.byte	0x7
 12091 50f7 27       		.byte	0x27
 12092 50f8 E4000000 		.4byte	0xe4
 12093 50fc 01       		.uleb128 0x1
 12094 50fd 53       		.byte	0x53
 12095 50fe 00       		.byte	0
 12096 50ff 6C       		.uleb128 0x6c
 12097 5100 96000000 		.4byte	.LBB38
 12098 5104 06000000 		.4byte	.LBE38-.LBB38
ARM GAS  /tmp/ccWQ6gKG.s 			page 214


 12099 5108 6B       		.uleb128 0x6b
 12100 5109 746D7000 		.ascii	"tmp\000"
 12101 510d 07       		.byte	0x7
 12102 510e 2F       		.byte	0x2f
 12103 510f E4000000 		.4byte	0xe4
 12104 5113 01       		.uleb128 0x1
 12105 5114 53       		.byte	0x53
 12106 5115 00       		.byte	0
 12107 5116 00       		.byte	0
 12108 5117 68       		.uleb128 0x68
 12109 5118 BB4A0000 		.4byte	0x4abb
 12110 511c 33       		.byte	0x33
 12111 511d 00000000 		.4byte	.LFB600
 12112 5121 6C000000 		.4byte	.LFE600-.LFB600
 12113 5125 01       		.uleb128 0x1
 12114 5126 9C       		.byte	0x9c
 12115 5127 2F510000 		.4byte	0x512f
 12116 512b 7C510000 		.4byte	0x517c
 12117 512f 5D       		.uleb128 0x5d
 12118 5130 2C260000 		.4byte	.LASF710
 12119 5134 48500000 		.4byte	0x5048
 12120 5138 02       		.uleb128 0x2
 12121 5139 91       		.byte	0x91
 12122 513a 74       		.sleb128 -12
 12123 513b 60       		.uleb128 0x60
 12124 513c 131E0000 		.4byte	.LASF716
 12125 5140 07       		.byte	0x7
 12126 5141 33       		.byte	0x33
 12127 5142 75490000 		.4byte	0x4975
 12128 5146 02       		.uleb128 0x2
 12129 5147 91       		.byte	0x91
 12130 5148 70       		.sleb128 -16
 12131 5149 6A       		.uleb128 0x6a
 12132 514a 0A000000 		.4byte	.LBB41
 12133 514e 06000000 		.4byte	.LBE41-.LBB41
 12134 5152 64510000 		.4byte	0x5164
 12135 5156 6B       		.uleb128 0x6b
 12136 5157 746D7000 		.ascii	"tmp\000"
 12137 515b 07       		.byte	0x7
 12138 515c 35       		.byte	0x35
 12139 515d E4000000 		.4byte	0xe4
 12140 5161 01       		.uleb128 0x1
 12141 5162 53       		.byte	0x53
 12142 5163 00       		.byte	0
 12143 5164 6C       		.uleb128 0x6c
 12144 5165 60000000 		.4byte	.LBB43
 12145 5169 06000000 		.4byte	.LBE43-.LBB43
 12146 516d 6B       		.uleb128 0x6b
 12147 516e 746D7000 		.ascii	"tmp\000"
 12148 5172 07       		.byte	0x7
 12149 5173 3D       		.byte	0x3d
 12150 5174 E4000000 		.4byte	0xe4
 12151 5178 01       		.uleb128 0x1
 12152 5179 53       		.byte	0x53
 12153 517a 00       		.byte	0
 12154 517b 00       		.byte	0
 12155 517c 5C       		.uleb128 0x5c
ARM GAS  /tmp/ccWQ6gKG.s 			page 215


 12156 517d DA4A0000 		.4byte	0x4ada
 12157 5181 41       		.byte	0x41
 12158 5182 00000000 		.4byte	.LFB601
 12159 5186 06010000 		.4byte	.LFE601-.LFB601
 12160 518a 01       		.uleb128 0x1
 12161 518b 9C       		.byte	0x9c
 12162 518c 94510000 		.4byte	0x5194
 12163 5190 D5510000 		.4byte	0x51d5
 12164 5194 5D       		.uleb128 0x5d
 12165 5195 2C260000 		.4byte	.LASF710
 12166 5199 48500000 		.4byte	0x5048
 12167 519d 02       		.uleb128 0x2
 12168 519e 91       		.byte	0x91
 12169 519f 74       		.sleb128 -12
 12170 51a0 60       		.uleb128 0x60
 12171 51a1 132B0000 		.4byte	.LASF717
 12172 51a5 07       		.byte	0x7
 12173 51a6 41       		.byte	0x41
 12174 51a7 75490000 		.4byte	0x4975
 12175 51ab 02       		.uleb128 0x2
 12176 51ac 91       		.byte	0x91
 12177 51ad 70       		.sleb128 -16
 12178 51ae 6C       		.uleb128 0x6c
 12179 51af 08000000 		.4byte	.LBB44
 12180 51b3 F6000000 		.4byte	.LBE44-.LBB44
 12181 51b7 6D       		.uleb128 0x6d
 12182 51b8 121F0000 		.4byte	.LASF718
 12183 51bc 07       		.byte	0x7
 12184 51bd 42       		.byte	0x42
 12185 51be 75490000 		.4byte	0x4975
 12186 51c2 02       		.uleb128 0x2
 12187 51c3 91       		.byte	0x91
 12188 51c4 78       		.sleb128 -8
 12189 51c5 6D       		.uleb128 0x6d
 12190 51c6 F7160000 		.4byte	.LASF719
 12191 51ca 07       		.byte	0x7
 12192 51cb 43       		.byte	0x43
 12193 51cc 75490000 		.4byte	0x4975
 12194 51d0 02       		.uleb128 0x2
 12195 51d1 91       		.byte	0x91
 12196 51d2 7C       		.sleb128 -4
 12197 51d3 00       		.byte	0
 12198 51d4 00       		.byte	0
 12199 51d5 6E       		.uleb128 0x6e
 12200 51d6 6A110000 		.4byte	.LASF776
 12201 51da 08       		.byte	0x8
 12202 51db 0F       		.byte	0xf
 12203 51dc 00000000 		.4byte	.LFB602
 12204 51e0 6C000000 		.4byte	.LFE602-.LFB602
 12205 51e4 01       		.uleb128 0x1
 12206 51e5 9C       		.byte	0x9c
 12207 51e6 2B520000 		.4byte	0x522b
 12208 51ea 60       		.uleb128 0x60
 12209 51eb 54350000 		.4byte	.LASF720
 12210 51ef 08       		.byte	0x8
 12211 51f0 0F       		.byte	0xf
 12212 51f1 8F070000 		.4byte	0x78f
ARM GAS  /tmp/ccWQ6gKG.s 			page 216


 12213 51f5 02       		.uleb128 0x2
 12214 51f6 91       		.byte	0x91
 12215 51f7 74       		.sleb128 -12
 12216 51f8 6A       		.uleb128 0x6a
 12217 51f9 06000000 		.4byte	.LBB47
 12218 51fd 06000000 		.4byte	.LBE47-.LBB47
 12219 5201 13520000 		.4byte	0x5213
 12220 5205 6B       		.uleb128 0x6b
 12221 5206 746D7000 		.ascii	"tmp\000"
 12222 520a 08       		.byte	0x8
 12223 520b 12       		.byte	0x12
 12224 520c E4000000 		.4byte	0xe4
 12225 5210 01       		.uleb128 0x1
 12226 5211 53       		.byte	0x53
 12227 5212 00       		.byte	0
 12228 5213 6C       		.uleb128 0x6c
 12229 5214 58000000 		.4byte	.LBB49
 12230 5218 06000000 		.4byte	.LBE49-.LBB49
 12231 521c 6B       		.uleb128 0x6b
 12232 521d 746D7000 		.ascii	"tmp\000"
 12233 5221 08       		.byte	0x8
 12234 5222 1B       		.byte	0x1b
 12235 5223 E4000000 		.4byte	0xe4
 12236 5227 01       		.uleb128 0x1
 12237 5228 53       		.byte	0x53
 12238 5229 00       		.byte	0
 12239 522a 00       		.byte	0
 12240 522b 6F       		.uleb128 0x6f
 12241 522c E23E0000 		.4byte	.LASF721
 12242 5230 08       		.byte	0x8
 12243 5231 2B       		.byte	0x2b
 12244 5232 89420000 		.4byte	.LASF723
 12245 5236 FA000000 		.4byte	0xfa
 12246 523a 00000000 		.4byte	.LFB603
 12247 523e AC000000 		.4byte	.LFE603-.LFB603
 12248 5242 01       		.uleb128 0x1
 12249 5243 9C       		.byte	0x9c
 12250 5244 89520000 		.4byte	0x5289
 12251 5248 5E       		.uleb128 0x5e
 12252 5249 6D736700 		.ascii	"msg\000"
 12253 524d 08       		.byte	0x8
 12254 524e 2B       		.byte	0x2b
 12255 524f 89520000 		.4byte	0x5289
 12256 5253 02       		.uleb128 0x2
 12257 5254 91       		.byte	0x91
 12258 5255 74       		.sleb128 -12
 12259 5256 6A       		.uleb128 0x6a
 12260 5257 38000000 		.4byte	.LBB52
 12261 525b 06000000 		.4byte	.LBE52-.LBB52
 12262 525f 71520000 		.4byte	0x5271
 12263 5263 6B       		.uleb128 0x6b
 12264 5264 746D7000 		.ascii	"tmp\000"
 12265 5268 08       		.byte	0x8
 12266 5269 2F       		.byte	0x2f
 12267 526a E4000000 		.4byte	0xe4
 12268 526e 01       		.uleb128 0x1
 12269 526f 53       		.byte	0x53
ARM GAS  /tmp/ccWQ6gKG.s 			page 217


 12270 5270 00       		.byte	0
 12271 5271 6C       		.uleb128 0x6c
 12272 5272 8A000000 		.4byte	.LBB54
 12273 5276 06000000 		.4byte	.LBE54-.LBB54
 12274 527a 6B       		.uleb128 0x6b
 12275 527b 746D7000 		.ascii	"tmp\000"
 12276 527f 08       		.byte	0x8
 12277 5280 38       		.byte	0x38
 12278 5281 E4000000 		.4byte	0xe4
 12279 5285 01       		.uleb128 0x1
 12280 5286 53       		.byte	0x53
 12281 5287 00       		.byte	0
 12282 5288 00       		.byte	0
 12283 5289 14       		.uleb128 0x14
 12284 528a AC4B0000 		.4byte	0x4bac
 12285 528e 6F       		.uleb128 0x6f
 12286 528f 5D450000 		.4byte	.LASF722
 12287 5293 08       		.byte	0x8
 12288 5294 3D       		.byte	0x3d
 12289 5295 BE4E0000 		.4byte	.LASF724
 12290 5299 38010000 		.4byte	0x138
 12291 529d 00000000 		.4byte	.LFB604
 12292 52a1 20020000 		.4byte	.LFE604-.LFB604
 12293 52a5 01       		.uleb128 0x1
 12294 52a6 9C       		.byte	0x9c
 12295 52a7 49530000 		.4byte	0x5349
 12296 52ab 5E       		.uleb128 0x5e
 12297 52ac 61726700 		.ascii	"arg\000"
 12298 52b0 08       		.byte	0x8
 12299 52b1 3D       		.byte	0x3d
 12300 52b2 07030000 		.4byte	0x307
 12301 52b6 03       		.uleb128 0x3
 12302 52b7 91       		.byte	0x91
 12303 52b8 9C7C     		.sleb128 -484
 12304 52ba 6C       		.uleb128 0x6c
 12305 52bb 08000000 		.4byte	.LBB55
 12306 52bf 18020000 		.4byte	.LBE55-.LBB55
 12307 52c3 6D       		.uleb128 0x6d
 12308 52c4 D32E0000 		.4byte	.LASF725
 12309 52c8 08       		.byte	0x8
 12310 52c9 3E       		.byte	0x3e
 12311 52ca 49530000 		.4byte	0x5349
 12312 52ce 02       		.uleb128 0x2
 12313 52cf 91       		.byte	0x91
 12314 52d0 74       		.sleb128 -12
 12315 52d1 6D       		.uleb128 0x6d
 12316 52d2 4C380000 		.4byte	.LASF701
 12317 52d6 08       		.byte	0x8
 12318 52d7 3F       		.byte	0x3f
 12319 52d8 4F530000 		.4byte	0x534f
 12320 52dc 02       		.uleb128 0x2
 12321 52dd 91       		.byte	0x91
 12322 52de 70       		.sleb128 -16
 12323 52df 6D       		.uleb128 0x6d
 12324 52e0 4F3F0000 		.4byte	.LASF726
 12325 52e4 08       		.byte	0x8
 12326 52e5 40       		.byte	0x40
ARM GAS  /tmp/ccWQ6gKG.s 			page 218


 12327 52e6 DA390000 		.4byte	0x39da
 12328 52ea 02       		.uleb128 0x2
 12329 52eb 91       		.byte	0x91
 12330 52ec 40       		.sleb128 -64
 12331 52ed 6D       		.uleb128 0x6d
 12332 52ee B51C0000 		.4byte	.LASF727
 12333 52f2 08       		.byte	0x8
 12334 52f3 41       		.byte	0x41
 12335 52f4 50430000 		.4byte	0x4350
 12336 52f8 03       		.uleb128 0x3
 12337 52f9 91       		.byte	0x91
 12338 52fa 8C7D     		.sleb128 -372
 12339 52fc 6D       		.uleb128 0x6d
 12340 52fd EF460000 		.4byte	.LASF728
 12341 5301 08       		.byte	0x8
 12342 5302 42       		.byte	0x42
 12343 5303 6F410000 		.4byte	0x416f
 12344 5307 03       		.uleb128 0x3
 12345 5308 91       		.byte	0x91
 12346 5309 A07C     		.sleb128 -480
 12347 530b 6D       		.uleb128 0x6d
 12348 530c EF240000 		.4byte	.LASF729
 12349 5310 08       		.byte	0x8
 12350 5311 43       		.byte	0x43
 12351 5312 8E3F0000 		.4byte	0x3f8e
 12352 5316 03       		.uleb128 0x3
 12353 5317 91       		.byte	0x91
 12354 5318 A07E     		.sleb128 -224
 12355 531a 6D       		.uleb128 0x6d
 12356 531b 7C3A0000 		.4byte	.LASF712
 12357 531f 08       		.byte	0x8
 12358 5320 44       		.byte	0x44
 12359 5321 024C0000 		.4byte	0x4c02
 12360 5325 03       		.uleb128 0x3
 12361 5326 91       		.byte	0x91
 12362 5327 BC7F     		.sleb128 -68
 12363 5329 6D       		.uleb128 0x6d
 12364 532a B8330000 		.4byte	.LASF730
 12365 532e 08       		.byte	0x8
 12366 532f 45       		.byte	0x45
 12367 5330 204B0000 		.4byte	0x4b20
 12368 5334 03       		.uleb128 0x3
 12369 5335 91       		.byte	0x91
 12370 5336 B87F     		.sleb128 -72
 12371 5338 6D       		.uleb128 0x6d
 12372 5339 8C160000 		.4byte	.LASF731
 12373 533d 08       		.byte	0x8
 12374 533e 46       		.byte	0x46
 12375 533f 5C0C0000 		.4byte	0xc5c
 12376 5343 03       		.uleb128 0x3
 12377 5344 91       		.byte	0x91
 12378 5345 B47F     		.sleb128 -76
 12379 5347 00       		.byte	0
 12380 5348 00       		.byte	0
 12381 5349 0B       		.uleb128 0xb
 12382 534a 04       		.byte	0x4
 12383 534b C4490000 		.4byte	0x49c4
ARM GAS  /tmp/ccWQ6gKG.s 			page 219


 12384 534f 0B       		.uleb128 0xb
 12385 5350 04       		.byte	0x4
 12386 5351 8C490000 		.4byte	0x498c
 12387 5355 70       		.uleb128 0x70
 12388 5356 E60E0000 		.4byte	0xee6
 12389 535a 02       		.byte	0x2
 12390 535b 6A530000 		.4byte	0x536a
 12391 535f 7F530000 		.4byte	0x537f
 12392 5363 2E       		.uleb128 0x2e
 12393 5364 5400     		.ascii	"T\000"
 12394 5366 86000000 		.4byte	0x86
 12395 536a 65       		.uleb128 0x65
 12396 536b 2C260000 		.4byte	.LASF710
 12397 536f 6C4D0000 		.4byte	0x4d6c
 12398 5373 71       		.uleb128 0x71
 12399 5374 9D1F0000 		.4byte	.LASF732
 12400 5378 01       		.byte	0x1
 12401 5379 9F       		.byte	0x9f
 12402 537a 86000000 		.4byte	0x86
 12403 537e 00       		.byte	0
 12404 537f 66       		.uleb128 0x66
 12405 5380 55530000 		.4byte	0x5355
 12406 5384 A4480000 		.4byte	.LASF733
 12407 5388 00000000 		.4byte	.LFB606
 12408 538c 14000000 		.4byte	.LFE606-.LFB606
 12409 5390 01       		.uleb128 0x1
 12410 5391 9C       		.byte	0x9c
 12411 5392 A1530000 		.4byte	0x53a1
 12412 5396 B2530000 		.4byte	0x53b2
 12413 539a 2E       		.uleb128 0x2e
 12414 539b 5400     		.ascii	"T\000"
 12415 539d 86000000 		.4byte	0x86
 12416 53a1 67       		.uleb128 0x67
 12417 53a2 6A530000 		.4byte	0x536a
 12418 53a6 02       		.uleb128 0x2
 12419 53a7 91       		.byte	0x91
 12420 53a8 7C       		.sleb128 -4
 12421 53a9 67       		.uleb128 0x67
 12422 53aa 73530000 		.4byte	0x5373
 12423 53ae 02       		.uleb128 0x2
 12424 53af 91       		.byte	0x91
 12425 53b0 78       		.sleb128 -8
 12426 53b1 00       		.byte	0
 12427 53b2 70       		.uleb128 0x70
 12428 53b3 0C0F0000 		.4byte	0xf0c
 12429 53b7 02       		.byte	0x2
 12430 53b8 C7530000 		.4byte	0x53c7
 12431 53bc DC530000 		.4byte	0x53dc
 12432 53c0 2E       		.uleb128 0x2e
 12433 53c1 5400     		.ascii	"T\000"
 12434 53c3 25000000 		.4byte	0x25
 12435 53c7 65       		.uleb128 0x65
 12436 53c8 2C260000 		.4byte	.LASF710
 12437 53cc 6C4D0000 		.4byte	0x4d6c
 12438 53d0 71       		.uleb128 0x71
 12439 53d1 9D1F0000 		.4byte	.LASF732
 12440 53d5 01       		.byte	0x1
ARM GAS  /tmp/ccWQ6gKG.s 			page 220


 12441 53d6 9F       		.byte	0x9f
 12442 53d7 25000000 		.4byte	0x25
 12443 53db 00       		.byte	0
 12444 53dc 66       		.uleb128 0x66
 12445 53dd B2530000 		.4byte	0x53b2
 12446 53e1 19370000 		.4byte	.LASF734
 12447 53e5 00000000 		.4byte	.LFB612
 12448 53e9 14000000 		.4byte	.LFE612-.LFB612
 12449 53ed 01       		.uleb128 0x1
 12450 53ee 9C       		.byte	0x9c
 12451 53ef FE530000 		.4byte	0x53fe
 12452 53f3 0F540000 		.4byte	0x540f
 12453 53f7 2E       		.uleb128 0x2e
 12454 53f8 5400     		.ascii	"T\000"
 12455 53fa 25000000 		.4byte	0x25
 12456 53fe 67       		.uleb128 0x67
 12457 53ff C7530000 		.4byte	0x53c7
 12458 5403 02       		.uleb128 0x2
 12459 5404 91       		.byte	0x91
 12460 5405 7C       		.sleb128 -4
 12461 5406 67       		.uleb128 0x67
 12462 5407 D0530000 		.4byte	0x53d0
 12463 540b 02       		.uleb128 0x2
 12464 540c 91       		.byte	0x91
 12465 540d 78       		.sleb128 -8
 12466 540e 00       		.byte	0
 12467 540f 72       		.uleb128 0x72
 12468 5410 AC2D0000 		.4byte	0x2dac
 12469 5414 00000000 		.4byte	.LFB614
 12470 5418 0E000000 		.4byte	.LFE614-.LFB614
 12471 541c 01       		.uleb128 0x1
 12472 541d 9C       		.byte	0x9c
 12473 541e 26540000 		.4byte	0x5426
 12474 5422 33540000 		.4byte	0x5433
 12475 5426 5D       		.uleb128 0x5d
 12476 5427 2C260000 		.4byte	.LASF710
 12477 542b 33540000 		.4byte	0x5433
 12478 542f 02       		.uleb128 0x2
 12479 5430 91       		.byte	0x91
 12480 5431 7C       		.sleb128 -4
 12481 5432 00       		.byte	0
 12482 5433 14       		.uleb128 0x14
 12483 5434 35480000 		.4byte	0x4835
 12484 5438 72       		.uleb128 0x72
 12485 5439 6B2D0000 		.4byte	0x2d6b
 12486 543d 00000000 		.4byte	.LFB615
 12487 5441 5E000000 		.4byte	.LFE615-.LFB615
 12488 5445 01       		.uleb128 0x1
 12489 5446 9C       		.byte	0x9c
 12490 5447 4F540000 		.4byte	0x544f
 12491 544b 6A540000 		.4byte	0x546a
 12492 544f 5D       		.uleb128 0x5d
 12493 5450 2C260000 		.4byte	.LASF710
 12494 5454 6A540000 		.4byte	0x546a
 12495 5458 02       		.uleb128 0x2
 12496 5459 91       		.byte	0x91
 12497 545a 7C       		.sleb128 -4
ARM GAS  /tmp/ccWQ6gKG.s 			page 221


 12498 545b 60       		.uleb128 0x60
 12499 545c BB460000 		.4byte	.LASF735
 12500 5460 09       		.byte	0x9
 12501 5461 34       		.byte	0x34
 12502 5462 6F540000 		.4byte	0x546f
 12503 5466 02       		.uleb128 0x2
 12504 5467 91       		.byte	0x91
 12505 5468 78       		.sleb128 -8
 12506 5469 00       		.byte	0
 12507 546a 14       		.uleb128 0x14
 12508 546b 29480000 		.4byte	0x4829
 12509 546f 14       		.uleb128 0x14
 12510 5470 2F480000 		.4byte	0x482f
 12511 5474 72       		.uleb128 0x72
 12512 5475 482D0000 		.4byte	0x2d48
 12513 5479 00000000 		.4byte	.LFB616
 12514 547d 60000000 		.4byte	.LFE616-.LFB616
 12515 5481 01       		.uleb128 0x1
 12516 5482 9C       		.byte	0x9c
 12517 5483 8B540000 		.4byte	0x548b
 12518 5487 A6540000 		.4byte	0x54a6
 12519 548b 5D       		.uleb128 0x5d
 12520 548c 2C260000 		.4byte	.LASF710
 12521 5490 6A540000 		.4byte	0x546a
 12522 5494 02       		.uleb128 0x2
 12523 5495 91       		.byte	0x91
 12524 5496 7C       		.sleb128 -4
 12525 5497 60       		.uleb128 0x60
 12526 5498 BB460000 		.4byte	.LASF735
 12527 549c 09       		.byte	0x9
 12528 549d 25       		.byte	0x25
 12529 549e 77470000 		.4byte	0x4777
 12530 54a2 02       		.uleb128 0x2
 12531 54a3 91       		.byte	0x91
 12532 54a4 78       		.sleb128 -8
 12533 54a5 00       		.byte	0
 12534 54a6 73       		.uleb128 0x73
 12535 54a7 FE3E0000 		.4byte	0x3efe
 12536 54ab 0A       		.byte	0xa
 12537 54ac 23       		.byte	0x23
 12538 54ad 02       		.byte	0x2
 12539 54ae B6540000 		.4byte	0x54b6
 12540 54b2 C0540000 		.4byte	0x54c0
 12541 54b6 65       		.uleb128 0x65
 12542 54b7 2C260000 		.4byte	.LASF710
 12543 54bb C0540000 		.4byte	0x54c0
 12544 54bf 00       		.byte	0
 12545 54c0 14       		.uleb128 0x14
 12546 54c1 024C0000 		.4byte	0x4c02
 12547 54c5 74       		.uleb128 0x74
 12548 54c6 A6540000 		.4byte	0x54a6
 12549 54ca E80A0000 		.4byte	.LASF736
 12550 54ce 00000000 		.4byte	.LFB628
 12551 54d2 18000000 		.4byte	.LFE628-.LFB628
 12552 54d6 01       		.uleb128 0x1
 12553 54d7 9C       		.byte	0x9c
 12554 54d8 E0540000 		.4byte	0x54e0
ARM GAS  /tmp/ccWQ6gKG.s 			page 222


 12555 54dc E9540000 		.4byte	0x54e9
 12556 54e0 67       		.uleb128 0x67
 12557 54e1 B6540000 		.4byte	0x54b6
 12558 54e5 02       		.uleb128 0x2
 12559 54e6 91       		.byte	0x91
 12560 54e7 74       		.sleb128 -12
 12561 54e8 00       		.byte	0
 12562 54e9 70       		.uleb128 0x70
 12563 54ea A8430000 		.4byte	0x43a8
 12564 54ee 02       		.byte	0x2
 12565 54ef F7540000 		.4byte	0x54f7
 12566 54f3 0C550000 		.4byte	0x550c
 12567 54f7 65       		.uleb128 0x65
 12568 54f8 2C260000 		.4byte	.LASF710
 12569 54fc 0C550000 		.4byte	0x550c
 12570 5500 71       		.uleb128 0x71
 12571 5501 0D340000 		.4byte	.LASF125
 12572 5505 0B       		.byte	0xb
 12573 5506 1F       		.byte	0x1f
 12574 5507 7F430000 		.4byte	0x437f
 12575 550b 00       		.byte	0
 12576 550c 14       		.uleb128 0x14
 12577 550d 234C0000 		.4byte	0x4c23
 12578 5511 74       		.uleb128 0x74
 12579 5512 E9540000 		.4byte	0x54e9
 12580 5516 0B590000 		.4byte	.LASF737
 12581 551a 00000000 		.4byte	.LFB630
 12582 551e 48000000 		.4byte	.LFE630-.LFB630
 12583 5522 01       		.uleb128 0x1
 12584 5523 9C       		.byte	0x9c
 12585 5524 2C550000 		.4byte	0x552c
 12586 5528 3D550000 		.4byte	0x553d
 12587 552c 67       		.uleb128 0x67
 12588 552d F7540000 		.4byte	0x54f7
 12589 5531 02       		.uleb128 0x2
 12590 5532 91       		.byte	0x91
 12591 5533 6C       		.sleb128 -20
 12592 5534 67       		.uleb128 0x67
 12593 5535 00550000 		.4byte	0x5500
 12594 5539 02       		.uleb128 0x2
 12595 553a 91       		.byte	0x91
 12596 553b 68       		.sleb128 -24
 12597 553c 00       		.byte	0
 12598 553d 70       		.uleb128 0x70
 12599 553e C7430000 		.4byte	0x43c7
 12600 5542 02       		.byte	0x2
 12601 5543 4B550000 		.4byte	0x554b
 12602 5547 5E550000 		.4byte	0x555e
 12603 554b 65       		.uleb128 0x65
 12604 554c 2C260000 		.4byte	.LASF710
 12605 5550 0C550000 		.4byte	0x550c
 12606 5554 65       		.uleb128 0x65
 12607 5555 924F0000 		.4byte	.LASF738
 12608 5559 5E550000 		.4byte	0x555e
 12609 555d 00       		.byte	0
 12610 555e 14       		.uleb128 0x14
 12611 555f 25000000 		.4byte	0x25
ARM GAS  /tmp/ccWQ6gKG.s 			page 223


 12612 5563 74       		.uleb128 0x74
 12613 5564 3D550000 		.4byte	0x553d
 12614 5568 D6150000 		.4byte	.LASF739
 12615 556c 00000000 		.4byte	.LFB633
 12616 5570 30000000 		.4byte	.LFE633-.LFB633
 12617 5574 01       		.uleb128 0x1
 12618 5575 9C       		.byte	0x9c
 12619 5576 7E550000 		.4byte	0x557e
 12620 557a 87550000 		.4byte	0x5587
 12621 557e 67       		.uleb128 0x67
 12622 557f 4B550000 		.4byte	0x554b
 12623 5583 02       		.uleb128 0x2
 12624 5584 91       		.byte	0x91
 12625 5585 74       		.sleb128 -12
 12626 5586 00       		.byte	0
 12627 5587 74       		.uleb128 0x74
 12628 5588 3D550000 		.4byte	0x553d
 12629 558c 76050000 		.4byte	.LASF740
 12630 5590 00000000 		.4byte	.LFB635
 12631 5594 1C000000 		.4byte	.LFE635-.LFB635
 12632 5598 01       		.uleb128 0x1
 12633 5599 9C       		.byte	0x9c
 12634 559a A2550000 		.4byte	0x55a2
 12635 559e AB550000 		.4byte	0x55ab
 12636 55a2 67       		.uleb128 0x67
 12637 55a3 4B550000 		.4byte	0x554b
 12638 55a7 02       		.uleb128 0x2
 12639 55a8 91       		.byte	0x91
 12640 55a9 74       		.sleb128 -12
 12641 55aa 00       		.byte	0
 12642 55ab 73       		.uleb128 0x73
 12643 55ac 333F0000 		.4byte	0x3f33
 12644 55b0 0A       		.byte	0xa
 12645 55b1 33       		.byte	0x33
 12646 55b2 02       		.byte	0x2
 12647 55b3 BB550000 		.4byte	0x55bb
 12648 55b7 C5550000 		.4byte	0x55c5
 12649 55bb 65       		.uleb128 0x65
 12650 55bc 2C260000 		.4byte	.LASF710
 12651 55c0 C5550000 		.4byte	0x55c5
 12652 55c4 00       		.byte	0
 12653 55c5 14       		.uleb128 0x14
 12654 55c6 914B0000 		.4byte	0x4b91
 12655 55ca 74       		.uleb128 0x74
 12656 55cb AB550000 		.4byte	0x55ab
 12657 55cf ED210000 		.4byte	.LASF741
 12658 55d3 00000000 		.4byte	.LFB638
 12659 55d7 18000000 		.4byte	.LFE638-.LFB638
 12660 55db 01       		.uleb128 0x1
 12661 55dc 9C       		.byte	0x9c
 12662 55dd E5550000 		.4byte	0x55e5
 12663 55e1 EE550000 		.4byte	0x55ee
 12664 55e5 67       		.uleb128 0x67
 12665 55e6 BB550000 		.4byte	0x55bb
 12666 55ea 02       		.uleb128 0x2
 12667 55eb 91       		.byte	0x91
 12668 55ec 74       		.sleb128 -12
ARM GAS  /tmp/ccWQ6gKG.s 			page 224


 12669 55ed 00       		.byte	0
 12670 55ee 70       		.uleb128 0x70
 12671 55ef C7410000 		.4byte	0x41c7
 12672 55f3 02       		.byte	0x2
 12673 55f4 FC550000 		.4byte	0x55fc
 12674 55f8 11560000 		.4byte	0x5611
 12675 55fc 65       		.uleb128 0x65
 12676 55fd 2C260000 		.4byte	.LASF710
 12677 5601 11560000 		.4byte	0x5611
 12678 5605 71       		.uleb128 0x71
 12679 5606 0D340000 		.4byte	.LASF125
 12680 560a 0B       		.byte	0xb
 12681 560b 1F       		.byte	0x1f
 12682 560c 9E410000 		.4byte	0x419e
 12683 5610 00       		.byte	0
 12684 5611 14       		.uleb128 0x14
 12685 5612 B24B0000 		.4byte	0x4bb2
 12686 5616 74       		.uleb128 0x74
 12687 5617 EE550000 		.4byte	0x55ee
 12688 561b CB260000 		.4byte	.LASF742
 12689 561f 00000000 		.4byte	.LFB640
 12690 5623 48000000 		.4byte	.LFE640-.LFB640
 12691 5627 01       		.uleb128 0x1
 12692 5628 9C       		.byte	0x9c
 12693 5629 31560000 		.4byte	0x5631
 12694 562d 42560000 		.4byte	0x5642
 12695 5631 67       		.uleb128 0x67
 12696 5632 FC550000 		.4byte	0x55fc
 12697 5636 02       		.uleb128 0x2
 12698 5637 91       		.byte	0x91
 12699 5638 6C       		.sleb128 -20
 12700 5639 67       		.uleb128 0x67
 12701 563a 05560000 		.4byte	0x5605
 12702 563e 02       		.uleb128 0x2
 12703 563f 91       		.byte	0x91
 12704 5640 68       		.sleb128 -24
 12705 5641 00       		.byte	0
 12706 5642 70       		.uleb128 0x70
 12707 5643 E6410000 		.4byte	0x41e6
 12708 5647 02       		.byte	0x2
 12709 5648 50560000 		.4byte	0x5650
 12710 564c 63560000 		.4byte	0x5663
 12711 5650 65       		.uleb128 0x65
 12712 5651 2C260000 		.4byte	.LASF710
 12713 5655 11560000 		.4byte	0x5611
 12714 5659 65       		.uleb128 0x65
 12715 565a 924F0000 		.4byte	.LASF738
 12716 565e 63560000 		.4byte	0x5663
 12717 5662 00       		.byte	0
 12718 5663 14       		.uleb128 0x14
 12719 5664 25000000 		.4byte	0x25
 12720 5668 74       		.uleb128 0x74
 12721 5669 42560000 		.4byte	0x5642
 12722 566d E03D0000 		.4byte	.LASF743
 12723 5671 00000000 		.4byte	.LFB643
 12724 5675 30000000 		.4byte	.LFE643-.LFB643
 12725 5679 01       		.uleb128 0x1
ARM GAS  /tmp/ccWQ6gKG.s 			page 225


 12726 567a 9C       		.byte	0x9c
 12727 567b 83560000 		.4byte	0x5683
 12728 567f 8C560000 		.4byte	0x568c
 12729 5683 67       		.uleb128 0x67
 12730 5684 50560000 		.4byte	0x5650
 12731 5688 02       		.uleb128 0x2
 12732 5689 91       		.byte	0x91
 12733 568a 74       		.sleb128 -12
 12734 568b 00       		.byte	0
 12735 568c 74       		.uleb128 0x74
 12736 568d 42560000 		.4byte	0x5642
 12737 5691 AA2B0000 		.4byte	.LASF744
 12738 5695 00000000 		.4byte	.LFB645
 12739 5699 1C000000 		.4byte	.LFE645-.LFB645
 12740 569d 01       		.uleb128 0x1
 12741 569e 9C       		.byte	0x9c
 12742 569f A7560000 		.4byte	0x56a7
 12743 56a3 B0560000 		.4byte	0x56b0
 12744 56a7 67       		.uleb128 0x67
 12745 56a8 50560000 		.4byte	0x5650
 12746 56ac 02       		.uleb128 0x2
 12747 56ad 91       		.byte	0x91
 12748 56ae 74       		.sleb128 -12
 12749 56af 00       		.byte	0
 12750 56b0 73       		.uleb128 0x73
 12751 56b1 7A3F0000 		.4byte	0x3f7a
 12752 56b5 0A       		.byte	0xa
 12753 56b6 5F       		.byte	0x5f
 12754 56b7 02       		.byte	0x2
 12755 56b8 C0560000 		.4byte	0x56c0
 12756 56bc CA560000 		.4byte	0x56ca
 12757 56c0 65       		.uleb128 0x65
 12758 56c1 2C260000 		.4byte	.LASF710
 12759 56c5 CA560000 		.4byte	0x56ca
 12760 56c9 00       		.byte	0
 12761 56ca 14       		.uleb128 0x14
 12762 56cb 204B0000 		.4byte	0x4b20
 12763 56cf 74       		.uleb128 0x74
 12764 56d0 B0560000 		.4byte	0x56b0
 12765 56d4 AB370000 		.4byte	.LASF745
 12766 56d8 00000000 		.4byte	.LFB648
 12767 56dc 18000000 		.4byte	.LFE648-.LFB648
 12768 56e0 01       		.uleb128 0x1
 12769 56e1 9C       		.byte	0x9c
 12770 56e2 EA560000 		.4byte	0x56ea
 12771 56e6 F3560000 		.4byte	0x56f3
 12772 56ea 67       		.uleb128 0x67
 12773 56eb C0560000 		.4byte	0x56c0
 12774 56ef 02       		.uleb128 0x2
 12775 56f0 91       		.byte	0x91
 12776 56f1 74       		.sleb128 -12
 12777 56f2 00       		.byte	0
 12778 56f3 70       		.uleb128 0x70
 12779 56f4 E63F0000 		.4byte	0x3fe6
 12780 56f8 02       		.byte	0x2
 12781 56f9 01570000 		.4byte	0x5701
 12782 56fd 16570000 		.4byte	0x5716
ARM GAS  /tmp/ccWQ6gKG.s 			page 226


 12783 5701 65       		.uleb128 0x65
 12784 5702 2C260000 		.4byte	.LASF710
 12785 5706 16570000 		.4byte	0x5716
 12786 570a 71       		.uleb128 0x71
 12787 570b 0D340000 		.4byte	.LASF125
 12788 570f 0B       		.byte	0xb
 12789 5710 1F       		.byte	0x1f
 12790 5711 BD3F0000 		.4byte	0x3fbd
 12791 5715 00       		.byte	0
 12792 5716 14       		.uleb128 0x14
 12793 5717 414B0000 		.4byte	0x4b41
 12794 571b 74       		.uleb128 0x74
 12795 571c F3560000 		.4byte	0x56f3
 12796 5720 4E0E0000 		.4byte	.LASF746
 12797 5724 00000000 		.4byte	.LFB650
 12798 5728 48000000 		.4byte	.LFE650-.LFB650
 12799 572c 01       		.uleb128 0x1
 12800 572d 9C       		.byte	0x9c
 12801 572e 36570000 		.4byte	0x5736
 12802 5732 47570000 		.4byte	0x5747
 12803 5736 67       		.uleb128 0x67
 12804 5737 01570000 		.4byte	0x5701
 12805 573b 02       		.uleb128 0x2
 12806 573c 91       		.byte	0x91
 12807 573d 6C       		.sleb128 -20
 12808 573e 67       		.uleb128 0x67
 12809 573f 0A570000 		.4byte	0x570a
 12810 5743 02       		.uleb128 0x2
 12811 5744 91       		.byte	0x91
 12812 5745 68       		.sleb128 -24
 12813 5746 00       		.byte	0
 12814 5747 70       		.uleb128 0x70
 12815 5748 05400000 		.4byte	0x4005
 12816 574c 02       		.byte	0x2
 12817 574d 55570000 		.4byte	0x5755
 12818 5751 68570000 		.4byte	0x5768
 12819 5755 65       		.uleb128 0x65
 12820 5756 2C260000 		.4byte	.LASF710
 12821 575a 16570000 		.4byte	0x5716
 12822 575e 65       		.uleb128 0x65
 12823 575f 924F0000 		.4byte	.LASF738
 12824 5763 68570000 		.4byte	0x5768
 12825 5767 00       		.byte	0
 12826 5768 14       		.uleb128 0x14
 12827 5769 25000000 		.4byte	0x25
 12828 576d 74       		.uleb128 0x74
 12829 576e 47570000 		.4byte	0x5747
 12830 5772 0A010000 		.4byte	.LASF747
 12831 5776 00000000 		.4byte	.LFB653
 12832 577a 30000000 		.4byte	.LFE653-.LFB653
 12833 577e 01       		.uleb128 0x1
 12834 577f 9C       		.byte	0x9c
 12835 5780 88570000 		.4byte	0x5788
 12836 5784 91570000 		.4byte	0x5791
 12837 5788 67       		.uleb128 0x67
 12838 5789 55570000 		.4byte	0x5755
 12839 578d 02       		.uleb128 0x2
ARM GAS  /tmp/ccWQ6gKG.s 			page 227


 12840 578e 91       		.byte	0x91
 12841 578f 74       		.sleb128 -12
 12842 5790 00       		.byte	0
 12843 5791 74       		.uleb128 0x74
 12844 5792 47570000 		.4byte	0x5747
 12845 5796 141A0000 		.4byte	.LASF748
 12846 579a 00000000 		.4byte	.LFB655
 12847 579e 1C000000 		.4byte	.LFE655-.LFB655
 12848 57a2 01       		.uleb128 0x1
 12849 57a3 9C       		.byte	0x9c
 12850 57a4 AC570000 		.4byte	0x57ac
 12851 57a8 B5570000 		.4byte	0x57b5
 12852 57ac 67       		.uleb128 0x67
 12853 57ad 55570000 		.4byte	0x5755
 12854 57b1 02       		.uleb128 0x2
 12855 57b2 91       		.byte	0x91
 12856 57b3 74       		.sleb128 -12
 12857 57b4 00       		.byte	0
 12858 57b5 52       		.uleb128 0x52
 12859 57b6 04       		.byte	0x4
 12860 57b7 50430000 		.4byte	0x4350
 12861 57bb 69       		.uleb128 0x69
 12862 57bc 243C0000 		.4byte	0x3c24
 12863 57c0 00000000 		.4byte	.LFB656
 12864 57c4 2A000000 		.4byte	.LFE656-.LFB656
 12865 57c8 01       		.uleb128 0x1
 12866 57c9 9C       		.byte	0x9c
 12867 57ca E3570000 		.4byte	0x57e3
 12868 57ce 0C580000 		.4byte	0x580c
 12869 57d2 2E       		.uleb128 0x2e
 12870 57d3 4D5400   		.ascii	"MT\000"
 12871 57d6 DE3E0000 		.4byte	0x3ede
 12872 57da 45       		.uleb128 0x45
 12873 57db 514C00   		.ascii	"QL\000"
 12874 57de 37000000 		.4byte	0x37
 12875 57e2 05       		.byte	0x5
 12876 57e3 5D       		.uleb128 0x5d
 12877 57e4 2C260000 		.4byte	.LASF710
 12878 57e8 F9480000 		.4byte	0x48f9
 12879 57ec 02       		.uleb128 0x2
 12880 57ed 91       		.byte	0x91
 12881 57ee 74       		.sleb128 -12
 12882 57ef 5E       		.uleb128 0x5e
 12883 57f0 73756200 		.ascii	"sub\000"
 12884 57f4 05       		.byte	0x5
 12885 57f5 85       		.byte	0x85
 12886 57f6 0C580000 		.4byte	0x580c
 12887 57fa 02       		.uleb128 0x2
 12888 57fb 91       		.byte	0x91
 12889 57fc 70       		.sleb128 -16
 12890 57fd 60       		.uleb128 0x60
 12891 57fe 2D4B0000 		.4byte	.LASF342
 12892 5802 05       		.byte	0x5
 12893 5803 85       		.byte	0x85
 12894 5804 C5050000 		.4byte	0x5c5
 12895 5808 02       		.uleb128 0x2
 12896 5809 91       		.byte	0x91
ARM GAS  /tmp/ccWQ6gKG.s 			page 228


 12897 580a 6C       		.sleb128 -20
 12898 580b 00       		.byte	0
 12899 580c 14       		.uleb128 0x14
 12900 580d B5570000 		.4byte	0x57b5
 12901 5811 52       		.uleb128 0x52
 12902 5812 04       		.byte	0x4
 12903 5813 6F410000 		.4byte	0x416f
 12904 5817 69       		.uleb128 0x69
 12905 5818 5D3C0000 		.4byte	0x3c5d
 12906 581c 00000000 		.4byte	.LFB657
 12907 5820 2A000000 		.4byte	.LFE657-.LFB657
 12908 5824 01       		.uleb128 0x1
 12909 5825 9C       		.byte	0x9c
 12910 5826 3F580000 		.4byte	0x583f
 12911 582a 68580000 		.4byte	0x5868
 12912 582e 2E       		.uleb128 0x2e
 12913 582f 4D5400   		.ascii	"MT\000"
 12914 5832 133F0000 		.4byte	0x3f13
 12915 5836 45       		.uleb128 0x45
 12916 5837 514C00   		.ascii	"QL\000"
 12917 583a 37000000 		.4byte	0x37
 12918 583e 05       		.byte	0x5
 12919 583f 5D       		.uleb128 0x5d
 12920 5840 2C260000 		.4byte	.LASF710
 12921 5844 F9480000 		.4byte	0x48f9
 12922 5848 02       		.uleb128 0x2
 12923 5849 91       		.byte	0x91
 12924 584a 74       		.sleb128 -12
 12925 584b 5E       		.uleb128 0x5e
 12926 584c 73756200 		.ascii	"sub\000"
 12927 5850 05       		.byte	0x5
 12928 5851 85       		.byte	0x85
 12929 5852 68580000 		.4byte	0x5868
 12930 5856 02       		.uleb128 0x2
 12931 5857 91       		.byte	0x91
 12932 5858 70       		.sleb128 -16
 12933 5859 60       		.uleb128 0x60
 12934 585a 2D4B0000 		.4byte	.LASF342
 12935 585e 05       		.byte	0x5
 12936 585f 85       		.byte	0x85
 12937 5860 C5050000 		.4byte	0x5c5
 12938 5864 02       		.uleb128 0x2
 12939 5865 91       		.byte	0x91
 12940 5866 6C       		.sleb128 -20
 12941 5867 00       		.byte	0
 12942 5868 14       		.uleb128 0x14
 12943 5869 11580000 		.4byte	0x5811
 12944 586d 52       		.uleb128 0x52
 12945 586e 04       		.byte	0x4
 12946 586f 8E3F0000 		.4byte	0x3f8e
 12947 5873 69       		.uleb128 0x69
 12948 5874 963C0000 		.4byte	0x3c96
 12949 5878 00000000 		.4byte	.LFB658
 12950 587c 2A000000 		.4byte	.LFE658-.LFB658
 12951 5880 01       		.uleb128 0x1
 12952 5881 9C       		.byte	0x9c
 12953 5882 9B580000 		.4byte	0x589b
ARM GAS  /tmp/ccWQ6gKG.s 			page 229


 12954 5886 C4580000 		.4byte	0x58c4
 12955 588a 2E       		.uleb128 0x2e
 12956 588b 4D5400   		.ascii	"MT\000"
 12957 588e 483F0000 		.4byte	0x3f48
 12958 5892 45       		.uleb128 0x45
 12959 5893 514C00   		.ascii	"QL\000"
 12960 5896 37000000 		.4byte	0x37
 12961 589a 05       		.byte	0x5
 12962 589b 5D       		.uleb128 0x5d
 12963 589c 2C260000 		.4byte	.LASF710
 12964 58a0 F9480000 		.4byte	0x48f9
 12965 58a4 02       		.uleb128 0x2
 12966 58a5 91       		.byte	0x91
 12967 58a6 74       		.sleb128 -12
 12968 58a7 5E       		.uleb128 0x5e
 12969 58a8 73756200 		.ascii	"sub\000"
 12970 58ac 05       		.byte	0x5
 12971 58ad 85       		.byte	0x85
 12972 58ae C4580000 		.4byte	0x58c4
 12973 58b2 02       		.uleb128 0x2
 12974 58b3 91       		.byte	0x91
 12975 58b4 70       		.sleb128 -16
 12976 58b5 60       		.uleb128 0x60
 12977 58b6 2D4B0000 		.4byte	.LASF342
 12978 58ba 05       		.byte	0x5
 12979 58bb 85       		.byte	0x85
 12980 58bc C5050000 		.4byte	0x5c5
 12981 58c0 02       		.uleb128 0x2
 12982 58c1 91       		.byte	0x91
 12983 58c2 6C       		.sleb128 -20
 12984 58c3 00       		.byte	0
 12985 58c4 14       		.uleb128 0x14
 12986 58c5 6D580000 		.4byte	0x586d
 12987 58c9 69       		.uleb128 0x69
 12988 58ca 9B400000 		.4byte	0x409b
 12989 58ce 00000000 		.4byte	.LFB659
 12990 58d2 1C000000 		.4byte	.LFE659-.LFB659
 12991 58d6 01       		.uleb128 0x1
 12992 58d7 9C       		.byte	0x9c
 12993 58d8 E0580000 		.4byte	0x58e0
 12994 58dc FB580000 		.4byte	0x58fb
 12995 58e0 5D       		.uleb128 0x5d
 12996 58e1 2C260000 		.4byte	.LASF710
 12997 58e5 FB580000 		.4byte	0x58fb
 12998 58e9 02       		.uleb128 0x2
 12999 58ea 91       		.byte	0x91
 13000 58eb 74       		.sleb128 -12
 13001 58ec 60       		.uleb128 0x60
 13002 58ed 7C3A0000 		.4byte	.LASF712
 13003 58f1 0C       		.byte	0xc
 13004 58f2 1F       		.byte	0x1f
 13005 58f3 00590000 		.4byte	0x5900
 13006 58f7 02       		.uleb128 0x2
 13007 58f8 91       		.byte	0x91
 13008 58f9 70       		.sleb128 -16
 13009 58fa 00       		.byte	0
 13010 58fb 14       		.uleb128 0x14
ARM GAS  /tmp/ccWQ6gKG.s 			page 230


 13011 58fc 4D4B0000 		.4byte	0x4b4d
 13012 5900 14       		.uleb128 0x14
 13013 5901 5F4B0000 		.4byte	0x4b5f
 13014 5905 69       		.uleb128 0x69
 13015 5906 E6400000 		.4byte	0x40e6
 13016 590a 00000000 		.4byte	.LFB660
 13017 590e 1E000000 		.4byte	.LFE660-.LFB660
 13018 5912 01       		.uleb128 0x1
 13019 5913 9C       		.byte	0x9c
 13020 5914 1C590000 		.4byte	0x591c
 13021 5918 37590000 		.4byte	0x5937
 13022 591c 5D       		.uleb128 0x5d
 13023 591d 2C260000 		.4byte	.LASF710
 13024 5921 FB580000 		.4byte	0x58fb
 13025 5925 02       		.uleb128 0x2
 13026 5926 91       		.byte	0x91
 13027 5927 74       		.sleb128 -12
 13028 5928 5E       		.uleb128 0x5e
 13029 5929 6D736700 		.ascii	"msg\000"
 13030 592d 0C       		.byte	0xc
 13031 592e 39       		.byte	0x39
 13032 592f 37590000 		.4byte	0x5937
 13033 5933 02       		.uleb128 0x2
 13034 5934 91       		.byte	0x91
 13035 5935 70       		.sleb128 -16
 13036 5936 00       		.byte	0
 13037 5937 14       		.uleb128 0x14
 13038 5938 654B0000 		.4byte	0x4b65
 13039 593c 69       		.uleb128 0x69
 13040 593d 5D440000 		.4byte	0x445d
 13041 5941 00000000 		.4byte	.LFB661
 13042 5945 1C000000 		.4byte	.LFE661-.LFB661
 13043 5949 01       		.uleb128 0x1
 13044 594a 9C       		.byte	0x9c
 13045 594b 53590000 		.4byte	0x5953
 13046 594f 6E590000 		.4byte	0x596e
 13047 5953 5D       		.uleb128 0x5d
 13048 5954 2C260000 		.4byte	.LASF710
 13049 5958 6E590000 		.4byte	0x596e
 13050 595c 02       		.uleb128 0x2
 13051 595d 91       		.byte	0x91
 13052 595e 74       		.sleb128 -12
 13053 595f 60       		.uleb128 0x60
 13054 5960 7C3A0000 		.4byte	.LASF712
 13055 5964 0C       		.byte	0xc
 13056 5965 1F       		.byte	0x1f
 13057 5966 73590000 		.4byte	0x5973
 13058 596a 02       		.uleb128 0x2
 13059 596b 91       		.byte	0x91
 13060 596c 70       		.sleb128 -16
 13061 596d 00       		.byte	0
 13062 596e 14       		.uleb128 0x14
 13063 596f 2F4C0000 		.4byte	0x4c2f
 13064 5973 14       		.uleb128 0x14
 13065 5974 414C0000 		.4byte	0x4c41
 13066 5978 69       		.uleb128 0x69
 13067 5979 A8440000 		.4byte	0x44a8
ARM GAS  /tmp/ccWQ6gKG.s 			page 231


 13068 597d 00000000 		.4byte	.LFB662
 13069 5981 1E000000 		.4byte	.LFE662-.LFB662
 13070 5985 01       		.uleb128 0x1
 13071 5986 9C       		.byte	0x9c
 13072 5987 8F590000 		.4byte	0x598f
 13073 598b AA590000 		.4byte	0x59aa
 13074 598f 5D       		.uleb128 0x5d
 13075 5990 2C260000 		.4byte	.LASF710
 13076 5994 6E590000 		.4byte	0x596e
 13077 5998 02       		.uleb128 0x2
 13078 5999 91       		.byte	0x91
 13079 599a 74       		.sleb128 -12
 13080 599b 5E       		.uleb128 0x5e
 13081 599c 6D736700 		.ascii	"msg\000"
 13082 59a0 0C       		.byte	0xc
 13083 59a1 39       		.byte	0x39
 13084 59a2 AA590000 		.4byte	0x59aa
 13085 59a6 02       		.uleb128 0x2
 13086 59a7 91       		.byte	0x91
 13087 59a8 70       		.sleb128 -16
 13088 59a9 00       		.byte	0
 13089 59aa 14       		.uleb128 0x14
 13090 59ab 474C0000 		.4byte	0x4c47
 13091 59af 70       		.uleb128 0x70
 13092 59b0 CB440000 		.4byte	0x44cb
 13093 59b4 02       		.byte	0x2
 13094 59b5 BD590000 		.4byte	0x59bd
 13095 59b9 E8590000 		.4byte	0x59e8
 13096 59bd 65       		.uleb128 0x65
 13097 59be 2C260000 		.4byte	.LASF710
 13098 59c2 6E590000 		.4byte	0x596e
 13099 59c6 71       		.uleb128 0x71
 13100 59c7 19390000 		.4byte	.LASF660
 13101 59cb 0C       		.byte	0xc
 13102 59cc 41       		.byte	0x41
 13103 59cd 4D4C0000 		.4byte	0x4c4d
 13104 59d1 71       		.uleb128 0x71
 13105 59d2 56190000 		.4byte	.LASF749
 13106 59d6 0C       		.byte	0xc
 13107 59d7 41       		.byte	0x41
 13108 59d8 2C000000 		.4byte	0x2c
 13109 59dc 71       		.uleb128 0x71
 13110 59dd 0D340000 		.4byte	.LASF125
 13111 59e1 0C       		.byte	0xc
 13112 59e2 42       		.byte	0x42
 13113 59e3 0F440000 		.4byte	0x440f
 13114 59e7 00       		.byte	0
 13115 59e8 74       		.uleb128 0x74
 13116 59e9 AF590000 		.4byte	0x59af
 13117 59ed 54480000 		.4byte	.LASF750
 13118 59f1 00000000 		.4byte	.LFB664
 13119 59f5 30000000 		.4byte	.LFE664-.LFB664
 13120 59f9 01       		.uleb128 0x1
 13121 59fa 9C       		.byte	0x9c
 13122 59fb 035A0000 		.4byte	0x5a03
 13123 59ff 245A0000 		.4byte	0x5a24
 13124 5a03 67       		.uleb128 0x67
ARM GAS  /tmp/ccWQ6gKG.s 			page 232


 13125 5a04 BD590000 		.4byte	0x59bd
 13126 5a08 02       		.uleb128 0x2
 13127 5a09 91       		.byte	0x91
 13128 5a0a 74       		.sleb128 -12
 13129 5a0b 67       		.uleb128 0x67
 13130 5a0c C6590000 		.4byte	0x59c6
 13131 5a10 02       		.uleb128 0x2
 13132 5a11 91       		.byte	0x91
 13133 5a12 70       		.sleb128 -16
 13134 5a13 67       		.uleb128 0x67
 13135 5a14 D1590000 		.4byte	0x59d1
 13136 5a18 02       		.uleb128 0x2
 13137 5a19 91       		.byte	0x91
 13138 5a1a 6C       		.sleb128 -20
 13139 5a1b 67       		.uleb128 0x67
 13140 5a1c DC590000 		.4byte	0x59dc
 13141 5a20 02       		.uleb128 0x2
 13142 5a21 91       		.byte	0x91
 13143 5a22 68       		.sleb128 -24
 13144 5a23 00       		.byte	0
 13145 5a24 70       		.uleb128 0x70
 13146 5a25 F4440000 		.4byte	0x44f4
 13147 5a29 02       		.byte	0x2
 13148 5a2a 325A0000 		.4byte	0x5a32
 13149 5a2e 455A0000 		.4byte	0x5a45
 13150 5a32 65       		.uleb128 0x65
 13151 5a33 2C260000 		.4byte	.LASF710
 13152 5a37 6E590000 		.4byte	0x596e
 13153 5a3b 65       		.uleb128 0x65
 13154 5a3c 924F0000 		.4byte	.LASF738
 13155 5a40 455A0000 		.4byte	0x5a45
 13156 5a44 00       		.byte	0
 13157 5a45 14       		.uleb128 0x14
 13158 5a46 25000000 		.4byte	0x25
 13159 5a4a 74       		.uleb128 0x74
 13160 5a4b 245A0000 		.4byte	0x5a24
 13161 5a4f 2B580000 		.4byte	.LASF751
 13162 5a53 00000000 		.4byte	.LFB667
 13163 5a57 30000000 		.4byte	.LFE667-.LFB667
 13164 5a5b 01       		.uleb128 0x1
 13165 5a5c 9C       		.byte	0x9c
 13166 5a5d 655A0000 		.4byte	0x5a65
 13167 5a61 6E5A0000 		.4byte	0x5a6e
 13168 5a65 67       		.uleb128 0x67
 13169 5a66 325A0000 		.4byte	0x5a32
 13170 5a6a 02       		.uleb128 0x2
 13171 5a6b 91       		.byte	0x91
 13172 5a6c 74       		.sleb128 -12
 13173 5a6d 00       		.byte	0
 13174 5a6e 74       		.uleb128 0x74
 13175 5a6f 245A0000 		.4byte	0x5a24
 13176 5a73 CA440000 		.4byte	.LASF752
 13177 5a77 00000000 		.4byte	.LFB669
 13178 5a7b 1C000000 		.4byte	.LFE669-.LFB669
 13179 5a7f 01       		.uleb128 0x1
 13180 5a80 9C       		.byte	0x9c
 13181 5a81 895A0000 		.4byte	0x5a89
ARM GAS  /tmp/ccWQ6gKG.s 			page 233


 13182 5a85 925A0000 		.4byte	0x5a92
 13183 5a89 67       		.uleb128 0x67
 13184 5a8a 325A0000 		.4byte	0x5a32
 13185 5a8e 02       		.uleb128 0x2
 13186 5a8f 91       		.byte	0x91
 13187 5a90 74       		.sleb128 -12
 13188 5a91 00       		.byte	0
 13189 5a92 70       		.uleb128 0x70
 13190 5a93 EA420000 		.4byte	0x42ea
 13191 5a97 02       		.byte	0x2
 13192 5a98 A05A0000 		.4byte	0x5aa0
 13193 5a9c CB5A0000 		.4byte	0x5acb
 13194 5aa0 65       		.uleb128 0x65
 13195 5aa1 2C260000 		.4byte	.LASF710
 13196 5aa5 CB5A0000 		.4byte	0x5acb
 13197 5aa9 71       		.uleb128 0x71
 13198 5aaa 19390000 		.4byte	.LASF660
 13199 5aae 0C       		.byte	0xc
 13200 5aaf 41       		.byte	0x41
 13201 5ab0 DC4B0000 		.4byte	0x4bdc
 13202 5ab4 71       		.uleb128 0x71
 13203 5ab5 56190000 		.4byte	.LASF749
 13204 5ab9 0C       		.byte	0xc
 13205 5aba 41       		.byte	0x41
 13206 5abb 2C000000 		.4byte	0x2c
 13207 5abf 71       		.uleb128 0x71
 13208 5ac0 0D340000 		.4byte	.LASF125
 13209 5ac4 0C       		.byte	0xc
 13210 5ac5 42       		.byte	0x42
 13211 5ac6 2E420000 		.4byte	0x422e
 13212 5aca 00       		.byte	0
 13213 5acb 14       		.uleb128 0x14
 13214 5acc BE4B0000 		.4byte	0x4bbe
 13215 5ad0 74       		.uleb128 0x74
 13216 5ad1 925A0000 		.4byte	0x5a92
 13217 5ad5 E80D0000 		.4byte	.LASF753
 13218 5ad9 00000000 		.4byte	.LFB671
 13219 5add 30000000 		.4byte	.LFE671-.LFB671
 13220 5ae1 01       		.uleb128 0x1
 13221 5ae2 9C       		.byte	0x9c
 13222 5ae3 EB5A0000 		.4byte	0x5aeb
 13223 5ae7 0C5B0000 		.4byte	0x5b0c
 13224 5aeb 67       		.uleb128 0x67
 13225 5aec A05A0000 		.4byte	0x5aa0
 13226 5af0 02       		.uleb128 0x2
 13227 5af1 91       		.byte	0x91
 13228 5af2 74       		.sleb128 -12
 13229 5af3 67       		.uleb128 0x67
 13230 5af4 A95A0000 		.4byte	0x5aa9
 13231 5af8 02       		.uleb128 0x2
 13232 5af9 91       		.byte	0x91
 13233 5afa 70       		.sleb128 -16
 13234 5afb 67       		.uleb128 0x67
 13235 5afc B45A0000 		.4byte	0x5ab4
 13236 5b00 02       		.uleb128 0x2
 13237 5b01 91       		.byte	0x91
 13238 5b02 6C       		.sleb128 -20
ARM GAS  /tmp/ccWQ6gKG.s 			page 234


 13239 5b03 67       		.uleb128 0x67
 13240 5b04 BF5A0000 		.4byte	0x5abf
 13241 5b08 02       		.uleb128 0x2
 13242 5b09 91       		.byte	0x91
 13243 5b0a 68       		.sleb128 -24
 13244 5b0b 00       		.byte	0
 13245 5b0c 70       		.uleb128 0x70
 13246 5b0d 13430000 		.4byte	0x4313
 13247 5b11 02       		.byte	0x2
 13248 5b12 1A5B0000 		.4byte	0x5b1a
 13249 5b16 2D5B0000 		.4byte	0x5b2d
 13250 5b1a 65       		.uleb128 0x65
 13251 5b1b 2C260000 		.4byte	.LASF710
 13252 5b1f CB5A0000 		.4byte	0x5acb
 13253 5b23 65       		.uleb128 0x65
 13254 5b24 924F0000 		.4byte	.LASF738
 13255 5b28 2D5B0000 		.4byte	0x5b2d
 13256 5b2c 00       		.byte	0
 13257 5b2d 14       		.uleb128 0x14
 13258 5b2e 25000000 		.4byte	0x25
 13259 5b32 74       		.uleb128 0x74
 13260 5b33 0C5B0000 		.4byte	0x5b0c
 13261 5b37 F64A0000 		.4byte	.LASF754
 13262 5b3b 00000000 		.4byte	.LFB674
 13263 5b3f 30000000 		.4byte	.LFE674-.LFB674
 13264 5b43 01       		.uleb128 0x1
 13265 5b44 9C       		.byte	0x9c
 13266 5b45 4D5B0000 		.4byte	0x5b4d
 13267 5b49 565B0000 		.4byte	0x5b56
 13268 5b4d 67       		.uleb128 0x67
 13269 5b4e 1A5B0000 		.4byte	0x5b1a
 13270 5b52 02       		.uleb128 0x2
 13271 5b53 91       		.byte	0x91
 13272 5b54 74       		.sleb128 -12
 13273 5b55 00       		.byte	0
 13274 5b56 74       		.uleb128 0x74
 13275 5b57 0C5B0000 		.4byte	0x5b0c
 13276 5b5b 23390000 		.4byte	.LASF755
 13277 5b5f 00000000 		.4byte	.LFB676
 13278 5b63 1C000000 		.4byte	.LFE676-.LFB676
 13279 5b67 01       		.uleb128 0x1
 13280 5b68 9C       		.byte	0x9c
 13281 5b69 715B0000 		.4byte	0x5b71
 13282 5b6d 7A5B0000 		.4byte	0x5b7a
 13283 5b71 67       		.uleb128 0x67
 13284 5b72 1A5B0000 		.4byte	0x5b1a
 13285 5b76 02       		.uleb128 0x2
 13286 5b77 91       		.byte	0x91
 13287 5b78 74       		.sleb128 -12
 13288 5b79 00       		.byte	0
 13289 5b7a 70       		.uleb128 0x70
 13290 5b7b 09410000 		.4byte	0x4109
 13291 5b7f 02       		.byte	0x2
 13292 5b80 885B0000 		.4byte	0x5b88
 13293 5b84 B35B0000 		.4byte	0x5bb3
 13294 5b88 65       		.uleb128 0x65
 13295 5b89 2C260000 		.4byte	.LASF710
ARM GAS  /tmp/ccWQ6gKG.s 			page 235


 13296 5b8d FB580000 		.4byte	0x58fb
 13297 5b91 71       		.uleb128 0x71
 13298 5b92 19390000 		.4byte	.LASF660
 13299 5b96 0C       		.byte	0xc
 13300 5b97 41       		.byte	0x41
 13301 5b98 6B4B0000 		.4byte	0x4b6b
 13302 5b9c 71       		.uleb128 0x71
 13303 5b9d 56190000 		.4byte	.LASF749
 13304 5ba1 0C       		.byte	0xc
 13305 5ba2 41       		.byte	0x41
 13306 5ba3 2C000000 		.4byte	0x2c
 13307 5ba7 71       		.uleb128 0x71
 13308 5ba8 0D340000 		.4byte	.LASF125
 13309 5bac 0C       		.byte	0xc
 13310 5bad 42       		.byte	0x42
 13311 5bae 4D400000 		.4byte	0x404d
 13312 5bb2 00       		.byte	0
 13313 5bb3 74       		.uleb128 0x74
 13314 5bb4 7A5B0000 		.4byte	0x5b7a
 13315 5bb8 37140000 		.4byte	.LASF756
 13316 5bbc 00000000 		.4byte	.LFB678
 13317 5bc0 30000000 		.4byte	.LFE678-.LFB678
 13318 5bc4 01       		.uleb128 0x1
 13319 5bc5 9C       		.byte	0x9c
 13320 5bc6 CE5B0000 		.4byte	0x5bce
 13321 5bca EF5B0000 		.4byte	0x5bef
 13322 5bce 67       		.uleb128 0x67
 13323 5bcf 885B0000 		.4byte	0x5b88
 13324 5bd3 02       		.uleb128 0x2
 13325 5bd4 91       		.byte	0x91
 13326 5bd5 74       		.sleb128 -12
 13327 5bd6 67       		.uleb128 0x67
 13328 5bd7 915B0000 		.4byte	0x5b91
 13329 5bdb 02       		.uleb128 0x2
 13330 5bdc 91       		.byte	0x91
 13331 5bdd 70       		.sleb128 -16
 13332 5bde 67       		.uleb128 0x67
 13333 5bdf 9C5B0000 		.4byte	0x5b9c
 13334 5be3 02       		.uleb128 0x2
 13335 5be4 91       		.byte	0x91
 13336 5be5 6C       		.sleb128 -20
 13337 5be6 67       		.uleb128 0x67
 13338 5be7 A75B0000 		.4byte	0x5ba7
 13339 5beb 02       		.uleb128 0x2
 13340 5bec 91       		.byte	0x91
 13341 5bed 68       		.sleb128 -24
 13342 5bee 00       		.byte	0
 13343 5bef 70       		.uleb128 0x70
 13344 5bf0 32410000 		.4byte	0x4132
 13345 5bf4 02       		.byte	0x2
 13346 5bf5 FD5B0000 		.4byte	0x5bfd
 13347 5bf9 105C0000 		.4byte	0x5c10
 13348 5bfd 65       		.uleb128 0x65
 13349 5bfe 2C260000 		.4byte	.LASF710
 13350 5c02 FB580000 		.4byte	0x58fb
 13351 5c06 65       		.uleb128 0x65
 13352 5c07 924F0000 		.4byte	.LASF738
ARM GAS  /tmp/ccWQ6gKG.s 			page 236


 13353 5c0b 105C0000 		.4byte	0x5c10
 13354 5c0f 00       		.byte	0
 13355 5c10 14       		.uleb128 0x14
 13356 5c11 25000000 		.4byte	0x25
 13357 5c15 74       		.uleb128 0x74
 13358 5c16 EF5B0000 		.4byte	0x5bef
 13359 5c1a 034E0000 		.4byte	.LASF757
 13360 5c1e 00000000 		.4byte	.LFB681
 13361 5c22 30000000 		.4byte	.LFE681-.LFB681
 13362 5c26 01       		.uleb128 0x1
 13363 5c27 9C       		.byte	0x9c
 13364 5c28 305C0000 		.4byte	0x5c30
 13365 5c2c 395C0000 		.4byte	0x5c39
 13366 5c30 67       		.uleb128 0x67
 13367 5c31 FD5B0000 		.4byte	0x5bfd
 13368 5c35 02       		.uleb128 0x2
 13369 5c36 91       		.byte	0x91
 13370 5c37 74       		.sleb128 -12
 13371 5c38 00       		.byte	0
 13372 5c39 74       		.uleb128 0x74
 13373 5c3a EF5B0000 		.4byte	0x5bef
 13374 5c3e 1C3D0000 		.4byte	.LASF758
 13375 5c42 00000000 		.4byte	.LFB683
 13376 5c46 1C000000 		.4byte	.LFE683-.LFB683
 13377 5c4a 01       		.uleb128 0x1
 13378 5c4b 9C       		.byte	0x9c
 13379 5c4c 545C0000 		.4byte	0x5c54
 13380 5c50 5D5C0000 		.4byte	0x5c5d
 13381 5c54 67       		.uleb128 0x67
 13382 5c55 FD5B0000 		.4byte	0x5bfd
 13383 5c59 02       		.uleb128 0x2
 13384 5c5a 91       		.byte	0x91
 13385 5c5b 74       		.sleb128 -12
 13386 5c5c 00       		.byte	0
 13387 5c5d 75       		.uleb128 0x75
 13388 5c5e B63D0000 		.4byte	.LASF777
 13389 5c62 00000000 		.4byte	.LFB687
 13390 5c66 28000000 		.4byte	.LFE687-.LFB687
 13391 5c6a 01       		.uleb128 0x1
 13392 5c6b 9C       		.byte	0x9c
 13393 5c6c 8D5C0000 		.4byte	0x5c8d
 13394 5c70 60       		.uleb128 0x60
 13395 5c71 CF100000 		.4byte	.LASF759
 13396 5c75 08       		.byte	0x8
 13397 5c76 6F       		.byte	0x6f
 13398 5c77 25000000 		.4byte	0x25
 13399 5c7b 02       		.uleb128 0x2
 13400 5c7c 91       		.byte	0x91
 13401 5c7d 74       		.sleb128 -12
 13402 5c7e 60       		.uleb128 0x60
 13403 5c7f 41180000 		.4byte	.LASF760
 13404 5c83 08       		.byte	0x8
 13405 5c84 6F       		.byte	0x6f
 13406 5c85 25000000 		.4byte	0x25
 13407 5c89 02       		.uleb128 0x2
 13408 5c8a 91       		.byte	0x91
 13409 5c8b 70       		.sleb128 -16
ARM GAS  /tmp/ccWQ6gKG.s 			page 237


 13410 5c8c 00       		.byte	0
 13411 5c8d 76       		.uleb128 0x76
 13412 5c8e A2050000 		.4byte	.LASF778
 13413 5c92 00000000 		.4byte	.LFB688
 13414 5c96 0E000000 		.4byte	.LFE688-.LFB688
 13415 5c9a 01       		.uleb128 0x1
 13416 5c9b 9C       		.byte	0x9c
 13417 5c9c 77       		.uleb128 0x77
 13418 5c9d 48100000 		.4byte	.LASF761
 13419 5ca1 14       		.byte	0x14
 13420 5ca2 6F       		.byte	0x6f
 13421 5ca3 F7040000 		.4byte	0x4f7
 13422 5ca7 78       		.uleb128 0x78
 13423 5ca8 F6490000 		.4byte	.LASF762
 13424 5cac 28       		.byte	0x28
 13425 5cad 9806     		.2byte	0x698
 13426 5caf 0E060000 		.4byte	0x60e
 13427 5cb3 78       		.uleb128 0x78
 13428 5cb4 2C2E0000 		.4byte	.LASF763
 13429 5cb8 1A       		.byte	0x1a
 13430 5cb9 B301     		.2byte	0x1b3
 13431 5cbb 19070000 		.4byte	0x719
 13432 5cbf 79       		.uleb128 0x79
 13433 5cc0 70776D00 		.ascii	"pwm\000"
 13434 5cc4 08       		.byte	0x8
 13435 5cc5 0A       		.byte	0xa
 13436 5cc6 C3000000 		.4byte	0xc3
 13437 5cca 05       		.uleb128 0x5
 13438 5ccb 03       		.byte	0x3
 13439 5ccc 00000000 		.4byte	pwm
 13440 5cd0 6D       		.uleb128 0x6d
 13441 5cd1 BB590000 		.4byte	.LASF764
 13442 5cd5 08       		.byte	0x8
 13443 5cd6 21       		.byte	0x21
 13444 5cd7 7B090000 		.4byte	0x97b
 13445 5cdb 05       		.uleb128 0x5
 13446 5cdc 03       		.byte	0x3
 13447 5cdd 00000000 		.4byte	_ZL6pwmcfg
 13448 5ce1 7A       		.uleb128 0x7a
 13449 5ce2 E5240000 		.4byte	.LASF765
 13450 5ce6 08       		.byte	0x8
 13451 5ce7 2A       		.byte	0x2a
 13452 5ce8 004A0000 		.4byte	0x4a00
 13453 5cec 05       		.uleb128 0x5
 13454 5ced 03       		.byte	0x3
 13455 5cee 00000000 		.4byte	speed_pid
 13456 5cf2 00       		.byte	0
 13457              		.section	.debug_abbrev,"",%progbits
 13458              	.Ldebug_abbrev0:
 13459 0000 01       		.uleb128 0x1
 13460 0001 11       		.uleb128 0x11
 13461 0002 01       		.byte	0x1
 13462 0003 25       		.uleb128 0x25
 13463 0004 0E       		.uleb128 0xe
 13464 0005 13       		.uleb128 0x13
 13465 0006 0B       		.uleb128 0xb
 13466 0007 03       		.uleb128 0x3
ARM GAS  /tmp/ccWQ6gKG.s 			page 238


 13467 0008 0E       		.uleb128 0xe
 13468 0009 1B       		.uleb128 0x1b
 13469 000a 0E       		.uleb128 0xe
 13470 000b 55       		.uleb128 0x55
 13471 000c 17       		.uleb128 0x17
 13472 000d 11       		.uleb128 0x11
 13473 000e 01       		.uleb128 0x1
 13474 000f 10       		.uleb128 0x10
 13475 0010 17       		.uleb128 0x17
 13476 0011 00       		.byte	0
 13477 0012 00       		.byte	0
 13478 0013 02       		.uleb128 0x2
 13479 0014 24       		.uleb128 0x24
 13480 0015 00       		.byte	0
 13481 0016 0B       		.uleb128 0xb
 13482 0017 0B       		.uleb128 0xb
 13483 0018 3E       		.uleb128 0x3e
 13484 0019 0B       		.uleb128 0xb
 13485 001a 03       		.uleb128 0x3
 13486 001b 08       		.uleb128 0x8
 13487 001c 00       		.byte	0
 13488 001d 00       		.byte	0
 13489 001e 03       		.uleb128 0x3
 13490 001f 16       		.uleb128 0x16
 13491 0020 00       		.byte	0
 13492 0021 03       		.uleb128 0x3
 13493 0022 0E       		.uleb128 0xe
 13494 0023 3A       		.uleb128 0x3a
 13495 0024 0B       		.uleb128 0xb
 13496 0025 3B       		.uleb128 0x3b
 13497 0026 0B       		.uleb128 0xb
 13498 0027 49       		.uleb128 0x49
 13499 0028 13       		.uleb128 0x13
 13500 0029 00       		.byte	0
 13501 002a 00       		.byte	0
 13502 002b 04       		.uleb128 0x4
 13503 002c 24       		.uleb128 0x24
 13504 002d 00       		.byte	0
 13505 002e 0B       		.uleb128 0xb
 13506 002f 0B       		.uleb128 0xb
 13507 0030 3E       		.uleb128 0x3e
 13508 0031 0B       		.uleb128 0xb
 13509 0032 03       		.uleb128 0x3
 13510 0033 0E       		.uleb128 0xe
 13511 0034 00       		.byte	0
 13512 0035 00       		.byte	0
 13513 0036 05       		.uleb128 0x5
 13514 0037 13       		.uleb128 0x13
 13515 0038 01       		.byte	0x1
 13516 0039 03       		.uleb128 0x3
 13517 003a 0E       		.uleb128 0xe
 13518 003b 0B       		.uleb128 0xb
 13519 003c 0B       		.uleb128 0xb
 13520 003d 3A       		.uleb128 0x3a
 13521 003e 0B       		.uleb128 0xb
 13522 003f 3B       		.uleb128 0x3b
 13523 0040 0B       		.uleb128 0xb
ARM GAS  /tmp/ccWQ6gKG.s 			page 239


 13524 0041 01       		.uleb128 0x1
 13525 0042 13       		.uleb128 0x13
 13526 0043 00       		.byte	0
 13527 0044 00       		.byte	0
 13528 0045 06       		.uleb128 0x6
 13529 0046 17       		.uleb128 0x17
 13530 0047 01       		.byte	0x1
 13531 0048 0B       		.uleb128 0xb
 13532 0049 0B       		.uleb128 0xb
 13533 004a 3A       		.uleb128 0x3a
 13534 004b 0B       		.uleb128 0xb
 13535 004c 3B       		.uleb128 0x3b
 13536 004d 0B       		.uleb128 0xb
 13537 004e 01       		.uleb128 0x1
 13538 004f 13       		.uleb128 0x13
 13539 0050 00       		.byte	0
 13540 0051 00       		.byte	0
 13541 0052 07       		.uleb128 0x7
 13542 0053 0D       		.uleb128 0xd
 13543 0054 00       		.byte	0
 13544 0055 03       		.uleb128 0x3
 13545 0056 0E       		.uleb128 0xe
 13546 0057 3A       		.uleb128 0x3a
 13547 0058 0B       		.uleb128 0xb
 13548 0059 3B       		.uleb128 0x3b
 13549 005a 0B       		.uleb128 0xb
 13550 005b 49       		.uleb128 0x49
 13551 005c 13       		.uleb128 0x13
 13552 005d 00       		.byte	0
 13553 005e 00       		.byte	0
 13554 005f 08       		.uleb128 0x8
 13555 0060 0D       		.uleb128 0xd
 13556 0061 00       		.byte	0
 13557 0062 03       		.uleb128 0x3
 13558 0063 0E       		.uleb128 0xe
 13559 0064 3A       		.uleb128 0x3a
 13560 0065 0B       		.uleb128 0xb
 13561 0066 3B       		.uleb128 0x3b
 13562 0067 0B       		.uleb128 0xb
 13563 0068 49       		.uleb128 0x49
 13564 0069 13       		.uleb128 0x13
 13565 006a 38       		.uleb128 0x38
 13566 006b 0B       		.uleb128 0xb
 13567 006c 00       		.byte	0
 13568 006d 00       		.byte	0
 13569 006e 09       		.uleb128 0x9
 13570 006f 0D       		.uleb128 0xd
 13571 0070 00       		.byte	0
 13572 0071 03       		.uleb128 0x3
 13573 0072 08       		.uleb128 0x8
 13574 0073 3A       		.uleb128 0x3a
 13575 0074 0B       		.uleb128 0xb
 13576 0075 3B       		.uleb128 0x3b
 13577 0076 0B       		.uleb128 0xb
 13578 0077 49       		.uleb128 0x49
 13579 0078 13       		.uleb128 0x13
 13580 0079 38       		.uleb128 0x38
ARM GAS  /tmp/ccWQ6gKG.s 			page 240


 13581 007a 0B       		.uleb128 0xb
 13582 007b 00       		.byte	0
 13583 007c 00       		.byte	0
 13584 007d 0A       		.uleb128 0xa
 13585 007e 13       		.uleb128 0x13
 13586 007f 01       		.byte	0x1
 13587 0080 0B       		.uleb128 0xb
 13588 0081 0B       		.uleb128 0xb
 13589 0082 3A       		.uleb128 0x3a
 13590 0083 0B       		.uleb128 0xb
 13591 0084 3B       		.uleb128 0x3b
 13592 0085 0B       		.uleb128 0xb
 13593 0086 6E       		.uleb128 0x6e
 13594 0087 0E       		.uleb128 0xe
 13595 0088 01       		.uleb128 0x1
 13596 0089 13       		.uleb128 0x13
 13597 008a 00       		.byte	0
 13598 008b 00       		.byte	0
 13599 008c 0B       		.uleb128 0xb
 13600 008d 0F       		.uleb128 0xf
 13601 008e 00       		.byte	0
 13602 008f 0B       		.uleb128 0xb
 13603 0090 0B       		.uleb128 0xb
 13604 0091 49       		.uleb128 0x49
 13605 0092 13       		.uleb128 0x13
 13606 0093 00       		.byte	0
 13607 0094 00       		.byte	0
 13608 0095 0C       		.uleb128 0xc
 13609 0096 0F       		.uleb128 0xf
 13610 0097 00       		.byte	0
 13611 0098 0B       		.uleb128 0xb
 13612 0099 0B       		.uleb128 0xb
 13613 009a 00       		.byte	0
 13614 009b 00       		.byte	0
 13615 009c 0D       		.uleb128 0xd
 13616 009d 13       		.uleb128 0x13
 13617 009e 01       		.byte	0x1
 13618 009f 03       		.uleb128 0x3
 13619 00a0 0E       		.uleb128 0xe
 13620 00a1 0B       		.uleb128 0xb
 13621 00a2 0B       		.uleb128 0xb
 13622 00a3 3A       		.uleb128 0x3a
 13623 00a4 0B       		.uleb128 0xb
 13624 00a5 3B       		.uleb128 0x3b
 13625 00a6 05       		.uleb128 0x5
 13626 00a7 01       		.uleb128 0x1
 13627 00a8 13       		.uleb128 0x13
 13628 00a9 00       		.byte	0
 13629 00aa 00       		.byte	0
 13630 00ab 0E       		.uleb128 0xe
 13631 00ac 0D       		.uleb128 0xd
 13632 00ad 00       		.byte	0
 13633 00ae 03       		.uleb128 0x3
 13634 00af 08       		.uleb128 0x8
 13635 00b0 3A       		.uleb128 0x3a
 13636 00b1 0B       		.uleb128 0xb
 13637 00b2 3B       		.uleb128 0x3b
ARM GAS  /tmp/ccWQ6gKG.s 			page 241


 13638 00b3 05       		.uleb128 0x5
 13639 00b4 49       		.uleb128 0x49
 13640 00b5 13       		.uleb128 0x13
 13641 00b6 38       		.uleb128 0x38
 13642 00b7 0B       		.uleb128 0xb
 13643 00b8 00       		.byte	0
 13644 00b9 00       		.byte	0
 13645 00ba 0F       		.uleb128 0xf
 13646 00bb 35       		.uleb128 0x35
 13647 00bc 00       		.byte	0
 13648 00bd 49       		.uleb128 0x49
 13649 00be 13       		.uleb128 0x13
 13650 00bf 00       		.byte	0
 13651 00c0 00       		.byte	0
 13652 00c1 10       		.uleb128 0x10
 13653 00c2 01       		.uleb128 0x1
 13654 00c3 01       		.byte	0x1
 13655 00c4 49       		.uleb128 0x49
 13656 00c5 13       		.uleb128 0x13
 13657 00c6 01       		.uleb128 0x1
 13658 00c7 13       		.uleb128 0x13
 13659 00c8 00       		.byte	0
 13660 00c9 00       		.byte	0
 13661 00ca 11       		.uleb128 0x11
 13662 00cb 21       		.uleb128 0x21
 13663 00cc 00       		.byte	0
 13664 00cd 49       		.uleb128 0x49
 13665 00ce 13       		.uleb128 0x13
 13666 00cf 2F       		.uleb128 0x2f
 13667 00d0 0B       		.uleb128 0xb
 13668 00d1 00       		.byte	0
 13669 00d2 00       		.byte	0
 13670 00d3 12       		.uleb128 0x12
 13671 00d4 15       		.uleb128 0x15
 13672 00d5 01       		.byte	0x1
 13673 00d6 49       		.uleb128 0x49
 13674 00d7 13       		.uleb128 0x13
 13675 00d8 01       		.uleb128 0x1
 13676 00d9 13       		.uleb128 0x13
 13677 00da 00       		.byte	0
 13678 00db 00       		.byte	0
 13679 00dc 13       		.uleb128 0x13
 13680 00dd 05       		.uleb128 0x5
 13681 00de 00       		.byte	0
 13682 00df 49       		.uleb128 0x49
 13683 00e0 13       		.uleb128 0x13
 13684 00e1 00       		.byte	0
 13685 00e2 00       		.byte	0
 13686 00e3 14       		.uleb128 0x14
 13687 00e4 26       		.uleb128 0x26
 13688 00e5 00       		.byte	0
 13689 00e6 49       		.uleb128 0x49
 13690 00e7 13       		.uleb128 0x13
 13691 00e8 00       		.byte	0
 13692 00e9 00       		.byte	0
 13693 00ea 15       		.uleb128 0x15
 13694 00eb 13       		.uleb128 0x13
ARM GAS  /tmp/ccWQ6gKG.s 			page 242


 13695 00ec 01       		.byte	0x1
 13696 00ed 0B       		.uleb128 0xb
 13697 00ee 0B       		.uleb128 0xb
 13698 00ef 3A       		.uleb128 0x3a
 13699 00f0 0B       		.uleb128 0xb
 13700 00f1 3B       		.uleb128 0x3b
 13701 00f2 0B       		.uleb128 0xb
 13702 00f3 01       		.uleb128 0x1
 13703 00f4 13       		.uleb128 0x13
 13704 00f5 00       		.byte	0
 13705 00f6 00       		.byte	0
 13706 00f7 16       		.uleb128 0x16
 13707 00f8 0D       		.uleb128 0xd
 13708 00f9 00       		.byte	0
 13709 00fa 03       		.uleb128 0x3
 13710 00fb 08       		.uleb128 0x8
 13711 00fc 3A       		.uleb128 0x3a
 13712 00fd 0B       		.uleb128 0xb
 13713 00fe 3B       		.uleb128 0x3b
 13714 00ff 0B       		.uleb128 0xb
 13715 0100 49       		.uleb128 0x49
 13716 0101 13       		.uleb128 0x13
 13717 0102 00       		.byte	0
 13718 0103 00       		.byte	0
 13719 0104 17       		.uleb128 0x17
 13720 0105 04       		.uleb128 0x4
 13721 0106 01       		.byte	0x1
 13722 0107 0B       		.uleb128 0xb
 13723 0108 0B       		.uleb128 0xb
 13724 0109 3A       		.uleb128 0x3a
 13725 010a 0B       		.uleb128 0xb
 13726 010b 3B       		.uleb128 0x3b
 13727 010c 0B       		.uleb128 0xb
 13728 010d 6E       		.uleb128 0x6e
 13729 010e 0E       		.uleb128 0xe
 13730 010f 01       		.uleb128 0x1
 13731 0110 13       		.uleb128 0x13
 13732 0111 00       		.byte	0
 13733 0112 00       		.byte	0
 13734 0113 18       		.uleb128 0x18
 13735 0114 28       		.uleb128 0x28
 13736 0115 00       		.byte	0
 13737 0116 03       		.uleb128 0x3
 13738 0117 0E       		.uleb128 0xe
 13739 0118 1C       		.uleb128 0x1c
 13740 0119 0D       		.uleb128 0xd
 13741 011a 00       		.byte	0
 13742 011b 00       		.byte	0
 13743 011c 19       		.uleb128 0x19
 13744 011d 0D       		.uleb128 0xd
 13745 011e 00       		.byte	0
 13746 011f 03       		.uleb128 0x3
 13747 0120 0E       		.uleb128 0xe
 13748 0121 3A       		.uleb128 0x3a
 13749 0122 0B       		.uleb128 0xb
 13750 0123 3B       		.uleb128 0x3b
 13751 0124 05       		.uleb128 0x5
ARM GAS  /tmp/ccWQ6gKG.s 			page 243


 13752 0125 49       		.uleb128 0x49
 13753 0126 13       		.uleb128 0x13
 13754 0127 38       		.uleb128 0x38
 13755 0128 0B       		.uleb128 0xb
 13756 0129 00       		.byte	0
 13757 012a 00       		.byte	0
 13758 012b 1A       		.uleb128 0x1a
 13759 012c 15       		.uleb128 0x15
 13760 012d 01       		.byte	0x1
 13761 012e 01       		.uleb128 0x1
 13762 012f 13       		.uleb128 0x13
 13763 0130 00       		.byte	0
 13764 0131 00       		.byte	0
 13765 0132 1B       		.uleb128 0x1b
 13766 0133 13       		.uleb128 0x13
 13767 0134 01       		.byte	0x1
 13768 0135 0B       		.uleb128 0xb
 13769 0136 0B       		.uleb128 0xb
 13770 0137 3A       		.uleb128 0x3a
 13771 0138 0B       		.uleb128 0xb
 13772 0139 3B       		.uleb128 0x3b
 13773 013a 05       		.uleb128 0x5
 13774 013b 6E       		.uleb128 0x6e
 13775 013c 0E       		.uleb128 0xe
 13776 013d 01       		.uleb128 0x1
 13777 013e 13       		.uleb128 0x13
 13778 013f 00       		.byte	0
 13779 0140 00       		.byte	0
 13780 0141 1C       		.uleb128 0x1c
 13781 0142 16       		.uleb128 0x16
 13782 0143 00       		.byte	0
 13783 0144 03       		.uleb128 0x3
 13784 0145 0E       		.uleb128 0xe
 13785 0146 3A       		.uleb128 0x3a
 13786 0147 0B       		.uleb128 0xb
 13787 0148 3B       		.uleb128 0x3b
 13788 0149 05       		.uleb128 0x5
 13789 014a 49       		.uleb128 0x49
 13790 014b 13       		.uleb128 0x13
 13791 014c 00       		.byte	0
 13792 014d 00       		.byte	0
 13793 014e 1D       		.uleb128 0x1d
 13794 014f 39       		.uleb128 0x39
 13795 0150 01       		.byte	0x1
 13796 0151 03       		.uleb128 0x3
 13797 0152 08       		.uleb128 0x8
 13798 0153 3A       		.uleb128 0x3a
 13799 0154 0B       		.uleb128 0xb
 13800 0155 3B       		.uleb128 0x3b
 13801 0156 0B       		.uleb128 0xb
 13802 0157 01       		.uleb128 0x1
 13803 0158 13       		.uleb128 0x13
 13804 0159 00       		.byte	0
 13805 015a 00       		.byte	0
 13806 015b 1E       		.uleb128 0x1e
 13807 015c 08       		.uleb128 0x8
 13808 015d 00       		.byte	0
ARM GAS  /tmp/ccWQ6gKG.s 			page 244


 13809 015e 3A       		.uleb128 0x3a
 13810 015f 0B       		.uleb128 0xb
 13811 0160 3B       		.uleb128 0x3b
 13812 0161 0B       		.uleb128 0xb
 13813 0162 18       		.uleb128 0x18
 13814 0163 13       		.uleb128 0x13
 13815 0164 00       		.byte	0
 13816 0165 00       		.byte	0
 13817 0166 1F       		.uleb128 0x1f
 13818 0167 2E       		.uleb128 0x2e
 13819 0168 01       		.byte	0x1
 13820 0169 3F       		.uleb128 0x3f
 13821 016a 19       		.uleb128 0x19
 13822 016b 03       		.uleb128 0x3
 13823 016c 0E       		.uleb128 0xe
 13824 016d 3A       		.uleb128 0x3a
 13825 016e 0B       		.uleb128 0xb
 13826 016f 3B       		.uleb128 0x3b
 13827 0170 0B       		.uleb128 0xb
 13828 0171 49       		.uleb128 0x49
 13829 0172 13       		.uleb128 0x13
 13830 0173 3C       		.uleb128 0x3c
 13831 0174 19       		.uleb128 0x19
 13832 0175 01       		.uleb128 0x1
 13833 0176 13       		.uleb128 0x13
 13834 0177 00       		.byte	0
 13835 0178 00       		.byte	0
 13836 0179 20       		.uleb128 0x20
 13837 017a 02       		.uleb128 0x2
 13838 017b 01       		.byte	0x1
 13839 017c 03       		.uleb128 0x3
 13840 017d 0E       		.uleb128 0xe
 13841 017e 0B       		.uleb128 0xb
 13842 017f 0B       		.uleb128 0xb
 13843 0180 3A       		.uleb128 0x3a
 13844 0181 0B       		.uleb128 0xb
 13845 0182 3B       		.uleb128 0x3b
 13846 0183 0B       		.uleb128 0xb
 13847 0184 01       		.uleb128 0x1
 13848 0185 13       		.uleb128 0x13
 13849 0186 00       		.byte	0
 13850 0187 00       		.byte	0
 13851 0188 21       		.uleb128 0x21
 13852 0189 2E       		.uleb128 0x2e
 13853 018a 01       		.byte	0x1
 13854 018b 3F       		.uleb128 0x3f
 13855 018c 19       		.uleb128 0x19
 13856 018d 03       		.uleb128 0x3
 13857 018e 0E       		.uleb128 0xe
 13858 018f 3A       		.uleb128 0x3a
 13859 0190 0B       		.uleb128 0xb
 13860 0191 3B       		.uleb128 0x3b
 13861 0192 0B       		.uleb128 0xb
 13862 0193 49       		.uleb128 0x49
 13863 0194 13       		.uleb128 0x13
 13864 0195 3C       		.uleb128 0x3c
 13865 0196 19       		.uleb128 0x19
ARM GAS  /tmp/ccWQ6gKG.s 			page 245


 13866 0197 64       		.uleb128 0x64
 13867 0198 13       		.uleb128 0x13
 13868 0199 01       		.uleb128 0x1
 13869 019a 13       		.uleb128 0x13
 13870 019b 00       		.byte	0
 13871 019c 00       		.byte	0
 13872 019d 22       		.uleb128 0x22
 13873 019e 05       		.uleb128 0x5
 13874 019f 00       		.byte	0
 13875 01a0 49       		.uleb128 0x49
 13876 01a1 13       		.uleb128 0x13
 13877 01a2 34       		.uleb128 0x34
 13878 01a3 19       		.uleb128 0x19
 13879 01a4 00       		.byte	0
 13880 01a5 00       		.byte	0
 13881 01a6 23       		.uleb128 0x23
 13882 01a7 2E       		.uleb128 0x2e
 13883 01a8 01       		.byte	0x1
 13884 01a9 3F       		.uleb128 0x3f
 13885 01aa 19       		.uleb128 0x19
 13886 01ab 03       		.uleb128 0x3
 13887 01ac 0E       		.uleb128 0xe
 13888 01ad 3A       		.uleb128 0x3a
 13889 01ae 0B       		.uleb128 0xb
 13890 01af 3B       		.uleb128 0x3b
 13891 01b0 0B       		.uleb128 0xb
 13892 01b1 49       		.uleb128 0x49
 13893 01b2 13       		.uleb128 0x13
 13894 01b3 32       		.uleb128 0x32
 13895 01b4 0B       		.uleb128 0xb
 13896 01b5 3C       		.uleb128 0x3c
 13897 01b6 19       		.uleb128 0x19
 13898 01b7 64       		.uleb128 0x64
 13899 01b8 13       		.uleb128 0x13
 13900 01b9 01       		.uleb128 0x1
 13901 01ba 13       		.uleb128 0x13
 13902 01bb 00       		.byte	0
 13903 01bc 00       		.byte	0
 13904 01bd 24       		.uleb128 0x24
 13905 01be 2E       		.uleb128 0x2e
 13906 01bf 01       		.byte	0x1
 13907 01c0 3F       		.uleb128 0x3f
 13908 01c1 19       		.uleb128 0x19
 13909 01c2 03       		.uleb128 0x3
 13910 01c3 0E       		.uleb128 0xe
 13911 01c4 3A       		.uleb128 0x3a
 13912 01c5 0B       		.uleb128 0xb
 13913 01c6 3B       		.uleb128 0x3b
 13914 01c7 0B       		.uleb128 0xb
 13915 01c8 49       		.uleb128 0x49
 13916 01c9 13       		.uleb128 0x13
 13917 01ca 32       		.uleb128 0x32
 13918 01cb 0B       		.uleb128 0xb
 13919 01cc 3C       		.uleb128 0x3c
 13920 01cd 19       		.uleb128 0x19
 13921 01ce 64       		.uleb128 0x64
 13922 01cf 13       		.uleb128 0x13
ARM GAS  /tmp/ccWQ6gKG.s 			page 246


 13923 01d0 00       		.byte	0
 13924 01d1 00       		.byte	0
 13925 01d2 25       		.uleb128 0x25
 13926 01d3 1C       		.uleb128 0x1c
 13927 01d4 00       		.byte	0
 13928 01d5 49       		.uleb128 0x49
 13929 01d6 13       		.uleb128 0x13
 13930 01d7 38       		.uleb128 0x38
 13931 01d8 0B       		.uleb128 0xb
 13932 01d9 00       		.byte	0
 13933 01da 00       		.byte	0
 13934 01db 26       		.uleb128 0x26
 13935 01dc 16       		.uleb128 0x16
 13936 01dd 00       		.byte	0
 13937 01de 03       		.uleb128 0x3
 13938 01df 0E       		.uleb128 0xe
 13939 01e0 3A       		.uleb128 0x3a
 13940 01e1 0B       		.uleb128 0xb
 13941 01e2 3B       		.uleb128 0x3b
 13942 01e3 0B       		.uleb128 0xb
 13943 01e4 49       		.uleb128 0x49
 13944 01e5 13       		.uleb128 0x13
 13945 01e6 32       		.uleb128 0x32
 13946 01e7 0B       		.uleb128 0xb
 13947 01e8 00       		.byte	0
 13948 01e9 00       		.byte	0
 13949 01ea 27       		.uleb128 0x27
 13950 01eb 2E       		.uleb128 0x2e
 13951 01ec 01       		.byte	0x1
 13952 01ed 3F       		.uleb128 0x3f
 13953 01ee 19       		.uleb128 0x19
 13954 01ef 03       		.uleb128 0x3
 13955 01f0 0E       		.uleb128 0xe
 13956 01f1 3A       		.uleb128 0x3a
 13957 01f2 0B       		.uleb128 0xb
 13958 01f3 3B       		.uleb128 0x3b
 13959 01f4 0B       		.uleb128 0xb
 13960 01f5 6E       		.uleb128 0x6e
 13961 01f6 0E       		.uleb128 0xe
 13962 01f7 49       		.uleb128 0x49
 13963 01f8 13       		.uleb128 0x13
 13964 01f9 32       		.uleb128 0x32
 13965 01fa 0B       		.uleb128 0xb
 13966 01fb 3C       		.uleb128 0x3c
 13967 01fc 19       		.uleb128 0x19
 13968 01fd 64       		.uleb128 0x64
 13969 01fe 13       		.uleb128 0x13
 13970 01ff 01       		.uleb128 0x1
 13971 0200 13       		.uleb128 0x13
 13972 0201 00       		.byte	0
 13973 0202 00       		.byte	0
 13974 0203 28       		.uleb128 0x28
 13975 0204 2E       		.uleb128 0x2e
 13976 0205 01       		.byte	0x1
 13977 0206 3F       		.uleb128 0x3f
 13978 0207 19       		.uleb128 0x19
 13979 0208 03       		.uleb128 0x3
ARM GAS  /tmp/ccWQ6gKG.s 			page 247


 13980 0209 0E       		.uleb128 0xe
 13981 020a 3A       		.uleb128 0x3a
 13982 020b 0B       		.uleb128 0xb
 13983 020c 3B       		.uleb128 0x3b
 13984 020d 0B       		.uleb128 0xb
 13985 020e 6E       		.uleb128 0x6e
 13986 020f 0E       		.uleb128 0xe
 13987 0210 32       		.uleb128 0x32
 13988 0211 0B       		.uleb128 0xb
 13989 0212 3C       		.uleb128 0x3c
 13990 0213 19       		.uleb128 0x19
 13991 0214 64       		.uleb128 0x64
 13992 0215 13       		.uleb128 0x13
 13993 0216 01       		.uleb128 0x1
 13994 0217 13       		.uleb128 0x13
 13995 0218 00       		.byte	0
 13996 0219 00       		.byte	0
 13997 021a 29       		.uleb128 0x29
 13998 021b 0D       		.uleb128 0xd
 13999 021c 00       		.byte	0
 14000 021d 03       		.uleb128 0x3
 14001 021e 08       		.uleb128 0x8
 14002 021f 3A       		.uleb128 0x3a
 14003 0220 0B       		.uleb128 0xb
 14004 0221 3B       		.uleb128 0x3b
 14005 0222 0B       		.uleb128 0xb
 14006 0223 49       		.uleb128 0x49
 14007 0224 13       		.uleb128 0x13
 14008 0225 38       		.uleb128 0x38
 14009 0226 0B       		.uleb128 0xb
 14010 0227 32       		.uleb128 0x32
 14011 0228 0B       		.uleb128 0xb
 14012 0229 00       		.byte	0
 14013 022a 00       		.byte	0
 14014 022b 2A       		.uleb128 0x2a
 14015 022c 0D       		.uleb128 0xd
 14016 022d 00       		.byte	0
 14017 022e 03       		.uleb128 0x3
 14018 022f 0E       		.uleb128 0xe
 14019 0230 3A       		.uleb128 0x3a
 14020 0231 0B       		.uleb128 0xb
 14021 0232 3B       		.uleb128 0x3b
 14022 0233 0B       		.uleb128 0xb
 14023 0234 49       		.uleb128 0x49
 14024 0235 13       		.uleb128 0x13
 14025 0236 3F       		.uleb128 0x3f
 14026 0237 19       		.uleb128 0x19
 14027 0238 32       		.uleb128 0x32
 14028 0239 0B       		.uleb128 0xb
 14029 023a 3C       		.uleb128 0x3c
 14030 023b 19       		.uleb128 0x19
 14031 023c 00       		.byte	0
 14032 023d 00       		.byte	0
 14033 023e 2B       		.uleb128 0x2b
 14034 023f 2E       		.uleb128 0x2e
 14035 0240 01       		.byte	0x1
 14036 0241 3F       		.uleb128 0x3f
ARM GAS  /tmp/ccWQ6gKG.s 			page 248


 14037 0242 19       		.uleb128 0x19
 14038 0243 03       		.uleb128 0x3
 14039 0244 0E       		.uleb128 0xe
 14040 0245 3A       		.uleb128 0x3a
 14041 0246 0B       		.uleb128 0xb
 14042 0247 3B       		.uleb128 0x3b
 14043 0248 0B       		.uleb128 0xb
 14044 0249 49       		.uleb128 0x49
 14045 024a 13       		.uleb128 0x13
 14046 024b 32       		.uleb128 0x32
 14047 024c 0B       		.uleb128 0xb
 14048 024d 3C       		.uleb128 0x3c
 14049 024e 19       		.uleb128 0x19
 14050 024f 63       		.uleb128 0x63
 14051 0250 19       		.uleb128 0x19
 14052 0251 64       		.uleb128 0x64
 14053 0252 13       		.uleb128 0x13
 14054 0253 01       		.uleb128 0x1
 14055 0254 13       		.uleb128 0x13
 14056 0255 00       		.byte	0
 14057 0256 00       		.byte	0
 14058 0257 2C       		.uleb128 0x2c
 14059 0258 2E       		.uleb128 0x2e
 14060 0259 01       		.byte	0x1
 14061 025a 3F       		.uleb128 0x3f
 14062 025b 19       		.uleb128 0x19
 14063 025c 03       		.uleb128 0x3
 14064 025d 08       		.uleb128 0x8
 14065 025e 3A       		.uleb128 0x3a
 14066 025f 0B       		.uleb128 0xb
 14067 0260 3B       		.uleb128 0x3b
 14068 0261 0B       		.uleb128 0xb
 14069 0262 6E       		.uleb128 0x6e
 14070 0263 0E       		.uleb128 0xe
 14071 0264 49       		.uleb128 0x49
 14072 0265 13       		.uleb128 0x13
 14073 0266 32       		.uleb128 0x32
 14074 0267 0B       		.uleb128 0xb
 14075 0268 3C       		.uleb128 0x3c
 14076 0269 19       		.uleb128 0x19
 14077 026a 01       		.uleb128 0x1
 14078 026b 13       		.uleb128 0x13
 14079 026c 00       		.byte	0
 14080 026d 00       		.byte	0
 14081 026e 2D       		.uleb128 0x2d
 14082 026f 2E       		.uleb128 0x2e
 14083 0270 00       		.byte	0
 14084 0271 3F       		.uleb128 0x3f
 14085 0272 19       		.uleb128 0x19
 14086 0273 03       		.uleb128 0x3
 14087 0274 08       		.uleb128 0x8
 14088 0275 3A       		.uleb128 0x3a
 14089 0276 0B       		.uleb128 0xb
 14090 0277 3B       		.uleb128 0x3b
 14091 0278 0B       		.uleb128 0xb
 14092 0279 6E       		.uleb128 0x6e
 14093 027a 0E       		.uleb128 0xe
ARM GAS  /tmp/ccWQ6gKG.s 			page 249


 14094 027b 49       		.uleb128 0x49
 14095 027c 13       		.uleb128 0x13
 14096 027d 32       		.uleb128 0x32
 14097 027e 0B       		.uleb128 0xb
 14098 027f 3C       		.uleb128 0x3c
 14099 0280 19       		.uleb128 0x19
 14100 0281 00       		.byte	0
 14101 0282 00       		.byte	0
 14102 0283 2E       		.uleb128 0x2e
 14103 0284 2F       		.uleb128 0x2f
 14104 0285 00       		.byte	0
 14105 0286 03       		.uleb128 0x3
 14106 0287 08       		.uleb128 0x8
 14107 0288 49       		.uleb128 0x49
 14108 0289 13       		.uleb128 0x13
 14109 028a 00       		.byte	0
 14110 028b 00       		.byte	0
 14111 028c 2F       		.uleb128 0x2f
 14112 028d 13       		.uleb128 0x13
 14113 028e 01       		.byte	0x1
 14114 028f 03       		.uleb128 0x3
 14115 0290 0E       		.uleb128 0xe
 14116 0291 0B       		.uleb128 0xb
 14117 0292 0B       		.uleb128 0xb
 14118 0293 3A       		.uleb128 0x3a
 14119 0294 0B       		.uleb128 0xb
 14120 0295 3B       		.uleb128 0x3b
 14121 0296 0B       		.uleb128 0xb
 14122 0297 32       		.uleb128 0x32
 14123 0298 0B       		.uleb128 0xb
 14124 0299 01       		.uleb128 0x1
 14125 029a 13       		.uleb128 0x13
 14126 029b 00       		.byte	0
 14127 029c 00       		.byte	0
 14128 029d 30       		.uleb128 0x30
 14129 029e 2E       		.uleb128 0x2e
 14130 029f 01       		.byte	0x1
 14131 02a0 3F       		.uleb128 0x3f
 14132 02a1 19       		.uleb128 0x19
 14133 02a2 03       		.uleb128 0x3
 14134 02a3 0E       		.uleb128 0xe
 14135 02a4 3A       		.uleb128 0x3a
 14136 02a5 0B       		.uleb128 0xb
 14137 02a6 3B       		.uleb128 0x3b
 14138 02a7 0B       		.uleb128 0xb
 14139 02a8 49       		.uleb128 0x49
 14140 02a9 13       		.uleb128 0x13
 14141 02aa 3C       		.uleb128 0x3c
 14142 02ab 19       		.uleb128 0x19
 14143 02ac 64       		.uleb128 0x64
 14144 02ad 13       		.uleb128 0x13
 14145 02ae 00       		.byte	0
 14146 02af 00       		.byte	0
 14147 02b0 31       		.uleb128 0x31
 14148 02b1 13       		.uleb128 0x13
 14149 02b2 00       		.byte	0
 14150 02b3 03       		.uleb128 0x3
ARM GAS  /tmp/ccWQ6gKG.s 			page 250


 14151 02b4 0E       		.uleb128 0xe
 14152 02b5 3C       		.uleb128 0x3c
 14153 02b6 19       		.uleb128 0x19
 14154 02b7 00       		.byte	0
 14155 02b8 00       		.byte	0
 14156 02b9 32       		.uleb128 0x32
 14157 02ba 02       		.uleb128 0x2
 14158 02bb 00       		.byte	0
 14159 02bc 03       		.uleb128 0x3
 14160 02bd 0E       		.uleb128 0xe
 14161 02be 3C       		.uleb128 0x3c
 14162 02bf 19       		.uleb128 0x19
 14163 02c0 00       		.byte	0
 14164 02c1 00       		.byte	0
 14165 02c2 33       		.uleb128 0x33
 14166 02c3 02       		.uleb128 0x2
 14167 02c4 01       		.byte	0x1
 14168 02c5 03       		.uleb128 0x3
 14169 02c6 0E       		.uleb128 0xe
 14170 02c7 0B       		.uleb128 0xb
 14171 02c8 0B       		.uleb128 0xb
 14172 02c9 3A       		.uleb128 0x3a
 14173 02ca 0B       		.uleb128 0xb
 14174 02cb 3B       		.uleb128 0x3b
 14175 02cc 0B       		.uleb128 0xb
 14176 02cd 32       		.uleb128 0x32
 14177 02ce 0B       		.uleb128 0xb
 14178 02cf 01       		.uleb128 0x1
 14179 02d0 13       		.uleb128 0x13
 14180 02d1 00       		.byte	0
 14181 02d2 00       		.byte	0
 14182 02d3 34       		.uleb128 0x34
 14183 02d4 2E       		.uleb128 0x2e
 14184 02d5 01       		.byte	0x1
 14185 02d6 3F       		.uleb128 0x3f
 14186 02d7 19       		.uleb128 0x19
 14187 02d8 03       		.uleb128 0x3
 14188 02d9 0E       		.uleb128 0xe
 14189 02da 3A       		.uleb128 0x3a
 14190 02db 0B       		.uleb128 0xb
 14191 02dc 3B       		.uleb128 0x3b
 14192 02dd 0B       		.uleb128 0xb
 14193 02de 6E       		.uleb128 0x6e
 14194 02df 0E       		.uleb128 0xe
 14195 02e0 49       		.uleb128 0x49
 14196 02e1 13       		.uleb128 0x13
 14197 02e2 3C       		.uleb128 0x3c
 14198 02e3 19       		.uleb128 0x19
 14199 02e4 64       		.uleb128 0x64
 14200 02e5 13       		.uleb128 0x13
 14201 02e6 01       		.uleb128 0x1
 14202 02e7 13       		.uleb128 0x13
 14203 02e8 00       		.byte	0
 14204 02e9 00       		.byte	0
 14205 02ea 35       		.uleb128 0x35
 14206 02eb 2E       		.uleb128 0x2e
 14207 02ec 01       		.byte	0x1
ARM GAS  /tmp/ccWQ6gKG.s 			page 251


 14208 02ed 3F       		.uleb128 0x3f
 14209 02ee 19       		.uleb128 0x19
 14210 02ef 03       		.uleb128 0x3
 14211 02f0 0E       		.uleb128 0xe
 14212 02f1 3A       		.uleb128 0x3a
 14213 02f2 0B       		.uleb128 0xb
 14214 02f3 3B       		.uleb128 0x3b
 14215 02f4 0B       		.uleb128 0xb
 14216 02f5 6E       		.uleb128 0x6e
 14217 02f6 0E       		.uleb128 0xe
 14218 02f7 49       		.uleb128 0x49
 14219 02f8 13       		.uleb128 0x13
 14220 02f9 32       		.uleb128 0x32
 14221 02fa 0B       		.uleb128 0xb
 14222 02fb 3C       		.uleb128 0x3c
 14223 02fc 19       		.uleb128 0x19
 14224 02fd 64       		.uleb128 0x64
 14225 02fe 13       		.uleb128 0x13
 14226 02ff 00       		.byte	0
 14227 0300 00       		.byte	0
 14228 0301 36       		.uleb128 0x36
 14229 0302 2E       		.uleb128 0x2e
 14230 0303 01       		.byte	0x1
 14231 0304 3F       		.uleb128 0x3f
 14232 0305 19       		.uleb128 0x19
 14233 0306 03       		.uleb128 0x3
 14234 0307 0E       		.uleb128 0xe
 14235 0308 3A       		.uleb128 0x3a
 14236 0309 0B       		.uleb128 0xb
 14237 030a 3B       		.uleb128 0x3b
 14238 030b 05       		.uleb128 0x5
 14239 030c 6E       		.uleb128 0x6e
 14240 030d 0E       		.uleb128 0xe
 14241 030e 49       		.uleb128 0x49
 14242 030f 13       		.uleb128 0x13
 14243 0310 32       		.uleb128 0x32
 14244 0311 0B       		.uleb128 0xb
 14245 0312 3C       		.uleb128 0x3c
 14246 0313 19       		.uleb128 0x19
 14247 0314 64       		.uleb128 0x64
 14248 0315 13       		.uleb128 0x13
 14249 0316 01       		.uleb128 0x1
 14250 0317 13       		.uleb128 0x13
 14251 0318 00       		.byte	0
 14252 0319 00       		.byte	0
 14253 031a 37       		.uleb128 0x37
 14254 031b 2E       		.uleb128 0x2e
 14255 031c 01       		.byte	0x1
 14256 031d 3F       		.uleb128 0x3f
 14257 031e 19       		.uleb128 0x19
 14258 031f 03       		.uleb128 0x3
 14259 0320 0E       		.uleb128 0xe
 14260 0321 3A       		.uleb128 0x3a
 14261 0322 0B       		.uleb128 0xb
 14262 0323 3B       		.uleb128 0x3b
 14263 0324 05       		.uleb128 0x5
 14264 0325 6E       		.uleb128 0x6e
ARM GAS  /tmp/ccWQ6gKG.s 			page 252


 14265 0326 0E       		.uleb128 0xe
 14266 0327 32       		.uleb128 0x32
 14267 0328 0B       		.uleb128 0xb
 14268 0329 3C       		.uleb128 0x3c
 14269 032a 19       		.uleb128 0x19
 14270 032b 64       		.uleb128 0x64
 14271 032c 13       		.uleb128 0x13
 14272 032d 01       		.uleb128 0x1
 14273 032e 13       		.uleb128 0x13
 14274 032f 00       		.byte	0
 14275 0330 00       		.byte	0
 14276 0331 38       		.uleb128 0x38
 14277 0332 2E       		.uleb128 0x2e
 14278 0333 01       		.byte	0x1
 14279 0334 3F       		.uleb128 0x3f
 14280 0335 19       		.uleb128 0x19
 14281 0336 03       		.uleb128 0x3
 14282 0337 08       		.uleb128 0x8
 14283 0338 3A       		.uleb128 0x3a
 14284 0339 0B       		.uleb128 0xb
 14285 033a 3B       		.uleb128 0x3b
 14286 033b 05       		.uleb128 0x5
 14287 033c 6E       		.uleb128 0x6e
 14288 033d 0E       		.uleb128 0xe
 14289 033e 49       		.uleb128 0x49
 14290 033f 13       		.uleb128 0x13
 14291 0340 32       		.uleb128 0x32
 14292 0341 0B       		.uleb128 0xb
 14293 0342 3C       		.uleb128 0x3c
 14294 0343 19       		.uleb128 0x19
 14295 0344 64       		.uleb128 0x64
 14296 0345 13       		.uleb128 0x13
 14297 0346 01       		.uleb128 0x1
 14298 0347 13       		.uleb128 0x13
 14299 0348 00       		.byte	0
 14300 0349 00       		.byte	0
 14301 034a 39       		.uleb128 0x39
 14302 034b 2E       		.uleb128 0x2e
 14303 034c 01       		.byte	0x1
 14304 034d 3F       		.uleb128 0x3f
 14305 034e 19       		.uleb128 0x19
 14306 034f 03       		.uleb128 0x3
 14307 0350 0E       		.uleb128 0xe
 14308 0351 3A       		.uleb128 0x3a
 14309 0352 0B       		.uleb128 0xb
 14310 0353 3B       		.uleb128 0x3b
 14311 0354 05       		.uleb128 0x5
 14312 0355 49       		.uleb128 0x49
 14313 0356 13       		.uleb128 0x13
 14314 0357 32       		.uleb128 0x32
 14315 0358 0B       		.uleb128 0xb
 14316 0359 3C       		.uleb128 0x3c
 14317 035a 19       		.uleb128 0x19
 14318 035b 64       		.uleb128 0x64
 14319 035c 13       		.uleb128 0x13
 14320 035d 01       		.uleb128 0x1
 14321 035e 13       		.uleb128 0x13
ARM GAS  /tmp/ccWQ6gKG.s 			page 253


 14322 035f 00       		.byte	0
 14323 0360 00       		.byte	0
 14324 0361 3A       		.uleb128 0x3a
 14325 0362 2F       		.uleb128 0x2f
 14326 0363 00       		.byte	0
 14327 0364 03       		.uleb128 0x3
 14328 0365 0E       		.uleb128 0xe
 14329 0366 49       		.uleb128 0x49
 14330 0367 13       		.uleb128 0x13
 14331 0368 00       		.byte	0
 14332 0369 00       		.byte	0
 14333 036a 3B       		.uleb128 0x3b
 14334 036b 02       		.uleb128 0x2
 14335 036c 01       		.byte	0x1
 14336 036d 03       		.uleb128 0x3
 14337 036e 0E       		.uleb128 0xe
 14338 036f 3C       		.uleb128 0x3c
 14339 0370 19       		.uleb128 0x19
 14340 0371 01       		.uleb128 0x1
 14341 0372 13       		.uleb128 0x13
 14342 0373 00       		.byte	0
 14343 0374 00       		.byte	0
 14344 0375 3C       		.uleb128 0x3c
 14345 0376 2E       		.uleb128 0x2e
 14346 0377 01       		.byte	0x1
 14347 0378 3F       		.uleb128 0x3f
 14348 0379 19       		.uleb128 0x19
 14349 037a 03       		.uleb128 0x3
 14350 037b 0E       		.uleb128 0xe
 14351 037c 3A       		.uleb128 0x3a
 14352 037d 0B       		.uleb128 0xb
 14353 037e 3B       		.uleb128 0x3b
 14354 037f 0B       		.uleb128 0xb
 14355 0380 6E       		.uleb128 0x6e
 14356 0381 0E       		.uleb128 0xe
 14357 0382 49       		.uleb128 0x49
 14358 0383 13       		.uleb128 0x13
 14359 0384 4C       		.uleb128 0x4c
 14360 0385 0B       		.uleb128 0xb
 14361 0386 4D       		.uleb128 0x4d
 14362 0387 18       		.uleb128 0x18
 14363 0388 1D       		.uleb128 0x1d
 14364 0389 13       		.uleb128 0x13
 14365 038a 32       		.uleb128 0x32
 14366 038b 0B       		.uleb128 0xb
 14367 038c 3C       		.uleb128 0x3c
 14368 038d 19       		.uleb128 0x19
 14369 038e 64       		.uleb128 0x64
 14370 038f 13       		.uleb128 0x13
 14371 0390 01       		.uleb128 0x1
 14372 0391 13       		.uleb128 0x13
 14373 0392 00       		.byte	0
 14374 0393 00       		.byte	0
 14375 0394 3D       		.uleb128 0x3d
 14376 0395 2E       		.uleb128 0x2e
 14377 0396 01       		.byte	0x1
 14378 0397 3F       		.uleb128 0x3f
ARM GAS  /tmp/ccWQ6gKG.s 			page 254


 14379 0398 19       		.uleb128 0x19
 14380 0399 03       		.uleb128 0x3
 14381 039a 0E       		.uleb128 0xe
 14382 039b 3A       		.uleb128 0x3a
 14383 039c 0B       		.uleb128 0xb
 14384 039d 3B       		.uleb128 0x3b
 14385 039e 0B       		.uleb128 0xb
 14386 039f 6E       		.uleb128 0x6e
 14387 03a0 0E       		.uleb128 0xe
 14388 03a1 49       		.uleb128 0x49
 14389 03a2 13       		.uleb128 0x13
 14390 03a3 4C       		.uleb128 0x4c
 14391 03a4 0B       		.uleb128 0xb
 14392 03a5 4D       		.uleb128 0x4d
 14393 03a6 18       		.uleb128 0x18
 14394 03a7 1D       		.uleb128 0x1d
 14395 03a8 13       		.uleb128 0x13
 14396 03a9 32       		.uleb128 0x32
 14397 03aa 0B       		.uleb128 0xb
 14398 03ab 3C       		.uleb128 0x3c
 14399 03ac 19       		.uleb128 0x19
 14400 03ad 64       		.uleb128 0x64
 14401 03ae 13       		.uleb128 0x13
 14402 03af 00       		.byte	0
 14403 03b0 00       		.byte	0
 14404 03b1 3E       		.uleb128 0x3e
 14405 03b2 2E       		.uleb128 0x2e
 14406 03b3 01       		.byte	0x1
 14407 03b4 3F       		.uleb128 0x3f
 14408 03b5 19       		.uleb128 0x19
 14409 03b6 03       		.uleb128 0x3
 14410 03b7 0E       		.uleb128 0xe
 14411 03b8 3A       		.uleb128 0x3a
 14412 03b9 0B       		.uleb128 0xb
 14413 03ba 3B       		.uleb128 0x3b
 14414 03bb 0B       		.uleb128 0xb
 14415 03bc 6E       		.uleb128 0x6e
 14416 03bd 0E       		.uleb128 0xe
 14417 03be 3C       		.uleb128 0x3c
 14418 03bf 19       		.uleb128 0x19
 14419 03c0 64       		.uleb128 0x64
 14420 03c1 13       		.uleb128 0x13
 14421 03c2 01       		.uleb128 0x1
 14422 03c3 13       		.uleb128 0x13
 14423 03c4 00       		.byte	0
 14424 03c5 00       		.byte	0
 14425 03c6 3F       		.uleb128 0x3f
 14426 03c7 2E       		.uleb128 0x2e
 14427 03c8 01       		.byte	0x1
 14428 03c9 3F       		.uleb128 0x3f
 14429 03ca 19       		.uleb128 0x19
 14430 03cb 03       		.uleb128 0x3
 14431 03cc 0E       		.uleb128 0xe
 14432 03cd 3A       		.uleb128 0x3a
 14433 03ce 0B       		.uleb128 0xb
 14434 03cf 3B       		.uleb128 0x3b
 14435 03d0 0B       		.uleb128 0xb
ARM GAS  /tmp/ccWQ6gKG.s 			page 255


 14436 03d1 6E       		.uleb128 0x6e
 14437 03d2 0E       		.uleb128 0xe
 14438 03d3 49       		.uleb128 0x49
 14439 03d4 13       		.uleb128 0x13
 14440 03d5 32       		.uleb128 0x32
 14441 03d6 0B       		.uleb128 0xb
 14442 03d7 3C       		.uleb128 0x3c
 14443 03d8 19       		.uleb128 0x19
 14444 03d9 00       		.byte	0
 14445 03da 00       		.byte	0
 14446 03db 40       		.uleb128 0x40
 14447 03dc 2E       		.uleb128 0x2e
 14448 03dd 01       		.byte	0x1
 14449 03de 3F       		.uleb128 0x3f
 14450 03df 19       		.uleb128 0x19
 14451 03e0 03       		.uleb128 0x3
 14452 03e1 0E       		.uleb128 0xe
 14453 03e2 3A       		.uleb128 0x3a
 14454 03e3 0B       		.uleb128 0xb
 14455 03e4 3B       		.uleb128 0x3b
 14456 03e5 0B       		.uleb128 0xb
 14457 03e6 6E       		.uleb128 0x6e
 14458 03e7 0E       		.uleb128 0xe
 14459 03e8 32       		.uleb128 0x32
 14460 03e9 0B       		.uleb128 0xb
 14461 03ea 3C       		.uleb128 0x3c
 14462 03eb 19       		.uleb128 0x19
 14463 03ec 01       		.uleb128 0x1
 14464 03ed 13       		.uleb128 0x13
 14465 03ee 00       		.byte	0
 14466 03ef 00       		.byte	0
 14467 03f0 41       		.uleb128 0x41
 14468 03f1 2E       		.uleb128 0x2e
 14469 03f2 01       		.byte	0x1
 14470 03f3 3F       		.uleb128 0x3f
 14471 03f4 19       		.uleb128 0x19
 14472 03f5 03       		.uleb128 0x3
 14473 03f6 0E       		.uleb128 0xe
 14474 03f7 3A       		.uleb128 0x3a
 14475 03f8 0B       		.uleb128 0xb
 14476 03f9 3B       		.uleb128 0x3b
 14477 03fa 0B       		.uleb128 0xb
 14478 03fb 6E       		.uleb128 0x6e
 14479 03fc 0E       		.uleb128 0xe
 14480 03fd 49       		.uleb128 0x49
 14481 03fe 13       		.uleb128 0x13
 14482 03ff 32       		.uleb128 0x32
 14483 0400 0B       		.uleb128 0xb
 14484 0401 3C       		.uleb128 0x3c
 14485 0402 19       		.uleb128 0x19
 14486 0403 01       		.uleb128 0x1
 14487 0404 13       		.uleb128 0x13
 14488 0405 00       		.byte	0
 14489 0406 00       		.byte	0
 14490 0407 42       		.uleb128 0x42
 14491 0408 2E       		.uleb128 0x2e
 14492 0409 00       		.byte	0
ARM GAS  /tmp/ccWQ6gKG.s 			page 256


 14493 040a 3F       		.uleb128 0x3f
 14494 040b 19       		.uleb128 0x19
 14495 040c 03       		.uleb128 0x3
 14496 040d 0E       		.uleb128 0xe
 14497 040e 3A       		.uleb128 0x3a
 14498 040f 0B       		.uleb128 0xb
 14499 0410 3B       		.uleb128 0x3b
 14500 0411 0B       		.uleb128 0xb
 14501 0412 6E       		.uleb128 0x6e
 14502 0413 0E       		.uleb128 0xe
 14503 0414 49       		.uleb128 0x49
 14504 0415 13       		.uleb128 0x13
 14505 0416 32       		.uleb128 0x32
 14506 0417 0B       		.uleb128 0xb
 14507 0418 3C       		.uleb128 0x3c
 14508 0419 19       		.uleb128 0x19
 14509 041a 00       		.byte	0
 14510 041b 00       		.byte	0
 14511 041c 43       		.uleb128 0x43
 14512 041d 2E       		.uleb128 0x2e
 14513 041e 00       		.byte	0
 14514 041f 3F       		.uleb128 0x3f
 14515 0420 19       		.uleb128 0x19
 14516 0421 03       		.uleb128 0x3
 14517 0422 0E       		.uleb128 0xe
 14518 0423 3A       		.uleb128 0x3a
 14519 0424 0B       		.uleb128 0xb
 14520 0425 3B       		.uleb128 0x3b
 14521 0426 0B       		.uleb128 0xb
 14522 0427 6E       		.uleb128 0x6e
 14523 0428 0E       		.uleb128 0xe
 14524 0429 32       		.uleb128 0x32
 14525 042a 0B       		.uleb128 0xb
 14526 042b 3C       		.uleb128 0x3c
 14527 042c 19       		.uleb128 0x19
 14528 042d 00       		.byte	0
 14529 042e 00       		.byte	0
 14530 042f 44       		.uleb128 0x44
 14531 0430 04       		.uleb128 0x4
 14532 0431 01       		.byte	0x1
 14533 0432 03       		.uleb128 0x3
 14534 0433 0E       		.uleb128 0xe
 14535 0434 0B       		.uleb128 0xb
 14536 0435 0B       		.uleb128 0xb
 14537 0436 3A       		.uleb128 0x3a
 14538 0437 0B       		.uleb128 0xb
 14539 0438 3B       		.uleb128 0x3b
 14540 0439 0B       		.uleb128 0xb
 14541 043a 32       		.uleb128 0x32
 14542 043b 0B       		.uleb128 0xb
 14543 043c 01       		.uleb128 0x1
 14544 043d 13       		.uleb128 0x13
 14545 043e 00       		.byte	0
 14546 043f 00       		.byte	0
 14547 0440 45       		.uleb128 0x45
 14548 0441 30       		.uleb128 0x30
 14549 0442 00       		.byte	0
ARM GAS  /tmp/ccWQ6gKG.s 			page 257


 14550 0443 03       		.uleb128 0x3
 14551 0444 08       		.uleb128 0x8
 14552 0445 49       		.uleb128 0x49
 14553 0446 13       		.uleb128 0x13
 14554 0447 1C       		.uleb128 0x1c
 14555 0448 0B       		.uleb128 0xb
 14556 0449 00       		.byte	0
 14557 044a 00       		.byte	0
 14558 044b 46       		.uleb128 0x46
 14559 044c 02       		.uleb128 0x2
 14560 044d 01       		.byte	0x1
 14561 044e 03       		.uleb128 0x3
 14562 044f 0E       		.uleb128 0xe
 14563 0450 0B       		.uleb128 0xb
 14564 0451 0B       		.uleb128 0xb
 14565 0452 3A       		.uleb128 0x3a
 14566 0453 0B       		.uleb128 0xb
 14567 0454 3B       		.uleb128 0x3b
 14568 0455 0B       		.uleb128 0xb
 14569 0456 1D       		.uleb128 0x1d
 14570 0457 13       		.uleb128 0x13
 14571 0458 01       		.uleb128 0x1
 14572 0459 13       		.uleb128 0x13
 14573 045a 00       		.byte	0
 14574 045b 00       		.byte	0
 14575 045c 47       		.uleb128 0x47
 14576 045d 0D       		.uleb128 0xd
 14577 045e 00       		.byte	0
 14578 045f 03       		.uleb128 0x3
 14579 0460 0E       		.uleb128 0xe
 14580 0461 49       		.uleb128 0x49
 14581 0462 13       		.uleb128 0x13
 14582 0463 38       		.uleb128 0x38
 14583 0464 0B       		.uleb128 0xb
 14584 0465 34       		.uleb128 0x34
 14585 0466 19       		.uleb128 0x19
 14586 0467 32       		.uleb128 0x32
 14587 0468 0B       		.uleb128 0xb
 14588 0469 00       		.byte	0
 14589 046a 00       		.byte	0
 14590 046b 48       		.uleb128 0x48
 14591 046c 2E       		.uleb128 0x2e
 14592 046d 01       		.byte	0x1
 14593 046e 3F       		.uleb128 0x3f
 14594 046f 19       		.uleb128 0x19
 14595 0470 03       		.uleb128 0x3
 14596 0471 0E       		.uleb128 0xe
 14597 0472 49       		.uleb128 0x49
 14598 0473 13       		.uleb128 0x13
 14599 0474 34       		.uleb128 0x34
 14600 0475 19       		.uleb128 0x19
 14601 0476 32       		.uleb128 0x32
 14602 0477 0B       		.uleb128 0xb
 14603 0478 3C       		.uleb128 0x3c
 14604 0479 19       		.uleb128 0x19
 14605 047a 64       		.uleb128 0x64
 14606 047b 13       		.uleb128 0x13
ARM GAS  /tmp/ccWQ6gKG.s 			page 258


 14607 047c 01       		.uleb128 0x1
 14608 047d 13       		.uleb128 0x13
 14609 047e 00       		.byte	0
 14610 047f 00       		.byte	0
 14611 0480 49       		.uleb128 0x49
 14612 0481 2E       		.uleb128 0x2e
 14613 0482 01       		.byte	0x1
 14614 0483 3F       		.uleb128 0x3f
 14615 0484 19       		.uleb128 0x19
 14616 0485 03       		.uleb128 0x3
 14617 0486 0E       		.uleb128 0xe
 14618 0487 3A       		.uleb128 0x3a
 14619 0488 0B       		.uleb128 0xb
 14620 0489 3B       		.uleb128 0x3b
 14621 048a 0B       		.uleb128 0xb
 14622 048b 49       		.uleb128 0x49
 14623 048c 13       		.uleb128 0x13
 14624 048d 4C       		.uleb128 0x4c
 14625 048e 0B       		.uleb128 0xb
 14626 048f 1D       		.uleb128 0x1d
 14627 0490 13       		.uleb128 0x13
 14628 0491 32       		.uleb128 0x32
 14629 0492 0B       		.uleb128 0xb
 14630 0493 3C       		.uleb128 0x3c
 14631 0494 19       		.uleb128 0x19
 14632 0495 64       		.uleb128 0x64
 14633 0496 13       		.uleb128 0x13
 14634 0497 01       		.uleb128 0x1
 14635 0498 13       		.uleb128 0x13
 14636 0499 00       		.byte	0
 14637 049a 00       		.byte	0
 14638 049b 4A       		.uleb128 0x4a
 14639 049c 1C       		.uleb128 0x1c
 14640 049d 00       		.byte	0
 14641 049e 49       		.uleb128 0x49
 14642 049f 13       		.uleb128 0x13
 14643 04a0 38       		.uleb128 0x38
 14644 04a1 0B       		.uleb128 0xb
 14645 04a2 32       		.uleb128 0x32
 14646 04a3 0B       		.uleb128 0xb
 14647 04a4 00       		.byte	0
 14648 04a5 00       		.byte	0
 14649 04a6 4B       		.uleb128 0x4b
 14650 04a7 0D       		.uleb128 0xd
 14651 04a8 00       		.byte	0
 14652 04a9 03       		.uleb128 0x3
 14653 04aa 0E       		.uleb128 0xe
 14654 04ab 3A       		.uleb128 0x3a
 14655 04ac 0B       		.uleb128 0xb
 14656 04ad 3B       		.uleb128 0x3b
 14657 04ae 0B       		.uleb128 0xb
 14658 04af 49       		.uleb128 0x49
 14659 04b0 13       		.uleb128 0x13
 14660 04b1 38       		.uleb128 0x38
 14661 04b2 0B       		.uleb128 0xb
 14662 04b3 32       		.uleb128 0x32
 14663 04b4 0B       		.uleb128 0xb
ARM GAS  /tmp/ccWQ6gKG.s 			page 259


 14664 04b5 00       		.byte	0
 14665 04b6 00       		.byte	0
 14666 04b7 4C       		.uleb128 0x4c
 14667 04b8 2E       		.uleb128 0x2e
 14668 04b9 01       		.byte	0x1
 14669 04ba 3F       		.uleb128 0x3f
 14670 04bb 19       		.uleb128 0x19
 14671 04bc 03       		.uleb128 0x3
 14672 04bd 0E       		.uleb128 0xe
 14673 04be 49       		.uleb128 0x49
 14674 04bf 13       		.uleb128 0x13
 14675 04c0 34       		.uleb128 0x34
 14676 04c1 19       		.uleb128 0x19
 14677 04c2 32       		.uleb128 0x32
 14678 04c3 0B       		.uleb128 0xb
 14679 04c4 3C       		.uleb128 0x3c
 14680 04c5 19       		.uleb128 0x19
 14681 04c6 64       		.uleb128 0x64
 14682 04c7 13       		.uleb128 0x13
 14683 04c8 00       		.byte	0
 14684 04c9 00       		.byte	0
 14685 04ca 4D       		.uleb128 0x4d
 14686 04cb 2E       		.uleb128 0x2e
 14687 04cc 01       		.byte	0x1
 14688 04cd 3F       		.uleb128 0x3f
 14689 04ce 19       		.uleb128 0x19
 14690 04cf 03       		.uleb128 0x3
 14691 04d0 0E       		.uleb128 0xe
 14692 04d1 49       		.uleb128 0x49
 14693 04d2 13       		.uleb128 0x13
 14694 04d3 34       		.uleb128 0x34
 14695 04d4 19       		.uleb128 0x19
 14696 04d5 3C       		.uleb128 0x3c
 14697 04d6 19       		.uleb128 0x19
 14698 04d7 64       		.uleb128 0x64
 14699 04d8 13       		.uleb128 0x13
 14700 04d9 00       		.byte	0
 14701 04da 00       		.byte	0
 14702 04db 4E       		.uleb128 0x4e
 14703 04dc 30       		.uleb128 0x30
 14704 04dd 00       		.byte	0
 14705 04de 03       		.uleb128 0x3
 14706 04df 0E       		.uleb128 0xe
 14707 04e0 49       		.uleb128 0x49
 14708 04e1 13       		.uleb128 0x13
 14709 04e2 1C       		.uleb128 0x1c
 14710 04e3 0B       		.uleb128 0xb
 14711 04e4 00       		.byte	0
 14712 04e5 00       		.byte	0
 14713 04e6 4F       		.uleb128 0x4f
 14714 04e7 2E       		.uleb128 0x2e
 14715 04e8 01       		.byte	0x1
 14716 04e9 3F       		.uleb128 0x3f
 14717 04ea 19       		.uleb128 0x19
 14718 04eb 03       		.uleb128 0x3
 14719 04ec 0E       		.uleb128 0xe
 14720 04ed 3A       		.uleb128 0x3a
ARM GAS  /tmp/ccWQ6gKG.s 			page 260


 14721 04ee 0B       		.uleb128 0xb
 14722 04ef 3B       		.uleb128 0x3b
 14723 04f0 0B       		.uleb128 0xb
 14724 04f1 3C       		.uleb128 0x3c
 14725 04f2 19       		.uleb128 0x19
 14726 04f3 01       		.uleb128 0x1
 14727 04f4 13       		.uleb128 0x13
 14728 04f5 00       		.byte	0
 14729 04f6 00       		.byte	0
 14730 04f7 50       		.uleb128 0x50
 14731 04f8 2E       		.uleb128 0x2e
 14732 04f9 01       		.byte	0x1
 14733 04fa 3F       		.uleb128 0x3f
 14734 04fb 19       		.uleb128 0x19
 14735 04fc 03       		.uleb128 0x3
 14736 04fd 0E       		.uleb128 0xe
 14737 04fe 3A       		.uleb128 0x3a
 14738 04ff 0B       		.uleb128 0xb
 14739 0500 3B       		.uleb128 0x3b
 14740 0501 0B       		.uleb128 0xb
 14741 0502 6E       		.uleb128 0x6e
 14742 0503 0E       		.uleb128 0xe
 14743 0504 49       		.uleb128 0x49
 14744 0505 13       		.uleb128 0x13
 14745 0506 3C       		.uleb128 0x3c
 14746 0507 19       		.uleb128 0x19
 14747 0508 01       		.uleb128 0x1
 14748 0509 13       		.uleb128 0x13
 14749 050a 00       		.byte	0
 14750 050b 00       		.byte	0
 14751 050c 51       		.uleb128 0x51
 14752 050d 2E       		.uleb128 0x2e
 14753 050e 01       		.byte	0x1
 14754 050f 3F       		.uleb128 0x3f
 14755 0510 19       		.uleb128 0x19
 14756 0511 03       		.uleb128 0x3
 14757 0512 0E       		.uleb128 0xe
 14758 0513 3A       		.uleb128 0x3a
 14759 0514 0B       		.uleb128 0xb
 14760 0515 3B       		.uleb128 0x3b
 14761 0516 05       		.uleb128 0x5
 14762 0517 6E       		.uleb128 0x6e
 14763 0518 0E       		.uleb128 0xe
 14764 0519 49       		.uleb128 0x49
 14765 051a 13       		.uleb128 0x13
 14766 051b 3C       		.uleb128 0x3c
 14767 051c 19       		.uleb128 0x19
 14768 051d 00       		.byte	0
 14769 051e 00       		.byte	0
 14770 051f 52       		.uleb128 0x52
 14771 0520 10       		.uleb128 0x10
 14772 0521 00       		.byte	0
 14773 0522 0B       		.uleb128 0xb
 14774 0523 0B       		.uleb128 0xb
 14775 0524 49       		.uleb128 0x49
 14776 0525 13       		.uleb128 0x13
 14777 0526 00       		.byte	0
ARM GAS  /tmp/ccWQ6gKG.s 			page 261


 14778 0527 00       		.byte	0
 14779 0528 53       		.uleb128 0x53
 14780 0529 26       		.uleb128 0x26
 14781 052a 00       		.byte	0
 14782 052b 00       		.byte	0
 14783 052c 00       		.byte	0
 14784 052d 54       		.uleb128 0x54
 14785 052e 02       		.uleb128 0x2
 14786 052f 01       		.byte	0x1
 14787 0530 03       		.uleb128 0x3
 14788 0531 08       		.uleb128 0x8
 14789 0532 0B       		.uleb128 0xb
 14790 0533 0B       		.uleb128 0xb
 14791 0534 3A       		.uleb128 0x3a
 14792 0535 0B       		.uleb128 0xb
 14793 0536 3B       		.uleb128 0x3b
 14794 0537 0B       		.uleb128 0xb
 14795 0538 01       		.uleb128 0x1
 14796 0539 13       		.uleb128 0x13
 14797 053a 00       		.byte	0
 14798 053b 00       		.byte	0
 14799 053c 55       		.uleb128 0x55
 14800 053d 2E       		.uleb128 0x2e
 14801 053e 01       		.byte	0x1
 14802 053f 3F       		.uleb128 0x3f
 14803 0540 19       		.uleb128 0x19
 14804 0541 03       		.uleb128 0x3
 14805 0542 08       		.uleb128 0x8
 14806 0543 3A       		.uleb128 0x3a
 14807 0544 0B       		.uleb128 0xb
 14808 0545 3B       		.uleb128 0x3b
 14809 0546 0B       		.uleb128 0xb
 14810 0547 49       		.uleb128 0x49
 14811 0548 13       		.uleb128 0x13
 14812 0549 32       		.uleb128 0x32
 14813 054a 0B       		.uleb128 0xb
 14814 054b 3C       		.uleb128 0x3c
 14815 054c 19       		.uleb128 0x19
 14816 054d 64       		.uleb128 0x64
 14817 054e 13       		.uleb128 0x13
 14818 054f 01       		.uleb128 0x1
 14819 0550 13       		.uleb128 0x13
 14820 0551 00       		.byte	0
 14821 0552 00       		.byte	0
 14822 0553 56       		.uleb128 0x56
 14823 0554 2E       		.uleb128 0x2e
 14824 0555 01       		.byte	0x1
 14825 0556 3F       		.uleb128 0x3f
 14826 0557 19       		.uleb128 0x19
 14827 0558 03       		.uleb128 0x3
 14828 0559 08       		.uleb128 0x8
 14829 055a 3A       		.uleb128 0x3a
 14830 055b 0B       		.uleb128 0xb
 14831 055c 3B       		.uleb128 0x3b
 14832 055d 0B       		.uleb128 0xb
 14833 055e 6E       		.uleb128 0x6e
 14834 055f 0E       		.uleb128 0xe
ARM GAS  /tmp/ccWQ6gKG.s 			page 262


 14835 0560 32       		.uleb128 0x32
 14836 0561 0B       		.uleb128 0xb
 14837 0562 3C       		.uleb128 0x3c
 14838 0563 19       		.uleb128 0x19
 14839 0564 64       		.uleb128 0x64
 14840 0565 13       		.uleb128 0x13
 14841 0566 01       		.uleb128 0x1
 14842 0567 13       		.uleb128 0x13
 14843 0568 00       		.byte	0
 14844 0569 00       		.byte	0
 14845 056a 57       		.uleb128 0x57
 14846 056b 18       		.uleb128 0x18
 14847 056c 00       		.byte	0
 14848 056d 00       		.byte	0
 14849 056e 00       		.byte	0
 14850 056f 58       		.uleb128 0x58
 14851 0570 0F       		.uleb128 0xf
 14852 0571 00       		.byte	0
 14853 0572 0B       		.uleb128 0xb
 14854 0573 0B       		.uleb128 0xb
 14855 0574 03       		.uleb128 0x3
 14856 0575 0E       		.uleb128 0xe
 14857 0576 49       		.uleb128 0x49
 14858 0577 13       		.uleb128 0x13
 14859 0578 00       		.byte	0
 14860 0579 00       		.byte	0
 14861 057a 59       		.uleb128 0x59
 14862 057b 2E       		.uleb128 0x2e
 14863 057c 01       		.byte	0x1
 14864 057d 47       		.uleb128 0x47
 14865 057e 13       		.uleb128 0x13
 14866 057f 20       		.uleb128 0x20
 14867 0580 0B       		.uleb128 0xb
 14868 0581 01       		.uleb128 0x1
 14869 0582 13       		.uleb128 0x13
 14870 0583 00       		.byte	0
 14871 0584 00       		.byte	0
 14872 0585 5A       		.uleb128 0x5a
 14873 0586 0B       		.uleb128 0xb
 14874 0587 01       		.byte	0x1
 14875 0588 00       		.byte	0
 14876 0589 00       		.byte	0
 14877 058a 5B       		.uleb128 0x5b
 14878 058b 34       		.uleb128 0x34
 14879 058c 00       		.byte	0
 14880 058d 03       		.uleb128 0x3
 14881 058e 08       		.uleb128 0x8
 14882 058f 3A       		.uleb128 0x3a
 14883 0590 0B       		.uleb128 0xb
 14884 0591 3B       		.uleb128 0x3b
 14885 0592 0B       		.uleb128 0xb
 14886 0593 49       		.uleb128 0x49
 14887 0594 13       		.uleb128 0x13
 14888 0595 00       		.byte	0
 14889 0596 00       		.byte	0
 14890 0597 5C       		.uleb128 0x5c
 14891 0598 2E       		.uleb128 0x2e
ARM GAS  /tmp/ccWQ6gKG.s 			page 263


 14892 0599 01       		.byte	0x1
 14893 059a 47       		.uleb128 0x47
 14894 059b 13       		.uleb128 0x13
 14895 059c 3B       		.uleb128 0x3b
 14896 059d 0B       		.uleb128 0xb
 14897 059e 11       		.uleb128 0x11
 14898 059f 01       		.uleb128 0x1
 14899 05a0 12       		.uleb128 0x12
 14900 05a1 06       		.uleb128 0x6
 14901 05a2 40       		.uleb128 0x40
 14902 05a3 18       		.uleb128 0x18
 14903 05a4 64       		.uleb128 0x64
 14904 05a5 13       		.uleb128 0x13
 14905 05a6 9742     		.uleb128 0x2117
 14906 05a8 19       		.uleb128 0x19
 14907 05a9 01       		.uleb128 0x1
 14908 05aa 13       		.uleb128 0x13
 14909 05ab 00       		.byte	0
 14910 05ac 00       		.byte	0
 14911 05ad 5D       		.uleb128 0x5d
 14912 05ae 05       		.uleb128 0x5
 14913 05af 00       		.byte	0
 14914 05b0 03       		.uleb128 0x3
 14915 05b1 0E       		.uleb128 0xe
 14916 05b2 49       		.uleb128 0x49
 14917 05b3 13       		.uleb128 0x13
 14918 05b4 34       		.uleb128 0x34
 14919 05b5 19       		.uleb128 0x19
 14920 05b6 02       		.uleb128 0x2
 14921 05b7 18       		.uleb128 0x18
 14922 05b8 00       		.byte	0
 14923 05b9 00       		.byte	0
 14924 05ba 5E       		.uleb128 0x5e
 14925 05bb 05       		.uleb128 0x5
 14926 05bc 00       		.byte	0
 14927 05bd 03       		.uleb128 0x3
 14928 05be 08       		.uleb128 0x8
 14929 05bf 3A       		.uleb128 0x3a
 14930 05c0 0B       		.uleb128 0xb
 14931 05c1 3B       		.uleb128 0x3b
 14932 05c2 0B       		.uleb128 0xb
 14933 05c3 49       		.uleb128 0x49
 14934 05c4 13       		.uleb128 0x13
 14935 05c5 02       		.uleb128 0x2
 14936 05c6 18       		.uleb128 0x18
 14937 05c7 00       		.byte	0
 14938 05c8 00       		.byte	0
 14939 05c9 5F       		.uleb128 0x5f
 14940 05ca 2E       		.uleb128 0x2e
 14941 05cb 01       		.byte	0x1
 14942 05cc 47       		.uleb128 0x47
 14943 05cd 13       		.uleb128 0x13
 14944 05ce 3B       		.uleb128 0x3b
 14945 05cf 0B       		.uleb128 0xb
 14946 05d0 11       		.uleb128 0x11
 14947 05d1 01       		.uleb128 0x1
 14948 05d2 12       		.uleb128 0x12
ARM GAS  /tmp/ccWQ6gKG.s 			page 264


 14949 05d3 06       		.uleb128 0x6
 14950 05d4 40       		.uleb128 0x40
 14951 05d5 18       		.uleb128 0x18
 14952 05d6 9642     		.uleb128 0x2116
 14953 05d8 19       		.uleb128 0x19
 14954 05d9 01       		.uleb128 0x1
 14955 05da 13       		.uleb128 0x13
 14956 05db 00       		.byte	0
 14957 05dc 00       		.byte	0
 14958 05dd 60       		.uleb128 0x60
 14959 05de 05       		.uleb128 0x5
 14960 05df 00       		.byte	0
 14961 05e0 03       		.uleb128 0x3
 14962 05e1 0E       		.uleb128 0xe
 14963 05e2 3A       		.uleb128 0x3a
 14964 05e3 0B       		.uleb128 0xb
 14965 05e4 3B       		.uleb128 0x3b
 14966 05e5 0B       		.uleb128 0xb
 14967 05e6 49       		.uleb128 0x49
 14968 05e7 13       		.uleb128 0x13
 14969 05e8 02       		.uleb128 0x2
 14970 05e9 18       		.uleb128 0x18
 14971 05ea 00       		.byte	0
 14972 05eb 00       		.byte	0
 14973 05ec 61       		.uleb128 0x61
 14974 05ed 2E       		.uleb128 0x2e
 14975 05ee 01       		.byte	0x1
 14976 05ef 47       		.uleb128 0x47
 14977 05f0 13       		.uleb128 0x13
 14978 05f1 11       		.uleb128 0x11
 14979 05f2 01       		.uleb128 0x1
 14980 05f3 12       		.uleb128 0x12
 14981 05f4 06       		.uleb128 0x6
 14982 05f5 40       		.uleb128 0x40
 14983 05f6 18       		.uleb128 0x18
 14984 05f7 9742     		.uleb128 0x2117
 14985 05f9 19       		.uleb128 0x19
 14986 05fa 01       		.uleb128 0x1
 14987 05fb 13       		.uleb128 0x13
 14988 05fc 00       		.byte	0
 14989 05fd 00       		.byte	0
 14990 05fe 62       		.uleb128 0x62
 14991 05ff 2E       		.uleb128 0x2e
 14992 0600 01       		.byte	0x1
 14993 0601 47       		.uleb128 0x47
 14994 0602 13       		.uleb128 0x13
 14995 0603 11       		.uleb128 0x11
 14996 0604 01       		.uleb128 0x1
 14997 0605 12       		.uleb128 0x12
 14998 0606 06       		.uleb128 0x6
 14999 0607 40       		.uleb128 0x40
 15000 0608 18       		.uleb128 0x18
 15001 0609 9642     		.uleb128 0x2116
 15002 060b 19       		.uleb128 0x19
 15003 060c 01       		.uleb128 0x1
 15004 060d 13       		.uleb128 0x13
 15005 060e 00       		.byte	0
ARM GAS  /tmp/ccWQ6gKG.s 			page 265


 15006 060f 00       		.byte	0
 15007 0610 63       		.uleb128 0x63
 15008 0611 05       		.uleb128 0x5
 15009 0612 00       		.byte	0
 15010 0613 03       		.uleb128 0x3
 15011 0614 08       		.uleb128 0x8
 15012 0615 3A       		.uleb128 0x3a
 15013 0616 0B       		.uleb128 0xb
 15014 0617 3B       		.uleb128 0x3b
 15015 0618 05       		.uleb128 0x5
 15016 0619 49       		.uleb128 0x49
 15017 061a 13       		.uleb128 0x13
 15018 061b 02       		.uleb128 0x2
 15019 061c 18       		.uleb128 0x18
 15020 061d 00       		.byte	0
 15021 061e 00       		.byte	0
 15022 061f 64       		.uleb128 0x64
 15023 0620 2E       		.uleb128 0x2e
 15024 0621 01       		.byte	0x1
 15025 0622 47       		.uleb128 0x47
 15026 0623 13       		.uleb128 0x13
 15027 0624 3B       		.uleb128 0x3b
 15028 0625 0B       		.uleb128 0xb
 15029 0626 20       		.uleb128 0x20
 15030 0627 0B       		.uleb128 0xb
 15031 0628 64       		.uleb128 0x64
 15032 0629 13       		.uleb128 0x13
 15033 062a 01       		.uleb128 0x1
 15034 062b 13       		.uleb128 0x13
 15035 062c 00       		.byte	0
 15036 062d 00       		.byte	0
 15037 062e 65       		.uleb128 0x65
 15038 062f 05       		.uleb128 0x5
 15039 0630 00       		.byte	0
 15040 0631 03       		.uleb128 0x3
 15041 0632 0E       		.uleb128 0xe
 15042 0633 49       		.uleb128 0x49
 15043 0634 13       		.uleb128 0x13
 15044 0635 34       		.uleb128 0x34
 15045 0636 19       		.uleb128 0x19
 15046 0637 00       		.byte	0
 15047 0638 00       		.byte	0
 15048 0639 66       		.uleb128 0x66
 15049 063a 2E       		.uleb128 0x2e
 15050 063b 01       		.byte	0x1
 15051 063c 31       		.uleb128 0x31
 15052 063d 13       		.uleb128 0x13
 15053 063e 6E       		.uleb128 0x6e
 15054 063f 0E       		.uleb128 0xe
 15055 0640 11       		.uleb128 0x11
 15056 0641 01       		.uleb128 0x1
 15057 0642 12       		.uleb128 0x12
 15058 0643 06       		.uleb128 0x6
 15059 0644 40       		.uleb128 0x40
 15060 0645 18       		.uleb128 0x18
 15061 0646 64       		.uleb128 0x64
 15062 0647 13       		.uleb128 0x13
ARM GAS  /tmp/ccWQ6gKG.s 			page 266


 15063 0648 9742     		.uleb128 0x2117
 15064 064a 19       		.uleb128 0x19
 15065 064b 01       		.uleb128 0x1
 15066 064c 13       		.uleb128 0x13
 15067 064d 00       		.byte	0
 15068 064e 00       		.byte	0
 15069 064f 67       		.uleb128 0x67
 15070 0650 05       		.uleb128 0x5
 15071 0651 00       		.byte	0
 15072 0652 31       		.uleb128 0x31
 15073 0653 13       		.uleb128 0x13
 15074 0654 02       		.uleb128 0x2
 15075 0655 18       		.uleb128 0x18
 15076 0656 00       		.byte	0
 15077 0657 00       		.byte	0
 15078 0658 68       		.uleb128 0x68
 15079 0659 2E       		.uleb128 0x2e
 15080 065a 01       		.byte	0x1
 15081 065b 47       		.uleb128 0x47
 15082 065c 13       		.uleb128 0x13
 15083 065d 3B       		.uleb128 0x3b
 15084 065e 0B       		.uleb128 0xb
 15085 065f 11       		.uleb128 0x11
 15086 0660 01       		.uleb128 0x1
 15087 0661 12       		.uleb128 0x12
 15088 0662 06       		.uleb128 0x6
 15089 0663 40       		.uleb128 0x40
 15090 0664 18       		.uleb128 0x18
 15091 0665 64       		.uleb128 0x64
 15092 0666 13       		.uleb128 0x13
 15093 0667 9642     		.uleb128 0x2116
 15094 0669 19       		.uleb128 0x19
 15095 066a 01       		.uleb128 0x1
 15096 066b 13       		.uleb128 0x13
 15097 066c 00       		.byte	0
 15098 066d 00       		.byte	0
 15099 066e 69       		.uleb128 0x69
 15100 066f 2E       		.uleb128 0x2e
 15101 0670 01       		.byte	0x1
 15102 0671 47       		.uleb128 0x47
 15103 0672 13       		.uleb128 0x13
 15104 0673 11       		.uleb128 0x11
 15105 0674 01       		.uleb128 0x1
 15106 0675 12       		.uleb128 0x12
 15107 0676 06       		.uleb128 0x6
 15108 0677 40       		.uleb128 0x40
 15109 0678 18       		.uleb128 0x18
 15110 0679 64       		.uleb128 0x64
 15111 067a 13       		.uleb128 0x13
 15112 067b 9642     		.uleb128 0x2116
 15113 067d 19       		.uleb128 0x19
 15114 067e 01       		.uleb128 0x1
 15115 067f 13       		.uleb128 0x13
 15116 0680 00       		.byte	0
 15117 0681 00       		.byte	0
 15118 0682 6A       		.uleb128 0x6a
 15119 0683 0B       		.uleb128 0xb
ARM GAS  /tmp/ccWQ6gKG.s 			page 267


 15120 0684 01       		.byte	0x1
 15121 0685 11       		.uleb128 0x11
 15122 0686 01       		.uleb128 0x1
 15123 0687 12       		.uleb128 0x12
 15124 0688 06       		.uleb128 0x6
 15125 0689 01       		.uleb128 0x1
 15126 068a 13       		.uleb128 0x13
 15127 068b 00       		.byte	0
 15128 068c 00       		.byte	0
 15129 068d 6B       		.uleb128 0x6b
 15130 068e 34       		.uleb128 0x34
 15131 068f 00       		.byte	0
 15132 0690 03       		.uleb128 0x3
 15133 0691 08       		.uleb128 0x8
 15134 0692 3A       		.uleb128 0x3a
 15135 0693 0B       		.uleb128 0xb
 15136 0694 3B       		.uleb128 0x3b
 15137 0695 0B       		.uleb128 0xb
 15138 0696 49       		.uleb128 0x49
 15139 0697 13       		.uleb128 0x13
 15140 0698 02       		.uleb128 0x2
 15141 0699 18       		.uleb128 0x18
 15142 069a 00       		.byte	0
 15143 069b 00       		.byte	0
 15144 069c 6C       		.uleb128 0x6c
 15145 069d 0B       		.uleb128 0xb
 15146 069e 01       		.byte	0x1
 15147 069f 11       		.uleb128 0x11
 15148 06a0 01       		.uleb128 0x1
 15149 06a1 12       		.uleb128 0x12
 15150 06a2 06       		.uleb128 0x6
 15151 06a3 00       		.byte	0
 15152 06a4 00       		.byte	0
 15153 06a5 6D       		.uleb128 0x6d
 15154 06a6 34       		.uleb128 0x34
 15155 06a7 00       		.byte	0
 15156 06a8 03       		.uleb128 0x3
 15157 06a9 0E       		.uleb128 0xe
 15158 06aa 3A       		.uleb128 0x3a
 15159 06ab 0B       		.uleb128 0xb
 15160 06ac 3B       		.uleb128 0x3b
 15161 06ad 0B       		.uleb128 0xb
 15162 06ae 49       		.uleb128 0x49
 15163 06af 13       		.uleb128 0x13
 15164 06b0 02       		.uleb128 0x2
 15165 06b1 18       		.uleb128 0x18
 15166 06b2 00       		.byte	0
 15167 06b3 00       		.byte	0
 15168 06b4 6E       		.uleb128 0x6e
 15169 06b5 2E       		.uleb128 0x2e
 15170 06b6 01       		.byte	0x1
 15171 06b7 03       		.uleb128 0x3
 15172 06b8 0E       		.uleb128 0xe
 15173 06b9 3A       		.uleb128 0x3a
 15174 06ba 0B       		.uleb128 0xb
 15175 06bb 3B       		.uleb128 0x3b
 15176 06bc 0B       		.uleb128 0xb
ARM GAS  /tmp/ccWQ6gKG.s 			page 268


 15177 06bd 11       		.uleb128 0x11
 15178 06be 01       		.uleb128 0x1
 15179 06bf 12       		.uleb128 0x12
 15180 06c0 06       		.uleb128 0x6
 15181 06c1 40       		.uleb128 0x40
 15182 06c2 18       		.uleb128 0x18
 15183 06c3 9642     		.uleb128 0x2116
 15184 06c5 19       		.uleb128 0x19
 15185 06c6 01       		.uleb128 0x1
 15186 06c7 13       		.uleb128 0x13
 15187 06c8 00       		.byte	0
 15188 06c9 00       		.byte	0
 15189 06ca 6F       		.uleb128 0x6f
 15190 06cb 2E       		.uleb128 0x2e
 15191 06cc 01       		.byte	0x1
 15192 06cd 3F       		.uleb128 0x3f
 15193 06ce 19       		.uleb128 0x19
 15194 06cf 03       		.uleb128 0x3
 15195 06d0 0E       		.uleb128 0xe
 15196 06d1 3A       		.uleb128 0x3a
 15197 06d2 0B       		.uleb128 0xb
 15198 06d3 3B       		.uleb128 0x3b
 15199 06d4 0B       		.uleb128 0xb
 15200 06d5 6E       		.uleb128 0x6e
 15201 06d6 0E       		.uleb128 0xe
 15202 06d7 49       		.uleb128 0x49
 15203 06d8 13       		.uleb128 0x13
 15204 06d9 11       		.uleb128 0x11
 15205 06da 01       		.uleb128 0x1
 15206 06db 12       		.uleb128 0x12
 15207 06dc 06       		.uleb128 0x6
 15208 06dd 40       		.uleb128 0x40
 15209 06de 18       		.uleb128 0x18
 15210 06df 9642     		.uleb128 0x2116
 15211 06e1 19       		.uleb128 0x19
 15212 06e2 01       		.uleb128 0x1
 15213 06e3 13       		.uleb128 0x13
 15214 06e4 00       		.byte	0
 15215 06e5 00       		.byte	0
 15216 06e6 70       		.uleb128 0x70
 15217 06e7 2E       		.uleb128 0x2e
 15218 06e8 01       		.byte	0x1
 15219 06e9 47       		.uleb128 0x47
 15220 06ea 13       		.uleb128 0x13
 15221 06eb 20       		.uleb128 0x20
 15222 06ec 0B       		.uleb128 0xb
 15223 06ed 64       		.uleb128 0x64
 15224 06ee 13       		.uleb128 0x13
 15225 06ef 01       		.uleb128 0x1
 15226 06f0 13       		.uleb128 0x13
 15227 06f1 00       		.byte	0
 15228 06f2 00       		.byte	0
 15229 06f3 71       		.uleb128 0x71
 15230 06f4 05       		.uleb128 0x5
 15231 06f5 00       		.byte	0
 15232 06f6 03       		.uleb128 0x3
 15233 06f7 0E       		.uleb128 0xe
ARM GAS  /tmp/ccWQ6gKG.s 			page 269


 15234 06f8 3A       		.uleb128 0x3a
 15235 06f9 0B       		.uleb128 0xb
 15236 06fa 3B       		.uleb128 0x3b
 15237 06fb 0B       		.uleb128 0xb
 15238 06fc 49       		.uleb128 0x49
 15239 06fd 13       		.uleb128 0x13
 15240 06fe 00       		.byte	0
 15241 06ff 00       		.byte	0
 15242 0700 72       		.uleb128 0x72
 15243 0701 2E       		.uleb128 0x2e
 15244 0702 01       		.byte	0x1
 15245 0703 47       		.uleb128 0x47
 15246 0704 13       		.uleb128 0x13
 15247 0705 11       		.uleb128 0x11
 15248 0706 01       		.uleb128 0x1
 15249 0707 12       		.uleb128 0x12
 15250 0708 06       		.uleb128 0x6
 15251 0709 40       		.uleb128 0x40
 15252 070a 18       		.uleb128 0x18
 15253 070b 64       		.uleb128 0x64
 15254 070c 13       		.uleb128 0x13
 15255 070d 9742     		.uleb128 0x2117
 15256 070f 19       		.uleb128 0x19
 15257 0710 01       		.uleb128 0x1
 15258 0711 13       		.uleb128 0x13
 15259 0712 00       		.byte	0
 15260 0713 00       		.byte	0
 15261 0714 73       		.uleb128 0x73
 15262 0715 2E       		.uleb128 0x2e
 15263 0716 01       		.byte	0x1
 15264 0717 47       		.uleb128 0x47
 15265 0718 13       		.uleb128 0x13
 15266 0719 3A       		.uleb128 0x3a
 15267 071a 0B       		.uleb128 0xb
 15268 071b 3B       		.uleb128 0x3b
 15269 071c 0B       		.uleb128 0xb
 15270 071d 20       		.uleb128 0x20
 15271 071e 0B       		.uleb128 0xb
 15272 071f 64       		.uleb128 0x64
 15273 0720 13       		.uleb128 0x13
 15274 0721 01       		.uleb128 0x1
 15275 0722 13       		.uleb128 0x13
 15276 0723 00       		.byte	0
 15277 0724 00       		.byte	0
 15278 0725 74       		.uleb128 0x74
 15279 0726 2E       		.uleb128 0x2e
 15280 0727 01       		.byte	0x1
 15281 0728 31       		.uleb128 0x31
 15282 0729 13       		.uleb128 0x13
 15283 072a 6E       		.uleb128 0x6e
 15284 072b 0E       		.uleb128 0xe
 15285 072c 11       		.uleb128 0x11
 15286 072d 01       		.uleb128 0x1
 15287 072e 12       		.uleb128 0x12
 15288 072f 06       		.uleb128 0x6
 15289 0730 40       		.uleb128 0x40
 15290 0731 18       		.uleb128 0x18
ARM GAS  /tmp/ccWQ6gKG.s 			page 270


 15291 0732 64       		.uleb128 0x64
 15292 0733 13       		.uleb128 0x13
 15293 0734 9642     		.uleb128 0x2116
 15294 0736 19       		.uleb128 0x19
 15295 0737 01       		.uleb128 0x1
 15296 0738 13       		.uleb128 0x13
 15297 0739 00       		.byte	0
 15298 073a 00       		.byte	0
 15299 073b 75       		.uleb128 0x75
 15300 073c 2E       		.uleb128 0x2e
 15301 073d 01       		.byte	0x1
 15302 073e 03       		.uleb128 0x3
 15303 073f 0E       		.uleb128 0xe
 15304 0740 34       		.uleb128 0x34
 15305 0741 19       		.uleb128 0x19
 15306 0742 11       		.uleb128 0x11
 15307 0743 01       		.uleb128 0x1
 15308 0744 12       		.uleb128 0x12
 15309 0745 06       		.uleb128 0x6
 15310 0746 40       		.uleb128 0x40
 15311 0747 18       		.uleb128 0x18
 15312 0748 9642     		.uleb128 0x2116
 15313 074a 19       		.uleb128 0x19
 15314 074b 01       		.uleb128 0x1
 15315 074c 13       		.uleb128 0x13
 15316 074d 00       		.byte	0
 15317 074e 00       		.byte	0
 15318 074f 76       		.uleb128 0x76
 15319 0750 2E       		.uleb128 0x2e
 15320 0751 00       		.byte	0
 15321 0752 03       		.uleb128 0x3
 15322 0753 0E       		.uleb128 0xe
 15323 0754 34       		.uleb128 0x34
 15324 0755 19       		.uleb128 0x19
 15325 0756 11       		.uleb128 0x11
 15326 0757 01       		.uleb128 0x1
 15327 0758 12       		.uleb128 0x12
 15328 0759 06       		.uleb128 0x6
 15329 075a 40       		.uleb128 0x40
 15330 075b 18       		.uleb128 0x18
 15331 075c 9642     		.uleb128 0x2116
 15332 075e 19       		.uleb128 0x19
 15333 075f 00       		.byte	0
 15334 0760 00       		.byte	0
 15335 0761 77       		.uleb128 0x77
 15336 0762 34       		.uleb128 0x34
 15337 0763 00       		.byte	0
 15338 0764 03       		.uleb128 0x3
 15339 0765 0E       		.uleb128 0xe
 15340 0766 3A       		.uleb128 0x3a
 15341 0767 0B       		.uleb128 0xb
 15342 0768 3B       		.uleb128 0x3b
 15343 0769 0B       		.uleb128 0xb
 15344 076a 49       		.uleb128 0x49
 15345 076b 13       		.uleb128 0x13
 15346 076c 3F       		.uleb128 0x3f
 15347 076d 19       		.uleb128 0x19
ARM GAS  /tmp/ccWQ6gKG.s 			page 271


 15348 076e 3C       		.uleb128 0x3c
 15349 076f 19       		.uleb128 0x19
 15350 0770 00       		.byte	0
 15351 0771 00       		.byte	0
 15352 0772 78       		.uleb128 0x78
 15353 0773 34       		.uleb128 0x34
 15354 0774 00       		.byte	0
 15355 0775 03       		.uleb128 0x3
 15356 0776 0E       		.uleb128 0xe
 15357 0777 3A       		.uleb128 0x3a
 15358 0778 0B       		.uleb128 0xb
 15359 0779 3B       		.uleb128 0x3b
 15360 077a 05       		.uleb128 0x5
 15361 077b 49       		.uleb128 0x49
 15362 077c 13       		.uleb128 0x13
 15363 077d 3F       		.uleb128 0x3f
 15364 077e 19       		.uleb128 0x19
 15365 077f 3C       		.uleb128 0x3c
 15366 0780 19       		.uleb128 0x19
 15367 0781 00       		.byte	0
 15368 0782 00       		.byte	0
 15369 0783 79       		.uleb128 0x79
 15370 0784 34       		.uleb128 0x34
 15371 0785 00       		.byte	0
 15372 0786 03       		.uleb128 0x3
 15373 0787 08       		.uleb128 0x8
 15374 0788 3A       		.uleb128 0x3a
 15375 0789 0B       		.uleb128 0xb
 15376 078a 3B       		.uleb128 0x3b
 15377 078b 0B       		.uleb128 0xb
 15378 078c 49       		.uleb128 0x49
 15379 078d 13       		.uleb128 0x13
 15380 078e 3F       		.uleb128 0x3f
 15381 078f 19       		.uleb128 0x19
 15382 0790 02       		.uleb128 0x2
 15383 0791 18       		.uleb128 0x18
 15384 0792 00       		.byte	0
 15385 0793 00       		.byte	0
 15386 0794 7A       		.uleb128 0x7a
 15387 0795 34       		.uleb128 0x34
 15388 0796 00       		.byte	0
 15389 0797 03       		.uleb128 0x3
 15390 0798 0E       		.uleb128 0xe
 15391 0799 3A       		.uleb128 0x3a
 15392 079a 0B       		.uleb128 0xb
 15393 079b 3B       		.uleb128 0x3b
 15394 079c 0B       		.uleb128 0xb
 15395 079d 49       		.uleb128 0x49
 15396 079e 13       		.uleb128 0x13
 15397 079f 3F       		.uleb128 0x3f
 15398 07a0 19       		.uleb128 0x19
 15399 07a1 02       		.uleb128 0x2
 15400 07a2 18       		.uleb128 0x18
 15401 07a3 00       		.byte	0
 15402 07a4 00       		.byte	0
 15403 07a5 00       		.byte	0
 15404              		.section	.debug_aranges,"",%progbits
ARM GAS  /tmp/ccWQ6gKG.s 			page 272


 15405 0000 D4010000 		.4byte	0x1d4
 15406 0004 0200     		.2byte	0x2
 15407 0006 00000000 		.4byte	.Ldebug_info0
 15408 000a 04       		.byte	0x4
 15409 000b 00       		.byte	0
 15410 000c 0000     		.2byte	0
 15411 000e 0000     		.2byte	0
 15412 0010 00000000 		.4byte	.LFB262
 15413 0014 16000000 		.4byte	.LFE262-.LFB262
 15414 0018 00000000 		.4byte	.LFB276
 15415 001c 22000000 		.4byte	.LFE276-.LFB276
 15416 0020 00000000 		.4byte	.LFB282
 15417 0024 1E000000 		.4byte	.LFE282-.LFB282
 15418 0028 00000000 		.4byte	.LFB287
 15419 002c 24000000 		.4byte	.LFE287-.LFB287
 15420 0030 00000000 		.4byte	.LFB294
 15421 0034 16000000 		.4byte	.LFE294-.LFB294
 15422 0038 00000000 		.4byte	.LFB353
 15423 003c 0E000000 		.4byte	.LFE353-.LFB353
 15424 0040 00000000 		.4byte	.LFB355
 15425 0044 3C000000 		.4byte	.LFE355-.LFB355
 15426 0048 00000000 		.4byte	.LFB361
 15427 004c 18000000 		.4byte	.LFE361-.LFB361
 15428 0050 00000000 		.4byte	.LFB363
 15429 0054 18000000 		.4byte	.LFE363-.LFB363
 15430 0058 00000000 		.4byte	.LFB380
 15431 005c 24000000 		.4byte	.LFE380-.LFB380
 15432 0060 00000000 		.4byte	.LFB385
 15433 0064 1A000000 		.4byte	.LFE385-.LFB385
 15434 0068 00000000 		.4byte	.LFB391
 15435 006c 1A000000 		.4byte	.LFE391-.LFB391
 15436 0070 00000000 		.4byte	.LFB392
 15437 0074 3C000000 		.4byte	.LFE392-.LFB392
 15438 0078 00000000 		.4byte	.LFB393
 15439 007c 56000000 		.4byte	.LFE393-.LFB393
 15440 0080 00000000 		.4byte	.LFB597
 15441 0084 50000000 		.4byte	.LFE597-.LFB597
 15442 0088 00000000 		.4byte	.LFB599
 15443 008c A8000000 		.4byte	.LFE599-.LFB599
 15444 0090 00000000 		.4byte	.LFB600
 15445 0094 6C000000 		.4byte	.LFE600-.LFB600
 15446 0098 00000000 		.4byte	.LFB601
 15447 009c 06010000 		.4byte	.LFE601-.LFB601
 15448 00a0 00000000 		.4byte	.LFB602
 15449 00a4 6C000000 		.4byte	.LFE602-.LFB602
 15450 00a8 00000000 		.4byte	.LFB603
 15451 00ac AC000000 		.4byte	.LFE603-.LFB603
 15452 00b0 00000000 		.4byte	.LFB604
 15453 00b4 20020000 		.4byte	.LFE604-.LFB604
 15454 00b8 00000000 		.4byte	.LFB606
 15455 00bc 14000000 		.4byte	.LFE606-.LFB606
 15456 00c0 00000000 		.4byte	.LFB612
 15457 00c4 14000000 		.4byte	.LFE612-.LFB612
 15458 00c8 00000000 		.4byte	.LFB614
 15459 00cc 0E000000 		.4byte	.LFE614-.LFB614
 15460 00d0 00000000 		.4byte	.LFB615
 15461 00d4 5E000000 		.4byte	.LFE615-.LFB615
ARM GAS  /tmp/ccWQ6gKG.s 			page 273


 15462 00d8 00000000 		.4byte	.LFB616
 15463 00dc 60000000 		.4byte	.LFE616-.LFB616
 15464 00e0 00000000 		.4byte	.LFB628
 15465 00e4 18000000 		.4byte	.LFE628-.LFB628
 15466 00e8 00000000 		.4byte	.LFB630
 15467 00ec 48000000 		.4byte	.LFE630-.LFB630
 15468 00f0 00000000 		.4byte	.LFB633
 15469 00f4 30000000 		.4byte	.LFE633-.LFB633
 15470 00f8 00000000 		.4byte	.LFB635
 15471 00fc 1C000000 		.4byte	.LFE635-.LFB635
 15472 0100 00000000 		.4byte	.LFB638
 15473 0104 18000000 		.4byte	.LFE638-.LFB638
 15474 0108 00000000 		.4byte	.LFB640
 15475 010c 48000000 		.4byte	.LFE640-.LFB640
 15476 0110 00000000 		.4byte	.LFB643
 15477 0114 30000000 		.4byte	.LFE643-.LFB643
 15478 0118 00000000 		.4byte	.LFB645
 15479 011c 1C000000 		.4byte	.LFE645-.LFB645
 15480 0120 00000000 		.4byte	.LFB648
 15481 0124 18000000 		.4byte	.LFE648-.LFB648
 15482 0128 00000000 		.4byte	.LFB650
 15483 012c 48000000 		.4byte	.LFE650-.LFB650
 15484 0130 00000000 		.4byte	.LFB653
 15485 0134 30000000 		.4byte	.LFE653-.LFB653
 15486 0138 00000000 		.4byte	.LFB655
 15487 013c 1C000000 		.4byte	.LFE655-.LFB655
 15488 0140 00000000 		.4byte	.LFB656
 15489 0144 2A000000 		.4byte	.LFE656-.LFB656
 15490 0148 00000000 		.4byte	.LFB657
 15491 014c 2A000000 		.4byte	.LFE657-.LFB657
 15492 0150 00000000 		.4byte	.LFB658
 15493 0154 2A000000 		.4byte	.LFE658-.LFB658
 15494 0158 00000000 		.4byte	.LFB659
 15495 015c 1C000000 		.4byte	.LFE659-.LFB659
 15496 0160 00000000 		.4byte	.LFB660
 15497 0164 1E000000 		.4byte	.LFE660-.LFB660
 15498 0168 00000000 		.4byte	.LFB661
 15499 016c 1C000000 		.4byte	.LFE661-.LFB661
 15500 0170 00000000 		.4byte	.LFB662
 15501 0174 1E000000 		.4byte	.LFE662-.LFB662
 15502 0178 00000000 		.4byte	.LFB664
 15503 017c 30000000 		.4byte	.LFE664-.LFB664
 15504 0180 00000000 		.4byte	.LFB667
 15505 0184 30000000 		.4byte	.LFE667-.LFB667
 15506 0188 00000000 		.4byte	.LFB669
 15507 018c 1C000000 		.4byte	.LFE669-.LFB669
 15508 0190 00000000 		.4byte	.LFB671
 15509 0194 30000000 		.4byte	.LFE671-.LFB671
 15510 0198 00000000 		.4byte	.LFB674
 15511 019c 30000000 		.4byte	.LFE674-.LFB674
 15512 01a0 00000000 		.4byte	.LFB676
 15513 01a4 1C000000 		.4byte	.LFE676-.LFB676
 15514 01a8 00000000 		.4byte	.LFB678
 15515 01ac 30000000 		.4byte	.LFE678-.LFB678
 15516 01b0 00000000 		.4byte	.LFB681
 15517 01b4 30000000 		.4byte	.LFE681-.LFB681
 15518 01b8 00000000 		.4byte	.LFB683
ARM GAS  /tmp/ccWQ6gKG.s 			page 274


 15519 01bc 1C000000 		.4byte	.LFE683-.LFB683
 15520 01c0 00000000 		.4byte	.LFB687
 15521 01c4 28000000 		.4byte	.LFE687-.LFB687
 15522 01c8 00000000 		.4byte	.LFB688
 15523 01cc 0E000000 		.4byte	.LFE688-.LFB688
 15524 01d0 00000000 		.4byte	0
 15525 01d4 00000000 		.4byte	0
 15526              		.section	.debug_ranges,"",%progbits
 15527              	.Ldebug_ranges0:
 15528 0000 00000000 		.4byte	.LFB262
 15529 0004 16000000 		.4byte	.LFE262
 15530 0008 00000000 		.4byte	.LFB276
 15531 000c 22000000 		.4byte	.LFE276
 15532 0010 00000000 		.4byte	.LFB282
 15533 0014 1E000000 		.4byte	.LFE282
 15534 0018 00000000 		.4byte	.LFB287
 15535 001c 24000000 		.4byte	.LFE287
 15536 0020 00000000 		.4byte	.LFB294
 15537 0024 16000000 		.4byte	.LFE294
 15538 0028 00000000 		.4byte	.LFB353
 15539 002c 0E000000 		.4byte	.LFE353
 15540 0030 00000000 		.4byte	.LFB355
 15541 0034 3C000000 		.4byte	.LFE355
 15542 0038 00000000 		.4byte	.LFB361
 15543 003c 18000000 		.4byte	.LFE361
 15544 0040 00000000 		.4byte	.LFB363
 15545 0044 18000000 		.4byte	.LFE363
 15546 0048 00000000 		.4byte	.LFB380
 15547 004c 24000000 		.4byte	.LFE380
 15548 0050 00000000 		.4byte	.LFB385
 15549 0054 1A000000 		.4byte	.LFE385
 15550 0058 00000000 		.4byte	.LFB391
 15551 005c 1A000000 		.4byte	.LFE391
 15552 0060 00000000 		.4byte	.LFB392
 15553 0064 3C000000 		.4byte	.LFE392
 15554 0068 00000000 		.4byte	.LFB393
 15555 006c 56000000 		.4byte	.LFE393
 15556 0070 00000000 		.4byte	.LFB597
 15557 0074 50000000 		.4byte	.LFE597
 15558 0078 00000000 		.4byte	.LFB599
 15559 007c A8000000 		.4byte	.LFE599
 15560 0080 00000000 		.4byte	.LFB600
 15561 0084 6C000000 		.4byte	.LFE600
 15562 0088 00000000 		.4byte	.LFB601
 15563 008c 06010000 		.4byte	.LFE601
 15564 0090 00000000 		.4byte	.LFB602
 15565 0094 6C000000 		.4byte	.LFE602
 15566 0098 00000000 		.4byte	.LFB603
 15567 009c AC000000 		.4byte	.LFE603
 15568 00a0 00000000 		.4byte	.LFB604
 15569 00a4 20020000 		.4byte	.LFE604
 15570 00a8 00000000 		.4byte	.LFB606
 15571 00ac 14000000 		.4byte	.LFE606
 15572 00b0 00000000 		.4byte	.LFB612
 15573 00b4 14000000 		.4byte	.LFE612
 15574 00b8 00000000 		.4byte	.LFB614
 15575 00bc 0E000000 		.4byte	.LFE614
ARM GAS  /tmp/ccWQ6gKG.s 			page 275


 15576 00c0 00000000 		.4byte	.LFB615
 15577 00c4 5E000000 		.4byte	.LFE615
 15578 00c8 00000000 		.4byte	.LFB616
 15579 00cc 60000000 		.4byte	.LFE616
 15580 00d0 00000000 		.4byte	.LFB628
 15581 00d4 18000000 		.4byte	.LFE628
 15582 00d8 00000000 		.4byte	.LFB630
 15583 00dc 48000000 		.4byte	.LFE630
 15584 00e0 00000000 		.4byte	.LFB633
 15585 00e4 30000000 		.4byte	.LFE633
 15586 00e8 00000000 		.4byte	.LFB635
 15587 00ec 1C000000 		.4byte	.LFE635
 15588 00f0 00000000 		.4byte	.LFB638
 15589 00f4 18000000 		.4byte	.LFE638
 15590 00f8 00000000 		.4byte	.LFB640
 15591 00fc 48000000 		.4byte	.LFE640
 15592 0100 00000000 		.4byte	.LFB643
 15593 0104 30000000 		.4byte	.LFE643
 15594 0108 00000000 		.4byte	.LFB645
 15595 010c 1C000000 		.4byte	.LFE645
 15596 0110 00000000 		.4byte	.LFB648
 15597 0114 18000000 		.4byte	.LFE648
 15598 0118 00000000 		.4byte	.LFB650
 15599 011c 48000000 		.4byte	.LFE650
 15600 0120 00000000 		.4byte	.LFB653
 15601 0124 30000000 		.4byte	.LFE653
 15602 0128 00000000 		.4byte	.LFB655
 15603 012c 1C000000 		.4byte	.LFE655
 15604 0130 00000000 		.4byte	.LFB656
 15605 0134 2A000000 		.4byte	.LFE656
 15606 0138 00000000 		.4byte	.LFB657
 15607 013c 2A000000 		.4byte	.LFE657
 15608 0140 00000000 		.4byte	.LFB658
 15609 0144 2A000000 		.4byte	.LFE658
 15610 0148 00000000 		.4byte	.LFB659
 15611 014c 1C000000 		.4byte	.LFE659
 15612 0150 00000000 		.4byte	.LFB660
 15613 0154 1E000000 		.4byte	.LFE660
 15614 0158 00000000 		.4byte	.LFB661
 15615 015c 1C000000 		.4byte	.LFE661
 15616 0160 00000000 		.4byte	.LFB662
 15617 0164 1E000000 		.4byte	.LFE662
 15618 0168 00000000 		.4byte	.LFB664
 15619 016c 30000000 		.4byte	.LFE664
 15620 0170 00000000 		.4byte	.LFB667
 15621 0174 30000000 		.4byte	.LFE667
 15622 0178 00000000 		.4byte	.LFB669
 15623 017c 1C000000 		.4byte	.LFE669
 15624 0180 00000000 		.4byte	.LFB671
 15625 0184 30000000 		.4byte	.LFE671
 15626 0188 00000000 		.4byte	.LFB674
 15627 018c 30000000 		.4byte	.LFE674
 15628 0190 00000000 		.4byte	.LFB676
 15629 0194 1C000000 		.4byte	.LFE676
 15630 0198 00000000 		.4byte	.LFB678
 15631 019c 30000000 		.4byte	.LFE678
 15632 01a0 00000000 		.4byte	.LFB681
ARM GAS  /tmp/ccWQ6gKG.s 			page 276


 15633 01a4 30000000 		.4byte	.LFE681
 15634 01a8 00000000 		.4byte	.LFB683
 15635 01ac 1C000000 		.4byte	.LFE683
 15636 01b0 00000000 		.4byte	.LFB687
 15637 01b4 28000000 		.4byte	.LFE687
 15638 01b8 00000000 		.4byte	.LFB688
 15639 01bc 0E000000 		.4byte	.LFE688
 15640 01c0 00000000 		.4byte	0
 15641 01c4 00000000 		.4byte	0
 15642              		.section	.debug_line,"",%progbits
 15643              	.Ldebug_line0:
 15644 0000 270B0000 		.section	.debug_str,"MS",%progbits,1
 15644      0200C805 
 15644      00000201 
 15644      FB0E0D00 
 15644      01010101 
 15645              	.LASF411:
 15646 0000 5F5A4E33 		.ascii	"_ZN3r2p5Topic9subscribeERNS_15LocalSubscriberEj\000"
 15646      72327035 
 15646      546F7069 
 15646      63397375 
 15646      62736372 
 15647              	.LASF157:
 15648 0030 416C6C6F 		.ascii	"Allocator\000"
 15648      6361746F 
 15648      7200
 15649              	.LASF362:
 15650 003a 5F5A4E4B 		.ascii	"_ZNK3r2p5Topic13is_forwardingEv\000"
 15650      33723270 
 15650      35546F70 
 15650      69633133 
 15650      69735F66 
 15651              	.LASF606:
 15652 005a 6576656E 		.ascii	"event\000"
 15652      7400
 15653              	.LASF62:
 15654 0060 696E7463 		.ascii	"intctx\000"
 15654      747800
 15655              	.LASF685:
 15656 0067 5F5A4E33 		.ascii	"_ZN3r2p16SubscriberExtBufINS_9Speed3MsgEE5fetchERPS"
 15656      72327031 
 15656      36537562 
 15656      73637269 
 15656      62657245 
 15657 009a 315F524E 		.ascii	"1_RNS_4TimeE\000"
 15657      535F3454 
 15657      696D6545 
 15657      00
 15658              	.LASF328:
 15659 00a7 5F5A4E4B 		.ascii	"_ZNK3r2p10StaticListINS_5TopicEE5countEv\000"
 15659      33723270 
 15659      31305374 
 15659      61746963 
 15659      4C697374 
 15660              	.LASF250:
 15661 00d0 5F5A4E4B 		.ascii	"_ZNK3r2p10StaticListINS_15LocalSubscriberEE5countEv"
 15661      33723270 
ARM GAS  /tmp/ccWQ6gKG.s 			page 277


 15661      31305374 
 15661      61746963 
 15661      4C697374 
 15662 0103 00       		.ascii	"\000"
 15663              	.LASF28:
 15664 0104 6D73675F 		.ascii	"msg_t\000"
 15664      7400
 15665              	.LASF747:
 15666 010a 5F5A4E33 		.ascii	"_ZN3r2p10SubscriberINS_9PIDCfgMsgELj5EED2Ev\000"
 15666      72327031 
 15666      30537562 
 15666      73637269 
 15666      62657249 
 15667              	.LASF234:
 15668 0136 5F5A4E4B 		.ascii	"_ZNK3r2p10StaticListINS_15LocalSubscriberEE17find_f"
 15668      33723270 
 15668      31305374 
 15668      61746963 
 15668      4C697374 
 15669 0169 69727374 		.ascii	"irst_unsafeEPFbRKS1_E\000"
 15669      5F756E73 
 15669      61666545 
 15669      50466252 
 15669      4B53315F 
 15670              	.LASF441:
 15671 017f 53746174 		.ascii	"StaticList<r2p::LocalPublisher>\000"
 15671      69634C69 
 15671      73743C72 
 15671      32703A3A 
 15671      4C6F6361 
 15672              	.LASF558:
 15673 019f 5F5A4E4B 		.ascii	"_ZNK3r2p9SpinEvent10get_threadEv\000"
 15673      33723270 
 15673      39537069 
 15673      6E457665 
 15673      6E743130 
 15674              	.LASF436:
 15675 01c0 5F5A4E33 		.ascii	"_ZN3r2p7Message16get_payload_sizeEj\000"
 15675      72327037 
 15675      4D657373 
 15675      61676531 
 15675      36676574 
 15676              	.LASF348:
 15677 01e4 72656D6F 		.ascii	"remote_subscribers\000"
 15677      74655F73 
 15677      75627363 
 15677      72696265 
 15677      727300
 15678              	.LASF439:
 15679 01f7 52656D6F 		.ascii	"RemotePublisher\000"
 15679      74655075 
 15679      626C6973 
 15679      68657200 
 15680              	.LASF443:
 15681 0207 5F5A4E33 		.ascii	"_ZN3r2p10StaticListINS_14LocalPublisherEE13ConstIte"
 15681      72327031 
 15681      30537461 
ARM GAS  /tmp/ccWQ6gKG.s 			page 278


 15681      7469634C 
 15681      69737449 
 15682 023a 7261746F 		.ascii	"ratoraSERKS3_\000"
 15682      72615345 
 15682      524B5333 
 15682      5F00
 15683              	.LASF409:
 15684 0248 5F5A4E33 		.ascii	"_ZN3r2p5Topic9advertiseERNS_15RemotePublisherERKNS_"
 15684      72327035 
 15684      546F7069 
 15684      63396164 
 15684      76657274 
 15685 027b 3454696D 		.ascii	"4TimeE\000"
 15685      654500
 15686              	.LASF3:
 15687 0282 5F5F7569 		.ascii	"__uint8_t\000"
 15687      6E74385F 
 15687      7400
 15688              	.LASF658:
 15689 028c 53756273 		.ascii	"Subscriber<r2p::PIDCfgMsg, 5u>\000"
 15689      63726962 
 15689      65723C72 
 15689      32703A3A 
 15689      50494443 
 15690              	.LASF700:
 15691 02ab 656E636F 		.ascii	"encoder_topic\000"
 15691      6465725F 
 15691      746F7069 
 15691      6300
 15692              	.LASF673:
 15693 02b9 5F5A4E33 		.ascii	"_ZN3r2p16SubscriberExtBufINS_9PIDCfgMsgEE7releaseER"
 15693      72327031 
 15693      36537562 
 15693      73637269 
 15693      62657245 
 15694 02ec 53315F00 		.ascii	"S1_\000"
 15695              	.LASF547:
 15696 02f0 6765745F 		.ascii	"get_thread\000"
 15696      74687265 
 15696      616400
 15697              	.LASF426:
 15698 02fb 5F5A4E33 		.ascii	"_ZN3r2p7Message12reset_unsafeEv\000"
 15698      72327037 
 15698      4D657373 
 15698      61676531 
 15698      32726573 
 15699              	.LASF472:
 15700 031b 5F5A4E4B 		.ascii	"_ZNK3r2p10StaticListINS_14LocalPublisherEE8index_of"
 15700      33723270 
 15700      31305374 
 15700      61746963 
 15700      4C697374 
 15701 034e 45524B53 		.ascii	"ERKS1_\000"
 15701      315F00
 15702              	.LASF566:
 15703 0355 5F5A4E4B 		.ascii	"_ZNK3r2p10StaticListINS_4NodeEE13ConstIteratordeEv\000"
 15703      33723270 
ARM GAS  /tmp/ccWQ6gKG.s 			page 279


 15703      31305374 
 15703      61746963 
 15703      4C697374 
 15704              	.LASF578:
 15705 0388 5F5A4E4B 		.ascii	"_ZNK3r2p10StaticListINS_4NodeEE15index_of_unsafeERK"
 15705      33723270 
 15705      31305374 
 15705      61746963 
 15705      4C697374 
 15706 03bb 53315F00 		.ascii	"S1_\000"
 15707              	.LASF708:
 15708 03bf 5F5A4E33 		.ascii	"_ZN3PID6updateEf\000"
 15708      50494436 
 15708      75706461 
 15708      74654566 
 15708      00
 15709              	.LASF663:
 15710 03d0 7E426173 		.ascii	"~BaseSubscriber\000"
 15710      65537562 
 15710      73637269 
 15710      62657200 
 15711              	.LASF77:
 15712 03e0 6D656D67 		.ascii	"memgetfunc_t\000"
 15712      65746675 
 15712      6E635F74 
 15712      00
 15713              	.LASF596:
 15714 03ed 5F5A4E4B 		.ascii	"_ZNK3r2p10StaticListINS_4NodeEE10find_firstEPFbRKS1"
 15714      33723270 
 15714      31305374 
 15714      61746963 
 15714      4C697374 
 15715 0420 5F504B76 		.ascii	"_PKvES6_\000"
 15715      4553365F 
 15715      00
 15716              	.LASF327:
 15717 0429 5F5A4E4B 		.ascii	"_ZNK3r2p10StaticListINS_5TopicEE8is_emptyEv\000"
 15717      33723270 
 15717      31305374 
 15717      61746963 
 15717      4C697374 
 15718              	.LASF420:
 15719 0455 6765745F 		.ascii	"get_raw_data\000"
 15719      7261775F 
 15719      64617461 
 15719      00
 15720              	.LASF548:
 15721 0462 5F5A4E4B 		.ascii	"_ZNK3r2p10SpinEvent_10get_threadEv\000"
 15721      33723270 
 15721      31305370 
 15721      696E4576 
 15721      656E745F 
 15722              	.LASF320:
 15723 0485 5F5A4E33 		.ascii	"_ZN3r2p10StaticListINS_5TopicEE12begin_unsafeEv\000"
 15723      72327031 
 15723      30537461 
 15723      7469634C 
ARM GAS  /tmp/ccWQ6gKG.s 			page 280


 15723      69737449 
 15724              	.LASF403:
 15725 04b5 666F7277 		.ascii	"forward_copy\000"
 15725      6172645F 
 15725      636F7079 
 15725      00
 15726              	.LASF76:
 15727 04c2 6D5F6E65 		.ascii	"m_next\000"
 15727      787400
 15728              	.LASF587:
 15729 04c9 5F5A4E4B 		.ascii	"_ZNK3r2p10StaticListINS_4NodeEE14restart_unsafeERNS"
 15729      33723270 
 15729      31305374 
 15729      61746963 
 15729      4C697374 
 15730 04fc 325F3139 		.ascii	"2_19ConstIteratorUnsafeE\000"
 15730      436F6E73 
 15730      74497465 
 15730      7261746F 
 15730      72556E73 
 15731              	.LASF581:
 15732 0515 5F5A4E4B 		.ascii	"_ZNK3r2p10StaticListINS_4NodeEE17find_first_unsafeE"
 15732      33723270 
 15732      31305374 
 15732      61746963 
 15732      4C697374 
 15733 0548 50466252 		.ascii	"PFbRKS1_PKvES6_\000"
 15733      4B53315F 
 15733      504B7645 
 15733      53365F00 
 15734              	.LASF631:
 15735 0558 73756273 		.ascii	"subscribe<r2p::Speed3Msg, 5u>\000"
 15735      63726962 
 15735      653C7232 
 15735      703A3A53 
 15735      70656564 
 15736              	.LASF740:
 15737 0576 5F5A4E33 		.ascii	"_ZN3r2p10SubscriberINS_9Speed3MsgELj5EED0Ev\000"
 15737      72327031 
 15737      30537562 
 15737      73637269 
 15737      62657249 
 15738              	.LASF778:
 15739 05a2 5F474C4F 		.ascii	"_GLOBAL__sub_I__ZN3PIDC2Ev\000"
 15739      42414C5F 
 15739      5F737562 
 15739      5F495F5F 
 15739      5A4E3350 
 15740              	.LASF114:
 15741 05bd 42445452 		.ascii	"BDTR\000"
 15741      00
 15742              	.LASF166:
 15743 05c2 746F5F73 		.ascii	"to_s_raw\000"
 15743      5F726177 
 15743      00
 15744              	.LASF555:
 15745 05cb 77616974 		.ascii	"wait\000"
ARM GAS  /tmp/ccWQ6gKG.s 			page 281


 15745      00
 15746              	.LASF572:
 15747 05d0 5F5A4E4B 		.ascii	"_ZNK3r2p10StaticListINS_4NodeEE15get_head_unsafeEv\000"
 15747      33723270 
 15747      31305374 
 15747      61746963 
 15747      4C697374 
 15748              	.LASF275:
 15749 0603 5F5A4E33 		.ascii	"_ZN3r2p15LocalSubscriber12fetch_unsafeERPNS_7Messag"
 15749      72327031 
 15749      354C6F63 
 15749      616C5375 
 15749      62736372 
 15750 0636 6545524E 		.ascii	"eERNS_4TimeE\000"
 15750      535F3454 
 15750      696D6545 
 15750      00
 15751              	.LASF18:
 15752 0643 75696E74 		.ascii	"uint16_t\000"
 15752      31365F74 
 15752      00
 15753              	.LASF579:
 15754 064c 5F5A4E4B 		.ascii	"_ZNK3r2p10StaticListINS_4NodeEE15contains_unsafeERK"
 15754      33723270 
 15754      31305374 
 15754      61746963 
 15754      4C697374 
 15755 067f 53315F00 		.ascii	"S1_\000"
 15756              	.LASF434:
 15757 0683 6765745F 		.ascii	"get_msg_from_raw_data\000"
 15757      6D73675F 
 15757      66726F6D 
 15757      5F726177 
 15757      5F646174 
 15758              	.LASF285:
 15759 0699 5F5A4E4B 		.ascii	"_ZNK3r2p10StaticListINS_16RemoteSubscriberEE17find_"
 15759      33723270 
 15759      31305374 
 15759      61746963 
 15759      4C697374 
 15760 06cc 66697273 		.ascii	"first_unsafeEPFbRKS1_E\000"
 15760      745F756E 
 15760      73616665 
 15760      45504662 
 15760      524B5331 
 15761              	.LASF331:
 15762 06e3 5F5A4E4B 		.ascii	"_ZNK3r2p10StaticListINS_5TopicEE8index_ofERKS1_\000"
 15762      33723270 
 15762      31305374 
 15762      61746963 
 15762      4C697374 
 15763              	.LASF145:
 15764 0713 5F5A4E33 		.ascii	"_ZN3r2p11MemoryPool_12alloc_unsafeEv\000"
 15764      72327031 
 15764      314D656D 
 15764      6F727950 
 15764      6F6F6C5F 
ARM GAS  /tmp/ccWQ6gKG.s 			page 282


 15765              	.LASF491:
 15766 0738 6765745F 		.ascii	"get_length\000"
 15766      6C656E67 
 15766      746800
 15767              	.LASF171:
 15768 0743 5F5A4E4B 		.ascii	"_ZNK3r2p4Time5to_usEv\000"
 15768      33723270 
 15768      3454696D 
 15768      6535746F 
 15768      5F757345 
 15769              	.LASF774:
 15770 0759 5F5A4E33 		.ascii	"_ZN3r2pmiERKNS_4TimeES2_\000"
 15770      7232706D 
 15770      6945524B 
 15770      4E535F34 
 15770      54696D65 
 15771              	.LASF189:
 15772 0772 54696D65 		.ascii	"Time<long int>\000"
 15772      3C6C6F6E 
 15772      6720696E 
 15772      743E00
 15773              	.LASF40:
 15774 0781 705F6E65 		.ascii	"p_newer\000"
 15774      77657200 
 15775              	.LASF365:
 15776 0789 6861735F 		.ascii	"has_remote_publishers\000"
 15776      72656D6F 
 15776      74655F70 
 15776      75626C69 
 15776      73686572 
 15777              	.LASF470:
 15778 079f 5F5A4E33 		.ascii	"_ZN3r2p10StaticListINS_14LocalPublisherEE4linkERNS2"
 15778      72327031 
 15778      30537461 
 15778      7469634C 
 15778      69737449 
 15779 07d2 5F344C69 		.ascii	"_4LinkE\000"
 15779      6E6B4500 
 15780              	.LASF288:
 15781 07da 5F5A4E33 		.ascii	"_ZN3r2p10StaticListINS_16RemoteSubscriberEE10end_un"
 15781      72327031 
 15781      30537461 
 15781      7469634C 
 15781      69737449 
 15782 080d 73616665 		.ascii	"safeEv\000"
 15782      457600
 15783              	.LASF553:
 15784 0814 7369676E 		.ascii	"signal\000"
 15784      616C00
 15785              	.LASF405:
 15786 081b 65787465 		.ascii	"extend_pool\000"
 15786      6E645F70 
 15786      6F6F6C00 
 15787              	.LASF517:
 15788 0827 5F5A4E33 		.ascii	"_ZN3r2p7Thread_4selfEv\000"
 15788      72327037 
 15788      54687265 
ARM GAS  /tmp/ccWQ6gKG.s 			page 283


 15788      61645F34 
 15788      73656C66 
 15789              	.LASF418:
 15790 083e 52656663 		.ascii	"RefcountType\000"
 15790      6F756E74 
 15790      54797065 
 15790      00
 15791              	.LASF290:
 15792 084b 5F5A4E4B 		.ascii	"_ZNK3r2p10StaticListINS_16RemoteSubscriberEE12begin"
 15792      33723270 
 15792      31305374 
 15792      61746963 
 15792      4C697374 
 15793 087e 5F756E73 		.ascii	"_unsafeEv\000"
 15793      61666545 
 15793      7600
 15794              	.LASF281:
 15795 0888 5F5A4E33 		.ascii	"_ZN3r2p10StaticListINS_16RemoteSubscriberEE16link_t"
 15795      72327031 
 15795      30537461 
 15795      7469634C 
 15795      69737449 
 15796 08bb 61696C5F 		.ascii	"ail_unsafeERNS2_4LinkE\000"
 15796      756E7361 
 15796      66654552 
 15796      4E53325F 
 15796      344C696E 
 15797              	.LASF473:
 15798 08d2 5F5A4E4B 		.ascii	"_ZNK3r2p10StaticListINS_14LocalPublisherEE8contains"
 15798      33723270 
 15798      31305374 
 15798      61746963 
 15798      4C697374 
 15799 0905 45524B53 		.ascii	"ERKS1_\000"
 15799      315F00
 15800              	.LASF614:
 15801 090c 5F5A4E4B 		.ascii	"_ZNK3r2p4Node11get_enabledEv\000"
 15801      33723270 
 15801      344E6F64 
 15801      65313167 
 15801      65745F65 
 15802              	.LASF429:
 15803 0929 5F5A4E33 		.ascii	"_ZN3r2p7Message7releaseEv\000"
 15803      72327037 
 15803      4D657373 
 15803      61676537 
 15803      72656C65 
 15804              	.LASF22:
 15805 0943 626F6F6C 		.ascii	"bool\000"
 15805      00
 15806              	.LASF766:
 15807 0948 474E5520 		.ascii	"GNU C++ 4.9.3 20141119 (release) [ARM/embedded-4_9-"
 15807      432B2B20 
 15807      342E392E 
 15807      33203230 
 15807      31343131 
 15808 097b 6272616E 		.ascii	"branch revision 218278] -mcpu=cortex-m4 -mfloat-abi"
ARM GAS  /tmp/ccWQ6gKG.s 			page 284


 15808      63682072 
 15808      65766973 
 15808      696F6E20 
 15808      32313832 
 15809 09ae 3D686172 		.ascii	"=hard -mfpu=fpv4-sp-d16 -mno-thumb-interwork -mthum"
 15809      64202D6D 
 15809      6670753D 
 15809      66707634 
 15809      2D73702D 
 15810 09e1 62202D67 		.ascii	"b -ggdb -O0 -fomit-frame-pointer -falign-functions="
 15810      67646220 
 15810      2D4F3020 
 15810      2D666F6D 
 15810      69742D66 
 15811 0a14 3136202D 		.ascii	"16 -ffunction-sections -fdata-sections -fno-common "
 15811      6666756E 
 15811      6374696F 
 15811      6E2D7365 
 15811      6374696F 
 15812 0a47 2D667369 		.ascii	"-fsingle-precision-constant -fno-rtti -fno-exceptio"
 15812      6E676C65 
 15812      2D707265 
 15812      63697369 
 15812      6F6E2D63 
 15813 0a7a 6E73202D 		.ascii	"ns -fno-threadsafe-statics\000"
 15813      666E6F2D 
 15813      74687265 
 15813      61647361 
 15813      66652D73 
 15814              	.LASF90:
 15815 0a95 4F545950 		.ascii	"OTYPER\000"
 15815      455200
 15816              	.LASF408:
 15817 0a9c 5F5A4E33 		.ascii	"_ZN3r2p5Topic9advertiseERNS_14LocalPublisherERKNS_4"
 15817      72327035 
 15817      546F7069 
 15817      63396164 
 15817      76657274 
 15818 0acf 54696D65 		.ascii	"TimeE\000"
 15818      4500
 15819              	.LASF132:
 15820 0ad5 73747263 		.ascii	"strcoll\000"
 15820      6F6C6C00 
 15821              	.LASF102:
 15822 0add 70776D73 		.ascii	"pwmstate_t\000"
 15822      74617465 
 15822      5F7400
 15823              	.LASF736:
 15824 0ae8 5F5A4E33 		.ascii	"_ZN3r2p9Speed3MsgC2Ev\000"
 15824      72327039 
 15824      53706565 
 15824      64334D73 
 15824      67433245 
 15825              	.LASF580:
 15826 0afe 5F5A4E4B 		.ascii	"_ZNK3r2p10StaticListINS_4NodeEE17find_first_unsafeE"
 15826      33723270 
 15826      31305374 
ARM GAS  /tmp/ccWQ6gKG.s 			page 285


 15826      61746963 
 15826      4C697374 
 15827 0b31 50466252 		.ascii	"PFbRKS1_E\000"
 15827      4B53315F 
 15827      4500
 15828              	.LASF19:
 15829 0b3b 696E7433 		.ascii	"int32_t\000"
 15829      325F7400 
 15830              	.LASF571:
 15831 0b43 5F5A4E4B 		.ascii	"_ZNK3r2p10StaticListINS_4NodeEE13ConstIterator8is_v"
 15831      33723270 
 15831      31305374 
 15831      61746963 
 15831      4C697374 
 15832 0b76 616C6964 		.ascii	"alidEv\000"
 15832      457600
 15833              	.LASF390:
 15834 0b7d 666F7277 		.ascii	"forward_copy_unsafe\000"
 15834      6172645F 
 15834      636F7079 
 15834      5F756E73 
 15834      61666500 
 15835              	.LASF30:
 15836 0b91 73797374 		.ascii	"systime_t\000"
 15836      696D655F 
 15836      7400
 15837              	.LASF715:
 15838 0b9b 5F5A4E33 		.ascii	"_ZN3PIDC2Ev\000"
 15838      50494443 
 15838      32457600 
 15839              	.LASF661:
 15840 0ba7 43616C6C 		.ascii	"Callback\000"
 15840      6261636B 
 15840      00
 15841              	.LASF455:
 15842 0bb0 5F5A4E33 		.ascii	"_ZN3r2p10StaticListINS_14LocalPublisherEE16link_tai"
 15842      72327031 
 15842      30537461 
 15842      7469634C 
 15842      69737449 
 15843 0be3 6C5F756E 		.ascii	"l_unsafeERNS2_4LinkE\000"
 15843      73616665 
 15843      45524E53 
 15843      325F344C 
 15843      696E6B45 
 15844              	.LASF636:
 15845 0bf8 5F5A4E33 		.ascii	"_ZN3r2p4Node9subscribeINS_9PIDCfgMsgELj5EEEbRNS_10S"
 15845      72327034 
 15845      4E6F6465 
 15845      39737562 
 15845      73637269 
 15846 0c2b 75627363 		.ascii	"ubscriberIT_XT0_EEEPKc\000"
 15846      72696265 
 15846      7249545F 
 15846      5854305F 
 15846      45454550 
 15847              	.LASF519:
ARM GAS  /tmp/ccWQ6gKG.s 			page 286


 15848 0c42 7365745F 		.ascii	"set_priority\000"
 15848      7072696F 
 15848      72697479 
 15848      00
 15849              	.LASF468:
 15850 0c4f 5F5A4E4B 		.ascii	"_ZNK3r2p10StaticListINS_14LocalPublisherEE8is_empty"
 15850      33723270 
 15850      31305374 
 15850      61746963 
 15850      4C697374 
 15851 0c82 457600   		.ascii	"Ev\000"
 15852              	.LASF582:
 15853 0c85 5F5A4E33 		.ascii	"_ZN3r2p10StaticListINS_4NodeEE12begin_unsafeEv\000"
 15853      72327031 
 15853      30537461 
 15853      7469634C 
 15853      69737449 
 15854              	.LASF602:
 15855 0cb4 5F5A4E4B 		.ascii	"_ZNK3r2p10StaticListINS_4NodeEE7restartERNS2_13Cons"
 15855      33723270 
 15855      31305374 
 15855      61746963 
 15855      4C697374 
 15856 0ce7 74497465 		.ascii	"tIteratorE\000"
 15856      7261746F 
 15856      724500
 15857              	.LASF337:
 15858 0cf2 5F5A4E33 		.ascii	"_ZN3r2p10StaticListINS_5TopicEE7restartERNS2_8Itera"
 15858      72327031 
 15858      30537461 
 15858      7469634C 
 15858      69737449 
 15859 0d25 746F7245 		.ascii	"torE\000"
 15859      00
 15860              	.LASF640:
 15861 0d2a 6765745F 		.ascii	"get_topic\000"
 15861      746F7069 
 15861      6300
 15862              	.LASF598:
 15863 0d34 5F5A4E33 		.ascii	"_ZN3r2p10StaticListINS_4NodeEE3endEv\000"
 15863      72327031 
 15863      30537461 
 15863      7469634C 
 15863      69737449 
 15864              	.LASF235:
 15865 0d59 5F5A4E4B 		.ascii	"_ZNK3r2p10StaticListINS_15LocalSubscriberEE17find_f"
 15865      33723270 
 15865      31305374 
 15865      61746963 
 15865      4C697374 
 15866 0d8c 69727374 		.ascii	"irst_unsafeEPFbRKS1_PKvES6_\000"
 15866      5F756E73 
 15866      61666545 
 15866      50466252 
 15866      4B53315F 
 15867              	.LASF645:
 15868 0da8 5F5A4E33 		.ascii	"_ZN3r2p14BaseSubscriber13notify_unsafeERNS_7Message"
ARM GAS  /tmp/ccWQ6gKG.s 			page 287


 15868      72327031 
 15868      34426173 
 15868      65537562 
 15868      73637269 
 15869 0ddb 45524B4E 		.ascii	"ERKNS_4TimeE\000"
 15869      535F3454 
 15869      696D6545 
 15869      00
 15870              	.LASF753:
 15871 0de8 5F5A4E33 		.ascii	"_ZN3r2p16SubscriberExtBufINS_10EncoderMsgEEC2EPPS1_"
 15871      72327031 
 15871      36537562 
 15871      73637269 
 15871      62657245 
 15872 0e1b 6A504662 		.ascii	"jPFbRKS1_E\000"
 15872      524B5331 
 15872      5F4500
 15873              	.LASF366:
 15874 0e26 5F5A4E4B 		.ascii	"_ZNK3r2p5Topic21has_remote_publishersEv\000"
 15874      33723270 
 15874      35546F70 
 15874      69633231 
 15874      6861735F 
 15875              	.LASF746:
 15876 0e4e 5F5A4E33 		.ascii	"_ZN3r2p10SubscriberINS_9PIDCfgMsgELj5EEC2EPFbRKS1_E"
 15876      72327031 
 15876      30537562 
 15876      73637269 
 15876      62657249 
 15877 0e81 00       		.ascii	"\000"
 15878              	.LASF332:
 15879 0e82 5F5A4E4B 		.ascii	"_ZNK3r2p10StaticListINS_5TopicEE8containsERKS1_\000"
 15879      33723270 
 15879      31305374 
 15879      61746963 
 15879      4C697374 
 15880              	.LASF421:
 15881 0eb2 5F5A4E4B 		.ascii	"_ZNK3r2p7Message12get_raw_dataEv\000"
 15881      33723270 
 15881      374D6573 
 15881      73616765 
 15881      31326765 
 15882              	.LASF484:
 15883 0ed3 6C656E67 		.ascii	"length\000"
 15883      746800
 15884              	.LASF372:
 15885 0eda 5F5A4E4B 		.ascii	"_ZNK3r2p5Topic22has_remote_subscribersEv\000"
 15885      33723270 
 15885      35546F70 
 15885      69633232 
 15885      6861735F 
 15886              	.LASF346:
 15887 0f03 6E756D5F 		.ascii	"num_remote_publishers\000"
 15887      72656D6F 
 15887      74655F70 
 15887      75626C69 
 15887      73686572 
ARM GAS  /tmp/ccWQ6gKG.s 			page 288


 15888              	.LASF462:
 15889 0f19 5F5A4E33 		.ascii	"_ZN3r2p10StaticListINS_14LocalPublisherEE10end_unsa"
 15889      72327031 
 15889      30537461 
 15889      7469634C 
 15889      69737449 
 15890 0f4c 66654576 		.ascii	"feEv\000"
 15890      00
 15891              	.LASF214:
 15892 0f51 5F5A4E4B 		.ascii	"_ZNK3r2p10StaticListINS_15LocalSubscriberEE13ConstI"
 15892      33723270 
 15892      31305374 
 15892      61746963 
 15892      4C697374 
 15893 0f84 74657261 		.ascii	"terator8is_validEv\000"
 15893      746F7238 
 15893      69735F76 
 15893      616C6964 
 15893      457600
 15894              	.LASF87:
 15895 0f97 31324750 		.ascii	"12GPIO_TypeDef\000"
 15895      494F5F54 
 15895      79706544 
 15895      656600
 15896              	.LASF236:
 15897 0fa6 62656769 		.ascii	"begin_unsafe\000"
 15897      6E5F756E 
 15897      73616665 
 15897      00
 15898              	.LASF669:
 15899 0fb3 6765745F 		.ascii	"get_callback\000"
 15899      63616C6C 
 15899      6261636B 
 15899      00
 15900              	.LASF374:
 15901 0fc0 5F5A4E4B 		.ascii	"_ZNK3r2p5Topic15has_subscribersEv\000"
 15901      33723270 
 15901      35546F70 
 15901      69633135 
 15901      6861735F 
 15902              	.LASF149:
 15903 0fe2 66726565 		.ascii	"free\000"
 15903      00
 15904              	.LASF270:
 15905 0fe7 53746174 		.ascii	"StaticList\000"
 15905      69634C69 
 15905      737400
 15906              	.LASF356:
 15907 0ff2 5F5A4E4B 		.ascii	"_ZNK3r2p5Topic13get_type_sizeEv\000"
 15907      33723270 
 15907      35546F70 
 15907      69633133 
 15907      6765745F 
 15908              	.LASF49:
 15909 1012 705F7761 		.ascii	"p_waiting\000"
 15909      6974696E 
 15909      6700
ARM GAS  /tmp/ccWQ6gKG.s 			page 289


 15910              	.LASF384:
 15911 101c 5F5A4E33 		.ascii	"_ZN3r2p5Topic14release_unsafeERNS_7MessageE\000"
 15911      72327035 
 15911      546F7069 
 15911      63313472 
 15911      656C6561 
 15912              	.LASF761:
 15913 1048 726C6973 		.ascii	"rlist\000"
 15913      7400
 15914              	.LASF395:
 15915 104e 5F5A4E33 		.ascii	"_ZN3r2p5Topic5allocEv\000"
 15915      72327035 
 15915      546F7069 
 15915      6335616C 
 15915      6C6F6345 
 15916              	.LASF183:
 15917 1064 5F5A4E33 		.ascii	"_ZN3r2p4TimemIERKS0_\000"
 15917      72327034 
 15917      54696D65 
 15917      6D494552 
 15917      4B53305F 
 15918              	.LASF529:
 15919 1079 48494748 		.ascii	"HIGHEST\000"
 15919      45535400 
 15920              	.LASF58:
 15921 1081 31315468 		.ascii	"11ThreadsList\000"
 15921      72656164 
 15921      734C6973 
 15921      7400
 15922              	.LASF438:
 15923 108f 4C6F6361 		.ascii	"LocalPublisher\000"
 15923      6C507562 
 15923      6C697368 
 15923      657200
 15924              	.LASF312:
 15925 109e 5F5A4E4B 		.ascii	"_ZNK3r2p10StaticListINS_5TopicEE12count_unsafeEv\000"
 15925      33723270 
 15925      31305374 
 15925      61746963 
 15925      4C697374 
 15926              	.LASF759:
 15927 10cf 5F5F696E 		.ascii	"__initialize_p\000"
 15927      69746961 
 15927      6C697A65 
 15927      5F7000
 15928              	.LASF665:
 15929 10de 4D657373 		.ascii	"MessageType\000"
 15929      61676554 
 15929      79706500 
 15930              	.LASF681:
 15931 10ea 53756273 		.ascii	"Subscriber<r2p::Speed3Msg, 5u>\000"
 15931      63726962 
 15931      65723C72 
 15931      32703A3A 
 15931      53706565 
 15932              	.LASF150:
 15933 1109 5F5A4E33 		.ascii	"_ZN3r2p11MemoryPool_11free_unsafeEPv\000"
ARM GAS  /tmp/ccWQ6gKG.s 			page 290


 15933      72327031 
 15933      314D656D 
 15933      6F727950 
 15933      6F6F6C5F 
 15934              	.LASF264:
 15935 112e 72657374 		.ascii	"restart\000"
 15935      61727400 
 15936              	.LASF168:
 15937 1136 746F5F6D 		.ascii	"to_m_raw\000"
 15937      5F726177 
 15937      00
 15938              	.LASF27:
 15939 113f 74707269 		.ascii	"tprio_t\000"
 15939      6F5F7400 
 15940              	.LASF82:
 15941 1147 6D705F6F 		.ascii	"mp_object_size\000"
 15941      626A6563 
 15941      745F7369 
 15941      7A6500
 15942              	.LASF216:
 15943 1156 4D617463 		.ascii	"Matches\000"
 15943      68657300 
 15944              	.LASF711:
 15945 115e 6576656E 		.ascii	"event_index\000"
 15945      745F696E 
 15945      64657800 
 15946              	.LASF776:
 15947 116a 70776D63 		.ascii	"pwmcb\000"
 15947      6200
 15948              	.LASF490:
 15949 1170 5F5A4E33 		.ascii	"_ZN3r2p10ArrayQueueIPNS_7MessageEE11skip_unsafeEv\000"
 15949      72327031 
 15949      30417272 
 15949      61795175 
 15949      65756549 
 15950              	.LASF226:
 15951 11a2 5F5A4E33 		.ascii	"_ZN3r2p10StaticListINS_15LocalSubscriberEE16link_ta"
 15951      72327031 
 15951      30537461 
 15951      7469634C 
 15951      69737449 
 15952 11d5 696C5F75 		.ascii	"il_unsafeERNS2_4LinkE\000"
 15952      6E736166 
 15952      6545524E 
 15952      53325F34 
 15952      4C696E6B 
 15953              	.LASF84:
 15954 11eb 4D656D6F 		.ascii	"MemoryPool\000"
 15954      7279506F 
 15954      6F6C00
 15955              	.LASF195:
 15956 11f6 68656164 		.ascii	"headp\000"
 15956      7000
 15957              	.LASF113:
 15958 11fc 43434552 		.ascii	"CCER\000"
 15958      00
 15959              	.LASF659:
ARM GAS  /tmp/ccWQ6gKG.s 			page 291


 15960 1201 6D736770 		.ascii	"msgpool_buf\000"
 15960      6F6F6C5F 
 15960      62756600 
 15961              	.LASF99:
 15962 120d 50574D5F 		.ascii	"PWM_UNINIT\000"
 15962      554E494E 
 15962      495400
 15963              	.LASF253:
 15964 1218 756E6C69 		.ascii	"unlink\000"
 15964      6E6B00
 15965              	.LASF204:
 15966 121f 6F706572 		.ascii	"operator*\000"
 15966      61746F72 
 15966      2A00
 15967              	.LASF694:
 15968 1229 6F706572 		.ascii	"operator-\000"
 15968      61746F72 
 15968      2D00
 15969              	.LASF347:
 15970 1233 6C6F6361 		.ascii	"local_subscribers\000"
 15970      6C5F7375 
 15970      62736372 
 15970      69626572 
 15970      7300
 15971              	.LASF86:
 15972 1245 7466756E 		.ascii	"tfunc_t\000"
 15972      635F7400 
 15973              	.LASF670:
 15974 124d 5F5A4E4B 		.ascii	"_ZNK3r2p16SubscriberExtBufINS_9PIDCfgMsgEE12get_cal"
 15974      33723270 
 15974      31365375 
 15974      62736372 
 15974      69626572 
 15975 1280 6C626163 		.ascii	"lbackEv\000"
 15975      6B457600 
 15976              	.LASF5:
 15977 1288 5F5F696E 		.ascii	"__int16_t\000"
 15977      7431365F 
 15977      7400
 15978              	.LASF178:
 15979 1292 6F706572 		.ascii	"operator=\000"
 15979      61746F72 
 15979      3D00
 15980              	.LASF692:
 15981 129c 6F706572 		.ascii	"operator>\000"
 15981      61746F72 
 15981      3E00
 15982              	.LASF7:
 15983 12a6 5F5F7569 		.ascii	"__uint16_t\000"
 15983      6E743136 
 15983      5F7400
 15984              	.LASF51:
 15985 12b1 705F6D73 		.ascii	"p_msg\000"
 15985      6700
 15986              	.LASF322:
 15987 12b7 5F5A4E33 		.ascii	"_ZN3r2p10StaticListINS_5TopicEE14restart_unsafeERNS"
 15987      72327031 
ARM GAS  /tmp/ccWQ6gKG.s 			page 292


 15987      30537461 
 15987      7469634C 
 15987      69737449 
 15988 12ea 325F3134 		.ascii	"2_14IteratorUnsafeE\000"
 15988      49746572 
 15988      61746F72 
 15988      556E7361 
 15988      66654500 
 15989              	.LASF199:
 15990 12fe 63757270 		.ascii	"curp\000"
 15990      00
 15991              	.LASF540:
 15992 1303 5F5A4E33 		.ascii	"_ZN3r2p6Thread5yieldEv\000"
 15992      72327036 
 15992      54687265 
 15992      61643579 
 15992      69656C64 
 15993              	.LASF173:
 15994 131a 5F5A4E4B 		.ascii	"_ZNK3r2p4Time5to_msEv\000"
 15994      33723270 
 15994      3454696D 
 15994      6535746F 
 15994      5F6D7345 
 15995              	.LASF458:
 15996 1330 5F5A4E4B 		.ascii	"_ZNK3r2p10StaticListINS_14LocalPublisherEE15contain"
 15996      33723270 
 15996      31305374 
 15996      61746963 
 15996      4C697374 
 15997 1363 735F756E 		.ascii	"s_unsafeERKS1_\000"
 15997      73616665 
 15997      45524B53 
 15997      315F00
 15998              	.LASF302:
 15999 1372 5F5A4E33 		.ascii	"_ZN3r2p10StaticListINS_16RemoteSubscriberEE5beginEv"
 15999      72327031 
 15999      30537461 
 15999      7469634C 
 15999      69737449 
 16000 13a5 00       		.ascii	"\000"
 16001              	.LASF483:
 16002 13a6 61727261 		.ascii	"arrayp\000"
 16002      797000
 16003              	.LASF175:
 16004 13ad 5F5A4E4B 		.ascii	"_ZNK3r2p4Time4to_sEv\000"
 16004      33723270 
 16004      3454696D 
 16004      6534746F 
 16004      5F734576 
 16005              	.LASF671:
 16006 13c2 5F5A4E33 		.ascii	"_ZN3r2p16SubscriberExtBufINS_9PIDCfgMsgEE5fetchERPS"
 16006      72327031 
 16006      36537562 
 16006      73637269 
 16006      62657245 
 16007 13f5 315F00   		.ascii	"1_\000"
 16008              	.LASF303:
ARM GAS  /tmp/ccWQ6gKG.s 			page 293


 16009 13f8 5F5A4E33 		.ascii	"_ZN3r2p10StaticListINS_16RemoteSubscriberEE3endEv\000"
 16009      72327031 
 16009      30537461 
 16009      7469634C 
 16009      69737449 
 16010              	.LASF544:
 16011 142a 74687265 		.ascii	"threadp\000"
 16011      61647000 
 16012              	.LASF124:
 16013 1432 6D6F6465 		.ascii	"mode\000"
 16013      00
 16014              	.LASF756:
 16015 1437 5F5A4E33 		.ascii	"_ZN3r2p16SubscriberExtBufINS_9PIDCfgMsgEEC2EPPS1_jP"
 16015      72327031 
 16015      36537562 
 16015      73637269 
 16015      62657245 
 16016 146a 4662524B 		.ascii	"FbRKS1_E\000"
 16016      53315F45 
 16016      00
 16017              	.LASF551:
 16018 1473 7369676E 		.ascii	"signal_unsafe\000"
 16018      616C5F75 
 16018      6E736166 
 16018      6500
 16019              	.LASF704:
 16020 1481 5F6D6178 		.ascii	"_max\000"
 16020      00
 16021              	.LASF146:
 16022 1486 66726565 		.ascii	"free_unsafe\000"
 16022      5F756E73 
 16022      61666500 
 16023              	.LASF61:
 16024 1492 73746B61 		.ascii	"stkalign_t\000"
 16024      6C69676E 
 16024      5F7400
 16025              	.LASF693:
 16026 149d 5F5A4E33 		.ascii	"_ZN3r2pgtERKNS_4TimeES2_\000"
 16026      72327067 
 16026      7445524B 
 16026      4E535F34 
 16026      54696D65 
 16027              	.LASF97:
 16028 14b6 4750494F 		.ascii	"GPIO_TypeDef\000"
 16028      5F547970 
 16028      65446566 
 16028      00
 16029              	.LASF627:
 16030 14c3 5F5A4E33 		.ascii	"_ZN3r2p4Node9advertiseERNS_14LocalPublisherEPKcRKNS"
 16030      72327034 
 16030      4E6F6465 
 16030      39616476 
 16030      65727469 
 16031 14f6 5F345469 		.ascii	"_4TimeEj\000"
 16031      6D65456A 
 16031      00
 16032              	.LASF261:
ARM GAS  /tmp/ccWQ6gKG.s 			page 294


 16033 14ff 5F5A4E4B 		.ascii	"_ZNK3r2p10StaticListINS_15LocalSubscriberEE10find_f"
 16033      33723270 
 16033      31305374 
 16033      61746963 
 16033      4C697374 
 16034 1532 69727374 		.ascii	"irstEPFbRKS1_PKvES6_\000"
 16034      45504662 
 16034      524B5331 
 16034      5F504B76 
 16034      4553365F 
 16035              	.LASF616:
 16036 1547 5F5A4E33 		.ascii	"_ZN3r2p4Node11set_enabledEb\000"
 16036      72327034 
 16036      4E6F6465 
 16036      31317365 
 16036      745F656E 
 16037              	.LASF682:
 16038 1563 53756273 		.ascii	"SubscriberExtBuf<r2p::Speed3Msg>\000"
 16038      63726962 
 16038      65724578 
 16038      74427566 
 16038      3C723270 
 16039              	.LASF4:
 16040 1584 756E7369 		.ascii	"unsigned char\000"
 16040      676E6564 
 16040      20636861 
 16040      7200
 16041              	.LASF155:
 16042 1592 5F5A4E33 		.ascii	"_ZN3r2p11MemoryPool_8get_implEv\000"
 16042      72327031 
 16042      314D656D 
 16042      6F727950 
 16042      6F6F6C5F 
 16043              	.LASF525:
 16044 15b2 52454144 		.ascii	"READY\000"
 16044      5900
 16045              	.LASF618:
 16046 15b8 5F5A4E33 		.ascii	"_ZN3r2p4Node13notify_unsafeEj\000"
 16046      72327034 
 16046      4E6F6465 
 16046      31336E6F 
 16046      74696679 
 16047              	.LASF739:
 16048 15d6 5F5A4E33 		.ascii	"_ZN3r2p10SubscriberINS_9Speed3MsgELj5EED2Ev\000"
 16048      72327031 
 16048      30537562 
 16048      73637269 
 16048      62657249 
 16049              	.LASF696:
 16050 1602 666C6F61 		.ascii	"float\000"
 16050      7400
 16051              	.LASF499:
 16052 1608 736B6970 		.ascii	"skip\000"
 16052      00
 16053              	.LASF338:
 16054 160d 5F5A4E4B 		.ascii	"_ZNK3r2p10StaticListINS_5TopicEE5beginEv\000"
 16054      33723270 
ARM GAS  /tmp/ccWQ6gKG.s 			page 295


 16054      31305374 
 16054      61746963 
 16054      4C697374 
 16055              	.LASF423:
 16056 1636 5F5A4E33 		.ascii	"_ZN3r2p7Message14acquire_unsafeEv\000"
 16056      72327037 
 16056      4D657373 
 16056      61676531 
 16056      34616371 
 16057              	.LASF266:
 16058 1658 5F5A4E4B 		.ascii	"_ZNK3r2p10StaticListINS_15LocalSubscriberEE5beginEv"
 16058      33723270 
 16058      31305374 
 16058      61746963 
 16058      4C697374 
 16059 168b 00       		.ascii	"\000"
 16060              	.LASF731:
 16061 168c 6C617374 		.ascii	"last_setpoint\000"
 16061      5F736574 
 16061      706F696E 
 16061      7400
 16062              	.LASF304:
 16063 169a 5F5A4E33 		.ascii	"_ZN3r2p10StaticListINS_16RemoteSubscriberEE7restart"
 16063      72327031 
 16063      30537461 
 16063      7469634C 
 16063      69737449 
 16064 16cd 45524E53 		.ascii	"ERNS2_8IteratorE\000"
 16064      325F3849 
 16064      74657261 
 16064      746F7245 
 16064      00
 16065              	.LASF773:
 16066 16de 5072696F 		.ascii	"PriorityEnum\000"
 16066      72697479 
 16066      456E756D 
 16066      00
 16067              	.LASF78:
 16068 16eb 706F6F6C 		.ascii	"pool_header\000"
 16068      5F686561 
 16068      64657200 
 16069              	.LASF719:
 16070 16f7 6F757470 		.ascii	"output\000"
 16070      757400
 16071              	.LASF543:
 16072 16fe 5370696E 		.ascii	"SpinEvent_\000"
 16072      4576656E 
 16072      745F00
 16073              	.LASF110:
 16074 1709 44494552 		.ascii	"DIER\000"
 16074      00
 16075              	.LASF507:
 16076 170e 636F6D70 		.ascii	"compute_stack_size\000"
 16076      7574655F 
 16076      73746163 
 16076      6B5F7369 
 16076      7A6500
ARM GAS  /tmp/ccWQ6gKG.s 			page 296


 16077              	.LASF39:
 16078 1721 705F6374 		.ascii	"p_ctx\000"
 16078      7800
 16079              	.LASF656:
 16080 1727 64656C74 		.ascii	"delta\000"
 16080      6100
 16081              	.LASF623:
 16082 172d 6E6F7469 		.ascii	"notify_stop\000"
 16082      66795F73 
 16082      746F7000 
 16083              	.LASF71:
 16084 1739 725F6375 		.ascii	"r_current\000"
 16084      7272656E 
 16084      7400
 16085              	.LASF355:
 16086 1743 6765745F 		.ascii	"get_type_size\000"
 16086      74797065 
 16086      5F73697A 
 16086      6500
 16087              	.LASF620:
 16088 1751 5F5A4E33 		.ascii	"_ZN3r2p4Node18notify_stop_unsafeEv\000"
 16088      72327034 
 16088      4E6F6465 
 16088      31386E6F 
 16088      74696679 
 16089              	.LASF323:
 16090 1774 5F5A4E4B 		.ascii	"_ZNK3r2p10StaticListINS_5TopicEE12begin_unsafeEv\000"
 16090      33723270 
 16090      31305374 
 16090      61746963 
 16090      4C697374 
 16091              	.LASF676:
 16092 17a5 53756273 		.ascii	"SubscriberExtBuf<r2p::EncoderMsg>\000"
 16092      63726962 
 16092      65724578 
 16092      74427566 
 16092      3C723270 
 16093              	.LASF565:
 16094 17c7 5F5A4E4B 		.ascii	"_ZNK3r2p10StaticListINS_4NodeEE13ConstIteratorptEv\000"
 16094      33723270 
 16094      31305374 
 16094      61746963 
 16094      4C697374 
 16095              	.LASF201:
 16096 17fa 5F5A4E33 		.ascii	"_ZN3r2p10StaticListINS_15LocalSubscriberEE13ConstIt"
 16096      72327031 
 16096      30537461 
 16096      7469634C 
 16096      69737449 
 16097 182d 65726174 		.ascii	"eratoraSERKS3_\000"
 16097      6F726153 
 16097      45524B53 
 16097      335F00
 16098              	.LASF603:
 16099 183c 4E6F6465 		.ascii	"Node\000"
 16099      00
 16100              	.LASF760:
ARM GAS  /tmp/ccWQ6gKG.s 			page 297


 16101 1841 5F5F7072 		.ascii	"__priority\000"
 16101      696F7269 
 16101      747900
 16102              	.LASF675:
 16103 184c 53756273 		.ascii	"Subscriber<r2p::EncoderMsg, 5u>\000"
 16103      63726962 
 16103      65723C72 
 16103      32703A3A 
 16103      456E636F 
 16104              	.LASF607:
 16105 186c 74696D65 		.ascii	"timeout\000"
 16105      6F757400 
 16106              	.LASF193:
 16107 1874 6974656D 		.ascii	"itemp\000"
 16107      7000
 16108              	.LASF215:
 16109 187a 50726564 		.ascii	"Predicate\000"
 16109      69636174 
 16109      6500
 16110              	.LASF21:
 16111 1884 75696E74 		.ascii	"uint64_t\000"
 16111      36345F74 
 16111      00
 16112              	.LASF359:
 16113 188d 6765745F 		.ascii	"get_max_queue_length\000"
 16113      6D61785F 
 16113      71756575 
 16113      655F6C65 
 16113      6E677468 
 16114              	.LASF341:
 16115 18a2 546F7069 		.ascii	"Topic\000"
 16115      6300
 16116              	.LASF31:
 16117 18a8 54687265 		.ascii	"Thread\000"
 16117      616400
 16118              	.LASF177:
 16119 18af 5F5A4E4B 		.ascii	"_ZNK3r2p4Time4to_mEv\000"
 16119      33723270 
 16119      3454696D 
 16119      6534746F 
 16119      5F6D4576 
 16120              	.LASF401:
 16121 18c4 6E6F7469 		.ascii	"notify_remotes\000"
 16121      66795F72 
 16121      656D6F74 
 16121      657300
 16122              	.LASF248:
 16123 18d3 5F5A4E4B 		.ascii	"_ZNK3r2p10StaticListINS_15LocalSubscriberEE8is_empt"
 16123      33723270 
 16123      31305374 
 16123      61746963 
 16123      4C697374 
 16124 1906 79457600 		.ascii	"yEv\000"
 16125              	.LASF279:
 16126 190a 5F5A4E4B 		.ascii	"_ZNK3r2p10StaticListINS_16RemoteSubscriberEE12count"
 16126      33723270 
 16126      31305374 
ARM GAS  /tmp/ccWQ6gKG.s 			page 298


 16126      61746963 
 16126      4C697374 
 16127 193d 5F756E73 		.ascii	"_unsafeEv\000"
 16127      61666545 
 16127      7600
 16128              	.LASF72:
 16129 1947 52656164 		.ascii	"ReadyList\000"
 16129      794C6973 
 16129      7400
 16130              	.LASF515:
 16131 1951 73656C66 		.ascii	"self\000"
 16131      00
 16132              	.LASF749:
 16133 1956 71756575 		.ascii	"queue_length\000"
 16133      655F6C65 
 16133      6E677468 
 16133      00
 16134              	.LASF605:
 16135 1963 73756273 		.ascii	"subscribers\000"
 16135      63726962 
 16135      65727300 
 16136              	.LASF449:
 16137 196f 5F5A4E4B 		.ascii	"_ZNK3r2p10StaticListINS_14LocalPublisherEE13ConstIt"
 16137      33723270 
 16137      31305374 
 16137      61746963 
 16137      4C697374 
 16138 19a2 65726174 		.ascii	"eratorneERKS3_\000"
 16138      6F726E65 
 16138      45524B53 
 16138      335F00
 16139              	.LASF471:
 16140 19b1 5F5A4E33 		.ascii	"_ZN3r2p10StaticListINS_14LocalPublisherEE6unlinkERN"
 16140      72327031 
 16140      30537461 
 16140      7469634C 
 16140      69737449 
 16141 19e4 53325F34 		.ascii	"S2_4LinkE\000"
 16141      4C696E6B 
 16141      4500
 16142              	.LASF271:
 16143 19ee 4974656D 		.ascii	"Item\000"
 16143      00
 16144              	.LASF707:
 16145 19f3 75706461 		.ascii	"update\000"
 16145      746500
 16146              	.LASF482:
 16147 19fa 41727261 		.ascii	"ArrayQueue<r2p::Message*>\000"
 16147      79517565 
 16147      75653C72 
 16147      32703A3A 
 16147      4D657373 
 16148              	.LASF748:
 16149 1a14 5F5A4E33 		.ascii	"_ZN3r2p10SubscriberINS_9PIDCfgMsgELj5EED0Ev\000"
 16149      72327031 
 16149      30537562 
 16149      73637269 
ARM GAS  /tmp/ccWQ6gKG.s 			page 299


 16149      62657249 
 16150              	.LASF702:
 16151 1a40 5F736574 		.ascii	"_setpoint\000"
 16151      706F696E 
 16151      7400
 16152              	.LASF170:
 16153 1a4a 746F5F75 		.ascii	"to_us\000"
 16153      7300
 16154              	.LASF139:
 16155 1a50 696D706C 		.ascii	"impl\000"
 16155      00
 16156              	.LASF643:
 16157 1a55 6E6F7469 		.ascii	"notify_subscribed\000"
 16157      66795F73 
 16157      75627363 
 16157      72696265 
 16157      6400
 16158              	.LASF561:
 16159 1a67 5F5A4E33 		.ascii	"_ZN3r2p9SpinEvent6signalEj\000"
 16159      72327039 
 16159      5370696E 
 16159      4576656E 
 16159      74367369 
 16160              	.LASF526:
 16161 1a82 49444C45 		.ascii	"IDLE\000"
 16161      00
 16162              	.LASF143:
 16163 1a87 5F5A4E4B 		.ascii	"_ZNK3r2p11MemoryPool_13get_allocatorEv\000"
 16163      33723270 
 16163      31314D65 
 16163      6D6F7279 
 16163      506F6F6C 
 16164              	.LASF330:
 16165 1aae 5F5A4E33 		.ascii	"_ZN3r2p10StaticListINS_5TopicEE6unlinkERNS2_4LinkE\000"
 16165      72327031 
 16165      30537461 
 16165      7469634C 
 16165      69737449 
 16166              	.LASF534:
 16167 1ae1 5F5A4E33 		.ascii	"_ZN3r2p6Thread11create_heapEPvjmPFlS1_ES1_PKc\000"
 16167      72327036 
 16167      54687265 
 16167      61643131 
 16167      63726561 
 16168              	.LASF593:
 16169 1b0f 5F5A4E4B 		.ascii	"_ZNK3r2p10StaticListINS_4NodeEE8index_ofERKS1_\000"
 16169      33723270 
 16169      31305374 
 16169      61746963 
 16169      4C697374 
 16170              	.LASF103:
 16171 1b3e 50574D44 		.ascii	"PWMDriver\000"
 16171      72697665 
 16171      7200
 16172              	.LASF131:
 16173 1b48 50574D43 		.ascii	"PWMConfig\000"
 16173      6F6E6669 
ARM GAS  /tmp/ccWQ6gKG.s 			page 300


 16173      6700
 16174              	.LASF767:
 16175 1b52 6E6F6465 		.ascii	"nodes/pid_node.cpp\000"
 16175      732F7069 
 16175      645F6E6F 
 16175      64652E63 
 16175      707000
 16176              	.LASF148:
 16177 1b65 5F5A4E33 		.ascii	"_ZN3r2p11MemoryPool_5allocEv\000"
 16177      72327031 
 16177      314D656D 
 16177      6F727950 
 16177      6F6F6C5F 
 16178              	.LASF73:
 16179 1b82 4D757465 		.ascii	"Mutex\000"
 16179      7800
 16180              	.LASF460:
 16181 1b88 5F5A4E4B 		.ascii	"_ZNK3r2p10StaticListINS_14LocalPublisherEE17find_fi"
 16181      33723270 
 16181      31305374 
 16181      61746963 
 16181      4C697374 
 16182 1bbb 7273745F 		.ascii	"rst_unsafeEPFbRKS1_PKvES6_\000"
 16182      756E7361 
 16182      66654550 
 16182      4662524B 
 16182      53315F50 
 16183              	.LASF244:
 16184 1bd6 5F5A4E4B 		.ascii	"_ZNK3r2p10StaticListINS_15LocalSubscriberEE14restar"
 16184      33723270 
 16184      31305374 
 16184      61746963 
 16184      4C697374 
 16185 1c09 745F756E 		.ascii	"t_unsafeERNS2_19ConstIteratorUnsafeE\000"
 16185      73616665 
 16185      45524E53 
 16185      325F3139 
 16185      436F6E73 
 16186              	.LASF654:
 16187 1c2e 76616C75 		.ascii	"value\000"
 16187      6500
 16188              	.LASF657:
 16189 1c34 50494443 		.ascii	"PIDCfgMsg\000"
 16189      66674D73 
 16189      6700
 16190              	.LASF549:
 16191 1c3e 7365745F 		.ascii	"set_thread\000"
 16191      74687265 
 16191      616400
 16192              	.LASF272:
 16193 1c49 6765745F 		.ascii	"get_queue_length\000"
 16193      71756575 
 16193      655F6C65 
 16193      6E677468 
 16193      00
 16194              	.LASF160:
 16195 1c5a 494E4649 		.ascii	"INFINITE\000"
ARM GAS  /tmp/ccWQ6gKG.s 			page 301


 16195      4E495445 
 16195      00
 16196              	.LASF130:
 16197 1c63 64696572 		.ascii	"dier\000"
 16197      00
 16198              	.LASF291:
 16199 1c68 5F5A4E4B 		.ascii	"_ZNK3r2p10StaticListINS_16RemoteSubscriberEE10end_u"
 16199      33723270 
 16199      31305374 
 16199      61746963 
 16199      4C697374 
 16200 1c9b 6E736166 		.ascii	"nsafeEv\000"
 16200      65457600 
 16201              	.LASF221:
 16202 1ca3 636F756E 		.ascii	"count_unsafe\000"
 16202      745F756E 
 16202      73616665 
 16202      00
 16203              	.LASF251:
 16204 1cb0 6C696E6B 		.ascii	"link\000"
 16204      00
 16205              	.LASF727:
 16206 1cb5 73706565 		.ascii	"speed_sub\000"
 16206      645F7375 
 16206      6200
 16207              	.LASF68:
 16208 1cbf 725F6374 		.ascii	"r_ctx\000"
 16208      7800
 16209              	.LASF646:
 16210 1cc5 5F5A4E33 		.ascii	"_ZN3r2p14BaseSubscriber12fetch_unsafeERPNS_7Message"
 16210      72327031 
 16210      34426173 
 16210      65537562 
 16210      73637269 
 16211 1cf8 45524E53 		.ascii	"ERNS_4TimeE\000"
 16211      5F345469 
 16211      6D654500 
 16212              	.LASF100:
 16213 1d04 50574D5F 		.ascii	"PWM_STOP\000"
 16213      53544F50 
 16213      00
 16214              	.LASF158:
 16215 1d0d 54797065 		.ascii	"Type\000"
 16215      00
 16216              	.LASF768:
 16217 1d12 2F686F6D 		.ascii	"/home/denny/git/TriskarPixy/motor0/\000"
 16217      652F6465 
 16217      6E6E792F 
 16217      6769742F 
 16217      54726973 
 16218              	.LASF50:
 16219 1d36 705F6D73 		.ascii	"p_msgqueue\000"
 16219      67717565 
 16219      756500
 16220              	.LASF196:
 16221 1d41 49746572 		.ascii	"IteratorUnsafe\000"
 16221      61746F72 
ARM GAS  /tmp/ccWQ6gKG.s 			page 302


 16221      556E7361 
 16221      666500
 16222              	.LASF583:
 16223 1d50 5F5A4E33 		.ascii	"_ZN3r2p10StaticListINS_4NodeEE10end_unsafeEv\000"
 16223      72327031 
 16223      30537461 
 16223      7469634C 
 16223      69737449 
 16224              	.LASF427:
 16225 1d7d 61637175 		.ascii	"acquire\000"
 16225      69726500 
 16226              	.LASF586:
 16227 1d85 5F5A4E4B 		.ascii	"_ZNK3r2p10StaticListINS_4NodeEE10end_unsafeEv\000"
 16227      33723270 
 16227      31305374 
 16227      61746963 
 16227      4C697374 
 16228              	.LASF505:
 16229 1db3 5F5A4E4B 		.ascii	"_ZNK3r2p7Thread_8get_nameEv\000"
 16229      33723270 
 16229      37546872 
 16229      6561645F 
 16229      38676574 
 16230              	.LASF107:
 16231 1dcf 636C6F63 		.ascii	"clock\000"
 16231      6B00
 16232              	.LASF329:
 16233 1dd5 5F5A4E33 		.ascii	"_ZN3r2p10StaticListINS_5TopicEE4linkERNS2_4LinkE\000"
 16233      72327031 
 16233      30537461 
 16233      7469634C 
 16233      69737449 
 16234              	.LASF88:
 16235 1e06 636C6561 		.ascii	"clear\000"
 16235      7200
 16236              	.LASF527:
 16237 1e0c 4C4F5745 		.ascii	"LOWEST\000"
 16237      535400
 16238              	.LASF716:
 16239 1e13 73657470 		.ascii	"setpoint\000"
 16239      6F696E74 
 16239      00
 16240              	.LASF435:
 16241 1e1c 5F5A4E33 		.ascii	"_ZN3r2p7Message21get_msg_from_raw_dataEPKh\000"
 16241      72327037 
 16241      4D657373 
 16241      61676532 
 16241      31676574 
 16242              	.LASF2:
 16243 1e47 73697A65 		.ascii	"size_t\000"
 16243      5F7400
 16244              	.LASF437:
 16245 1e4e 5F5A4E33 		.ascii	"_ZN3r2p7Message13get_type_sizeEj\000"
 16245      72327037 
 16245      4D657373 
 16245      61676531 
 16245      33676574 
ARM GAS  /tmp/ccWQ6gKG.s 			page 303


 16246              	.LASF315:
 16247 1e6f 5F5A4E33 		.ascii	"_ZN3r2p10StaticListINS_5TopicEE13unlink_unsafeERNS2"
 16247      72327031 
 16247      30537461 
 16247      7469634C 
 16247      69737449 
 16248 1ea2 5F344C69 		.ascii	"_4LinkE\000"
 16248      6E6B4500 
 16249              	.LASF159:
 16250 1eaa 494D4D45 		.ascii	"IMMEDIATE\000"
 16250      44494154 
 16250      4500
 16251              	.LASF56:
 16252 1eb4 54687265 		.ascii	"ThreadsQueue\000"
 16252      61647351 
 16252      75657565 
 16252      00
 16253              	.LASF16:
 16254 1ec1 75696E74 		.ascii	"uint8_t\000"
 16254      385F7400 
 16255              	.LASF70:
 16256 1ec9 725F6F6C 		.ascii	"r_older\000"
 16256      64657200 
 16257              	.LASF37:
 16258 1ed1 705F7072 		.ascii	"p_prev\000"
 16258      657600
 16259              	.LASF126:
 16260 1ed8 50574D43 		.ascii	"PWMChannelConfig\000"
 16260      68616E6E 
 16260      656C436F 
 16260      6E666967 
 16260      00
 16261              	.LASF121:
 16262 1ee9 70776D63 		.ascii	"pwmcnt_t\000"
 16262      6E745F74 
 16262      00
 16263              	.LASF416:
 16264 1ef2 5F5A4E33 		.ascii	"_ZN3r2p5Topic8has_nameERKS0_PKc\000"
 16264      72327035 
 16264      546F7069 
 16264      63386861 
 16264      735F6E61 
 16265              	.LASF718:
 16266 1f12 6572726F 		.ascii	"error\000"
 16266      7200
 16267              	.LASF703:
 16268 1f18 5F6D696E 		.ascii	"_min\000"
 16268      00
 16269              	.LASF456:
 16270 1f1d 5F5A4E33 		.ascii	"_ZN3r2p10StaticListINS_14LocalPublisherEE13unlink_u"
 16270      72327031 
 16270      30537461 
 16270      7469634C 
 16270      69737449 
 16271 1f50 6E736166 		.ascii	"nsafeERNS2_4LinkE\000"
 16271      6545524E 
 16271      53325F34 
ARM GAS  /tmp/ccWQ6gKG.s 			page 304


 16271      4C696E6B 
 16271      4500
 16272              	.LASF256:
 16273 1f62 5F5A4E4B 		.ascii	"_ZNK3r2p10StaticListINS_15LocalSubscriberEE8index_o"
 16273      33723270 
 16273      31305374 
 16273      61746963 
 16273      4C697374 
 16274 1f95 6645524B 		.ascii	"fERKS1_\000"
 16274      53315F00 
 16275              	.LASF732:
 16276 1f9d 6D696372 		.ascii	"microseconds\000"
 16276      6F736563 
 16276      6F6E6473 
 16276      00
 16277              	.LASF274:
 16278 1faa 5F5A4E4B 		.ascii	"_ZNK3r2p15LocalSubscriber16get_queue_lengthEv\000"
 16278      33723270 
 16278      31354C6F 
 16278      63616C53 
 16278      75627363 
 16279              	.LASF590:
 16280 1fd8 5F5A4E4B 		.ascii	"_ZNK3r2p10StaticListINS_4NodeEE5countEv\000"
 16280      33723270 
 16280      31305374 
 16280      61746963 
 16280      4C697374 
 16281              	.LASF33:
 16282 2000 65786974 		.ascii	"exitcode\000"
 16282      636F6465 
 16282      00
 16283              	.LASF589:
 16284 2009 5F5A4E4B 		.ascii	"_ZNK3r2p10StaticListINS_4NodeEE8is_emptyEv\000"
 16284      33723270 
 16284      31305374 
 16284      61746963 
 16284      4C697374 
 16285              	.LASF594:
 16286 2034 5F5A4E4B 		.ascii	"_ZNK3r2p10StaticListINS_4NodeEE8containsERKS1_\000"
 16286      33723270 
 16286      31305374 
 16286      61746963 
 16286      4C697374 
 16287              	.LASF361:
 16288 2063 69735F66 		.ascii	"is_forwarding\000"
 16288      6F727761 
 16288      7264696E 
 16288      6700
 16289              	.LASF485:
 16290 2071 7461696C 		.ascii	"tailp\000"
 16290      7000
 16291              	.LASF466:
 16292 2077 5F5A4E4B 		.ascii	"_ZNK3r2p10StaticListINS_14LocalPublisherEE14restart"
 16292      33723270 
 16292      31305374 
 16292      61746963 
 16292      4C697374 
ARM GAS  /tmp/ccWQ6gKG.s 			page 305


 16293 20aa 5F756E73 		.ascii	"_unsafeERNS2_19ConstIteratorUnsafeE\000"
 16293      61666545 
 16293      524E5332 
 16293      5F313943 
 16293      6F6E7374 
 16294              	.LASF689:
 16295 20ce 42617365 		.ascii	"Base\000"
 16295      00
 16296              	.LASF402:
 16297 20d3 5F5A4E33 		.ascii	"_ZN3r2p5Topic14notify_remotesERNS_7MessageERKNS_4Ti"
 16297      72327035 
 16297      546F7069 
 16297      6331346E 
 16297      6F746966 
 16298 2106 6D654500 		.ascii	"meE\000"
 16299              	.LASF336:
 16300 210a 5F5A4E33 		.ascii	"_ZN3r2p10StaticListINS_5TopicEE3endEv\000"
 16300      72327031 
 16300      30537461 
 16300      7469634C 
 16300      69737449 
 16301              	.LASF528:
 16302 2130 4E4F524D 		.ascii	"NORMAL\000"
 16302      414C00
 16303              	.LASF679:
 16304 2137 5F5A4E33 		.ascii	"_ZN3r2p16SubscriberExtBufINS_10EncoderMsgEE5fetchER"
 16304      72327031 
 16304      36537562 
 16304      73637269 
 16304      62657245 
 16305 216a 5053315F 		.ascii	"PS1_RNS_4TimeE\000"
 16305      524E535F 
 16305      3454696D 
 16305      654500
 16306              	.LASF697:
 16307 2179 7069645F 		.ascii	"pid_conf_t\000"
 16307      636F6E66 
 16307      5F7400
 16308              	.LASF293:
 16309 2184 5F5A4E4B 		.ascii	"_ZNK3r2p10StaticListINS_16RemoteSubscriberEE8get_he"
 16309      33723270 
 16309      31305374 
 16309      61746963 
 16309      4C697374 
 16310 21b7 61644576 		.ascii	"adEv\000"
 16310      00
 16311              	.LASF520:
 16312 21bc 5F5A4E33 		.ascii	"_ZN3r2p7Thread_12set_priorityEm\000"
 16312      72327037 
 16312      54687265 
 16312      61645F31 
 16312      32736574 
 16313              	.LASF344:
 16314 21dc 6D73675F 		.ascii	"msg_pool\000"
 16314      706F6F6C 
 16314      00
 16315              	.LASF91:
ARM GAS  /tmp/ccWQ6gKG.s 			page 306


 16316 21e5 4F535045 		.ascii	"OSPEEDR\000"
 16316      45445200 
 16317              	.LASF741:
 16318 21ed 5F5A4E33 		.ascii	"_ZN3r2p10EncoderMsgC2Ev\000"
 16318      72327031 
 16318      30456E63 
 16318      6F646572 
 16318      4D736743 
 16319              	.LASF461:
 16320 2205 5F5A4E33 		.ascii	"_ZN3r2p10StaticListINS_14LocalPublisherEE12begin_un"
 16320      72327031 
 16320      30537461 
 16320      7469634C 
 16320      69737449 
 16321 2238 73616665 		.ascii	"safeEv\000"
 16321      457600
 16322              	.LASF65:
 16323 223f 39526561 		.ascii	"9ReadyList\000"
 16323      64794C69 
 16323      737400
 16324              	.LASF497:
 16325 224a 66657463 		.ascii	"fetch\000"
 16325      6800
 16326              	.LASF677:
 16327 2250 5F5A4E4B 		.ascii	"_ZNK3r2p16SubscriberExtBufINS_10EncoderMsgEE12get_c"
 16327      33723270 
 16327      31365375 
 16327      62736372 
 16327      69626572 
 16328 2283 616C6C62 		.ascii	"allbackEv\000"
 16328      61636B45 
 16328      7600
 16329              	.LASF626:
 16330 228d 5F5A4E33 		.ascii	"_ZN3r2p4Node4spinERKNS_4TimeE\000"
 16330      72327034 
 16330      4E6F6465 
 16330      34737069 
 16330      6E45524B 
 16331              	.LASF257:
 16332 22ab 636F6E74 		.ascii	"contains\000"
 16332      61696E73 
 16332      00
 16333              	.LASF705:
 16334 22b4 5F5A4E33 		.ascii	"_ZN3PID6configEffffff\000"
 16334      50494436 
 16334      636F6E66 
 16334      69674566 
 16334      66666666 
 16335              	.LASF617:
 16336 22ca 6E6F7469 		.ascii	"notify_unsafe\000"
 16336      66795F75 
 16336      6E736166 
 16336      6500
 16337              	.LASF709:
 16338 22d8 6D696C6C 		.ascii	"milliseconds\000"
 16338      69736563 
 16338      6F6E6473 
ARM GAS  /tmp/ccWQ6gKG.s 			page 307


 16338      00
 16339              	.LASF154:
 16340 22e5 6765745F 		.ascii	"get_impl\000"
 16340      696D706C 
 16340      00
 16341              	.LASF538:
 16342 22ee 7969656C 		.ascii	"yield\000"
 16342      6400
 16343              	.LASF536:
 16344 22f4 5F5A4E33 		.ascii	"_ZN3r2p6Thread12get_priorityEv\000"
 16344      72327036 
 16344      54687265 
 16344      61643132 
 16344      6765745F 
 16345              	.LASF151:
 16346 2313 5F5A4E33 		.ascii	"_ZN3r2p11MemoryPool_4freeEPv\000"
 16346      72327031 
 16346      314D656D 
 16346      6F727950 
 16346      6F6F6C5F 
 16347              	.LASF775:
 16348 2330 5F5F7674 		.ascii	"__vtbl_ptr_type\000"
 16348      626C5F70 
 16348      74725F74 
 16348      79706500 
 16349              	.LASF117:
 16350 2340 43435235 		.ascii	"CCR5\000"
 16350      00
 16351              	.LASF118:
 16352 2345 43435236 		.ascii	"CCR6\000"
 16352      00
 16353              	.LASF127:
 16354 234a 3950574D 		.ascii	"9PWMConfig\000"
 16354      436F6E66 
 16354      696700
 16355              	.LASF619:
 16356 2355 6E6F7469 		.ascii	"notify_stop_unsafe\000"
 16356      66795F73 
 16356      746F705F 
 16356      756E7361 
 16356      666500
 16357              	.LASF162:
 16358 2368 746F5F75 		.ascii	"to_us_raw\000"
 16358      735F7261 
 16358      7700
 16359              	.LASF32:
 16360 2372 7264796D 		.ascii	"rdymsg\000"
 16360      736700
 16361              	.LASF101:
 16362 2379 50574D5F 		.ascii	"PWM_READY\000"
 16362      52454144 
 16362      5900
 16363              	.LASF601:
 16364 2383 5F5A4E4B 		.ascii	"_ZNK3r2p10StaticListINS_4NodeEE3endEv\000"
 16364      33723270 
 16364      31305374 
 16364      61746963 
ARM GAS  /tmp/ccWQ6gKG.s 			page 308


 16364      4C697374 
 16365              	.LASF576:
 16366 23a9 5F5A4E33 		.ascii	"_ZN3r2p10StaticListINS_4NodeEE16link_tail_unsafeERN"
 16366      72327031 
 16366      30537461 
 16366      7469634C 
 16366      69737449 
 16367 23dc 53325F34 		.ascii	"S2_4LinkE\000"
 16367      4C696E6B 
 16367      4500
 16368              	.LASF38:
 16369 23e6 705F7072 		.ascii	"p_prio\000"
 16369      696F00
 16370              	.LASF267:
 16371 23ed 5F5A4E33 		.ascii	"_ZN3r2p10StaticListINS_15LocalSubscriberEE3endEv\000"
 16371      72327031 
 16371      30537461 
 16371      7469634C 
 16371      69737449 
 16372              	.LASF394:
 16373 241e 5F5A4E4B 		.ascii	"_ZNK3r2p5Topic16compute_deadlineEv\000"
 16373      33723270 
 16373      35546F70 
 16373      69633136 
 16373      636F6D70 
 16374              	.LASF713:
 16375 2441 74696D65 		.ascii	"timestamp\000"
 16375      7374616D 
 16375      7000
 16376              	.LASF610:
 16377 244b 5F5A4E4B 		.ascii	"_ZNK3r2p4Node14get_publishersEv\000"
 16377      33723270 
 16377      344E6F64 
 16377      65313467 
 16377      65745F70 
 16378              	.LASF383:
 16379 246b 72656C65 		.ascii	"release_unsafe\000"
 16379      6173655F 
 16379      756E7361 
 16379      666500
 16380              	.LASF575:
 16381 247a 5F5A4E33 		.ascii	"_ZN3r2p10StaticListINS_4NodeEE11link_unsafeERNS2_4L"
 16381      72327031 
 16381      30537461 
 16381      7469634C 
 16381      69737449 
 16382 24ad 696E6B45 		.ascii	"inkE\000"
 16382      00
 16383              	.LASF392:
 16384 24b2 636F6D70 		.ascii	"compute_deadline\000"
 16384      7574655F 
 16384      64656164 
 16384      6C696E65 
 16384      00
 16385              	.LASF419:
 16386 24c3 72656663 		.ascii	"refcount\000"
 16386      6F756E74 
ARM GAS  /tmp/ccWQ6gKG.s 			page 309


 16386      00
 16387              	.LASF14:
 16388 24cc 5F5F7569 		.ascii	"__uint64_t\000"
 16388      6E743634 
 16388      5F7400
 16389              	.LASF122:
 16390 24d7 31317374 		.ascii	"11stm32_tim_t\000"
 16390      6D33325F 
 16390      74696D5F 
 16390      7400
 16391              	.LASF765:
 16392 24e5 73706565 		.ascii	"speed_pid\000"
 16392      645F7069 
 16392      6400
 16393              	.LASF729:
 16394 24ef 6366675F 		.ascii	"cfg_sub\000"
 16394      73756200 
 16395              	.LASF141:
 16396 24f7 6765745F 		.ascii	"get_allocator\000"
 16396      616C6C6F 
 16396      6361746F 
 16396      7200
 16397              	.LASF108:
 16398 2505 70776D63 		.ascii	"pwmcallback_t\000"
 16398      616C6C62 
 16398      61636B5F 
 16398      7400
 16399              	.LASF442:
 16400 2513 436F6E73 		.ascii	"ConstLink\000"
 16400      744C696E 
 16400      6B00
 16401              	.LASF123:
 16402 251d 31365057 		.ascii	"16PWMChannelConfig\000"
 16402      4D436861 
 16402      6E6E656C 
 16402      436F6E66 
 16402      696700
 16403              	.LASF367:
 16404 2530 6861735F 		.ascii	"has_publishers\000"
 16404      7075626C 
 16404      69736865 
 16404      727300
 16405              	.LASF297:
 16406 253f 5F5A4E33 		.ascii	"_ZN3r2p10StaticListINS_16RemoteSubscriberEE6unlinkE"
 16406      72327031 
 16406      30537461 
 16406      7469634C 
 16406      69737449 
 16407 2572 524E5332 		.ascii	"RNS2_4LinkE\000"
 16407      5F344C69 
 16407      6E6B4500 
 16408              	.LASF227:
 16409 257e 756E6C69 		.ascii	"unlink_unsafe\000"
 16409      6E6B5F75 
 16409      6E736166 
 16409      6500
 16410              	.LASF380:
ARM GAS  /tmp/ccWQ6gKG.s 			page 310


 16411 258c 5F5A4E4B 		.ascii	"_ZNK3r2p5Topic23compute_deadline_unsafeERKNS_4TimeE"
 16411      33723270 
 16411      35546F70 
 16411      69633233 
 16411      636F6D70 
 16412 25bf 00       		.ascii	"\000"
 16413              	.LASF509:
 16414 25c0 63726561 		.ascii	"create_static\000"
 16414      74655F73 
 16414      74617469 
 16414      6300
 16415              	.LASF531:
 16416 25ce 5F5A4E4B 		.ascii	"_ZNK3r2p6Thread8get_nameEv\000"
 16416      33723270 
 16416      36546872 
 16416      65616438 
 16416      6765745F 
 16417              	.LASF454:
 16418 25e9 5F5A4E33 		.ascii	"_ZN3r2p10StaticListINS_14LocalPublisherEE11link_uns"
 16418      72327031 
 16418      30537461 
 16418      7469634C 
 16418      69737449 
 16419 261c 61666545 		.ascii	"afeERNS2_4LinkE\000"
 16419      524E5332 
 16419      5F344C69 
 16419      6E6B4500 
 16420              	.LASF710:
 16421 262c 74686973 		.ascii	"this\000"
 16421      00
 16422              	.LASF36:
 16423 2631 705F6E65 		.ascii	"p_next\000"
 16423      787400
 16424              	.LASF241:
 16425 2638 5F5A4E33 		.ascii	"_ZN3r2p10StaticListINS_15LocalSubscriberEE14restart"
 16425      72327031 
 16425      30537461 
 16425      7469634C 
 16425      69737449 
 16426 266b 5F756E73 		.ascii	"_unsafeERNS2_14IteratorUnsafeE\000"
 16426      61666545 
 16426      524E5332 
 16426      5F313449 
 16426      74657261 
 16427              	.LASF772:
 16428 268a 5F5A4E33 		.ascii	"_ZN3r2p15LocalSubscriber13notify_unsafeERNS_7Messag"
 16428      72327031 
 16428      354C6F63 
 16428      616C5375 
 16428      62736372 
 16429 26bd 6545524B 		.ascii	"eERKNS_4TimeE\000"
 16429      4E535F34 
 16429      54696D65 
 16429      4500
 16430              	.LASF742:
 16431 26cb 5F5A4E33 		.ascii	"_ZN3r2p10SubscriberINS_10EncoderMsgELj5EEC2EPFbRKS1"
 16431      72327031 
ARM GAS  /tmp/ccWQ6gKG.s 			page 311


 16431      30537562 
 16431      73637269 
 16431      62657249 
 16432 26fe 5F4500   		.ascii	"_E\000"
 16433              	.LASF688:
 16434 2701 54657374 		.ascii	"Test\000"
 16434      00
 16435              	.LASF664:
 16436 2706 7E537562 		.ascii	"~Subscriber\000"
 16436      73637269 
 16436      62657200 
 16437              	.LASF263:
 16438 2712 5F5A4E33 		.ascii	"_ZN3r2p10StaticListINS_15LocalSubscriberEE5beginEv\000"
 16438      72327031 
 16438      30537461 
 16438      7469634C 
 16438      69737449 
 16439              	.LASF319:
 16440 2745 5F5A4E4B 		.ascii	"_ZNK3r2p10StaticListINS_5TopicEE17find_first_unsafe"
 16440      33723270 
 16440      31305374 
 16440      61746963 
 16440      4C697374 
 16441 2778 45504662 		.ascii	"EPFbRKS1_PKvES6_\000"
 16441      524B5331 
 16441      5F504B76 
 16441      4553365F 
 16441      00
 16442              	.LASF397:
 16443 2789 5F5A4E33 		.ascii	"_ZN3r2p5Topic7releaseERNS_7MessageE\000"
 16443      72327035 
 16443      546F7069 
 16443      63377265 
 16443      6C656173 
 16444              	.LASF321:
 16445 27ad 5F5A4E33 		.ascii	"_ZN3r2p10StaticListINS_5TopicEE10end_unsafeEv\000"
 16445      72327031 
 16445      30537461 
 16445      7469634C 
 16445      69737449 
 16446              	.LASF488:
 16447 27db 5F5A4E33 		.ascii	"_ZN3r2p10ArrayQueueIPNS_7MessageEE12fetch_unsafeERS"
 16447      72327031 
 16447      30417272 
 16447      61795175 
 16447      65756549 
 16448 280e 325F00   		.ascii	"2_\000"
 16449              	.LASF314:
 16450 2811 5F5A4E33 		.ascii	"_ZN3r2p10StaticListINS_5TopicEE16link_tail_unsafeER"
 16450      72327031 
 16450      30537461 
 16450      7469634C 
 16450      69737449 
 16451 2844 4E53325F 		.ascii	"NS2_4LinkE\000"
 16451      344C696E 
 16451      6B4500
 16452              	.LASF133:
ARM GAS  /tmp/ccWQ6gKG.s 			page 312


 16453 284f 73747265 		.ascii	"strerror\000"
 16453      72726F72 
 16453      00
 16454              	.LASF282:
 16455 2858 5F5A4E33 		.ascii	"_ZN3r2p10StaticListINS_16RemoteSubscriberEE13unlink"
 16455      72327031 
 16455      30537461 
 16455      7469634C 
 16455      69737449 
 16456 288b 5F756E73 		.ascii	"_unsafeERNS2_4LinkE\000"
 16456      61666545 
 16456      524E5332 
 16456      5F344C69 
 16456      6E6B4500 
 16457              	.LASF135:
 16458 289f 73747278 		.ascii	"strxfrm\000"
 16458      66726D00 
 16459              	.LASF25:
 16460 28a7 74726566 		.ascii	"trefs_t\000"
 16460      735F7400 
 16461              	.LASF55:
 16462 28af 705F6D70 		.ascii	"p_mpool\000"
 16462      6F6F6C00 
 16463              	.LASF649:
 16464 28b7 5F5A4E33 		.ascii	"_ZN3r2p14BaseSubscriber5fetchERPNS_7MessageERNS_4Ti"
 16464      72327031 
 16464      34426173 
 16464      65537562 
 16464      73637269 
 16465 28ea 6D654500 		.ascii	"meE\000"
 16466              	.LASF382:
 16467 28ee 5F5A4E33 		.ascii	"_ZN3r2p5Topic12alloc_unsafeEv\000"
 16467      72327035 
 16467      546F7069 
 16467      63313261 
 16467      6C6C6F63 
 16468              	.LASF23:
 16469 290c 746D6F64 		.ascii	"tmode_t\000"
 16469      655F7400 
 16470              	.LASF269:
 16471 2914 5F5A4E4B 		.ascii	"_ZNK3r2p10StaticListINS_15LocalSubscriberEE7restart"
 16471      33723270 
 16471      31305374 
 16471      61746963 
 16471      4C697374 
 16472 2947 45524E53 		.ascii	"ERNS2_13ConstIteratorE\000"
 16472      325F3133 
 16472      436F6E73 
 16472      74497465 
 16472      7261746F 
 16473              	.LASF621:
 16474 295e 6E6F7469 		.ascii	"notify\000"
 16474      667900
 16475              	.LASF79:
 16476 2965 70685F6E 		.ascii	"ph_next\000"
 16476      65787400 
 16477              	.LASF655:
ARM GAS  /tmp/ccWQ6gKG.s 			page 313


 16478 296d 456E636F 		.ascii	"EncoderMsg\000"
 16478      6465724D 
 16478      736700
 16479              	.LASF191:
 16480 2978 53746174 		.ascii	"StaticList<r2p::LocalSubscriber>\000"
 16480      69634C69 
 16480      73743C72 
 16480      32703A3A 
 16480      4C6F6361 
 16481              	.LASF172:
 16482 2999 746F5F6D 		.ascii	"to_ms\000"
 16482      7300
 16483              	.LASF136:
 16484 299f 556E636F 		.ascii	"Uncopyable\000"
 16484      70796162 
 16484      6C6500
 16485              	.LASF192:
 16486 29aa 6E657874 		.ascii	"nextp\000"
 16486      7000
 16487              	.LASF93:
 16488 29b0 42535252 		.ascii	"BSRR\000"
 16488      00
 16489              	.LASF556:
 16490 29b5 5F5A4E33 		.ascii	"_ZN3r2p10SpinEvent_4waitERKNS_4TimeE\000"
 16490      72327031 
 16490      30537069 
 16490      6E457665 
 16490      6E745F34 
 16491              	.LASF333:
 16492 29da 5F5A4E4B 		.ascii	"_ZNK3r2p10StaticListINS_5TopicEE10find_firstEPFbRKS"
 16492      33723270 
 16492      31305374 
 16492      61746963 
 16492      4C697374 
 16493 2a0d 315F4500 		.ascii	"1_E\000"
 16494              	.LASF570:
 16495 2a11 5F5A4E4B 		.ascii	"_ZNK3r2p10StaticListINS_4NodeEE13ConstIteratorneERK"
 16495      33723270 
 16495      31305374 
 16495      61746963 
 16495      4C697374 
 16496 2a44 53335F00 		.ascii	"S3_\000"
 16497              	.LASF311:
 16498 2a48 5F5A4E4B 		.ascii	"_ZNK3r2p10StaticListINS_5TopicEE15is_empty_unsafeEv"
 16498      33723270 
 16498      31305374 
 16498      61746963 
 16498      4C697374 
 16499 2a7b 00       		.ascii	"\000"
 16500              	.LASF243:
 16501 2a7c 5F5A4E4B 		.ascii	"_ZNK3r2p10StaticListINS_15LocalSubscriberEE10end_un"
 16501      33723270 
 16501      31305374 
 16501      61746963 
 16501      4C697374 
 16502 2aaf 73616665 		.ascii	"safeEv\000"
 16502      457600
ARM GAS  /tmp/ccWQ6gKG.s 			page 314


 16503              	.LASF577:
 16504 2ab6 5F5A4E33 		.ascii	"_ZN3r2p10StaticListINS_4NodeEE13unlink_unsafeERNS2_"
 16504      72327031 
 16504      30537461 
 16504      7469634C 
 16504      69737449 
 16505 2ae9 344C696E 		.ascii	"4LinkE\000"
 16505      6B4500
 16506              	.LASF560:
 16507 2af0 5F5A4E33 		.ascii	"_ZN3r2p9SpinEvent13signal_unsafeEj\000"
 16507      72327039 
 16507      5370696E 
 16507      4576656E 
 16507      74313373 
 16508              	.LASF717:
 16509 2b13 6D656173 		.ascii	"measure\000"
 16509      75726500 
 16510              	.LASF197:
 16511 2b1b 436F6E73 		.ascii	"ConstIteratorUnsafe\000"
 16511      74497465 
 16511      7261746F 
 16511      72556E73 
 16511      61666500 
 16512              	.LASF554:
 16513 2b2f 5F5A4E33 		.ascii	"_ZN3r2p10SpinEvent_6signalEj\000"
 16513      72327031 
 16513      30537069 
 16513      6E457665 
 16513      6E745F36 
 16514              	.LASF428:
 16515 2b4c 5F5A4E33 		.ascii	"_ZN3r2p7Message7acquireEv\000"
 16515      72327037 
 16515      4D657373 
 16515      61676537 
 16515      61637175 
 16516              	.LASF106:
 16517 2b66 70657269 		.ascii	"period\000"
 16517      6F6400
 16518              	.LASF514:
 16519 2b6d 5F5A4E33 		.ascii	"_ZN3r2p7Thread_11create_poolERNS_11MemoryPool_EmPFl"
 16519      72327037 
 16519      54687265 
 16519      61645F31 
 16519      31637265 
 16520 2ba0 50764553 		.ascii	"PvES3_PKc\000"
 16520      335F504B 
 16520      6300
 16521              	.LASF744:
 16522 2baa 5F5A4E33 		.ascii	"_ZN3r2p10SubscriberINS_10EncoderMsgELj5EED0Ev\000"
 16522      72327031 
 16522      30537562 
 16522      73637269 
 16522      62657249 
 16523              	.LASF559:
 16524 2bd8 5F5A4E33 		.ascii	"_ZN3r2p9SpinEvent10set_threadEPNS_6ThreadE\000"
 16524      72327039 
 16524      5370696E 
ARM GAS  /tmp/ccWQ6gKG.s 			page 315


 16524      4576656E 
 16524      74313073 
 16525              	.LASF377:
 16526 2c03 69735F61 		.ascii	"is_awaiting_subscriptions\000"
 16526      77616974 
 16526      696E675F 
 16526      73756273 
 16526      63726970 
 16527              	.LASF239:
 16528 2c1d 5F5A4E33 		.ascii	"_ZN3r2p10StaticListINS_15LocalSubscriberEE10end_uns"
 16528      72327031 
 16528      30537461 
 16528      7469634C 
 16528      69737449 
 16529 2c50 61666545 		.ascii	"afeEv\000"
 16529      7600
 16530              	.LASF699:
 16531 2c56 6E616D65 		.ascii	"name\000"
 16531      00
 16532              	.LASF604:
 16533 2c5b 7075626C 		.ascii	"publishers\000"
 16533      69736865 
 16533      727300
 16534              	.LASF211:
 16535 2c66 6F706572 		.ascii	"operator!=\000"
 16535      61746F72 
 16535      213D00
 16536              	.LASF238:
 16537 2c71 656E645F 		.ascii	"end_unsafe\000"
 16537      756E7361 
 16537      666500
 16538              	.LASF265:
 16539 2c7c 5F5A4E33 		.ascii	"_ZN3r2p10StaticListINS_15LocalSubscriberEE7restartE"
 16539      72327031 
 16539      30537461 
 16539      7469634C 
 16539      69737449 
 16540 2caf 524E5332 		.ascii	"RNS2_8IteratorE\000"
 16540      5F384974 
 16540      65726174 
 16540      6F724500 
 16541              	.LASF479:
 16542 2cbf 5F5A4E4B 		.ascii	"_ZNK3r2p10StaticListINS_14LocalPublisherEE5beginEv\000"
 16542      33723270 
 16542      31305374 
 16542      61746963 
 16542      4C697374 
 16543              	.LASF69:
 16544 2cf2 725F6E65 		.ascii	"r_newer\000"
 16544      77657200 
 16545              	.LASF307:
 16546 2cfa 5F5A4E4B 		.ascii	"_ZNK3r2p10StaticListINS_16RemoteSubscriberEE7restar"
 16546      33723270 
 16546      31305374 
 16546      61746963 
 16546      4C697374 
 16547 2d2d 7445524E 		.ascii	"tERNS2_13ConstIteratorE\000"
ARM GAS  /tmp/ccWQ6gKG.s 			page 316


 16547      53325F31 
 16547      33436F6E 
 16547      73744974 
 16547      65726174 
 16548              	.LASF152:
 16549 2d45 65787465 		.ascii	"extend\000"
 16549      6E6400
 16550              	.LASF363:
 16551 2d4c 6861735F 		.ascii	"has_local_publishers\000"
 16551      6C6F6361 
 16551      6C5F7075 
 16551      626C6973 
 16551      68657273 
 16552              	.LASF252:
 16553 2d61 5F5A4E33 		.ascii	"_ZN3r2p10StaticListINS_15LocalSubscriberEE4linkERNS"
 16553      72327031 
 16553      30537461 
 16553      7469634C 
 16553      69737449 
 16554 2d94 325F344C 		.ascii	"2_4LinkE\000"
 16554      696E6B45 
 16554      00
 16555              	.LASF26:
 16556 2d9d 74736C69 		.ascii	"tslices_t\000"
 16556      6365735F 
 16556      7400
 16557              	.LASF633:
 16558 2da7 73756273 		.ascii	"subscribe<r2p::EncoderMsg, 5u>\000"
 16558      63726962 
 16558      653C7232 
 16558      703A3A45 
 16558      6E636F64 
 16559              	.LASF425:
 16560 2dc6 72657365 		.ascii	"reset_unsafe\000"
 16560      745F756E 
 16560      73616665 
 16560      00
 16561              	.LASF430:
 16562 2dd3 72657365 		.ascii	"reset\000"
 16562      7400
 16563              	.LASF289:
 16564 2dd9 5F5A4E33 		.ascii	"_ZN3r2p10StaticListINS_16RemoteSubscriberEE14restar"
 16564      72327031 
 16564      30537461 
 16564      7469634C 
 16564      69737449 
 16565 2e0c 745F756E 		.ascii	"t_unsafeERNS2_14IteratorUnsafeE\000"
 16565      73616665 
 16565      45524E53 
 16565      325F3134 
 16565      49746572 
 16566              	.LASF763:
 16567 2e2c 50574D44 		.ascii	"PWMD1\000"
 16567      3100
 16568              	.LASF634:
 16569 2e32 5F5A4E33 		.ascii	"_ZN3r2p4Node9subscribeINS_10EncoderMsgELj5EEEbRNS_1"
 16569      72327034 
ARM GAS  /tmp/ccWQ6gKG.s 			page 317


 16569      4E6F6465 
 16569      39737562 
 16569      73637269 
 16570 2e65 30537562 		.ascii	"0SubscriberIT_XT0_EEEPKc\000"
 16570      73637269 
 16570      62657249 
 16570      545F5854 
 16570      305F4545 
 16571              	.LASF502:
 16572 2e7e 54687265 		.ascii	"Thread_\000"
 16572      61645F00 
 16573              	.LASF225:
 16574 2e86 5F5A4E33 		.ascii	"_ZN3r2p10StaticListINS_15LocalSubscriberEE11link_un"
 16574      72327031 
 16574      30537461 
 16574      7469634C 
 16574      69737449 
 16575 2eb9 73616665 		.ascii	"safeERNS2_4LinkE\000"
 16575      45524E53 
 16575      325F344C 
 16575      696E6B45 
 16575      00
 16576              	.LASF64:
 16577 2eca 73697A65 		.ascii	"sizetype\000"
 16577      74797065 
 16577      00
 16578              	.LASF725:
 16579 2ed3 6E6F6465 		.ascii	"node_conf\000"
 16579      5F636F6E 
 16579      6600
 16580              	.LASF184:
 16581 2edd 5F5A4E33 		.ascii	"_ZN3r2p4Time2usEl\000"
 16581      72327034 
 16581      54696D65 
 16581      32757345 
 16581      6C00
 16582              	.LASF98:
 16583 2eef 696F706F 		.ascii	"ioportmask_t\000"
 16583      72746D61 
 16583      736B5F74 
 16583      00
 16584              	.LASF493:
 16585 2efc 6765745F 		.ascii	"get_count\000"
 16585      636F756E 
 16585      7400
 16586              	.LASF611:
 16587 2f06 6765745F 		.ascii	"get_subscribers\000"
 16587      73756273 
 16587      63726962 
 16587      65727300 
 16588              	.LASF431:
 16589 2f16 5F5A4E33 		.ascii	"_ZN3r2p7Message5resetEv\000"
 16589      72327037 
 16589      4D657373 
 16589      61676535 
 16589      72657365 
 16590              	.LASF17:
ARM GAS  /tmp/ccWQ6gKG.s 			page 318


 16591 2f2e 696E7431 		.ascii	"int16_t\000"
 16591      365F7400 
 16592              	.LASF8:
 16593 2f36 73686F72 		.ascii	"short unsigned int\000"
 16593      7420756E 
 16593      7369676E 
 16593      65642069 
 16593      6E7400
 16594              	.LASF1:
 16595 2f49 7369676E 		.ascii	"signed char\000"
 16595      65642063 
 16595      68617200 
 16596              	.LASF47:
 16597 2f55 705F7072 		.ascii	"p_preempt\000"
 16597      65656D70 
 16597      7400
 16598              	.LASF48:
 16599 2f5f 705F7469 		.ascii	"p_time\000"
 16599      6D6500
 16600              	.LASF310:
 16601 2f66 5F5A4E4B 		.ascii	"_ZNK3r2p10StaticListINS_5TopicEE15get_head_unsafeEv"
 16601      33723270 
 16601      31305374 
 16601      61746963 
 16601      4C697374 
 16602 2f99 00       		.ascii	"\000"
 16603              	.LASF651:
 16604 2f9a 6861735F 		.ascii	"has_topic\000"
 16604      746F7069 
 16604      6300
 16605              	.LASF120:
 16606 2fa4 70776D6D 		.ascii	"pwmmode_t\000"
 16606      6F64655F 
 16606      7400
 16607              	.LASF233:
 16608 2fae 66696E64 		.ascii	"find_first_unsafe\000"
 16608      5F666972 
 16608      73745F75 
 16608      6E736166 
 16608      6500
 16609              	.LASF445:
 16610 2fc0 5F5A4E4B 		.ascii	"_ZNK3r2p10StaticListINS_14LocalPublisherEE13ConstIt"
 16610      33723270 
 16610      31305374 
 16610      61746963 
 16610      4C697374 
 16611 2ff3 65726174 		.ascii	"eratordeEv\000"
 16611      6F726465 
 16611      457600
 16612              	.LASF524:
 16613 2ffe 5F5A4E33 		.ascii	"_ZN3r2p7Thread_4joinERS0_\000"
 16613      72327037 
 16613      54687265 
 16613      61645F34 
 16613      6A6F696E 
 16614              	.LASF249:
 16615 3018 636F756E 		.ascii	"count\000"
ARM GAS  /tmp/ccWQ6gKG.s 			page 319


 16615      7400
 16616              	.LASF212:
 16617 301e 5F5A4E4B 		.ascii	"_ZNK3r2p10StaticListINS_15LocalSubscriberEE13ConstI"
 16617      33723270 
 16617      31305374 
 16617      61746963 
 16617      4C697374 
 16618 3051 74657261 		.ascii	"teratorneERKS3_\000"
 16618      746F726E 
 16618      6545524B 
 16618      53335F00 
 16619              	.LASF387:
 16620 3061 5F5A4E33 		.ascii	"_ZN3r2p5Topic20notify_locals_unsafeERNS_7MessageERK"
 16620      72327035 
 16620      546F7069 
 16620      6332306E 
 16620      6F746966 
 16621 3094 4E535F34 		.ascii	"NS_4TimeE\000"
 16621      54696D65 
 16621      4500
 16622              	.LASF588:
 16623 309e 5F5A4E4B 		.ascii	"_ZNK3r2p10StaticListINS_4NodeEE8get_headEv\000"
 16623      33723270 
 16623      31305374 
 16623      61746963 
 16623      4C697374 
 16624              	.LASF400:
 16625 30c9 5F5A4E33 		.ascii	"_ZN3r2p5Topic13notify_localsERNS_7MessageERKNS_4Tim"
 16625      72327035 
 16625      546F7069 
 16625      6331336E 
 16625      6F746966 
 16626 30fc 654500   		.ascii	"eE\000"
 16627              	.LASF504:
 16628 30ff 46756E63 		.ascii	"Function\000"
 16628      74696F6E 
 16628      00
 16629              	.LASF335:
 16630 3108 5F5A4E33 		.ascii	"_ZN3r2p10StaticListINS_5TopicEE5beginEv\000"
 16630      72327031 
 16630      30537461 
 16630      7469634C 
 16630      69737449 
 16631              	.LASF678:
 16632 3130 5F5A4E33 		.ascii	"_ZN3r2p16SubscriberExtBufINS_10EncoderMsgEE5fetchER"
 16632      72327031 
 16632      36537562 
 16632      73637269 
 16632      62657245 
 16633 3163 5053315F 		.ascii	"PS1_\000"
 16633      00
 16634              	.LASF283:
 16635 3168 5F5A4E4B 		.ascii	"_ZNK3r2p10StaticListINS_16RemoteSubscriberEE15index"
 16635      33723270 
 16635      31305374 
 16635      61746963 
 16635      4C697374 
ARM GAS  /tmp/ccWQ6gKG.s 			page 320


 16636 319b 5F6F665F 		.ascii	"_of_unsafeERKS1_\000"
 16636      756E7361 
 16636      66654552 
 16636      4B53315F 
 16636      00
 16637              	.LASF424:
 16638 31ac 5F5A4E33 		.ascii	"_ZN3r2p7Message14release_unsafeEv\000"
 16638      72327037 
 16638      4D657373 
 16638      61676531 
 16638      3472656C 
 16639              	.LASF75:
 16640 31ce 6D5F6F77 		.ascii	"m_owner\000"
 16640      6E657200 
 16641              	.LASF59:
 16642 31d6 54687265 		.ascii	"ThreadsList\000"
 16642      6164734C 
 16642      69737400 
 16643              	.LASF273:
 16644 31e2 66657463 		.ascii	"fetch_unsafe\000"
 16644      685F756E 
 16644      73616665 
 16644      00
 16645              	.LASF574:
 16646 31ef 5F5A4E4B 		.ascii	"_ZNK3r2p10StaticListINS_4NodeEE12count_unsafeEv\000"
 16646      33723270 
 16646      31305374 
 16646      61746963 
 16646      4C697374 
 16647              	.LASF433:
 16648 321f 5F5A4E33 		.ascii	"_ZN3r2p7Message4copyERS0_RKS0_j\000"
 16648      72327037 
 16648      4D657373 
 16648      61676534 
 16648      636F7079 
 16649              	.LASF638:
 16650 323f 5F767074 		.ascii	"_vptr.BaseSubscriber\000"
 16650      722E4261 
 16650      73655375 
 16650      62736372 
 16650      69626572 
 16651              	.LASF318:
 16652 3254 5F5A4E4B 		.ascii	"_ZNK3r2p10StaticListINS_5TopicEE17find_first_unsafe"
 16652      33723270 
 16652      31305374 
 16652      61746963 
 16652      4C697374 
 16653 3287 45504662 		.ascii	"EPFbRKS1_E\000"
 16653      524B5331 
 16653      5F4500
 16654              	.LASF229:
 16655 3292 696E6465 		.ascii	"index_of_unsafe\000"
 16655      785F6F66 
 16655      5F756E73 
 16655      61666500 
 16656              	.LASF104:
 16657 32a2 73746174 		.ascii	"state\000"
ARM GAS  /tmp/ccWQ6gKG.s 			page 321


 16657      6500
 16658              	.LASF615:
 16659 32a8 7365745F 		.ascii	"set_enabled\000"
 16659      656E6162 
 16659      6C656400 
 16660              	.LASF481:
 16661 32b4 5F5A4E4B 		.ascii	"_ZNK3r2p10StaticListINS_14LocalPublisherEE7restartE"
 16661      33723270 
 16661      31305374 
 16661      61746963 
 16661      4C697374 
 16662 32e7 524E5332 		.ascii	"RNS2_13ConstIteratorE\000"
 16662      5F313343 
 16662      6F6E7374 
 16662      49746572 
 16662      61746F72 
 16663              	.LASF144:
 16664 32fd 616C6C6F 		.ascii	"alloc_unsafe\000"
 16664      635F756E 
 16664      73616665 
 16664      00
 16665              	.LASF451:
 16666 330a 5F5A4E4B 		.ascii	"_ZNK3r2p10StaticListINS_14LocalPublisherEE15get_hea"
 16666      33723270 
 16666      31305374 
 16666      61746963 
 16666      4C697374 
 16667 333d 645F756E 		.ascii	"d_unsafeEv\000"
 16667      73616665 
 16667      457600
 16668              	.LASF532:
 16669 3348 5F5A4E33 		.ascii	"_ZN3r2p6Thread18compute_stack_sizeEj\000"
 16669      72327036 
 16669      54687265 
 16669      61643138 
 16669      636F6D70 
 16670              	.LASF306:
 16671 336d 5F5A4E4B 		.ascii	"_ZNK3r2p10StaticListINS_16RemoteSubscriberEE3endEv\000"
 16671      33723270 
 16671      31305374 
 16671      61746963 
 16671      4C697374 
 16672              	.LASF539:
 16673 33a0 5F5A4E33 		.ascii	"_ZN3r2p7Thread_5yieldEv\000"
 16673      72327037 
 16673      54687265 
 16673      61645F35 
 16673      7969656C 
 16674              	.LASF730:
 16675 33b8 63666770 		.ascii	"cfgp\000"
 16675      00
 16676              	.LASF542:
 16677 33bd 5F5A4E33 		.ascii	"_ZN3r2p6Thread4joinERS0_\000"
 16677      72327036 
 16677      54687265 
 16677      6164346A 
 16677      6F696E45 
ARM GAS  /tmp/ccWQ6gKG.s 			page 322


 16678              	.LASF476:
 16679 33d6 5F5A4E33 		.ascii	"_ZN3r2p10StaticListINS_14LocalPublisherEE5beginEv\000"
 16679      72327031 
 16679      30537461 
 16679      7469634C 
 16679      69737449 
 16680              	.LASF115:
 16681 3408 444D4152 		.ascii	"DMAR\000"
 16681      00
 16682              	.LASF125:
 16683 340d 63616C6C 		.ascii	"callback\000"
 16683      6261636B 
 16683      00
 16684              	.LASF237:
 16685 3416 5F5A4E33 		.ascii	"_ZN3r2p10StaticListINS_15LocalSubscriberEE12begin_u"
 16685      72327031 
 16685      30537461 
 16685      7469634C 
 16685      69737449 
 16686 3449 6E736166 		.ascii	"nsafeEv\000"
 16686      65457600 
 16687              	.LASF255:
 16688 3451 696E6465 		.ascii	"index_of\000"
 16688      785F6F66 
 16688      00
 16689              	.LASF179:
 16690 345a 5F5A4E33 		.ascii	"_ZN3r2p4TimeaSERKS0_\000"
 16690      72327034 
 16690      54696D65 
 16690      61534552 
 16690      4B53305F 
 16691              	.LASF284:
 16692 346f 5F5A4E4B 		.ascii	"_ZNK3r2p10StaticListINS_16RemoteSubscriberEE15conta"
 16692      33723270 
 16692      31305374 
 16692      61746963 
 16692      4C697374 
 16693 34a2 696E735F 		.ascii	"ins_unsafeERKS1_\000"
 16693      756E7361 
 16693      66654552 
 16693      4B53315F 
 16693      00
 16694              	.LASF352:
 16695 34b3 5F5A4E4B 		.ascii	"_ZNK3r2p5Topic8get_nameEv\000"
 16695      33723270 
 16695      35546F70 
 16695      69633867 
 16695      65745F6E 
 16696              	.LASF630:
 16697 34cd 5F5A4E33 		.ascii	"_ZN3r2p4Node8has_nameERKS0_PKc\000"
 16697      72327034 
 16697      4E6F6465 
 16697      38686173 
 16697      5F6E616D 
 16698              	.LASF381:
 16699 34ec 5F5A4E4B 		.ascii	"_ZNK3r2p5Topic23compute_deadline_unsafeEv\000"
 16699      33723270 
ARM GAS  /tmp/ccWQ6gKG.s 			page 323


 16699      35546F70 
 16699      69633233 
 16699      636F6D70 
 16700              	.LASF684:
 16701 3516 5F5A4E33 		.ascii	"_ZN3r2p16SubscriberExtBufINS_9Speed3MsgEE5fetchERPS"
 16701      72327031 
 16701      36537562 
 16701      73637269 
 16701      62657245 
 16702 3549 315F00   		.ascii	"1_\000"
 16703              	.LASF81:
 16704 354c 6D705F6E 		.ascii	"mp_next\000"
 16704      65787400 
 16705              	.LASF720:
 16706 3554 70776D70 		.ascii	"pwmp\000"
 16706      00
 16707              	.LASF413:
 16708 3559 70617463 		.ascii	"patch_pubsub_msg\000"
 16708      685F7075 
 16708      62737562 
 16708      5F6D7367 
 16708      00
 16709              	.LASF489:
 16710 356a 736B6970 		.ascii	"skip_unsafe\000"
 16710      5F756E73 
 16710      61666500 
 16711              	.LASF637:
 16712 3576 42617365 		.ascii	"BaseSubscriber\000"
 16712      53756273 
 16712      63726962 
 16712      657200
 16713              	.LASF351:
 16714 3585 6765745F 		.ascii	"get_name\000"
 16714      6E616D65 
 16714      00
 16715              	.LASF432:
 16716 358e 636F7079 		.ascii	"copy\000"
 16716      00
 16717              	.LASF83:
 16718 3593 6D705F70 		.ascii	"mp_provider\000"
 16718      726F7669 
 16718      64657200 
 16719              	.LASF513:
 16720 359f 63726561 		.ascii	"create_pool\000"
 16720      74655F70 
 16720      6F6F6C00 
 16721              	.LASF370:
 16722 35ab 5F5A4E4B 		.ascii	"_ZNK3r2p5Topic21has_local_subscribersEv\000"
 16722      33723270 
 16722      35546F70 
 16722      69633231 
 16722      6861735F 
 16723              	.LASF46:
 16724 35d3 705F7265 		.ascii	"p_refs\000"
 16724      667300
 16725              	.LASF492:
 16726 35da 5F5A4E4B 		.ascii	"_ZNK3r2p10ArrayQueueIPNS_7MessageEE10get_lengthEv\000"
ARM GAS  /tmp/ccWQ6gKG.s 			page 324


 16726      33723270 
 16726      31304172 
 16726      72617951 
 16726      75657565 
 16727              	.LASF600:
 16728 360c 5F5A4E4B 		.ascii	"_ZNK3r2p10StaticListINS_4NodeEE5beginEv\000"
 16728      33723270 
 16728      31305374 
 16728      61746963 
 16728      4C697374 
 16729              	.LASF10:
 16730 3634 6C6F6E67 		.ascii	"long int\000"
 16730      20696E74 
 16730      00
 16731              	.LASF187:
 16732 363d 5F5A4E33 		.ascii	"_ZN3r2p4Time1mEl\000"
 16732      72327034 
 16732      54696D65 
 16732      316D456C 
 16732      00
 16733              	.LASF74:
 16734 364e 6D5F7175 		.ascii	"m_queue\000"
 16734      65756500 
 16735              	.LASF278:
 16736 3656 5F5A4E4B 		.ascii	"_ZNK3r2p10StaticListINS_16RemoteSubscriberEE15is_em"
 16736      33723270 
 16736      31305374 
 16736      61746963 
 16736      4C697374 
 16737 3689 7074795F 		.ascii	"pty_unsafeEv\000"
 16737      756E7361 
 16737      66654576 
 16737      00
 16738              	.LASF205:
 16739 3696 5F5A4E4B 		.ascii	"_ZNK3r2p10StaticListINS_15LocalSubscriberEE13ConstI"
 16739      33723270 
 16739      31305374 
 16739      61746963 
 16739      4C697374 
 16740 36c9 74657261 		.ascii	"teratordeEv\000"
 16740      746F7264 
 16740      65457600 
 16741              	.LASF147:
 16742 36d5 616C6C6F 		.ascii	"alloc\000"
 16742      6300
 16743              	.LASF254:
 16744 36db 5F5A4E33 		.ascii	"_ZN3r2p10StaticListINS_15LocalSubscriberEE6unlinkER"
 16744      72327031 
 16744      30537461 
 16744      7469634C 
 16744      69737449 
 16745 370e 4E53325F 		.ascii	"NS2_4LinkE\000"
 16745      344C696E 
 16745      6B4500
 16746              	.LASF734:
 16747 3719 5F5A4E33 		.ascii	"_ZN3r2p4TimeC2IiEET_\000"
 16747      72327034 
ARM GAS  /tmp/ccWQ6gKG.s 			page 325


 16747      54696D65 
 16747      43324969 
 16747      4545545F 
 16748              	.LASF259:
 16749 372e 66696E64 		.ascii	"find_first\000"
 16749      5F666972 
 16749      737400
 16750              	.LASF647:
 16751 3739 5F5A4E33 		.ascii	"_ZN3r2p14BaseSubscriber14release_unsafeERNS_7Messag"
 16751      72327031 
 16751      34426173 
 16751      65537562 
 16751      73637269 
 16752 376c 654500   		.ascii	"eE\000"
 16753              	.LASF242:
 16754 376f 5F5A4E4B 		.ascii	"_ZNK3r2p10StaticListINS_15LocalSubscriberEE12begin_"
 16754      33723270 
 16754      31305374 
 16754      61746963 
 16754      4C697374 
 16755 37a2 756E7361 		.ascii	"unsafeEv\000"
 16755      66654576 
 16755      00
 16756              	.LASF745:
 16757 37ab 5F5A4E33 		.ascii	"_ZN3r2p9PIDCfgMsgC2Ev\000"
 16757      72327039 
 16757      50494443 
 16757      66674D73 
 16757      67433245 
 16758              	.LASF369:
 16759 37c1 6861735F 		.ascii	"has_local_subscribers\000"
 16759      6C6F6361 
 16759      6C5F7375 
 16759      62736372 
 16759      69626572 
 16760              	.LASF63:
 16761 37d7 636F6E74 		.ascii	"context\000"
 16761      65787400 
 16762              	.LASF550:
 16763 37df 5F5A4E33 		.ascii	"_ZN3r2p10SpinEvent_10set_threadEPNS_6ThreadE\000"
 16763      72327031 
 16763      30537069 
 16763      6E457665 
 16763      6E745F31 
 16764              	.LASF258:
 16765 380c 5F5A4E4B 		.ascii	"_ZNK3r2p10StaticListINS_15LocalSubscriberEE8contain"
 16765      33723270 
 16765      31305374 
 16765      61746963 
 16765      4C697374 
 16766 383f 7345524B 		.ascii	"sERKS1_\000"
 16766      53315F00 
 16767              	.LASF94:
 16768 3847 4C434B52 		.ascii	"LCKR\000"
 16768      00
 16769              	.LASF701:
 16770 384c 7069645F 		.ascii	"pid_conf\000"
ARM GAS  /tmp/ccWQ6gKG.s 			page 326


 16770      636F6E66 
 16770      00
 16771              	.LASF20:
 16772 3855 75696E74 		.ascii	"uint32_t\000"
 16772      33325F74 
 16772      00
 16773              	.LASF200:
 16774 385e 436F6E73 		.ascii	"ConstIterator\000"
 16774      74497465 
 16774      7261746F 
 16774      7200
 16775              	.LASF511:
 16776 386c 63726561 		.ascii	"create_heap\000"
 16776      74655F68 
 16776      65617000 
 16777              	.LASF686:
 16778 3878 5F5A4E33 		.ascii	"_ZN3r2p16SubscriberExtBufINS_9Speed3MsgEE7releaseER"
 16778      72327031 
 16778      36537562 
 16778      73637269 
 16778      62657245 
 16779 38ab 53315F00 		.ascii	"S1_\000"
 16780              	.LASF219:
 16781 38af 5F5A4E4B 		.ascii	"_ZNK3r2p10StaticListINS_15LocalSubscriberEE15get_he"
 16781      33723270 
 16781      31305374 
 16781      61746963 
 16781      4C697374 
 16782 38e2 61645F75 		.ascii	"ad_unsafeEv\000"
 16782      6E736166 
 16782      65457600 
 16783              	.LASF652:
 16784 38ee 5F5A4E33 		.ascii	"_ZN3r2p14BaseSubscriber9has_topicERKS0_PKc\000"
 16784      72327031 
 16784      34426173 
 16784      65537562 
 16784      73637269 
 16785              	.LASF660:
 16786 3919 71756575 		.ascii	"queue_buf\000"
 16786      655F6275 
 16786      6600
 16787              	.LASF755:
 16788 3923 5F5A4E33 		.ascii	"_ZN3r2p16SubscriberExtBufINS_10EncoderMsgEED0Ev\000"
 16788      72327031 
 16788      36537562 
 16788      73637269 
 16788      62657245 
 16789              	.LASF398:
 16790 3953 5F5A4E33 		.ascii	"_ZN3r2p5Topic4freeERNS_7MessageE\000"
 16790      72327035 
 16790      546F7069 
 16790      63346672 
 16790      65654552 
 16791              	.LASF134:
 16792 3974 73747274 		.ascii	"strtok\000"
 16792      6F6B00
 16793              	.LASF60:
ARM GAS  /tmp/ccWQ6gKG.s 			page 327


 16794 397b 72656761 		.ascii	"regarm_t\000"
 16794      726D5F74 
 16794      00
 16795              	.LASF29:
 16796 3984 6576656E 		.ascii	"eventmask_t\000"
 16796      746D6173 
 16796      6B5F7400 
 16797              	.LASF496:
 16798 3990 5F5A4E33 		.ascii	"_ZN3r2p10ArrayQueueIPNS_7MessageEE4postES2_\000"
 16798      72327031 
 16798      30417272 
 16798      61795175 
 16798      65756549 
 16799              	.LASF164:
 16800 39bc 746F5F6D 		.ascii	"to_ms_raw\000"
 16800      735F7261 
 16800      7700
 16801              	.LASF385:
 16802 39c6 5F5A4E33 		.ascii	"_ZN3r2p5Topic11free_unsafeERNS_7MessageE\000"
 16802      72327035 
 16802      546F7069 
 16802      63313166 
 16802      7265655F 
 16803              	.LASF305:
 16804 39ef 5F5A4E4B 		.ascii	"_ZNK3r2p10StaticListINS_16RemoteSubscriberEE5beginE"
 16804      33723270 
 16804      31305374 
 16804      61746963 
 16804      4C697374 
 16805 3a22 7600     		.ascii	"v\000"
 16806              	.LASF503:
 16807 3a24 5072696F 		.ascii	"Priority\000"
 16807      72697479 
 16807      00
 16808              	.LASF12:
 16809 3a2d 6C6F6E67 		.ascii	"long unsigned int\000"
 16809      20756E73 
 16809      69676E65 
 16809      6420696E 
 16809      7400
 16810              	.LASF635:
 16811 3a3f 73756273 		.ascii	"subscribe<r2p::PIDCfgMsg, 5u>\000"
 16811      63726962 
 16811      653C7232 
 16811      703A3A50 
 16811      49444366 
 16812              	.LASF537:
 16813 3a5d 5F5A4E33 		.ascii	"_ZN3r2p6Thread12set_priorityEm\000"
 16813      72327036 
 16813      54687265 
 16813      61643132 
 16813      7365745F 
 16814              	.LASF712:
 16815 3a7c 6D736770 		.ascii	"msgp\000"
 16815      00
 16816              	.LASF612:
 16817 3a81 5F5A4E4B 		.ascii	"_ZNK3r2p4Node15get_subscribersEv\000"
ARM GAS  /tmp/ccWQ6gKG.s 			page 328


 16817      33723270 
 16817      344E6F64 
 16817      65313567 
 16817      65745F73 
 16818              	.LASF153:
 16819 3aa2 5F5A4E33 		.ascii	"_ZN3r2p11MemoryPool_6extendEPvj\000"
 16819      72327031 
 16819      314D656D 
 16819      6F727950 
 16819      6F6F6C5F 
 16820              	.LASF180:
 16821 3ac2 6F706572 		.ascii	"operator+=\000"
 16821      61746F72 
 16821      2B3D00
 16822              	.LASF230:
 16823 3acd 5F5A4E4B 		.ascii	"_ZNK3r2p10StaticListINS_15LocalSubscriberEE15index_"
 16823      33723270 
 16823      31305374 
 16823      61746963 
 16823      4C697374 
 16824 3b00 6F665F75 		.ascii	"of_unsafeERKS1_\000"
 16824      6E736166 
 16824      6545524B 
 16824      53315F00 
 16825              	.LASF389:
 16826 3b10 5F5A4E33 		.ascii	"_ZN3r2p5Topic21notify_remotes_unsafeERNS_7MessageER"
 16826      72327035 
 16826      546F7069 
 16826      6332316E 
 16826      6F746966 
 16827 3b43 4B4E535F 		.ascii	"KNS_4TimeE\000"
 16827      3454696D 
 16827      654500
 16828              	.LASF185:
 16829 3b4e 5F5A4E33 		.ascii	"_ZN3r2p4Time2msEl\000"
 16829      72327034 
 16829      54696D65 
 16829      326D7345 
 16829      6C00
 16830              	.LASF463:
 16831 3b60 5F5A4E33 		.ascii	"_ZN3r2p10StaticListINS_14LocalPublisherEE14restart_"
 16831      72327031 
 16831      30537461 
 16831      7469634C 
 16831      69737449 
 16832 3b93 756E7361 		.ascii	"unsafeERNS2_14IteratorUnsafeE\000"
 16832      66654552 
 16832      4E53325F 
 16832      31344974 
 16832      65726174 
 16833              	.LASF206:
 16834 3bb1 6F706572 		.ascii	"operator++\000"
 16834      61746F72 
 16834      2B2B00
 16835              	.LASF440:
 16836 3bbc 5472616E 		.ascii	"Transport\000"
 16836      73706F72 
ARM GAS  /tmp/ccWQ6gKG.s 			page 329


 16836      7400
 16837              	.LASF510:
 16838 3bc6 5F5A4E33 		.ascii	"_ZN3r2p7Thread_13create_staticEPvjmPFlS1_ES1_PKc\000"
 16838      72327037 
 16838      54687265 
 16838      61645F31 
 16838      33637265 
 16839              	.LASF535:
 16840 3bf7 5F5A4E33 		.ascii	"_ZN3r2p6Thread4selfEv\000"
 16840      72327036 
 16840      54687265 
 16840      61643473 
 16840      656C6645 
 16841              	.LASF459:
 16842 3c0d 5F5A4E4B 		.ascii	"_ZNK3r2p10StaticListINS_14LocalPublisherEE17find_fi"
 16842      33723270 
 16842      31305374 
 16842      61746963 
 16842      4C697374 
 16843 3c40 7273745F 		.ascii	"rst_unsafeEPFbRKS1_E\000"
 16843      756E7361 
 16843      66654550 
 16843      4662524B 
 16843      53315F45 
 16844              	.LASF683:
 16845 3c55 5F5A4E4B 		.ascii	"_ZNK3r2p16SubscriberExtBufINS_9Speed3MsgEE12get_cal"
 16845      33723270 
 16845      31365375 
 16845      62736372 
 16845      69626572 
 16846 3c88 6C626163 		.ascii	"lbackEv\000"
 16846      6B457600 
 16847              	.LASF213:
 16848 3c90 69735F76 		.ascii	"is_valid\000"
 16848      616C6964 
 16848      00
 16849              	.LASF85:
 16850 3c99 63686172 		.ascii	"char\000"
 16850      00
 16851              	.LASF691:
 16852 3c9e 73746174 		.ascii	"static_cast_check<r2p::EncoderMsg, r2p::Message>\000"
 16852      69635F63 
 16852      6173745F 
 16852      63686563 
 16852      6B3C7232 
 16853              	.LASF66:
 16854 3ccf 725F7175 		.ascii	"r_queue\000"
 16854      65756500 
 16855              	.LASF487:
 16856 3cd7 5F5A4E33 		.ascii	"_ZN3r2p10ArrayQueueIPNS_7MessageEE11post_unsafeES2_"
 16856      72327031 
 16856      30417272 
 16856      61795175 
 16856      65756549 
 16857 3d0a 00       		.ascii	"\000"
 16858              	.LASF349:
 16859 3d0b 6D61785F 		.ascii	"max_queue_length\000"
ARM GAS  /tmp/ccWQ6gKG.s 			page 330


 16859      71756575 
 16859      655F6C65 
 16859      6E677468 
 16859      00
 16860              	.LASF758:
 16861 3d1c 5F5A4E33 		.ascii	"_ZN3r2p16SubscriberExtBufINS_9PIDCfgMsgEED0Ev\000"
 16861      72327031 
 16861      36537562 
 16861      73637269 
 16861      62657245 
 16862              	.LASF667:
 16863 3d4a 53756273 		.ascii	"SubscriberExtBuf<r2p::PIDCfgMsg>\000"
 16863      63726962 
 16863      65724578 
 16863      74427566 
 16863      3C723270 
 16864              	.LASF545:
 16865 3d6b 4D61736B 		.ascii	"Mask\000"
 16865      00
 16866              	.LASF379:
 16867 3d70 636F6D70 		.ascii	"compute_deadline_unsafe\000"
 16867      7574655F 
 16867      64656164 
 16867      6C696E65 
 16867      5F756E73 
 16868              	.LASF698:
 16869 3d88 7069645F 		.ascii	"pid_node_conf\000"
 16869      6E6F6465 
 16869      5F636F6E 
 16869      6600
 16870              	.LASF518:
 16871 3d96 5F5A4E33 		.ascii	"_ZN3r2p7Thread_12get_priorityEv\000"
 16871      72327037 
 16871      54687265 
 16871      61645F31 
 16871      32676574 
 16872              	.LASF777:
 16873 3db6 5F5F7374 		.ascii	"__static_initialization_and_destruction_0\000"
 16873      61746963 
 16873      5F696E69 
 16873      7469616C 
 16873      697A6174 
 16874              	.LASF743:
 16875 3de0 5F5A4E33 		.ascii	"_ZN3r2p10SubscriberINS_10EncoderMsgELj5EED2Ev\000"
 16875      72327031 
 16875      30537562 
 16875      73637269 
 16875      62657249 
 16876              	.LASF232:
 16877 3e0e 5F5A4E4B 		.ascii	"_ZNK3r2p10StaticListINS_15LocalSubscriberEE15contai"
 16877      33723270 
 16877      31305374 
 16877      61746963 
 16877      4C697374 
 16878 3e41 6E735F75 		.ascii	"ns_unsafeERKS1_\000"
 16878      6E736166 
 16878      6545524B 
ARM GAS  /tmp/ccWQ6gKG.s 			page 331


 16878      53315F00 
 16879              	.LASF516:
 16880 3e51 6765745F 		.ascii	"get_priority\000"
 16880      7072696F 
 16880      72697479 
 16880      00
 16881              	.LASF182:
 16882 3e5e 6F706572 		.ascii	"operator-=\000"
 16882      61746F72 
 16882      2D3D00
 16883              	.LASF202:
 16884 3e69 6F706572 		.ascii	"operator->\000"
 16884      61746F72 
 16884      2D3E00
 16885              	.LASF469:
 16886 3e74 5F5A4E4B 		.ascii	"_ZNK3r2p10StaticListINS_14LocalPublisherEE5countEv\000"
 16886      33723270 
 16886      31305374 
 16886      61746963 
 16886      4C697374 
 16887              	.LASF453:
 16888 3ea7 5F5A4E4B 		.ascii	"_ZNK3r2p10StaticListINS_14LocalPublisherEE12count_u"
 16888      33723270 
 16888      31305374 
 16888      61746963 
 16888      4C697374 
 16889 3eda 6E736166 		.ascii	"nsafeEv\000"
 16889      65457600 
 16890              	.LASF721:
 16891 3ee2 656E635F 		.ascii	"enc_callback\000"
 16891      63616C6C 
 16891      6261636B 
 16891      00
 16892              	.LASF368:
 16893 3eef 5F5A4E4B 		.ascii	"_ZNK3r2p5Topic14has_publishersEv\000"
 16893      33723270 
 16893      35546F70 
 16893      69633134 
 16893      6861735F 
 16894              	.LASF57:
 16895 3f10 31325468 		.ascii	"12ThreadsQueue\000"
 16895      72656164 
 16895      73517565 
 16895      756500
 16896              	.LASF477:
 16897 3f1f 5F5A4E33 		.ascii	"_ZN3r2p10StaticListINS_14LocalPublisherEE3endEv\000"
 16897      72327031 
 16897      30537461 
 16897      7469634C 
 16897      69737449 
 16898              	.LASF726:
 16899 3f4f 6E6F6465 		.ascii	"node\000"
 16899      00
 16900              	.LASF326:
 16901 3f54 5F5A4E4B 		.ascii	"_ZNK3r2p10StaticListINS_5TopicEE8get_headEv\000"
 16901      33723270 
 16901      31305374 
ARM GAS  /tmp/ccWQ6gKG.s 			page 332


 16901      61746963 
 16901      4C697374 
 16902              	.LASF208:
 16903 3f80 5F5A4E33 		.ascii	"_ZN3r2p10StaticListINS_15LocalSubscriberEE13ConstIt"
 16903      72327031 
 16903      30537461 
 16903      7469634C 
 16903      69737449 
 16904 3fb3 65726174 		.ascii	"eratorppEi\000"
 16904      6F727070 
 16904      456900
 16905              	.LASF478:
 16906 3fbe 5F5A4E33 		.ascii	"_ZN3r2p10StaticListINS_14LocalPublisherEE7restartER"
 16906      72327031 
 16906      30537461 
 16906      7469634C 
 16906      69737449 
 16907 3ff1 4E53325F 		.ascii	"NS2_8IteratorE\000"
 16907      38497465 
 16907      7261746F 
 16907      724500
 16908              	.LASF546:
 16909 4000 43685468 		.ascii	"ChThread\000"
 16909      72656164 
 16909      00
 16910              	.LASF465:
 16911 4009 5F5A4E4B 		.ascii	"_ZNK3r2p10StaticListINS_14LocalPublisherEE10end_uns"
 16911      33723270 
 16911      31305374 
 16911      61746963 
 16911      4C697374 
 16912 403c 61666545 		.ascii	"afeEv\000"
 16912      7600
 16913              	.LASF687:
 16914 4042 73746174 		.ascii	"static_cast_check<r2p::PIDCfgMsg, r2p::Message>\000"
 16914      69635F63 
 16914      6173745F 
 16914      63686563 
 16914      6B3C7232 
 16915              	.LASF140:
 16916 4072 6765745F 		.ascii	"get_item_size\000"
 16916      6974656D 
 16916      5F73697A 
 16916      6500
 16917              	.LASF207:
 16918 4080 5F5A4E33 		.ascii	"_ZN3r2p10StaticListINS_15LocalSubscriberEE13ConstIt"
 16918      72327031 
 16918      30537461 
 16918      7469634C 
 16918      69737449 
 16919 40b3 65726174 		.ascii	"eratorppEv\000"
 16919      6F727070 
 16919      457600
 16920              	.LASF294:
 16921 40be 5F5A4E4B 		.ascii	"_ZNK3r2p10StaticListINS_16RemoteSubscriberEE8is_emp"
 16921      33723270 
 16921      31305374 
ARM GAS  /tmp/ccWQ6gKG.s 			page 333


 16921      61746963 
 16921      4C697374 
 16922 40f1 74794576 		.ascii	"tyEv\000"
 16922      00
 16923              	.LASF386:
 16924 40f6 6E6F7469 		.ascii	"notify_locals_unsafe\000"
 16924      66795F6C 
 16924      6F63616C 
 16924      735F756E 
 16924      73616665 
 16925              	.LASF43:
 16926 410b 705F7374 		.ascii	"p_stklimit\000"
 16926      6B6C696D 
 16926      697400
 16927              	.LASF190:
 16928 4116 54696D65 		.ascii	"Time<int>\000"
 16928      3C696E74 
 16928      3E00
 16929              	.LASF522:
 16930 4120 5F5A4E33 		.ascii	"_ZN3r2p7Thread_5sleepERKNS_4TimeE\000"
 16930      72327037 
 16930      54687265 
 16930      61645F35 
 16930      736C6565 
 16931              	.LASF228:
 16932 4142 5F5A4E33 		.ascii	"_ZN3r2p10StaticListINS_15LocalSubscriberEE13unlink_"
 16932      72327031 
 16932      30537461 
 16932      7469634C 
 16932      69737449 
 16933 4175 756E7361 		.ascii	"unsafeERNS2_4LinkE\000"
 16933      66654552 
 16933      4E53325F 
 16933      344C696E 
 16933      6B4500
 16934              	.LASF407:
 16935 4188 61647665 		.ascii	"advertise\000"
 16935      72746973 
 16935      6500
 16936              	.LASF156:
 16937 4192 54696D65 		.ascii	"Time\000"
 16937      00
 16938              	.LASF406:
 16939 4197 5F5A4E33 		.ascii	"_ZN3r2p5Topic11extend_poolEPNS_7MessageEj\000"
 16939      72327035 
 16939      546F7069 
 16939      63313165 
 16939      7874656E 
 16940              	.LASF223:
 16941 41c1 6C696E6B 		.ascii	"link_unsafe\000"
 16941      5F756E73 
 16941      61666500 
 16942              	.LASF96:
 16943 41cd 41465248 		.ascii	"AFRH\000"
 16943      00
 16944              	.LASF625:
 16945 41d2 7370696E 		.ascii	"spin\000"
ARM GAS  /tmp/ccWQ6gKG.s 			page 334


 16945      00
 16946              	.LASF95:
 16947 41d7 4146524C 		.ascii	"AFRL\000"
 16947      00
 16948              	.LASF286:
 16949 41dc 5F5A4E4B 		.ascii	"_ZNK3r2p10StaticListINS_16RemoteSubscriberEE17find_"
 16949      33723270 
 16949      31305374 
 16949      61746963 
 16949      4C697374 
 16950 420f 66697273 		.ascii	"first_unsafeEPFbRKS1_PKvES6_\000"
 16950      745F756E 
 16950      73616665 
 16950      45504662 
 16950      524B5331 
 16951              	.LASF412:
 16952 422c 5F5A4E33 		.ascii	"_ZN3r2p5Topic9subscribeERNS_16RemoteSubscriberEj\000"
 16952      72327035 
 16952      546F7069 
 16952      63397375 
 16952      62736372 
 16953              	.LASF105:
 16954 425d 636F6E66 		.ascii	"config\000"
 16954      696700
 16955              	.LASF552:
 16956 4264 5F5A4E33 		.ascii	"_ZN3r2p10SpinEvent_13signal_unsafeEj\000"
 16956      72327031 
 16956      30537069 
 16956      6E457665 
 16956      6E745F31 
 16957              	.LASF723:
 16958 4289 5F5A3132 		.ascii	"_Z12enc_callbackRKN3r2p10EncoderMsgE\000"
 16958      656E635F 
 16958      63616C6C 
 16958      6261636B 
 16958      524B4E33 
 16959              	.LASF292:
 16960 42ae 5F5A4E4B 		.ascii	"_ZNK3r2p10StaticListINS_16RemoteSubscriberEE14resta"
 16960      33723270 
 16960      31305374 
 16960      61746963 
 16960      4C697374 
 16961 42e1 72745F75 		.ascii	"rt_unsafeERNS2_19ConstIteratorUnsafeE\000"
 16961      6E736166 
 16961      6545524E 
 16961      53325F31 
 16961      39436F6E 
 16962              	.LASF769:
 16963 4307 31307077 		.ascii	"10pwmstate_t\000"
 16963      6D737461 
 16963      74655F74 
 16963      00
 16964              	.LASF417:
 16965 4314 4D657373 		.ascii	"Message\000"
 16965      61676500 
 16966              	.LASF34:
 16967 431c 77746F62 		.ascii	"wtobjp\000"
ARM GAS  /tmp/ccWQ6gKG.s 			page 335


 16967      6A7000
 16968              	.LASF358:
 16969 4323 5F5A4E4B 		.ascii	"_ZNK3r2p5Topic16get_payload_sizeEv\000"
 16969      33723270 
 16969      35546F70 
 16969      69633136 
 16969      6765745F 
 16970              	.LASF54:
 16971 4346 705F7265 		.ascii	"p_realprio\000"
 16971      616C7072 
 16971      696F00
 16972              	.LASF142:
 16973 4351 5F5A4E4B 		.ascii	"_ZNK3r2p11MemoryPool_13get_item_sizeEv\000"
 16973      33723270 
 16973      31314D65 
 16973      6D6F7279 
 16973      506F6F6C 
 16974              	.LASF541:
 16975 4378 5F5A4E33 		.ascii	"_ZN3r2p6Thread5sleepERKNS_4TimeE\000"
 16975      72327036 
 16975      54687265 
 16975      61643573 
 16975      6C656570 
 16976              	.LASF690:
 16977 4399 73746174 		.ascii	"static_cast_check<r2p::Speed3Msg, r2p::Message>\000"
 16977      69635F63 
 16977      6173745F 
 16977      63686563 
 16977      6B3C7232 
 16978              	.LASF186:
 16979 43c9 5F5A4E33 		.ascii	"_ZN3r2p4Time1sEl\000"
 16979      72327034 
 16979      54696D65 
 16979      3173456C 
 16979      00
 16980              	.LASF622:
 16981 43da 5F5A4E33 		.ascii	"_ZN3r2p4Node6notifyEj\000"
 16981      72327034 
 16981      4E6F6465 
 16981      366E6F74 
 16981      69667945 
 16982              	.LASF396:
 16983 43f0 72656C65 		.ascii	"release\000"
 16983      61736500 
 16984              	.LASF648:
 16985 43f8 5F5A4E33 		.ascii	"_ZN3r2p14BaseSubscriber6notifyERNS_7MessageERKNS_4T"
 16985      72327031 
 16985      34426173 
 16985      65537562 
 16985      73637269 
 16986 442b 696D6545 		.ascii	"imeE\000"
 16986      00
 16987              	.LASF695:
 16988 4430 646F7562 		.ascii	"double\000"
 16988      6C6500
 16989              	.LASF301:
 16990 4437 5F5A4E4B 		.ascii	"_ZNK3r2p10StaticListINS_16RemoteSubscriberEE10find_"
ARM GAS  /tmp/ccWQ6gKG.s 			page 336


 16990      33723270 
 16990      31305374 
 16990      61746963 
 16990      4C697374 
 16991 446a 66697273 		.ascii	"firstEPFbRKS1_PKvES6_\000"
 16991      74455046 
 16991      62524B53 
 16991      315F504B 
 16991      76455336 
 16992              	.LASF632:
 16993 4480 5F5A4E33 		.ascii	"_ZN3r2p4Node9subscribeINS_9Speed3MsgELj5EEEbRNS_10S"
 16993      72327034 
 16993      4E6F6465 
 16993      39737562 
 16993      73637269 
 16994 44b3 75627363 		.ascii	"ubscriberIT_XT0_EEEPKc\000"
 16994      72696265 
 16994      7249545F 
 16994      5854305F 
 16994      45454550 
 16995              	.LASF752:
 16996 44ca 5F5A4E33 		.ascii	"_ZN3r2p16SubscriberExtBufINS_9Speed3MsgEED0Ev\000"
 16996      72327031 
 16996      36537562 
 16996      73637269 
 16996      62657245 
 16997              	.LASF597:
 16998 44f8 5F5A4E33 		.ascii	"_ZN3r2p10StaticListINS_4NodeEE5beginEv\000"
 16998      72327031 
 16998      30537461 
 16998      7469634C 
 16998      69737449 
 16999              	.LASF452:
 17000 451f 5F5A4E4B 		.ascii	"_ZNK3r2p10StaticListINS_14LocalPublisherEE15is_empt"
 17000      33723270 
 17000      31305374 
 17000      61746963 
 17000      4C697374 
 17001 4552 795F756E 		.ascii	"y_unsafeEv\000"
 17001      73616665 
 17001      457600
 17002              	.LASF722:
 17003 455d 7069645F 		.ascii	"pid_node\000"
 17003      6E6F6465 
 17003      00
 17004              	.LASF375:
 17005 4566 69735F61 		.ascii	"is_awaiting_advertisements\000"
 17005      77616974 
 17005      696E675F 
 17005      61647665 
 17005      72746973 
 17006              	.LASF557:
 17007 4581 5370696E 		.ascii	"SpinEvent\000"
 17007      4576656E 
 17007      7400
 17008              	.LASF629:
 17009 458b 7E4E6F64 		.ascii	"~Node\000"
ARM GAS  /tmp/ccWQ6gKG.s 			page 337


 17009      6500
 17010              	.LASF467:
 17011 4591 5F5A4E4B 		.ascii	"_ZNK3r2p10StaticListINS_14LocalPublisherEE8get_head"
 17011      33723270 
 17011      31305374 
 17011      61746963 
 17011      4C697374 
 17012 45c4 457600   		.ascii	"Ev\000"
 17013              	.LASF414:
 17014 45c7 6861735F 		.ascii	"has_name\000"
 17014      6E616D65 
 17014      00
 17015              	.LASF92:
 17016 45d0 50555044 		.ascii	"PUPDR\000"
 17016      5200
 17017              	.LASF9:
 17018 45d6 5F5F696E 		.ascii	"__int32_t\000"
 17018      7433325F 
 17018      7400
 17019              	.LASF422:
 17020 45e0 61637175 		.ascii	"acquire_unsafe\000"
 17020      6972655F 
 17020      756E7361 
 17020      666500
 17021              	.LASF378:
 17022 45ef 5F5A4E4B 		.ascii	"_ZNK3r2p5Topic25is_awaiting_subscriptionsEv\000"
 17022      33723270 
 17022      35546F70 
 17022      69633235 
 17022      69735F61 
 17023              	.LASF11:
 17024 461b 5F5F7569 		.ascii	"__uint32_t\000"
 17024      6E743332 
 17024      5F7400
 17025              	.LASF444:
 17026 4626 5F5A4E4B 		.ascii	"_ZNK3r2p10StaticListINS_14LocalPublisherEE13ConstIt"
 17026      33723270 
 17026      31305374 
 17026      61746963 
 17026      4C697374 
 17027 4659 65726174 		.ascii	"eratorptEv\000"
 17027      6F727074 
 17027      457600
 17028              	.LASF313:
 17029 4664 5F5A4E33 		.ascii	"_ZN3r2p10StaticListINS_5TopicEE11link_unsafeERNS2_4"
 17029      72327031 
 17029      30537461 
 17029      7469634C 
 17029      69737449 
 17030 4697 4C696E6B 		.ascii	"LinkE\000"
 17030      4500
 17031              	.LASF231:
 17032 469d 636F6E74 		.ascii	"contains_unsafe\000"
 17032      61696E73 
 17032      5F756E73 
 17032      61666500 
 17033              	.LASF706:
ARM GAS  /tmp/ccWQ6gKG.s 			page 338


 17034 46ad 5F5A4E33 		.ascii	"_ZN3PID3setEf\000"
 17034      50494433 
 17034      73657445 
 17034      6600
 17035              	.LASF735:
 17036 46bb 6974656D 		.ascii	"item\000"
 17036      00
 17037              	.LASF324:
 17038 46c0 5F5A4E4B 		.ascii	"_ZNK3r2p10StaticListINS_5TopicEE10end_unsafeEv\000"
 17038      33723270 
 17038      31305374 
 17038      61746963 
 17038      4C697374 
 17039              	.LASF728:
 17040 46ef 656E635F 		.ascii	"enc_sub\000"
 17040      73756200 
 17041              	.LASF415:
 17042 46f7 5F5A4E4B 		.ascii	"_ZNK3r2p5Topic16patch_pubsub_msgERNS_7MessageERNS_9"
 17042      33723270 
 17042      35546F70 
 17042      69633136 
 17042      70617463 
 17043 472a 5472616E 		.ascii	"TransportE\000"
 17043      73706F72 
 17043      744500
 17044              	.LASF494:
 17045 4735 5F5A4E4B 		.ascii	"_ZNK3r2p10ArrayQueueIPNS_7MessageEE9get_countEv\000"
 17045      33723270 
 17045      31304172 
 17045      72617951 
 17045      75657565 
 17046              	.LASF52:
 17047 4765 705F6570 		.ascii	"p_epending\000"
 17047      656E6469 
 17047      6E6700
 17048              	.LASF500:
 17049 4770 5F5A4E33 		.ascii	"_ZN3r2p10ArrayQueueIPNS_7MessageEE4skipEv\000"
 17049      72327031 
 17049      30417272 
 17049      61795175 
 17049      65756549 
 17050              	.LASF495:
 17051 479a 706F7374 		.ascii	"post\000"
 17051      00
 17052              	.LASF89:
 17053 479f 4D4F4445 		.ascii	"MODER\000"
 17053      5200
 17054              	.LASF393:
 17055 47a5 5F5A4E4B 		.ascii	"_ZNK3r2p5Topic16compute_deadlineERKNS_4TimeE\000"
 17055      33723270 
 17055      35546F70 
 17055      69633136 
 17055      636F6D70 
 17056              	.LASF247:
 17057 47d2 69735F65 		.ascii	"is_empty\000"
 17057      6D707479 
 17057      00
ARM GAS  /tmp/ccWQ6gKG.s 			page 339


 17058              	.LASF222:
 17059 47db 5F5A4E4B 		.ascii	"_ZNK3r2p10StaticListINS_15LocalSubscriberEE12count_"
 17059      33723270 
 17059      31305374 
 17059      61746963 
 17059      4C697374 
 17060 480e 756E7361 		.ascii	"unsafeEv\000"
 17060      66654576 
 17060      00
 17061              	.LASF447:
 17062 4817 5F5A4E33 		.ascii	"_ZN3r2p10StaticListINS_14LocalPublisherEE13ConstIte"
 17062      72327031 
 17062      30537461 
 17062      7469634C 
 17062      69737449 
 17063 484a 7261746F 		.ascii	"ratorppEi\000"
 17063      72707045 
 17063      6900
 17064              	.LASF750:
 17065 4854 5F5A4E33 		.ascii	"_ZN3r2p16SubscriberExtBufINS_9Speed3MsgEEC2EPPS1_jP"
 17065      72327031 
 17065      36537562 
 17065      73637269 
 17065      62657245 
 17066 4887 4662524B 		.ascii	"FbRKS1_E\000"
 17066      53315F45 
 17066      00
 17067              	.LASF714:
 17068 4890 5F5A4E33 		.ascii	"_ZN3r2p7MessageC2Ev\000"
 17068      72327037 
 17068      4D657373 
 17068      61676543 
 17068      32457600 
 17069              	.LASF733:
 17070 48a4 5F5A4E33 		.ascii	"_ZN3r2p4TimeC2IlEET_\000"
 17070      72327034 
 17070      54696D65 
 17070      4332496C 
 17070      4545545F 
 17071              	.LASF446:
 17072 48b9 5F5A4E33 		.ascii	"_ZN3r2p10StaticListINS_14LocalPublisherEE13ConstIte"
 17072      72327031 
 17072      30537461 
 17072      7469634C 
 17072      69737449 
 17073 48ec 7261746F 		.ascii	"ratorppEv\000"
 17073      72707045 
 17073      7600
 17074              	.LASF486:
 17075 48f6 706F7374 		.ascii	"post_unsafe\000"
 17075      5F756E73 
 17075      61666500 
 17076              	.LASF276:
 17077 4902 53746174 		.ascii	"StaticList<r2p::RemoteSubscriber>\000"
 17077      69634C69 
 17077      73743C72 
 17077      32703A3A 
ARM GAS  /tmp/ccWQ6gKG.s 			page 340


 17077      52656D6F 
 17078              	.LASF119:
 17079 4924 73746D33 		.ascii	"stm32_tim_t\000"
 17079      325F7469 
 17079      6D5F7400 
 17080              	.LASF308:
 17081 4930 52656D6F 		.ascii	"RemoteSubscriber\000"
 17081      74655375 
 17081      62736372 
 17081      69626572 
 17081      00
 17082              	.LASF224:
 17083 4941 6C696E6B 		.ascii	"link_tail_unsafe\000"
 17083      5F746169 
 17083      6C5F756E 
 17083      73616665 
 17083      00
 17084              	.LASF506:
 17085 4952 5F5A4E33 		.ascii	"_ZN3r2p7Thread_8get_implEv\000"
 17085      72327037 
 17085      54687265 
 17085      61645F38 
 17085      6765745F 
 17086              	.LASF316:
 17087 496d 5F5A4E4B 		.ascii	"_ZNK3r2p10StaticListINS_5TopicEE15index_of_unsafeER"
 17087      33723270 
 17087      31305374 
 17087      61746963 
 17087      4C697374 
 17088 49a0 4B53315F 		.ascii	"KS1_\000"
 17088      00
 17089              	.LASF67:
 17090 49a5 725F7072 		.ascii	"r_prio\000"
 17090      696F00
 17091              	.LASF474:
 17092 49ac 5F5A4E4B 		.ascii	"_ZNK3r2p10StaticListINS_14LocalPublisherEE10find_fi"
 17092      33723270 
 17092      31305374 
 17092      61746963 
 17092      4C697374 
 17093 49df 72737445 		.ascii	"rstEPFbRKS1_E\000"
 17093      50466252 
 17093      4B53315F 
 17093      4500
 17094              	.LASF198:
 17095 49ed 49746572 		.ascii	"Iterator\000"
 17095      61746F72 
 17095      00
 17096              	.LASF762:
 17097 49f6 49544D5F 		.ascii	"ITM_RxBuffer\000"
 17097      52784275 
 17097      66666572 
 17097      00
 17098              	.LASF80:
 17099 4a03 31304D65 		.ascii	"10MemoryPool\000"
 17099      6D6F7279 
 17099      506F6F6C 
ARM GAS  /tmp/ccWQ6gKG.s 			page 341


 17099      00
 17100              	.LASF15:
 17101 4a10 6C6F6E67 		.ascii	"long long unsigned int\000"
 17101      206C6F6E 
 17101      6720756E 
 17101      7369676E 
 17101      65642069 
 17102              	.LASF569:
 17103 4a27 5F5A4E4B 		.ascii	"_ZNK3r2p10StaticListINS_4NodeEE13ConstIteratoreqERK"
 17103      33723270 
 17103      31305374 
 17103      61746963 
 17103      4C697374 
 17104 4a5a 53335F00 		.ascii	"S3_\000"
 17105              	.LASF340:
 17106 4a5e 5F5A4E4B 		.ascii	"_ZNK3r2p10StaticListINS_5TopicEE7restartERNS2_13Con"
 17106      33723270 
 17106      31305374 
 17106      61746963 
 17106      4C697374 
 17107 4a91 73744974 		.ascii	"stIteratorE\000"
 17107      65726174 
 17107      6F724500 
 17108              	.LASF309:
 17109 4a9d 53746174 		.ascii	"StaticList<r2p::Topic>\000"
 17109      69634C69 
 17109      73743C72 
 17109      32703A3A 
 17109      546F7069 
 17110              	.LASF260:
 17111 4ab4 5F5A4E4B 		.ascii	"_ZNK3r2p10StaticListINS_15LocalSubscriberEE10find_f"
 17111      33723270 
 17111      31305374 
 17111      61746963 
 17111      4C697374 
 17112 4ae7 69727374 		.ascii	"irstEPFbRKS1_E\000"
 17112      45504662 
 17112      524B5331 
 17112      5F4500
 17113              	.LASF754:
 17114 4af6 5F5A4E33 		.ascii	"_ZN3r2p16SubscriberExtBufINS_10EncoderMsgEED2Ev\000"
 17114      72327031 
 17114      36537562 
 17114      73637269 
 17114      62657245 
 17115              	.LASF639:
 17116 4b26 746F7069 		.ascii	"topicp\000"
 17116      637000
 17117              	.LASF342:
 17118 4b2d 6E616D65 		.ascii	"namep\000"
 17118      7000
 17119              	.LASF109:
 17120 4b33 534D4352 		.ascii	"SMCR\000"
 17120      00
 17121              	.LASF501:
 17122 4b38 41727261 		.ascii	"ArrayQueue\000"
 17122      79517565 
ARM GAS  /tmp/ccWQ6gKG.s 			page 342


 17122      756500
 17123              	.LASF295:
 17124 4b43 5F5A4E4B 		.ascii	"_ZNK3r2p10StaticListINS_16RemoteSubscriberEE5countE"
 17124      33723270 
 17124      31305374 
 17124      61746963 
 17124      4C697374 
 17125 4b76 7600     		.ascii	"v\000"
 17126              	.LASF298:
 17127 4b78 5F5A4E4B 		.ascii	"_ZNK3r2p10StaticListINS_16RemoteSubscriberEE8index_"
 17127      33723270 
 17127      31305374 
 17127      61746963 
 17127      4C697374 
 17128 4bab 6F664552 		.ascii	"ofERKS1_\000"
 17128      4B53315F 
 17128      00
 17129              	.LASF599:
 17130 4bb4 5F5A4E33 		.ascii	"_ZN3r2p10StaticListINS_4NodeEE7restartERNS2_8Iterat"
 17130      72327031 
 17130      30537461 
 17130      7469634C 
 17130      69737449 
 17131 4be7 6F724500 		.ascii	"orE\000"
 17132              	.LASF287:
 17133 4beb 5F5A4E33 		.ascii	"_ZN3r2p10StaticListINS_16RemoteSubscriberEE12begin_"
 17133      72327031 
 17133      30537461 
 17133      7469634C 
 17133      69737449 
 17134 4c1e 756E7361 		.ascii	"unsafeEv\000"
 17134      66654576 
 17134      00
 17135              	.LASF45:
 17136 4c27 705F666C 		.ascii	"p_flags\000"
 17136      61677300 
 17137              	.LASF317:
 17138 4c2f 5F5A4E4B 		.ascii	"_ZNK3r2p10StaticListINS_5TopicEE15contains_unsafeER"
 17138      33723270 
 17138      31305374 
 17138      61746963 
 17138      4C697374 
 17139 4c62 4B53315F 		.ascii	"KS1_\000"
 17139      00
 17140              	.LASF521:
 17141 4c67 736C6565 		.ascii	"sleep\000"
 17141      7000
 17142              	.LASF35:
 17143 4c6d 65776D61 		.ascii	"ewmask\000"
 17143      736B00
 17144              	.LASF203:
 17145 4c74 5F5A4E4B 		.ascii	"_ZNK3r2p10StaticListINS_15LocalSubscriberEE13ConstI"
 17145      33723270 
 17145      31305374 
 17145      61746963 
 17145      4C697374 
 17146 4ca7 74657261 		.ascii	"teratorptEv\000"
ARM GAS  /tmp/ccWQ6gKG.s 			page 343


 17146      746F7270 
 17146      74457600 
 17147              	.LASF498:
 17148 4cb3 5F5A4E33 		.ascii	"_ZN3r2p10ArrayQueueIPNS_7MessageEE5fetchERS2_\000"
 17148      72327031 
 17148      30417272 
 17148      61795175 
 17148      65756549 
 17149              	.LASF523:
 17150 4ce1 6A6F696E 		.ascii	"join\000"
 17150      00
 17151              	.LASF350:
 17152 4ce6 62795F6D 		.ascii	"by_middleware\000"
 17152      6964646C 
 17152      65776172 
 17152      6500
 17153              	.LASF53:
 17154 4cf4 705F6D74 		.ascii	"p_mtxlist\000"
 17154      786C6973 
 17154      7400
 17155              	.LASF169:
 17156 4cfe 5F5A4E4B 		.ascii	"_ZNK3r2p4Time8to_m_rawEv\000"
 17156      33723270 
 17156      3454696D 
 17156      6538746F 
 17156      5F6D5F72 
 17157              	.LASF564:
 17158 4d17 5F5A4E33 		.ascii	"_ZN3r2p10StaticListINS_4NodeEE13ConstIteratoraSERKS"
 17158      72327031 
 17158      30537461 
 17158      7469634C 
 17158      69737449 
 17159 4d4a 335F00   		.ascii	"3_\000"
 17160              	.LASF595:
 17161 4d4d 5F5A4E4B 		.ascii	"_ZNK3r2p10StaticListINS_4NodeEE10find_firstEPFbRKS1"
 17161      33723270 
 17161      31305374 
 17161      61746963 
 17161      4C697374 
 17162 4d80 5F4500   		.ascii	"_E\000"
 17163              	.LASF24:
 17164 4d83 74737461 		.ascii	"tstate_t\000"
 17164      74655F74 
 17164      00
 17165              	.LASF181:
 17166 4d8c 5F5A4E33 		.ascii	"_ZN3r2p4TimepLERKS0_\000"
 17166      72327034 
 17166      54696D65 
 17166      704C4552 
 17166      4B53305F 
 17167              	.LASF360:
 17168 4da1 5F5A4E4B 		.ascii	"_ZNK3r2p5Topic20get_max_queue_lengthEv\000"
 17168      33723270 
 17168      35546F70 
 17168      69633230 
 17168      6765745F 
 17169              	.LASF592:
ARM GAS  /tmp/ccWQ6gKG.s 			page 344


 17170 4dc8 5F5A4E33 		.ascii	"_ZN3r2p10StaticListINS_4NodeEE6unlinkERNS2_4LinkE\000"
 17170      72327031 
 17170      30537461 
 17170      7469634C 
 17170      69737449 
 17171              	.LASF129:
 17172 4dfa 6368616E 		.ascii	"channels\000"
 17172      6E656C73 
 17172      00
 17173              	.LASF757:
 17174 4e03 5F5A4E33 		.ascii	"_ZN3r2p16SubscriberExtBufINS_9PIDCfgMsgEED2Ev\000"
 17174      72327031 
 17174      36537562 
 17174      73637269 
 17174      62657245 
 17175              	.LASF42:
 17176 4e31 705F6E61 		.ascii	"p_name\000"
 17176      6D6500
 17177              	.LASF584:
 17178 4e38 5F5A4E33 		.ascii	"_ZN3r2p10StaticListINS_4NodeEE14restart_unsafeERNS2"
 17178      72327031 
 17178      30537461 
 17178      7469634C 
 17178      69737449 
 17179 4e6b 5F313449 		.ascii	"_14IteratorUnsafeE\000"
 17179      74657261 
 17179      746F7255 
 17179      6E736166 
 17179      654500
 17180              	.LASF165:
 17181 4e7e 5F5A4E4B 		.ascii	"_ZNK3r2p4Time9to_ms_rawEv\000"
 17181      33723270 
 17181      3454696D 
 17181      6539746F 
 17181      5F6D735F 
 17182              	.LASF354:
 17183 4e98 5F5A4E4B 		.ascii	"_ZNK3r2p5Topic19get_publish_timeoutEv\000"
 17183      33723270 
 17183      35546F70 
 17183      69633139 
 17183      6765745F 
 17184              	.LASF724:
 17185 4ebe 5F5A3870 		.ascii	"_Z8pid_nodePv\000"
 17185      69645F6E 
 17185      6F646550 
 17185      7600
 17186              	.LASF167:
 17187 4ecc 5F5A4E4B 		.ascii	"_ZNK3r2p4Time8to_s_rawEv\000"
 17187      33723270 
 17187      3454696D 
 17187      6538746F 
 17187      5F735F72 
 17188              	.LASF624:
 17189 4ee5 5F5A4E33 		.ascii	"_ZN3r2p4Node11notify_stopEv\000"
 17189      72327034 
 17189      4E6F6465 
 17189      31316E6F 
ARM GAS  /tmp/ccWQ6gKG.s 			page 345


 17189      74696679 
 17190              	.LASF376:
 17191 4f01 5F5A4E4B 		.ascii	"_ZNK3r2p5Topic26is_awaiting_advertisementsEv\000"
 17191      33723270 
 17191      35546F70 
 17191      69633236 
 17191      69735F61 
 17192              	.LASF296:
 17193 4f2e 5F5A4E33 		.ascii	"_ZN3r2p10StaticListINS_16RemoteSubscriberEE4linkERN"
 17193      72327031 
 17193      30537461 
 17193      7469634C 
 17193      69737449 
 17194 4f61 53325F34 		.ascii	"S2_4LinkE\000"
 17194      4C696E6B 
 17194      4500
 17195              	.LASF364:
 17196 4f6b 5F5A4E4B 		.ascii	"_ZNK3r2p5Topic20has_local_publishersEv\000"
 17196      33723270 
 17196      35546F70 
 17196      69633230 
 17196      6861735F 
 17197              	.LASF738:
 17198 4f92 5F5F696E 		.ascii	"__in_chrg\000"
 17198      5F636872 
 17198      6700
 17199              	.LASF448:
 17200 4f9c 5F5A4E4B 		.ascii	"_ZNK3r2p10StaticListINS_14LocalPublisherEE13ConstIt"
 17200      33723270 
 17200      31305374 
 17200      61746963 
 17200      4C697374 
 17201 4fcf 65726174 		.ascii	"eratoreqERKS3_\000"
 17201      6F726571 
 17201      45524B53 
 17201      335F00
 17202              	.LASF300:
 17203 4fde 5F5A4E4B 		.ascii	"_ZNK3r2p10StaticListINS_16RemoteSubscriberEE10find_"
 17203      33723270 
 17203      31305374 
 17203      61746963 
 17203      4C697374 
 17204 5011 66697273 		.ascii	"firstEPFbRKS1_E\000"
 17204      74455046 
 17204      62524B53 
 17204      315F4500 
 17205              	.LASF194:
 17206 5021 4C696E6B 		.ascii	"Link\000"
 17206      00
 17207              	.LASF457:
 17208 5026 5F5A4E4B 		.ascii	"_ZNK3r2p10StaticListINS_14LocalPublisherEE15index_o"
 17208      33723270 
 17208      31305374 
 17208      61746963 
 17208      4C697374 
 17209 5059 665F756E 		.ascii	"f_unsafeERKS1_\000"
 17209      73616665 
ARM GAS  /tmp/ccWQ6gKG.s 			page 346


 17209      45524B53 
 17209      315F00
 17210              	.LASF339:
 17211 5068 5F5A4E4B 		.ascii	"_ZNK3r2p10StaticListINS_5TopicEE3endEv\000"
 17211      33723270 
 17211      31305374 
 17211      61746963 
 17211      4C697374 
 17212              	.LASF245:
 17213 508f 6765745F 		.ascii	"get_head\000"
 17213      68656164 
 17213      00
 17214              	.LASF373:
 17215 5098 6861735F 		.ascii	"has_subscribers\000"
 17215      73756273 
 17215      63726962 
 17215      65727300 
 17216              	.LASF653:
 17217 50a8 53706565 		.ascii	"Speed3Msg\000"
 17217      64334D73 
 17217      6700
 17218              	.LASF138:
 17219 50b2 4D656D6F 		.ascii	"MemoryPool_\000"
 17219      7279506F 
 17219      6F6C5F00 
 17220              	.LASF13:
 17221 50be 6C6F6E67 		.ascii	"long long int\000"
 17221      206C6F6E 
 17221      6720696E 
 17221      7400
 17222              	.LASF530:
 17223 50cc 494E5445 		.ascii	"INTERRUPT\000"
 17223      52525550 
 17223      5400
 17224              	.LASF353:
 17225 50d6 6765745F 		.ascii	"get_publish_timeout\000"
 17225      7075626C 
 17225      6973685F 
 17225      74696D65 
 17225      6F757400 
 17226              	.LASF325:
 17227 50ea 5F5A4E4B 		.ascii	"_ZNK3r2p10StaticListINS_5TopicEE14restart_unsafeERN"
 17227      33723270 
 17227      31305374 
 17227      61746963 
 17227      4C697374 
 17228 511d 53325F31 		.ascii	"S2_19ConstIteratorUnsafeE\000"
 17228      39436F6E 
 17228      73744974 
 17228      65726174 
 17228      6F72556E 
 17229              	.LASF280:
 17230 5137 5F5A4E33 		.ascii	"_ZN3r2p10StaticListINS_16RemoteSubscriberEE11link_u"
 17230      72327031 
 17230      30537461 
 17230      7469634C 
 17230      69737449 
ARM GAS  /tmp/ccWQ6gKG.s 			page 347


 17231 516a 6E736166 		.ascii	"nsafeERNS2_4LinkE\000"
 17231      6545524E 
 17231      53325F34 
 17231      4C696E6B 
 17231      4500
 17232              	.LASF512:
 17233 517c 5F5A4E33 		.ascii	"_ZN3r2p7Thread_11create_heapEPvjmPFlS1_ES1_PKc\000"
 17233      72327037 
 17233      54687265 
 17233      61645F31 
 17233      31637265 
 17234              	.LASF210:
 17235 51ab 5F5A4E4B 		.ascii	"_ZNK3r2p10StaticListINS_15LocalSubscriberEE13ConstI"
 17235      33723270 
 17235      31305374 
 17235      61746963 
 17235      4C697374 
 17236 51de 74657261 		.ascii	"teratoreqERKS3_\000"
 17236      746F7265 
 17236      7145524B 
 17236      53335F00 
 17237              	.LASF573:
 17238 51ee 5F5A4E4B 		.ascii	"_ZNK3r2p10StaticListINS_4NodeEE15is_empty_unsafeEv\000"
 17238      33723270 
 17238      31305374 
 17238      61746963 
 17238      4C697374 
 17239              	.LASF563:
 17240 5221 53746174 		.ascii	"StaticList<r2p::Node>\000"
 17240      69634C69 
 17240      73743C72 
 17240      32703A3A 
 17240      4E6F6465 
 17241              	.LASF666:
 17242 5237 51554555 		.ascii	"QUEUE_LENGTH\000"
 17242      455F4C45 
 17242      4E475448 
 17242      00
 17243              	.LASF345:
 17244 5244 6E756D5F 		.ascii	"num_local_publishers\000"
 17244      6C6F6361 
 17244      6C5F7075 
 17244      626C6973 
 17244      68657273 
 17245              	.LASF399:
 17246 5259 6E6F7469 		.ascii	"notify_locals\000"
 17246      66795F6C 
 17246      6F63616C 
 17246      7300
 17247              	.LASF608:
 17248 5267 5F5A4E4B 		.ascii	"_ZNK3r2p4Node8get_nameEv\000"
 17248      33723270 
 17248      344E6F64 
 17248      65386765 
 17248      745F6E61 
 17249              	.LASF450:
 17250 5280 5F5A4E4B 		.ascii	"_ZNK3r2p10StaticListINS_14LocalPublisherEE13ConstIt"
ARM GAS  /tmp/ccWQ6gKG.s 			page 348


 17250      33723270 
 17250      31305374 
 17250      61746963 
 17250      4C697374 
 17251 52b3 65726174 		.ascii	"erator8is_validEv\000"
 17251      6F723869 
 17251      735F7661 
 17251      6C696445 
 17251      7600
 17252              	.LASF672:
 17253 52c5 5F5A4E33 		.ascii	"_ZN3r2p16SubscriberExtBufINS_9PIDCfgMsgEE5fetchERPS"
 17253      72327031 
 17253      36537562 
 17253      73637269 
 17253      62657245 
 17254 52f8 315F524E 		.ascii	"1_RNS_4TimeE\000"
 17254      535F3454 
 17254      696D6545 
 17254      00
 17255              	.LASF299:
 17256 5305 5F5A4E4B 		.ascii	"_ZNK3r2p10StaticListINS_16RemoteSubscriberEE8contai"
 17256      33723270 
 17256      31305374 
 17256      61746963 
 17256      4C697374 
 17257 5338 6E734552 		.ascii	"nsERKS1_\000"
 17257      4B53315F 
 17257      00
 17258              	.LASF334:
 17259 5341 5F5A4E4B 		.ascii	"_ZNK3r2p10StaticListINS_5TopicEE10find_firstEPFbRKS"
 17259      33723270 
 17259      31305374 
 17259      61746963 
 17259      4C697374 
 17260 5374 315F504B 		.ascii	"1_PKvES6_\000"
 17260      76455336 
 17260      5F00
 17261              	.LASF585:
 17262 537e 5F5A4E4B 		.ascii	"_ZNK3r2p10StaticListINS_4NodeEE12begin_unsafeEv\000"
 17262      33723270 
 17262      31305374 
 17262      61746963 
 17262      4C697374 
 17263              	.LASF391:
 17264 53ae 5F5A4E33 		.ascii	"_ZN3r2p5Topic19forward_copy_unsafeERKNS_7MessageERK"
 17264      72327035 
 17264      546F7069 
 17264      63313966 
 17264      6F727761 
 17265 53e1 4E535F34 		.ascii	"NS_4TimeE\000"
 17265      54696D65 
 17265      4500
 17266              	.LASF480:
 17267 53eb 5F5A4E4B 		.ascii	"_ZNK3r2p10StaticListINS_14LocalPublisherEE3endEv\000"
 17267      33723270 
 17267      31305374 
 17267      61746963 
ARM GAS  /tmp/ccWQ6gKG.s 			page 349


 17267      4C697374 
 17268              	.LASF220:
 17269 541c 5F5A4E4B 		.ascii	"_ZNK3r2p10StaticListINS_15LocalSubscriberEE15is_emp"
 17269      33723270 
 17269      31305374 
 17269      61746963 
 17269      4C697374 
 17270 544f 74795F75 		.ascii	"ty_unsafeEv\000"
 17270      6E736166 
 17270      65457600 
 17271              	.LASF41:
 17272 545b 705F6F6C 		.ascii	"p_older\000"
 17272      64657200 
 17273              	.LASF770:
 17274 5463 5F5A4E33 		.ascii	"_ZN3r2p4Time3nowEv\000"
 17274      72327034 
 17274      54696D65 
 17274      336E6F77 
 17274      457600
 17275              	.LASF188:
 17276 5476 5F5A4E33 		.ascii	"_ZN3r2p4Time2hzEd\000"
 17276      72327034 
 17276      54696D65 
 17276      32687A45 
 17276      6400
 17277              	.LASF218:
 17278 5488 69735F65 		.ascii	"is_empty_unsafe\000"
 17278      6D707479 
 17278      5F756E73 
 17278      61666500 
 17279              	.LASF591:
 17280 5498 5F5A4E33 		.ascii	"_ZN3r2p10StaticListINS_4NodeEE4linkERNS2_4LinkE\000"
 17280      72327031 
 17280      30537461 
 17280      7469634C 
 17280      69737449 
 17281              	.LASF650:
 17282 54c8 5F5A4E33 		.ascii	"_ZN3r2p14BaseSubscriber7releaseERNS_7MessageE\000"
 17282      72327031 
 17282      34426173 
 17282      65537562 
 17282      73637269 
 17283              	.LASF609:
 17284 54f6 6765745F 		.ascii	"get_publishers\000"
 17284      7075626C 
 17284      69736865 
 17284      727300
 17285              	.LASF357:
 17286 5505 6765745F 		.ascii	"get_payload_size\000"
 17286      7061796C 
 17286      6F61645F 
 17286      73697A65 
 17286      00
 17287              	.LASF388:
 17288 5516 6E6F7469 		.ascii	"notify_remotes_unsafe\000"
 17288      66795F72 
 17288      656D6F74 
ARM GAS  /tmp/ccWQ6gKG.s 			page 350


 17288      65735F75 
 17288      6E736166 
 17289              	.LASF371:
 17290 552c 6861735F 		.ascii	"has_remote_subscribers\000"
 17290      72656D6F 
 17290      74655F73 
 17290      75627363 
 17290      72696265 
 17291              	.LASF163:
 17292 5543 5F5A4E4B 		.ascii	"_ZNK3r2p4Time9to_us_rawEv\000"
 17292      33723270 
 17292      3454696D 
 17292      6539746F 
 17292      5F75735F 
 17293              	.LASF410:
 17294 555d 73756273 		.ascii	"subscribe\000"
 17294      63726962 
 17294      6500
 17295              	.LASF404:
 17296 5567 5F5A4E33 		.ascii	"_ZN3r2p5Topic12forward_copyERKNS_7MessageERKNS_4Tim"
 17296      72327035 
 17296      546F7069 
 17296      63313266 
 17296      6F727761 
 17297 559a 654500   		.ascii	"eE\000"
 17298              	.LASF128:
 17299 559d 66726571 		.ascii	"frequency\000"
 17299      75656E63 
 17299      7900
 17300              	.LASF644:
 17301 55a7 5F5A4E33 		.ascii	"_ZN3r2p14BaseSubscriber17notify_subscribedERNS_5Top"
 17301      72327031 
 17301      34426173 
 17301      65537562 
 17301      73637269 
 17302 55da 69634500 		.ascii	"icE\000"
 17303              	.LASF246:
 17304 55de 5F5A4E4B 		.ascii	"_ZNK3r2p10StaticListINS_15LocalSubscriberEE8get_hea"
 17304      33723270 
 17304      31305374 
 17304      61746963 
 17304      4C697374 
 17305 5611 64457600 		.ascii	"dEv\000"
 17306              	.LASF680:
 17307 5615 5F5A4E33 		.ascii	"_ZN3r2p16SubscriberExtBufINS_10EncoderMsgEE7release"
 17307      72327031 
 17307      36537562 
 17307      73637269 
 17307      62657245 
 17308 5648 45525331 		.ascii	"ERS1_\000"
 17308      5F00
 17309              	.LASF464:
 17310 564e 5F5A4E4B 		.ascii	"_ZNK3r2p10StaticListINS_14LocalPublisherEE12begin_u"
 17310      33723270 
 17310      31305374 
 17310      61746963 
 17310      4C697374 
ARM GAS  /tmp/ccWQ6gKG.s 			page 351


 17311 5681 6E736166 		.ascii	"nsafeEv\000"
 17311      65457600 
 17312              	.LASF508:
 17313 5689 5F5A4E33 		.ascii	"_ZN3r2p7Thread_18compute_stack_sizeEj\000"
 17313      72327037 
 17313      54687265 
 17313      61645F31 
 17313      38636F6D 
 17314              	.LASF176:
 17315 56af 746F5F6D 		.ascii	"to_m\000"
 17315      00
 17316              	.LASF771:
 17317 56b4 4C6F6361 		.ascii	"LocalSubscriber\000"
 17317      6C537562 
 17317      73637269 
 17317      62657200 
 17318              	.LASF662:
 17319 56c4 53756273 		.ascii	"Subscriber\000"
 17319      63726962 
 17319      657200
 17320              	.LASF174:
 17321 56cf 746F5F73 		.ascii	"to_s\000"
 17321      00
 17322              	.LASF209:
 17323 56d4 6F706572 		.ascii	"operator==\000"
 17323      61746F72 
 17323      3D3D00
 17324              	.LASF613:
 17325 56df 6765745F 		.ascii	"get_enabled\000"
 17325      656E6162 
 17325      6C656400 
 17326              	.LASF674:
 17327 56eb 7E537562 		.ascii	"~SubscriberExtBuf\000"
 17327      73637269 
 17327      62657245 
 17327      78744275 
 17327      6600
 17328              	.LASF568:
 17329 56fd 5F5A4E33 		.ascii	"_ZN3r2p10StaticListINS_4NodeEE13ConstIteratorppEi\000"
 17329      72327031 
 17329      30537461 
 17329      7469634C 
 17329      69737449 
 17330              	.LASF343:
 17331 572f 7075626C 		.ascii	"publish_timeout\000"
 17331      6973685F 
 17331      74696D65 
 17331      6F757400 
 17332              	.LASF642:
 17333 573f 5F5A4E4B 		.ascii	"_ZNK3r2p14BaseSubscriber16get_queue_lengthEv\000"
 17333      33723270 
 17333      31344261 
 17333      73655375 
 17333      62736372 
 17334              	.LASF111:
 17335 576c 43434D52 		.ascii	"CCMR1\000"
 17335      3100
ARM GAS  /tmp/ccWQ6gKG.s 			page 352


 17336              	.LASF112:
 17337 5772 43434D52 		.ascii	"CCMR2\000"
 17337      3200
 17338              	.LASF116:
 17339 5778 43434D52 		.ascii	"CCMR3\000"
 17339      3300
 17340              	.LASF628:
 17341 577e 5F5A4E33 		.ascii	"_ZN3r2p4Node9subscribeERNS_15LocalSubscriberEPKcPNS"
 17341      72327034 
 17341      4E6F6465 
 17341      39737562 
 17341      73637269 
 17342 57b1 5F374D65 		.ascii	"_7MessageEj\000"
 17342      73736167 
 17342      65456A00 
 17343              	.LASF567:
 17344 57bd 5F5A4E33 		.ascii	"_ZN3r2p10StaticListINS_4NodeEE13ConstIteratorppEv\000"
 17344      72327031 
 17344      30537461 
 17344      7469634C 
 17344      69737449 
 17345              	.LASF0:
 17346 57ef 756E7369 		.ascii	"unsigned int\000"
 17346      676E6564 
 17346      20696E74 
 17346      00
 17347              	.LASF562:
 17348 57fc 5F5A4E33 		.ascii	"_ZN3r2p9SpinEvent4waitERKNS_4TimeE\000"
 17348      72327039 
 17348      5370696E 
 17348      4576656E 
 17348      74347761 
 17349              	.LASF137:
 17350 581f 7E556E63 		.ascii	"~Uncopyable\000"
 17350      6F707961 
 17350      626C6500 
 17351              	.LASF751:
 17352 582b 5F5A4E33 		.ascii	"_ZN3r2p16SubscriberExtBufINS_9Speed3MsgEED2Ev\000"
 17352      72327031 
 17352      36537562 
 17352      73637269 
 17352      62657245 
 17353              	.LASF268:
 17354 5859 5F5A4E4B 		.ascii	"_ZNK3r2p10StaticListINS_15LocalSubscriberEE3endEv\000"
 17354      33723270 
 17354      31305374 
 17354      61746963 
 17354      4C697374 
 17355              	.LASF6:
 17356 588b 73686F72 		.ascii	"short int\000"
 17356      7420696E 
 17356      7400
 17357              	.LASF262:
 17358 5895 62656769 		.ascii	"begin\000"
 17358      6E00
 17359              	.LASF533:
 17360 589b 5F5A4E33 		.ascii	"_ZN3r2p6Thread13create_staticEPvjmPFlS1_ES1_PKc\000"
ARM GAS  /tmp/ccWQ6gKG.s 			page 353


 17360      72327036 
 17360      54687265 
 17360      61643133 
 17360      63726561 
 17361              	.LASF277:
 17362 58cb 5F5A4E4B 		.ascii	"_ZNK3r2p10StaticListINS_16RemoteSubscriberEE15get_h"
 17362      33723270 
 17362      31305374 
 17362      61746963 
 17362      4C697374 
 17363 58fe 6561645F 		.ascii	"ead_unsafeEv\000"
 17363      756E7361 
 17363      66654576 
 17363      00
 17364              	.LASF737:
 17365 590b 5F5A4E33 		.ascii	"_ZN3r2p10SubscriberINS_9Speed3MsgELj5EEC2EPFbRKS1_E"
 17365      72327031 
 17365      30537562 
 17365      73637269 
 17365      62657249 
 17366 593e 00       		.ascii	"\000"
 17367              	.LASF641:
 17368 593f 5F5A4E4B 		.ascii	"_ZNK3r2p14BaseSubscriber9get_topicEv\000"
 17368      33723270 
 17368      31344261 
 17368      73655375 
 17368      62736372 
 17369              	.LASF475:
 17370 5964 5F5A4E4B 		.ascii	"_ZNK3r2p10StaticListINS_14LocalPublisherEE10find_fi"
 17370      33723270 
 17370      31305374 
 17370      61746963 
 17370      4C697374 
 17371 5997 72737445 		.ascii	"rstEPFbRKS1_PKvES6_\000"
 17371      50466252 
 17371      4B53315F 
 17371      504B7645 
 17371      53365F00 
 17372              	.LASF217:
 17373 59ab 6765745F 		.ascii	"get_head_unsafe\000"
 17373      68656164 
 17373      5F756E73 
 17373      61666500 
 17374              	.LASF764:
 17375 59bb 70776D63 		.ascii	"pwmcfg\000"
 17375      666700
 17376              	.LASF161:
 17377 59c2 494E4649 		.ascii	"INFINITEN\000"
 17377      4E495445 
 17377      4E00
 17378              	.LASF240:
 17379 59cc 72657374 		.ascii	"restart_unsafe\000"
 17379      6172745F 
 17379      756E7361 
 17379      666500
 17380              	.LASF668:
 17381 59db 53756273 		.ascii	"SubscriberExtBuf\000"
ARM GAS  /tmp/ccWQ6gKG.s 			page 354


 17381      63726962 
 17381      65724578 
 17381      74427566 
 17381      00
 17382              	.LASF44:
 17383 59ec 705F7374 		.ascii	"p_state\000"
 17383      61746500 
 17384              		.ident	"GCC: (GNU Tools for ARM Embedded Processors) 4.9.3 20141119 (release) [ARM/embedded-4_9-br
ARM GAS  /tmp/ccWQ6gKG.s 			page 355


DEFINED SYMBOLS
                            *ABS*:00000000 pid_node.cpp
     /tmp/ccWQ6gKG.s:21     .text._ZN3r2p4TimeaSERKS0_:00000000 $t
     /tmp/ccWQ6gKG.s:27     .text._ZN3r2p4TimeaSERKS0_:00000000 _ZN3r2p4TimeaSERKS0_
     /tmp/ccWQ6gKG.s:56     .text._ZN3r2p4Time2msEl:00000000 $t
     /tmp/ccWQ6gKG.s:62     .text._ZN3r2p4Time2msEl:00000000 _ZN3r2p4Time2msEl
     /tmp/ccWQ6gKG.s:1494   .text._ZN3r2p4TimeC2IlEET_:00000000 _ZN3r2p4TimeC1IlEET_
     /tmp/ccWQ6gKG.s:92     .text._ZN3r2pgtERKNS_4TimeES2_:00000000 $t
     /tmp/ccWQ6gKG.s:98     .text._ZN3r2pgtERKNS_4TimeES2_:00000000 _ZN3r2pgtERKNS_4TimeES2_
     /tmp/ccWQ6gKG.s:129    .text._ZN3r2pmiERKNS_4TimeES2_:00000000 $t
     /tmp/ccWQ6gKG.s:135    .text._ZN3r2pmiERKNS_4TimeES2_:00000000 _ZN3r2pmiERKNS_4TimeES2_
     /tmp/ccWQ6gKG.s:168    .text._ZN3r2p7MessageC2Ev:00000000 $t
     /tmp/ccWQ6gKG.s:174    .text._ZN3r2p7MessageC2Ev:00000000 _ZN3r2p7MessageC2Ev
     /tmp/ccWQ6gKG.s:174    .text._ZN3r2p7MessageC2Ev:00000000 _ZN3r2p7MessageC1Ev
     /tmp/ccWQ6gKG.s:206    .text._ZNK3r2p10SpinEvent_10get_threadEv:00000000 $t
     /tmp/ccWQ6gKG.s:212    .text._ZNK3r2p10SpinEvent_10get_threadEv:00000000 _ZNK3r2p10SpinEvent_10get_threadEv
     /tmp/ccWQ6gKG.s:236    .rodata:00000000 $d
     /tmp/ccWQ6gKG.s:240    .text._ZN3r2p10SpinEvent_13signal_unsafeEj:00000000 $t
     /tmp/ccWQ6gKG.s:246    .text._ZN3r2p10SpinEvent_13signal_unsafeEj:00000000 _ZN3r2p10SpinEvent_13signal_unsafeEj
     /tmp/ccWQ6gKG.s:291    .text._ZN3r2p10SpinEvent_13signal_unsafeEj:00000038 $d
     /tmp/ccWQ6gKG.s:296    .text._ZNK3r2p9SpinEvent10get_threadEv:00000000 $t
     /tmp/ccWQ6gKG.s:302    .text._ZNK3r2p9SpinEvent10get_threadEv:00000000 _ZNK3r2p9SpinEvent10get_threadEv
     /tmp/ccWQ6gKG.s:330    .text._ZN3r2p9SpinEvent13signal_unsafeEj:00000000 $t
     /tmp/ccWQ6gKG.s:336    .text._ZN3r2p9SpinEvent13signal_unsafeEj:00000000 _ZN3r2p9SpinEvent13signal_unsafeEj
     /tmp/ccWQ6gKG.s:363    .text._ZNK3r2p4Node11get_enabledEv:00000000 $t
     /tmp/ccWQ6gKG.s:369    .text._ZNK3r2p4Node11get_enabledEv:00000000 _ZNK3r2p4Node11get_enabledEv
     /tmp/ccWQ6gKG.s:403    .text._ZN3r2p4Node13notify_unsafeEj:00000000 $t
     /tmp/ccWQ6gKG.s:409    .text._ZN3r2p4Node13notify_unsafeEj:00000000 _ZN3r2p4Node13notify_unsafeEj
     /tmp/ccWQ6gKG.s:437    .text._ZNK3r2p15LocalSubscriber16get_queue_lengthEv:00000000 $t
     /tmp/ccWQ6gKG.s:443    .text._ZNK3r2p15LocalSubscriber16get_queue_lengthEv:00000000 _ZNK3r2p15LocalSubscriber16get_queue_lengthEv
     /tmp/ccWQ6gKG.s:1566   .text._ZNK3r2p10ArrayQueueIPNS_7MessageEE10get_lengthEv:00000000 _ZNK3r2p10ArrayQueueIPNS_7MessageEE10get_lengthEv
     /tmp/ccWQ6gKG.s:472    .text._ZN3r2p15LocalSubscriber12fetch_unsafeERPNS_7MessageERNS_4TimeE:00000000 $t
     /tmp/ccWQ6gKG.s:478    .text._ZN3r2p15LocalSubscriber12fetch_unsafeERPNS_7MessageERNS_4TimeE:00000000 _ZN3r2p15LocalSubscriber12fetch_unsafeERPNS_7MessageERNS_4TimeE
     /tmp/ccWQ6gKG.s:1596   .text._ZN3r2p10ArrayQueueIPNS_7MessageEE12fetch_unsafeERS2_:00000000 _ZN3r2p10ArrayQueueIPNS_7MessageEE12fetch_unsafeERS2_
     /tmp/ccWQ6gKG.s:526    .text._ZN3r2p15LocalSubscriber13notify_unsafeERNS_7MessageERKNS_4TimeE:00000000 $t
     /tmp/ccWQ6gKG.s:532    .text._ZN3r2p15LocalSubscriber13notify_unsafeERNS_7MessageERKNS_4TimeE:00000000 _ZN3r2p15LocalSubscriber13notify_unsafeERNS_7MessageERKNS_4TimeE
     /tmp/ccWQ6gKG.s:1674   .text._ZN3r2p10ArrayQueueIPNS_7MessageEE11post_unsafeES2_:00000000 _ZN3r2p10ArrayQueueIPNS_7MessageEE11post_unsafeES2_
     /tmp/ccWQ6gKG.s:598    .text._ZN3PIDC2Ev:00000000 $t
     /tmp/ccWQ6gKG.s:604    .text._ZN3PIDC2Ev:00000000 _ZN3PIDC2Ev
     /tmp/ccWQ6gKG.s:659    .text._ZN3PIDC2Ev:0000004c $d
     /tmp/ccWQ6gKG.s:604    .text._ZN3PIDC2Ev:00000000 _ZN3PIDC1Ev
     /tmp/ccWQ6gKG.s:666    .text._ZN3PID6configEffffff:00000000 $t
     /tmp/ccWQ6gKG.s:672    .text._ZN3PID6configEffffff:00000000 _ZN3PID6configEffffff
     /tmp/ccWQ6gKG.s:769    .text._ZN3PID6configEffffff:000000a4 $d
     /tmp/ccWQ6gKG.s:774    .text._ZN3PID3setEf:00000000 $t
     /tmp/ccWQ6gKG.s:780    .text._ZN3PID3setEf:00000000 _ZN3PID3setEf
     /tmp/ccWQ6gKG.s:859    .text._ZN3PID6updateEf:00000000 $t
     /tmp/ccWQ6gKG.s:865    .text._ZN3PID6updateEf:00000000 _ZN3PID6updateEf
     /tmp/ccWQ6gKG.s:983    .bss.pwm:00000000 pwm
     /tmp/ccWQ6gKG.s:980    .bss.pwm:00000000 $d
     /tmp/ccWQ6gKG.s:986    .text._ZL5pwmcbP9PWMDriver:00000000 $t
     /tmp/ccWQ6gKG.s:991    .text._ZL5pwmcbP9PWMDriver:00000000 _ZL5pwmcbP9PWMDriver
     /tmp/ccWQ6gKG.s:1073   .text._ZL5pwmcbP9PWMDriver:00000064 $d
     /tmp/ccWQ6gKG.s:1079   .data._ZL6pwmcfg:00000000 $d
     /tmp/ccWQ6gKG.s:1082   .data._ZL6pwmcfg:00000000 _ZL6pwmcfg
     /tmp/ccWQ6gKG.s:1102   .bss.speed_pid:00000000 speed_pid
     /tmp/ccWQ6gKG.s:1099   .bss.speed_pid:00000000 $d
ARM GAS  /tmp/ccWQ6gKG.s 			page 356


     /tmp/ccWQ6gKG.s:1105   .text._Z12enc_callbackRKN3r2p10EncoderMsgE:00000000 $t
     /tmp/ccWQ6gKG.s:1111   .text._Z12enc_callbackRKN3r2p10EncoderMsgE:00000000 _Z12enc_callbackRKN3r2p10EncoderMsgE
     /tmp/ccWQ6gKG.s:1211   .text._Z12enc_callbackRKN3r2p10EncoderMsgE:0000009c $d
     /tmp/ccWQ6gKG.s:1229   .text._Z8pid_nodePv:00000000 $t
     /tmp/ccWQ6gKG.s:1235   .text._Z8pid_nodePv:00000000 _Z8pid_nodePv
     /tmp/ccWQ6gKG.s:1790   .text._ZN3r2p10SubscriberINS_9Speed3MsgELj5EEC2EPFbRKS1_E:00000000 _ZN3r2p10SubscriberINS_9Speed3MsgELj5EEC1EPFbRKS1_E
     /tmp/ccWQ6gKG.s:1978   .text._ZN3r2p10SubscriberINS_10EncoderMsgELj5EEC2EPFbRKS1_E:00000000 _ZN3r2p10SubscriberINS_10EncoderMsgELj5EEC1EPFbRKS1_E
     /tmp/ccWQ6gKG.s:2165   .text._ZN3r2p10SubscriberINS_9PIDCfgMsgELj5EEC2EPFbRKS1_E:00000000 _ZN3r2p10SubscriberINS_9PIDCfgMsgELj5EEC1EPFbRKS1_E
     /tmp/ccWQ6gKG.s:1530   .text._ZN3r2p4TimeC2IiEET_:00000000 _ZN3r2p4TimeC1IiEET_
     /tmp/ccWQ6gKG.s:2316   .text._ZN3r2p4Node9subscribeINS_9Speed3MsgELj5EEEbRNS_10SubscriberIT_XT0_EEEPKc:00000000 _ZN3r2p4Node9subscribeINS_9Speed3MsgELj5EEEbRNS_10SubscriberIT_XT0_EEEPKc
     /tmp/ccWQ6gKG.s:2359   .text._ZN3r2p4Node9subscribeINS_10EncoderMsgELj5EEEbRNS_10SubscriberIT_XT0_EEEPKc:00000000 _ZN3r2p4Node9subscribeINS_10EncoderMsgELj5EEEbRNS_10SubscriberIT_XT0_EEEPKc
     /tmp/ccWQ6gKG.s:2402   .text._ZN3r2p4Node9subscribeINS_9PIDCfgMsgELj5EEEbRNS_10SubscriberIT_XT0_EEEPKc:00000000 _ZN3r2p4Node9subscribeINS_9PIDCfgMsgELj5EEEbRNS_10SubscriberIT_XT0_EEEPKc
     /tmp/ccWQ6gKG.s:2445   .text._ZN3r2p16SubscriberExtBufINS_9PIDCfgMsgEE5fetchERPS1_:00000000 _ZN3r2p16SubscriberExtBufINS_9PIDCfgMsgEE5fetchERPS1_
     /tmp/ccWQ6gKG.s:2481   .text._ZN3r2p16SubscriberExtBufINS_9PIDCfgMsgEE7releaseERS1_:00000000 _ZN3r2p16SubscriberExtBufINS_9PIDCfgMsgEE7releaseERS1_
     /tmp/ccWQ6gKG.s:2517   .text._ZN3r2p16SubscriberExtBufINS_9Speed3MsgEE5fetchERPS1_:00000000 _ZN3r2p16SubscriberExtBufINS_9Speed3MsgEE5fetchERPS1_
     /tmp/ccWQ6gKG.s:2552   .text._ZN3r2p16SubscriberExtBufINS_9Speed3MsgEE7releaseERS1_:00000000 _ZN3r2p16SubscriberExtBufINS_9Speed3MsgEE7releaseERS1_
     /tmp/ccWQ6gKG.s:1470   .text._Z8pid_nodePv:000001ec $d
     /tmp/ccWQ6gKG.s:1488   .text._ZN3r2p4TimeC2IlEET_:00000000 $t
     /tmp/ccWQ6gKG.s:1494   .text._ZN3r2p4TimeC2IlEET_:00000000 _ZN3r2p4TimeC2IlEET_
     /tmp/ccWQ6gKG.s:1524   .text._ZN3r2p4TimeC2IiEET_:00000000 $t
     /tmp/ccWQ6gKG.s:1530   .text._ZN3r2p4TimeC2IiEET_:00000000 _ZN3r2p4TimeC2IiEET_
     /tmp/ccWQ6gKG.s:1560   .text._ZNK3r2p10ArrayQueueIPNS_7MessageEE10get_lengthEv:00000000 $t
     /tmp/ccWQ6gKG.s:1590   .text._ZN3r2p10ArrayQueueIPNS_7MessageEE12fetch_unsafeERS2_:00000000 $t
     /tmp/ccWQ6gKG.s:1668   .text._ZN3r2p10ArrayQueueIPNS_7MessageEE11post_unsafeES2_:00000000 $t
     /tmp/ccWQ6gKG.s:1747   .text._ZN3r2p9Speed3MsgC2Ev:00000000 $t
     /tmp/ccWQ6gKG.s:1753   .text._ZN3r2p9Speed3MsgC2Ev:00000000 _ZN3r2p9Speed3MsgC2Ev
     /tmp/ccWQ6gKG.s:1753   .text._ZN3r2p9Speed3MsgC2Ev:00000000 _ZN3r2p9Speed3MsgC1Ev
     /tmp/ccWQ6gKG.s:1784   .text._ZN3r2p10SubscriberINS_9Speed3MsgELj5EEC2EPFbRKS1_E:00000000 $t
     /tmp/ccWQ6gKG.s:1790   .text._ZN3r2p10SubscriberINS_9Speed3MsgELj5EEC2EPFbRKS1_E:00000000 _ZN3r2p10SubscriberINS_9Speed3MsgELj5EEC2EPFbRKS1_E
     /tmp/ccWQ6gKG.s:2588   .text._ZN3r2p16SubscriberExtBufINS_9Speed3MsgEEC2EPPS1_jPFbRKS1_E:00000000 _ZN3r2p16SubscriberExtBufINS_9Speed3MsgEEC2EPPS1_jPFbRKS1_E
     /tmp/ccWQ6gKG.s:1845   .text._ZN3r2p10SubscriberINS_9Speed3MsgELj5EEC2EPFbRKS1_E:00000044 $d
     /tmp/ccWQ6gKG.s:3048   .rodata._ZTVN3r2p10SubscriberINS_9Speed3MsgELj5EEE:00000000 _ZTVN3r2p10SubscriberINS_9Speed3MsgELj5EEE
     /tmp/ccWQ6gKG.s:1852   .text._ZN3r2p10SubscriberINS_9Speed3MsgELj5EED2Ev:00000000 $t
     /tmp/ccWQ6gKG.s:1858   .text._ZN3r2p10SubscriberINS_9Speed3MsgELj5EED2Ev:00000000 _ZN3r2p10SubscriberINS_9Speed3MsgELj5EED2Ev
     /tmp/ccWQ6gKG.s:2638   .text._ZN3r2p16SubscriberExtBufINS_9Speed3MsgEED2Ev:00000000 _ZN3r2p16SubscriberExtBufINS_9Speed3MsgEED2Ev
     /tmp/ccWQ6gKG.s:1896   .text._ZN3r2p10SubscriberINS_9Speed3MsgELj5EED2Ev:0000002c $d
     /tmp/ccWQ6gKG.s:1858   .text._ZN3r2p10SubscriberINS_9Speed3MsgELj5EED2Ev:00000000 _ZN3r2p10SubscriberINS_9Speed3MsgELj5EED1Ev
     /tmp/ccWQ6gKG.s:1903   .text._ZN3r2p10SubscriberINS_9Speed3MsgELj5EED0Ev:00000000 $t
     /tmp/ccWQ6gKG.s:1909   .text._ZN3r2p10SubscriberINS_9Speed3MsgELj5EED0Ev:00000000 _ZN3r2p10SubscriberINS_9Speed3MsgELj5EED0Ev
     /tmp/ccWQ6gKG.s:1936   .text._ZN3r2p10EncoderMsgC2Ev:00000000 $t
     /tmp/ccWQ6gKG.s:1942   .text._ZN3r2p10EncoderMsgC2Ev:00000000 _ZN3r2p10EncoderMsgC2Ev
     /tmp/ccWQ6gKG.s:1942   .text._ZN3r2p10EncoderMsgC2Ev:00000000 _ZN3r2p10EncoderMsgC1Ev
     /tmp/ccWQ6gKG.s:1972   .text._ZN3r2p10SubscriberINS_10EncoderMsgELj5EEC2EPFbRKS1_E:00000000 $t
     /tmp/ccWQ6gKG.s:1978   .text._ZN3r2p10SubscriberINS_10EncoderMsgELj5EEC2EPFbRKS1_E:00000000 _ZN3r2p10SubscriberINS_10EncoderMsgELj5EEC2EPFbRKS1_E
     /tmp/ccWQ6gKG.s:2722   .text._ZN3r2p16SubscriberExtBufINS_10EncoderMsgEEC2EPPS1_jPFbRKS1_E:00000000 _ZN3r2p16SubscriberExtBufINS_10EncoderMsgEEC2EPPS1_jPFbRKS1_E
     /tmp/ccWQ6gKG.s:2032   .text._ZN3r2p10SubscriberINS_10EncoderMsgELj5EEC2EPFbRKS1_E:00000044 $d
     /tmp/ccWQ6gKG.s:3018   .rodata._ZTVN3r2p10SubscriberINS_10EncoderMsgELj5EEE:00000000 _ZTVN3r2p10SubscriberINS_10EncoderMsgELj5EEE
     /tmp/ccWQ6gKG.s:2039   .text._ZN3r2p10SubscriberINS_10EncoderMsgELj5EED2Ev:00000000 $t
     /tmp/ccWQ6gKG.s:2045   .text._ZN3r2p10SubscriberINS_10EncoderMsgELj5EED2Ev:00000000 _ZN3r2p10SubscriberINS_10EncoderMsgELj5EED2Ev
     /tmp/ccWQ6gKG.s:2772   .text._ZN3r2p16SubscriberExtBufINS_10EncoderMsgEED2Ev:00000000 _ZN3r2p16SubscriberExtBufINS_10EncoderMsgEED2Ev
     /tmp/ccWQ6gKG.s:2083   .text._ZN3r2p10SubscriberINS_10EncoderMsgELj5EED2Ev:0000002c $d
     /tmp/ccWQ6gKG.s:2045   .text._ZN3r2p10SubscriberINS_10EncoderMsgELj5EED2Ev:00000000 _ZN3r2p10SubscriberINS_10EncoderMsgELj5EED1Ev
     /tmp/ccWQ6gKG.s:2090   .text._ZN3r2p10SubscriberINS_10EncoderMsgELj5EED0Ev:00000000 $t
     /tmp/ccWQ6gKG.s:2096   .text._ZN3r2p10SubscriberINS_10EncoderMsgELj5EED0Ev:00000000 _ZN3r2p10SubscriberINS_10EncoderMsgELj5EED0Ev
     /tmp/ccWQ6gKG.s:2123   .text._ZN3r2p9PIDCfgMsgC2Ev:00000000 $t
     /tmp/ccWQ6gKG.s:2129   .text._ZN3r2p9PIDCfgMsgC2Ev:00000000 _ZN3r2p9PIDCfgMsgC2Ev
     /tmp/ccWQ6gKG.s:2129   .text._ZN3r2p9PIDCfgMsgC2Ev:00000000 _ZN3r2p9PIDCfgMsgC1Ev
ARM GAS  /tmp/ccWQ6gKG.s 			page 357


     /tmp/ccWQ6gKG.s:2159   .text._ZN3r2p10SubscriberINS_9PIDCfgMsgELj5EEC2EPFbRKS1_E:00000000 $t
     /tmp/ccWQ6gKG.s:2165   .text._ZN3r2p10SubscriberINS_9PIDCfgMsgELj5EEC2EPFbRKS1_E:00000000 _ZN3r2p10SubscriberINS_9PIDCfgMsgELj5EEC2EPFbRKS1_E
     /tmp/ccWQ6gKG.s:2856   .text._ZN3r2p16SubscriberExtBufINS_9PIDCfgMsgEEC2EPPS1_jPFbRKS1_E:00000000 _ZN3r2p16SubscriberExtBufINS_9PIDCfgMsgEEC2EPPS1_jPFbRKS1_E
     /tmp/ccWQ6gKG.s:2219   .text._ZN3r2p10SubscriberINS_9PIDCfgMsgELj5EEC2EPFbRKS1_E:00000044 $d
     /tmp/ccWQ6gKG.s:2988   .rodata._ZTVN3r2p10SubscriberINS_9PIDCfgMsgELj5EEE:00000000 _ZTVN3r2p10SubscriberINS_9PIDCfgMsgELj5EEE
     /tmp/ccWQ6gKG.s:2226   .text._ZN3r2p10SubscriberINS_9PIDCfgMsgELj5EED2Ev:00000000 $t
     /tmp/ccWQ6gKG.s:2232   .text._ZN3r2p10SubscriberINS_9PIDCfgMsgELj5EED2Ev:00000000 _ZN3r2p10SubscriberINS_9PIDCfgMsgELj5EED2Ev
     /tmp/ccWQ6gKG.s:2906   .text._ZN3r2p16SubscriberExtBufINS_9PIDCfgMsgEED2Ev:00000000 _ZN3r2p16SubscriberExtBufINS_9PIDCfgMsgEED2Ev
     /tmp/ccWQ6gKG.s:2270   .text._ZN3r2p10SubscriberINS_9PIDCfgMsgELj5EED2Ev:0000002c $d
     /tmp/ccWQ6gKG.s:2232   .text._ZN3r2p10SubscriberINS_9PIDCfgMsgELj5EED2Ev:00000000 _ZN3r2p10SubscriberINS_9PIDCfgMsgELj5EED1Ev
     /tmp/ccWQ6gKG.s:2277   .text._ZN3r2p10SubscriberINS_9PIDCfgMsgELj5EED0Ev:00000000 $t
     /tmp/ccWQ6gKG.s:2283   .text._ZN3r2p10SubscriberINS_9PIDCfgMsgELj5EED0Ev:00000000 _ZN3r2p10SubscriberINS_9PIDCfgMsgELj5EED0Ev
     /tmp/ccWQ6gKG.s:2310   .text._ZN3r2p4Node9subscribeINS_9Speed3MsgELj5EEEbRNS_10SubscriberIT_XT0_EEEPKc:00000000 $t
     /tmp/ccWQ6gKG.s:2353   .text._ZN3r2p4Node9subscribeINS_10EncoderMsgELj5EEEbRNS_10SubscriberIT_XT0_EEEPKc:00000000 $t
     /tmp/ccWQ6gKG.s:2396   .text._ZN3r2p4Node9subscribeINS_9PIDCfgMsgELj5EEEbRNS_10SubscriberIT_XT0_EEEPKc:00000000 $t
     /tmp/ccWQ6gKG.s:2439   .text._ZN3r2p16SubscriberExtBufINS_9PIDCfgMsgEE5fetchERPS1_:00000000 $t
     /tmp/ccWQ6gKG.s:2475   .text._ZN3r2p16SubscriberExtBufINS_9PIDCfgMsgEE7releaseERS1_:00000000 $t
     /tmp/ccWQ6gKG.s:2511   .text._ZN3r2p16SubscriberExtBufINS_9Speed3MsgEE5fetchERPS1_:00000000 $t
     /tmp/ccWQ6gKG.s:2546   .text._ZN3r2p16SubscriberExtBufINS_9Speed3MsgEE7releaseERS1_:00000000 $t
     /tmp/ccWQ6gKG.s:2582   .text._ZN3r2p16SubscriberExtBufINS_9Speed3MsgEEC2EPPS1_jPFbRKS1_E:00000000 $t
     /tmp/ccWQ6gKG.s:2625   .text._ZN3r2p16SubscriberExtBufINS_9Speed3MsgEEC2EPPS1_jPFbRKS1_E:0000002c $d
     /tmp/ccWQ6gKG.s:3063   .rodata._ZTVN3r2p16SubscriberExtBufINS_9Speed3MsgEEE:00000000 _ZTVN3r2p16SubscriberExtBufINS_9Speed3MsgEEE
     /tmp/ccWQ6gKG.s:2588   .text._ZN3r2p16SubscriberExtBufINS_9Speed3MsgEEC2EPPS1_jPFbRKS1_E:00000000 _ZN3r2p16SubscriberExtBufINS_9Speed3MsgEEC1EPPS1_jPFbRKS1_E
     /tmp/ccWQ6gKG.s:2632   .text._ZN3r2p16SubscriberExtBufINS_9Speed3MsgEED2Ev:00000000 $t
     /tmp/ccWQ6gKG.s:2676   .text._ZN3r2p16SubscriberExtBufINS_9Speed3MsgEED2Ev:0000002c $d
     /tmp/ccWQ6gKG.s:2638   .text._ZN3r2p16SubscriberExtBufINS_9Speed3MsgEED2Ev:00000000 _ZN3r2p16SubscriberExtBufINS_9Speed3MsgEED1Ev
     /tmp/ccWQ6gKG.s:2683   .text._ZN3r2p16SubscriberExtBufINS_9Speed3MsgEED0Ev:00000000 $t
     /tmp/ccWQ6gKG.s:2689   .text._ZN3r2p16SubscriberExtBufINS_9Speed3MsgEED0Ev:00000000 _ZN3r2p16SubscriberExtBufINS_9Speed3MsgEED0Ev
     /tmp/ccWQ6gKG.s:2716   .text._ZN3r2p16SubscriberExtBufINS_10EncoderMsgEEC2EPPS1_jPFbRKS1_E:00000000 $t
     /tmp/ccWQ6gKG.s:2759   .text._ZN3r2p16SubscriberExtBufINS_10EncoderMsgEEC2EPPS1_jPFbRKS1_E:0000002c $d
     /tmp/ccWQ6gKG.s:3033   .rodata._ZTVN3r2p16SubscriberExtBufINS_10EncoderMsgEEE:00000000 _ZTVN3r2p16SubscriberExtBufINS_10EncoderMsgEEE
     /tmp/ccWQ6gKG.s:2722   .text._ZN3r2p16SubscriberExtBufINS_10EncoderMsgEEC2EPPS1_jPFbRKS1_E:00000000 _ZN3r2p16SubscriberExtBufINS_10EncoderMsgEEC1EPPS1_jPFbRKS1_E
     /tmp/ccWQ6gKG.s:2766   .text._ZN3r2p16SubscriberExtBufINS_10EncoderMsgEED2Ev:00000000 $t
     /tmp/ccWQ6gKG.s:2810   .text._ZN3r2p16SubscriberExtBufINS_10EncoderMsgEED2Ev:0000002c $d
     /tmp/ccWQ6gKG.s:2772   .text._ZN3r2p16SubscriberExtBufINS_10EncoderMsgEED2Ev:00000000 _ZN3r2p16SubscriberExtBufINS_10EncoderMsgEED1Ev
     /tmp/ccWQ6gKG.s:2817   .text._ZN3r2p16SubscriberExtBufINS_10EncoderMsgEED0Ev:00000000 $t
     /tmp/ccWQ6gKG.s:2823   .text._ZN3r2p16SubscriberExtBufINS_10EncoderMsgEED0Ev:00000000 _ZN3r2p16SubscriberExtBufINS_10EncoderMsgEED0Ev
     /tmp/ccWQ6gKG.s:2850   .text._ZN3r2p16SubscriberExtBufINS_9PIDCfgMsgEEC2EPPS1_jPFbRKS1_E:00000000 $t
     /tmp/ccWQ6gKG.s:2893   .text._ZN3r2p16SubscriberExtBufINS_9PIDCfgMsgEEC2EPPS1_jPFbRKS1_E:0000002c $d
     /tmp/ccWQ6gKG.s:3003   .rodata._ZTVN3r2p16SubscriberExtBufINS_9PIDCfgMsgEEE:00000000 _ZTVN3r2p16SubscriberExtBufINS_9PIDCfgMsgEEE
     /tmp/ccWQ6gKG.s:2856   .text._ZN3r2p16SubscriberExtBufINS_9PIDCfgMsgEEC2EPPS1_jPFbRKS1_E:00000000 _ZN3r2p16SubscriberExtBufINS_9PIDCfgMsgEEC1EPPS1_jPFbRKS1_E
     /tmp/ccWQ6gKG.s:2900   .text._ZN3r2p16SubscriberExtBufINS_9PIDCfgMsgEED2Ev:00000000 $t
     /tmp/ccWQ6gKG.s:2944   .text._ZN3r2p16SubscriberExtBufINS_9PIDCfgMsgEED2Ev:0000002c $d
     /tmp/ccWQ6gKG.s:2906   .text._ZN3r2p16SubscriberExtBufINS_9PIDCfgMsgEED2Ev:00000000 _ZN3r2p16SubscriberExtBufINS_9PIDCfgMsgEED1Ev
     /tmp/ccWQ6gKG.s:2951   .text._ZN3r2p16SubscriberExtBufINS_9PIDCfgMsgEED0Ev:00000000 $t
     /tmp/ccWQ6gKG.s:2957   .text._ZN3r2p16SubscriberExtBufINS_9PIDCfgMsgEED0Ev:00000000 _ZN3r2p16SubscriberExtBufINS_9PIDCfgMsgEED0Ev
     /tmp/ccWQ6gKG.s:2985   .rodata._ZTVN3r2p10SubscriberINS_9PIDCfgMsgELj5EEE:00000000 $d
     /tmp/ccWQ6gKG.s:3000   .rodata._ZTVN3r2p16SubscriberExtBufINS_9PIDCfgMsgEEE:00000000 $d
     /tmp/ccWQ6gKG.s:3015   .rodata._ZTVN3r2p10SubscriberINS_10EncoderMsgELj5EEE:00000000 $d
     /tmp/ccWQ6gKG.s:3030   .rodata._ZTVN3r2p16SubscriberExtBufINS_10EncoderMsgEEE:00000000 $d
     /tmp/ccWQ6gKG.s:3045   .rodata._ZTVN3r2p10SubscriberINS_9Speed3MsgELj5EEE:00000000 $d
     /tmp/ccWQ6gKG.s:3060   .rodata._ZTVN3r2p16SubscriberExtBufINS_9Speed3MsgEEE:00000000 $d
     /tmp/ccWQ6gKG.s:3074   .text._Z41__static_initialization_and_destruction_0ii:00000000 $t
     /tmp/ccWQ6gKG.s:3079   .text._Z41__static_initialization_and_destruction_0ii:00000000 _Z41__static_initialization_and_destruction_0ii
     /tmp/ccWQ6gKG.s:3113   .text._Z41__static_initialization_and_destruction_0ii:00000024 $d
     /tmp/ccWQ6gKG.s:3118   .text._GLOBAL__sub_I__ZN3PIDC2Ev:00000000 $t
     /tmp/ccWQ6gKG.s:3123   .text._GLOBAL__sub_I__ZN3PIDC2Ev:00000000 _GLOBAL__sub_I__ZN3PIDC2Ev
ARM GAS  /tmp/ccWQ6gKG.s 			page 358


     /tmp/ccWQ6gKG.s:3142   .init_array:00000000 $d
                     .debug_frame:00000010 $d
     /tmp/ccWQ6gKG.s:295    .text._ZN3r2p10SpinEvent_13signal_unsafeEj:0000003c $t
     /tmp/ccWQ6gKG.s:773    .text._ZN3PID6configEffffff:000000a8 $t
     /tmp/ccWQ6gKG.s:1078   .text._ZL5pwmcbP9PWMDriver:0000006c $t
     /tmp/ccWQ6gKG.s:1218   .text._Z12enc_callbackRKN3r2p10EncoderMsgE:000000ac $t
     /tmp/ccWQ6gKG.s:1851   .text._ZN3r2p10SubscriberINS_9Speed3MsgELj5EEC2EPFbRKS1_E:00000048 $t
     /tmp/ccWQ6gKG.s:2038   .text._ZN3r2p10SubscriberINS_10EncoderMsgELj5EEC2EPFbRKS1_E:00000048 $t
     /tmp/ccWQ6gKG.s:2225   .text._ZN3r2p10SubscriberINS_9PIDCfgMsgELj5EEC2EPFbRKS1_E:00000048 $t
     /tmp/ccWQ6gKG.s:3117   .text._Z41__static_initialization_and_destruction_0ii:00000028 $t
                           .group:00000000 _ZN3r2p7MessageC5Ev
                           .group:00000000 _ZN3r2p4TimeC5IlEET_
                           .group:00000000 _ZN3r2p4TimeC5IiEET_
                           .group:00000000 _ZN3r2p9Speed3MsgC5Ev
                           .group:00000000 _ZN3r2p10SubscriberINS_9Speed3MsgELj5EEC5EPFbRKS1_E
                           .group:00000000 _ZN3r2p10SubscriberINS_9Speed3MsgELj5EED5Ev
                           .group:00000000 _ZN3r2p10EncoderMsgC5Ev
                           .group:00000000 _ZN3r2p10SubscriberINS_10EncoderMsgELj5EEC5EPFbRKS1_E
                           .group:00000000 _ZN3r2p10SubscriberINS_10EncoderMsgELj5EED5Ev
                           .group:00000000 _ZN3r2p9PIDCfgMsgC5Ev
                           .group:00000000 _ZN3r2p10SubscriberINS_9PIDCfgMsgELj5EEC5EPFbRKS1_E
                           .group:00000000 _ZN3r2p10SubscriberINS_9PIDCfgMsgELj5EED5Ev
                           .group:00000000 _ZN3r2p16SubscriberExtBufINS_9Speed3MsgEEC5EPPS1_jPFbRKS1_E
                           .group:00000000 _ZN3r2p16SubscriberExtBufINS_9Speed3MsgEED5Ev
                           .group:00000000 _ZN3r2p16SubscriberExtBufINS_10EncoderMsgEEC5EPPS1_jPFbRKS1_E
                           .group:00000000 _ZN3r2p16SubscriberExtBufINS_10EncoderMsgEED5Ev
                           .group:00000000 _ZN3r2p16SubscriberExtBufINS_9PIDCfgMsgEEC5EPPS1_jPFbRKS1_E
                           .group:00000000 _ZN3r2p16SubscriberExtBufINS_9PIDCfgMsgEED5Ev

UNDEFINED SYMBOLS
chDbgPanic
chEvtSignalI
_ZN3r2p4Time3nowEv
dbg_check_lock
dbg_check_unlock
dbg_check_lock_from_isr
pwm_lld_enable_channel
dbg_check_unlock_from_isr
PWMD1
_ZN3r2p4NodeC1EPKcb
chThdSleep
pwmStart
_ZN3r2p4Node4spinERKNS_4TimeE
pwm_lld_disable_channel
rlist
_ZdlPv
_ZN3r2p4Node9subscribeERNS_15LocalSubscriberEPKcPNS_7MessageEj
_ZN3r2p15LocalSubscriber5fetchERPNS_7MessageE
_ZN3r2p14BaseSubscriber7releaseERNS_7MessageE
_ZN3r2p15LocalSubscriberC2EPPNS_7MessageEjPFbRKS1_E
_ZN3r2p15LocalSubscriberD2Ev
_ZN3r2p15LocalSubscriber6notifyERNS_7MessageERKNS_4TimeE
_ZN3r2p15LocalSubscriber5fetchERPNS_7MessageERNS_4TimeE
