ARM GAS  /tmp/ccWQ6gKG.s 			page 1


   1              		.syntax unified
   2              		.cpu cortex-m4
   3              		.eabi_attribute 27, 3
   4              		.eabi_attribute 28, 1
   5              		.fpu fpv4-sp-d16
   6              		.eabi_attribute 20, 1
   7              		.eabi_attribute 21, 1
   8              		.eabi_attribute 23, 3
   9              		.eabi_attribute 24, 1
  10              		.eabi_attribute 25, 1
  11              		.eabi_attribute 26, 1
  12              		.eabi_attribute 30, 6
  13              		.eabi_attribute 34, 1
  14              		.eabi_attribute 18, 4
  15              		.thumb
  16              		.file	"pid_node.cpp"
  17              		.text
  18              	.Ltext0:
  19              		.cfi_sections	.debug_frame
  20              		.section	.text._ZN3r2p4TimeaSERKS0_,"axG",%progbits,_ZN3r2p4TimeaSERKS0_,comdat
  21              		.align	2
  22              		.p2align 4,,15
  23              		.weak	_ZN3r2p4TimeaSERKS0_
  24              		.thumb
  25              		.thumb_func
  26              		.type	_ZN3r2p4TimeaSERKS0_, %function
  27              	_ZN3r2p4TimeaSERKS0_:
  28              	.LFB262:
  29              		.file 1 "/home/denny/r2p-sdk/core/Middleware/include/r2p/Time.hpp"
  30              		.loc 1 131 0
  31              		.cfi_startproc
  32              		@ args = 0, pretend = 0, frame = 8
  33              		@ frame_needed = 0, uses_anonymous_args = 0
  34              		@ link register save eliminated.
  35 0000 82B0     		sub	sp, sp, #8
  36              		.cfi_def_cfa_offset 8
  37 0002 0190     		str	r0, [sp, #4]
  38 0004 0091     		str	r1, [sp]
  39              		.loc 1 133 0
  40 0006 009B     		ldr	r3, [sp]
  41 0008 1A68     		ldr	r2, [r3]
  42 000a 019B     		ldr	r3, [sp, #4]
  43 000c 1A60     		str	r2, [r3]
  44              		.loc 1 134 0
  45 000e 019B     		ldr	r3, [sp, #4]
  46              		.loc 1 135 0
  47 0010 1846     		mov	r0, r3
  48 0012 02B0     		add	sp, sp, #8
  49              		.cfi_def_cfa_offset 0
  50              		@ sp needed
  51 0014 7047     		bx	lr
  52              		.cfi_endproc
  53              	.LFE262:
  54              		.size	_ZN3r2p4TimeaSERKS0_, .-_ZN3r2p4TimeaSERKS0_
  55 0016 00BFAFF3 		.section	.text._ZN3r2p4Time2msEl,"axG",%progbits,_ZN3r2p4Time2msEl,comdat
  55      0080AFF3 
  55      0080
ARM GAS  /tmp/ccWQ6gKG.s 			page 2


  56              		.align	2
  57              		.p2align 4,,15
  58              		.weak	_ZN3r2p4Time2msEl
  59              		.thumb
  60              		.thumb_func
  61              		.type	_ZN3r2p4Time2msEl, %function
  62              	_ZN3r2p4Time2msEl:
  63              	.LFB276:
  64              		.loc 1 184 0
  65              		.cfi_startproc
  66              		@ args = 0, pretend = 0, frame = 8
  67              		@ frame_needed = 0, uses_anonymous_args = 0
  68 0000 00B5     		push	{lr}
  69              		.cfi_def_cfa_offset 4
  70              		.cfi_offset 14, -4
  71 0002 83B0     		sub	sp, sp, #12
  72              		.cfi_def_cfa_offset 16
  73 0004 0190     		str	r0, [sp, #4]
  74 0006 0091     		str	r1, [sp]
  75              		.loc 1 186 0
  76 0008 009B     		ldr	r3, [sp]
  77 000a 4FF47A72 		mov	r2, #1000
  78 000e 02FB03F3 		mul	r3, r2, r3
  79 0012 0198     		ldr	r0, [sp, #4]
  80 0014 1946     		mov	r1, r3
  81 0016 FFF7FEFF 		bl	_ZN3r2p4TimeC1IlEET_
  82              		.loc 1 187 0
  83 001a 0198     		ldr	r0, [sp, #4]
  84 001c 03B0     		add	sp, sp, #12
  85              		.cfi_def_cfa_offset 4
  86              		@ sp needed
  87 001e 5DF804FB 		ldr	pc, [sp], #4
  88              		.cfi_endproc
  89              	.LFE276:
  90              		.size	_ZN3r2p4Time2msEl, .-_ZN3r2p4Time2msEl
  91 0022 00BFAFF3 		.section	.text._ZN3r2pgtERKNS_4TimeES2_,"axG",%progbits,_ZN3r2pgtERKNS_4TimeES2_,comdat
  91      0080AFF3 
  91      0080AFF3 
  91      0080
  92              		.align	2
  93              		.p2align 4,,15
  94              		.weak	_ZN3r2pgtERKNS_4TimeES2_
  95              		.thumb
  96              		.thumb_func
  97              		.type	_ZN3r2pgtERKNS_4TimeES2_, %function
  98              	_ZN3r2pgtERKNS_4TimeES2_:
  99              	.LFB282:
 100              		.loc 1 228 0
 101              		.cfi_startproc
 102              		@ args = 0, pretend = 0, frame = 8
 103              		@ frame_needed = 0, uses_anonymous_args = 0
 104              		@ link register save eliminated.
 105 0000 82B0     		sub	sp, sp, #8
 106              		.cfi_def_cfa_offset 8
 107 0002 0190     		str	r0, [sp, #4]
 108 0004 0091     		str	r1, [sp]
 109              		.loc 1 230 0
ARM GAS  /tmp/ccWQ6gKG.s 			page 3


 110 0006 019B     		ldr	r3, [sp, #4]
 111 0008 1A68     		ldr	r2, [r3]
 112 000a 009B     		ldr	r3, [sp]
 113 000c 1B68     		ldr	r3, [r3]
 114 000e 9A42     		cmp	r2, r3
 115 0010 CCBF     		ite	gt
 116 0012 0123     		movgt	r3, #1
 117 0014 0023     		movle	r3, #0
 118 0016 DBB2     		uxtb	r3, r3
 119              		.loc 1 231 0
 120 0018 1846     		mov	r0, r3
 121 001a 02B0     		add	sp, sp, #8
 122              		.cfi_def_cfa_offset 0
 123              		@ sp needed
 124 001c 7047     		bx	lr
 125              		.cfi_endproc
 126              	.LFE282:
 127              		.size	_ZN3r2pgtERKNS_4TimeES2_, .-_ZN3r2pgtERKNS_4TimeES2_
 128 001e 00BF     		.section	.text._ZN3r2pmiERKNS_4TimeES2_,"axG",%progbits,_ZN3r2pmiERKNS_4TimeES2_,comdat
 129              		.align	2
 130              		.p2align 4,,15
 131              		.weak	_ZN3r2pmiERKNS_4TimeES2_
 132              		.thumb
 133              		.thumb_func
 134              		.type	_ZN3r2pmiERKNS_4TimeES2_, %function
 135              	_ZN3r2pmiERKNS_4TimeES2_:
 136              	.LFB287:
 137              		.loc 1 263 0
 138              		.cfi_startproc
 139              		@ args = 0, pretend = 0, frame = 16
 140              		@ frame_needed = 0, uses_anonymous_args = 0
 141 0000 00B5     		push	{lr}
 142              		.cfi_def_cfa_offset 4
 143              		.cfi_offset 14, -4
 144 0002 85B0     		sub	sp, sp, #20
 145              		.cfi_def_cfa_offset 24
 146 0004 0390     		str	r0, [sp, #12]
 147 0006 0291     		str	r1, [sp, #8]
 148 0008 0192     		str	r2, [sp, #4]
 149              		.loc 1 265 0
 150 000a 029B     		ldr	r3, [sp, #8]
 151 000c 1A68     		ldr	r2, [r3]
 152 000e 019B     		ldr	r3, [sp, #4]
 153 0010 1B68     		ldr	r3, [r3]
 154 0012 D31A     		subs	r3, r2, r3
 155 0014 0398     		ldr	r0, [sp, #12]
 156 0016 1946     		mov	r1, r3
 157 0018 FFF7FEFF 		bl	_ZN3r2p4TimeC1IlEET_
 158              		.loc 1 266 0
 159 001c 0398     		ldr	r0, [sp, #12]
 160 001e 05B0     		add	sp, sp, #20
 161              		.cfi_def_cfa_offset 4
 162              		@ sp needed
 163 0020 5DF804FB 		ldr	pc, [sp], #4
 164              		.cfi_endproc
 165              	.LFE287:
 166              		.size	_ZN3r2pmiERKNS_4TimeES2_, .-_ZN3r2pmiERKNS_4TimeES2_
ARM GAS  /tmp/ccWQ6gKG.s 			page 4


 167 0024 AFF30080 		.section	.text._ZN3r2p7MessageC2Ev,"axG",%progbits,_ZN3r2p7MessageC5Ev,comdat
 167      AFF30080 
 167      AFF30080 
 168              		.align	2
 169              		.p2align 4,,15
 170              		.weak	_ZN3r2p7MessageC2Ev
 171              		.thumb
 172              		.thumb_func
 173              		.type	_ZN3r2p7MessageC2Ev, %function
 174              	_ZN3r2p7MessageC2Ev:
 175              	.LFB294:
 176              		.file 2 "/home/denny/r2p-sdk/core/Middleware/include/r2p/Message.hpp"
 177              		.loc 2 132 0
 178              		.cfi_startproc
 179              		@ args = 0, pretend = 0, frame = 8
 180              		@ frame_needed = 0, uses_anonymous_args = 0
 181              		@ link register save eliminated.
 182 0000 82B0     		sub	sp, sp, #8
 183              		.cfi_def_cfa_offset 8
 184 0002 0190     		str	r0, [sp, #4]
 185              	.LBB32:
 186              		.loc 2 137 0
 187 0004 019B     		ldr	r3, [sp, #4]
 188 0006 0022     		movs	r2, #0
 189 0008 1A70     		strb	r2, [r3]
 190 000a 0022     		movs	r2, #0
 191 000c 5A70     		strb	r2, [r3, #1]
 192              	.LBE32:
 193              		.loc 2 138 0
 194 000e 019B     		ldr	r3, [sp, #4]
 195 0010 1846     		mov	r0, r3
 196 0012 02B0     		add	sp, sp, #8
 197              		.cfi_def_cfa_offset 0
 198              		@ sp needed
 199 0014 7047     		bx	lr
 200              		.cfi_endproc
 201              	.LFE294:
 202              		.size	_ZN3r2p7MessageC2Ev, .-_ZN3r2p7MessageC2Ev
 203              		.weak	_ZN3r2p7MessageC1Ev
 204              		.thumb_set _ZN3r2p7MessageC1Ev,_ZN3r2p7MessageC2Ev
 205 0016 00BFAFF3 		.section	.text._ZNK3r2p10SpinEvent_10get_threadEv,"axG",%progbits,_ZNK3r2p10SpinEvent_10get_thread
 205      0080AFF3 
 205      0080
 206              		.align	2
 207              		.p2align 4,,15
 208              		.weak	_ZNK3r2p10SpinEvent_10get_threadEv
 209              		.thumb
 210              		.thumb_func
 211              		.type	_ZNK3r2p10SpinEvent_10get_threadEv, %function
 212              	_ZNK3r2p10SpinEvent_10get_threadEv:
 213              	.LFB353:
 214              		.file 3 "/home/denny/r2p-sdk/core/Middleware/port/chibios/include/r2p/impl/SpinEvent_.hpp"
 215              		.loc 3 36 0
 216              		.cfi_startproc
 217              		@ args = 0, pretend = 0, frame = 8
 218              		@ frame_needed = 0, uses_anonymous_args = 0
 219              		@ link register save eliminated.
ARM GAS  /tmp/ccWQ6gKG.s 			page 5


 220 0000 82B0     		sub	sp, sp, #8
 221              		.cfi_def_cfa_offset 8
 222 0002 0190     		str	r0, [sp, #4]
 223              		.loc 3 38 0
 224 0004 019B     		ldr	r3, [sp, #4]
 225 0006 1B68     		ldr	r3, [r3]
 226              		.loc 3 39 0
 227 0008 1846     		mov	r0, r3
 228 000a 02B0     		add	sp, sp, #8
 229              		.cfi_def_cfa_offset 0
 230              		@ sp needed
 231 000c 7047     		bx	lr
 232              		.cfi_endproc
 233              	.LFE353:
 234              		.size	_ZNK3r2p10SpinEvent_10get_threadEv, .-_ZNK3r2p10SpinEvent_10get_threadEv
 235 000e 00BF     		.section	.rodata
 236              		.align	2
 237              	.LC0:
 238 0000 5232505F 		.ascii	"R2P_ASSERT()\000"
 238      41535345 
 238      52542829 
 238      00
 239              		.section	.text._ZN3r2p10SpinEvent_13signal_unsafeEj,"axG",%progbits,_ZN3r2p10SpinEvent_13signal_un
 240              		.align	2
 241              		.p2align 4,,15
 242              		.weak	_ZN3r2p10SpinEvent_13signal_unsafeEj
 243              		.thumb
 244              		.thumb_func
 245              		.type	_ZN3r2p10SpinEvent_13signal_unsafeEj, %function
 246              	_ZN3r2p10SpinEvent_13signal_unsafeEj:
 247              	.LFB355:
 248              		.loc 3 50 0
 249              		.cfi_startproc
 250              		@ args = 0, pretend = 0, frame = 8
 251              		@ frame_needed = 0, uses_anonymous_args = 0
 252 0000 00B5     		push	{lr}
 253              		.cfi_def_cfa_offset 4
 254              		.cfi_offset 14, -4
 255 0002 83B0     		sub	sp, sp, #12
 256              		.cfi_def_cfa_offset 16
 257 0004 0190     		str	r0, [sp, #4]
 258 0006 0091     		str	r1, [sp]
 259              		.loc 3 52 0
 260 0008 019B     		ldr	r3, [sp, #4]
 261 000a 1B68     		ldr	r3, [r3]
 262 000c 002B     		cmp	r3, #0
 263 000e 10D0     		beq	.L14
 264              		.loc 3 53 0
 265 0010 2022     		movs	r2, #32
 266 0012 009B     		ldr	r3, [sp]
 267 0014 9A42     		cmp	r2, r3
 268 0016 02D8     		bhi	.L16
 269              		.loc 3 53 0 is_stmt 0 discriminator 1
 270 0018 0748     		ldr	r0, .L17
 271 001a FFF7FEFF 		bl	chDbgPanic
 272              	.L16:
 273              		.loc 3 54 0 is_stmt 1
ARM GAS  /tmp/ccWQ6gKG.s 			page 6


 274 001e 019B     		ldr	r3, [sp, #4]
 275 0020 1968     		ldr	r1, [r3]
 276 0022 009B     		ldr	r3, [sp]
 277 0024 0122     		movs	r2, #1
 278 0026 02FA03F3 		lsl	r3, r2, r3
 279 002a 0846     		mov	r0, r1
 280 002c 1946     		mov	r1, r3
 281 002e FFF7FEFF 		bl	chEvtSignalI
 282              	.L14:
 283              		.loc 3 56 0
 284 0032 03B0     		add	sp, sp, #12
 285              		.cfi_def_cfa_offset 4
 286              		@ sp needed
 287 0034 5DF804FB 		ldr	pc, [sp], #4
 288              	.L18:
 289              		.align	2
 290              	.L17:
 291 0038 00000000 		.word	.LC0
 292              		.cfi_endproc
 293              	.LFE355:
 294              		.size	_ZN3r2p10SpinEvent_13signal_unsafeEj, .-_ZN3r2p10SpinEvent_13signal_unsafeEj
 295 003c AFF30080 		.section	.text._ZNK3r2p9SpinEvent10get_threadEv,"axG",%progbits,_ZNK3r2p9SpinEvent10get_threadEv,c
 296              		.align	2
 297              		.p2align 4,,15
 298              		.weak	_ZNK3r2p9SpinEvent10get_threadEv
 299              		.thumb
 300              		.thumb_func
 301              		.type	_ZNK3r2p9SpinEvent10get_threadEv, %function
 302              	_ZNK3r2p9SpinEvent10get_threadEv:
 303              	.LFB361:
 304              		.file 4 "/home/denny/r2p-sdk/core/Middleware/include/r2p/SpinEvent.hpp"
 305              		.loc 4 35 0
 306              		.cfi_startproc
 307              		@ args = 0, pretend = 0, frame = 8
 308              		@ frame_needed = 0, uses_anonymous_args = 0
 309 0000 00B5     		push	{lr}
 310              		.cfi_def_cfa_offset 4
 311              		.cfi_offset 14, -4
 312 0002 83B0     		sub	sp, sp, #12
 313              		.cfi_def_cfa_offset 16
 314 0004 0190     		str	r0, [sp, #4]
 315              		.loc 4 37 0
 316 0006 019B     		ldr	r3, [sp, #4]
 317 0008 1846     		mov	r0, r3
 318 000a FFF7FEFF 		bl	_ZNK3r2p10SpinEvent_10get_threadEv
 319 000e 0346     		mov	r3, r0
 320              		.loc 4 38 0
 321 0010 1846     		mov	r0, r3
 322 0012 03B0     		add	sp, sp, #12
 323              		.cfi_def_cfa_offset 4
 324              		@ sp needed
 325 0014 5DF804FB 		ldr	pc, [sp], #4
 326              		.cfi_endproc
 327              	.LFE361:
 328              		.size	_ZNK3r2p9SpinEvent10get_threadEv, .-_ZNK3r2p9SpinEvent10get_threadEv
 329 0018 AFF30080 		.section	.text._ZN3r2p9SpinEvent13signal_unsafeEj,"axG",%progbits,_ZN3r2p9SpinEvent13signal_unsafe
 329      AFF30080 
ARM GAS  /tmp/ccWQ6gKG.s 			page 7


 330              		.align	2
 331              		.p2align 4,,15
 332              		.weak	_ZN3r2p9SpinEvent13signal_unsafeEj
 333              		.thumb
 334              		.thumb_func
 335              		.type	_ZN3r2p9SpinEvent13signal_unsafeEj, %function
 336              	_ZN3r2p9SpinEvent13signal_unsafeEj:
 337              	.LFB363:
 338              		.loc 4 49 0
 339              		.cfi_startproc
 340              		@ args = 0, pretend = 0, frame = 8
 341              		@ frame_needed = 0, uses_anonymous_args = 0
 342 0000 00B5     		push	{lr}
 343              		.cfi_def_cfa_offset 4
 344              		.cfi_offset 14, -4
 345 0002 83B0     		sub	sp, sp, #12
 346              		.cfi_def_cfa_offset 16
 347 0004 0190     		str	r0, [sp, #4]
 348 0006 0091     		str	r1, [sp]
 349              		.loc 4 51 0
 350 0008 019B     		ldr	r3, [sp, #4]
 351 000a 1846     		mov	r0, r3
 352 000c 0099     		ldr	r1, [sp]
 353 000e FFF7FEFF 		bl	_ZN3r2p10SpinEvent_13signal_unsafeEj
 354              		.loc 4 52 0
 355 0012 03B0     		add	sp, sp, #12
 356              		.cfi_def_cfa_offset 4
 357              		@ sp needed
 358 0014 5DF804FB 		ldr	pc, [sp], #4
 359              		.cfi_endproc
 360              	.LFE363:
 361              		.size	_ZN3r2p9SpinEvent13signal_unsafeEj, .-_ZN3r2p9SpinEvent13signal_unsafeEj
 362 0018 AFF30080 		.section	.text._ZNK3r2p4Node11get_enabledEv,"axG",%progbits,_ZNK3r2p4Node11get_enabledEv,comdat
 362      AFF30080 
 363              		.align	2
 364              		.p2align 4,,15
 365              		.weak	_ZNK3r2p4Node11get_enabledEv
 366              		.thumb
 367              		.thumb_func
 368              		.type	_ZNK3r2p4Node11get_enabledEv, %function
 369              	_ZNK3r2p4Node11get_enabledEv:
 370              	.LFB380:
 371              		.file 5 "/home/denny/r2p-sdk/core/Middleware/include/r2p/Node.hpp"
 372              		.loc 5 103 0
 373              		.cfi_startproc
 374              		@ args = 0, pretend = 0, frame = 8
 375              		@ frame_needed = 0, uses_anonymous_args = 0
 376 0000 00B5     		push	{lr}
 377              		.cfi_def_cfa_offset 4
 378              		.cfi_offset 14, -4
 379 0002 83B0     		sub	sp, sp, #12
 380              		.cfi_def_cfa_offset 16
 381 0004 0190     		str	r0, [sp, #4]
 382              		.loc 5 105 0
 383 0006 019B     		ldr	r3, [sp, #4]
 384 0008 0C33     		adds	r3, r3, #12
 385 000a 1846     		mov	r0, r3
ARM GAS  /tmp/ccWQ6gKG.s 			page 8


 386 000c FFF7FEFF 		bl	_ZNK3r2p9SpinEvent10get_threadEv
 387 0010 0346     		mov	r3, r0
 388 0012 002B     		cmp	r3, #0
 389 0014 14BF     		ite	ne
 390 0016 0123     		movne	r3, #1
 391 0018 0023     		moveq	r3, #0
 392 001a DBB2     		uxtb	r3, r3
 393              		.loc 5 106 0
 394 001c 1846     		mov	r0, r3
 395 001e 03B0     		add	sp, sp, #12
 396              		.cfi_def_cfa_offset 4
 397              		@ sp needed
 398 0020 5DF804FB 		ldr	pc, [sp], #4
 399              		.cfi_endproc
 400              	.LFE380:
 401              		.size	_ZNK3r2p4Node11get_enabledEv, .-_ZNK3r2p4Node11get_enabledEv
 402 0024 AFF30080 		.section	.text._ZN3r2p4Node13notify_unsafeEj,"axG",%progbits,_ZN3r2p4Node13notify_unsafeEj,comdat
 402      AFF30080 
 402      AFF30080 
 403              		.align	2
 404              		.p2align 4,,15
 405              		.weak	_ZN3r2p4Node13notify_unsafeEj
 406              		.thumb
 407              		.thumb_func
 408              		.type	_ZN3r2p4Node13notify_unsafeEj, %function
 409              	_ZN3r2p4Node13notify_unsafeEj:
 410              	.LFB385:
 411              		.loc 5 140 0
 412              		.cfi_startproc
 413              		@ args = 0, pretend = 0, frame = 8
 414              		@ frame_needed = 0, uses_anonymous_args = 0
 415 0000 00B5     		push	{lr}
 416              		.cfi_def_cfa_offset 4
 417              		.cfi_offset 14, -4
 418 0002 83B0     		sub	sp, sp, #12
 419              		.cfi_def_cfa_offset 16
 420 0004 0190     		str	r0, [sp, #4]
 421 0006 0091     		str	r1, [sp]
 422              		.loc 5 142 0
 423 0008 019B     		ldr	r3, [sp, #4]
 424 000a 0C33     		adds	r3, r3, #12
 425 000c 1846     		mov	r0, r3
 426 000e 0099     		ldr	r1, [sp]
 427 0010 FFF7FEFF 		bl	_ZN3r2p9SpinEvent13signal_unsafeEj
 428              		.loc 5 143 0
 429 0014 03B0     		add	sp, sp, #12
 430              		.cfi_def_cfa_offset 4
 431              		@ sp needed
 432 0016 5DF804FB 		ldr	pc, [sp], #4
 433              		.cfi_endproc
 434              	.LFE385:
 435              		.size	_ZN3r2p4Node13notify_unsafeEj, .-_ZN3r2p4Node13notify_unsafeEj
 436 001a 00BFAFF3 		.section	.text._ZNK3r2p15LocalSubscriber16get_queue_lengthEv,"axG",%progbits,_ZNK3r2p15LocalSubscr
 436      0080
 437              		.align	2
 438              		.p2align 4,,15
 439              		.weak	_ZNK3r2p15LocalSubscriber16get_queue_lengthEv
ARM GAS  /tmp/ccWQ6gKG.s 			page 9


 440              		.thumb
 441              		.thumb_func
 442              		.type	_ZNK3r2p15LocalSubscriber16get_queue_lengthEv, %function
 443              	_ZNK3r2p15LocalSubscriber16get_queue_lengthEv:
 444              	.LFB391:
 445              		.file 6 "/home/denny/r2p-sdk/core/Middleware/include/r2p/LocalSubscriber.hpp"
 446              		.loc 6 64 0
 447              		.cfi_startproc
 448              		@ args = 0, pretend = 0, frame = 8
 449              		@ frame_needed = 0, uses_anonymous_args = 0
 450 0000 00B5     		push	{lr}
 451              		.cfi_def_cfa_offset 4
 452              		.cfi_offset 14, -4
 453 0002 83B0     		sub	sp, sp, #12
 454              		.cfi_def_cfa_offset 16
 455 0004 0190     		str	r0, [sp, #4]
 456              		.loc 6 66 0
 457 0006 019B     		ldr	r3, [sp, #4]
 458 0008 1033     		adds	r3, r3, #16
 459 000a 1846     		mov	r0, r3
 460 000c FFF7FEFF 		bl	_ZNK3r2p10ArrayQueueIPNS_7MessageEE10get_lengthEv
 461 0010 0346     		mov	r3, r0
 462              		.loc 6 67 0
 463 0012 1846     		mov	r0, r3
 464 0014 03B0     		add	sp, sp, #12
 465              		.cfi_def_cfa_offset 4
 466              		@ sp needed
 467 0016 5DF804FB 		ldr	pc, [sp], #4
 468              		.cfi_endproc
 469              	.LFE391:
 470              		.size	_ZNK3r2p15LocalSubscriber16get_queue_lengthEv, .-_ZNK3r2p15LocalSubscriber16get_queue_length
 471 001a 00BFAFF3 		.section	.text._ZN3r2p15LocalSubscriber12fetch_unsafeERPNS_7MessageERNS_4TimeE,"axG",%progbits,_ZN
 471      0080
 472              		.align	2
 473              		.p2align 4,,15
 474              		.weak	_ZN3r2p15LocalSubscriber12fetch_unsafeERPNS_7MessageERNS_4TimeE
 475              		.thumb
 476              		.thumb_func
 477              		.type	_ZN3r2p15LocalSubscriber12fetch_unsafeERPNS_7MessageERNS_4TimeE, %function
 478              	_ZN3r2p15LocalSubscriber12fetch_unsafeERPNS_7MessageERNS_4TimeE:
 479              	.LFB392:
 480              		.loc 6 71 0
 481              		.cfi_startproc
 482              		@ args = 0, pretend = 0, frame = 24
 483              		@ frame_needed = 0, uses_anonymous_args = 0
 484 0000 00B5     		push	{lr}
 485              		.cfi_def_cfa_offset 4
 486              		.cfi_offset 14, -4
 487 0002 87B0     		sub	sp, sp, #28
 488              		.cfi_def_cfa_offset 32
 489 0004 0390     		str	r0, [sp, #12]
 490 0006 0291     		str	r1, [sp, #8]
 491 0008 0192     		str	r2, [sp, #4]
 492              		.loc 6 73 0
 493 000a 039B     		ldr	r3, [sp, #12]
 494 000c 1033     		adds	r3, r3, #16
 495 000e 1846     		mov	r0, r3
ARM GAS  /tmp/ccWQ6gKG.s 			page 10


 496 0010 0299     		ldr	r1, [sp, #8]
 497 0012 FFF7FEFF 		bl	_ZN3r2p10ArrayQueueIPNS_7MessageEE12fetch_unsafeERS2_
 498 0016 0346     		mov	r3, r0
 499 0018 002B     		cmp	r3, #0
 500 001a 0AD0     		beq	.L28
 501              		.loc 6 74 0
 502 001c 05AB     		add	r3, sp, #20
 503 001e 1846     		mov	r0, r3
 504 0020 FFF7FEFF 		bl	_ZN3r2p4Time3nowEv
 505 0024 05AB     		add	r3, sp, #20
 506 0026 0198     		ldr	r0, [sp, #4]
 507 0028 1946     		mov	r1, r3
 508 002a FFF7FEFF 		bl	_ZN3r2p4TimeaSERKS0_
 509              		.loc 6 75 0
 510 002e 0123     		movs	r3, #1
 511 0030 00E0     		b	.L29
 512              	.L28:
 513              		.loc 6 77 0
 514 0032 0023     		movs	r3, #0
 515              	.L29:
 516              		.loc 6 78 0
 517 0034 1846     		mov	r0, r3
 518 0036 07B0     		add	sp, sp, #28
 519              		.cfi_def_cfa_offset 4
 520              		@ sp needed
 521 0038 5DF804FB 		ldr	pc, [sp], #4
 522              		.cfi_endproc
 523              	.LFE392:
 524              		.size	_ZN3r2p15LocalSubscriber12fetch_unsafeERPNS_7MessageERNS_4TimeE, .-_ZN3r2p15LocalSubscriber1
 525 003c AFF30080 		.section	.text._ZN3r2p15LocalSubscriber13notify_unsafeERNS_7MessageERKNS_4TimeE,"axG",%progbits,_Z
 526              		.align	2
 527              		.p2align 4,,15
 528              		.weak	_ZN3r2p15LocalSubscriber13notify_unsafeERNS_7MessageERKNS_4TimeE
 529              		.thumb
 530              		.thumb_func
 531              		.type	_ZN3r2p15LocalSubscriber13notify_unsafeERNS_7MessageERKNS_4TimeE, %function
 532              	_ZN3r2p15LocalSubscriber13notify_unsafeERNS_7MessageERKNS_4TimeE:
 533              	.LFB393:
 534              		.loc 6 82 0
 535              		.cfi_startproc
 536              		@ args = 0, pretend = 0, frame = 16
 537              		@ frame_needed = 0, uses_anonymous_args = 0
 538 0000 00B5     		push	{lr}
 539              		.cfi_def_cfa_offset 4
 540              		.cfi_offset 14, -4
 541 0002 85B0     		sub	sp, sp, #20
 542              		.cfi_def_cfa_offset 24
 543 0004 0390     		str	r0, [sp, #12]
 544 0006 0291     		str	r1, [sp, #8]
 545 0008 0192     		str	r2, [sp, #4]
 546              		.loc 6 86 0
 547 000a 039B     		ldr	r3, [sp, #12]
 548 000c 9B68     		ldr	r3, [r3, #8]
 549 000e 1846     		mov	r0, r3
 550 0010 FFF7FEFF 		bl	_ZNK3r2p4Node11get_enabledEv
 551 0014 0346     		mov	r3, r0
 552 0016 002B     		cmp	r3, #0
ARM GAS  /tmp/ccWQ6gKG.s 			page 11


 553 0018 0AD0     		beq	.L31
 554              		.loc 6 86 0 is_stmt 0 discriminator 1
 555 001a 039B     		ldr	r3, [sp, #12]
 556 001c 1033     		adds	r3, r3, #16
 557 001e 1846     		mov	r0, r3
 558 0020 0299     		ldr	r1, [sp, #8]
 559 0022 FFF7FEFF 		bl	_ZN3r2p10ArrayQueueIPNS_7MessageEE11post_unsafeES2_
 560 0026 0346     		mov	r3, r0
 561 0028 002B     		cmp	r3, #0
 562 002a 01D0     		beq	.L31
 563              		.loc 6 86 0 discriminator 3
 564 002c 0123     		movs	r3, #1
 565 002e 00E0     		b	.L32
 566              	.L31:
 567              		.loc 6 86 0 discriminator 4
 568 0030 0023     		movs	r3, #0
 569              	.L32:
 570              		.loc 6 86 0 discriminator 6
 571 0032 002B     		cmp	r3, #0
 572 0034 0AD0     		beq	.L33
 573              		.loc 6 87 0 is_stmt 1
 574 0036 039B     		ldr	r3, [sp, #12]
 575 0038 9A68     		ldr	r2, [r3, #8]
 576 003a 039B     		ldr	r3, [sp, #12]
 577 003c 93F82430 		ldrb	r3, [r3, #36]	@ zero_extendqisi2
 578 0040 1046     		mov	r0, r2
 579 0042 1946     		mov	r1, r3
 580 0044 FFF7FEFF 		bl	_ZN3r2p4Node13notify_unsafeEj
 581              		.loc 6 88 0
 582 0048 0123     		movs	r3, #1
 583 004a 00E0     		b	.L34
 584              	.L33:
 585              		.loc 6 90 0
 586 004c 0023     		movs	r3, #0
 587              	.L34:
 588              		.loc 6 91 0
 589 004e 1846     		mov	r0, r3
 590 0050 05B0     		add	sp, sp, #20
 591              		.cfi_def_cfa_offset 4
 592              		@ sp needed
 593 0052 5DF804FB 		ldr	pc, [sp], #4
 594              		.cfi_endproc
 595              	.LFE393:
 596              		.size	_ZN3r2p15LocalSubscriber13notify_unsafeERNS_7MessageERKNS_4TimeE, .-_ZN3r2p15LocalSubscriber
 597 0056 00BFAFF3 		.section	.text._ZN3PIDC2Ev,"ax",%progbits
 597      0080AFF3 
 597      0080
 598              		.align	2
 599              		.p2align 4,,15
 600              		.global	_ZN3PIDC2Ev
 601              		.thumb
 602              		.thumb_func
 603              		.type	_ZN3PIDC2Ev, %function
 604              	_ZN3PIDC2Ev:
 605              	.LFB597:
 606              		.file 7 "nodes/pid.hpp"
 607              		.loc 7 24 0
ARM GAS  /tmp/ccWQ6gKG.s 			page 12


 608              		.cfi_startproc
 609              		@ args = 0, pretend = 0, frame = 8
 610              		@ frame_needed = 0, uses_anonymous_args = 0
 611              		@ link register save eliminated.
 612 0000 82B0     		sub	sp, sp, #8
 613              		.cfi_def_cfa_offset 8
 614 0002 0190     		str	r0, [sp, #4]
 615              	.LBB33:
 616              		.loc 7 25 0
 617 0004 019B     		ldr	r3, [sp, #4]
 618 0006 4FF00002 		mov	r2, #0
 619 000a 1A60     		str	r2, [r3]	@ float
 620              		.loc 7 26 0
 621 000c 019B     		ldr	r3, [sp, #4]
 622 000e 4FF00002 		mov	r2, #0
 623 0012 5A60     		str	r2, [r3, #4]	@ float
 624              		.loc 7 27 0
 625 0014 019B     		ldr	r3, [sp, #4]
 626 0016 4FF00002 		mov	r2, #0
 627 001a 9A60     		str	r2, [r3, #8]	@ float
 628              		.loc 7 28 0
 629 001c 019B     		ldr	r3, [sp, #4]
 630 001e 4FF00002 		mov	r2, #0
 631 0022 DA60     		str	r2, [r3, #12]	@ float
 632              		.loc 7 29 0
 633 0024 019B     		ldr	r3, [sp, #4]
 634 0026 4FF00002 		mov	r2, #0
 635 002a 1A61     		str	r2, [r3, #16]	@ float
 636              		.loc 7 30 0
 637 002c 019B     		ldr	r3, [sp, #4]
 638 002e 4FF00002 		mov	r2, #0
 639 0032 5A61     		str	r2, [r3, #20]	@ float
 640              		.loc 7 31 0
 641 0034 019B     		ldr	r3, [sp, #4]
 642 0036 6FF40002 		mvn	r2, #8388608
 643 003a 9A61     		str	r2, [r3, #24]	@ float
 644              		.loc 7 32 0
 645 003c 019B     		ldr	r3, [sp, #4]
 646 003e 034A     		ldr	r2, .L38
 647 0040 DA61     		str	r2, [r3, #28]	@ float
 648              	.LBE33:
 649              		.loc 7 34 0
 650 0042 019B     		ldr	r3, [sp, #4]
 651 0044 1846     		mov	r0, r3
 652 0046 02B0     		add	sp, sp, #8
 653              		.cfi_def_cfa_offset 0
 654              		@ sp needed
 655 0048 7047     		bx	lr
 656              	.L39:
 657 004a 00BF     		.align	2
 658              	.L38:
 659 004c FFFF7F7F 		.word	2139095039
 660              		.cfi_endproc
 661              	.LFE597:
 662              		.size	_ZN3PIDC2Ev, .-_ZN3PIDC2Ev
 663              		.global	_ZN3PIDC1Ev
 664              		.thumb_set _ZN3PIDC1Ev,_ZN3PIDC2Ev
ARM GAS  /tmp/ccWQ6gKG.s 			page 13


 665              		.section	.text._ZN3PID6configEffffff,"ax",%progbits
 666              		.align	2
 667              		.p2align 4,,15
 668              		.global	_ZN3PID6configEffffff
 669              		.thumb
 670              		.thumb_func
 671              		.type	_ZN3PID6configEffffff, %function
 672              	_ZN3PID6configEffffff:
 673              	.LFB599:
 674              		.loc 7 37 0
 675              		.cfi_startproc
 676              		@ args = 0, pretend = 0, frame = 32
 677              		@ frame_needed = 0, uses_anonymous_args = 0
 678 0000 00B5     		push	{lr}
 679              		.cfi_def_cfa_offset 4
 680              		.cfi_offset 14, -4
 681 0002 89B0     		sub	sp, sp, #36
 682              		.cfi_def_cfa_offset 40
 683 0004 0790     		str	r0, [sp, #28]
 684 0006 8DED060A 		fsts	s0, [sp, #24]
 685 000a CDED050A 		fsts	s1, [sp, #20]
 686 000e 8DED041A 		fsts	s2, [sp, #16]
 687 0012 CDED031A 		fsts	s3, [sp, #12]
 688 0016 8DED022A 		fsts	s4, [sp, #8]
 689 001a CDED012A 		fsts	s5, [sp, #4]
 690              	.LBB34:
 691              	.LBB35:
 692              	.LBB36:
 693              		.loc 7 39 0
 694 001e 2023     		movs	r3, #32
 695              	@ 39 "nodes/pid.hpp" 1
 696 0020 83F31188 		msr     BASEPRI, r3
 697              	@ 0 "" 2
 698              		.thumb
 699              	.LBE36:
 700 0024 FFF7FEFF 		bl	dbg_check_lock
 701              	.LBE35:
 702              		.loc 7 40 0
 703 0028 079B     		ldr	r3, [sp, #28]
 704 002a 069A     		ldr	r2, [sp, #24]	@ float
 705 002c DA60     		str	r2, [r3, #12]	@ float
 706              		.loc 7 41 0
 707 002e DDED057A 		flds	s15, [sp, #20]
 708 0032 F5EE407A 		fcmpzs	s15
 709 0036 F1EE10FA 		fmstat
 710 003a 0AD0     		beq	.L41
 711              		.loc 7 41 0 is_stmt 0 discriminator 1
 712 003c 9DED037A 		flds	s14, [sp, #12]
 713 0040 DDED057A 		flds	s15, [sp, #20]
 714 0044 87EE277A 		fdivs	s14, s14, s15
 715 0048 DDED067A 		flds	s15, [sp, #24]
 716 004c 67EE277A 		fmuls	s15, s14, s15
 717 0050 01E0     		b	.L42
 718              	.L41:
 719              		.loc 7 41 0 discriminator 2
 720 0052 DFED147A 		flds	s15, .L43
 721              	.L42:
ARM GAS  /tmp/ccWQ6gKG.s 			page 14


 722              		.loc 7 41 0 discriminator 4
 723 0056 079B     		ldr	r3, [sp, #28]
 724 0058 C3ED047A 		fsts	s15, [r3, #16]
 725              		.loc 7 42 0 is_stmt 1 discriminator 4
 726 005c 9DED047A 		flds	s14, [sp, #16]
 727 0060 DDED037A 		flds	s15, [sp, #12]
 728 0064 87EE277A 		fdivs	s14, s14, s15
 729 0068 DDED067A 		flds	s15, [sp, #24]
 730 006c 67EE277A 		fmuls	s15, s14, s15
 731 0070 079B     		ldr	r3, [sp, #28]
 732 0072 C3ED057A 		fsts	s15, [r3, #20]
 733              		.loc 7 43 0 discriminator 4
 734 0076 079B     		ldr	r3, [sp, #28]
 735 0078 029A     		ldr	r2, [sp, #8]	@ float
 736 007a 9A61     		str	r2, [r3, #24]	@ float
 737              		.loc 7 44 0 discriminator 4
 738 007c 079B     		ldr	r3, [sp, #28]
 739 007e 019A     		ldr	r2, [sp, #4]	@ float
 740 0080 DA61     		str	r2, [r3, #28]	@ float
 741              		.loc 7 45 0 discriminator 4
 742 0082 079B     		ldr	r3, [sp, #28]
 743 0084 4FF00002 		mov	r2, #0
 744 0088 1A60     		str	r2, [r3]	@ float
 745              		.loc 7 46 0 discriminator 4
 746 008a 079B     		ldr	r3, [sp, #28]
 747 008c 4FF00002 		mov	r2, #0
 748 0090 5A60     		str	r2, [r3, #4]	@ float
 749              	.LBB37:
 750              		.loc 7 47 0 discriminator 4
 751 0092 FFF7FEFF 		bl	dbg_check_unlock
 752              	.LBB38:
 753 0096 0023     		movs	r3, #0
 754              	@ 47 "nodes/pid.hpp" 1
 755 0098 83F31188 		msr     BASEPRI, r3
 756              	@ 0 "" 2
 757              		.thumb
 758              	.LBE38:
 759              	.LBE37:
 760              	.LBE34:
 761              		.loc 7 48 0 discriminator 4
 762 009c 09B0     		add	sp, sp, #36
 763              		.cfi_def_cfa_offset 4
 764              		@ sp needed
 765 009e 5DF804FB 		ldr	pc, [sp], #4
 766              	.L44:
 767 00a2 00BF     		.align	2
 768              	.L43:
 769 00a4 00000000 		.word	0
 770              		.cfi_endproc
 771              	.LFE599:
 772              		.size	_ZN3PID6configEffffff, .-_ZN3PID6configEffffff
 773 00a8 AFF30080 		.section	.text._ZN3PID3setEf,"ax",%progbits
 773      AFF30080 
 774              		.align	2
 775              		.p2align 4,,15
 776              		.global	_ZN3PID3setEf
 777              		.thumb
ARM GAS  /tmp/ccWQ6gKG.s 			page 15


 778              		.thumb_func
 779              		.type	_ZN3PID3setEf, %function
 780              	_ZN3PID3setEf:
 781              	.LFB600:
 782              		.loc 7 51 0
 783              		.cfi_startproc
 784              		@ args = 0, pretend = 0, frame = 8
 785              		@ frame_needed = 0, uses_anonymous_args = 0
 786 0000 00B5     		push	{lr}
 787              		.cfi_def_cfa_offset 4
 788              		.cfi_offset 14, -4
 789 0002 83B0     		sub	sp, sp, #12
 790              		.cfi_def_cfa_offset 16
 791 0004 0190     		str	r0, [sp, #4]
 792 0006 8DED000A 		fsts	s0, [sp]
 793              	.LBB39:
 794              	.LBB40:
 795              	.LBB41:
 796              		.loc 7 53 0
 797 000a 2023     		movs	r3, #32
 798              	@ 53 "nodes/pid.hpp" 1
 799 000c 83F31188 		msr     BASEPRI, r3
 800              	@ 0 "" 2
 801              		.thumb
 802              	.LBE41:
 803 0010 FFF7FEFF 		bl	dbg_check_lock
 804              	.LBE40:
 805              		.loc 7 55 0
 806 0014 DDED007A 		flds	s15, [sp]
 807 0018 F5EEC07A 		fcmpezs	s15
 808 001c F1EE10FA 		fmstat
 809 0020 CCBF     		ite	gt
 810 0022 0123     		movgt	r3, #1
 811 0024 0023     		movle	r3, #0
 812 0026 DAB2     		uxtb	r2, r3
 813 0028 019B     		ldr	r3, [sp, #4]
 814 002a D3ED027A 		flds	s15, [r3, #8]
 815 002e F5EEC07A 		fcmpezs	s15
 816 0032 F1EE10FA 		fmstat
 817 0036 CCBF     		ite	gt
 818 0038 0123     		movgt	r3, #1
 819 003a 0023     		movle	r3, #0
 820 003c DBB2     		uxtb	r3, r3
 821 003e 5340     		eors	r3, r3, r2
 822 0040 DBB2     		uxtb	r3, r3
 823 0042 002B     		cmp	r3, #0
 824 0044 07D0     		beq	.L46
 825              		.loc 7 56 0
 826 0046 019B     		ldr	r3, [sp, #4]
 827 0048 4FF00002 		mov	r2, #0
 828 004c 1A60     		str	r2, [r3]	@ float
 829              		.loc 7 57 0
 830 004e 019B     		ldr	r3, [sp, #4]
 831 0050 4FF00002 		mov	r2, #0
 832 0054 5A60     		str	r2, [r3, #4]	@ float
 833              	.L46:
 834              		.loc 7 60 0
ARM GAS  /tmp/ccWQ6gKG.s 			page 16


 835 0056 019B     		ldr	r3, [sp, #4]
 836 0058 009A     		ldr	r2, [sp]	@ float
 837 005a 9A60     		str	r2, [r3, #8]	@ float
 838              	.LBB42:
 839              		.loc 7 61 0
 840 005c FFF7FEFF 		bl	dbg_check_unlock
 841              	.LBB43:
 842 0060 0023     		movs	r3, #0
 843              	@ 61 "nodes/pid.hpp" 1
 844 0062 83F31188 		msr     BASEPRI, r3
 845              	@ 0 "" 2
 846              		.thumb
 847              	.LBE43:
 848              	.LBE42:
 849              	.LBE39:
 850              		.loc 7 62 0
 851 0066 03B0     		add	sp, sp, #12
 852              		.cfi_def_cfa_offset 4
 853              		@ sp needed
 854 0068 5DF804FB 		ldr	pc, [sp], #4
 855              		.cfi_endproc
 856              	.LFE600:
 857              		.size	_ZN3PID3setEf, .-_ZN3PID3setEf
 858 006c AFF30080 		.section	.text._ZN3PID6updateEf,"ax",%progbits
 859              		.align	2
 860              		.p2align 4,,15
 861              		.global	_ZN3PID6updateEf
 862              		.thumb
 863              		.thumb_func
 864              		.type	_ZN3PID6updateEf, %function
 865              	_ZN3PID6updateEf:
 866              	.LFB601:
 867              		.loc 7 65 0
 868              		.cfi_startproc
 869              		@ args = 0, pretend = 0, frame = 16
 870              		@ frame_needed = 0, uses_anonymous_args = 0
 871              		@ link register save eliminated.
 872 0000 84B0     		sub	sp, sp, #16
 873              		.cfi_def_cfa_offset 16
 874 0002 0190     		str	r0, [sp, #4]
 875 0004 8DED000A 		fsts	s0, [sp]
 876              	.LBB44:
 877              		.loc 7 70 0
 878 0008 019B     		ldr	r3, [sp, #4]
 879 000a 93ED027A 		flds	s14, [r3, #8]
 880 000e DDED007A 		flds	s15, [sp]
 881 0012 77EE677A 		fsubs	s15, s14, s15
 882 0016 CDED027A 		fsts	s15, [sp, #8]
 883              		.loc 7 73 0
 884 001a 019B     		ldr	r3, [sp, #4]
 885 001c 93ED037A 		flds	s14, [r3, #12]
 886 0020 DDED027A 		flds	s15, [sp, #8]
 887 0024 67EE277A 		fmuls	s15, s14, s15
 888 0028 CDED037A 		fsts	s15, [sp, #12]
 889              		.loc 7 76 0
 890 002c 019B     		ldr	r3, [sp, #4]
 891 002e 93ED007A 		flds	s14, [r3]
ARM GAS  /tmp/ccWQ6gKG.s 			page 17


 892 0032 019B     		ldr	r3, [sp, #4]
 893 0034 D3ED046A 		flds	s13, [r3, #16]
 894 0038 DDED027A 		flds	s15, [sp, #8]
 895 003c 66EEA77A 		fmuls	s15, s13, s15
 896 0040 77EE277A 		fadds	s15, s14, s15
 897 0044 019B     		ldr	r3, [sp, #4]
 898 0046 C3ED007A 		fsts	s15, [r3]
 899              		.loc 7 77 0
 900 004a 019B     		ldr	r3, [sp, #4]
 901 004c D3ED007A 		flds	s15, [r3]
 902 0050 9DED037A 		flds	s14, [sp, #12]
 903 0054 77EE277A 		fadds	s15, s14, s15
 904 0058 CDED037A 		fsts	s15, [sp, #12]
 905              		.loc 7 80 0
 906 005c 019B     		ldr	r3, [sp, #4]
 907 005e 93ED057A 		flds	s14, [r3, #20]
 908 0062 019B     		ldr	r3, [sp, #4]
 909 0064 D3ED017A 		flds	s15, [r3, #4]
 910 0068 DDED026A 		flds	s13, [sp, #8]
 911 006c 76EEE77A 		fsubs	s15, s13, s15
 912 0070 67EE277A 		fmuls	s15, s14, s15
 913 0074 9DED037A 		flds	s14, [sp, #12]
 914 0078 77EE277A 		fadds	s15, s14, s15
 915 007c CDED037A 		fsts	s15, [sp, #12]
 916              		.loc 7 81 0
 917 0080 019B     		ldr	r3, [sp, #4]
 918 0082 029A     		ldr	r2, [sp, #8]	@ float
 919 0084 5A60     		str	r2, [r3, #4]	@ float
 920              		.loc 7 84 0
 921 0086 019B     		ldr	r3, [sp, #4]
 922 0088 93ED077A 		flds	s14, [r3, #28]
 923 008c DDED037A 		flds	s15, [sp, #12]
 924 0090 B4EEE77A 		fcmpes	s14, s15
 925 0094 F1EE10FA 		fmstat
 926 0098 12D5     		bpl	.L55
 927              		.loc 7 85 0
 928 009a 019B     		ldr	r3, [sp, #4]
 929 009c DB69     		ldr	r3, [r3, #28]	@ float
 930 009e 0393     		str	r3, [sp, #12]	@ float
 931              		.loc 7 87 0
 932 00a0 019B     		ldr	r3, [sp, #4]
 933 00a2 93ED007A 		flds	s14, [r3]
 934 00a6 019B     		ldr	r3, [sp, #4]
 935 00a8 D3ED046A 		flds	s13, [r3, #16]
 936 00ac DDED027A 		flds	s15, [sp, #8]
 937 00b0 66EEA77A 		fmuls	s15, s13, s15
 938 00b4 77EE677A 		fsubs	s15, s14, s15
 939 00b8 019B     		ldr	r3, [sp, #4]
 940 00ba C3ED007A 		fsts	s15, [r3]
 941 00be 1BE0     		b	.L50
 942              	.L55:
 943              		.loc 7 88 0
 944 00c0 019B     		ldr	r3, [sp, #4]
 945 00c2 93ED067A 		flds	s14, [r3, #24]
 946 00c6 DDED037A 		flds	s15, [sp, #12]
 947 00ca B4EEE77A 		fcmpes	s14, s15
 948 00ce F1EE10FA 		fmstat
ARM GAS  /tmp/ccWQ6gKG.s 			page 18


 949 00d2 11DD     		ble	.L50
 950              		.loc 7 89 0
 951 00d4 019B     		ldr	r3, [sp, #4]
 952 00d6 9B69     		ldr	r3, [r3, #24]	@ float
 953 00d8 0393     		str	r3, [sp, #12]	@ float
 954              		.loc 7 91 0
 955 00da 019B     		ldr	r3, [sp, #4]
 956 00dc 93ED007A 		flds	s14, [r3]
 957 00e0 019B     		ldr	r3, [sp, #4]
 958 00e2 D3ED046A 		flds	s13, [r3, #16]
 959 00e6 DDED027A 		flds	s15, [sp, #8]
 960 00ea 66EEA77A 		fmuls	s15, s13, s15
 961 00ee 77EE677A 		fsubs	s15, s14, s15
 962 00f2 019B     		ldr	r3, [sp, #4]
 963 00f4 C3ED007A 		fsts	s15, [r3]
 964              	.L50:
 965              		.loc 7 94 0
 966 00f8 039B     		ldr	r3, [sp, #12]	@ float
 967 00fa 07EE903A 		fmsr	s15, r3
 968              	.LBE44:
 969              		.loc 7 95 0
 970 00fe B0EE670A 		fcpys	s0, s15
 971 0102 04B0     		add	sp, sp, #16
 972              		.cfi_def_cfa_offset 0
 973              		@ sp needed
 974 0104 7047     		bx	lr
 975              		.cfi_endproc
 976              	.LFE601:
 977              		.size	_ZN3PID6updateEf, .-_ZN3PID6updateEf
 978              		.global	pwm
 979 0106 00BFAFF3 		.section	.bss.pwm,"aw",%nobits
 979      0080AFF3 
 979      0080
 980              		.align	1
 981              		.type	pwm, %object
 982              		.size	pwm, 2
 983              	pwm:
 984 0000 0000     		.space	2
 985              		.section	.text._ZL5pwmcbP9PWMDriver,"ax",%progbits
 986              		.align	2
 987              		.p2align 4,,15
 988              		.thumb
 989              		.thumb_func
 990              		.type	_ZL5pwmcbP9PWMDriver, %function
 991              	_ZL5pwmcbP9PWMDriver:
 992              	.LFB602:
 993              		.file 8 "nodes/pid_node.cpp"
 994              		.loc 8 15 0
 995              		.cfi_startproc
 996              		@ args = 0, pretend = 0, frame = 8
 997              		@ frame_needed = 0, uses_anonymous_args = 0
 998 0000 00B5     		push	{lr}
 999              		.cfi_def_cfa_offset 4
 1000              		.cfi_offset 14, -4
 1001 0002 83B0     		sub	sp, sp, #12
 1002              		.cfi_def_cfa_offset 16
 1003 0004 0190     		str	r0, [sp, #4]
ARM GAS  /tmp/ccWQ6gKG.s 			page 19


 1004              	.LBB45:
 1005              	.LBB46:
 1006              	.LBB47:
 1007              		.loc 8 18 0
 1008 0006 2023     		movs	r3, #32
 1009              	@ 18 "nodes/pid_node.cpp" 1
 1010 0008 83F31188 		msr     BASEPRI, r3
 1011              	@ 0 "" 2
 1012              		.thumb
 1013              	.LBE47:
 1014 000c FFF7FEFF 		bl	dbg_check_lock_from_isr
 1015              	.LBE46:
 1016              		.loc 8 20 0
 1017 0010 144B     		ldr	r3, .L59
 1018 0012 1B88     		ldrh	r3, [r3]
 1019 0014 1BB2     		sxth	r3, r3
 1020 0016 002B     		cmp	r3, #0
 1021 0018 0DDB     		blt	.L57
 1022              		.loc 8 21 0
 1023 001a 124B     		ldr	r3, .L59
 1024 001c 1B88     		ldrh	r3, [r3]
 1025 001e 9BB2     		uxth	r3, r3
 1026 0020 1148     		ldr	r0, .L59+4
 1027 0022 0021     		movs	r1, #0
 1028 0024 1A46     		mov	r2, r3
 1029 0026 FFF7FEFF 		bl	pwm_lld_enable_channel
 1030              		.loc 8 22 0
 1031 002a 0F48     		ldr	r0, .L59+4
 1032 002c 0121     		movs	r1, #1
 1033 002e 0022     		movs	r2, #0
 1034 0030 FFF7FEFF 		bl	pwm_lld_enable_channel
 1035 0034 0EE0     		b	.L58
 1036              	.L57:
 1037              		.loc 8 24 0
 1038 0036 0C48     		ldr	r0, .L59+4
 1039 0038 0021     		movs	r1, #0
 1040 003a 0022     		movs	r2, #0
 1041 003c FFF7FEFF 		bl	pwm_lld_enable_channel
 1042              		.loc 8 25 0
 1043 0040 084B     		ldr	r3, .L59
 1044 0042 1B88     		ldrh	r3, [r3]
 1045 0044 9BB2     		uxth	r3, r3
 1046 0046 5B42     		negs	r3, r3
 1047 0048 9BB2     		uxth	r3, r3
 1048 004a 0748     		ldr	r0, .L59+4
 1049 004c 0121     		movs	r1, #1
 1050 004e 1A46     		mov	r2, r3
 1051 0050 FFF7FEFF 		bl	pwm_lld_enable_channel
 1052              	.L58:
 1053              	.LBB48:
 1054              		.loc 8 27 0
 1055 0054 FFF7FEFF 		bl	dbg_check_unlock_from_isr
 1056              	.LBB49:
 1057 0058 0023     		movs	r3, #0
 1058              	@ 27 "nodes/pid_node.cpp" 1
 1059 005a 83F31188 		msr     BASEPRI, r3
 1060              	@ 0 "" 2
ARM GAS  /tmp/ccWQ6gKG.s 			page 20


 1061              		.thumb
 1062              	.LBE49:
 1063              	.LBE48:
 1064              	.LBE45:
 1065              		.loc 8 28 0
 1066 005e 03B0     		add	sp, sp, #12
 1067              		.cfi_def_cfa_offset 4
 1068              		@ sp needed
 1069 0060 5DF804FB 		ldr	pc, [sp], #4
 1070              	.L60:
 1071              		.align	2
 1072              	.L59:
 1073 0064 00000000 		.word	pwm
 1074 0068 00000000 		.word	PWMD1
 1075              		.cfi_endproc
 1076              	.LFE602:
 1077              		.size	_ZL5pwmcbP9PWMDriver, .-_ZL5pwmcbP9PWMDriver
 1078 006c AFF30080 		.section	.data._ZL6pwmcfg,"aw",%progbits
 1079              		.align	2
 1080              		.type	_ZL6pwmcfg, %object
 1081              		.size	_ZL6pwmcfg, 52
 1082              	_ZL6pwmcfg:
 1083 0000 00512502 		.word	36000000
 1084 0004 0010     		.short	4096
 1085 0006 0000     		.space	2
 1086 0008 00000000 		.word	_ZL5pwmcbP9PWMDriver
 1087 000c 01000000 		.word	1
 1088 0010 00000000 		.word	0
 1089 0014 01000000 		.word	1
 1090 0018 00000000 		.word	0
 1091 001c 00000000 		.word	0
 1092 0020 00000000 		.word	0
 1093 0024 00000000 		.word	0
 1094 0028 00000000 		.word	0
 1095 002c 00000000 		.word	0
 1096 0030 00000000 		.word	0
 1097              		.global	speed_pid
 1098              		.section	.bss.speed_pid,"aw",%nobits
 1099              		.align	2
 1100              		.type	speed_pid, %object
 1101              		.size	speed_pid, 32
 1102              	speed_pid:
 1103 0000 00000000 		.space	32
 1103      00000000 
 1103      00000000 
 1103      00000000 
 1103      00000000 
 1104              		.section	.text._Z12enc_callbackRKN3r2p10EncoderMsgE,"ax",%progbits
 1105              		.align	2
 1106              		.p2align 4,,15
 1107              		.global	_Z12enc_callbackRKN3r2p10EncoderMsgE
 1108              		.thumb
 1109              		.thumb_func
 1110              		.type	_Z12enc_callbackRKN3r2p10EncoderMsgE, %function
 1111              	_Z12enc_callbackRKN3r2p10EncoderMsgE:
 1112              	.LFB603:
 1113              		.loc 8 43 0
ARM GAS  /tmp/ccWQ6gKG.s 			page 21


 1114              		.cfi_startproc
 1115              		@ args = 0, pretend = 0, frame = 8
 1116              		@ frame_needed = 0, uses_anonymous_args = 0
 1117 0000 00B5     		push	{lr}
 1118              		.cfi_def_cfa_offset 4
 1119              		.cfi_offset 14, -4
 1120 0002 83B0     		sub	sp, sp, #12
 1121              		.cfi_def_cfa_offset 16
 1122 0004 0190     		str	r0, [sp, #4]
 1123              	.LBB50:
 1124              		.loc 8 45 0
 1125 0006 019B     		ldr	r3, [sp, #4]
 1126 0008 D3F80230 		ldr	r3, [r3, #2]	@ unaligned
 1127 000c DFED237A 		flds	s15, .L65
 1128 0010 07EE103A 		fmsr	s14, r3
 1129 0014 67EE277A 		fmuls	s15, s14, s15
 1130 0018 2148     		ldr	r0, .L65+4
 1131 001a B0EE670A 		fcpys	s0, s15
 1132 001e FFF7FEFF 		bl	_ZN3PID6updateEf
 1133 0022 F0EE407A 		fcpys	s15, s0
 1134 0026 FDEEE77A 		ftosizs	s15, s15
 1135 002a CDED007A 		fsts	s15, [sp]	@ int
 1136 002e BDF80030 		ldrh	r3, [sp]	@ movhi
 1137 0032 9AB2     		uxth	r2, r3
 1138 0034 1B4B     		ldr	r3, .L65+8
 1139 0036 1A80     		strh	r2, [r3]	@ movhi
 1140              	.LBB51:
 1141              	.LBB52:
 1142              		.loc 8 47 0
 1143 0038 2023     		movs	r3, #32
 1144              	@ 47 "nodes/pid_node.cpp" 1
 1145 003a 83F31188 		msr     BASEPRI, r3
 1146              	@ 0 "" 2
 1147              		.thumb
 1148              	.LBE52:
 1149 003e FFF7FEFF 		bl	dbg_check_lock
 1150              	.LBE51:
 1151              		.loc 8 49 0
 1152 0042 184B     		ldr	r3, .L65+8
 1153 0044 1B88     		ldrh	r3, [r3]
 1154 0046 1BB2     		sxth	r3, r3
 1155 0048 002B     		cmp	r3, #0
 1156 004a 0DDD     		ble	.L62
 1157              		.loc 8 50 0
 1158 004c 154B     		ldr	r3, .L65+8
 1159 004e 1B88     		ldrh	r3, [r3]
 1160 0050 9BB2     		uxth	r3, r3
 1161 0052 1548     		ldr	r0, .L65+12
 1162 0054 0121     		movs	r1, #1
 1163 0056 1A46     		mov	r2, r3
 1164 0058 FFF7FEFF 		bl	pwm_lld_enable_channel
 1165              		.loc 8 51 0
 1166 005c 1248     		ldr	r0, .L65+12
 1167 005e 0021     		movs	r1, #0
 1168 0060 0022     		movs	r2, #0
 1169 0062 FFF7FEFF 		bl	pwm_lld_enable_channel
 1170 0066 0EE0     		b	.L63
ARM GAS  /tmp/ccWQ6gKG.s 			page 22


 1171              	.L62:
 1172              		.loc 8 53 0
 1173 0068 0F48     		ldr	r0, .L65+12
 1174 006a 0121     		movs	r1, #1
 1175 006c 0022     		movs	r2, #0
 1176 006e FFF7FEFF 		bl	pwm_lld_enable_channel
 1177              		.loc 8 54 0
 1178 0072 0C4B     		ldr	r3, .L65+8
 1179 0074 1B88     		ldrh	r3, [r3]
 1180 0076 9BB2     		uxth	r3, r3
 1181 0078 5B42     		negs	r3, r3
 1182 007a 9BB2     		uxth	r3, r3
 1183 007c 0A48     		ldr	r0, .L65+12
 1184 007e 0021     		movs	r1, #0
 1185 0080 1A46     		mov	r2, r3
 1186 0082 FFF7FEFF 		bl	pwm_lld_enable_channel
 1187              	.L63:
 1188              	.LBB53:
 1189              		.loc 8 56 0
 1190 0086 FFF7FEFF 		bl	dbg_check_unlock
 1191              	.LBB54:
 1192 008a 0023     		movs	r3, #0
 1193              	@ 56 "nodes/pid_node.cpp" 1
 1194 008c 83F31188 		msr     BASEPRI, r3
 1195              	@ 0 "" 2
 1196              		.thumb
 1197              	.LBE54:
 1198              	.LBE53:
 1199              		.loc 8 58 0
 1200 0090 0123     		movs	r3, #1
 1201              	.LBE50:
 1202              		.loc 8 59 0
 1203 0092 1846     		mov	r0, r3
 1204 0094 03B0     		add	sp, sp, #12
 1205              		.cfi_def_cfa_offset 4
 1206              		@ sp needed
 1207 0096 5DF804FB 		ldr	pc, [sp], #4
 1208              	.L66:
 1209 009a 00BF     		.align	2
 1210              	.L65:
 1211 009c 00004842 		.word	1112014848
 1212 00a0 00000000 		.word	speed_pid
 1213 00a4 00000000 		.word	pwm
 1214 00a8 00000000 		.word	PWMD1
 1215              		.cfi_endproc
 1216              	.LFE603:
 1217              		.size	_Z12enc_callbackRKN3r2p10EncoderMsgE, .-_Z12enc_callbackRKN3r2p10EncoderMsgE
 1218 00ac AFF30080 		.section	.rodata
 1219 000d 000000   		.align	2
 1220              	.LC1:
 1221 0010 70696400 		.ascii	"pid\000"
 1222              		.align	2
 1223              	.LC2:
 1224 0014 73706565 		.ascii	"speed3\000"
 1224      643300
 1225 001b 00       		.align	2
 1226              	.LC3:
ARM GAS  /tmp/ccWQ6gKG.s 			page 23


 1227 001c 70696463 		.ascii	"pidcfg\000"
 1227      666700
 1228 0023 00       		.section	.text._Z8pid_nodePv,"ax",%progbits
 1229              		.align	2
 1230              		.p2align 4,,15
 1231              		.global	_Z8pid_nodePv
 1232              		.thumb
 1233              		.thumb_func
 1234              		.type	_Z8pid_nodePv, %function
 1235              	_Z8pid_nodePv:
 1236              	.LFB604:
 1237              		.loc 8 61 0
 1238              		.cfi_startproc
 1239              		@ args = 0, pretend = 0, frame = 480
 1240              		@ frame_needed = 0, uses_anonymous_args = 0
 1241 0000 00B5     		push	{lr}
 1242              		.cfi_def_cfa_offset 4
 1243              		.cfi_offset 14, -4
 1244 0002 F9B0     		sub	sp, sp, #484
 1245              		.cfi_def_cfa_offset 488
 1246 0004 01AB     		add	r3, sp, #4
 1247 0006 1860     		str	r0, [r3]
 1248              	.LBB55:
 1249              		.loc 8 62 0
 1250 0008 01AB     		add	r3, sp, #4
 1251 000a 1B68     		ldr	r3, [r3]
 1252 000c 7793     		str	r3, [sp, #476]
 1253              		.loc 8 63 0
 1254 000e 779B     		ldr	r3, [sp, #476]
 1255 0010 0C33     		adds	r3, r3, #12
 1256 0012 7693     		str	r3, [sp, #472]
 1257              		.loc 8 64 0
 1258 0014 779B     		ldr	r3, [sp, #476]
 1259 0016 1B68     		ldr	r3, [r3]
 1260 0018 6AAA     		add	r2, sp, #424
 1261 001a 1046     		mov	r0, r2
 1262 001c 1946     		mov	r1, r3
 1263 001e 0122     		movs	r2, #1
 1264 0020 FFF7FEFF 		bl	_ZN3r2p4NodeC1EPKcb
 1265              		.loc 8 65 0
 1266 0024 1DAB     		add	r3, sp, #116
 1267 0026 1846     		mov	r0, r3
 1268 0028 0021     		movs	r1, #0
 1269 002a FFF7FEFF 		bl	_ZN3r2p10SubscriberINS_9Speed3MsgELj5EEC1EPFbRKS1_E
 1270              		.loc 8 66 0
 1271 002e 02AB     		add	r3, sp, #8
 1272 0030 1846     		mov	r0, r3
 1273 0032 6E49     		ldr	r1, .L73
 1274 0034 FFF7FEFF 		bl	_ZN3r2p10SubscriberINS_10EncoderMsgELj5EEC1EPFbRKS1_E
 1275              		.loc 8 67 0
 1276 0038 42AB     		add	r3, sp, #264
 1277 003a 1846     		mov	r0, r3
 1278 003c 0021     		movs	r1, #0
 1279 003e FFF7FEFF 		bl	_ZN3r2p10SubscriberINS_9PIDCfgMsgELj5EEC1EPFbRKS1_E
 1280              		.loc 8 70 0
 1281 0042 67AB     		add	r3, sp, #412
 1282 0044 1846     		mov	r0, r3
ARM GAS  /tmp/ccWQ6gKG.s 			page 24


 1283 0046 0021     		movs	r1, #0
 1284 0048 FFF7FEFF 		bl	_ZN3r2p4TimeC1IiEET_
 1285              		.loc 8 73 0
 1286 004c 684B     		ldr	r3, .L73+4
 1287 004e 9B69     		ldr	r3, [r3, #24]
 1288 0050 684A     		ldr	r2, .L73+8
 1289 0052 9A61     		str	r2, [r3, #24]
 1290              		.loc 8 75 0
 1291 0054 769B     		ldr	r3, [sp, #472]
 1292 0056 93ED006A 		flds	s12, [r3]
 1293 005a 769B     		ldr	r3, [sp, #472]
 1294 005c D3ED016A 		flds	s13, [r3, #4]
 1295 0060 769B     		ldr	r3, [sp, #472]
 1296 0062 93ED027A 		flds	s14, [r3, #8]
 1297 0066 769B     		ldr	r3, [sp, #472]
 1298 0068 D3ED037A 		flds	s15, [r3, #12]
 1299 006c 6248     		ldr	r0, .L73+12
 1300 006e B0EE460A 		fcpys	s0, s12
 1301 0072 F0EE660A 		fcpys	s1, s13
 1302 0076 B0EE471A 		fcpys	s2, s14
 1303 007a F0EE671A 		fcpys	s3, s15
 1304 007e 9FED5F2A 		flds	s4, .L73+16
 1305 0082 DFED5F2A 		flds	s5, .L73+20
 1306 0086 FFF7FEFF 		bl	_ZN3PID6configEffffff
 1307              		.loc 8 78 0
 1308 008a 5E4B     		ldr	r3, .L73+24
 1309 008c 0122     		movs	r2, #1
 1310 008e 1A83     		strh	r2, [r3, #24]	@ movhi
 1311 0090 4FF09043 		mov	r3, #1207959552
 1312 0094 4FF40062 		mov	r2, #2048
 1313 0098 5A83     		strh	r2, [r3, #26]	@ movhi
 1314              		.loc 8 79 0
 1315 009a 4FF4FA70 		mov	r0, #500
 1316 009e FFF7FEFF 		bl	chThdSleep
 1317              		.loc 8 80 0
 1318 00a2 5948     		ldr	r0, .L73+28
 1319 00a4 5949     		ldr	r1, .L73+32
 1320 00a6 FFF7FEFF 		bl	pwmStart
 1321              		.loc 8 82 0
 1322 00aa 6AAA     		add	r2, sp, #424
 1323 00ac 1DAB     		add	r3, sp, #116
 1324 00ae 1046     		mov	r0, r2
 1325 00b0 1946     		mov	r1, r3
 1326 00b2 574A     		ldr	r2, .L73+36
 1327 00b4 FFF7FEFF 		bl	_ZN3r2p4Node9subscribeINS_9Speed3MsgELj5EEEbRNS_10SubscriberIT_XT0_EEEPKc
 1328              		.loc 8 83 0
 1329 00b8 779B     		ldr	r3, [sp, #476]
 1330 00ba 5B68     		ldr	r3, [r3, #4]
 1331 00bc 6AA9     		add	r1, sp, #424
 1332 00be 02AA     		add	r2, sp, #8
 1333 00c0 0846     		mov	r0, r1
 1334 00c2 1146     		mov	r1, r2
 1335 00c4 1A46     		mov	r2, r3
 1336 00c6 FFF7FEFF 		bl	_ZN3r2p4Node9subscribeINS_10EncoderMsgELj5EEEbRNS_10SubscriberIT_XT0_EEEPKc
 1337              		.loc 8 84 0
 1338 00ca 6AAA     		add	r2, sp, #424
 1339 00cc 42AB     		add	r3, sp, #264
ARM GAS  /tmp/ccWQ6gKG.s 			page 25


 1340 00ce 1046     		mov	r0, r2
 1341 00d0 1946     		mov	r1, r3
 1342 00d2 504A     		ldr	r2, .L73+40
 1343 00d4 FFF7FEFF 		bl	_ZN3r2p4Node9subscribeINS_9PIDCfgMsgELj5EEEbRNS_10SubscriberIT_XT0_EEEPKc
 1344              	.L72:
 1345              		.loc 8 88 0
 1346 00d8 42AA     		add	r2, sp, #264
 1347 00da 68AB     		add	r3, sp, #416
 1348 00dc 1046     		mov	r0, r2
 1349 00de 1946     		mov	r1, r3
 1350 00e0 FFF7FEFF 		bl	_ZN3r2p16SubscriberExtBufINS_9PIDCfgMsgEE5fetchERPS1_
 1351 00e4 0346     		mov	r3, r0
 1352 00e6 002B     		cmp	r3, #0
 1353 00e8 21D0     		beq	.L68
 1354              		.loc 8 89 0
 1355 00ea 689B     		ldr	r3, [sp, #416]
 1356 00ec D3F80210 		ldr	r1, [r3, #2]	@ unaligned
 1357 00f0 0B46     		mov	r3, r1
 1358 00f2 1946     		mov	r1, r3	@ float
 1359 00f4 689B     		ldr	r3, [sp, #416]
 1360 00f6 D3F80620 		ldr	r2, [r3, #6]	@ unaligned
 1361 00fa 1346     		mov	r3, r2
 1362 00fc 1A46     		mov	r2, r3	@ float
 1363 00fe 689B     		ldr	r3, [sp, #416]
 1364 0100 D3F80A30 		ldr	r3, [r3, #10]	@ unaligned
 1365 0104 3C48     		ldr	r0, .L73+12
 1366 0106 00EE101A 		fmsr	s0, r1
 1367 010a 00EE902A 		fmsr	s1, r2
 1368 010e 01EE103A 		fmsr	s2, r3
 1369 0112 DFED411A 		flds	s3, .L73+44
 1370 0116 9FED392A 		flds	s4, .L73+16
 1371 011a DFED392A 		flds	s5, .L73+20
 1372 011e FFF7FEFF 		bl	_ZN3PID6configEffffff
 1373              		.loc 8 90 0
 1374 0122 689B     		ldr	r3, [sp, #416]
 1375 0124 42AA     		add	r2, sp, #264
 1376 0126 1046     		mov	r0, r2
 1377 0128 1946     		mov	r1, r3
 1378 012a FFF7FEFF 		bl	_ZN3r2p16SubscriberExtBufINS_9PIDCfgMsgEE7releaseERS1_
 1379              	.L68:
 1380              		.loc 8 93 0
 1381 012e 71AB     		add	r3, sp, #452
 1382 0130 1846     		mov	r0, r3
 1383 0132 4FF47A71 		mov	r1, #1000
 1384 0136 FFF7FEFF 		bl	_ZN3r2p4Time2msEl
 1385 013a 6AAA     		add	r2, sp, #424
 1386 013c 71AB     		add	r3, sp, #452
 1387 013e 1046     		mov	r0, r2
 1388 0140 1946     		mov	r1, r3
 1389 0142 FFF7FEFF 		bl	_ZN3r2p4Node4spinERKNS_4TimeE
 1390 0146 0346     		mov	r3, r0
 1391 0148 002B     		cmp	r3, #0
 1392 014a 46D0     		beq	.L69
 1393              		.loc 8 95 0
 1394 014c 1DAA     		add	r2, sp, #116
 1395 014e 69AB     		add	r3, sp, #420
 1396 0150 1046     		mov	r0, r2
ARM GAS  /tmp/ccWQ6gKG.s 			page 26


 1397 0152 1946     		mov	r1, r3
 1398 0154 FFF7FEFF 		bl	_ZN3r2p16SubscriberExtBufINS_9Speed3MsgEE5fetchERPS1_
 1399 0158 0346     		mov	r3, r0
 1400 015a 002B     		cmp	r3, #0
 1401 015c 1CD0     		beq	.L70
 1402              		.loc 8 96 0
 1403 015e 699A     		ldr	r2, [sp, #420]
 1404 0160 779B     		ldr	r3, [sp, #476]
 1405 0162 1B7A     		ldrb	r3, [r3, #8]	@ zero_extendqisi2
 1406 0164 9B00     		lsls	r3, r3, #2
 1407 0166 1344     		add	r3, r3, r2
 1408 0168 D3F80230 		ldr	r3, [r3, #2]	@ unaligned
 1409 016c 2248     		ldr	r0, .L73+12
 1410 016e 00EE103A 		fmsr	s0, r3
 1411 0172 FFF7FEFF 		bl	_ZN3PID3setEf
 1412              		.loc 8 97 0
 1413 0176 72AB     		add	r3, sp, #456
 1414 0178 1846     		mov	r0, r3
 1415 017a FFF7FEFF 		bl	_ZN3r2p4Time3nowEv
 1416 017e 67AA     		add	r2, sp, #412
 1417 0180 72AB     		add	r3, sp, #456
 1418 0182 1046     		mov	r0, r2
 1419 0184 1946     		mov	r1, r3
 1420 0186 FFF7FEFF 		bl	_ZN3r2p4TimeaSERKS0_
 1421              		.loc 8 98 0
 1422 018a 699B     		ldr	r3, [sp, #420]
 1423 018c 1DAA     		add	r2, sp, #116
 1424 018e 1046     		mov	r0, r2
 1425 0190 1946     		mov	r1, r3
 1426 0192 FFF7FEFF 		bl	_ZN3r2p16SubscriberExtBufINS_9Speed3MsgEE7releaseERS1_
 1427 0196 9FE7     		b	.L72
 1428              	.L70:
 1429              		.loc 8 99 0
 1430 0198 74AB     		add	r3, sp, #464
 1431 019a 1846     		mov	r0, r3
 1432 019c FFF7FEFF 		bl	_ZN3r2p4Time3nowEv
 1433 01a0 73A9     		add	r1, sp, #460
 1434 01a2 74AA     		add	r2, sp, #464
 1435 01a4 67AB     		add	r3, sp, #412
 1436 01a6 0846     		mov	r0, r1
 1437 01a8 1146     		mov	r1, r2
 1438 01aa 1A46     		mov	r2, r3
 1439 01ac FFF7FEFF 		bl	_ZN3r2pmiERKNS_4TimeES2_
 1440 01b0 75AB     		add	r3, sp, #468
 1441 01b2 1846     		mov	r0, r3
 1442 01b4 4FF47A71 		mov	r1, #1000
 1443 01b8 FFF7FEFF 		bl	_ZN3r2p4Time2msEl
 1444 01bc 73AA     		add	r2, sp, #460
 1445 01be 75AB     		add	r3, sp, #468
 1446 01c0 1046     		mov	r0, r2
 1447 01c2 1946     		mov	r1, r3
 1448 01c4 FFF7FEFF 		bl	_ZN3r2pgtERKNS_4TimeES2_
 1449 01c8 0346     		mov	r3, r0
 1450 01ca 002B     		cmp	r3, #0
 1451 01cc 84D0     		beq	.L72
 1452              		.loc 8 101 0
 1453 01ce 0A48     		ldr	r0, .L73+12
ARM GAS  /tmp/ccWQ6gKG.s 			page 27


 1454 01d0 9FED120A 		flds	s0, .L73+48
 1455 01d4 FFF7FEFF 		bl	_ZN3PID3setEf
 1456 01d8 7EE7     		b	.L72
 1457              	.L69:
 1458              		.loc 8 105 0
 1459 01da 0B48     		ldr	r0, .L73+28
 1460 01dc 0021     		movs	r1, #0
 1461 01de FFF7FEFF 		bl	pwm_lld_disable_channel
 1462              		.loc 8 106 0
 1463 01e2 0948     		ldr	r0, .L73+28
 1464 01e4 0121     		movs	r1, #1
 1465 01e6 FFF7FEFF 		bl	pwm_lld_disable_channel
 1466 01ea 75E7     		b	.L72
 1467              	.L74:
 1468              		.align	2
 1469              	.L73:
 1470 01ec 00000000 		.word	_Z12enc_callbackRKN3r2p10EncoderMsgE
 1471 01f0 00000000 		.word	rlist
 1472 01f4 10000000 		.word	.LC1
 1473 01f8 00000000 		.word	speed_pid
 1474 01fc 00F07FC5 		.word	-981471232
 1475 0200 00F07F45 		.word	1166012416
 1476 0204 00040048 		.word	1207960576
 1477 0208 00000000 		.word	PWMD1
 1478 020c 00000000 		.word	_ZL6pwmcfg
 1479 0210 14000000 		.word	.LC2
 1480 0214 1C000000 		.word	.LC3
 1481 0218 0AD7A33C 		.word	1017370378
 1482 021c 00000000 		.word	0
 1483              	.LBE55:
 1484              		.cfi_endproc
 1485              	.LFE604:
 1486              		.size	_Z8pid_nodePv, .-_Z8pid_nodePv
 1487              		.section	.text._ZN3r2p4TimeC2IlEET_,"axG",%progbits,_ZN3r2p4TimeC5IlEET_,comdat
 1488              		.align	2
 1489              		.p2align 4,,15
 1490              		.weak	_ZN3r2p4TimeC2IlEET_
 1491              		.thumb
 1492              		.thumb_func
 1493              		.type	_ZN3r2p4TimeC2IlEET_, %function
 1494              	_ZN3r2p4TimeC2IlEET_:
 1495              	.LFB606:
 1496              		.loc 1 159 0
 1497              		.cfi_startproc
 1498              		@ args = 0, pretend = 0, frame = 8
 1499              		@ frame_needed = 0, uses_anonymous_args = 0
 1500              		@ link register save eliminated.
 1501 0000 82B0     		sub	sp, sp, #8
 1502              		.cfi_def_cfa_offset 8
 1503 0002 0190     		str	r0, [sp, #4]
 1504 0004 0091     		str	r1, [sp]
 1505              	.LBB56:
 1506              		.loc 1 161 0
 1507 0006 019B     		ldr	r3, [sp, #4]
 1508 0008 009A     		ldr	r2, [sp]
 1509 000a 1A60     		str	r2, [r3]
 1510              	.LBE56:
ARM GAS  /tmp/ccWQ6gKG.s 			page 28


 1511              		.loc 1 162 0
 1512 000c 019B     		ldr	r3, [sp, #4]
 1513 000e 1846     		mov	r0, r3
 1514 0010 02B0     		add	sp, sp, #8
 1515              		.cfi_def_cfa_offset 0
 1516              		@ sp needed
 1517 0012 7047     		bx	lr
 1518              		.cfi_endproc
 1519              	.LFE606:
 1520              		.size	_ZN3r2p4TimeC2IlEET_, .-_ZN3r2p4TimeC2IlEET_
 1521              		.weak	_ZN3r2p4TimeC1IlEET_
 1522              		.thumb_set _ZN3r2p4TimeC1IlEET_,_ZN3r2p4TimeC2IlEET_
 1523 0014 AFF30080 		.section	.text._ZN3r2p4TimeC2IiEET_,"axG",%progbits,_ZN3r2p4TimeC5IiEET_,comdat
 1523      AFF30080 
 1523      AFF30080 
 1524              		.align	2
 1525              		.p2align 4,,15
 1526              		.weak	_ZN3r2p4TimeC2IiEET_
 1527              		.thumb
 1528              		.thumb_func
 1529              		.type	_ZN3r2p4TimeC2IiEET_, %function
 1530              	_ZN3r2p4TimeC2IiEET_:
 1531              	.LFB612:
 1532              		.loc 1 159 0
 1533              		.cfi_startproc
 1534              		@ args = 0, pretend = 0, frame = 8
 1535              		@ frame_needed = 0, uses_anonymous_args = 0
 1536              		@ link register save eliminated.
 1537 0000 82B0     		sub	sp, sp, #8
 1538              		.cfi_def_cfa_offset 8
 1539 0002 0190     		str	r0, [sp, #4]
 1540 0004 0091     		str	r1, [sp]
 1541              	.LBB57:
 1542              		.loc 1 161 0
 1543 0006 019B     		ldr	r3, [sp, #4]
 1544 0008 009A     		ldr	r2, [sp]
 1545 000a 1A60     		str	r2, [r3]
 1546              	.LBE57:
 1547              		.loc 1 162 0
 1548 000c 019B     		ldr	r3, [sp, #4]
 1549 000e 1846     		mov	r0, r3
 1550 0010 02B0     		add	sp, sp, #8
 1551              		.cfi_def_cfa_offset 0
 1552              		@ sp needed
 1553 0012 7047     		bx	lr
 1554              		.cfi_endproc
 1555              	.LFE612:
 1556              		.size	_ZN3r2p4TimeC2IiEET_, .-_ZN3r2p4TimeC2IiEET_
 1557              		.weak	_ZN3r2p4TimeC1IiEET_
 1558              		.thumb_set _ZN3r2p4TimeC1IiEET_,_ZN3r2p4TimeC2IiEET_
 1559 0014 AFF30080 		.section	.text._ZNK3r2p10ArrayQueueIPNS_7MessageEE10get_lengthEv,"axG",%progbits,_ZNK3r2p10ArrayQu
 1559      AFF30080 
 1559      AFF30080 
 1560              		.align	2
 1561              		.p2align 4,,15
 1562              		.weak	_ZNK3r2p10ArrayQueueIPNS_7MessageEE10get_lengthEv
 1563              		.thumb
ARM GAS  /tmp/ccWQ6gKG.s 			page 29


 1564              		.thumb_func
 1565              		.type	_ZNK3r2p10ArrayQueueIPNS_7MessageEE10get_lengthEv, %function
 1566              	_ZNK3r2p10ArrayQueueIPNS_7MessageEE10get_lengthEv:
 1567              	.LFB614:
 1568              		.file 9 "/home/denny/r2p-sdk/core/Middleware/include/r2p/ArrayQueue.hpp"
 1569              		.loc 9 81 0
 1570              		.cfi_startproc
 1571              		@ args = 0, pretend = 0, frame = 8
 1572              		@ frame_needed = 0, uses_anonymous_args = 0
 1573              		@ link register save eliminated.
 1574 0000 82B0     		sub	sp, sp, #8
 1575              		.cfi_def_cfa_offset 8
 1576 0002 0190     		str	r0, [sp, #4]
 1577              		.loc 9 83 0
 1578 0004 019B     		ldr	r3, [sp, #4]
 1579 0006 5B68     		ldr	r3, [r3, #4]
 1580              		.loc 9 84 0
 1581 0008 1846     		mov	r0, r3
 1582 000a 02B0     		add	sp, sp, #8
 1583              		.cfi_def_cfa_offset 0
 1584              		@ sp needed
 1585 000c 7047     		bx	lr
 1586              		.cfi_endproc
 1587              	.LFE614:
 1588              		.size	_ZNK3r2p10ArrayQueueIPNS_7MessageEE10get_lengthEv, .-_ZNK3r2p10ArrayQueueIPNS_7MessageEE10ge
 1589 000e 00BF     		.section	.text._ZN3r2p10ArrayQueueIPNS_7MessageEE12fetch_unsafeERS2_,"axG",%progbits,_ZN3r2p10Arra
 1590              		.align	2
 1591              		.p2align 4,,15
 1592              		.weak	_ZN3r2p10ArrayQueueIPNS_7MessageEE12fetch_unsafeERS2_
 1593              		.thumb
 1594              		.thumb_func
 1595              		.type	_ZN3r2p10ArrayQueueIPNS_7MessageEE12fetch_unsafeERS2_, %function
 1596              	_ZN3r2p10ArrayQueueIPNS_7MessageEE12fetch_unsafeERS2_:
 1597              	.LFB615:
 1598              		.loc 9 52 0
 1599              		.cfi_startproc
 1600              		@ args = 0, pretend = 0, frame = 8
 1601              		@ frame_needed = 0, uses_anonymous_args = 0
 1602              		@ link register save eliminated.
 1603 0000 82B0     		sub	sp, sp, #8
 1604              		.cfi_def_cfa_offset 8
 1605 0002 0190     		str	r0, [sp, #4]
 1606 0004 0091     		str	r1, [sp]
 1607              		.loc 9 54 0
 1608 0006 019B     		ldr	r3, [sp, #4]
 1609 0008 9B68     		ldr	r3, [r3, #8]
 1610 000a 002B     		cmp	r3, #0
 1611 000c 23D0     		beq	.L84
 1612              		.loc 9 55 0
 1613 000e 019B     		ldr	r3, [sp, #4]
 1614 0010 9B68     		ldr	r3, [r3, #8]
 1615 0012 5A1E     		subs	r2, r3, #1
 1616 0014 019B     		ldr	r3, [sp, #4]
 1617 0016 9A60     		str	r2, [r3, #8]
 1618              		.loc 9 56 0
 1619 0018 019B     		ldr	r3, [sp, #4]
 1620 001a DB68     		ldr	r3, [r3, #12]
ARM GAS  /tmp/ccWQ6gKG.s 			page 30


 1621 001c 1A68     		ldr	r2, [r3]
 1622 001e 009B     		ldr	r3, [sp]
 1623 0020 1A60     		str	r2, [r3]
 1624              		.loc 9 57 0
 1625 0022 019B     		ldr	r3, [sp, #4]
 1626 0024 DB68     		ldr	r3, [r3, #12]
 1627 0026 1A1D     		adds	r2, r3, #4
 1628 0028 019B     		ldr	r3, [sp, #4]
 1629 002a DA60     		str	r2, [r3, #12]
 1630 002c 019B     		ldr	r3, [sp, #4]
 1631 002e DA68     		ldr	r2, [r3, #12]
 1632 0030 019B     		ldr	r3, [sp, #4]
 1633 0032 1968     		ldr	r1, [r3]
 1634 0034 019B     		ldr	r3, [sp, #4]
 1635 0036 5B68     		ldr	r3, [r3, #4]
 1636 0038 9B00     		lsls	r3, r3, #2
 1637 003a 0B44     		add	r3, r3, r1
 1638 003c 9A42     		cmp	r2, r3
 1639 003e 2CBF     		ite	cs
 1640 0040 0123     		movcs	r3, #1
 1641 0042 0023     		movcc	r3, #0
 1642 0044 DBB2     		uxtb	r3, r3
 1643 0046 002B     		cmp	r3, #0
 1644 0048 03D0     		beq	.L85
 1645              		.loc 9 58 0
 1646 004a 019B     		ldr	r3, [sp, #4]
 1647 004c 1A68     		ldr	r2, [r3]
 1648 004e 019B     		ldr	r3, [sp, #4]
 1649 0050 DA60     		str	r2, [r3, #12]
 1650              	.L85:
 1651              		.loc 9 60 0
 1652 0052 0123     		movs	r3, #1
 1653 0054 00E0     		b	.L86
 1654              	.L84:
 1655              		.loc 9 62 0
 1656 0056 0023     		movs	r3, #0
 1657              	.L86:
 1658              		.loc 9 63 0
 1659 0058 1846     		mov	r0, r3
 1660 005a 02B0     		add	sp, sp, #8
 1661              		.cfi_def_cfa_offset 0
 1662              		@ sp needed
 1663 005c 7047     		bx	lr
 1664              		.cfi_endproc
 1665              	.LFE615:
 1666              		.size	_ZN3r2p10ArrayQueueIPNS_7MessageEE12fetch_unsafeERS2_, .-_ZN3r2p10ArrayQueueIPNS_7MessageEE1
 1667 005e 00BF     		.section	.text._ZN3r2p10ArrayQueueIPNS_7MessageEE11post_unsafeES2_,"axG",%progbits,_ZN3r2p10ArrayQ
 1668              		.align	2
 1669              		.p2align 4,,15
 1670              		.weak	_ZN3r2p10ArrayQueueIPNS_7MessageEE11post_unsafeES2_
 1671              		.thumb
 1672              		.thumb_func
 1673              		.type	_ZN3r2p10ArrayQueueIPNS_7MessageEE11post_unsafeES2_, %function
 1674              	_ZN3r2p10ArrayQueueIPNS_7MessageEE11post_unsafeES2_:
 1675              	.LFB616:
 1676              		.loc 9 37 0
 1677              		.cfi_startproc
ARM GAS  /tmp/ccWQ6gKG.s 			page 31


 1678              		@ args = 0, pretend = 0, frame = 8
 1679              		@ frame_needed = 0, uses_anonymous_args = 0
 1680              		@ link register save eliminated.
 1681 0000 82B0     		sub	sp, sp, #8
 1682              		.cfi_def_cfa_offset 8
 1683 0002 0190     		str	r0, [sp, #4]
 1684 0004 0091     		str	r1, [sp]
 1685              		.loc 9 39 0
 1686 0006 019B     		ldr	r3, [sp, #4]
 1687 0008 9A68     		ldr	r2, [r3, #8]
 1688 000a 019B     		ldr	r3, [sp, #4]
 1689 000c 5B68     		ldr	r3, [r3, #4]
 1690 000e 9A42     		cmp	r2, r3
 1691 0010 22D2     		bcs	.L88
 1692              		.loc 9 40 0
 1693 0012 019B     		ldr	r3, [sp, #4]
 1694 0014 9B68     		ldr	r3, [r3, #8]
 1695 0016 5A1C     		adds	r2, r3, #1
 1696 0018 019B     		ldr	r3, [sp, #4]
 1697 001a 9A60     		str	r2, [r3, #8]
 1698              		.loc 9 41 0
 1699 001c 019B     		ldr	r3, [sp, #4]
 1700 001e 1B69     		ldr	r3, [r3, #16]
 1701 0020 009A     		ldr	r2, [sp]
 1702 0022 1A60     		str	r2, [r3]
 1703              		.loc 9 42 0
 1704 0024 019B     		ldr	r3, [sp, #4]
 1705 0026 1B69     		ldr	r3, [r3, #16]
 1706 0028 1A1D     		adds	r2, r3, #4
 1707 002a 019B     		ldr	r3, [sp, #4]
 1708 002c 1A61     		str	r2, [r3, #16]
 1709 002e 019B     		ldr	r3, [sp, #4]
 1710 0030 1A69     		ldr	r2, [r3, #16]
 1711 0032 019B     		ldr	r3, [sp, #4]
 1712 0034 1968     		ldr	r1, [r3]
 1713 0036 019B     		ldr	r3, [sp, #4]
 1714 0038 5B68     		ldr	r3, [r3, #4]
 1715 003a 9B00     		lsls	r3, r3, #2
 1716 003c 0B44     		add	r3, r3, r1
 1717 003e 9A42     		cmp	r2, r3
 1718 0040 2CBF     		ite	cs
 1719 0042 0123     		movcs	r3, #1
 1720 0044 0023     		movcc	r3, #0
 1721 0046 DBB2     		uxtb	r3, r3
 1722 0048 002B     		cmp	r3, #0
 1723 004a 03D0     		beq	.L89
 1724              		.loc 9 43 0
 1725 004c 019B     		ldr	r3, [sp, #4]
 1726 004e 1A68     		ldr	r2, [r3]
 1727 0050 019B     		ldr	r3, [sp, #4]
 1728 0052 1A61     		str	r2, [r3, #16]
 1729              	.L89:
 1730              		.loc 9 45 0
 1731 0054 0123     		movs	r3, #1
 1732 0056 00E0     		b	.L90
 1733              	.L88:
 1734              		.loc 9 47 0
ARM GAS  /tmp/ccWQ6gKG.s 			page 32


 1735 0058 0023     		movs	r3, #0
 1736              	.L90:
 1737              		.loc 9 48 0
 1738 005a 1846     		mov	r0, r3
 1739 005c 02B0     		add	sp, sp, #8
 1740              		.cfi_def_cfa_offset 0
 1741              		@ sp needed
 1742 005e 7047     		bx	lr
 1743              		.cfi_endproc
 1744              	.LFE616:
 1745              		.size	_ZN3r2p10ArrayQueueIPNS_7MessageEE11post_unsafeES2_, .-_ZN3r2p10ArrayQueueIPNS_7MessageEE11p
 1746              		.section	.text._ZN3r2p9Speed3MsgC2Ev,"axG",%progbits,_ZN3r2p9Speed3MsgC5Ev,comdat
 1747              		.align	2
 1748              		.p2align 4,,15
 1749              		.weak	_ZN3r2p9Speed3MsgC2Ev
 1750              		.thumb
 1751              		.thumb_func
 1752              		.type	_ZN3r2p9Speed3MsgC2Ev, %function
 1753              	_ZN3r2p9Speed3MsgC2Ev:
 1754              	.LFB628:
 1755              		.file 10 "/home/denny/r2p-sdk/core/Middleware/include/r2p/msg/motor.hpp"
 1756              		.loc 10 35 0
 1757              		.cfi_startproc
 1758              		@ args = 0, pretend = 0, frame = 8
 1759              		@ frame_needed = 0, uses_anonymous_args = 0
 1760 0000 00B5     		push	{lr}
 1761              		.cfi_def_cfa_offset 4
 1762              		.cfi_offset 14, -4
 1763 0002 83B0     		sub	sp, sp, #12
 1764              		.cfi_def_cfa_offset 16
 1765 0004 0190     		str	r0, [sp, #4]
 1766              	.LBB58:
 1767              		.loc 10 35 0
 1768 0006 019B     		ldr	r3, [sp, #4]
 1769 0008 1846     		mov	r0, r3
 1770 000a FFF7FEFF 		bl	_ZN3r2p7MessageC2Ev
 1771              	.LBE58:
 1772 000e 019B     		ldr	r3, [sp, #4]
 1773 0010 1846     		mov	r0, r3
 1774 0012 03B0     		add	sp, sp, #12
 1775              		.cfi_def_cfa_offset 4
 1776              		@ sp needed
 1777 0014 5DF804FB 		ldr	pc, [sp], #4
 1778              		.cfi_endproc
 1779              	.LFE628:
 1780              		.size	_ZN3r2p9Speed3MsgC2Ev, .-_ZN3r2p9Speed3MsgC2Ev
 1781              		.weak	_ZN3r2p9Speed3MsgC1Ev
 1782              		.thumb_set _ZN3r2p9Speed3MsgC1Ev,_ZN3r2p9Speed3MsgC2Ev
 1783 0018 AFF30080 		.section	.text._ZN3r2p10SubscriberINS_9Speed3MsgELj5EEC2EPFbRKS1_E,"axG",%progbits,_ZN3r2p10Subscr
 1783      AFF30080 
 1784              		.align	2
 1785              		.p2align 4,,15
 1786              		.weak	_ZN3r2p10SubscriberINS_9Speed3MsgELj5EEC2EPFbRKS1_E
 1787              		.thumb
 1788              		.thumb_func
 1789              		.type	_ZN3r2p10SubscriberINS_9Speed3MsgELj5EEC2EPFbRKS1_E, %function
 1790              	_ZN3r2p10SubscriberINS_9Speed3MsgELj5EEC2EPFbRKS1_E:
ARM GAS  /tmp/ccWQ6gKG.s 			page 33


 1791              	.LFB630:
 1792              		.file 11 "/home/denny/r2p-sdk/core/Middleware/include/r2p/Subscriber.hpp"
 1793              		.loc 11 31 0
 1794              		.cfi_startproc
 1795              		@ args = 0, pretend = 0, frame = 8
 1796              		@ frame_needed = 0, uses_anonymous_args = 0
 1797 0000 30B5     		push	{r4, r5, lr}
 1798              		.cfi_def_cfa_offset 12
 1799              		.cfi_offset 4, -12
 1800              		.cfi_offset 5, -8
 1801              		.cfi_offset 14, -4
 1802 0002 83B0     		sub	sp, sp, #12
 1803              		.cfi_def_cfa_offset 24
 1804 0004 0190     		str	r0, [sp, #4]
 1805 0006 0091     		str	r1, [sp]
 1806              	.LBB59:
 1807              		.loc 11 33 0
 1808 0008 019A     		ldr	r2, [sp, #4]
 1809 000a 019B     		ldr	r3, [sp, #4]
 1810 000c 8033     		adds	r3, r3, #128
 1811 000e 1046     		mov	r0, r2
 1812 0010 1946     		mov	r1, r3
 1813 0012 0522     		movs	r2, #5
 1814 0014 009B     		ldr	r3, [sp]
 1815 0016 FFF7FEFF 		bl	_ZN3r2p16SubscriberExtBufINS_9Speed3MsgEEC2EPPS1_jPFbRKS1_E
 1816 001a 019B     		ldr	r3, [sp, #4]
 1817 001c 094A     		ldr	r2, .L99
 1818 001e 1A60     		str	r2, [r3]
 1819 0020 019B     		ldr	r3, [sp, #4]
 1820 0022 3833     		adds	r3, r3, #56
 1821 0024 0424     		movs	r4, #4
 1822 0026 1D46     		mov	r5, r3
 1823 0028 04E0     		b	.L95
 1824              	.L96:
 1825              		.loc 11 33 0 is_stmt 0 discriminator 3
 1826 002a 2846     		mov	r0, r5
 1827 002c FFF7FEFF 		bl	_ZN3r2p9Speed3MsgC1Ev
 1828 0030 0E35     		adds	r5, r5, #14
 1829 0032 013C     		subs	r4, r4, #1
 1830              	.L95:
 1831              		.loc 11 33 0 discriminator 1
 1832 0034 B4F1FF3F 		cmp	r4, #-1
 1833 0038 F7D1     		bne	.L96
 1834              	.LBE59:
 1835              		.loc 11 34 0 is_stmt 1 discriminator 4
 1836 003a 019B     		ldr	r3, [sp, #4]
 1837 003c 1846     		mov	r0, r3
 1838 003e 03B0     		add	sp, sp, #12
 1839              		.cfi_def_cfa_offset 12
 1840              		@ sp needed
 1841 0040 30BD     		pop	{r4, r5, pc}
 1842              	.L100:
 1843 0042 00BF     		.align	2
 1844              	.L99:
 1845 0044 08000000 		.word	_ZTVN3r2p10SubscriberINS_9Speed3MsgELj5EEE+8
 1846              		.cfi_endproc
 1847              	.LFE630:
ARM GAS  /tmp/ccWQ6gKG.s 			page 34


 1848              		.size	_ZN3r2p10SubscriberINS_9Speed3MsgELj5EEC2EPFbRKS1_E, .-_ZN3r2p10SubscriberINS_9Speed3MsgELj5
 1849              		.weak	_ZN3r2p10SubscriberINS_9Speed3MsgELj5EEC1EPFbRKS1_E
 1850              		.thumb_set _ZN3r2p10SubscriberINS_9Speed3MsgELj5EEC1EPFbRKS1_E,_ZN3r2p10SubscriberINS_9Speed3MsgEL
 1851 0048 AFF30080 		.section	.text._ZN3r2p10SubscriberINS_9Speed3MsgELj5EED2Ev,"axG",%progbits,_ZN3r2p10SubscriberINS_
 1851      AFF30080 
 1852              		.align	2
 1853              		.p2align 4,,15
 1854              		.weak	_ZN3r2p10SubscriberINS_9Speed3MsgELj5EED2Ev
 1855              		.thumb
 1856              		.thumb_func
 1857              		.type	_ZN3r2p10SubscriberINS_9Speed3MsgELj5EED2Ev, %function
 1858              	_ZN3r2p10SubscriberINS_9Speed3MsgELj5EED2Ev:
 1859              	.LFB633:
 1860              		.loc 11 38 0
 1861              		.cfi_startproc
 1862              		@ args = 0, pretend = 0, frame = 8
 1863              		@ frame_needed = 0, uses_anonymous_args = 0
 1864 0000 00B5     		push	{lr}
 1865              		.cfi_def_cfa_offset 4
 1866              		.cfi_offset 14, -4
 1867 0002 83B0     		sub	sp, sp, #12
 1868              		.cfi_def_cfa_offset 16
 1869 0004 0190     		str	r0, [sp, #4]
 1870              	.LBB60:
 1871              		.loc 11 38 0
 1872 0006 019B     		ldr	r3, [sp, #4]
 1873 0008 084A     		ldr	r2, .L105
 1874 000a 1A60     		str	r2, [r3]
 1875 000c 019B     		ldr	r3, [sp, #4]
 1876 000e 1846     		mov	r0, r3
 1877 0010 FFF7FEFF 		bl	_ZN3r2p16SubscriberExtBufINS_9Speed3MsgEED2Ev
 1878              	.LBE60:
 1879 0014 0023     		movs	r3, #0
 1880 0016 002B     		cmp	r3, #0
 1881 0018 02D0     		beq	.L103
 1882              		.loc 11 38 0 is_stmt 0 discriminator 2
 1883 001a 0198     		ldr	r0, [sp, #4]
 1884 001c FFF7FEFF 		bl	_ZdlPv
 1885              	.L103:
 1886              		.loc 11 38 0 discriminator 4
 1887 0020 019B     		ldr	r3, [sp, #4]
 1888 0022 1846     		mov	r0, r3
 1889 0024 03B0     		add	sp, sp, #12
 1890              		.cfi_def_cfa_offset 4
 1891              		@ sp needed
 1892 0026 5DF804FB 		ldr	pc, [sp], #4
 1893              	.L106:
 1894 002a 00BF     		.align	2
 1895              	.L105:
 1896 002c 08000000 		.word	_ZTVN3r2p10SubscriberINS_9Speed3MsgELj5EEE+8
 1897              		.cfi_endproc
 1898              	.LFE633:
 1899              		.size	_ZN3r2p10SubscriberINS_9Speed3MsgELj5EED2Ev, .-_ZN3r2p10SubscriberINS_9Speed3MsgELj5EED2Ev
 1900              		.weak	_ZN3r2p10SubscriberINS_9Speed3MsgELj5EED1Ev
 1901              		.thumb_set _ZN3r2p10SubscriberINS_9Speed3MsgELj5EED1Ev,_ZN3r2p10SubscriberINS_9Speed3MsgELj5EED2Ev
 1902              		.section	.text._ZN3r2p10SubscriberINS_9Speed3MsgELj5EED0Ev,"axG",%progbits,_ZN3r2p10SubscriberINS_
 1903              		.align	2
ARM GAS  /tmp/ccWQ6gKG.s 			page 35


 1904              		.p2align 4,,15
 1905              		.weak	_ZN3r2p10SubscriberINS_9Speed3MsgELj5EED0Ev
 1906              		.thumb
 1907              		.thumb_func
 1908              		.type	_ZN3r2p10SubscriberINS_9Speed3MsgELj5EED0Ev, %function
 1909              	_ZN3r2p10SubscriberINS_9Speed3MsgELj5EED0Ev:
 1910              	.LFB635:
 1911              		.loc 11 38 0 is_stmt 1
 1912              		.cfi_startproc
 1913              		@ args = 0, pretend = 0, frame = 8
 1914              		@ frame_needed = 0, uses_anonymous_args = 0
 1915 0000 00B5     		push	{lr}
 1916              		.cfi_def_cfa_offset 4
 1917              		.cfi_offset 14, -4
 1918 0002 83B0     		sub	sp, sp, #12
 1919              		.cfi_def_cfa_offset 16
 1920 0004 0190     		str	r0, [sp, #4]
 1921              		.loc 11 38 0
 1922 0006 0198     		ldr	r0, [sp, #4]
 1923 0008 FFF7FEFF 		bl	_ZN3r2p10SubscriberINS_9Speed3MsgELj5EED1Ev
 1924 000c 0198     		ldr	r0, [sp, #4]
 1925 000e FFF7FEFF 		bl	_ZdlPv
 1926 0012 019B     		ldr	r3, [sp, #4]
 1927 0014 1846     		mov	r0, r3
 1928 0016 03B0     		add	sp, sp, #12
 1929              		.cfi_def_cfa_offset 4
 1930              		@ sp needed
 1931 0018 5DF804FB 		ldr	pc, [sp], #4
 1932              		.cfi_endproc
 1933              	.LFE635:
 1934              		.size	_ZN3r2p10SubscriberINS_9Speed3MsgELj5EED0Ev, .-_ZN3r2p10SubscriberINS_9Speed3MsgELj5EED0Ev
 1935 001c AFF30080 		.section	.text._ZN3r2p10EncoderMsgC2Ev,"axG",%progbits,_ZN3r2p10EncoderMsgC5Ev,comdat
 1936              		.align	2
 1937              		.p2align 4,,15
 1938              		.weak	_ZN3r2p10EncoderMsgC2Ev
 1939              		.thumb
 1940              		.thumb_func
 1941              		.type	_ZN3r2p10EncoderMsgC2Ev, %function
 1942              	_ZN3r2p10EncoderMsgC2Ev:
 1943              	.LFB638:
 1944              		.loc 10 51 0
 1945              		.cfi_startproc
 1946              		@ args = 0, pretend = 0, frame = 8
 1947              		@ frame_needed = 0, uses_anonymous_args = 0
 1948 0000 00B5     		push	{lr}
 1949              		.cfi_def_cfa_offset 4
 1950              		.cfi_offset 14, -4
 1951 0002 83B0     		sub	sp, sp, #12
 1952              		.cfi_def_cfa_offset 16
 1953 0004 0190     		str	r0, [sp, #4]
 1954              	.LBB61:
 1955              		.loc 10 51 0
 1956 0006 019B     		ldr	r3, [sp, #4]
 1957 0008 1846     		mov	r0, r3
 1958 000a FFF7FEFF 		bl	_ZN3r2p7MessageC2Ev
 1959              	.LBE61:
 1960 000e 019B     		ldr	r3, [sp, #4]
ARM GAS  /tmp/ccWQ6gKG.s 			page 36


 1961 0010 1846     		mov	r0, r3
 1962 0012 03B0     		add	sp, sp, #12
 1963              		.cfi_def_cfa_offset 4
 1964              		@ sp needed
 1965 0014 5DF804FB 		ldr	pc, [sp], #4
 1966              		.cfi_endproc
 1967              	.LFE638:
 1968              		.size	_ZN3r2p10EncoderMsgC2Ev, .-_ZN3r2p10EncoderMsgC2Ev
 1969              		.weak	_ZN3r2p10EncoderMsgC1Ev
 1970              		.thumb_set _ZN3r2p10EncoderMsgC1Ev,_ZN3r2p10EncoderMsgC2Ev
 1971 0018 AFF30080 		.section	.text._ZN3r2p10SubscriberINS_10EncoderMsgELj5EEC2EPFbRKS1_E,"axG",%progbits,_ZN3r2p10Subs
 1971      AFF30080 
 1972              		.align	2
 1973              		.p2align 4,,15
 1974              		.weak	_ZN3r2p10SubscriberINS_10EncoderMsgELj5EEC2EPFbRKS1_E
 1975              		.thumb
 1976              		.thumb_func
 1977              		.type	_ZN3r2p10SubscriberINS_10EncoderMsgELj5EEC2EPFbRKS1_E, %function
 1978              	_ZN3r2p10SubscriberINS_10EncoderMsgELj5EEC2EPFbRKS1_E:
 1979              	.LFB640:
 1980              		.loc 11 31 0
 1981              		.cfi_startproc
 1982              		@ args = 0, pretend = 0, frame = 8
 1983              		@ frame_needed = 0, uses_anonymous_args = 0
 1984 0000 30B5     		push	{r4, r5, lr}
 1985              		.cfi_def_cfa_offset 12
 1986              		.cfi_offset 4, -12
 1987              		.cfi_offset 5, -8
 1988              		.cfi_offset 14, -4
 1989 0002 83B0     		sub	sp, sp, #12
 1990              		.cfi_def_cfa_offset 24
 1991 0004 0190     		str	r0, [sp, #4]
 1992 0006 0091     		str	r1, [sp]
 1993              	.LBB62:
 1994              		.loc 11 33 0
 1995 0008 019A     		ldr	r2, [sp, #4]
 1996 000a 019B     		ldr	r3, [sp, #4]
 1997 000c 5833     		adds	r3, r3, #88
 1998 000e 1046     		mov	r0, r2
 1999 0010 1946     		mov	r1, r3
 2000 0012 0522     		movs	r2, #5
 2001 0014 009B     		ldr	r3, [sp]
 2002 0016 FFF7FEFF 		bl	_ZN3r2p16SubscriberExtBufINS_10EncoderMsgEEC2EPPS1_jPFbRKS1_E
 2003 001a 019B     		ldr	r3, [sp, #4]
 2004 001c 094A     		ldr	r2, .L118
 2005 001e 1A60     		str	r2, [r3]
 2006 0020 019B     		ldr	r3, [sp, #4]
 2007 0022 3833     		adds	r3, r3, #56
 2008 0024 0424     		movs	r4, #4
 2009 0026 1D46     		mov	r5, r3
 2010 0028 04E0     		b	.L114
 2011              	.L115:
 2012              		.loc 11 33 0 is_stmt 0 discriminator 3
 2013 002a 2846     		mov	r0, r5
 2014 002c FFF7FEFF 		bl	_ZN3r2p10EncoderMsgC1Ev
 2015 0030 0635     		adds	r5, r5, #6
 2016 0032 013C     		subs	r4, r4, #1
ARM GAS  /tmp/ccWQ6gKG.s 			page 37


 2017              	.L114:
 2018              		.loc 11 33 0 discriminator 1
 2019 0034 B4F1FF3F 		cmp	r4, #-1
 2020 0038 F7D1     		bne	.L115
 2021              	.LBE62:
 2022              		.loc 11 34 0 is_stmt 1 discriminator 4
 2023 003a 019B     		ldr	r3, [sp, #4]
 2024 003c 1846     		mov	r0, r3
 2025 003e 03B0     		add	sp, sp, #12
 2026              		.cfi_def_cfa_offset 12
 2027              		@ sp needed
 2028 0040 30BD     		pop	{r4, r5, pc}
 2029              	.L119:
 2030 0042 00BF     		.align	2
 2031              	.L118:
 2032 0044 08000000 		.word	_ZTVN3r2p10SubscriberINS_10EncoderMsgELj5EEE+8
 2033              		.cfi_endproc
 2034              	.LFE640:
 2035              		.size	_ZN3r2p10SubscriberINS_10EncoderMsgELj5EEC2EPFbRKS1_E, .-_ZN3r2p10SubscriberINS_10EncoderMsg
 2036              		.weak	_ZN3r2p10SubscriberINS_10EncoderMsgELj5EEC1EPFbRKS1_E
 2037              		.thumb_set _ZN3r2p10SubscriberINS_10EncoderMsgELj5EEC1EPFbRKS1_E,_ZN3r2p10SubscriberINS_10EncoderM
 2038 0048 AFF30080 		.section	.text._ZN3r2p10SubscriberINS_10EncoderMsgELj5EED2Ev,"axG",%progbits,_ZN3r2p10SubscriberIN
 2038      AFF30080 
 2039              		.align	2
 2040              		.p2align 4,,15
 2041              		.weak	_ZN3r2p10SubscriberINS_10EncoderMsgELj5EED2Ev
 2042              		.thumb
 2043              		.thumb_func
 2044              		.type	_ZN3r2p10SubscriberINS_10EncoderMsgELj5EED2Ev, %function
 2045              	_ZN3r2p10SubscriberINS_10EncoderMsgELj5EED2Ev:
 2046              	.LFB643:
 2047              		.loc 11 38 0
 2048              		.cfi_startproc
 2049              		@ args = 0, pretend = 0, frame = 8
 2050              		@ frame_needed = 0, uses_anonymous_args = 0
 2051 0000 00B5     		push	{lr}
 2052              		.cfi_def_cfa_offset 4
 2053              		.cfi_offset 14, -4
 2054 0002 83B0     		sub	sp, sp, #12
 2055              		.cfi_def_cfa_offset 16
 2056 0004 0190     		str	r0, [sp, #4]
 2057              	.LBB63:
 2058              		.loc 11 38 0
 2059 0006 019B     		ldr	r3, [sp, #4]
 2060 0008 084A     		ldr	r2, .L124
 2061 000a 1A60     		str	r2, [r3]
 2062 000c 019B     		ldr	r3, [sp, #4]
 2063 000e 1846     		mov	r0, r3
 2064 0010 FFF7FEFF 		bl	_ZN3r2p16SubscriberExtBufINS_10EncoderMsgEED2Ev
 2065              	.LBE63:
 2066 0014 0023     		movs	r3, #0
 2067 0016 002B     		cmp	r3, #0
 2068 0018 02D0     		beq	.L122
 2069              		.loc 11 38 0 is_stmt 0 discriminator 2
 2070 001a 0198     		ldr	r0, [sp, #4]
 2071 001c FFF7FEFF 		bl	_ZdlPv
 2072              	.L122:
ARM GAS  /tmp/ccWQ6gKG.s 			page 38


 2073              		.loc 11 38 0 discriminator 4
 2074 0020 019B     		ldr	r3, [sp, #4]
 2075 0022 1846     		mov	r0, r3
 2076 0024 03B0     		add	sp, sp, #12
 2077              		.cfi_def_cfa_offset 4
 2078              		@ sp needed
 2079 0026 5DF804FB 		ldr	pc, [sp], #4
 2080              	.L125:
 2081 002a 00BF     		.align	2
 2082              	.L124:
 2083 002c 08000000 		.word	_ZTVN3r2p10SubscriberINS_10EncoderMsgELj5EEE+8
 2084              		.cfi_endproc
 2085              	.LFE643:
 2086              		.size	_ZN3r2p10SubscriberINS_10EncoderMsgELj5EED2Ev, .-_ZN3r2p10SubscriberINS_10EncoderMsgELj5EED2
 2087              		.weak	_ZN3r2p10SubscriberINS_10EncoderMsgELj5EED1Ev
 2088              		.thumb_set _ZN3r2p10SubscriberINS_10EncoderMsgELj5EED1Ev,_ZN3r2p10SubscriberINS_10EncoderMsgELj5EE
 2089              		.section	.text._ZN3r2p10SubscriberINS_10EncoderMsgELj5EED0Ev,"axG",%progbits,_ZN3r2p10SubscriberIN
 2090              		.align	2
 2091              		.p2align 4,,15
 2092              		.weak	_ZN3r2p10SubscriberINS_10EncoderMsgELj5EED0Ev
 2093              		.thumb
 2094              		.thumb_func
 2095              		.type	_ZN3r2p10SubscriberINS_10EncoderMsgELj5EED0Ev, %function
 2096              	_ZN3r2p10SubscriberINS_10EncoderMsgELj5EED0Ev:
 2097              	.LFB645:
 2098              		.loc 11 38 0 is_stmt 1
 2099              		.cfi_startproc
 2100              		@ args = 0, pretend = 0, frame = 8
 2101              		@ frame_needed = 0, uses_anonymous_args = 0
 2102 0000 00B5     		push	{lr}
 2103              		.cfi_def_cfa_offset 4
 2104              		.cfi_offset 14, -4
 2105 0002 83B0     		sub	sp, sp, #12
 2106              		.cfi_def_cfa_offset 16
 2107 0004 0190     		str	r0, [sp, #4]
 2108              		.loc 11 38 0
 2109 0006 0198     		ldr	r0, [sp, #4]
 2110 0008 FFF7FEFF 		bl	_ZN3r2p10SubscriberINS_10EncoderMsgELj5EED1Ev
 2111 000c 0198     		ldr	r0, [sp, #4]
 2112 000e FFF7FEFF 		bl	_ZdlPv
 2113 0012 019B     		ldr	r3, [sp, #4]
 2114 0014 1846     		mov	r0, r3
 2115 0016 03B0     		add	sp, sp, #12
 2116              		.cfi_def_cfa_offset 4
 2117              		@ sp needed
 2118 0018 5DF804FB 		ldr	pc, [sp], #4
 2119              		.cfi_endproc
 2120              	.LFE645:
 2121              		.size	_ZN3r2p10SubscriberINS_10EncoderMsgELj5EED0Ev, .-_ZN3r2p10SubscriberINS_10EncoderMsgELj5EED0
 2122 001c AFF30080 		.section	.text._ZN3r2p9PIDCfgMsgC2Ev,"axG",%progbits,_ZN3r2p9PIDCfgMsgC5Ev,comdat
 2123              		.align	2
 2124              		.p2align 4,,15
 2125              		.weak	_ZN3r2p9PIDCfgMsgC2Ev
 2126              		.thumb
 2127              		.thumb_func
 2128              		.type	_ZN3r2p9PIDCfgMsgC2Ev, %function
 2129              	_ZN3r2p9PIDCfgMsgC2Ev:
ARM GAS  /tmp/ccWQ6gKG.s 			page 39


 2130              	.LFB648:
 2131              		.loc 10 95 0
 2132              		.cfi_startproc
 2133              		@ args = 0, pretend = 0, frame = 8
 2134              		@ frame_needed = 0, uses_anonymous_args = 0
 2135 0000 00B5     		push	{lr}
 2136              		.cfi_def_cfa_offset 4
 2137              		.cfi_offset 14, -4
 2138 0002 83B0     		sub	sp, sp, #12
 2139              		.cfi_def_cfa_offset 16
 2140 0004 0190     		str	r0, [sp, #4]
 2141              	.LBB64:
 2142              		.loc 10 95 0
 2143 0006 019B     		ldr	r3, [sp, #4]
 2144 0008 1846     		mov	r0, r3
 2145 000a FFF7FEFF 		bl	_ZN3r2p7MessageC2Ev
 2146              	.LBE64:
 2147 000e 019B     		ldr	r3, [sp, #4]
 2148 0010 1846     		mov	r0, r3
 2149 0012 03B0     		add	sp, sp, #12
 2150              		.cfi_def_cfa_offset 4
 2151              		@ sp needed
 2152 0014 5DF804FB 		ldr	pc, [sp], #4
 2153              		.cfi_endproc
 2154              	.LFE648:
 2155              		.size	_ZN3r2p9PIDCfgMsgC2Ev, .-_ZN3r2p9PIDCfgMsgC2Ev
 2156              		.weak	_ZN3r2p9PIDCfgMsgC1Ev
 2157              		.thumb_set _ZN3r2p9PIDCfgMsgC1Ev,_ZN3r2p9PIDCfgMsgC2Ev
 2158 0018 AFF30080 		.section	.text._ZN3r2p10SubscriberINS_9PIDCfgMsgELj5EEC2EPFbRKS1_E,"axG",%progbits,_ZN3r2p10Subscr
 2158      AFF30080 
 2159              		.align	2
 2160              		.p2align 4,,15
 2161              		.weak	_ZN3r2p10SubscriberINS_9PIDCfgMsgELj5EEC2EPFbRKS1_E
 2162              		.thumb
 2163              		.thumb_func
 2164              		.type	_ZN3r2p10SubscriberINS_9PIDCfgMsgELj5EEC2EPFbRKS1_E, %function
 2165              	_ZN3r2p10SubscriberINS_9PIDCfgMsgELj5EEC2EPFbRKS1_E:
 2166              	.LFB650:
 2167              		.loc 11 31 0
 2168              		.cfi_startproc
 2169              		@ args = 0, pretend = 0, frame = 8
 2170              		@ frame_needed = 0, uses_anonymous_args = 0
 2171 0000 30B5     		push	{r4, r5, lr}
 2172              		.cfi_def_cfa_offset 12
 2173              		.cfi_offset 4, -12
 2174              		.cfi_offset 5, -8
 2175              		.cfi_offset 14, -4
 2176 0002 83B0     		sub	sp, sp, #12
 2177              		.cfi_def_cfa_offset 24
 2178 0004 0190     		str	r0, [sp, #4]
 2179 0006 0091     		str	r1, [sp]
 2180              	.LBB65:
 2181              		.loc 11 33 0
 2182 0008 019A     		ldr	r2, [sp, #4]
 2183 000a 019B     		ldr	r3, [sp, #4]
 2184 000c 8033     		adds	r3, r3, #128
 2185 000e 1046     		mov	r0, r2
ARM GAS  /tmp/ccWQ6gKG.s 			page 40


 2186 0010 1946     		mov	r1, r3
 2187 0012 0522     		movs	r2, #5
 2188 0014 009B     		ldr	r3, [sp]
 2189 0016 FFF7FEFF 		bl	_ZN3r2p16SubscriberExtBufINS_9PIDCfgMsgEEC2EPPS1_jPFbRKS1_E
 2190 001a 019B     		ldr	r3, [sp, #4]
 2191 001c 094A     		ldr	r2, .L137
 2192 001e 1A60     		str	r2, [r3]
 2193 0020 019B     		ldr	r3, [sp, #4]
 2194 0022 3833     		adds	r3, r3, #56
 2195 0024 0424     		movs	r4, #4
 2196 0026 1D46     		mov	r5, r3
 2197 0028 04E0     		b	.L133
 2198              	.L134:
 2199              		.loc 11 33 0 is_stmt 0 discriminator 3
 2200 002a 2846     		mov	r0, r5
 2201 002c FFF7FEFF 		bl	_ZN3r2p9PIDCfgMsgC1Ev
 2202 0030 0E35     		adds	r5, r5, #14
 2203 0032 013C     		subs	r4, r4, #1
 2204              	.L133:
 2205              		.loc 11 33 0 discriminator 1
 2206 0034 B4F1FF3F 		cmp	r4, #-1
 2207 0038 F7D1     		bne	.L134
 2208              	.LBE65:
 2209              		.loc 11 34 0 is_stmt 1 discriminator 4
 2210 003a 019B     		ldr	r3, [sp, #4]
 2211 003c 1846     		mov	r0, r3
 2212 003e 03B0     		add	sp, sp, #12
 2213              		.cfi_def_cfa_offset 12
 2214              		@ sp needed
 2215 0040 30BD     		pop	{r4, r5, pc}
 2216              	.L138:
 2217 0042 00BF     		.align	2
 2218              	.L137:
 2219 0044 08000000 		.word	_ZTVN3r2p10SubscriberINS_9PIDCfgMsgELj5EEE+8
 2220              		.cfi_endproc
 2221              	.LFE650:
 2222              		.size	_ZN3r2p10SubscriberINS_9PIDCfgMsgELj5EEC2EPFbRKS1_E, .-_ZN3r2p10SubscriberINS_9PIDCfgMsgELj5
 2223              		.weak	_ZN3r2p10SubscriberINS_9PIDCfgMsgELj5EEC1EPFbRKS1_E
 2224              		.thumb_set _ZN3r2p10SubscriberINS_9PIDCfgMsgELj5EEC1EPFbRKS1_E,_ZN3r2p10SubscriberINS_9PIDCfgMsgEL
 2225 0048 AFF30080 		.section	.text._ZN3r2p10SubscriberINS_9PIDCfgMsgELj5EED2Ev,"axG",%progbits,_ZN3r2p10SubscriberINS_
 2225      AFF30080 
 2226              		.align	2
 2227              		.p2align 4,,15
 2228              		.weak	_ZN3r2p10SubscriberINS_9PIDCfgMsgELj5EED2Ev
 2229              		.thumb
 2230              		.thumb_func
 2231              		.type	_ZN3r2p10SubscriberINS_9PIDCfgMsgELj5EED2Ev, %function
 2232              	_ZN3r2p10SubscriberINS_9PIDCfgMsgELj5EED2Ev:
 2233              	.LFB653:
 2234              		.loc 11 38 0
 2235              		.cfi_startproc
 2236              		@ args = 0, pretend = 0, frame = 8
 2237              		@ frame_needed = 0, uses_anonymous_args = 0
 2238 0000 00B5     		push	{lr}
 2239              		.cfi_def_cfa_offset 4
 2240              		.cfi_offset 14, -4
 2241 0002 83B0     		sub	sp, sp, #12
ARM GAS  /tmp/ccWQ6gKG.s 			page 41


 2242              		.cfi_def_cfa_offset 16
 2243 0004 0190     		str	r0, [sp, #4]
 2244              	.LBB66:
 2245              		.loc 11 38 0
 2246 0006 019B     		ldr	r3, [sp, #4]
 2247 0008 084A     		ldr	r2, .L143
 2248 000a 1A60     		str	r2, [r3]
 2249 000c 019B     		ldr	r3, [sp, #4]
 2250 000e 1846     		mov	r0, r3
 2251 0010 FFF7FEFF 		bl	_ZN3r2p16SubscriberExtBufINS_9PIDCfgMsgEED2Ev
 2252              	.LBE66:
 2253 0014 0023     		movs	r3, #0
 2254 0016 002B     		cmp	r3, #0
 2255 0018 02D0     		beq	.L141
 2256              		.loc 11 38 0 is_stmt 0 discriminator 2
 2257 001a 0198     		ldr	r0, [sp, #4]
 2258 001c FFF7FEFF 		bl	_ZdlPv
 2259              	.L141:
 2260              		.loc 11 38 0 discriminator 4
 2261 0020 019B     		ldr	r3, [sp, #4]
 2262 0022 1846     		mov	r0, r3
 2263 0024 03B0     		add	sp, sp, #12
 2264              		.cfi_def_cfa_offset 4
 2265              		@ sp needed
 2266 0026 5DF804FB 		ldr	pc, [sp], #4
 2267              	.L144:
 2268 002a 00BF     		.align	2
 2269              	.L143:
 2270 002c 08000000 		.word	_ZTVN3r2p10SubscriberINS_9PIDCfgMsgELj5EEE+8
 2271              		.cfi_endproc
 2272              	.LFE653:
 2273              		.size	_ZN3r2p10SubscriberINS_9PIDCfgMsgELj5EED2Ev, .-_ZN3r2p10SubscriberINS_9PIDCfgMsgELj5EED2Ev
 2274              		.weak	_ZN3r2p10SubscriberINS_9PIDCfgMsgELj5EED1Ev
 2275              		.thumb_set _ZN3r2p10SubscriberINS_9PIDCfgMsgELj5EED1Ev,_ZN3r2p10SubscriberINS_9PIDCfgMsgELj5EED2Ev
 2276              		.section	.text._ZN3r2p10SubscriberINS_9PIDCfgMsgELj5EED0Ev,"axG",%progbits,_ZN3r2p10SubscriberINS_
 2277              		.align	2
 2278              		.p2align 4,,15
 2279              		.weak	_ZN3r2p10SubscriberINS_9PIDCfgMsgELj5EED0Ev
 2280              		.thumb
 2281              		.thumb_func
 2282              		.type	_ZN3r2p10SubscriberINS_9PIDCfgMsgELj5EED0Ev, %function
 2283              	_ZN3r2p10SubscriberINS_9PIDCfgMsgELj5EED0Ev:
 2284              	.LFB655:
 2285              		.loc 11 38 0 is_stmt 1
 2286              		.cfi_startproc
 2287              		@ args = 0, pretend = 0, frame = 8
 2288              		@ frame_needed = 0, uses_anonymous_args = 0
 2289 0000 00B5     		push	{lr}
 2290              		.cfi_def_cfa_offset 4
 2291              		.cfi_offset 14, -4
 2292 0002 83B0     		sub	sp, sp, #12
 2293              		.cfi_def_cfa_offset 16
 2294 0004 0190     		str	r0, [sp, #4]
 2295              		.loc 11 38 0
 2296 0006 0198     		ldr	r0, [sp, #4]
 2297 0008 FFF7FEFF 		bl	_ZN3r2p10SubscriberINS_9PIDCfgMsgELj5EED1Ev
 2298 000c 0198     		ldr	r0, [sp, #4]
ARM GAS  /tmp/ccWQ6gKG.s 			page 42


 2299 000e FFF7FEFF 		bl	_ZdlPv
 2300 0012 019B     		ldr	r3, [sp, #4]
 2301 0014 1846     		mov	r0, r3
 2302 0016 03B0     		add	sp, sp, #12
 2303              		.cfi_def_cfa_offset 4
 2304              		@ sp needed
 2305 0018 5DF804FB 		ldr	pc, [sp], #4
 2306              		.cfi_endproc
 2307              	.LFE655:
 2308              		.size	_ZN3r2p10SubscriberINS_9PIDCfgMsgELj5EED0Ev, .-_ZN3r2p10SubscriberINS_9PIDCfgMsgELj5EED0Ev
 2309 001c AFF30080 		.section	.text._ZN3r2p4Node9subscribeINS_9Speed3MsgELj5EEEbRNS_10SubscriberIT_XT0_EEEPKc,"axG",%pr
 2310              		.align	2
 2311              		.p2align 4,,15
 2312              		.weak	_ZN3r2p4Node9subscribeINS_9Speed3MsgELj5EEEbRNS_10SubscriberIT_XT0_EEEPKc
 2313              		.thumb
 2314              		.thumb_func
 2315              		.type	_ZN3r2p4Node9subscribeINS_9Speed3MsgELj5EEEbRNS_10SubscriberIT_XT0_EEEPKc, %function
 2316              	_ZN3r2p4Node9subscribeINS_9Speed3MsgELj5EEEbRNS_10SubscriberIT_XT0_EEEPKc:
 2317              	.LFB656:
 2318              		.loc 5 133 0
 2319              		.cfi_startproc
 2320              		@ args = 0, pretend = 0, frame = 16
 2321              		@ frame_needed = 0, uses_anonymous_args = 0
 2322 0000 10B5     		push	{r4, lr}
 2323              		.cfi_def_cfa_offset 8
 2324              		.cfi_offset 4, -8
 2325              		.cfi_offset 14, -4
 2326 0002 86B0     		sub	sp, sp, #24
 2327              		.cfi_def_cfa_offset 32
 2328 0004 0590     		str	r0, [sp, #20]
 2329 0006 0491     		str	r1, [sp, #16]
 2330 0008 0392     		str	r2, [sp, #12]
 2331              		.loc 5 135 0
 2332 000a 049A     		ldr	r2, [sp, #16]
 2333 000c 049B     		ldr	r3, [sp, #16]
 2334 000e 03F13804 		add	r4, r3, #56
 2335 0012 0E23     		movs	r3, #14
 2336 0014 0093     		str	r3, [sp]
 2337 0016 0598     		ldr	r0, [sp, #20]
 2338 0018 1146     		mov	r1, r2
 2339 001a 039A     		ldr	r2, [sp, #12]
 2340 001c 2346     		mov	r3, r4
 2341 001e FFF7FEFF 		bl	_ZN3r2p4Node9subscribeERNS_15LocalSubscriberEPKcPNS_7MessageEj
 2342 0022 0346     		mov	r3, r0
 2343              		.loc 5 136 0
 2344 0024 1846     		mov	r0, r3
 2345 0026 06B0     		add	sp, sp, #24
 2346              		.cfi_def_cfa_offset 8
 2347              		@ sp needed
 2348 0028 10BD     		pop	{r4, pc}
 2349              		.cfi_endproc
 2350              	.LFE656:
 2351              		.size	_ZN3r2p4Node9subscribeINS_9Speed3MsgELj5EEEbRNS_10SubscriberIT_XT0_EEEPKc, .-_ZN3r2p4Node9su
 2352 002a 00BFAFF3 		.section	.text._ZN3r2p4Node9subscribeINS_10EncoderMsgELj5EEEbRNS_10SubscriberIT_XT0_EEEPKc,"axG",%
 2352      0080
 2353              		.align	2
 2354              		.p2align 4,,15
ARM GAS  /tmp/ccWQ6gKG.s 			page 43


 2355              		.weak	_ZN3r2p4Node9subscribeINS_10EncoderMsgELj5EEEbRNS_10SubscriberIT_XT0_EEEPKc
 2356              		.thumb
 2357              		.thumb_func
 2358              		.type	_ZN3r2p4Node9subscribeINS_10EncoderMsgELj5EEEbRNS_10SubscriberIT_XT0_EEEPKc, %function
 2359              	_ZN3r2p4Node9subscribeINS_10EncoderMsgELj5EEEbRNS_10SubscriberIT_XT0_EEEPKc:
 2360              	.LFB657:
 2361              		.loc 5 133 0
 2362              		.cfi_startproc
 2363              		@ args = 0, pretend = 0, frame = 16
 2364              		@ frame_needed = 0, uses_anonymous_args = 0
 2365 0000 10B5     		push	{r4, lr}
 2366              		.cfi_def_cfa_offset 8
 2367              		.cfi_offset 4, -8
 2368              		.cfi_offset 14, -4
 2369 0002 86B0     		sub	sp, sp, #24
 2370              		.cfi_def_cfa_offset 32
 2371 0004 0590     		str	r0, [sp, #20]
 2372 0006 0491     		str	r1, [sp, #16]
 2373 0008 0392     		str	r2, [sp, #12]
 2374              		.loc 5 135 0
 2375 000a 049A     		ldr	r2, [sp, #16]
 2376 000c 049B     		ldr	r3, [sp, #16]
 2377 000e 03F13804 		add	r4, r3, #56
 2378 0012 0623     		movs	r3, #6
 2379 0014 0093     		str	r3, [sp]
 2380 0016 0598     		ldr	r0, [sp, #20]
 2381 0018 1146     		mov	r1, r2
 2382 001a 039A     		ldr	r2, [sp, #12]
 2383 001c 2346     		mov	r3, r4
 2384 001e FFF7FEFF 		bl	_ZN3r2p4Node9subscribeERNS_15LocalSubscriberEPKcPNS_7MessageEj
 2385 0022 0346     		mov	r3, r0
 2386              		.loc 5 136 0
 2387 0024 1846     		mov	r0, r3
 2388 0026 06B0     		add	sp, sp, #24
 2389              		.cfi_def_cfa_offset 8
 2390              		@ sp needed
 2391 0028 10BD     		pop	{r4, pc}
 2392              		.cfi_endproc
 2393              	.LFE657:
 2394              		.size	_ZN3r2p4Node9subscribeINS_10EncoderMsgELj5EEEbRNS_10SubscriberIT_XT0_EEEPKc, .-_ZN3r2p4Node9
 2395 002a 00BFAFF3 		.section	.text._ZN3r2p4Node9subscribeINS_9PIDCfgMsgELj5EEEbRNS_10SubscriberIT_XT0_EEEPKc,"axG",%pr
 2395      0080
 2396              		.align	2
 2397              		.p2align 4,,15
 2398              		.weak	_ZN3r2p4Node9subscribeINS_9PIDCfgMsgELj5EEEbRNS_10SubscriberIT_XT0_EEEPKc
 2399              		.thumb
 2400              		.thumb_func
 2401              		.type	_ZN3r2p4Node9subscribeINS_9PIDCfgMsgELj5EEEbRNS_10SubscriberIT_XT0_EEEPKc, %function
 2402              	_ZN3r2p4Node9subscribeINS_9PIDCfgMsgELj5EEEbRNS_10SubscriberIT_XT0_EEEPKc:
 2403              	.LFB658:
 2404              		.loc 5 133 0
 2405              		.cfi_startproc
 2406              		@ args = 0, pretend = 0, frame = 16
 2407              		@ frame_needed = 0, uses_anonymous_args = 0
 2408 0000 10B5     		push	{r4, lr}
 2409              		.cfi_def_cfa_offset 8
 2410              		.cfi_offset 4, -8
ARM GAS  /tmp/ccWQ6gKG.s 			page 44


 2411              		.cfi_offset 14, -4
 2412 0002 86B0     		sub	sp, sp, #24
 2413              		.cfi_def_cfa_offset 32
 2414 0004 0590     		str	r0, [sp, #20]
 2415 0006 0491     		str	r1, [sp, #16]
 2416 0008 0392     		str	r2, [sp, #12]
 2417              		.loc 5 135 0
 2418 000a 049A     		ldr	r2, [sp, #16]
 2419 000c 049B     		ldr	r3, [sp, #16]
 2420 000e 03F13804 		add	r4, r3, #56
 2421 0012 0E23     		movs	r3, #14
 2422 0014 0093     		str	r3, [sp]
 2423 0016 0598     		ldr	r0, [sp, #20]
 2424 0018 1146     		mov	r1, r2
 2425 001a 039A     		ldr	r2, [sp, #12]
 2426 001c 2346     		mov	r3, r4
 2427 001e FFF7FEFF 		bl	_ZN3r2p4Node9subscribeERNS_15LocalSubscriberEPKcPNS_7MessageEj
 2428 0022 0346     		mov	r3, r0
 2429              		.loc 5 136 0
 2430 0024 1846     		mov	r0, r3
 2431 0026 06B0     		add	sp, sp, #24
 2432              		.cfi_def_cfa_offset 8
 2433              		@ sp needed
 2434 0028 10BD     		pop	{r4, pc}
 2435              		.cfi_endproc
 2436              	.LFE658:
 2437              		.size	_ZN3r2p4Node9subscribeINS_9PIDCfgMsgELj5EEEbRNS_10SubscriberIT_XT0_EEEPKc, .-_ZN3r2p4Node9su
 2438 002a 00BFAFF3 		.section	.text._ZN3r2p16SubscriberExtBufINS_9PIDCfgMsgEE5fetchERPS1_,"axG",%progbits,_ZN3r2p16Subs
 2438      0080
 2439              		.align	2
 2440              		.p2align 4,,15
 2441              		.weak	_ZN3r2p16SubscriberExtBufINS_9PIDCfgMsgEE5fetchERPS1_
 2442              		.thumb
 2443              		.thumb_func
 2444              		.type	_ZN3r2p16SubscriberExtBufINS_9PIDCfgMsgEE5fetchERPS1_, %function
 2445              	_ZN3r2p16SubscriberExtBufINS_9PIDCfgMsgEE5fetchERPS1_:
 2446              	.LFB659:
 2447              		.file 12 "/home/denny/r2p-sdk/core/Middleware/include/r2p/SubscriberExtBuf.hpp"
 2448              		.loc 12 31 0
 2449              		.cfi_startproc
 2450              		@ args = 0, pretend = 0, frame = 8
 2451              		@ frame_needed = 0, uses_anonymous_args = 0
 2452 0000 00B5     		push	{lr}
 2453              		.cfi_def_cfa_offset 4
 2454              		.cfi_offset 14, -4
 2455 0002 83B0     		sub	sp, sp, #12
 2456              		.cfi_def_cfa_offset 16
 2457 0004 0190     		str	r0, [sp, #4]
 2458 0006 0091     		str	r1, [sp]
 2459              		.loc 12 34 0
 2460 0008 019B     		ldr	r3, [sp, #4]
 2461 000a 1846     		mov	r0, r3
 2462 000c 0099     		ldr	r1, [sp]
 2463 000e FFF7FEFF 		bl	_ZN3r2p15LocalSubscriber5fetchERPNS_7MessageE
 2464 0012 0346     		mov	r3, r0
 2465              		.loc 12 35 0
 2466 0014 1846     		mov	r0, r3
ARM GAS  /tmp/ccWQ6gKG.s 			page 45


 2467 0016 03B0     		add	sp, sp, #12
 2468              		.cfi_def_cfa_offset 4
 2469              		@ sp needed
 2470 0018 5DF804FB 		ldr	pc, [sp], #4
 2471              		.cfi_endproc
 2472              	.LFE659:
 2473              		.size	_ZN3r2p16SubscriberExtBufINS_9PIDCfgMsgEE5fetchERPS1_, .-_ZN3r2p16SubscriberExtBufINS_9PIDCf
 2474 001c AFF30080 		.section	.text._ZN3r2p16SubscriberExtBufINS_9PIDCfgMsgEE7releaseERS1_,"axG",%progbits,_ZN3r2p16Sub
 2475              		.align	2
 2476              		.p2align 4,,15
 2477              		.weak	_ZN3r2p16SubscriberExtBufINS_9PIDCfgMsgEE7releaseERS1_
 2478              		.thumb
 2479              		.thumb_func
 2480              		.type	_ZN3r2p16SubscriberExtBufINS_9PIDCfgMsgEE7releaseERS1_, %function
 2481              	_ZN3r2p16SubscriberExtBufINS_9PIDCfgMsgEE7releaseERS1_:
 2482              	.LFB660:
 2483              		.loc 12 57 0
 2484              		.cfi_startproc
 2485              		@ args = 0, pretend = 0, frame = 8
 2486              		@ frame_needed = 0, uses_anonymous_args = 0
 2487 0000 00B5     		push	{lr}
 2488              		.cfi_def_cfa_offset 4
 2489              		.cfi_offset 14, -4
 2490 0002 83B0     		sub	sp, sp, #12
 2491              		.cfi_def_cfa_offset 16
 2492 0004 0190     		str	r0, [sp, #4]
 2493 0006 0091     		str	r1, [sp]
 2494              		.loc 12 60 0
 2495 0008 019A     		ldr	r2, [sp, #4]
 2496 000a 009B     		ldr	r3, [sp]
 2497 000c 1046     		mov	r0, r2
 2498 000e 1946     		mov	r1, r3
 2499 0010 FFF7FEFF 		bl	_ZN3r2p14BaseSubscriber7releaseERNS_7MessageE
 2500 0014 0346     		mov	r3, r0
 2501              		.loc 12 61 0
 2502 0016 1846     		mov	r0, r3
 2503 0018 03B0     		add	sp, sp, #12
 2504              		.cfi_def_cfa_offset 4
 2505              		@ sp needed
 2506 001a 5DF804FB 		ldr	pc, [sp], #4
 2507              		.cfi_endproc
 2508              	.LFE660:
 2509              		.size	_ZN3r2p16SubscriberExtBufINS_9PIDCfgMsgEE7releaseERS1_, .-_ZN3r2p16SubscriberExtBufINS_9PIDC
 2510 001e 00BF     		.section	.text._ZN3r2p16SubscriberExtBufINS_9Speed3MsgEE5fetchERPS1_,"axG",%progbits,_ZN3r2p16Subs
 2511              		.align	2
 2512              		.p2align 4,,15
 2513              		.weak	_ZN3r2p16SubscriberExtBufINS_9Speed3MsgEE5fetchERPS1_
 2514              		.thumb
 2515              		.thumb_func
 2516              		.type	_ZN3r2p16SubscriberExtBufINS_9Speed3MsgEE5fetchERPS1_, %function
 2517              	_ZN3r2p16SubscriberExtBufINS_9Speed3MsgEE5fetchERPS1_:
 2518              	.LFB661:
 2519              		.loc 12 31 0
 2520              		.cfi_startproc
 2521              		@ args = 0, pretend = 0, frame = 8
 2522              		@ frame_needed = 0, uses_anonymous_args = 0
 2523 0000 00B5     		push	{lr}
ARM GAS  /tmp/ccWQ6gKG.s 			page 46


 2524              		.cfi_def_cfa_offset 4
 2525              		.cfi_offset 14, -4
 2526 0002 83B0     		sub	sp, sp, #12
 2527              		.cfi_def_cfa_offset 16
 2528 0004 0190     		str	r0, [sp, #4]
 2529 0006 0091     		str	r1, [sp]
 2530              		.loc 12 34 0
 2531 0008 019B     		ldr	r3, [sp, #4]
 2532 000a 1846     		mov	r0, r3
 2533 000c 0099     		ldr	r1, [sp]
 2534 000e FFF7FEFF 		bl	_ZN3r2p15LocalSubscriber5fetchERPNS_7MessageE
 2535 0012 0346     		mov	r3, r0
 2536              		.loc 12 35 0
 2537 0014 1846     		mov	r0, r3
 2538 0016 03B0     		add	sp, sp, #12
 2539              		.cfi_def_cfa_offset 4
 2540              		@ sp needed
 2541 0018 5DF804FB 		ldr	pc, [sp], #4
 2542              		.cfi_endproc
 2543              	.LFE661:
 2544              		.size	_ZN3r2p16SubscriberExtBufINS_9Speed3MsgEE5fetchERPS1_, .-_ZN3r2p16SubscriberExtBufINS_9Speed
 2545 001c AFF30080 		.section	.text._ZN3r2p16SubscriberExtBufINS_9Speed3MsgEE7releaseERS1_,"axG",%progbits,_ZN3r2p16Sub
 2546              		.align	2
 2547              		.p2align 4,,15
 2548              		.weak	_ZN3r2p16SubscriberExtBufINS_9Speed3MsgEE7releaseERS1_
 2549              		.thumb
 2550              		.thumb_func
 2551              		.type	_ZN3r2p16SubscriberExtBufINS_9Speed3MsgEE7releaseERS1_, %function
 2552              	_ZN3r2p16SubscriberExtBufINS_9Speed3MsgEE7releaseERS1_:
 2553              	.LFB662:
 2554              		.loc 12 57 0
 2555              		.cfi_startproc
 2556              		@ args = 0, pretend = 0, frame = 8
 2557              		@ frame_needed = 0, uses_anonymous_args = 0
 2558 0000 00B5     		push	{lr}
 2559              		.cfi_def_cfa_offset 4
 2560              		.cfi_offset 14, -4
 2561 0002 83B0     		sub	sp, sp, #12
 2562              		.cfi_def_cfa_offset 16
 2563 0004 0190     		str	r0, [sp, #4]
 2564 0006 0091     		str	r1, [sp]
 2565              		.loc 12 60 0
 2566 0008 019A     		ldr	r2, [sp, #4]
 2567 000a 009B     		ldr	r3, [sp]
 2568 000c 1046     		mov	r0, r2
 2569 000e 1946     		mov	r1, r3
 2570 0010 FFF7FEFF 		bl	_ZN3r2p14BaseSubscriber7releaseERNS_7MessageE
 2571 0014 0346     		mov	r3, r0
 2572              		.loc 12 61 0
 2573 0016 1846     		mov	r0, r3
 2574 0018 03B0     		add	sp, sp, #12
 2575              		.cfi_def_cfa_offset 4
 2576              		@ sp needed
 2577 001a 5DF804FB 		ldr	pc, [sp], #4
 2578              		.cfi_endproc
 2579              	.LFE662:
 2580              		.size	_ZN3r2p16SubscriberExtBufINS_9Speed3MsgEE7releaseERS1_, .-_ZN3r2p16SubscriberExtBufINS_9Spee
ARM GAS  /tmp/ccWQ6gKG.s 			page 47


 2581 001e 00BF     		.section	.text._ZN3r2p16SubscriberExtBufINS_9Speed3MsgEEC2EPPS1_jPFbRKS1_E,"axG",%progbits,_ZN3r2p
 2582              		.align	2
 2583              		.p2align 4,,15
 2584              		.weak	_ZN3r2p16SubscriberExtBufINS_9Speed3MsgEEC2EPPS1_jPFbRKS1_E
 2585              		.thumb
 2586              		.thumb_func
 2587              		.type	_ZN3r2p16SubscriberExtBufINS_9Speed3MsgEEC2EPPS1_jPFbRKS1_E, %function
 2588              	_ZN3r2p16SubscriberExtBufINS_9Speed3MsgEEC2EPPS1_jPFbRKS1_E:
 2589              	.LFB664:
 2590              		.loc 12 65 0
 2591              		.cfi_startproc
 2592              		@ args = 0, pretend = 0, frame = 16
 2593              		@ frame_needed = 0, uses_anonymous_args = 0
 2594 0000 00B5     		push	{lr}
 2595              		.cfi_def_cfa_offset 4
 2596              		.cfi_offset 14, -4
 2597 0002 85B0     		sub	sp, sp, #20
 2598              		.cfi_def_cfa_offset 24
 2599 0004 0390     		str	r0, [sp, #12]
 2600 0006 0291     		str	r1, [sp, #8]
 2601 0008 0192     		str	r2, [sp, #4]
 2602 000a 0093     		str	r3, [sp]
 2603              	.LBB67:
 2604              		.loc 12 69 0
 2605 000c 039B     		ldr	r3, [sp, #12]
 2606 000e 1846     		mov	r0, r3
 2607 0010 0299     		ldr	r1, [sp, #8]
 2608 0012 019A     		ldr	r2, [sp, #4]
 2609 0014 009B     		ldr	r3, [sp]
 2610 0016 FFF7FEFF 		bl	_ZN3r2p15LocalSubscriberC2EPPNS_7MessageEjPFbRKS1_E
 2611 001a 039B     		ldr	r3, [sp, #12]
 2612 001c 034A     		ldr	r2, .L165
 2613 001e 1A60     		str	r2, [r3]
 2614              	.LBE67:
 2615              		.loc 12 72 0
 2616 0020 039B     		ldr	r3, [sp, #12]
 2617 0022 1846     		mov	r0, r3
 2618 0024 05B0     		add	sp, sp, #20
 2619              		.cfi_def_cfa_offset 4
 2620              		@ sp needed
 2621 0026 5DF804FB 		ldr	pc, [sp], #4
 2622              	.L166:
 2623 002a 00BF     		.align	2
 2624              	.L165:
 2625 002c 08000000 		.word	_ZTVN3r2p16SubscriberExtBufINS_9Speed3MsgEEE+8
 2626              		.cfi_endproc
 2627              	.LFE664:
 2628              		.size	_ZN3r2p16SubscriberExtBufINS_9Speed3MsgEEC2EPPS1_jPFbRKS1_E, .-_ZN3r2p16SubscriberExtBufINS_
 2629              		.weak	_ZN3r2p16SubscriberExtBufINS_9Speed3MsgEEC1EPPS1_jPFbRKS1_E
 2630              		.thumb_set _ZN3r2p16SubscriberExtBufINS_9Speed3MsgEEC1EPPS1_jPFbRKS1_E,_ZN3r2p16SubscriberExtBufIN
 2631              		.section	.text._ZN3r2p16SubscriberExtBufINS_9Speed3MsgEED2Ev,"axG",%progbits,_ZN3r2p16SubscriberEx
 2632              		.align	2
 2633              		.p2align 4,,15
 2634              		.weak	_ZN3r2p16SubscriberExtBufINS_9Speed3MsgEED2Ev
 2635              		.thumb
 2636              		.thumb_func
 2637              		.type	_ZN3r2p16SubscriberExtBufINS_9Speed3MsgEED2Ev, %function
ARM GAS  /tmp/ccWQ6gKG.s 			page 48


 2638              	_ZN3r2p16SubscriberExtBufINS_9Speed3MsgEED2Ev:
 2639              	.LFB667:
 2640              		.loc 12 76 0
 2641              		.cfi_startproc
 2642              		@ args = 0, pretend = 0, frame = 8
 2643              		@ frame_needed = 0, uses_anonymous_args = 0
 2644 0000 00B5     		push	{lr}
 2645              		.cfi_def_cfa_offset 4
 2646              		.cfi_offset 14, -4
 2647 0002 83B0     		sub	sp, sp, #12
 2648              		.cfi_def_cfa_offset 16
 2649 0004 0190     		str	r0, [sp, #4]
 2650              	.LBB68:
 2651              		.loc 12 79 0
 2652 0006 019B     		ldr	r3, [sp, #4]
 2653 0008 084A     		ldr	r2, .L171
 2654 000a 1A60     		str	r2, [r3]
 2655 000c 019B     		ldr	r3, [sp, #4]
 2656 000e 1846     		mov	r0, r3
 2657 0010 FFF7FEFF 		bl	_ZN3r2p15LocalSubscriberD2Ev
 2658              	.LBE68:
 2659 0014 0023     		movs	r3, #0
 2660 0016 002B     		cmp	r3, #0
 2661 0018 02D0     		beq	.L169
 2662              		.loc 12 79 0 is_stmt 0 discriminator 2
 2663 001a 0198     		ldr	r0, [sp, #4]
 2664 001c FFF7FEFF 		bl	_ZdlPv
 2665              	.L169:
 2666              		.loc 12 79 0 discriminator 4
 2667 0020 019B     		ldr	r3, [sp, #4]
 2668 0022 1846     		mov	r0, r3
 2669 0024 03B0     		add	sp, sp, #12
 2670              		.cfi_def_cfa_offset 4
 2671              		@ sp needed
 2672 0026 5DF804FB 		ldr	pc, [sp], #4
 2673              	.L172:
 2674 002a 00BF     		.align	2
 2675              	.L171:
 2676 002c 08000000 		.word	_ZTVN3r2p16SubscriberExtBufINS_9Speed3MsgEEE+8
 2677              		.cfi_endproc
 2678              	.LFE667:
 2679              		.size	_ZN3r2p16SubscriberExtBufINS_9Speed3MsgEED2Ev, .-_ZN3r2p16SubscriberExtBufINS_9Speed3MsgEED2
 2680              		.weak	_ZN3r2p16SubscriberExtBufINS_9Speed3MsgEED1Ev
 2681              		.thumb_set _ZN3r2p16SubscriberExtBufINS_9Speed3MsgEED1Ev,_ZN3r2p16SubscriberExtBufINS_9Speed3MsgEE
 2682              		.section	.text._ZN3r2p16SubscriberExtBufINS_9Speed3MsgEED0Ev,"axG",%progbits,_ZN3r2p16SubscriberEx
 2683              		.align	2
 2684              		.p2align 4,,15
 2685              		.weak	_ZN3r2p16SubscriberExtBufINS_9Speed3MsgEED0Ev
 2686              		.thumb
 2687              		.thumb_func
 2688              		.type	_ZN3r2p16SubscriberExtBufINS_9Speed3MsgEED0Ev, %function
 2689              	_ZN3r2p16SubscriberExtBufINS_9Speed3MsgEED0Ev:
 2690              	.LFB669:
 2691              		.loc 12 76 0 is_stmt 1
 2692              		.cfi_startproc
 2693              		@ args = 0, pretend = 0, frame = 8
 2694              		@ frame_needed = 0, uses_anonymous_args = 0
ARM GAS  /tmp/ccWQ6gKG.s 			page 49


 2695 0000 00B5     		push	{lr}
 2696              		.cfi_def_cfa_offset 4
 2697              		.cfi_offset 14, -4
 2698 0002 83B0     		sub	sp, sp, #12
 2699              		.cfi_def_cfa_offset 16
 2700 0004 0190     		str	r0, [sp, #4]
 2701              		.loc 12 79 0
 2702 0006 0198     		ldr	r0, [sp, #4]
 2703 0008 FFF7FEFF 		bl	_ZN3r2p16SubscriberExtBufINS_9Speed3MsgEED1Ev
 2704 000c 0198     		ldr	r0, [sp, #4]
 2705 000e FFF7FEFF 		bl	_ZdlPv
 2706 0012 019B     		ldr	r3, [sp, #4]
 2707 0014 1846     		mov	r0, r3
 2708 0016 03B0     		add	sp, sp, #12
 2709              		.cfi_def_cfa_offset 4
 2710              		@ sp needed
 2711 0018 5DF804FB 		ldr	pc, [sp], #4
 2712              		.cfi_endproc
 2713              	.LFE669:
 2714              		.size	_ZN3r2p16SubscriberExtBufINS_9Speed3MsgEED0Ev, .-_ZN3r2p16SubscriberExtBufINS_9Speed3MsgEED0
 2715 001c AFF30080 		.section	.text._ZN3r2p16SubscriberExtBufINS_10EncoderMsgEEC2EPPS1_jPFbRKS1_E,"axG",%progbits,_ZN3r
 2716              		.align	2
 2717              		.p2align 4,,15
 2718              		.weak	_ZN3r2p16SubscriberExtBufINS_10EncoderMsgEEC2EPPS1_jPFbRKS1_E
 2719              		.thumb
 2720              		.thumb_func
 2721              		.type	_ZN3r2p16SubscriberExtBufINS_10EncoderMsgEEC2EPPS1_jPFbRKS1_E, %function
 2722              	_ZN3r2p16SubscriberExtBufINS_10EncoderMsgEEC2EPPS1_jPFbRKS1_E:
 2723              	.LFB671:
 2724              		.loc 12 65 0
 2725              		.cfi_startproc
 2726              		@ args = 0, pretend = 0, frame = 16
 2727              		@ frame_needed = 0, uses_anonymous_args = 0
 2728 0000 00B5     		push	{lr}
 2729              		.cfi_def_cfa_offset 4
 2730              		.cfi_offset 14, -4
 2731 0002 85B0     		sub	sp, sp, #20
 2732              		.cfi_def_cfa_offset 24
 2733 0004 0390     		str	r0, [sp, #12]
 2734 0006 0291     		str	r1, [sp, #8]
 2735 0008 0192     		str	r2, [sp, #4]
 2736 000a 0093     		str	r3, [sp]
 2737              	.LBB69:
 2738              		.loc 12 69 0
 2739 000c 039B     		ldr	r3, [sp, #12]
 2740 000e 1846     		mov	r0, r3
 2741 0010 0299     		ldr	r1, [sp, #8]
 2742 0012 019A     		ldr	r2, [sp, #4]
 2743 0014 009B     		ldr	r3, [sp]
 2744 0016 FFF7FEFF 		bl	_ZN3r2p15LocalSubscriberC2EPPNS_7MessageEjPFbRKS1_E
 2745 001a 039B     		ldr	r3, [sp, #12]
 2746 001c 034A     		ldr	r2, .L179
 2747 001e 1A60     		str	r2, [r3]
 2748              	.LBE69:
 2749              		.loc 12 72 0
 2750 0020 039B     		ldr	r3, [sp, #12]
 2751 0022 1846     		mov	r0, r3
ARM GAS  /tmp/ccWQ6gKG.s 			page 50


 2752 0024 05B0     		add	sp, sp, #20
 2753              		.cfi_def_cfa_offset 4
 2754              		@ sp needed
 2755 0026 5DF804FB 		ldr	pc, [sp], #4
 2756              	.L180:
 2757 002a 00BF     		.align	2
 2758              	.L179:
 2759 002c 08000000 		.word	_ZTVN3r2p16SubscriberExtBufINS_10EncoderMsgEEE+8
 2760              		.cfi_endproc
 2761              	.LFE671:
 2762              		.size	_ZN3r2p16SubscriberExtBufINS_10EncoderMsgEEC2EPPS1_jPFbRKS1_E, .-_ZN3r2p16SubscriberExtBufIN
 2763              		.weak	_ZN3r2p16SubscriberExtBufINS_10EncoderMsgEEC1EPPS1_jPFbRKS1_E
 2764              		.thumb_set _ZN3r2p16SubscriberExtBufINS_10EncoderMsgEEC1EPPS1_jPFbRKS1_E,_ZN3r2p16SubscriberExtBuf
 2765              		.section	.text._ZN3r2p16SubscriberExtBufINS_10EncoderMsgEED2Ev,"axG",%progbits,_ZN3r2p16Subscriber
 2766              		.align	2
 2767              		.p2align 4,,15
 2768              		.weak	_ZN3r2p16SubscriberExtBufINS_10EncoderMsgEED2Ev
 2769              		.thumb
 2770              		.thumb_func
 2771              		.type	_ZN3r2p16SubscriberExtBufINS_10EncoderMsgEED2Ev, %function
 2772              	_ZN3r2p16SubscriberExtBufINS_10EncoderMsgEED2Ev:
 2773              	.LFB674:
 2774              		.loc 12 76 0
 2775              		.cfi_startproc
 2776              		@ args = 0, pretend = 0, frame = 8
 2777              		@ frame_needed = 0, uses_anonymous_args = 0
 2778 0000 00B5     		push	{lr}
 2779              		.cfi_def_cfa_offset 4
 2780              		.cfi_offset 14, -4
 2781 0002 83B0     		sub	sp, sp, #12
 2782              		.cfi_def_cfa_offset 16
 2783 0004 0190     		str	r0, [sp, #4]
 2784              	.LBB70:
 2785              		.loc 12 79 0
 2786 0006 019B     		ldr	r3, [sp, #4]
 2787 0008 084A     		ldr	r2, .L185
 2788 000a 1A60     		str	r2, [r3]
 2789 000c 019B     		ldr	r3, [sp, #4]
 2790 000e 1846     		mov	r0, r3
 2791 0010 FFF7FEFF 		bl	_ZN3r2p15LocalSubscriberD2Ev
 2792              	.LBE70:
 2793 0014 0023     		movs	r3, #0
 2794 0016 002B     		cmp	r3, #0
 2795 0018 02D0     		beq	.L183
 2796              		.loc 12 79 0 is_stmt 0 discriminator 2
 2797 001a 0198     		ldr	r0, [sp, #4]
 2798 001c FFF7FEFF 		bl	_ZdlPv
 2799              	.L183:
 2800              		.loc 12 79 0 discriminator 4
 2801 0020 019B     		ldr	r3, [sp, #4]
 2802 0022 1846     		mov	r0, r3
 2803 0024 03B0     		add	sp, sp, #12
 2804              		.cfi_def_cfa_offset 4
 2805              		@ sp needed
 2806 0026 5DF804FB 		ldr	pc, [sp], #4
 2807              	.L186:
 2808 002a 00BF     		.align	2
ARM GAS  /tmp/ccWQ6gKG.s 			page 51


 2809              	.L185:
 2810 002c 08000000 		.word	_ZTVN3r2p16SubscriberExtBufINS_10EncoderMsgEEE+8
 2811              		.cfi_endproc
 2812              	.LFE674:
 2813              		.size	_ZN3r2p16SubscriberExtBufINS_10EncoderMsgEED2Ev, .-_ZN3r2p16SubscriberExtBufINS_10EncoderMsg
 2814              		.weak	_ZN3r2p16SubscriberExtBufINS_10EncoderMsgEED1Ev
 2815              		.thumb_set _ZN3r2p16SubscriberExtBufINS_10EncoderMsgEED1Ev,_ZN3r2p16SubscriberExtBufINS_10EncoderM
 2816              		.section	.text._ZN3r2p16SubscriberExtBufINS_10EncoderMsgEED0Ev,"axG",%progbits,_ZN3r2p16Subscriber
 2817              		.align	2
 2818              		.p2align 4,,15
 2819              		.weak	_ZN3r2p16SubscriberExtBufINS_10EncoderMsgEED0Ev
 2820              		.thumb
 2821              		.thumb_func
 2822              		.type	_ZN3r2p16SubscriberExtBufINS_10EncoderMsgEED0Ev, %function
 2823              	_ZN3r2p16SubscriberExtBufINS_10EncoderMsgEED0Ev:
 2824              	.LFB676:
 2825              		.loc 12 76 0 is_stmt 1
 2826              		.cfi_startproc
 2827              		@ args = 0, pretend = 0, frame = 8
 2828              		@ frame_needed = 0, uses_anonymous_args = 0
 2829 0000 00B5     		push	{lr}
 2830              		.cfi_def_cfa_offset 4
 2831              		.cfi_offset 14, -4
 2832 0002 83B0     		sub	sp, sp, #12
 2833              		.cfi_def_cfa_offset 16
 2834 0004 0190     		str	r0, [sp, #4]
 2835              		.loc 12 79 0
 2836 0006 0198     		ldr	r0, [sp, #4]
 2837 0008 FFF7FEFF 		bl	_ZN3r2p16SubscriberExtBufINS_10EncoderMsgEED1Ev
 2838 000c 0198     		ldr	r0, [sp, #4]
 2839 000e FFF7FEFF 		bl	_ZdlPv
 2840 0012 019B     		ldr	r3, [sp, #4]
 2841 0014 1846     		mov	r0, r3
 2842 0016 03B0     		add	sp, sp, #12
 2843              		.cfi_def_cfa_offset 4
 2844              		@ sp needed
 2845 0018 5DF804FB 		ldr	pc, [sp], #4
 2846              		.cfi_endproc
 2847              	.LFE676:
 2848              		.size	_ZN3r2p16SubscriberExtBufINS_10EncoderMsgEED0Ev, .-_ZN3r2p16SubscriberExtBufINS_10EncoderMsg
 2849 001c AFF30080 		.section	.text._ZN3r2p16SubscriberExtBufINS_9PIDCfgMsgEEC2EPPS1_jPFbRKS1_E,"axG",%progbits,_ZN3r2p
 2850              		.align	2
 2851              		.p2align 4,,15
 2852              		.weak	_ZN3r2p16SubscriberExtBufINS_9PIDCfgMsgEEC2EPPS1_jPFbRKS1_E
 2853              		.thumb
 2854              		.thumb_func
 2855              		.type	_ZN3r2p16SubscriberExtBufINS_9PIDCfgMsgEEC2EPPS1_jPFbRKS1_E, %function
 2856              	_ZN3r2p16SubscriberExtBufINS_9PIDCfgMsgEEC2EPPS1_jPFbRKS1_E:
 2857              	.LFB678:
 2858              		.loc 12 65 0
 2859              		.cfi_startproc
 2860              		@ args = 0, pretend = 0, frame = 16
 2861              		@ frame_needed = 0, uses_anonymous_args = 0
 2862 0000 00B5     		push	{lr}
 2863              		.cfi_def_cfa_offset 4
 2864              		.cfi_offset 14, -4
 2865 0002 85B0     		sub	sp, sp, #20
ARM GAS  /tmp/ccWQ6gKG.s 			page 52


 2866              		.cfi_def_cfa_offset 24
 2867 0004 0390     		str	r0, [sp, #12]
 2868 0006 0291     		str	r1, [sp, #8]
 2869 0008 0192     		str	r2, [sp, #4]
 2870 000a 0093     		str	r3, [sp]
 2871              	.LBB71:
 2872              		.loc 12 69 0
 2873 000c 039B     		ldr	r3, [sp, #12]
 2874 000e 1846     		mov	r0, r3
 2875 0010 0299     		ldr	r1, [sp, #8]
 2876 0012 019A     		ldr	r2, [sp, #4]
 2877 0014 009B     		ldr	r3, [sp]
 2878 0016 FFF7FEFF 		bl	_ZN3r2p15LocalSubscriberC2EPPNS_7MessageEjPFbRKS1_E
 2879 001a 039B     		ldr	r3, [sp, #12]
 2880 001c 034A     		ldr	r2, .L193
 2881 001e 1A60     		str	r2, [r3]
 2882              	.LBE71:
 2883              		.loc 12 72 0
 2884 0020 039B     		ldr	r3, [sp, #12]
 2885 0022 1846     		mov	r0, r3
 2886 0024 05B0     		add	sp, sp, #20
 2887              		.cfi_def_cfa_offset 4
 2888              		@ sp needed
 2889 0026 5DF804FB 		ldr	pc, [sp], #4
 2890              	.L194:
 2891 002a 00BF     		.align	2
 2892              	.L193:
 2893 002c 08000000 		.word	_ZTVN3r2p16SubscriberExtBufINS_9PIDCfgMsgEEE+8
 2894              		.cfi_endproc
 2895              	.LFE678:
 2896              		.size	_ZN3r2p16SubscriberExtBufINS_9PIDCfgMsgEEC2EPPS1_jPFbRKS1_E, .-_ZN3r2p16SubscriberExtBufINS_
 2897              		.weak	_ZN3r2p16SubscriberExtBufINS_9PIDCfgMsgEEC1EPPS1_jPFbRKS1_E
 2898              		.thumb_set _ZN3r2p16SubscriberExtBufINS_9PIDCfgMsgEEC1EPPS1_jPFbRKS1_E,_ZN3r2p16SubscriberExtBufIN
 2899              		.section	.text._ZN3r2p16SubscriberExtBufINS_9PIDCfgMsgEED2Ev,"axG",%progbits,_ZN3r2p16SubscriberEx
 2900              		.align	2
 2901              		.p2align 4,,15
 2902              		.weak	_ZN3r2p16SubscriberExtBufINS_9PIDCfgMsgEED2Ev
 2903              		.thumb
 2904              		.thumb_func
 2905              		.type	_ZN3r2p16SubscriberExtBufINS_9PIDCfgMsgEED2Ev, %function
 2906              	_ZN3r2p16SubscriberExtBufINS_9PIDCfgMsgEED2Ev:
 2907              	.LFB681:
 2908              		.loc 12 76 0
 2909              		.cfi_startproc
 2910              		@ args = 0, pretend = 0, frame = 8
 2911              		@ frame_needed = 0, uses_anonymous_args = 0
 2912 0000 00B5     		push	{lr}
 2913              		.cfi_def_cfa_offset 4
 2914              		.cfi_offset 14, -4
 2915 0002 83B0     		sub	sp, sp, #12
 2916              		.cfi_def_cfa_offset 16
 2917 0004 0190     		str	r0, [sp, #4]
 2918              	.LBB72:
 2919              		.loc 12 79 0
 2920 0006 019B     		ldr	r3, [sp, #4]
 2921 0008 084A     		ldr	r2, .L199
 2922 000a 1A60     		str	r2, [r3]
ARM GAS  /tmp/ccWQ6gKG.s 			page 53


 2923 000c 019B     		ldr	r3, [sp, #4]
 2924 000e 1846     		mov	r0, r3
 2925 0010 FFF7FEFF 		bl	_ZN3r2p15LocalSubscriberD2Ev
 2926              	.LBE72:
 2927 0014 0023     		movs	r3, #0
 2928 0016 002B     		cmp	r3, #0
 2929 0018 02D0     		beq	.L197
 2930              		.loc 12 79 0 is_stmt 0 discriminator 2
 2931 001a 0198     		ldr	r0, [sp, #4]
 2932 001c FFF7FEFF 		bl	_ZdlPv
 2933              	.L197:
 2934              		.loc 12 79 0 discriminator 4
 2935 0020 019B     		ldr	r3, [sp, #4]
 2936 0022 1846     		mov	r0, r3
 2937 0024 03B0     		add	sp, sp, #12
 2938              		.cfi_def_cfa_offset 4
 2939              		@ sp needed
 2940 0026 5DF804FB 		ldr	pc, [sp], #4
 2941              	.L200:
 2942 002a 00BF     		.align	2
 2943              	.L199:
 2944 002c 08000000 		.word	_ZTVN3r2p16SubscriberExtBufINS_9PIDCfgMsgEEE+8
 2945              		.cfi_endproc
 2946              	.LFE681:
 2947              		.size	_ZN3r2p16SubscriberExtBufINS_9PIDCfgMsgEED2Ev, .-_ZN3r2p16SubscriberExtBufINS_9PIDCfgMsgEED2
 2948              		.weak	_ZN3r2p16SubscriberExtBufINS_9PIDCfgMsgEED1Ev
 2949              		.thumb_set _ZN3r2p16SubscriberExtBufINS_9PIDCfgMsgEED1Ev,_ZN3r2p16SubscriberExtBufINS_9PIDCfgMsgEE
 2950              		.section	.text._ZN3r2p16SubscriberExtBufINS_9PIDCfgMsgEED0Ev,"axG",%progbits,_ZN3r2p16SubscriberEx
 2951              		.align	2
 2952              		.p2align 4,,15
 2953              		.weak	_ZN3r2p16SubscriberExtBufINS_9PIDCfgMsgEED0Ev
 2954              		.thumb
 2955              		.thumb_func
 2956              		.type	_ZN3r2p16SubscriberExtBufINS_9PIDCfgMsgEED0Ev, %function
 2957              	_ZN3r2p16SubscriberExtBufINS_9PIDCfgMsgEED0Ev:
 2958              	.LFB683:
 2959              		.loc 12 76 0 is_stmt 1
 2960              		.cfi_startproc
 2961              		@ args = 0, pretend = 0, frame = 8
 2962              		@ frame_needed = 0, uses_anonymous_args = 0
 2963 0000 00B5     		push	{lr}
 2964              		.cfi_def_cfa_offset 4
 2965              		.cfi_offset 14, -4
 2966 0002 83B0     		sub	sp, sp, #12
 2967              		.cfi_def_cfa_offset 16
 2968 0004 0190     		str	r0, [sp, #4]
 2969              		.loc 12 79 0
 2970 0006 0198     		ldr	r0, [sp, #4]
 2971 0008 FFF7FEFF 		bl	_ZN3r2p16SubscriberExtBufINS_9PIDCfgMsgEED1Ev
 2972 000c 0198     		ldr	r0, [sp, #4]
 2973 000e FFF7FEFF 		bl	_ZdlPv
 2974 0012 019B     		ldr	r3, [sp, #4]
 2975 0014 1846     		mov	r0, r3
 2976 0016 03B0     		add	sp, sp, #12
 2977              		.cfi_def_cfa_offset 4
 2978              		@ sp needed
 2979 0018 5DF804FB 		ldr	pc, [sp], #4
ARM GAS  /tmp/ccWQ6gKG.s 			page 54


 2980              		.cfi_endproc
 2981              	.LFE683:
 2982              		.size	_ZN3r2p16SubscriberExtBufINS_9PIDCfgMsgEED0Ev, .-_ZN3r2p16SubscriberExtBufINS_9PIDCfgMsgEED0
 2983              		.weak	_ZTVN3r2p10SubscriberINS_9PIDCfgMsgELj5EEE
 2984 001c AFF30080 		.section	.rodata._ZTVN3r2p10SubscriberINS_9PIDCfgMsgELj5EEE,"aG",%progbits,_ZTVN3r2p10SubscriberIN
 2985              		.align	3
 2986              		.type	_ZTVN3r2p10SubscriberINS_9PIDCfgMsgELj5EEE, %object
 2987              		.size	_ZTVN3r2p10SubscriberINS_9PIDCfgMsgELj5EEE, 36
 2988              	_ZTVN3r2p10SubscriberINS_9PIDCfgMsgELj5EEE:
 2989 0000 00000000 		.word	0
 2990 0004 00000000 		.word	0
 2991 0008 00000000 		.word	_ZNK3r2p15LocalSubscriber16get_queue_lengthEv
 2992 000c 00000000 		.word	_ZN3r2p15LocalSubscriber13notify_unsafeERNS_7MessageERKNS_4TimeE
 2993 0010 00000000 		.word	_ZN3r2p15LocalSubscriber12fetch_unsafeERPNS_7MessageERNS_4TimeE
 2994 0014 00000000 		.word	_ZN3r2p15LocalSubscriber6notifyERNS_7MessageERKNS_4TimeE
 2995 0018 00000000 		.word	_ZN3r2p15LocalSubscriber5fetchERPNS_7MessageERNS_4TimeE
 2996 001c 00000000 		.word	_ZN3r2p10SubscriberINS_9PIDCfgMsgELj5EED1Ev
 2997 0020 00000000 		.word	_ZN3r2p10SubscriberINS_9PIDCfgMsgELj5EED0Ev
 2998              		.weak	_ZTVN3r2p16SubscriberExtBufINS_9PIDCfgMsgEEE
 2999 0024 00000000 		.section	.rodata._ZTVN3r2p16SubscriberExtBufINS_9PIDCfgMsgEEE,"aG",%progbits,_ZTVN3r2p16Subscriber
 3000              		.align	3
 3001              		.type	_ZTVN3r2p16SubscriberExtBufINS_9PIDCfgMsgEEE, %object
 3002              		.size	_ZTVN3r2p16SubscriberExtBufINS_9PIDCfgMsgEEE, 36
 3003              	_ZTVN3r2p16SubscriberExtBufINS_9PIDCfgMsgEEE:
 3004 0000 00000000 		.word	0
 3005 0004 00000000 		.word	0
 3006 0008 00000000 		.word	_ZNK3r2p15LocalSubscriber16get_queue_lengthEv
 3007 000c 00000000 		.word	_ZN3r2p15LocalSubscriber13notify_unsafeERNS_7MessageERKNS_4TimeE
 3008 0010 00000000 		.word	_ZN3r2p15LocalSubscriber12fetch_unsafeERPNS_7MessageERNS_4TimeE
 3009 0014 00000000 		.word	_ZN3r2p15LocalSubscriber6notifyERNS_7MessageERKNS_4TimeE
 3010 0018 00000000 		.word	_ZN3r2p15LocalSubscriber5fetchERPNS_7MessageERNS_4TimeE
 3011 001c 00000000 		.word	_ZN3r2p16SubscriberExtBufINS_9PIDCfgMsgEED1Ev
 3012 0020 00000000 		.word	_ZN3r2p16SubscriberExtBufINS_9PIDCfgMsgEED0Ev
 3013              		.weak	_ZTVN3r2p10SubscriberINS_10EncoderMsgELj5EEE
 3014 0024 00000000 		.section	.rodata._ZTVN3r2p10SubscriberINS_10EncoderMsgELj5EEE,"aG",%progbits,_ZTVN3r2p10Subscriber
 3015              		.align	3
 3016              		.type	_ZTVN3r2p10SubscriberINS_10EncoderMsgELj5EEE, %object
 3017              		.size	_ZTVN3r2p10SubscriberINS_10EncoderMsgELj5EEE, 36
 3018              	_ZTVN3r2p10SubscriberINS_10EncoderMsgELj5EEE:
 3019 0000 00000000 		.word	0
 3020 0004 00000000 		.word	0
 3021 0008 00000000 		.word	_ZNK3r2p15LocalSubscriber16get_queue_lengthEv
 3022 000c 00000000 		.word	_ZN3r2p15LocalSubscriber13notify_unsafeERNS_7MessageERKNS_4TimeE
 3023 0010 00000000 		.word	_ZN3r2p15LocalSubscriber12fetch_unsafeERPNS_7MessageERNS_4TimeE
 3024 0014 00000000 		.word	_ZN3r2p15LocalSubscriber6notifyERNS_7MessageERKNS_4TimeE
 3025 0018 00000000 		.word	_ZN3r2p15LocalSubscriber5fetchERPNS_7MessageERNS_4TimeE
 3026 001c 00000000 		.word	_ZN3r2p10SubscriberINS_10EncoderMsgELj5EED1Ev
 3027 0020 00000000 		.word	_ZN3r2p10SubscriberINS_10EncoderMsgELj5EED0Ev
 3028              		.weak	_ZTVN3r2p16SubscriberExtBufINS_10EncoderMsgEEE
 3029 0024 00000000 		.section	.rodata._ZTVN3r2p16SubscriberExtBufINS_10EncoderMsgEEE,"aG",%progbits,_ZTVN3r2p16Subscrib
 3030              		.align	3
 3031              		.type	_ZTVN3r2p16SubscriberExtBufINS_10EncoderMsgEEE, %object
 3032              		.size	_ZTVN3r2p16SubscriberExtBufINS_10EncoderMsgEEE, 36
 3033              	_ZTVN3r2p16SubscriberExtBufINS_10EncoderMsgEEE:
 3034 0000 00000000 		.word	0
 3035 0004 00000000 		.word	0
 3036 0008 00000000 		.word	_ZNK3r2p15LocalSubscriber16get_queue_lengthEv
ARM GAS  /tmp/ccWQ6gKG.s 			page 55


 3037 000c 00000000 		.word	_ZN3r2p15LocalSubscriber13notify_unsafeERNS_7MessageERKNS_4TimeE
 3038 0010 00000000 		.word	_ZN3r2p15LocalSubscriber12fetch_unsafeERPNS_7MessageERNS_4TimeE
 3039 0014 00000000 		.word	_ZN3r2p15LocalSubscriber6notifyERNS_7MessageERKNS_4TimeE
 3040 0018 00000000 		.word	_ZN3r2p15LocalSubscriber5fetchERPNS_7MessageERNS_4TimeE
 3041 001c 00000000 		.word	_ZN3r2p16SubscriberExtBufINS_10EncoderMsgEED1Ev
 3042 0020 00000000 		.word	_ZN3r2p16SubscriberExtBufINS_10EncoderMsgEED0Ev
 3043              		.weak	_ZTVN3r2p10SubscriberINS_9Speed3MsgELj5EEE
 3044 0024 00000000 		.section	.rodata._ZTVN3r2p10SubscriberINS_9Speed3MsgELj5EEE,"aG",%progbits,_ZTVN3r2p10SubscriberIN
 3045              		.align	3
 3046              		.type	_ZTVN3r2p10SubscriberINS_9Speed3MsgELj5EEE, %object
 3047              		.size	_ZTVN3r2p10SubscriberINS_9Speed3MsgELj5EEE, 36
 3048              	_ZTVN3r2p10SubscriberINS_9Speed3MsgELj5EEE:
 3049 0000 00000000 		.word	0
 3050 0004 00000000 		.word	0
 3051 0008 00000000 		.word	_ZNK3r2p15LocalSubscriber16get_queue_lengthEv
 3052 000c 00000000 		.word	_ZN3r2p15LocalSubscriber13notify_unsafeERNS_7MessageERKNS_4TimeE
 3053 0010 00000000 		.word	_ZN3r2p15LocalSubscriber12fetch_unsafeERPNS_7MessageERNS_4TimeE
 3054 0014 00000000 		.word	_ZN3r2p15LocalSubscriber6notifyERNS_7MessageERKNS_4TimeE
 3055 0018 00000000 		.word	_ZN3r2p15LocalSubscriber5fetchERPNS_7MessageERNS_4TimeE
 3056 001c 00000000 		.word	_ZN3r2p10SubscriberINS_9Speed3MsgELj5EED1Ev
 3057 0020 00000000 		.word	_ZN3r2p10SubscriberINS_9Speed3MsgELj5EED0Ev
 3058              		.weak	_ZTVN3r2p16SubscriberExtBufINS_9Speed3MsgEEE
 3059 0024 00000000 		.section	.rodata._ZTVN3r2p16SubscriberExtBufINS_9Speed3MsgEEE,"aG",%progbits,_ZTVN3r2p16Subscriber
 3060              		.align	3
 3061              		.type	_ZTVN3r2p16SubscriberExtBufINS_9Speed3MsgEEE, %object
 3062              		.size	_ZTVN3r2p16SubscriberExtBufINS_9Speed3MsgEEE, 36
 3063              	_ZTVN3r2p16SubscriberExtBufINS_9Speed3MsgEEE:
 3064 0000 00000000 		.word	0
 3065 0004 00000000 		.word	0
 3066 0008 00000000 		.word	_ZNK3r2p15LocalSubscriber16get_queue_lengthEv
 3067 000c 00000000 		.word	_ZN3r2p15LocalSubscriber13notify_unsafeERNS_7MessageERKNS_4TimeE
 3068 0010 00000000 		.word	_ZN3r2p15LocalSubscriber12fetch_unsafeERPNS_7MessageERNS_4TimeE
 3069 0014 00000000 		.word	_ZN3r2p15LocalSubscriber6notifyERNS_7MessageERKNS_4TimeE
 3070 0018 00000000 		.word	_ZN3r2p15LocalSubscriber5fetchERPNS_7MessageERNS_4TimeE
 3071 001c 00000000 		.word	_ZN3r2p16SubscriberExtBufINS_9Speed3MsgEED1Ev
 3072 0020 00000000 		.word	_ZN3r2p16SubscriberExtBufINS_9Speed3MsgEED0Ev
 3073 0024 00000000 		.section	.text._Z41__static_initialization_and_destruction_0ii,"ax",%progbits
 3074              		.align	2
 3075              		.p2align 4,,15
 3076              		.thumb
 3077              		.thumb_func
 3078              		.type	_Z41__static_initialization_and_destruction_0ii, %function
 3079              	_Z41__static_initialization_and_destruction_0ii:
 3080              	.LFB687:
 3081              		.loc 8 111 0
 3082              		.cfi_startproc
 3083              		@ args = 0, pretend = 0, frame = 8
 3084              		@ frame_needed = 0, uses_anonymous_args = 0
 3085 0000 00B5     		push	{lr}
 3086              		.cfi_def_cfa_offset 4
 3087              		.cfi_offset 14, -4
 3088 0002 83B0     		sub	sp, sp, #12
 3089              		.cfi_def_cfa_offset 16
 3090 0004 0190     		str	r0, [sp, #4]
 3091 0006 0091     		str	r1, [sp]
 3092              		.loc 8 111 0
 3093 0008 019B     		ldr	r3, [sp, #4]
ARM GAS  /tmp/ccWQ6gKG.s 			page 56


 3094 000a 012B     		cmp	r3, #1
 3095 000c 07D1     		bne	.L204
 3096              		.loc 8 111 0 is_stmt 0 discriminator 1
 3097 000e 009B     		ldr	r3, [sp]
 3098 0010 4FF6FF72 		movw	r2, #65535
 3099 0014 9342     		cmp	r3, r2
 3100 0016 02D1     		bne	.L204
 3101              		.loc 8 42 0 is_stmt 1
 3102 0018 0248     		ldr	r0, .L206
 3103 001a FFF7FEFF 		bl	_ZN3PIDC2Ev
 3104              	.L204:
 3105              		.loc 8 111 0
 3106 001e 03B0     		add	sp, sp, #12
 3107              		.cfi_def_cfa_offset 4
 3108              		@ sp needed
 3109 0020 5DF804FB 		ldr	pc, [sp], #4
 3110              	.L207:
 3111              		.align	2
 3112              	.L206:
 3113 0024 00000000 		.word	speed_pid
 3114              		.cfi_endproc
 3115              	.LFE687:
 3116              		.size	_Z41__static_initialization_and_destruction_0ii, .-_Z41__static_initialization_and_destructi
 3117 0028 AFF30080 		.section	.text._GLOBAL__sub_I__ZN3PIDC2Ev,"ax",%progbits
 3117      AFF30080 
 3118              		.align	2
 3119              		.p2align 4,,15
 3120              		.thumb
 3121              		.thumb_func
 3122              		.type	_GLOBAL__sub_I__ZN3PIDC2Ev, %function
 3123              	_GLOBAL__sub_I__ZN3PIDC2Ev:
 3124              	.LFB688:
 3125              		.loc 8 111 0
 3126              		.cfi_startproc
 3127              		@ args = 0, pretend = 0, frame = 0
 3128              		@ frame_needed = 0, uses_anonymous_args = 0
 3129 0000 08B5     		push	{r3, lr}
 3130              		.cfi_def_cfa_offset 8
 3131              		.cfi_offset 3, -8
 3132              		.cfi_offset 14, -4
 3133              		.loc 8 111 0
 3134 0002 0120     		movs	r0, #1
 3135 0004 4FF6FF71 		movw	r1, #65535
 3136 0008 FFF7FEFF 		bl	_Z41__static_initialization_and_destruction_0ii
 3137 000c 08BD     		pop	{r3, pc}
 3138              		.cfi_endproc
 3139              	.LFE688:
 3140              		.size	_GLOBAL__sub_I__ZN3PIDC2Ev, .-_GLOBAL__sub_I__ZN3PIDC2Ev
 3141 000e 00BF     		.section	.init_array,"aw",%init_array
 3142              		.align	2
 3143 0000 00000000 		.word	_GLOBAL__sub_I__ZN3PIDC2Ev(target1)
 3144              		.text
 3145              	.Letext0:
 3146              		.file 13 "/home/denny/r2p-sdk/tools/gcc-arm-none-eabi-4_9-2014q4/lib/gcc/arm-none-eabi/4.9.3/inclu
 3147              		.file 14 "/home/denny/r2p-sdk/tools/gcc-arm-none-eabi-4_9-2014q4/arm-none-eabi/include/machine/_de
 3148              		.file 15 "/home/denny/r2p-sdk/tools/gcc-arm-none-eabi-4_9-2014q4/arm-none-eabi/include/stdint.h"
 3149              		.file 16 "/home/denny/r2p-sdk/core/ChibiOS/os/ports/GCC/ARMCMx/chtypes.h"
ARM GAS  /tmp/ccWQ6gKG.s 			page 57


 3150              		.file 17 "/home/denny/r2p-sdk/core/ChibiOS/os/kernel/include/chlists.h"
 3151              		.file 18 "/home/denny/r2p-sdk/core/ChibiOS/os/kernel/include/chthreads.h"
 3152              		.file 19 "/home/denny/r2p-sdk/core/ChibiOS/os/ports/GCC/ARMCMx/chcore_v7m.h"
 3153              		.file 20 "/home/denny/r2p-sdk/core/ChibiOS/os/kernel/include/chschd.h"
 3154              		.file 21 "/home/denny/r2p-sdk/core/ChibiOS/os/kernel/include/chmtx.h"
 3155              		.file 22 "/home/denny/r2p-sdk/core/ChibiOS/os/kernel/include/chmemcore.h"
 3156              		.file 23 "/home/denny/r2p-sdk/core/ChibiOS/os/kernel/include/chmempools.h"
 3157              		.file 24 "/home/denny/r2p-sdk/core/ChibiOS/os/hal/platforms/STM32/GPIOv2/pal_lld.h"
 3158              		.file 25 "/home/denny/r2p-sdk/core/ChibiOS/os/hal/include/pwm.h"
 3159              		.file 26 "/home/denny/r2p-sdk/core/ChibiOS/os/hal/platforms/STM32/TIMv1/pwm_lld.h"
 3160              		.file 27 "/home/denny/r2p-sdk/core/ChibiOS/os/hal/platforms/STM32/TIMv1/stm32_tim.h"
 3161              		.file 28 "/home/denny/r2p-sdk/tools/gcc-arm-none-eabi-4_9-2014q4/arm-none-eabi/include/c++/4.9.3/c
 3162              		.file 29 "/home/denny/r2p-sdk/tools/gcc-arm-none-eabi-4_9-2014q4/arm-none-eabi/include/string.h"
 3163              		.file 30 "<built-in>"
 3164              		.file 31 "/home/denny/r2p-sdk/core/Middleware/include/r2p/Uncopyable.hpp"
 3165              		.file 32 "/home/denny/r2p-sdk/core/Middleware/port/chibios/include/r2p/impl/MemoryPool_.hpp"
 3166              		.file 33 "/home/denny/r2p-sdk/core/Middleware/include/r2p/StaticList.hpp"
 3167              		.file 34 "/home/denny/r2p-sdk/core/Middleware/include/r2p/Topic.hpp"
 3168              		.file 35 "/home/denny/r2p-sdk/core/Middleware/port/chibios/include/r2p/impl/Thread_.hpp"
 3169              		.file 36 "/home/denny/r2p-sdk/core/Middleware/include/r2p/Thread.hpp"
 3170              		.file 37 "/home/denny/r2p-sdk/core/Middleware/include/r2p/BaseSubscriber.hpp"
 3171              		.file 38 "/home/denny/r2p-sdk/core/Middleware/include/r2p/common.hpp"
 3172              		.file 39 "nodes/pid_node.hpp"
 3173              		.file 40 "/home/denny/r2p-sdk/core/ChibiOS/os/ports/common/ARMCMx/CMSIS/include/core_cm4.h"