ARM GAS  /tmp/ccACWqgx.s 			page 1


   1              		.syntax unified
   2              		.cpu cortex-m4
   3              		.eabi_attribute 27, 3
   4              		.eabi_attribute 28, 1
   5              		.fpu fpv4-sp-d16
   6              		.eabi_attribute 20, 1
   7              		.eabi_attribute 21, 1
   8              		.eabi_attribute 23, 3
   9              		.eabi_attribute 24, 1
  10              		.eabi_attribute 25, 1
  11              		.eabi_attribute 26, 1
  12              		.eabi_attribute 30, 6
  13              		.eabi_attribute 34, 1
  14              		.eabi_attribute 18, 4
  15              		.thumb
  16              		.file	"qei.c"
  17              		.text
  18              	.Ltext0:
  19              		.cfi_sections	.debug_frame
  20              		.section	.text.qeiInit,"ax",%progbits
  21              		.align	2
  22              		.p2align 4,,15
  23              		.global	qeiInit
  24              		.thumb
  25              		.thumb_func
  26              		.type	qeiInit, %function
  27              	qeiInit:
  28              	.LFB118:
  29              		.file 1 "/home/denny/r2p-sdk/modules/uDC_module/qei.c"
  30              		.loc 1 62 0
  31              		.cfi_startproc
  32              		@ args = 0, pretend = 0, frame = 0
  33              		@ frame_needed = 0, uses_anonymous_args = 0
  34 0000 08B5     		push	{r3, lr}
  35              		.cfi_def_cfa_offset 8
  36              		.cfi_offset 3, -8
  37              		.cfi_offset 14, -4
  38              		.loc 1 64 0
  39 0002 FFF7FEFF 		bl	qei_lld_init
  40              		.loc 1 65 0
  41 0006 08BD     		pop	{r3, pc}
  42              		.cfi_endproc
  43              	.LFE118:
  44              		.size	qeiInit, .-qeiInit
  45 0008 AFF30080 		.section	.text.qeiObjectInit,"ax",%progbits
  45      AFF30080 
  46              		.align	2
  47              		.p2align 4,,15
  48              		.global	qeiObjectInit
  49              		.thumb
  50              		.thumb_func
  51              		.type	qeiObjectInit, %function
  52              	qeiObjectInit:
  53              	.LFB119:
  54              		.loc 1 74 0
  55              		.cfi_startproc
  56              		@ args = 0, pretend = 0, frame = 8
ARM GAS  /tmp/ccACWqgx.s 			page 2


  57              		@ frame_needed = 0, uses_anonymous_args = 0
  58              		@ link register save eliminated.
  59 0000 82B0     		sub	sp, sp, #8
  60              		.cfi_def_cfa_offset 8
  61 0002 0190     		str	r0, [sp, #4]
  62              		.loc 1 76 0
  63 0004 019B     		ldr	r3, [sp, #4]
  64 0006 0122     		movs	r2, #1
  65 0008 1A70     		strb	r2, [r3]
  66              		.loc 1 77 0
  67 000a 019B     		ldr	r3, [sp, #4]
  68 000c 0022     		movs	r2, #0
  69 000e 5A80     		strh	r2, [r3, #2]	@ movhi
  70              		.loc 1 78 0
  71 0010 019B     		ldr	r3, [sp, #4]
  72 0012 0022     		movs	r2, #0
  73 0014 5A60     		str	r2, [r3, #4]
  74              		.loc 1 79 0
  75 0016 02B0     		add	sp, sp, #8
  76              		.cfi_def_cfa_offset 0
  77              		@ sp needed
  78 0018 7047     		bx	lr
  79              		.cfi_endproc
  80              	.LFE119:
  81              		.size	qeiObjectInit, .-qeiObjectInit
  82 001a 00BFAFF3 		.section	.rodata
  82      0080
  83              		.align	2
  84              	.LC0:
  85 0000 22716569 		.ascii	"\"qeiStart\"()\000"
  85      53746172 
  85      74222829 
  85      00
  86 000d 000000   		.align	2
  87              	.LC1:
  88 0010 71656953 		.ascii	"qeiStart(), #1\000"
  88      74617274 
  88      28292C20 
  88      233100
  89              		.section	.text.qeiStart,"ax",%progbits
  90              		.align	2
  91              		.p2align 4,,15
  92              		.global	qeiStart
  93              		.thumb
  94              		.thumb_func
  95              		.type	qeiStart, %function
  96              	qeiStart:
  97              	.LFB120:
  98              		.loc 1 89 0
  99              		.cfi_startproc
 100              		@ args = 0, pretend = 0, frame = 8
 101              		@ frame_needed = 0, uses_anonymous_args = 0
 102 0000 00B5     		push	{lr}
 103              		.cfi_def_cfa_offset 4
 104              		.cfi_offset 14, -4
 105 0002 83B0     		sub	sp, sp, #12
 106              		.cfi_def_cfa_offset 16
ARM GAS  /tmp/ccACWqgx.s 			page 3


 107 0004 0190     		str	r0, [sp, #4]
 108 0006 0091     		str	r1, [sp]
 109              		.loc 1 91 0
 110 0008 019B     		ldr	r3, [sp, #4]
 111 000a 002B     		cmp	r3, #0
 112 000c 02D0     		beq	.L4
 113              		.loc 1 91 0 is_stmt 0 discriminator 2
 114 000e 009B     		ldr	r3, [sp]
 115 0010 002B     		cmp	r3, #0
 116 0012 02D1     		bne	.L5
 117              	.L4:
 118              		.loc 1 91 0 discriminator 3
 119 0014 1148     		ldr	r0, .L7
 120 0016 FFF7FEFF 		bl	chDbgPanic
 121              	.L5:
 122              	.LBB2:
 123              		.loc 1 93 0 is_stmt 1
 124 001a 2023     		movs	r3, #32
 125              	@ 93 "/home/denny/r2p-sdk/modules/uDC_module/qei.c" 1
 126 001c 83F31188 		msr     BASEPRI, r3
 127              	@ 0 "" 2
 128              		.thumb
 129              	.LBE2:
 130 0020 FFF7FEFF 		bl	dbg_check_lock
 131              		.loc 1 94 0
 132 0024 019B     		ldr	r3, [sp, #4]
 133 0026 1B78     		ldrb	r3, [r3]	@ zero_extendqisi2
 134 0028 012B     		cmp	r3, #1
 135 002a 06D0     		beq	.L6
 136              		.loc 1 94 0 is_stmt 0 discriminator 1
 137 002c 019B     		ldr	r3, [sp, #4]
 138 002e 1B78     		ldrb	r3, [r3]	@ zero_extendqisi2
 139 0030 022B     		cmp	r3, #2
 140 0032 02D0     		beq	.L6
 141              		.loc 1 94 0 discriminator 2
 142 0034 0A48     		ldr	r0, .L7+4
 143 0036 FFF7FEFF 		bl	chDbgPanic
 144              	.L6:
 145              		.loc 1 96 0 is_stmt 1
 146 003a 019B     		ldr	r3, [sp, #4]
 147 003c 009A     		ldr	r2, [sp]
 148 003e 5A60     		str	r2, [r3, #4]
 149              		.loc 1 97 0
 150 0040 0198     		ldr	r0, [sp, #4]
 151 0042 FFF7FEFF 		bl	qei_lld_start
 152              		.loc 1 98 0
 153 0046 019B     		ldr	r3, [sp, #4]
 154 0048 0222     		movs	r2, #2
 155 004a 1A70     		strb	r2, [r3]
 156              		.loc 1 99 0
 157 004c FFF7FEFF 		bl	dbg_check_unlock
 158              	.LBB3:
 159 0050 0023     		movs	r3, #0
 160              	@ 99 "/home/denny/r2p-sdk/modules/uDC_module/qei.c" 1
 161 0052 83F31188 		msr     BASEPRI, r3
 162              	@ 0 "" 2
 163              		.thumb
ARM GAS  /tmp/ccACWqgx.s 			page 4


 164              	.LBE3:
 165              		.loc 1 100 0
 166 0056 03B0     		add	sp, sp, #12
 167              		.cfi_def_cfa_offset 4
 168              		@ sp needed
 169 0058 5DF804FB 		ldr	pc, [sp], #4
 170              	.L8:
 171              		.align	2
 172              	.L7:
 173 005c 00000000 		.word	.LC0
 174 0060 10000000 		.word	.LC1
 175              		.cfi_endproc
 176              	.LFE120:
 177              		.size	qeiStart, .-qeiStart
 178 0064 AFF30080 		.section	.rodata
 178      AFF30080 
 178      AFF30080 
 179 001f 00       		.align	2
 180              	.LC2:
 181 0020 22716569 		.ascii	"\"qeiStop\"()\000"
 181      53746F70 
 181      22282900 
 182              		.align	2
 183              	.LC3:
 184 002c 71656953 		.ascii	"qeiStop(), #1\000"
 184      746F7028 
 184      292C2023 
 184      3100
 185              		.section	.text.qeiStop,"ax",%progbits
 186              		.align	2
 187              		.p2align 4,,15
 188              		.global	qeiStop
 189              		.thumb
 190              		.thumb_func
 191              		.type	qeiStop, %function
 192              	qeiStop:
 193              	.LFB121:
 194              		.loc 1 109 0
 195              		.cfi_startproc
 196              		@ args = 0, pretend = 0, frame = 8
 197              		@ frame_needed = 0, uses_anonymous_args = 0
 198 0000 00B5     		push	{lr}
 199              		.cfi_def_cfa_offset 4
 200              		.cfi_offset 14, -4
 201 0002 83B0     		sub	sp, sp, #12
 202              		.cfi_def_cfa_offset 16
 203 0004 0190     		str	r0, [sp, #4]
 204              		.loc 1 111 0
 205 0006 019B     		ldr	r3, [sp, #4]
 206 0008 002B     		cmp	r3, #0
 207 000a 02D1     		bne	.L10
 208              		.loc 1 111 0 is_stmt 0 discriminator 1
 209 000c 1048     		ldr	r0, .L12
 210 000e FFF7FEFF 		bl	chDbgPanic
 211              	.L10:
 212              	.LBB4:
 213              		.loc 1 113 0 is_stmt 1
ARM GAS  /tmp/ccACWqgx.s 			page 5


 214 0012 2023     		movs	r3, #32
 215              	@ 113 "/home/denny/r2p-sdk/modules/uDC_module/qei.c" 1
 216 0014 83F31188 		msr     BASEPRI, r3
 217              	@ 0 "" 2
 218              		.thumb
 219              	.LBE4:
 220 0018 FFF7FEFF 		bl	dbg_check_lock
 221              		.loc 1 114 0
 222 001c 019B     		ldr	r3, [sp, #4]
 223 001e 1B78     		ldrb	r3, [r3]	@ zero_extendqisi2
 224 0020 012B     		cmp	r3, #1
 225 0022 06D0     		beq	.L11
 226              		.loc 1 114 0 is_stmt 0 discriminator 1
 227 0024 019B     		ldr	r3, [sp, #4]
 228 0026 1B78     		ldrb	r3, [r3]	@ zero_extendqisi2
 229 0028 022B     		cmp	r3, #2
 230 002a 02D0     		beq	.L11
 231              		.loc 1 114 0 discriminator 2
 232 002c 0948     		ldr	r0, .L12+4
 233 002e FFF7FEFF 		bl	chDbgPanic
 234              	.L11:
 235              		.loc 1 116 0 is_stmt 1
 236 0032 0198     		ldr	r0, [sp, #4]
 237 0034 FFF7FEFF 		bl	qei_lld_stop
 238              		.loc 1 117 0
 239 0038 019B     		ldr	r3, [sp, #4]
 240 003a 0122     		movs	r2, #1
 241 003c 1A70     		strb	r2, [r3]
 242              		.loc 1 118 0
 243 003e FFF7FEFF 		bl	dbg_check_unlock
 244              	.LBB5:
 245 0042 0023     		movs	r3, #0
 246              	@ 118 "/home/denny/r2p-sdk/modules/uDC_module/qei.c" 1
 247 0044 83F31188 		msr     BASEPRI, r3
 248              	@ 0 "" 2
 249              		.thumb
 250              	.LBE5:
 251              		.loc 1 119 0
 252 0048 03B0     		add	sp, sp, #12
 253              		.cfi_def_cfa_offset 4
 254              		@ sp needed
 255 004a 5DF804FB 		ldr	pc, [sp], #4
 256              	.L13:
 257 004e 00BF     		.align	2
 258              	.L12:
 259 0050 20000000 		.word	.LC2
 260 0054 2C000000 		.word	.LC3
 261              		.cfi_endproc
 262              	.LFE121:
 263              		.size	qeiStop, .-qeiStop
 264 0058 AFF30080 		.section	.rodata
 264      AFF30080 
 265 003a 0000     		.align	2
 266              	.LC4:
 267 003c 22716569 		.ascii	"\"qeiEnable\"()\000"
 267      456E6162 
 267      6C652228 
ARM GAS  /tmp/ccACWqgx.s 			page 6


 267      2900
 268 004a 0000     		.align	2
 269              	.LC5:
 270 004c 71656945 		.ascii	"qeiEnable(), #1\000"
 270      6E61626C 
 270      6528292C 
 270      20233100 
 271              		.section	.text.qeiEnable,"ax",%progbits
 272              		.align	2
 273              		.p2align 4,,15
 274              		.global	qeiEnable
 275              		.thumb
 276              		.thumb_func
 277              		.type	qeiEnable, %function
 278              	qeiEnable:
 279              	.LFB122:
 280              		.loc 1 128 0
 281              		.cfi_startproc
 282              		@ args = 0, pretend = 0, frame = 8
 283              		@ frame_needed = 0, uses_anonymous_args = 0
 284 0000 00B5     		push	{lr}
 285              		.cfi_def_cfa_offset 4
 286              		.cfi_offset 14, -4
 287 0002 83B0     		sub	sp, sp, #12
 288              		.cfi_def_cfa_offset 16
 289 0004 0190     		str	r0, [sp, #4]
 290              		.loc 1 130 0
 291 0006 019B     		ldr	r3, [sp, #4]
 292 0008 002B     		cmp	r3, #0
 293 000a 02D1     		bne	.L15
 294              		.loc 1 130 0 is_stmt 0 discriminator 1
 295 000c 0E48     		ldr	r0, .L17
 296 000e FFF7FEFF 		bl	chDbgPanic
 297              	.L15:
 298              	.LBB6:
 299              		.loc 1 132 0 is_stmt 1
 300 0012 2023     		movs	r3, #32
 301              	@ 132 "/home/denny/r2p-sdk/modules/uDC_module/qei.c" 1
 302 0014 83F31188 		msr     BASEPRI, r3
 303              	@ 0 "" 2
 304              		.thumb
 305              	.LBE6:
 306 0018 FFF7FEFF 		bl	dbg_check_lock
 307              		.loc 1 133 0
 308 001c 019B     		ldr	r3, [sp, #4]
 309 001e 1B78     		ldrb	r3, [r3]	@ zero_extendqisi2
 310 0020 022B     		cmp	r3, #2
 311 0022 02D0     		beq	.L16
 312              		.loc 1 133 0 is_stmt 0 discriminator 1
 313 0024 0948     		ldr	r0, .L17+4
 314 0026 FFF7FEFF 		bl	chDbgPanic
 315              	.L16:
 316              		.loc 1 134 0 is_stmt 1
 317 002a 0198     		ldr	r0, [sp, #4]
 318 002c FFF7FEFF 		bl	qei_lld_enable
 319              		.loc 1 135 0
 320 0030 019B     		ldr	r3, [sp, #4]
ARM GAS  /tmp/ccACWqgx.s 			page 7


 321 0032 0322     		movs	r2, #3
 322 0034 1A70     		strb	r2, [r3]
 323              		.loc 1 136 0
 324 0036 FFF7FEFF 		bl	dbg_check_unlock
 325              	.LBB7:
 326 003a 0023     		movs	r3, #0
 327              	@ 136 "/home/denny/r2p-sdk/modules/uDC_module/qei.c" 1
 328 003c 83F31188 		msr     BASEPRI, r3
 329              	@ 0 "" 2
 330              		.thumb
 331              	.LBE7:
 332              		.loc 1 137 0
 333 0040 03B0     		add	sp, sp, #12
 334              		.cfi_def_cfa_offset 4
 335              		@ sp needed
 336 0042 5DF804FB 		ldr	pc, [sp], #4
 337              	.L18:
 338 0046 00BF     		.align	2
 339              	.L17:
 340 0048 3C000000 		.word	.LC4
 341 004c 4C000000 		.word	.LC5
 342              		.cfi_endproc
 343              	.LFE122:
 344              		.size	qeiEnable, .-qeiEnable
 345              		.section	.rodata
 346              		.align	2
 347              	.LC6:
 348 005c 22716569 		.ascii	"\"qeiDisable\"()\000"
 348      44697361 
 348      626C6522 
 348      282900
 349 006b 00       		.align	2
 350              	.LC7:
 351 006c 71656944 		.ascii	"qeiDisable(), #1\000"
 351      69736162 
 351      6C652829 
 351      2C202331 
 351      00
 352              		.section	.text.qeiDisable,"ax",%progbits
 353              		.align	2
 354              		.p2align 4,,15
 355              		.global	qeiDisable
 356              		.thumb
 357              		.thumb_func
 358              		.type	qeiDisable, %function
 359              	qeiDisable:
 360              	.LFB123:
 361              		.loc 1 146 0
 362              		.cfi_startproc
 363              		@ args = 0, pretend = 0, frame = 8
 364              		@ frame_needed = 0, uses_anonymous_args = 0
 365 0000 00B5     		push	{lr}
 366              		.cfi_def_cfa_offset 4
 367              		.cfi_offset 14, -4
 368 0002 83B0     		sub	sp, sp, #12
 369              		.cfi_def_cfa_offset 16
 370 0004 0190     		str	r0, [sp, #4]
ARM GAS  /tmp/ccACWqgx.s 			page 8


 371              		.loc 1 148 0
 372 0006 019B     		ldr	r3, [sp, #4]
 373 0008 002B     		cmp	r3, #0
 374 000a 02D1     		bne	.L20
 375              		.loc 1 148 0 is_stmt 0 discriminator 1
 376 000c 1048     		ldr	r0, .L22
 377 000e FFF7FEFF 		bl	chDbgPanic
 378              	.L20:
 379              	.LBB8:
 380              		.loc 1 150 0 is_stmt 1
 381 0012 2023     		movs	r3, #32
 382              	@ 150 "/home/denny/r2p-sdk/modules/uDC_module/qei.c" 1
 383 0014 83F31188 		msr     BASEPRI, r3
 384              	@ 0 "" 2
 385              		.thumb
 386              	.LBE8:
 387 0018 FFF7FEFF 		bl	dbg_check_lock
 388              		.loc 1 151 0
 389 001c 019B     		ldr	r3, [sp, #4]
 390 001e 1B78     		ldrb	r3, [r3]	@ zero_extendqisi2
 391 0020 022B     		cmp	r3, #2
 392 0022 06D0     		beq	.L21
 393              		.loc 1 151 0 is_stmt 0 discriminator 1
 394 0024 019B     		ldr	r3, [sp, #4]
 395 0026 1B78     		ldrb	r3, [r3]	@ zero_extendqisi2
 396 0028 032B     		cmp	r3, #3
 397 002a 02D0     		beq	.L21
 398              		.loc 1 151 0 discriminator 2
 399 002c 0948     		ldr	r0, .L22+4
 400 002e FFF7FEFF 		bl	chDbgPanic
 401              	.L21:
 402              		.loc 1 153 0 is_stmt 1
 403 0032 0198     		ldr	r0, [sp, #4]
 404 0034 FFF7FEFF 		bl	qei_lld_disable
 405              		.loc 1 154 0
 406 0038 019B     		ldr	r3, [sp, #4]
 407 003a 0222     		movs	r2, #2
 408 003c 1A70     		strb	r2, [r3]
 409              		.loc 1 155 0
 410 003e FFF7FEFF 		bl	dbg_check_unlock
 411              	.LBB9:
 412 0042 0023     		movs	r3, #0
 413              	@ 155 "/home/denny/r2p-sdk/modules/uDC_module/qei.c" 1
 414 0044 83F31188 		msr     BASEPRI, r3
 415              	@ 0 "" 2
 416              		.thumb
 417              	.LBE9:
 418              		.loc 1 156 0
 419 0048 03B0     		add	sp, sp, #12
 420              		.cfi_def_cfa_offset 4
 421              		@ sp needed
 422 004a 5DF804FB 		ldr	pc, [sp], #4
 423              	.L23:
 424 004e 00BF     		.align	2
 425              	.L22:
 426 0050 5C000000 		.word	.LC6
 427 0054 6C000000 		.word	.LC7
ARM GAS  /tmp/ccACWqgx.s 			page 9


 428              		.cfi_endproc
 429              	.LFE123:
 430              		.size	qeiDisable, .-qeiDisable
 431 0058 AFF30080 		.section	.text.qeiGetCount,"ax",%progbits
 431      AFF30080 
 432              		.align	2
 433              		.p2align 4,,15
 434              		.global	qeiGetCount
 435              		.thumb
 436              		.thumb_func
 437              		.type	qeiGetCount, %function
 438              	qeiGetCount:
 439              	.LFB124:
 440              		.loc 1 166 0
 441              		.cfi_startproc
 442              		@ args = 0, pretend = 0, frame = 16
 443              		@ frame_needed = 0, uses_anonymous_args = 0
 444 0000 00B5     		push	{lr}
 445              		.cfi_def_cfa_offset 4
 446              		.cfi_offset 14, -4
 447 0002 85B0     		sub	sp, sp, #20
 448              		.cfi_def_cfa_offset 24
 449 0004 0190     		str	r0, [sp, #4]
 450              	.LBB10:
 451              		.loc 1 169 0
 452 0006 2023     		movs	r3, #32
 453              	@ 169 "/home/denny/r2p-sdk/modules/uDC_module/qei.c" 1
 454 0008 83F31188 		msr     BASEPRI, r3
 455              	@ 0 "" 2
 456              		.thumb
 457              	.LBE10:
 458 000c FFF7FEFF 		bl	dbg_check_lock
 459              		.loc 1 170 0
 460 0010 019B     		ldr	r3, [sp, #4]
 461 0012 9B68     		ldr	r3, [r3, #8]
 462 0014 5B6A     		ldr	r3, [r3, #36]
 463 0016 ADF80E30 		strh	r3, [sp, #14]	@ movhi
 464              		.loc 1 171 0
 465 001a FFF7FEFF 		bl	dbg_check_unlock
 466              	.LBB11:
 467 001e 0023     		movs	r3, #0
 468              	@ 171 "/home/denny/r2p-sdk/modules/uDC_module/qei.c" 1
 469 0020 83F31188 		msr     BASEPRI, r3
 470              	@ 0 "" 2
 471              		.thumb
 472              	.LBE11:
 473              		.loc 1 173 0
 474 0024 BDF80E30 		ldrh	r3, [sp, #14]
 475              		.loc 1 174 0
 476 0028 1846     		mov	r0, r3
 477 002a 05B0     		add	sp, sp, #20
 478              		.cfi_def_cfa_offset 4
 479              		@ sp needed
 480 002c 5DF804FB 		ldr	pc, [sp], #4
 481              		.cfi_endproc
 482              	.LFE124:
 483              		.size	qeiGetCount, .-qeiGetCount
ARM GAS  /tmp/ccACWqgx.s 			page 10


 484              		.section	.text.qeiUpdate,"ax",%progbits
 485              		.align	2
 486              		.p2align 4,,15
 487              		.global	qeiUpdate
 488              		.thumb
 489              		.thumb_func
 490              		.type	qeiUpdate, %function
 491              	qeiUpdate:
 492              	.LFB125:
 493              		.loc 1 184 0
 494              		.cfi_startproc
 495              		@ args = 0, pretend = 0, frame = 16
 496              		@ frame_needed = 0, uses_anonymous_args = 0
 497 0000 00B5     		push	{lr}
 498              		.cfi_def_cfa_offset 4
 499              		.cfi_offset 14, -4
 500 0002 85B0     		sub	sp, sp, #20
 501              		.cfi_def_cfa_offset 24
 502 0004 0190     		str	r0, [sp, #4]
 503              	.LBB12:
 504              		.loc 1 187 0
 505 0006 2023     		movs	r3, #32
 506              	@ 187 "/home/denny/r2p-sdk/modules/uDC_module/qei.c" 1
 507 0008 83F31188 		msr     BASEPRI, r3
 508              	@ 0 "" 2
 509              		.thumb
 510              	.LBE12:
 511 000c FFF7FEFF 		bl	dbg_check_lock
 512              		.loc 1 188 0
 513 0010 0198     		ldr	r0, [sp, #4]
 514 0012 FFF7FEFF 		bl	qeiUpdateI
 515 0016 0346     		mov	r3, r0
 516 0018 ADF80E30 		strh	r3, [sp, #14]	@ movhi
 517              		.loc 1 189 0
 518 001c FFF7FEFF 		bl	dbg_check_unlock
 519              	.LBB13:
 520 0020 0023     		movs	r3, #0
 521              	@ 189 "/home/denny/r2p-sdk/modules/uDC_module/qei.c" 1
 522 0022 83F31188 		msr     BASEPRI, r3
 523              	@ 0 "" 2
 524              		.thumb
 525              	.LBE13:
 526              		.loc 1 191 0
 527 0026 BDF80E30 		ldrh	r3, [sp, #14]
 528 002a 1BB2     		sxth	r3, r3
 529              		.loc 1 192 0
 530 002c 1846     		mov	r0, r3
 531 002e 05B0     		add	sp, sp, #20
 532              		.cfi_def_cfa_offset 4
 533              		@ sp needed
 534 0030 5DF804FB 		ldr	pc, [sp], #4
 535              		.cfi_endproc
 536              	.LFE125:
 537              		.size	qeiUpdate, .-qeiUpdate
 538 0034 AFF30080 		.section	.rodata
 538      AFF30080 
 538      AFF30080 
ARM GAS  /tmp/ccACWqgx.s 			page 11


 539 007d 000000   		.align	2
 540              	.LC8:
 541 0080 22716569 		.ascii	"\"qeiUpdate\"()\000"
 541      55706461 
 541      74652228 
 541      2900
 542 008e 0000     		.align	2
 543              	.LC9:
 544 0090 71656955 		.ascii	"qeiUpdate(), #1\000"
 544      70646174 
 544      6528292C 
 544      20233100 
 545              		.section	.text.qeiUpdateI,"ax",%progbits
 546              		.align	2
 547              		.p2align 4,,15
 548              		.global	qeiUpdateI
 549              		.thumb
 550              		.thumb_func
 551              		.type	qeiUpdateI, %function
 552              	qeiUpdateI:
 553              	.LFB126:
 554              		.loc 1 202 0
 555              		.cfi_startproc
 556              		@ args = 0, pretend = 0, frame = 16
 557              		@ frame_needed = 0, uses_anonymous_args = 0
 558 0000 00B5     		push	{lr}
 559              		.cfi_def_cfa_offset 4
 560              		.cfi_offset 14, -4
 561 0002 85B0     		sub	sp, sp, #20
 562              		.cfi_def_cfa_offset 24
 563 0004 0190     		str	r0, [sp, #4]
 564              		.loc 1 206 0
 565 0006 FFF7FEFF 		bl	chDbgCheckClassI
 566              		.loc 1 207 0
 567 000a 019B     		ldr	r3, [sp, #4]
 568 000c 002B     		cmp	r3, #0
 569 000e 02D1     		bne	.L29
 570              		.loc 1 207 0 is_stmt 0 discriminator 1
 571 0010 1248     		ldr	r0, .L32
 572 0012 FFF7FEFF 		bl	chDbgPanic
 573              	.L29:
 574              		.loc 1 208 0 is_stmt 1
 575 0016 019B     		ldr	r3, [sp, #4]
 576 0018 1B78     		ldrb	r3, [r3]	@ zero_extendqisi2
 577 001a 022B     		cmp	r3, #2
 578 001c 06D0     		beq	.L30
 579              		.loc 1 208 0 is_stmt 0 discriminator 1
 580 001e 019B     		ldr	r3, [sp, #4]
 581 0020 1B78     		ldrb	r3, [r3]	@ zero_extendqisi2
 582 0022 032B     		cmp	r3, #3
 583 0024 02D0     		beq	.L30
 584              		.loc 1 208 0 discriminator 2
 585 0026 0E48     		ldr	r0, .L32+4
 586 0028 FFF7FEFF 		bl	chDbgPanic
 587              	.L30:
 588              		.loc 1 211 0 is_stmt 1
 589 002c 019B     		ldr	r3, [sp, #4]
ARM GAS  /tmp/ccACWqgx.s 			page 12


 590 002e 9B68     		ldr	r3, [r3, #8]
 591 0030 5B6A     		ldr	r3, [r3, #36]
 592 0032 ADF80E30 		strh	r3, [sp, #14]	@ movhi
 593              		.loc 1 212 0
 594 0036 019B     		ldr	r3, [sp, #4]
 595 0038 5B88     		ldrh	r3, [r3, #2]
 596 003a BDF80E20 		ldrh	r2, [sp, #14]	@ movhi
 597 003e D31A     		subs	r3, r2, r3
 598 0040 9BB2     		uxth	r3, r3
 599 0042 ADF80C30 		strh	r3, [sp, #12]	@ movhi
 600              		.loc 1 213 0
 601 0046 019B     		ldr	r3, [sp, #4]
 602 0048 BDF80E20 		ldrh	r2, [sp, #14]	@ movhi
 603 004c 5A80     		strh	r2, [r3, #2]	@ movhi
 604              		.loc 1 215 0
 605 004e BDF80C30 		ldrh	r3, [sp, #12]
 606 0052 1BB2     		sxth	r3, r3
 607              		.loc 1 216 0
 608 0054 1846     		mov	r0, r3
 609 0056 05B0     		add	sp, sp, #20
 610              		.cfi_def_cfa_offset 4
 611              		@ sp needed
 612 0058 5DF804FB 		ldr	pc, [sp], #4
 613              	.L33:
 614              		.align	2
 615              	.L32:
 616 005c 80000000 		.word	.LC8
 617 0060 90000000 		.word	.LC9
 618              		.cfi_endproc
 619              	.LFE126:
 620              		.size	qeiUpdateI, .-qeiUpdateI
 621 0064 AFF30080 		.text
 621      AFF30080 
 621      AFF30080 
 622              	.Letext0:
 623              		.file 2 "/home/denny/r2p-sdk/tools/gcc-arm-none-eabi-4_9-2014q4/arm-none-eabi/include/machine/_def
 624              		.file 3 "/home/denny/r2p-sdk/tools/gcc-arm-none-eabi-4_9-2014q4/arm-none-eabi/include/stdint.h"
 625              		.file 4 "/home/denny/r2p-sdk/core/ChibiOS/os/hal/platforms/STM32/TIMv1/stm32_tim.h"
 626              		.file 5 "/home/denny/r2p-sdk/modules/uDC_module/qei.h"
 627              		.file 6 "/home/denny/r2p-sdk/modules/uDC_module/qei_lld.h"
 628              		.file 7 "/home/denny/r2p-sdk/core/ChibiOS/os/ports/common/ARMCMx/CMSIS/include/core_cm4.h"
 629              		.section	.debug_info,"",%progbits
 630              	.Ldebug_info0:
 631 0000 1B060000 		.4byte	0x61b
 632 0004 0400     		.2byte	0x4
 633 0006 00000000 		.4byte	.Ldebug_abbrev0
 634 000a 04       		.byte	0x4
 635 000b 01       		.uleb128 0x1
 636 000c 7D000000 		.4byte	.LASF67
 637 0010 01       		.byte	0x1
 638 0011 74030000 		.4byte	.LASF68
 639 0015 00000000 		.4byte	.Ldebug_ranges0+0
 640 0019 00000000 		.4byte	0
 641 001d 00000000 		.4byte	.Ldebug_line0
 642 0021 02       		.uleb128 0x2
 643 0022 04       		.byte	0x4
 644 0023 05       		.byte	0x5
ARM GAS  /tmp/ccACWqgx.s 			page 13


 645 0024 696E7400 		.ascii	"int\000"
 646 0028 03       		.uleb128 0x3
 647 0029 04       		.byte	0x4
 648 002a 07       		.byte	0x7
 649 002b 96020000 		.4byte	.LASF0
 650 002f 03       		.uleb128 0x3
 651 0030 01       		.byte	0x1
 652 0031 06       		.byte	0x6
 653 0032 4F020000 		.4byte	.LASF1
 654 0036 03       		.uleb128 0x3
 655 0037 01       		.byte	0x1
 656 0038 08       		.byte	0x8
 657 0039 41020000 		.4byte	.LASF2
 658 003d 04       		.uleb128 0x4
 659 003e AB030000 		.4byte	.LASF4
 660 0042 02       		.byte	0x2
 661 0043 29       		.byte	0x29
 662 0044 48000000 		.4byte	0x48
 663 0048 03       		.uleb128 0x3
 664 0049 02       		.byte	0x2
 665 004a 05       		.byte	0x5
 666 004b 21000000 		.4byte	.LASF3
 667 004f 04       		.uleb128 0x4
 668 0050 72000000 		.4byte	.LASF5
 669 0054 02       		.byte	0x2
 670 0055 2B       		.byte	0x2b
 671 0056 5A000000 		.4byte	0x5a
 672 005a 03       		.uleb128 0x3
 673 005b 02       		.byte	0x2
 674 005c 07       		.byte	0x7
 675 005d C4020000 		.4byte	.LASF6
 676 0061 04       		.uleb128 0x4
 677 0062 A1030000 		.4byte	.LASF7
 678 0066 02       		.byte	0x2
 679 0067 3F       		.byte	0x3f
 680 0068 6C000000 		.4byte	0x6c
 681 006c 03       		.uleb128 0x3
 682 006d 04       		.byte	0x4
 683 006e 05       		.byte	0x5
 684 006f DE010000 		.4byte	.LASF8
 685 0073 04       		.uleb128 0x4
 686 0074 62000000 		.4byte	.LASF9
 687 0078 02       		.byte	0x2
 688 0079 41       		.byte	0x41
 689 007a 7E000000 		.4byte	0x7e
 690 007e 03       		.uleb128 0x3
 691 007f 04       		.byte	0x4
 692 0080 07       		.byte	0x7
 693 0081 62030000 		.4byte	.LASF10
 694 0085 03       		.uleb128 0x3
 695 0086 08       		.byte	0x8
 696 0087 05       		.byte	0x5
 697 0088 BB010000 		.4byte	.LASF11
 698 008c 03       		.uleb128 0x3
 699 008d 08       		.byte	0x8
 700 008e 07       		.byte	0x7
 701 008f 67020000 		.4byte	.LASF12
ARM GAS  /tmp/ccACWqgx.s 			page 14


 702 0093 04       		.uleb128 0x4
 703 0094 CA030000 		.4byte	.LASF13
 704 0098 03       		.byte	0x3
 705 0099 20       		.byte	0x20
 706 009a 3D000000 		.4byte	0x3d
 707 009e 04       		.uleb128 0x4
 708 009f A3020000 		.4byte	.LASF14
 709 00a3 03       		.byte	0x3
 710 00a4 21       		.byte	0x21
 711 00a5 4F000000 		.4byte	0x4f
 712 00a9 04       		.uleb128 0x4
 713 00aa F5020000 		.4byte	.LASF15
 714 00ae 03       		.byte	0x3
 715 00af 2C       		.byte	0x2c
 716 00b0 61000000 		.4byte	0x61
 717 00b4 04       		.uleb128 0x4
 718 00b5 8D020000 		.4byte	.LASF16
 719 00b9 03       		.byte	0x3
 720 00ba 2D       		.byte	0x2d
 721 00bb 73000000 		.4byte	0x73
 722 00bf 03       		.uleb128 0x3
 723 00c0 01       		.byte	0x1
 724 00c1 02       		.byte	0x2
 725 00c2 0F030000 		.4byte	.LASF17
 726 00c6 05       		.uleb128 0x5
 727 00c7 B4000000 		.4byte	0xb4
 728 00cb 03       		.uleb128 0x3
 729 00cc 04       		.byte	0x4
 730 00cd 07       		.byte	0x7
 731 00ce 3A000000 		.4byte	.LASF18
 732 00d2 03       		.uleb128 0x3
 733 00d3 01       		.byte	0x1
 734 00d4 08       		.byte	0x8
 735 00d5 DF020000 		.4byte	.LASF19
 736 00d9 06       		.uleb128 0x6
 737 00da B4000000 		.4byte	0xb4
 738 00de E9000000 		.4byte	0xe9
 739 00e2 07       		.uleb128 0x7
 740 00e3 CB000000 		.4byte	0xcb
 741 00e7 03       		.byte	0x3
 742 00e8 00       		.byte	0
 743 00e9 05       		.uleb128 0x5
 744 00ea A9000000 		.4byte	0xa9
 745 00ee 08       		.uleb128 0x8
 746 00ef 60       		.byte	0x60
 747 00f0 04       		.byte	0x4
 748 00f1 9E01     		.2byte	0x19e
 749 00f3 07020000 		.4byte	0x207
 750 00f7 09       		.uleb128 0x9
 751 00f8 43523100 		.ascii	"CR1\000"
 752 00fc 04       		.byte	0x4
 753 00fd 9F01     		.2byte	0x19f
 754 00ff C6000000 		.4byte	0xc6
 755 0103 00       		.byte	0
 756 0104 09       		.uleb128 0x9
 757 0105 43523200 		.ascii	"CR2\000"
 758 0109 04       		.byte	0x4
ARM GAS  /tmp/ccACWqgx.s 			page 15


 759 010a A001     		.2byte	0x1a0
 760 010c C6000000 		.4byte	0xc6
 761 0110 04       		.byte	0x4
 762 0111 0A       		.uleb128 0xa
 763 0112 2B000000 		.4byte	.LASF20
 764 0116 04       		.byte	0x4
 765 0117 A101     		.2byte	0x1a1
 766 0119 C6000000 		.4byte	0xc6
 767 011d 08       		.byte	0x8
 768 011e 0A       		.uleb128 0xa
 769 011f BF020000 		.4byte	.LASF21
 770 0123 04       		.byte	0x4
 771 0124 A201     		.2byte	0x1a2
 772 0126 C6000000 		.4byte	0xc6
 773 012a 0C       		.byte	0xc
 774 012b 09       		.uleb128 0x9
 775 012c 535200   		.ascii	"SR\000"
 776 012f 04       		.byte	0x4
 777 0130 A301     		.2byte	0x1a3
 778 0132 C6000000 		.4byte	0xc6
 779 0136 10       		.byte	0x10
 780 0137 09       		.uleb128 0x9
 781 0138 45475200 		.ascii	"EGR\000"
 782 013c 04       		.byte	0x4
 783 013d A401     		.2byte	0x1a4
 784 013f C6000000 		.4byte	0xc6
 785 0143 14       		.byte	0x14
 786 0144 0A       		.uleb128 0xa
 787 0145 02020000 		.4byte	.LASF22
 788 0149 04       		.byte	0x4
 789 014a A501     		.2byte	0x1a5
 790 014c C6000000 		.4byte	0xc6
 791 0150 18       		.byte	0x18
 792 0151 0A       		.uleb128 0xa
 793 0152 15000000 		.4byte	.LASF23
 794 0156 04       		.byte	0x4
 795 0157 A601     		.2byte	0x1a6
 796 0159 C6000000 		.4byte	0xc6
 797 015d 1C       		.byte	0x1c
 798 015e 0A       		.uleb128 0xa
 799 015f 00000000 		.4byte	.LASF24
 800 0163 04       		.byte	0x4
 801 0164 A701     		.2byte	0x1a7
 802 0166 C6000000 		.4byte	0xc6
 803 016a 20       		.byte	0x20
 804 016b 09       		.uleb128 0x9
 805 016c 434E5400 		.ascii	"CNT\000"
 806 0170 04       		.byte	0x4
 807 0171 A801     		.2byte	0x1a8
 808 0173 C6000000 		.4byte	0xc6
 809 0177 24       		.byte	0x24
 810 0178 09       		.uleb128 0x9
 811 0179 50534300 		.ascii	"PSC\000"
 812 017d 04       		.byte	0x4
 813 017e A901     		.2byte	0x1a9
 814 0180 C6000000 		.4byte	0xc6
 815 0184 28       		.byte	0x28
ARM GAS  /tmp/ccACWqgx.s 			page 16


 816 0185 09       		.uleb128 0x9
 817 0186 41525200 		.ascii	"ARR\000"
 818 018a 04       		.byte	0x4
 819 018b AA01     		.2byte	0x1aa
 820 018d C6000000 		.4byte	0xc6
 821 0191 2C       		.byte	0x2c
 822 0192 09       		.uleb128 0x9
 823 0193 52435200 		.ascii	"RCR\000"
 824 0197 04       		.byte	0x4
 825 0198 AB01     		.2byte	0x1ab
 826 019a C6000000 		.4byte	0xc6
 827 019e 30       		.byte	0x30
 828 019f 09       		.uleb128 0x9
 829 01a0 43435200 		.ascii	"CCR\000"
 830 01a4 04       		.byte	0x4
 831 01a5 AC01     		.2byte	0x1ac
 832 01a7 07020000 		.4byte	0x207
 833 01ab 34       		.byte	0x34
 834 01ac 0A       		.uleb128 0xa
 835 01ad F0020000 		.4byte	.LASF25
 836 01b1 04       		.byte	0x4
 837 01b2 AD01     		.2byte	0x1ad
 838 01b4 C6000000 		.4byte	0xc6
 839 01b8 44       		.byte	0x44
 840 01b9 09       		.uleb128 0x9
 841 01ba 44435200 		.ascii	"DCR\000"
 842 01be 04       		.byte	0x4
 843 01bf AE01     		.2byte	0x1ae
 844 01c1 C6000000 		.4byte	0xc6
 845 01c5 48       		.byte	0x48
 846 01c6 0A       		.uleb128 0xa
 847 01c7 05000000 		.4byte	.LASF26
 848 01cb 04       		.byte	0x4
 849 01cc AF01     		.2byte	0x1af
 850 01ce C6000000 		.4byte	0xc6
 851 01d2 4C       		.byte	0x4c
 852 01d3 09       		.uleb128 0x9
 853 01d4 4F5200   		.ascii	"OR\000"
 854 01d7 04       		.byte	0x4
 855 01d8 B001     		.2byte	0x1b0
 856 01da C6000000 		.4byte	0xc6
 857 01de 50       		.byte	0x50
 858 01df 0A       		.uleb128 0xa
 859 01e0 1B000000 		.4byte	.LASF27
 860 01e4 04       		.byte	0x4
 861 01e5 B101     		.2byte	0x1b1
 862 01e7 C6000000 		.4byte	0xc6
 863 01eb 54       		.byte	0x54
 864 01ec 0A       		.uleb128 0xa
 865 01ed E7010000 		.4byte	.LASF28
 866 01f1 04       		.byte	0x4
 867 01f2 B201     		.2byte	0x1b2
 868 01f4 C6000000 		.4byte	0xc6
 869 01f8 58       		.byte	0x58
 870 01f9 0A       		.uleb128 0xa
 871 01fa EC010000 		.4byte	.LASF29
 872 01fe 04       		.byte	0x4
ARM GAS  /tmp/ccACWqgx.s 			page 17


 873 01ff B301     		.2byte	0x1b3
 874 0201 C6000000 		.4byte	0xc6
 875 0205 5C       		.byte	0x5c
 876 0206 00       		.byte	0
 877 0207 05       		.uleb128 0x5
 878 0208 D9000000 		.4byte	0xd9
 879 020c 0B       		.uleb128 0xb
 880 020d E4020000 		.4byte	.LASF30
 881 0211 04       		.byte	0x4
 882 0212 B401     		.2byte	0x1b4
 883 0214 EE000000 		.4byte	0xee
 884 0218 0C       		.uleb128 0xc
 885 0219 04       		.byte	0x4
 886 021a 0C020000 		.4byte	0x20c
 887 021e 0D       		.uleb128 0xd
 888 021f 01       		.byte	0x1
 889 0220 05       		.byte	0x5
 890 0221 35       		.byte	0x35
 891 0222 3F020000 		.4byte	0x23f
 892 0226 0E       		.uleb128 0xe
 893 0227 D3010000 		.4byte	.LASF31
 894 022b 00       		.sleb128 0
 895 022c 0E       		.uleb128 0xe
 896 022d 2D020000 		.4byte	.LASF32
 897 0231 01       		.sleb128 1
 898 0232 0E       		.uleb128 0xe
 899 0233 B1010000 		.4byte	.LASF33
 900 0237 02       		.sleb128 2
 901 0238 0E       		.uleb128 0xe
 902 0239 36020000 		.4byte	.LASF34
 903 023d 03       		.sleb128 3
 904 023e 00       		.byte	0
 905 023f 04       		.uleb128 0x4
 906 0240 57000000 		.4byte	.LASF35
 907 0244 05       		.byte	0x5
 908 0245 3A       		.byte	0x3a
 909 0246 1E020000 		.4byte	0x21e
 910 024a 04       		.uleb128 0x4
 911 024b C9010000 		.4byte	.LASF36
 912 024f 05       		.byte	0x5
 913 0250 3F       		.byte	0x3f
 914 0251 55020000 		.4byte	0x255
 915 0255 0F       		.uleb128 0xf
 916 0256 C9010000 		.4byte	.LASF36
 917 025a 0C       		.byte	0xc
 918 025b 06       		.byte	0x6
 919 025c 1F01     		.2byte	0x11f
 920 025e 97020000 		.4byte	0x297
 921 0262 0A       		.uleb128 0xa
 922 0263 0F000000 		.4byte	.LASF37
 923 0267 06       		.byte	0x6
 924 0268 2301     		.2byte	0x123
 925 026a 3F020000 		.4byte	0x23f
 926 026e 00       		.byte	0
 927 026f 0A       		.uleb128 0xa
 928 0270 D2030000 		.4byte	.LASF38
 929 0274 06       		.byte	0x6
ARM GAS  /tmp/ccACWqgx.s 			page 18


 930 0275 2701     		.2byte	0x127
 931 0277 03030000 		.4byte	0x303
 932 027b 02       		.byte	0x2
 933 027c 0A       		.uleb128 0xa
 934 027d 96010000 		.4byte	.LASF39
 935 0281 06       		.byte	0x6
 936 0282 2B01     		.2byte	0x12b
 937 0284 58030000 		.4byte	0x358
 938 0288 04       		.byte	0x4
 939 0289 09       		.uleb128 0x9
 940 028a 74696D00 		.ascii	"tim\000"
 941 028e 06       		.byte	0x6
 942 028f 3301     		.2byte	0x133
 943 0291 18020000 		.4byte	0x218
 944 0295 08       		.byte	0x8
 945 0296 00       		.byte	0
 946 0297 0C       		.uleb128 0xc
 947 0298 04       		.byte	0x4
 948 0299 4A020000 		.4byte	0x24a
 949 029d 0D       		.uleb128 0xd
 950 029e 01       		.byte	0x1
 951 029f 06       		.byte	0x6
 952 02a0 E8       		.byte	0xe8
 953 02a1 B8020000 		.4byte	0x2b8
 954 02a5 0E       		.uleb128 0xe
 955 02a6 35030000 		.4byte	.LASF40
 956 02aa 00       		.sleb128 0
 957 02ab 0E       		.uleb128 0xe
 958 02ac D7030000 		.4byte	.LASF41
 959 02b0 01       		.sleb128 1
 960 02b1 0E       		.uleb128 0xe
 961 02b2 AC020000 		.4byte	.LASF42
 962 02b6 02       		.sleb128 2
 963 02b7 00       		.byte	0
 964 02b8 04       		.uleb128 0x4
 965 02b9 C0030000 		.4byte	.LASF43
 966 02bd 06       		.byte	0x6
 967 02be EC       		.byte	0xec
 968 02bf 9D020000 		.4byte	0x29d
 969 02c3 0D       		.uleb128 0xd
 970 02c4 01       		.byte	0x1
 971 02c5 06       		.byte	0x6
 972 02c6 F1       		.byte	0xf1
 973 02c7 D8020000 		.4byte	0x2d8
 974 02cb 0E       		.uleb128 0xe
 975 02cc 13020000 		.4byte	.LASF44
 976 02d0 00       		.sleb128 0
 977 02d1 0E       		.uleb128 0xe
 978 02d2 7E020000 		.4byte	.LASF45
 979 02d6 01       		.sleb128 1
 980 02d7 00       		.byte	0
 981 02d8 04       		.uleb128 0x4
 982 02d9 25030000 		.4byte	.LASF46
 983 02dd 06       		.byte	0x6
 984 02de F4       		.byte	0xf4
 985 02df C3020000 		.4byte	0x2c3
 986 02e3 0D       		.uleb128 0xd
ARM GAS  /tmp/ccACWqgx.s 			page 19


 987 02e4 01       		.byte	0x1
 988 02e5 06       		.byte	0x6
 989 02e6 F9       		.byte	0xf9
 990 02e7 F8020000 		.4byte	0x2f8
 991 02eb 0E       		.uleb128 0xe
 992 02ec F1010000 		.4byte	.LASF47
 993 02f0 00       		.sleb128 0
 994 02f1 0E       		.uleb128 0xe
 995 02f2 15030000 		.4byte	.LASF48
 996 02f6 01       		.sleb128 1
 997 02f7 00       		.byte	0
 998 02f8 04       		.uleb128 0x4
 999 02f9 43000000 		.4byte	.LASF49
 1000 02fd 06       		.byte	0x6
 1001 02fe FC       		.byte	0xfc
 1002 02ff E3020000 		.4byte	0x2e3
 1003 0303 0B       		.uleb128 0xb
 1004 0304 49030000 		.4byte	.LASF50
 1005 0308 06       		.byte	0x6
 1006 0309 0101     		.2byte	0x101
 1007 030b 9E000000 		.4byte	0x9e
 1008 030f 0B       		.uleb128 0xb
 1009 0310 08020000 		.4byte	.LASF51
 1010 0314 06       		.byte	0x6
 1011 0315 0601     		.2byte	0x106
 1012 0317 93000000 		.4byte	0x93
 1013 031b 08       		.uleb128 0x8
 1014 031c 03       		.byte	0x3
 1015 031d 06       		.byte	0x6
 1016 031e 0C01     		.2byte	0x10c
 1017 0320 4C030000 		.4byte	0x34c
 1018 0324 0A       		.uleb128 0xa
 1019 0325 6D000000 		.4byte	.LASF52
 1020 0329 06       		.byte	0x6
 1021 032a 1001     		.2byte	0x110
 1022 032c B8020000 		.4byte	0x2b8
 1023 0330 00       		.byte	0
 1024 0331 0A       		.uleb128 0xa
 1025 0332 FD020000 		.4byte	.LASF53
 1026 0336 06       		.byte	0x6
 1027 0337 1401     		.2byte	0x114
 1028 0339 D8020000 		.4byte	0x2d8
 1029 033d 01       		.byte	0x1
 1030 033e 0A       		.uleb128 0xa
 1031 033f 08030000 		.4byte	.LASF54
 1032 0343 06       		.byte	0x6
 1033 0344 1801     		.2byte	0x118
 1034 0346 F8020000 		.4byte	0x2f8
 1035 034a 02       		.byte	0x2
 1036 034b 00       		.byte	0
 1037 034c 0B       		.uleb128 0xb
 1038 034d 23020000 		.4byte	.LASF55
 1039 0351 06       		.byte	0x6
 1040 0352 1A01     		.2byte	0x11a
 1041 0354 1B030000 		.4byte	0x31b
 1042 0358 0C       		.uleb128 0xc
 1043 0359 04       		.byte	0x4
ARM GAS  /tmp/ccACWqgx.s 			page 20


 1044 035a 5E030000 		.4byte	0x35e
 1045 035e 10       		.uleb128 0x10
 1046 035f 4C030000 		.4byte	0x34c
 1047 0363 11       		.uleb128 0x11
 1048 0364 4F000000 		.4byte	.LASF69
 1049 0368 01       		.byte	0x1
 1050 0369 3E       		.byte	0x3e
 1051 036a 00000000 		.4byte	.LFB118
 1052 036e 08000000 		.4byte	.LFE118-.LFB118
 1053 0372 01       		.uleb128 0x1
 1054 0373 9C       		.byte	0x9c
 1055 0374 12       		.uleb128 0x12
 1056 0375 A3010000 		.4byte	.LASF56
 1057 0379 01       		.byte	0x1
 1058 037a 4A       		.byte	0x4a
 1059 037b 00000000 		.4byte	.LFB119
 1060 037f 1A000000 		.4byte	.LFE119-.LFB119
 1061 0383 01       		.uleb128 0x1
 1062 0384 9C       		.byte	0x9c
 1063 0385 98030000 		.4byte	0x398
 1064 0389 13       		.uleb128 0x13
 1065 038a 5D030000 		.4byte	.LASF58
 1066 038e 01       		.byte	0x1
 1067 038f 4A       		.byte	0x4a
 1068 0390 97020000 		.4byte	0x297
 1069 0394 02       		.uleb128 0x2
 1070 0395 91       		.byte	0x91
 1071 0396 7C       		.sleb128 -4
 1072 0397 00       		.byte	0
 1073 0398 14       		.uleb128 0x14
 1074 0399 EA030000 		.4byte	.LASF57
 1075 039d 01       		.byte	0x1
 1076 039e 59       		.byte	0x59
 1077 039f 00000000 		.4byte	.LFB120
 1078 03a3 64000000 		.4byte	.LFE120-.LFB120
 1079 03a7 01       		.uleb128 0x1
 1080 03a8 9C       		.byte	0x9c
 1081 03a9 FC030000 		.4byte	0x3fc
 1082 03ad 13       		.uleb128 0x13
 1083 03ae 5D030000 		.4byte	.LASF58
 1084 03b2 01       		.byte	0x1
 1085 03b3 59       		.byte	0x59
 1086 03b4 97020000 		.4byte	0x297
 1087 03b8 02       		.uleb128 0x2
 1088 03b9 91       		.byte	0x91
 1089 03ba 74       		.sleb128 -12
 1090 03bb 13       		.uleb128 0x13
 1091 03bc 96010000 		.4byte	.LASF39
 1092 03c0 01       		.byte	0x1
 1093 03c1 59       		.byte	0x59
 1094 03c2 58030000 		.4byte	0x358
 1095 03c6 02       		.uleb128 0x2
 1096 03c7 91       		.byte	0x91
 1097 03c8 70       		.sleb128 -16
 1098 03c9 15       		.uleb128 0x15
 1099 03ca 1A000000 		.4byte	.LBB2
 1100 03ce 06000000 		.4byte	.LBE2-.LBB2
ARM GAS  /tmp/ccACWqgx.s 			page 21


 1101 03d2 E4030000 		.4byte	0x3e4
 1102 03d6 16       		.uleb128 0x16
 1103 03d7 746D7000 		.ascii	"tmp\000"
 1104 03db 01       		.byte	0x1
 1105 03dc 5D       		.byte	0x5d
 1106 03dd B4000000 		.4byte	0xb4
 1107 03e1 01       		.uleb128 0x1
 1108 03e2 53       		.byte	0x53
 1109 03e3 00       		.byte	0
 1110 03e4 17       		.uleb128 0x17
 1111 03e5 50000000 		.4byte	.LBB3
 1112 03e9 06000000 		.4byte	.LBE3-.LBB3
 1113 03ed 16       		.uleb128 0x16
 1114 03ee 746D7000 		.ascii	"tmp\000"
 1115 03f2 01       		.byte	0x1
 1116 03f3 63       		.byte	0x63
 1117 03f4 B4000000 		.4byte	0xb4
 1118 03f8 01       		.uleb128 0x1
 1119 03f9 53       		.byte	0x53
 1120 03fa 00       		.byte	0
 1121 03fb 00       		.byte	0
 1122 03fc 14       		.uleb128 0x14
 1123 03fd D7020000 		.4byte	.LASF59
 1124 0401 01       		.byte	0x1
 1125 0402 6D       		.byte	0x6d
 1126 0403 00000000 		.4byte	.LFB121
 1127 0407 58000000 		.4byte	.LFE121-.LFB121
 1128 040b 01       		.uleb128 0x1
 1129 040c 9C       		.byte	0x9c
 1130 040d 52040000 		.4byte	0x452
 1131 0411 13       		.uleb128 0x13
 1132 0412 5D030000 		.4byte	.LASF58
 1133 0416 01       		.byte	0x1
 1134 0417 6D       		.byte	0x6d
 1135 0418 97020000 		.4byte	0x297
 1136 041c 02       		.uleb128 0x2
 1137 041d 91       		.byte	0x91
 1138 041e 74       		.sleb128 -12
 1139 041f 15       		.uleb128 0x15
 1140 0420 12000000 		.4byte	.LBB4
 1141 0424 06000000 		.4byte	.LBE4-.LBB4
 1142 0428 3A040000 		.4byte	0x43a
 1143 042c 16       		.uleb128 0x16
 1144 042d 746D7000 		.ascii	"tmp\000"
 1145 0431 01       		.byte	0x1
 1146 0432 71       		.byte	0x71
 1147 0433 B4000000 		.4byte	0xb4
 1148 0437 01       		.uleb128 0x1
 1149 0438 53       		.byte	0x53
 1150 0439 00       		.byte	0
 1151 043a 17       		.uleb128 0x17
 1152 043b 42000000 		.4byte	.LBB5
 1153 043f 06000000 		.4byte	.LBE5-.LBB5
 1154 0443 16       		.uleb128 0x16
 1155 0444 746D7000 		.ascii	"tmp\000"
 1156 0448 01       		.byte	0x1
 1157 0449 76       		.byte	0x76
ARM GAS  /tmp/ccACWqgx.s 			page 22


 1158 044a B4000000 		.4byte	0xb4
 1159 044e 01       		.uleb128 0x1
 1160 044f 53       		.byte	0x53
 1161 0450 00       		.byte	0
 1162 0451 00       		.byte	0
 1163 0452 14       		.uleb128 0x14
 1164 0453 00040000 		.4byte	.LASF60
 1165 0457 01       		.byte	0x1
 1166 0458 80       		.byte	0x80
 1167 0459 00000000 		.4byte	.LFB122
 1168 045d 50000000 		.4byte	.LFE122-.LFB122
 1169 0461 01       		.uleb128 0x1
 1170 0462 9C       		.byte	0x9c
 1171 0463 A8040000 		.4byte	0x4a8
 1172 0467 13       		.uleb128 0x13
 1173 0468 5D030000 		.4byte	.LASF58
 1174 046c 01       		.byte	0x1
 1175 046d 80       		.byte	0x80
 1176 046e 97020000 		.4byte	0x297
 1177 0472 02       		.uleb128 0x2
 1178 0473 91       		.byte	0x91
 1179 0474 74       		.sleb128 -12
 1180 0475 15       		.uleb128 0x15
 1181 0476 12000000 		.4byte	.LBB6
 1182 047a 06000000 		.4byte	.LBE6-.LBB6
 1183 047e 90040000 		.4byte	0x490
 1184 0482 16       		.uleb128 0x16
 1185 0483 746D7000 		.ascii	"tmp\000"
 1186 0487 01       		.byte	0x1
 1187 0488 84       		.byte	0x84
 1188 0489 B4000000 		.4byte	0xb4
 1189 048d 01       		.uleb128 0x1
 1190 048e 53       		.byte	0x53
 1191 048f 00       		.byte	0
 1192 0490 17       		.uleb128 0x17
 1193 0491 3A000000 		.4byte	.LBB7
 1194 0495 06000000 		.4byte	.LBE7-.LBB7
 1195 0499 16       		.uleb128 0x16
 1196 049a 746D7000 		.ascii	"tmp\000"
 1197 049e 01       		.byte	0x1
 1198 049f 88       		.byte	0x88
 1199 04a0 B4000000 		.4byte	0xb4
 1200 04a4 01       		.uleb128 0x1
 1201 04a5 53       		.byte	0x53
 1202 04a6 00       		.byte	0
 1203 04a7 00       		.byte	0
 1204 04a8 14       		.uleb128 0x14
 1205 04a9 B5030000 		.4byte	.LASF61
 1206 04ad 01       		.byte	0x1
 1207 04ae 92       		.byte	0x92
 1208 04af 00000000 		.4byte	.LFB123
 1209 04b3 58000000 		.4byte	.LFE123-.LFB123
 1210 04b7 01       		.uleb128 0x1
 1211 04b8 9C       		.byte	0x9c
 1212 04b9 FE040000 		.4byte	0x4fe
 1213 04bd 13       		.uleb128 0x13
 1214 04be 5D030000 		.4byte	.LASF58
ARM GAS  /tmp/ccACWqgx.s 			page 23


 1215 04c2 01       		.byte	0x1
 1216 04c3 92       		.byte	0x92
 1217 04c4 97020000 		.4byte	0x297
 1218 04c8 02       		.uleb128 0x2
 1219 04c9 91       		.byte	0x91
 1220 04ca 74       		.sleb128 -12
 1221 04cb 15       		.uleb128 0x15
 1222 04cc 12000000 		.4byte	.LBB8
 1223 04d0 06000000 		.4byte	.LBE8-.LBB8
 1224 04d4 E6040000 		.4byte	0x4e6
 1225 04d8 16       		.uleb128 0x16
 1226 04d9 746D7000 		.ascii	"tmp\000"
 1227 04dd 01       		.byte	0x1
 1228 04de 96       		.byte	0x96
 1229 04df B4000000 		.4byte	0xb4
 1230 04e3 01       		.uleb128 0x1
 1231 04e4 53       		.byte	0x53
 1232 04e5 00       		.byte	0
 1233 04e6 17       		.uleb128 0x17
 1234 04e7 42000000 		.4byte	.LBB9
 1235 04eb 06000000 		.4byte	.LBE9-.LBB9
 1236 04ef 16       		.uleb128 0x16
 1237 04f0 746D7000 		.ascii	"tmp\000"
 1238 04f4 01       		.byte	0x1
 1239 04f5 9B       		.byte	0x9b
 1240 04f6 B4000000 		.4byte	0xb4
 1241 04fa 01       		.uleb128 0x1
 1242 04fb 53       		.byte	0x53
 1243 04fc 00       		.byte	0
 1244 04fd 00       		.byte	0
 1245 04fe 18       		.uleb128 0x18
 1246 04ff 5B020000 		.4byte	.LASF62
 1247 0503 01       		.byte	0x1
 1248 0504 A6       		.byte	0xa6
 1249 0505 03030000 		.4byte	0x303
 1250 0509 00000000 		.4byte	.LFB124
 1251 050d 30000000 		.4byte	.LFE124-.LFB124
 1252 0511 01       		.uleb128 0x1
 1253 0512 9C       		.byte	0x9c
 1254 0513 66050000 		.4byte	0x566
 1255 0517 13       		.uleb128 0x13
 1256 0518 5D030000 		.4byte	.LASF58
 1257 051c 01       		.byte	0x1
 1258 051d A6       		.byte	0xa6
 1259 051e 97020000 		.4byte	0x297
 1260 0522 02       		.uleb128 0x2
 1261 0523 91       		.byte	0x91
 1262 0524 6C       		.sleb128 -20
 1263 0525 16       		.uleb128 0x16
 1264 0526 636E7400 		.ascii	"cnt\000"
 1265 052a 01       		.byte	0x1
 1266 052b A7       		.byte	0xa7
 1267 052c 03030000 		.4byte	0x303
 1268 0530 02       		.uleb128 0x2
 1269 0531 91       		.byte	0x91
 1270 0532 76       		.sleb128 -10
 1271 0533 15       		.uleb128 0x15
ARM GAS  /tmp/ccACWqgx.s 			page 24


 1272 0534 06000000 		.4byte	.LBB10
 1273 0538 06000000 		.4byte	.LBE10-.LBB10
 1274 053c 4E050000 		.4byte	0x54e
 1275 0540 16       		.uleb128 0x16
 1276 0541 746D7000 		.ascii	"tmp\000"
 1277 0545 01       		.byte	0x1
 1278 0546 A9       		.byte	0xa9
 1279 0547 B4000000 		.4byte	0xb4
 1280 054b 01       		.uleb128 0x1
 1281 054c 53       		.byte	0x53
 1282 054d 00       		.byte	0
 1283 054e 17       		.uleb128 0x17
 1284 054f 1E000000 		.4byte	.LBB11
 1285 0553 06000000 		.4byte	.LBE11-.LBB11
 1286 0557 16       		.uleb128 0x16
 1287 0558 746D7000 		.ascii	"tmp\000"
 1288 055c 01       		.byte	0x1
 1289 055d AB       		.byte	0xab
 1290 055e B4000000 		.4byte	0xb4
 1291 0562 01       		.uleb128 0x1
 1292 0563 53       		.byte	0x53
 1293 0564 00       		.byte	0
 1294 0565 00       		.byte	0
 1295 0566 18       		.uleb128 0x18
 1296 0567 30000000 		.4byte	.LASF63
 1297 056b 01       		.byte	0x1
 1298 056c B8       		.byte	0xb8
 1299 056d 0F030000 		.4byte	0x30f
 1300 0571 00000000 		.4byte	.LFB125
 1301 0575 34000000 		.4byte	.LFE125-.LFB125
 1302 0579 01       		.uleb128 0x1
 1303 057a 9C       		.byte	0x9c
 1304 057b CE050000 		.4byte	0x5ce
 1305 057f 13       		.uleb128 0x13
 1306 0580 5D030000 		.4byte	.LASF58
 1307 0584 01       		.byte	0x1
 1308 0585 B8       		.byte	0xb8
 1309 0586 97020000 		.4byte	0x297
 1310 058a 02       		.uleb128 0x2
 1311 058b 91       		.byte	0x91
 1312 058c 6C       		.sleb128 -20
 1313 058d 19       		.uleb128 0x19
 1314 058e 0A000000 		.4byte	.LASF64
 1315 0592 01       		.byte	0x1
 1316 0593 B9       		.byte	0xb9
 1317 0594 03030000 		.4byte	0x303
 1318 0598 02       		.uleb128 0x2
 1319 0599 91       		.byte	0x91
 1320 059a 76       		.sleb128 -10
 1321 059b 15       		.uleb128 0x15
 1322 059c 06000000 		.4byte	.LBB12
 1323 05a0 06000000 		.4byte	.LBE12-.LBB12
 1324 05a4 B6050000 		.4byte	0x5b6
 1325 05a8 16       		.uleb128 0x16
 1326 05a9 746D7000 		.ascii	"tmp\000"
 1327 05ad 01       		.byte	0x1
 1328 05ae BB       		.byte	0xbb
ARM GAS  /tmp/ccACWqgx.s 			page 25


 1329 05af B4000000 		.4byte	0xb4
 1330 05b3 01       		.uleb128 0x1
 1331 05b4 53       		.byte	0x53
 1332 05b5 00       		.byte	0
 1333 05b6 17       		.uleb128 0x17
 1334 05b7 20000000 		.4byte	.LBB13
 1335 05bb 06000000 		.4byte	.LBE13-.LBB13
 1336 05bf 16       		.uleb128 0x16
 1337 05c0 746D7000 		.ascii	"tmp\000"
 1338 05c4 01       		.byte	0x1
 1339 05c5 BD       		.byte	0xbd
 1340 05c6 B4000000 		.4byte	0xb4
 1341 05ca 01       		.uleb128 0x1
 1342 05cb 53       		.byte	0x53
 1343 05cc 00       		.byte	0
 1344 05cd 00       		.byte	0
 1345 05ce 18       		.uleb128 0x18
 1346 05cf 52030000 		.4byte	.LASF65
 1347 05d3 01       		.byte	0x1
 1348 05d4 CA       		.byte	0xca
 1349 05d5 0F030000 		.4byte	0x30f
 1350 05d9 00000000 		.4byte	.LFB126
 1351 05dd 64000000 		.4byte	.LFE126-.LFB126
 1352 05e1 01       		.uleb128 0x1
 1353 05e2 9C       		.byte	0x9c
 1354 05e3 12060000 		.4byte	0x612
 1355 05e7 13       		.uleb128 0x13
 1356 05e8 5D030000 		.4byte	.LASF58
 1357 05ec 01       		.byte	0x1
 1358 05ed CA       		.byte	0xca
 1359 05ee 97020000 		.4byte	0x297
 1360 05f2 02       		.uleb128 0x2
 1361 05f3 91       		.byte	0x91
 1362 05f4 6C       		.sleb128 -20
 1363 05f5 16       		.uleb128 0x16
 1364 05f6 636E7400 		.ascii	"cnt\000"
 1365 05fa 01       		.byte	0x1
 1366 05fb CB       		.byte	0xcb
 1367 05fc 03030000 		.4byte	0x303
 1368 0600 02       		.uleb128 0x2
 1369 0601 91       		.byte	0x91
 1370 0602 76       		.sleb128 -10
 1371 0603 19       		.uleb128 0x19
 1372 0604 9D010000 		.4byte	.LASF66
 1373 0608 01       		.byte	0x1
 1374 0609 CC       		.byte	0xcc
 1375 060a 0F030000 		.4byte	0x30f
 1376 060e 02       		.uleb128 0x2
 1377 060f 91       		.byte	0x91
 1378 0610 74       		.sleb128 -12
 1379 0611 00       		.byte	0
 1380 0612 1A       		.uleb128 0x1a
 1381 0613 F3030000 		.4byte	.LASF70
 1382 0617 07       		.byte	0x7
 1383 0618 9806     		.2byte	0x698
 1384 061a E9000000 		.4byte	0xe9
 1385 061e 00       		.byte	0
ARM GAS  /tmp/ccACWqgx.s 			page 26


 1386              		.section	.debug_abbrev,"",%progbits
 1387              	.Ldebug_abbrev0:
 1388 0000 01       		.uleb128 0x1
 1389 0001 11       		.uleb128 0x11
 1390 0002 01       		.byte	0x1
 1391 0003 25       		.uleb128 0x25
 1392 0004 0E       		.uleb128 0xe
 1393 0005 13       		.uleb128 0x13
 1394 0006 0B       		.uleb128 0xb
 1395 0007 03       		.uleb128 0x3
 1396 0008 0E       		.uleb128 0xe
 1397 0009 55       		.uleb128 0x55
 1398 000a 17       		.uleb128 0x17
 1399 000b 11       		.uleb128 0x11
 1400 000c 01       		.uleb128 0x1
 1401 000d 10       		.uleb128 0x10
 1402 000e 17       		.uleb128 0x17
 1403 000f 00       		.byte	0
 1404 0010 00       		.byte	0
 1405 0011 02       		.uleb128 0x2
 1406 0012 24       		.uleb128 0x24
 1407 0013 00       		.byte	0
 1408 0014 0B       		.uleb128 0xb
 1409 0015 0B       		.uleb128 0xb
 1410 0016 3E       		.uleb128 0x3e
 1411 0017 0B       		.uleb128 0xb
 1412 0018 03       		.uleb128 0x3
 1413 0019 08       		.uleb128 0x8
 1414 001a 00       		.byte	0
 1415 001b 00       		.byte	0
 1416 001c 03       		.uleb128 0x3
 1417 001d 24       		.uleb128 0x24
 1418 001e 00       		.byte	0
 1419 001f 0B       		.uleb128 0xb
 1420 0020 0B       		.uleb128 0xb
 1421 0021 3E       		.uleb128 0x3e
 1422 0022 0B       		.uleb128 0xb
 1423 0023 03       		.uleb128 0x3
 1424 0024 0E       		.uleb128 0xe
 1425 0025 00       		.byte	0
 1426 0026 00       		.byte	0
 1427 0027 04       		.uleb128 0x4
 1428 0028 16       		.uleb128 0x16
 1429 0029 00       		.byte	0
 1430 002a 03       		.uleb128 0x3
 1431 002b 0E       		.uleb128 0xe
 1432 002c 3A       		.uleb128 0x3a
 1433 002d 0B       		.uleb128 0xb
 1434 002e 3B       		.uleb128 0x3b
 1435 002f 0B       		.uleb128 0xb
 1436 0030 49       		.uleb128 0x49
 1437 0031 13       		.uleb128 0x13
 1438 0032 00       		.byte	0
 1439 0033 00       		.byte	0
 1440 0034 05       		.uleb128 0x5
 1441 0035 35       		.uleb128 0x35
 1442 0036 00       		.byte	0
ARM GAS  /tmp/ccACWqgx.s 			page 27


 1443 0037 49       		.uleb128 0x49
 1444 0038 13       		.uleb128 0x13
 1445 0039 00       		.byte	0
 1446 003a 00       		.byte	0
 1447 003b 06       		.uleb128 0x6
 1448 003c 01       		.uleb128 0x1
 1449 003d 01       		.byte	0x1
 1450 003e 49       		.uleb128 0x49
 1451 003f 13       		.uleb128 0x13
 1452 0040 01       		.uleb128 0x1
 1453 0041 13       		.uleb128 0x13
 1454 0042 00       		.byte	0
 1455 0043 00       		.byte	0
 1456 0044 07       		.uleb128 0x7
 1457 0045 21       		.uleb128 0x21
 1458 0046 00       		.byte	0
 1459 0047 49       		.uleb128 0x49
 1460 0048 13       		.uleb128 0x13
 1461 0049 2F       		.uleb128 0x2f
 1462 004a 0B       		.uleb128 0xb
 1463 004b 00       		.byte	0
 1464 004c 00       		.byte	0
 1465 004d 08       		.uleb128 0x8
 1466 004e 13       		.uleb128 0x13
 1467 004f 01       		.byte	0x1
 1468 0050 0B       		.uleb128 0xb
 1469 0051 0B       		.uleb128 0xb
 1470 0052 3A       		.uleb128 0x3a
 1471 0053 0B       		.uleb128 0xb
 1472 0054 3B       		.uleb128 0x3b
 1473 0055 05       		.uleb128 0x5
 1474 0056 01       		.uleb128 0x1
 1475 0057 13       		.uleb128 0x13
 1476 0058 00       		.byte	0
 1477 0059 00       		.byte	0
 1478 005a 09       		.uleb128 0x9
 1479 005b 0D       		.uleb128 0xd
 1480 005c 00       		.byte	0
 1481 005d 03       		.uleb128 0x3
 1482 005e 08       		.uleb128 0x8
 1483 005f 3A       		.uleb128 0x3a
 1484 0060 0B       		.uleb128 0xb
 1485 0061 3B       		.uleb128 0x3b
 1486 0062 05       		.uleb128 0x5
 1487 0063 49       		.uleb128 0x49
 1488 0064 13       		.uleb128 0x13
 1489 0065 38       		.uleb128 0x38
 1490 0066 0B       		.uleb128 0xb
 1491 0067 00       		.byte	0
 1492 0068 00       		.byte	0
 1493 0069 0A       		.uleb128 0xa
 1494 006a 0D       		.uleb128 0xd
 1495 006b 00       		.byte	0
 1496 006c 03       		.uleb128 0x3
 1497 006d 0E       		.uleb128 0xe
 1498 006e 3A       		.uleb128 0x3a
 1499 006f 0B       		.uleb128 0xb
ARM GAS  /tmp/ccACWqgx.s 			page 28


 1500 0070 3B       		.uleb128 0x3b
 1501 0071 05       		.uleb128 0x5
 1502 0072 49       		.uleb128 0x49
 1503 0073 13       		.uleb128 0x13
 1504 0074 38       		.uleb128 0x38
 1505 0075 0B       		.uleb128 0xb
 1506 0076 00       		.byte	0
 1507 0077 00       		.byte	0
 1508 0078 0B       		.uleb128 0xb
 1509 0079 16       		.uleb128 0x16
 1510 007a 00       		.byte	0
 1511 007b 03       		.uleb128 0x3
 1512 007c 0E       		.uleb128 0xe
 1513 007d 3A       		.uleb128 0x3a
 1514 007e 0B       		.uleb128 0xb
 1515 007f 3B       		.uleb128 0x3b
 1516 0080 05       		.uleb128 0x5
 1517 0081 49       		.uleb128 0x49
 1518 0082 13       		.uleb128 0x13
 1519 0083 00       		.byte	0
 1520 0084 00       		.byte	0
 1521 0085 0C       		.uleb128 0xc
 1522 0086 0F       		.uleb128 0xf
 1523 0087 00       		.byte	0
 1524 0088 0B       		.uleb128 0xb
 1525 0089 0B       		.uleb128 0xb
 1526 008a 49       		.uleb128 0x49
 1527 008b 13       		.uleb128 0x13
 1528 008c 00       		.byte	0
 1529 008d 00       		.byte	0
 1530 008e 0D       		.uleb128 0xd
 1531 008f 04       		.uleb128 0x4
 1532 0090 01       		.byte	0x1
 1533 0091 0B       		.uleb128 0xb
 1534 0092 0B       		.uleb128 0xb
 1535 0093 3A       		.uleb128 0x3a
 1536 0094 0B       		.uleb128 0xb
 1537 0095 3B       		.uleb128 0x3b
 1538 0096 0B       		.uleb128 0xb
 1539 0097 01       		.uleb128 0x1
 1540 0098 13       		.uleb128 0x13
 1541 0099 00       		.byte	0
 1542 009a 00       		.byte	0
 1543 009b 0E       		.uleb128 0xe
 1544 009c 28       		.uleb128 0x28
 1545 009d 00       		.byte	0
 1546 009e 03       		.uleb128 0x3
 1547 009f 0E       		.uleb128 0xe
 1548 00a0 1C       		.uleb128 0x1c
 1549 00a1 0D       		.uleb128 0xd
 1550 00a2 00       		.byte	0
 1551 00a3 00       		.byte	0
 1552 00a4 0F       		.uleb128 0xf
 1553 00a5 13       		.uleb128 0x13
 1554 00a6 01       		.byte	0x1
 1555 00a7 03       		.uleb128 0x3
 1556 00a8 0E       		.uleb128 0xe
ARM GAS  /tmp/ccACWqgx.s 			page 29


 1557 00a9 0B       		.uleb128 0xb
 1558 00aa 0B       		.uleb128 0xb
 1559 00ab 3A       		.uleb128 0x3a
 1560 00ac 0B       		.uleb128 0xb
 1561 00ad 3B       		.uleb128 0x3b
 1562 00ae 05       		.uleb128 0x5
 1563 00af 01       		.uleb128 0x1
 1564 00b0 13       		.uleb128 0x13
 1565 00b1 00       		.byte	0
 1566 00b2 00       		.byte	0
 1567 00b3 10       		.uleb128 0x10
 1568 00b4 26       		.uleb128 0x26
 1569 00b5 00       		.byte	0
 1570 00b6 49       		.uleb128 0x49
 1571 00b7 13       		.uleb128 0x13
 1572 00b8 00       		.byte	0
 1573 00b9 00       		.byte	0
 1574 00ba 11       		.uleb128 0x11
 1575 00bb 2E       		.uleb128 0x2e
 1576 00bc 00       		.byte	0
 1577 00bd 3F       		.uleb128 0x3f
 1578 00be 19       		.uleb128 0x19
 1579 00bf 03       		.uleb128 0x3
 1580 00c0 0E       		.uleb128 0xe
 1581 00c1 3A       		.uleb128 0x3a
 1582 00c2 0B       		.uleb128 0xb
 1583 00c3 3B       		.uleb128 0x3b
 1584 00c4 0B       		.uleb128 0xb
 1585 00c5 27       		.uleb128 0x27
 1586 00c6 19       		.uleb128 0x19
 1587 00c7 11       		.uleb128 0x11
 1588 00c8 01       		.uleb128 0x1
 1589 00c9 12       		.uleb128 0x12
 1590 00ca 06       		.uleb128 0x6
 1591 00cb 40       		.uleb128 0x40
 1592 00cc 18       		.uleb128 0x18
 1593 00cd 9642     		.uleb128 0x2116
 1594 00cf 19       		.uleb128 0x19
 1595 00d0 00       		.byte	0
 1596 00d1 00       		.byte	0
 1597 00d2 12       		.uleb128 0x12
 1598 00d3 2E       		.uleb128 0x2e
 1599 00d4 01       		.byte	0x1
 1600 00d5 3F       		.uleb128 0x3f
 1601 00d6 19       		.uleb128 0x19
 1602 00d7 03       		.uleb128 0x3
 1603 00d8 0E       		.uleb128 0xe
 1604 00d9 3A       		.uleb128 0x3a
 1605 00da 0B       		.uleb128 0xb
 1606 00db 3B       		.uleb128 0x3b
 1607 00dc 0B       		.uleb128 0xb
 1608 00dd 27       		.uleb128 0x27
 1609 00de 19       		.uleb128 0x19
 1610 00df 11       		.uleb128 0x11
 1611 00e0 01       		.uleb128 0x1
 1612 00e1 12       		.uleb128 0x12
 1613 00e2 06       		.uleb128 0x6
ARM GAS  /tmp/ccACWqgx.s 			page 30


 1614 00e3 40       		.uleb128 0x40
 1615 00e4 18       		.uleb128 0x18
 1616 00e5 9742     		.uleb128 0x2117
 1617 00e7 19       		.uleb128 0x19
 1618 00e8 01       		.uleb128 0x1
 1619 00e9 13       		.uleb128 0x13
 1620 00ea 00       		.byte	0
 1621 00eb 00       		.byte	0
 1622 00ec 13       		.uleb128 0x13
 1623 00ed 05       		.uleb128 0x5
 1624 00ee 00       		.byte	0
 1625 00ef 03       		.uleb128 0x3
 1626 00f0 0E       		.uleb128 0xe
 1627 00f1 3A       		.uleb128 0x3a
 1628 00f2 0B       		.uleb128 0xb
 1629 00f3 3B       		.uleb128 0x3b
 1630 00f4 0B       		.uleb128 0xb
 1631 00f5 49       		.uleb128 0x49
 1632 00f6 13       		.uleb128 0x13
 1633 00f7 02       		.uleb128 0x2
 1634 00f8 18       		.uleb128 0x18
 1635 00f9 00       		.byte	0
 1636 00fa 00       		.byte	0
 1637 00fb 14       		.uleb128 0x14
 1638 00fc 2E       		.uleb128 0x2e
 1639 00fd 01       		.byte	0x1
 1640 00fe 3F       		.uleb128 0x3f
 1641 00ff 19       		.uleb128 0x19
 1642 0100 03       		.uleb128 0x3
 1643 0101 0E       		.uleb128 0xe
 1644 0102 3A       		.uleb128 0x3a
 1645 0103 0B       		.uleb128 0xb
 1646 0104 3B       		.uleb128 0x3b
 1647 0105 0B       		.uleb128 0xb
 1648 0106 27       		.uleb128 0x27
 1649 0107 19       		.uleb128 0x19
 1650 0108 11       		.uleb128 0x11
 1651 0109 01       		.uleb128 0x1
 1652 010a 12       		.uleb128 0x12
 1653 010b 06       		.uleb128 0x6
 1654 010c 40       		.uleb128 0x40
 1655 010d 18       		.uleb128 0x18
 1656 010e 9642     		.uleb128 0x2116
 1657 0110 19       		.uleb128 0x19
 1658 0111 01       		.uleb128 0x1
 1659 0112 13       		.uleb128 0x13
 1660 0113 00       		.byte	0
 1661 0114 00       		.byte	0
 1662 0115 15       		.uleb128 0x15
 1663 0116 0B       		.uleb128 0xb
 1664 0117 01       		.byte	0x1
 1665 0118 11       		.uleb128 0x11
 1666 0119 01       		.uleb128 0x1
 1667 011a 12       		.uleb128 0x12
 1668 011b 06       		.uleb128 0x6
 1669 011c 01       		.uleb128 0x1
 1670 011d 13       		.uleb128 0x13
ARM GAS  /tmp/ccACWqgx.s 			page 31


 1671 011e 00       		.byte	0
 1672 011f 00       		.byte	0
 1673 0120 16       		.uleb128 0x16
 1674 0121 34       		.uleb128 0x34
 1675 0122 00       		.byte	0
 1676 0123 03       		.uleb128 0x3
 1677 0124 08       		.uleb128 0x8
 1678 0125 3A       		.uleb128 0x3a
 1679 0126 0B       		.uleb128 0xb
 1680 0127 3B       		.uleb128 0x3b
 1681 0128 0B       		.uleb128 0xb
 1682 0129 49       		.uleb128 0x49
 1683 012a 13       		.uleb128 0x13
 1684 012b 02       		.uleb128 0x2
 1685 012c 18       		.uleb128 0x18
 1686 012d 00       		.byte	0
 1687 012e 00       		.byte	0
 1688 012f 17       		.uleb128 0x17
 1689 0130 0B       		.uleb128 0xb
 1690 0131 01       		.byte	0x1
 1691 0132 11       		.uleb128 0x11
 1692 0133 01       		.uleb128 0x1
 1693 0134 12       		.uleb128 0x12
 1694 0135 06       		.uleb128 0x6
 1695 0136 00       		.byte	0
 1696 0137 00       		.byte	0
 1697 0138 18       		.uleb128 0x18
 1698 0139 2E       		.uleb128 0x2e
 1699 013a 01       		.byte	0x1
 1700 013b 3F       		.uleb128 0x3f
 1701 013c 19       		.uleb128 0x19
 1702 013d 03       		.uleb128 0x3
 1703 013e 0E       		.uleb128 0xe
 1704 013f 3A       		.uleb128 0x3a
 1705 0140 0B       		.uleb128 0xb
 1706 0141 3B       		.uleb128 0x3b
 1707 0142 0B       		.uleb128 0xb
 1708 0143 27       		.uleb128 0x27
 1709 0144 19       		.uleb128 0x19
 1710 0145 49       		.uleb128 0x49
 1711 0146 13       		.uleb128 0x13
 1712 0147 11       		.uleb128 0x11
 1713 0148 01       		.uleb128 0x1
 1714 0149 12       		.uleb128 0x12
 1715 014a 06       		.uleb128 0x6
 1716 014b 40       		.uleb128 0x40
 1717 014c 18       		.uleb128 0x18
 1718 014d 9642     		.uleb128 0x2116
 1719 014f 19       		.uleb128 0x19
 1720 0150 01       		.uleb128 0x1
 1721 0151 13       		.uleb128 0x13
 1722 0152 00       		.byte	0
 1723 0153 00       		.byte	0
 1724 0154 19       		.uleb128 0x19
 1725 0155 34       		.uleb128 0x34
 1726 0156 00       		.byte	0
 1727 0157 03       		.uleb128 0x3
ARM GAS  /tmp/ccACWqgx.s 			page 32


 1728 0158 0E       		.uleb128 0xe
 1729 0159 3A       		.uleb128 0x3a
 1730 015a 0B       		.uleb128 0xb
 1731 015b 3B       		.uleb128 0x3b
 1732 015c 0B       		.uleb128 0xb
 1733 015d 49       		.uleb128 0x49
 1734 015e 13       		.uleb128 0x13
 1735 015f 02       		.uleb128 0x2
 1736 0160 18       		.uleb128 0x18
 1737 0161 00       		.byte	0
 1738 0162 00       		.byte	0
 1739 0163 1A       		.uleb128 0x1a
 1740 0164 34       		.uleb128 0x34
 1741 0165 00       		.byte	0
 1742 0166 03       		.uleb128 0x3
 1743 0167 0E       		.uleb128 0xe
 1744 0168 3A       		.uleb128 0x3a
 1745 0169 0B       		.uleb128 0xb
 1746 016a 3B       		.uleb128 0x3b
 1747 016b 05       		.uleb128 0x5
 1748 016c 49       		.uleb128 0x49
 1749 016d 13       		.uleb128 0x13
 1750 016e 3F       		.uleb128 0x3f
 1751 016f 19       		.uleb128 0x19
 1752 0170 3C       		.uleb128 0x3c
 1753 0171 19       		.uleb128 0x19
 1754 0172 00       		.byte	0
 1755 0173 00       		.byte	0
 1756 0174 00       		.byte	0
 1757              		.section	.debug_aranges,"",%progbits
 1758 0000 5C000000 		.4byte	0x5c
 1759 0004 0200     		.2byte	0x2
 1760 0006 00000000 		.4byte	.Ldebug_info0
 1761 000a 04       		.byte	0x4
 1762 000b 00       		.byte	0
 1763 000c 0000     		.2byte	0
 1764 000e 0000     		.2byte	0
 1765 0010 00000000 		.4byte	.LFB118
 1766 0014 08000000 		.4byte	.LFE118-.LFB118
 1767 0018 00000000 		.4byte	.LFB119
 1768 001c 1A000000 		.4byte	.LFE119-.LFB119
 1769 0020 00000000 		.4byte	.LFB120
 1770 0024 64000000 		.4byte	.LFE120-.LFB120
 1771 0028 00000000 		.4byte	.LFB121
 1772 002c 58000000 		.4byte	.LFE121-.LFB121
 1773 0030 00000000 		.4byte	.LFB122
 1774 0034 50000000 		.4byte	.LFE122-.LFB122
 1775 0038 00000000 		.4byte	.LFB123
 1776 003c 58000000 		.4byte	.LFE123-.LFB123
 1777 0040 00000000 		.4byte	.LFB124
 1778 0044 30000000 		.4byte	.LFE124-.LFB124
 1779 0048 00000000 		.4byte	.LFB125
 1780 004c 34000000 		.4byte	.LFE125-.LFB125
 1781 0050 00000000 		.4byte	.LFB126
 1782 0054 64000000 		.4byte	.LFE126-.LFB126
 1783 0058 00000000 		.4byte	0
 1784 005c 00000000 		.4byte	0
ARM GAS  /tmp/ccACWqgx.s 			page 33


 1785              		.section	.debug_ranges,"",%progbits
 1786              	.Ldebug_ranges0:
 1787 0000 00000000 		.4byte	.LFB118
 1788 0004 08000000 		.4byte	.LFE118
 1789 0008 00000000 		.4byte	.LFB119
 1790 000c 1A000000 		.4byte	.LFE119
 1791 0010 00000000 		.4byte	.LFB120
 1792 0014 64000000 		.4byte	.LFE120
 1793 0018 00000000 		.4byte	.LFB121
 1794 001c 58000000 		.4byte	.LFE121
 1795 0020 00000000 		.4byte	.LFB122
 1796 0024 50000000 		.4byte	.LFE122
 1797 0028 00000000 		.4byte	.LFB123
 1798 002c 58000000 		.4byte	.LFE123
 1799 0030 00000000 		.4byte	.LFB124
 1800 0034 30000000 		.4byte	.LFE124
 1801 0038 00000000 		.4byte	.LFB125
 1802 003c 34000000 		.4byte	.LFE125
 1803 0040 00000000 		.4byte	.LFB126
 1804 0044 64000000 		.4byte	.LFE126
 1805 0048 00000000 		.4byte	0
 1806 004c 00000000 		.4byte	0
 1807              		.section	.debug_line,"",%progbits
 1808              	.Ldebug_line0:
 1809 0000 E5020000 		.section	.debug_str,"MS",%progbits,1
 1809      0200BC01 
 1809      00000201 
 1809      FB0E0D00 
 1809      01010101 
 1810              	.LASF24:
 1811 0000 43434552 		.ascii	"CCER\000"
 1811      00
 1812              	.LASF26:
 1813 0005 444D4152 		.ascii	"DMAR\000"
 1813      00
 1814              	.LASF64:
 1815 000a 64696666 		.ascii	"diff\000"
 1815      00
 1816              	.LASF37:
 1817 000f 73746174 		.ascii	"state\000"
 1817      6500
 1818              	.LASF23:
 1819 0015 43434D52 		.ascii	"CCMR2\000"
 1819      3200
 1820              	.LASF27:
 1821 001b 43434D52 		.ascii	"CCMR3\000"
 1821      3300
 1822              	.LASF3:
 1823 0021 73686F72 		.ascii	"short int\000"
 1823      7420696E 
 1823      7400
 1824              	.LASF20:
 1825 002b 534D4352 		.ascii	"SMCR\000"
 1825      00
 1826              	.LASF63:
 1827 0030 71656955 		.ascii	"qeiUpdate\000"
 1827      70646174 
ARM GAS  /tmp/ccACWqgx.s 			page 34


 1827      6500
 1828              	.LASF18:
 1829 003a 73697A65 		.ascii	"sizetype\000"
 1829      74797065 
 1829      00
 1830              	.LASF49:
 1831 0043 71656964 		.ascii	"qeidirinv_t\000"
 1831      6972696E 
 1831      765F7400 
 1832              	.LASF69:
 1833 004f 71656949 		.ascii	"qeiInit\000"
 1833      6E697400 
 1834              	.LASF35:
 1835 0057 71656973 		.ascii	"qeistate_t\000"
 1835      74617465 
 1835      5F7400
 1836              	.LASF9:
 1837 0062 5F5F7569 		.ascii	"__uint32_t\000"
 1837      6E743332 
 1837      5F7400
 1838              	.LASF52:
 1839 006d 6D6F6465 		.ascii	"mode\000"
 1839      00
 1840              	.LASF5:
 1841 0072 5F5F7569 		.ascii	"__uint16_t\000"
 1841      6E743136 
 1841      5F7400
 1842              	.LASF67:
 1843 007d 474E5520 		.ascii	"GNU C 4.9.3 20141119 (release) [ARM/embedded-4_9-br"
 1843      4320342E 
 1843      392E3320 
 1843      32303134 
 1843      31313139 
 1844 00b0 616E6368 		.ascii	"anch revision 218278] -mcpu=cortex-m4 -mfloat-abi=h"
 1844      20726576 
 1844      6973696F 
 1844      6E203231 
 1844      38323738 
 1845 00e3 61726420 		.ascii	"ard -mfpu=fpv4-sp-d16 -mno-thumb-interwork -mthumb "
 1845      2D6D6670 
 1845      753D6670 
 1845      76342D73 
 1845      702D6431 
 1846 0116 2D676764 		.ascii	"-ggdb -O0 -fomit-frame-pointer -falign-functions=16"
 1846      62202D4F 
 1846      30202D66 
 1846      6F6D6974 
 1846      2D667261 
 1847 0149 202D6666 		.ascii	" -ffunction-sections -fdata-sections -fno-common -f"
 1847      756E6374 
 1847      696F6E2D 
 1847      73656374 
 1847      696F6E73 
 1848 017c 73696E67 		.ascii	"single-precision-constant\000"
 1848      6C652D70 
 1848      72656369 
 1848      73696F6E 
ARM GAS  /tmp/ccACWqgx.s 			page 35


 1848      2D636F6E 
 1849              	.LASF39:
 1850 0196 636F6E66 		.ascii	"config\000"
 1850      696700
 1851              	.LASF66:
 1852 019d 64656C74 		.ascii	"delta\000"
 1852      6100
 1853              	.LASF56:
 1854 01a3 7165694F 		.ascii	"qeiObjectInit\000"
 1854      626A6563 
 1854      74496E69 
 1854      7400
 1855              	.LASF33:
 1856 01b1 5145495F 		.ascii	"QEI_READY\000"
 1856      52454144 
 1856      5900
 1857              	.LASF11:
 1858 01bb 6C6F6E67 		.ascii	"long long int\000"
 1858      206C6F6E 
 1858      6720696E 
 1858      7400
 1859              	.LASF36:
 1860 01c9 51454944 		.ascii	"QEIDriver\000"
 1860      72697665 
 1860      7200
 1861              	.LASF31:
 1862 01d3 5145495F 		.ascii	"QEI_UNINIT\000"
 1862      554E494E 
 1862      495400
 1863              	.LASF8:
 1864 01de 6C6F6E67 		.ascii	"long int\000"
 1864      20696E74 
 1864      00
 1865              	.LASF28:
 1866 01e7 43435235 		.ascii	"CCR5\000"
 1866      00
 1867              	.LASF29:
 1868 01ec 43435236 		.ascii	"CCR6\000"
 1868      00
 1869              	.LASF47:
 1870 01f1 5145495F 		.ascii	"QEI_DIRINV_FALSE\000"
 1870      44495249 
 1870      4E565F46 
 1870      414C5345 
 1870      00
 1871              	.LASF22:
 1872 0202 43434D52 		.ascii	"CCMR1\000"
 1872      3100
 1873              	.LASF51:
 1874 0208 71656964 		.ascii	"qeidelta_t\000"
 1874      656C7461 
 1874      5F7400
 1875              	.LASF44:
 1876 0213 5145495F 		.ascii	"QEI_SINGLE_EDGE\000"
 1876      53494E47 
 1876      4C455F45 
 1876      44474500 
ARM GAS  /tmp/ccACWqgx.s 			page 36


 1877              	.LASF55:
 1878 0223 51454943 		.ascii	"QEIConfig\000"
 1878      6F6E6669 
 1878      6700
 1879              	.LASF32:
 1880 022d 5145495F 		.ascii	"QEI_STOP\000"
 1880      53544F50 
 1880      00
 1881              	.LASF34:
 1882 0236 5145495F 		.ascii	"QEI_ACTIVE\000"
 1882      41435449 
 1882      564500
 1883              	.LASF2:
 1884 0241 756E7369 		.ascii	"unsigned char\000"
 1884      676E6564 
 1884      20636861 
 1884      7200
 1885              	.LASF1:
 1886 024f 7369676E 		.ascii	"signed char\000"
 1886      65642063 
 1886      68617200 
 1887              	.LASF62:
 1888 025b 71656947 		.ascii	"qeiGetCount\000"
 1888      6574436F 
 1888      756E7400 
 1889              	.LASF12:
 1890 0267 6C6F6E67 		.ascii	"long long unsigned int\000"
 1890      206C6F6E 
 1890      6720756E 
 1890      7369676E 
 1890      65642069 
 1891              	.LASF45:
 1892 027e 5145495F 		.ascii	"QEI_BOTH_EDGES\000"
 1892      424F5448 
 1892      5F454447 
 1892      455300
 1893              	.LASF16:
 1894 028d 75696E74 		.ascii	"uint32_t\000"
 1894      33325F74 
 1894      00
 1895              	.LASF0:
 1896 0296 756E7369 		.ascii	"unsigned int\000"
 1896      676E6564 
 1896      20696E74 
 1896      00
 1897              	.LASF14:
 1898 02a3 75696E74 		.ascii	"uint16_t\000"
 1898      31365F74 
 1898      00
 1899              	.LASF42:
 1900 02ac 5145495F 		.ascii	"QEI_MODE_DIRCLOCK2\000"
 1900      4D4F4445 
 1900      5F444952 
 1900      434C4F43 
 1900      4B3200
 1901              	.LASF21:
 1902 02bf 44494552 		.ascii	"DIER\000"
ARM GAS  /tmp/ccACWqgx.s 			page 37


 1902      00
 1903              	.LASF6:
 1904 02c4 73686F72 		.ascii	"short unsigned int\000"
 1904      7420756E 
 1904      7369676E 
 1904      65642069 
 1904      6E7400
 1905              	.LASF59:
 1906 02d7 71656953 		.ascii	"qeiStop\000"
 1906      746F7000 
 1907              	.LASF19:
 1908 02df 63686172 		.ascii	"char\000"
 1908      00
 1909              	.LASF30:
 1910 02e4 73746D33 		.ascii	"stm32_tim_t\000"
 1910      325F7469 
 1910      6D5F7400 
 1911              	.LASF25:
 1912 02f0 42445452 		.ascii	"BDTR\000"
 1912      00
 1913              	.LASF15:
 1914 02f5 696E7433 		.ascii	"int32_t\000"
 1914      325F7400 
 1915              	.LASF53:
 1916 02fd 7265736F 		.ascii	"resolution\000"
 1916      6C757469 
 1916      6F6E00
 1917              	.LASF54:
 1918 0308 64697269 		.ascii	"dirinv\000"
 1918      6E7600
 1919              	.LASF17:
 1920 030f 5F426F6F 		.ascii	"_Bool\000"
 1920      6C00
 1921              	.LASF48:
 1922 0315 5145495F 		.ascii	"QEI_DIRINV_TRUE\000"
 1922      44495249 
 1922      4E565F54 
 1922      52554500 
 1923              	.LASF46:
 1924 0325 71656972 		.ascii	"qeiresolution_t\000"
 1924      65736F6C 
 1924      7574696F 
 1924      6E5F7400 
 1925              	.LASF40:
 1926 0335 5145495F 		.ascii	"QEI_MODE_QUADRATURE\000"
 1926      4D4F4445 
 1926      5F515541 
 1926      44524154 
 1926      55524500 
 1927              	.LASF50:
 1928 0349 71656963 		.ascii	"qeicnt_t\000"
 1928      6E745F74 
 1928      00
 1929              	.LASF65:
 1930 0352 71656955 		.ascii	"qeiUpdateI\000"
 1930      70646174 
 1930      654900
ARM GAS  /tmp/ccACWqgx.s 			page 38


 1931              	.LASF58:
 1932 035d 71656970 		.ascii	"qeip\000"
 1932      00
 1933              	.LASF10:
 1934 0362 6C6F6E67 		.ascii	"long unsigned int\000"
 1934      20756E73 
 1934      69676E65 
 1934      6420696E 
 1934      7400
 1935              	.LASF68:
 1936 0374 2F686F6D 		.ascii	"/home/denny/r2p-sdk/modules/uDC_module/qei.c\000"
 1936      652F6465 
 1936      6E6E792F 
 1936      7232702D 
 1936      73646B2F 
 1937              	.LASF7:
 1938 03a1 5F5F696E 		.ascii	"__int32_t\000"
 1938      7433325F 
 1938      7400
 1939              	.LASF4:
 1940 03ab 5F5F696E 		.ascii	"__int16_t\000"
 1940      7431365F 
 1940      7400
 1941              	.LASF61:
 1942 03b5 71656944 		.ascii	"qeiDisable\000"
 1942      69736162 
 1942      6C6500
 1943              	.LASF43:
 1944 03c0 7165696D 		.ascii	"qeimode_t\000"
 1944      6F64655F 
 1944      7400
 1945              	.LASF13:
 1946 03ca 696E7431 		.ascii	"int16_t\000"
 1946      365F7400 
 1947              	.LASF38:
 1948 03d2 6C617374 		.ascii	"last\000"
 1948      00
 1949              	.LASF41:
 1950 03d7 5145495F 		.ascii	"QEI_MODE_DIRCLOCK1\000"
 1950      4D4F4445 
 1950      5F444952 
 1950      434C4F43 
 1950      4B3100
 1951              	.LASF57:
 1952 03ea 71656953 		.ascii	"qeiStart\000"
 1952      74617274 
 1952      00
 1953              	.LASF70:
 1954 03f3 49544D5F 		.ascii	"ITM_RxBuffer\000"
 1954      52784275 
 1954      66666572 
 1954      00
 1955              	.LASF60:
 1956 0400 71656945 		.ascii	"qeiEnable\000"
 1956      6E61626C 
 1956      6500
 1957              		.ident	"GCC: (GNU Tools for ARM Embedded Processors) 4.9.3 20141119 (release) [ARM/embedded-4_9-br
ARM GAS  /tmp/ccACWqgx.s 			page 39


ARM GAS  /tmp/ccACWqgx.s 			page 40


DEFINED SYMBOLS
                            *ABS*:00000000 qei.c
     /tmp/ccACWqgx.s:21     .text.qeiInit:00000000 $t
     /tmp/ccACWqgx.s:27     .text.qeiInit:00000000 qeiInit
     /tmp/ccACWqgx.s:46     .text.qeiObjectInit:00000000 $t
     /tmp/ccACWqgx.s:52     .text.qeiObjectInit:00000000 qeiObjectInit
     /tmp/ccACWqgx.s:83     .rodata:00000000 $d
     /tmp/ccACWqgx.s:90     .text.qeiStart:00000000 $t
     /tmp/ccACWqgx.s:96     .text.qeiStart:00000000 qeiStart
     /tmp/ccACWqgx.s:173    .text.qeiStart:0000005c $d
     /tmp/ccACWqgx.s:186    .text.qeiStop:00000000 $t
     /tmp/ccACWqgx.s:192    .text.qeiStop:00000000 qeiStop
     /tmp/ccACWqgx.s:259    .text.qeiStop:00000050 $d
     /tmp/ccACWqgx.s:272    .text.qeiEnable:00000000 $t
     /tmp/ccACWqgx.s:278    .text.qeiEnable:00000000 qeiEnable
     /tmp/ccACWqgx.s:340    .text.qeiEnable:00000048 $d
     /tmp/ccACWqgx.s:353    .text.qeiDisable:00000000 $t
     /tmp/ccACWqgx.s:359    .text.qeiDisable:00000000 qeiDisable
     /tmp/ccACWqgx.s:426    .text.qeiDisable:00000050 $d
     /tmp/ccACWqgx.s:432    .text.qeiGetCount:00000000 $t
     /tmp/ccACWqgx.s:438    .text.qeiGetCount:00000000 qeiGetCount
     /tmp/ccACWqgx.s:485    .text.qeiUpdate:00000000 $t
     /tmp/ccACWqgx.s:491    .text.qeiUpdate:00000000 qeiUpdate
     /tmp/ccACWqgx.s:552    .text.qeiUpdateI:00000000 qeiUpdateI
     /tmp/ccACWqgx.s:546    .text.qeiUpdateI:00000000 $t
     /tmp/ccACWqgx.s:616    .text.qeiUpdateI:0000005c $d
                     .debug_frame:00000010 $d
     /tmp/ccACWqgx.s:178    .text.qeiStart:00000064 $t
     /tmp/ccACWqgx.s:264    .text.qeiStop:00000058 $t
     /tmp/ccACWqgx.s:431    .text.qeiDisable:00000058 $t
     /tmp/ccACWqgx.s:621    .text.qeiUpdateI:00000064 $t

UNDEFINED SYMBOLS
qei_lld_init
chDbgPanic
dbg_check_lock
qei_lld_start
dbg_check_unlock
qei_lld_stop
qei_lld_enable
qei_lld_disable
chDbgCheckClassI
