ARM GAS  /tmp/ccACWqgx.s 			page 1


   1              		.syntax unified
   2              		.cpu cortex-m4
   3              		.eabi_attribute 27, 3
   4              		.eabi_attribute 28, 1
   5              		.fpu fpv4-sp-d16
   6              		.eabi_attribute 20, 1
   7              		.eabi_attribute 21, 1
   8              		.eabi_attribute 23, 3
   9              		.eabi_attribute 24, 1
  10              		.eabi_attribute 25, 1
  11              		.eabi_attribute 26, 1
  12              		.eabi_attribute 30, 6
  13              		.eabi_attribute 34, 1
  14              		.eabi_attribute 18, 4
  15              		.thumb
  16              		.file	"qei.c"
  17              		.text
  18              	.Ltext0:
  19              		.cfi_sections	.debug_frame
  20              		.section	.text.qeiInit,"ax",%progbits
  21              		.align	2
  22              		.p2align 4,,15
  23              		.global	qeiInit
  24              		.thumb
  25              		.thumb_func
  26              		.type	qeiInit, %function
  27              	qeiInit:
  28              	.LFB118:
  29              		.file 1 "/home/denny/r2p-sdk/modules/uDC_module/qei.c"
  30              		.loc 1 62 0
  31              		.cfi_startproc
  32              		@ args = 0, pretend = 0, frame = 0
  33              		@ frame_needed = 0, uses_anonymous_args = 0
  34 0000 08B5     		push	{r3, lr}
  35              		.cfi_def_cfa_offset 8
  36              		.cfi_offset 3, -8
  37              		.cfi_offset 14, -4
  38              		.loc 1 64 0
  39 0002 FFF7FEFF 		bl	qei_lld_init
  40              		.loc 1 65 0
  41 0006 08BD     		pop	{r3, pc}
  42              		.cfi_endproc
  43              	.LFE118:
  44              		.size	qeiInit, .-qeiInit
  45 0008 AFF30080 		.section	.text.qeiObjectInit,"ax",%progbits
  45      AFF30080 
  46              		.align	2
  47              		.p2align 4,,15
  48              		.global	qeiObjectInit
  49              		.thumb
  50              		.thumb_func
  51              		.type	qeiObjectInit, %function
  52              	qeiObjectInit:
  53              	.LFB119:
  54              		.loc 1 74 0
  55              		.cfi_startproc
  56              		@ args = 0, pretend = 0, frame = 8
ARM GAS  /tmp/ccACWqgx.s 			page 2


  57              		@ frame_needed = 0, uses_anonymous_args = 0
  58              		@ link register save eliminated.
  59 0000 82B0     		sub	sp, sp, #8
  60              		.cfi_def_cfa_offset 8
  61 0002 0190     		str	r0, [sp, #4]
  62              		.loc 1 76 0
  63 0004 019B     		ldr	r3, [sp, #4]
  64 0006 0122     		movs	r2, #1
  65 0008 1A70     		strb	r2, [r3]
  66              		.loc 1 77 0
  67 000a 019B     		ldr	r3, [sp, #4]
  68 000c 0022     		movs	r2, #0
  69 000e 5A80     		strh	r2, [r3, #2]	@ movhi
  70              		.loc 1 78 0
  71 0010 019B     		ldr	r3, [sp, #4]
  72 0012 0022     		movs	r2, #0
  73 0014 5A60     		str	r2, [r3, #4]
  74              		.loc 1 79 0
  75 0016 02B0     		add	sp, sp, #8
  76              		.cfi_def_cfa_offset 0
  77              		@ sp needed
  78 0018 7047     		bx	lr
  79              		.cfi_endproc
  80              	.LFE119:
  81              		.size	qeiObjectInit, .-qeiObjectInit
  82 001a 00BFAFF3 		.section	.rodata
  82      0080
  83              		.align	2
  84              	.LC0:
  85 0000 22716569 		.ascii	"\"qeiStart\"()\000"
  85      53746172 
  85      74222829 
  85      00
  86 000d 000000   		.align	2
  87              	.LC1:
  88 0010 71656953 		.ascii	"qeiStart(), #1\000"
  88      74617274 
  88      28292C20 
  88      233100
  89              		.section	.text.qeiStart,"ax",%progbits
  90              		.align	2
  91              		.p2align 4,,15
  92              		.global	qeiStart
  93              		.thumb
  94              		.thumb_func
  95              		.type	qeiStart, %function
  96              	qeiStart:
  97              	.LFB120:
  98              		.loc 1 89 0
  99              		.cfi_startproc
 100              		@ args = 0, pretend = 0, frame = 8
 101              		@ frame_needed = 0, uses_anonymous_args = 0
 102 0000 00B5     		push	{lr}
 103              		.cfi_def_cfa_offset 4
 104              		.cfi_offset 14, -4
 105 0002 83B0     		sub	sp, sp, #12
 106              		.cfi_def_cfa_offset 16
ARM GAS  /tmp/ccACWqgx.s 			page 3


 107 0004 0190     		str	r0, [sp, #4]
 108 0006 0091     		str	r1, [sp]
 109              		.loc 1 91 0
 110 0008 019B     		ldr	r3, [sp, #4]
 111 000a 002B     		cmp	r3, #0
 112 000c 02D0     		beq	.L4
 113              		.loc 1 91 0 is_stmt 0 discriminator 2
 114 000e 009B     		ldr	r3, [sp]
 115 0010 002B     		cmp	r3, #0
 116 0012 02D1     		bne	.L5
 117              	.L4:
 118              		.loc 1 91 0 discriminator 3
 119 0014 1148     		ldr	r0, .L7
 120 0016 FFF7FEFF 		bl	chDbgPanic
 121              	.L5:
 122              	.LBB2:
 123              		.loc 1 93 0 is_stmt 1
 124 001a 2023     		movs	r3, #32
 125              	@ 93 "/home/denny/r2p-sdk/modules/uDC_module/qei.c" 1
 126 001c 83F31188 		msr     BASEPRI, r3
 127              	@ 0 "" 2
 128              		.thumb
 129              	.LBE2:
 130 0020 FFF7FEFF 		bl	dbg_check_lock
 131              		.loc 1 94 0
 132 0024 019B     		ldr	r3, [sp, #4]
 133 0026 1B78     		ldrb	r3, [r3]	@ zero_extendqisi2
 134 0028 012B     		cmp	r3, #1
 135 002a 06D0     		beq	.L6
 136              		.loc 1 94 0 is_stmt 0 discriminator 1
 137 002c 019B     		ldr	r3, [sp, #4]
 138 002e 1B78     		ldrb	r3, [r3]	@ zero_extendqisi2
 139 0030 022B     		cmp	r3, #2
 140 0032 02D0     		beq	.L6
 141              		.loc 1 94 0 discriminator 2
 142 0034 0A48     		ldr	r0, .L7+4
 143 0036 FFF7FEFF 		bl	chDbgPanic
 144              	.L6:
 145              		.loc 1 96 0 is_stmt 1
 146 003a 019B     		ldr	r3, [sp, #4]
 147 003c 009A     		ldr	r2, [sp]
 148 003e 5A60     		str	r2, [r3, #4]
 149              		.loc 1 97 0
 150 0040 0198     		ldr	r0, [sp, #4]
 151 0042 FFF7FEFF 		bl	qei_lld_start
 152              		.loc 1 98 0
 153 0046 019B     		ldr	r3, [sp, #4]
 154 0048 0222     		movs	r2, #2
 155 004a 1A70     		strb	r2, [r3]
 156              		.loc 1 99 0
 157 004c FFF7FEFF 		bl	dbg_check_unlock
 158              	.LBB3:
 159 0050 0023     		movs	r3, #0
 160              	@ 99 "/home/denny/r2p-sdk/modules/uDC_module/qei.c" 1
 161 0052 83F31188 		msr     BASEPRI, r3
 162              	@ 0 "" 2
 163              		.thumb
ARM GAS  /tmp/ccACWqgx.s 			page 4


 164              	.LBE3:
 165              		.loc 1 100 0
 166 0056 03B0     		add	sp, sp, #12
 167              		.cfi_def_cfa_offset 4
 168              		@ sp needed
 169 0058 5DF804FB 		ldr	pc, [sp], #4
 170              	.L8:
 171              		.align	2
 172              	.L7:
 173 005c 00000000 		.word	.LC0
 174 0060 10000000 		.word	.LC1
 175              		.cfi_endproc
 176              	.LFE120:
 177              		.size	qeiStart, .-qeiStart
 178 0064 AFF30080 		.section	.rodata
 178      AFF30080 
 178      AFF30080 
 179 001f 00       		.align	2
 180              	.LC2:
 181 0020 22716569 		.ascii	"\"qeiStop\"()\000"
 181      53746F70 
 181      22282900 
 182              		.align	2
 183              	.LC3:
 184 002c 71656953 		.ascii	"qeiStop(), #1\000"
 184      746F7028 
 184      292C2023 
 184      3100
 185              		.section	.text.qeiStop,"ax",%progbits
 186              		.align	2
 187              		.p2align 4,,15
 188              		.global	qeiStop
 189              		.thumb
 190              		.thumb_func
 191              		.type	qeiStop, %function
 192              	qeiStop:
 193              	.LFB121:
 194              		.loc 1 109 0
 195              		.cfi_startproc
 196              		@ args = 0, pretend = 0, frame = 8
 197              		@ frame_needed = 0, uses_anonymous_args = 0
 198 0000 00B5     		push	{lr}
 199              		.cfi_def_cfa_offset 4
 200              		.cfi_offset 14, -4
 201 0002 83B0     		sub	sp, sp, #12
 202              		.cfi_def_cfa_offset 16
 203 0004 0190     		str	r0, [sp, #4]
 204              		.loc 1 111 0
 205 0006 019B     		ldr	r3, [sp, #4]
 206 0008 002B     		cmp	r3, #0
 207 000a 02D1     		bne	.L10
 208              		.loc 1 111 0 is_stmt 0 discriminator 1
 209 000c 1048     		ldr	r0, .L12
 210 000e FFF7FEFF 		bl	chDbgPanic
 211              	.L10:
 212              	.LBB4:
 213              		.loc 1 113 0 is_stmt 1
ARM GAS  /tmp/ccACWqgx.s 			page 5


 214 0012 2023     		movs	r3, #32
 215              	@ 113 "/home/denny/r2p-sdk/modules/uDC_module/qei.c" 1
 216 0014 83F31188 		msr     BASEPRI, r3
 217              	@ 0 "" 2
 218              		.thumb
 219              	.LBE4:
 220 0018 FFF7FEFF 		bl	dbg_check_lock
 221              		.loc 1 114 0
 222 001c 019B     		ldr	r3, [sp, #4]
 223 001e 1B78     		ldrb	r3, [r3]	@ zero_extendqisi2
 224 0020 012B     		cmp	r3, #1
 225 0022 06D0     		beq	.L11
 226              		.loc 1 114 0 is_stmt 0 discriminator 1
 227 0024 019B     		ldr	r3, [sp, #4]
 228 0026 1B78     		ldrb	r3, [r3]	@ zero_extendqisi2
 229 0028 022B     		cmp	r3, #2
 230 002a 02D0     		beq	.L11
 231              		.loc 1 114 0 discriminator 2
 232 002c 0948     		ldr	r0, .L12+4
 233 002e FFF7FEFF 		bl	chDbgPanic
 234              	.L11:
 235              		.loc 1 116 0 is_stmt 1
 236 0032 0198     		ldr	r0, [sp, #4]
 237 0034 FFF7FEFF 		bl	qei_lld_stop
 238              		.loc 1 117 0
 239 0038 019B     		ldr	r3, [sp, #4]
 240 003a 0122     		movs	r2, #1
 241 003c 1A70     		strb	r2, [r3]
 242              		.loc 1 118 0
 243 003e FFF7FEFF 		bl	dbg_check_unlock
 244              	.LBB5:
 245 0042 0023     		movs	r3, #0
 246              	@ 118 "/home/denny/r2p-sdk/modules/uDC_module/qei.c" 1
 247 0044 83F31188 		msr     BASEPRI, r3
 248              	@ 0 "" 2
 249              		.thumb
 250              	.LBE5:
 251              		.loc 1 119 0
 252 0048 03B0     		add	sp, sp, #12
 253              		.cfi_def_cfa_offset 4
 254              		@ sp needed
 255 004a 5DF804FB 		ldr	pc, [sp], #4
 256              	.L13:
 257 004e 00BF     		.align	2
 258              	.L12:
 259 0050 20000000 		.word	.LC2
 260 0054 2C000000 		.word	.LC3
 261              		.cfi_endproc
 262              	.LFE121:
 263              		.size	qeiStop, .-qeiStop
 264 0058 AFF30080 		.section	.rodata
 264      AFF30080 
 265 003a 0000     		.align	2
 266              	.LC4:
 267 003c 22716569 		.ascii	"\"qeiEnable\"()\000"
 267      456E6162 
 267      6C652228 
ARM GAS  /tmp/ccACWqgx.s 			page 6


 267      2900
 268 004a 0000     		.align	2
 269              	.LC5:
 270 004c 71656945 		.ascii	"qeiEnable(), #1\000"
 270      6E61626C 
 270      6528292C 
 270      20233100 
 271              		.section	.text.qeiEnable,"ax",%progbits
 272              		.align	2
 273              		.p2align 4,,15
 274              		.global	qeiEnable
 275              		.thumb
 276              		.thumb_func
 277              		.type	qeiEnable, %function
 278              	qeiEnable:
 279              	.LFB122:
 280              		.loc 1 128 0
 281              		.cfi_startproc
 282              		@ args = 0, pretend = 0, frame = 8
 283              		@ frame_needed = 0, uses_anonymous_args = 0
 284 0000 00B5     		push	{lr}
 285              		.cfi_def_cfa_offset 4
 286              		.cfi_offset 14, -4
 287 0002 83B0     		sub	sp, sp, #12
 288              		.cfi_def_cfa_offset 16
 289 0004 0190     		str	r0, [sp, #4]
 290              		.loc 1 130 0
 291 0006 019B     		ldr	r3, [sp, #4]
 292 0008 002B     		cmp	r3, #0
 293 000a 02D1     		bne	.L15
 294              		.loc 1 130 0 is_stmt 0 discriminator 1
 295 000c 0E48     		ldr	r0, .L17
 296 000e FFF7FEFF 		bl	chDbgPanic
 297              	.L15:
 298              	.LBB6:
 299              		.loc 1 132 0 is_stmt 1
 300 0012 2023     		movs	r3, #32
 301              	@ 132 "/home/denny/r2p-sdk/modules/uDC_module/qei.c" 1
 302 0014 83F31188 		msr     BASEPRI, r3
 303              	@ 0 "" 2
 304              		.thumb
 305              	.LBE6:
 306 0018 FFF7FEFF 		bl	dbg_check_lock
 307              		.loc 1 133 0
 308 001c 019B     		ldr	r3, [sp, #4]
 309 001e 1B78     		ldrb	r3, [r3]	@ zero_extendqisi2
 310 0020 022B     		cmp	r3, #2
 311 0022 02D0     		beq	.L16
 312              		.loc 1 133 0 is_stmt 0 discriminator 1
 313 0024 0948     		ldr	r0, .L17+4
 314 0026 FFF7FEFF 		bl	chDbgPanic
 315              	.L16:
 316              		.loc 1 134 0 is_stmt 1
 317 002a 0198     		ldr	r0, [sp, #4]
 318 002c FFF7FEFF 		bl	qei_lld_enable
 319              		.loc 1 135 0
 320 0030 019B     		ldr	r3, [sp, #4]
ARM GAS  /tmp/ccACWqgx.s 			page 7


 321 0032 0322     		movs	r2, #3
 322 0034 1A70     		strb	r2, [r3]
 323              		.loc 1 136 0
 324 0036 FFF7FEFF 		bl	dbg_check_unlock
 325              	.LBB7:
 326 003a 0023     		movs	r3, #0
 327              	@ 136 "/home/denny/r2p-sdk/modules/uDC_module/qei.c" 1
 328 003c 83F31188 		msr     BASEPRI, r3
 329              	@ 0 "" 2
 330              		.thumb
 331              	.LBE7:
 332              		.loc 1 137 0
 333 0040 03B0     		add	sp, sp, #12
 334              		.cfi_def_cfa_offset 4
 335              		@ sp needed
 336 0042 5DF804FB 		ldr	pc, [sp], #4
 337              	.L18:
 338 0046 00BF     		.align	2
 339              	.L17:
 340 0048 3C000000 		.word	.LC4
 341 004c 4C000000 		.word	.LC5
 342              		.cfi_endproc
 343              	.LFE122:
 344              		.size	qeiEnable, .-qeiEnable
 345              		.section	.rodata
 346              		.align	2
 347              	.LC6:
 348 005c 22716569 		.ascii	"\"qeiDisable\"()\000"
 348      44697361 
 348      626C6522 
 348      282900
 349 006b 00       		.align	2
 350              	.LC7:
 351 006c 71656944 		.ascii	"qeiDisable(), #1\000"
 351      69736162 
 351      6C652829 
 351      2C202331 
 351      00
 352              		.section	.text.qeiDisable,"ax",%progbits
 353              		.align	2
 354              		.p2align 4,,15
 355              		.global	qeiDisable
 356              		.thumb
 357              		.thumb_func
 358              		.type	qeiDisable, %function
 359              	qeiDisable:
 360              	.LFB123:
 361              		.loc 1 146 0
 362              		.cfi_startproc
 363              		@ args = 0, pretend = 0, frame = 8
 364              		@ frame_needed = 0, uses_anonymous_args = 0
 365 0000 00B5     		push	{lr}
 366              		.cfi_def_cfa_offset 4
 367              		.cfi_offset 14, -4
 368 0002 83B0     		sub	sp, sp, #12
 369              		.cfi_def_cfa_offset 16
 370 0004 0190     		str	r0, [sp, #4]
ARM GAS  /tmp/ccACWqgx.s 			page 8


 371              		.loc 1 148 0
 372 0006 019B     		ldr	r3, [sp, #4]
 373 0008 002B     		cmp	r3, #0
 374 000a 02D1     		bne	.L20
 375              		.loc 1 148 0 is_stmt 0 discriminator 1
 376 000c 1048     		ldr	r0, .L22
 377 000e FFF7FEFF 		bl	chDbgPanic
 378              	.L20:
 379              	.LBB8:
 380              		.loc 1 150 0 is_stmt 1
 381 0012 2023     		movs	r3, #32
 382              	@ 150 "/home/denny/r2p-sdk/modules/uDC_module/qei.c" 1
 383 0014 83F31188 		msr     BASEPRI, r3
 384              	@ 0 "" 2
 385              		.thumb
 386              	.LBE8:
 387 0018 FFF7FEFF 		bl	dbg_check_lock
 388              		.loc 1 151 0
 389 001c 019B     		ldr	r3, [sp, #4]
 390 001e 1B78     		ldrb	r3, [r3]	@ zero_extendqisi2
 391 0020 022B     		cmp	r3, #2
 392 0022 06D0     		beq	.L21
 393              		.loc 1 151 0 is_stmt 0 discriminator 1
 394 0024 019B     		ldr	r3, [sp, #4]
 395 0026 1B78     		ldrb	r3, [r3]	@ zero_extendqisi2
 396 0028 032B     		cmp	r3, #3
 397 002a 02D0     		beq	.L21
 398              		.loc 1 151 0 discriminator 2
 399 002c 0948     		ldr	r0, .L22+4
 400 002e FFF7FEFF 		bl	chDbgPanic
 401              	.L21:
 402              		.loc 1 153 0 is_stmt 1
 403 0032 0198     		ldr	r0, [sp, #4]
 404 0034 FFF7FEFF 		bl	qei_lld_disable
 405              		.loc 1 154 0
 406 0038 019B     		ldr	r3, [sp, #4]
 407 003a 0222     		movs	r2, #2
 408 003c 1A70     		strb	r2, [r3]
 409              		.loc 1 155 0
 410 003e FFF7FEFF 		bl	dbg_check_unlock
 411              	.LBB9:
 412 0042 0023     		movs	r3, #0
 413              	@ 155 "/home/denny/r2p-sdk/modules/uDC_module/qei.c" 1
 414 0044 83F31188 		msr     BASEPRI, r3
 415              	@ 0 "" 2
 416              		.thumb
 417              	.LBE9:
 418              		.loc 1 156 0
 419 0048 03B0     		add	sp, sp, #12
 420              		.cfi_def_cfa_offset 4
 421              		@ sp needed
 422 004a 5DF804FB 		ldr	pc, [sp], #4
 423              	.L23:
 424 004e 00BF     		.align	2
 425              	.L22:
 426 0050 5C000000 		.word	.LC6
 427 0054 6C000000 		.word	.LC7
ARM GAS  /tmp/ccACWqgx.s 			page 9


 428              		.cfi_endproc
 429              	.LFE123:
 430              		.size	qeiDisable, .-qeiDisable
 431 0058 AFF30080 		.section	.text.qeiGetCount,"ax",%progbits
 431      AFF30080 
 432              		.align	2
 433              		.p2align 4,,15
 434              		.global	qeiGetCount
 435              		.thumb
 436              		.thumb_func
 437              		.type	qeiGetCount, %function
 438              	qeiGetCount:
 439              	.LFB124:
 440              		.loc 1 166 0
 441              		.cfi_startproc
 442              		@ args = 0, pretend = 0, frame = 16
 443              		@ frame_needed = 0, uses_anonymous_args = 0
 444 0000 00B5     		push	{lr}
 445              		.cfi_def_cfa_offset 4
 446              		.cfi_offset 14, -4
 447 0002 85B0     		sub	sp, sp, #20
 448              		.cfi_def_cfa_offset 24
 449 0004 0190     		str	r0, [sp, #4]
 450              	.LBB10:
 451              		.loc 1 169 0
 452 0006 2023     		movs	r3, #32
 453              	@ 169 "/home/denny/r2p-sdk/modules/uDC_module/qei.c" 1
 454 0008 83F31188 		msr     BASEPRI, r3
 455              	@ 0 "" 2
 456              		.thumb
 457              	.LBE10:
 458 000c FFF7FEFF 		bl	dbg_check_lock
 459              		.loc 1 170 0
 460 0010 019B     		ldr	r3, [sp, #4]
 461 0012 9B68     		ldr	r3, [r3, #8]
 462 0014 5B6A     		ldr	r3, [r3, #36]
 463 0016 ADF80E30 		strh	r3, [sp, #14]	@ movhi
 464              		.loc 1 171 0
 465 001a FFF7FEFF 		bl	dbg_check_unlock
 466              	.LBB11:
 467 001e 0023     		movs	r3, #0
 468              	@ 171 "/home/denny/r2p-sdk/modules/uDC_module/qei.c" 1
 469 0020 83F31188 		msr     BASEPRI, r3
 470              	@ 0 "" 2
 471              		.thumb
 472              	.LBE11:
 473              		.loc 1 173 0
 474 0024 BDF80E30 		ldrh	r3, [sp, #14]
 475              		.loc 1 174 0
 476 0028 1846     		mov	r0, r3
 477 002a 05B0     		add	sp, sp, #20
 478              		.cfi_def_cfa_offset 4
 479              		@ sp needed
 480 002c 5DF804FB 		ldr	pc, [sp], #4
 481              		.cfi_endproc
 482              	.LFE124:
 483              		.size	qeiGetCount, .-qeiGetCount
ARM GAS  /tmp/ccACWqgx.s 			page 10


 484              		.section	.text.qeiUpdate,"ax",%progbits
 485              		.align	2
 486              		.p2align 4,,15
 487              		.global	qeiUpdate
 488              		.thumb
 489              		.thumb_func
 490              		.type	qeiUpdate, %function
 491              	qeiUpdate:
 492              	.LFB125:
 493              		.loc 1 184 0
 494              		.cfi_startproc
 495              		@ args = 0, pretend = 0, frame = 16
 496              		@ frame_needed = 0, uses_anonymous_args = 0
 497 0000 00B5     		push	{lr}
 498              		.cfi_def_cfa_offset 4
 499              		.cfi_offset 14, -4
 500 0002 85B0     		sub	sp, sp, #20
 501              		.cfi_def_cfa_offset 24
 502 0004 0190     		str	r0, [sp, #4]
 503              	.LBB12:
 504              		.loc 1 187 0
 505 0006 2023     		movs	r3, #32
 506              	@ 187 "/home/denny/r2p-sdk/modules/uDC_module/qei.c" 1
 507 0008 83F31188 		msr     BASEPRI, r3
 508              	@ 0 "" 2
 509              		.thumb
 510              	.LBE12:
 511 000c FFF7FEFF 		bl	dbg_check_lock
 512              		.loc 1 188 0
 513 0010 0198     		ldr	r0, [sp, #4]
 514 0012 FFF7FEFF 		bl	qeiUpdateI
 515 0016 0346     		mov	r3, r0
 516 0018 ADF80E30 		strh	r3, [sp, #14]	@ movhi
 517              		.loc 1 189 0
 518 001c FFF7FEFF 		bl	dbg_check_unlock
 519              	.LBB13:
 520 0020 0023     		movs	r3, #0
 521              	@ 189 "/home/denny/r2p-sdk/modules/uDC_module/qei.c" 1
 522 0022 83F31188 		msr     BASEPRI, r3
 523              	@ 0 "" 2
 524              		.thumb
 525              	.LBE13:
 526              		.loc 1 191 0
 527 0026 BDF80E30 		ldrh	r3, [sp, #14]
 528 002a 1BB2     		sxth	r3, r3
 529              		.loc 1 192 0
 530 002c 1846     		mov	r0, r3
 531 002e 05B0     		add	sp, sp, #20
 532              		.cfi_def_cfa_offset 4
 533              		@ sp needed
 534 0030 5DF804FB 		ldr	pc, [sp], #4
 535              		.cfi_endproc
 536              	.LFE125:
 537              		.size	qeiUpdate, .-qeiUpdate
 538 0034 AFF30080 		.section	.rodata
 538      AFF30080 
 538      AFF30080 
ARM GAS  /tmp/ccACWqgx.s 			page 11


 539 007d 000000   		.align	2
 540              	.LC8:
 541 0080 22716569 		.ascii	"\"qeiUpdate\"()\000"
 541      55706461 
 541      74652228 
 541      2900
 542 008e 0000     		.align	2
 543              	.LC9:
 544 0090 71656955 		.ascii	"qeiUpdate(), #1\000"
 544      70646174 
 544      6528292C 
 544      20233100 
 545              		.section	.text.qeiUpdateI,"ax",%progbits
 546              		.align	2
 547              		.p2align 4,,15
 548              		.global	qeiUpdateI
 549              		.thumb
 550              		.thumb_func
 551              		.type	qeiUpdateI, %function
 552              	qeiUpdateI:
 553              	.LFB126:
 554              		.loc 1 202 0
 555              		.cfi_startproc
 556              		@ args = 0, pretend = 0, frame = 16
 557              		@ frame_needed = 0, uses_anonymous_args = 0
 558 0000 00B5     		push	{lr}
 559              		.cfi_def_cfa_offset 4
 560              		.cfi_offset 14, -4
 561 0002 85B0     		sub	sp, sp, #20
 562              		.cfi_def_cfa_offset 24
 563 0004 0190     		str	r0, [sp, #4]
 564              		.loc 1 206 0
 565 0006 FFF7FEFF 		bl	chDbgCheckClassI
 566              		.loc 1 207 0
 567 000a 019B     		ldr	r3, [sp, #4]
 568 000c 002B     		cmp	r3, #0
 569 000e 02D1     		bne	.L29
 570              		.loc 1 207 0 is_stmt 0 discriminator 1
 571 0010 1248     		ldr	r0, .L32
 572 0012 FFF7FEFF 		bl	chDbgPanic
 573              	.L29:
 574              		.loc 1 208 0 is_stmt 1
 575 0016 019B     		ldr	r3, [sp, #4]
 576 0018 1B78     		ldrb	r3, [r3]	@ zero_extendqisi2
 577 001a 022B     		cmp	r3, #2
 578 001c 06D0     		beq	.L30
 579              		.loc 1 208 0 is_stmt 0 discriminator 1
 580 001e 019B     		ldr	r3, [sp, #4]
 581 0020 1B78     		ldrb	r3, [r3]	@ zero_extendqisi2
 582 0022 032B     		cmp	r3, #3
 583 0024 02D0     		beq	.L30
 584              		.loc 1 208 0 discriminator 2
 585 0026 0E48     		ldr	r0, .L32+4
 586 0028 FFF7FEFF 		bl	chDbgPanic
 587              	.L30:
 588              		.loc 1 211 0 is_stmt 1
 589 002c 019B     		ldr	r3, [sp, #4]
ARM GAS  /tmp/ccACWqgx.s 			page 12


 590 002e 9B68     		ldr	r3, [r3, #8]
 591 0030 5B6A     		ldr	r3, [r3, #36]
 592 0032 ADF80E30 		strh	r3, [sp, #14]	@ movhi
 593              		.loc 1 212 0
 594 0036 019B     		ldr	r3, [sp, #4]
 595 0038 5B88     		ldrh	r3, [r3, #2]
 596 003a BDF80E20 		ldrh	r2, [sp, #14]	@ movhi
 597 003e D31A     		subs	r3, r2, r3
 598 0040 9BB2     		uxth	r3, r3
 599 0042 ADF80C30 		strh	r3, [sp, #12]	@ movhi
 600              		.loc 1 213 0
 601 0046 019B     		ldr	r3, [sp, #4]
 602 0048 BDF80E20 		ldrh	r2, [sp, #14]	@ movhi
 603 004c 5A80     		strh	r2, [r3, #2]	@ movhi
 604              		.loc 1 215 0
 605 004e BDF80C30 		ldrh	r3, [sp, #12]
 606 0052 1BB2     		sxth	r3, r3
 607              		.loc 1 216 0
 608 0054 1846     		mov	r0, r3
 609 0056 05B0     		add	sp, sp, #20
 610              		.cfi_def_cfa_offset 4
 611              		@ sp needed
 612 0058 5DF804FB 		ldr	pc, [sp], #4
 613              	.L33:
 614              		.align	2
 615              	.L32:
 616 005c 80000000 		.word	.LC8
 617 0060 90000000 		.word	.LC9
 618              		.cfi_endproc
 619              	.LFE126:
 620              		.size	qeiUpdateI, .-qeiUpdateI
 621 0064 AFF30080 		.text
 621      AFF30080 
 621      AFF30080 
 622              	.Letext0:
 623              		.file 2 "/home/denny/r2p-sdk/tools/gcc-arm-none-eabi-4_9-2014q4/arm-none-eabi/include/machine/_def
 624              		.file 3 "/home/denny/r2p-sdk/tools/gcc-arm-none-eabi-4_9-2014q4/arm-none-eabi/include/stdint.h"
 625              		.file 4 "/home/denny/r2p-sdk/core/ChibiOS/os/hal/platforms/STM32/TIMv1/stm32_tim.h"
 626              		.file 5 "/home/denny/r2p-sdk/modules/uDC_module/qei.h"
 627              		.file 6 "/home/denny/r2p-sdk/modules/uDC_module/qei_lld.h"
 628              		.file 7 "/home/denny/r2p-sdk/core/ChibiOS/os/ports/common/ARMCMx/CMSIS/include/core_cm4.h"