ARM GAS  /tmp/ccznMLDd.s 			page 1


   1              		.syntax unified
   2              		.cpu cortex-m4
   3              		.eabi_attribute 27, 3
   4              		.eabi_attribute 28, 1
   5              		.fpu fpv4-sp-d16
   6              		.eabi_attribute 20, 1
   7              		.eabi_attribute 21, 1
   8              		.eabi_attribute 23, 3
   9              		.eabi_attribute 24, 1
  10              		.eabi_attribute 25, 1
  11              		.eabi_attribute 26, 1
  12              		.eabi_attribute 30, 6
  13              		.eabi_attribute 34, 1
  14              		.eabi_attribute 18, 4
  15              		.thumb
  16              		.file	"RTCANTransport.cpp"
  17              		.text
  18              	.Ltext0:
  19              		.cfi_sections	.debug_frame
  20              		.section	.text._ZN3r2p10UncopyableC2Ev,"axG",%progbits,_ZN3r2p10UncopyableC5Ev,comdat
  21              		.align	2
  22              		.p2align 4,,15
  23              		.weak	_ZN3r2p10UncopyableC2Ev
  24              		.thumb
  25              		.thumb_func
  26              		.type	_ZN3r2p10UncopyableC2Ev, %function
  27              	_ZN3r2p10UncopyableC2Ev:
  28              	.LFB6:
  29              		.file 1 "/home/denny/r2p-sdk/core/Middleware/include/r2p/Uncopyable.hpp"
  30              		.loc 1 20 0
  31              		.cfi_startproc
  32              		@ args = 0, pretend = 0, frame = 8
  33              		@ frame_needed = 0, uses_anonymous_args = 0
  34              		@ link register save eliminated.
  35 0000 82B0     		sub	sp, sp, #8
  36              		.cfi_def_cfa_offset 8
  37 0002 0190     		str	r0, [sp, #4]
  38              		.loc 1 20 0
  39 0004 019B     		ldr	r3, [sp, #4]
  40 0006 1846     		mov	r0, r3
  41 0008 02B0     		add	sp, sp, #8
  42              		.cfi_def_cfa_offset 0
  43              		@ sp needed
  44 000a 7047     		bx	lr
  45              		.cfi_endproc
  46              	.LFE6:
  47              		.size	_ZN3r2p10UncopyableC2Ev, .-_ZN3r2p10UncopyableC2Ev
  48              		.weak	_ZN3r2p10UncopyableC1Ev
  49              		.thumb_set _ZN3r2p10UncopyableC1Ev,_ZN3r2p10UncopyableC2Ev
  50 000c AFF30080 		.section	.text._ZN3r2p10UncopyableD2Ev,"axG",%progbits,_ZN3r2p10UncopyableD5Ev,comdat
  51              		.align	2
  52              		.p2align 4,,15
  53              		.weak	_ZN3r2p10UncopyableD2Ev
  54              		.thumb
  55              		.thumb_func
  56              		.type	_ZN3r2p10UncopyableD2Ev, %function
  57              	_ZN3r2p10UncopyableD2Ev:
ARM GAS  /tmp/ccznMLDd.s 			page 2


  58              	.LFB9:
  59              		.loc 1 21 0
  60              		.cfi_startproc
  61              		@ args = 0, pretend = 0, frame = 8
  62              		@ frame_needed = 0, uses_anonymous_args = 0
  63              		@ link register save eliminated.
  64 0000 82B0     		sub	sp, sp, #8
  65              		.cfi_def_cfa_offset 8
  66 0002 0190     		str	r0, [sp, #4]
  67              		.loc 1 21 0
  68 0004 019B     		ldr	r3, [sp, #4]
  69 0006 1846     		mov	r0, r3
  70 0008 02B0     		add	sp, sp, #8
  71              		.cfi_def_cfa_offset 0
  72              		@ sp needed
  73 000a 7047     		bx	lr
  74              		.cfi_endproc
  75              	.LFE9:
  76              		.size	_ZN3r2p10UncopyableD2Ev, .-_ZN3r2p10UncopyableD2Ev
  77              		.weak	_ZN3r2p10UncopyableD1Ev
  78              		.thumb_set _ZN3r2p10UncopyableD1Ev,_ZN3r2p10UncopyableD2Ev
  79 000c AFF30080 		.section	.text._ZN3r2p8SysLock_7acquireEv,"axG",%progbits,_ZN3r2p8SysLock_7acquireEv,comdat
  80              		.align	2
  81              		.p2align 4,,15
  82              		.weak	_ZN3r2p8SysLock_7acquireEv
  83              		.thumb
  84              		.thumb_func
  85              		.type	_ZN3r2p8SysLock_7acquireEv, %function
  86              	_ZN3r2p8SysLock_7acquireEv:
  87              	.LFB18:
  88              		.file 2 "/home/denny/r2p-sdk/core/Middleware/port/chibios/include/r2p/impl/SysLock_.hpp"
  89              		.loc 2 20 0
  90              		.cfi_startproc
  91              		@ args = 0, pretend = 0, frame = 0
  92              		@ frame_needed = 0, uses_anonymous_args = 0
  93 0000 08B5     		push	{r3, lr}
  94              		.cfi_def_cfa_offset 8
  95              		.cfi_offset 3, -8
  96              		.cfi_offset 14, -4
  97              	.LBB5:
  98              	.LBB6:
  99              	.LBB7:
 100              		.loc 2 22 0
 101 0002 2023     		movs	r3, #32
 102              	@ 22 "/home/denny/r2p-sdk/core/Middleware/port/chibios/include/r2p/impl/SysLock_.hpp" 1
 103 0004 83F31188 		msr     BASEPRI, r3
 104              	@ 0 "" 2
 105              		.thumb
 106              	.LBE7:
 107 0008 FFF7FEFF 		bl	dbg_check_lock
 108              	.LBE6:
 109              	.LBE5:
 110              		.loc 2 23 0
 111 000c 08BD     		pop	{r3, pc}
 112              		.cfi_endproc
 113              	.LFE18:
 114              		.size	_ZN3r2p8SysLock_7acquireEv, .-_ZN3r2p8SysLock_7acquireEv
ARM GAS  /tmp/ccznMLDd.s 			page 3


 115 000e 00BF     		.section	.text._ZN3r2p8SysLock_7releaseEv,"axG",%progbits,_ZN3r2p8SysLock_7releaseEv,comdat
 116              		.align	2
 117              		.p2align 4,,15
 118              		.weak	_ZN3r2p8SysLock_7releaseEv
 119              		.thumb
 120              		.thumb_func
 121              		.type	_ZN3r2p8SysLock_7releaseEv, %function
 122              	_ZN3r2p8SysLock_7releaseEv:
 123              	.LFB19:
 124              		.loc 2 27 0
 125              		.cfi_startproc
 126              		@ args = 0, pretend = 0, frame = 0
 127              		@ frame_needed = 0, uses_anonymous_args = 0
 128 0000 08B5     		push	{r3, lr}
 129              		.cfi_def_cfa_offset 8
 130              		.cfi_offset 3, -8
 131              		.cfi_offset 14, -4
 132              	.LBB8:
 133              	.LBB9:
 134              		.loc 2 29 0
 135 0002 FFF7FEFF 		bl	dbg_check_unlock
 136              	.LBB10:
 137 0006 0023     		movs	r3, #0
 138              	@ 29 "/home/denny/r2p-sdk/core/Middleware/port/chibios/include/r2p/impl/SysLock_.hpp" 1
 139 0008 83F31188 		msr     BASEPRI, r3
 140              	@ 0 "" 2
 141              		.thumb
 142              	.LBE10:
 143              	.LBE9:
 144              	.LBE8:
 145              		.loc 2 30 0
 146 000c 08BD     		pop	{r3, pc}
 147              		.cfi_endproc
 148              	.LFE19:
 149              		.size	_ZN3r2p8SysLock_7releaseEv, .-_ZN3r2p8SysLock_7releaseEv
 150 000e 00BF     		.section	.text._ZN3r2p7SysLock7acquireEv,"axG",%progbits,_ZN3r2p7SysLock7acquireEv,comdat
 151              		.align	2
 152              		.p2align 4,,15
 153              		.weak	_ZN3r2p7SysLock7acquireEv
 154              		.thumb
 155              		.thumb_func
 156              		.type	_ZN3r2p7SysLock7acquireEv, %function
 157              	_ZN3r2p7SysLock7acquireEv:
 158              	.LFB26:
 159              		.file 3 "/home/denny/r2p-sdk/core/Middleware/include/r2p/SysLock.hpp"
 160              		.loc 3 27 0
 161              		.cfi_startproc
 162              		@ args = 0, pretend = 0, frame = 0
 163              		@ frame_needed = 0, uses_anonymous_args = 0
 164 0000 08B5     		push	{r3, lr}
 165              		.cfi_def_cfa_offset 8
 166              		.cfi_offset 3, -8
 167              		.cfi_offset 14, -4
 168              		.loc 3 29 0
 169 0002 FFF7FEFF 		bl	_ZN3r2p8SysLock_7acquireEv
 170              		.loc 3 30 0
 171 0006 08BD     		pop	{r3, pc}
ARM GAS  /tmp/ccznMLDd.s 			page 4


 172              		.cfi_endproc
 173              	.LFE26:
 174              		.size	_ZN3r2p7SysLock7acquireEv, .-_ZN3r2p7SysLock7acquireEv
 175 0008 AFF30080 		.section	.text._ZN3r2p7SysLock7releaseEv,"axG",%progbits,_ZN3r2p7SysLock7releaseEv,comdat
 175      AFF30080 
 176              		.align	2
 177              		.p2align 4,,15
 178              		.weak	_ZN3r2p7SysLock7releaseEv
 179              		.thumb
 180              		.thumb_func
 181              		.type	_ZN3r2p7SysLock7releaseEv, %function
 182              	_ZN3r2p7SysLock7releaseEv:
 183              	.LFB27:
 184              		.loc 3 34 0
 185              		.cfi_startproc
 186              		@ args = 0, pretend = 0, frame = 0
 187              		@ frame_needed = 0, uses_anonymous_args = 0
 188 0000 08B5     		push	{r3, lr}
 189              		.cfi_def_cfa_offset 8
 190              		.cfi_offset 3, -8
 191              		.cfi_offset 14, -4
 192              		.loc 3 36 0
 193 0002 FFF7FEFF 		bl	_ZN3r2p8SysLock_7releaseEv
 194              		.loc 3 37 0
 195 0006 08BD     		pop	{r3, pc}
 196              		.cfi_endproc
 197              	.LFE27:
 198              		.size	_ZN3r2p7SysLock7releaseEv, .-_ZN3r2p7SysLock7releaseEv
 199              		.section	.text._ZN3r2p4TimeC2Ev,"axG",%progbits,_ZN3r2p4TimeC5Ev,comdat
 200              		.align	2
 201              		.p2align 4,,15
 202              		.weak	_ZN3r2p4TimeC2Ev
 203              		.thumb
 204              		.thumb_func
 205              		.type	_ZN3r2p4TimeC2Ev, %function
 206              	_ZN3r2p4TimeC2Ev:
 207              	.LFB144:
 208              		.file 4 "/home/denny/r2p-sdk/core/Middleware/include/r2p/Time.hpp"
 209              		.loc 4 155 0
 210              		.cfi_startproc
 211              		@ args = 0, pretend = 0, frame = 8
 212              		@ frame_needed = 0, uses_anonymous_args = 0
 213              		@ link register save eliminated.
 214 0000 82B0     		sub	sp, sp, #8
 215              		.cfi_def_cfa_offset 8
 216 0002 0190     		str	r0, [sp, #4]
 217              	.LBB11:
 218              		.loc 4 155 0
 219 0004 019B     		ldr	r3, [sp, #4]
 220 0006 0022     		movs	r2, #0
 221 0008 1A60     		str	r2, [r3]
 222              	.LBE11:
 223 000a 019B     		ldr	r3, [sp, #4]
 224 000c 1846     		mov	r0, r3
 225 000e 02B0     		add	sp, sp, #8
 226              		.cfi_def_cfa_offset 0
 227              		@ sp needed
ARM GAS  /tmp/ccznMLDd.s 			page 5


 228 0010 7047     		bx	lr
 229              		.cfi_endproc
 230              	.LFE144:
 231              		.size	_ZN3r2p4TimeC2Ev, .-_ZN3r2p4TimeC2Ev
 232              		.weak	_ZN3r2p4TimeC1Ev
 233              		.thumb_set _ZN3r2p4TimeC1Ev,_ZN3r2p4TimeC2Ev
 234 0012 00BFAFF3 		.section	.text._ZN3r2p22TimestampedMsgPtrQueue5EntryC2Ev,"axG",%progbits,_ZN3r2p22TimestampedMsgPt
 234      0080AFF3 
 234      0080AFF3 
 234      0080
 235              		.align	2
 236              		.p2align 4,,15
 237              		.weak	_ZN3r2p22TimestampedMsgPtrQueue5EntryC2Ev
 238              		.thumb
 239              		.thumb_func
 240              		.type	_ZN3r2p22TimestampedMsgPtrQueue5EntryC2Ev, %function
 241              	_ZN3r2p22TimestampedMsgPtrQueue5EntryC2Ev:
 242              	.LFB180:
 243              		.file 5 "/home/denny/r2p-sdk/core/Middleware/include/r2p/TimestampedMsgPtrQueue.hpp"
 244              		.loc 5 106 0
 245              		.cfi_startproc
 246              		@ args = 0, pretend = 0, frame = 8
 247              		@ frame_needed = 0, uses_anonymous_args = 0
 248 0000 00B5     		push	{lr}
 249              		.cfi_def_cfa_offset 4
 250              		.cfi_offset 14, -4
 251 0002 83B0     		sub	sp, sp, #12
 252              		.cfi_def_cfa_offset 16
 253 0004 0190     		str	r0, [sp, #4]
 254              	.LBB12:
 255              		.loc 5 108 0
 256 0006 019B     		ldr	r3, [sp, #4]
 257 0008 0022     		movs	r2, #0
 258 000a 1A60     		str	r2, [r3]
 259 000c 019B     		ldr	r3, [sp, #4]
 260 000e 0433     		adds	r3, r3, #4
 261 0010 1846     		mov	r0, r3
 262 0012 FFF7FEFF 		bl	_ZN3r2p4TimeC1Ev
 263              	.LBE12:
 264              		.loc 5 109 0
 265 0016 019B     		ldr	r3, [sp, #4]
 266 0018 1846     		mov	r0, r3
 267 001a 03B0     		add	sp, sp, #12
 268              		.cfi_def_cfa_offset 4
 269              		@ sp needed
 270 001c 5DF804FB 		ldr	pc, [sp], #4
 271              		.cfi_endproc
 272              	.LFE180:
 273              		.size	_ZN3r2p22TimestampedMsgPtrQueue5EntryC2Ev, .-_ZN3r2p22TimestampedMsgPtrQueue5EntryC2Ev
 274              		.weak	_ZN3r2p22TimestampedMsgPtrQueue5EntryC1Ev
 275              		.thumb_set _ZN3r2p22TimestampedMsgPtrQueue5EntryC1Ev,_ZN3r2p22TimestampedMsgPtrQueue5EntryC2Ev
 276              		.section	.text._ZNK3r2p7Message12get_raw_dataEv,"axG",%progbits,_ZNK3r2p7Message12get_raw_dataEv,c
 277              		.align	2
 278              		.p2align 4,,15
 279              		.weak	_ZNK3r2p7Message12get_raw_dataEv
 280              		.thumb
 281              		.thumb_func
ARM GAS  /tmp/ccznMLDd.s 			page 6


 282              		.type	_ZNK3r2p7Message12get_raw_dataEv, %function
 283              	_ZNK3r2p7Message12get_raw_dataEv:
 284              	.LFB208:
 285              		.file 6 "/home/denny/r2p-sdk/core/Middleware/include/r2p/Message.hpp"
 286              		.loc 6 67 0
 287              		.cfi_startproc
 288              		@ args = 0, pretend = 0, frame = 8
 289              		@ frame_needed = 0, uses_anonymous_args = 0
 290              		@ link register save eliminated.
 291 0000 82B0     		sub	sp, sp, #8
 292              		.cfi_def_cfa_offset 8
 293 0002 0190     		str	r0, [sp, #4]
 294              		.loc 6 69 0
 295 0004 019B     		ldr	r3, [sp, #4]
 296 0006 0233     		adds	r3, r3, #2
 297              		.loc 6 70 0
 298 0008 1846     		mov	r0, r3
 299 000a 02B0     		add	sp, sp, #8
 300              		.cfi_def_cfa_offset 0
 301              		@ sp needed
 302 000c 7047     		bx	lr
 303              		.cfi_endproc
 304              	.LFE208:
 305              		.size	_ZNK3r2p7Message12get_raw_dataEv, .-_ZNK3r2p7Message12get_raw_dataEv
 306 000e 00BF     		.section	.text._ZN3r2p7Message21get_msg_from_raw_dataEPKh,"axG",%progbits,_ZN3r2p7Message21get_msg
 307              		.align	2
 308              		.p2align 4,,15
 309              		.weak	_ZN3r2p7Message21get_msg_from_raw_dataEPKh
 310              		.thumb
 311              		.thumb_func
 312              		.type	_ZN3r2p7Message21get_msg_from_raw_dataEPKh, %function
 313              	_ZN3r2p7Message21get_msg_from_raw_dataEPKh:
 314              	.LFB209:
 315              		.loc 6 74 0
 316              		.cfi_startproc
 317              		@ args = 0, pretend = 0, frame = 8
 318              		@ frame_needed = 0, uses_anonymous_args = 0
 319              		@ link register save eliminated.
 320 0000 82B0     		sub	sp, sp, #8
 321              		.cfi_def_cfa_offset 8
 322 0002 0190     		str	r0, [sp, #4]
 323              		.loc 6 80 0
 324 0004 6FF00102 		mvn	r2, #1
 325 0008 019B     		ldr	r3, [sp, #4]
 326 000a 1344     		add	r3, r3, r2
 327              		.loc 6 82 0
 328 000c 1846     		mov	r0, r3
 329 000e 02B0     		add	sp, sp, #8
 330              		.cfi_def_cfa_offset 0
 331              		@ sp needed
 332 0010 7047     		bx	lr
 333              		.cfi_endproc
 334              	.LFE209:
 335              		.size	_ZN3r2p7Message21get_msg_from_raw_dataEPKh, .-_ZN3r2p7Message21get_msg_from_raw_dataEPKh
 336 0012 00BFAFF3 		.section	.text._ZN3r2p7Message12reset_unsafeEv,"axG",%progbits,_ZN3r2p7Message12reset_unsafeEv,com
 336      0080AFF3 
 336      0080AFF3 
ARM GAS  /tmp/ccznMLDd.s 			page 7


 336      0080
 337              		.align	2
 338              		.p2align 4,,15
 339              		.weak	_ZN3r2p7Message12reset_unsafeEv
 340              		.thumb
 341              		.thumb_func
 342              		.type	_ZN3r2p7Message12reset_unsafeEv, %function
 343              	_ZN3r2p7Message12reset_unsafeEv:
 344              	.LFB212:
 345              		.loc 6 122 0
 346              		.cfi_startproc
 347              		@ args = 0, pretend = 0, frame = 8
 348              		@ frame_needed = 0, uses_anonymous_args = 0
 349              		@ link register save eliminated.
 350 0000 82B0     		sub	sp, sp, #8
 351              		.cfi_def_cfa_offset 8
 352 0002 0190     		str	r0, [sp, #4]
 353              		.loc 6 127 0
 354 0004 019B     		ldr	r3, [sp, #4]
 355 0006 0022     		movs	r2, #0
 356 0008 1A70     		strb	r2, [r3]
 357 000a 0022     		movs	r2, #0
 358 000c 5A70     		strb	r2, [r3, #1]
 359              		.loc 6 128 0
 360 000e 02B0     		add	sp, sp, #8
 361              		.cfi_def_cfa_offset 0
 362              		@ sp needed
 363 0010 7047     		bx	lr
 364              		.cfi_endproc
 365              	.LFE212:
 366              		.size	_ZN3r2p7Message12reset_unsafeEv, .-_ZN3r2p7Message12reset_unsafeEv
 367 0012 00BFAFF3 		.section	.text._ZN3r2p7MessageC2Ev,"axG",%progbits,_ZN3r2p7MessageC5Ev,comdat
 367      0080AFF3 
 367      0080AFF3 
 367      0080
 368              		.align	2
 369              		.p2align 4,,15
 370              		.weak	_ZN3r2p7MessageC2Ev
 371              		.thumb
 372              		.thumb_func
 373              		.type	_ZN3r2p7MessageC2Ev, %function
 374              	_ZN3r2p7MessageC2Ev:
 375              	.LFB214:
 376              		.loc 6 132 0
 377              		.cfi_startproc
 378              		@ args = 0, pretend = 0, frame = 8
 379              		@ frame_needed = 0, uses_anonymous_args = 0
 380              		@ link register save eliminated.
 381 0000 82B0     		sub	sp, sp, #8
 382              		.cfi_def_cfa_offset 8
 383 0002 0190     		str	r0, [sp, #4]
 384              	.LBB13:
 385              		.loc 6 137 0
 386 0004 019B     		ldr	r3, [sp, #4]
 387 0006 0022     		movs	r2, #0
 388 0008 1A70     		strb	r2, [r3]
 389 000a 0022     		movs	r2, #0
ARM GAS  /tmp/ccznMLDd.s 			page 8


 390 000c 5A70     		strb	r2, [r3, #1]
 391              	.LBE13:
 392              		.loc 6 138 0
 393 000e 019B     		ldr	r3, [sp, #4]
 394 0010 1846     		mov	r0, r3
 395 0012 02B0     		add	sp, sp, #8
 396              		.cfi_def_cfa_offset 0
 397              		@ sp needed
 398 0014 7047     		bx	lr
 399              		.cfi_endproc
 400              	.LFE214:
 401              		.size	_ZN3r2p7MessageC2Ev, .-_ZN3r2p7MessageC2Ev
 402              		.weak	_ZN3r2p7MessageC1Ev
 403              		.thumb_set _ZN3r2p7MessageC1Ev,_ZN3r2p7MessageC2Ev
 404 0016 00BFAFF3 		.section	.text._ZN3r2p7Message16get_payload_sizeEj,"axG",%progbits,_ZN3r2p7Message16get_payload_si
 404      0080AFF3 
 404      0080
 405              		.align	2
 406              		.p2align 4,,15
 407              		.weak	_ZN3r2p7Message16get_payload_sizeEj
 408              		.thumb
 409              		.thumb_func
 410              		.type	_ZN3r2p7Message16get_payload_sizeEj, %function
 411              	_ZN3r2p7Message16get_payload_sizeEj:
 412              	.LFB216:
 413              		.loc 6 142 0
 414              		.cfi_startproc
 415              		@ args = 0, pretend = 0, frame = 8
 416              		@ frame_needed = 0, uses_anonymous_args = 0
 417              		@ link register save eliminated.
 418 0000 82B0     		sub	sp, sp, #8
 419              		.cfi_def_cfa_offset 8
 420 0002 0190     		str	r0, [sp, #4]
 421              		.loc 6 147 0
 422 0004 019B     		ldr	r3, [sp, #4]
 423 0006 023B     		subs	r3, r3, #2
 424              		.loc 6 149 0
 425 0008 1846     		mov	r0, r3
 426 000a 02B0     		add	sp, sp, #8
 427              		.cfi_def_cfa_offset 0
 428              		@ sp needed
 429 000c 7047     		bx	lr
 430              		.cfi_endproc
 431              	.LFE216:
 432              		.size	_ZN3r2p7Message16get_payload_sizeEj, .-_ZN3r2p7Message16get_payload_sizeEj
 433 000e 00BF     		.section	.text._ZNK3r2p11MemoryPool_13get_item_sizeEv,"axG",%progbits,_ZNK3r2p11MemoryPool_13get_i
 434              		.align	2
 435              		.p2align 4,,15
 436              		.weak	_ZNK3r2p11MemoryPool_13get_item_sizeEv
 437              		.thumb
 438              		.thumb_func
 439              		.type	_ZNK3r2p11MemoryPool_13get_item_sizeEv, %function
 440              	_ZNK3r2p11MemoryPool_13get_item_sizeEv:
 441              	.LFB297:
 442              		.file 7 "/home/denny/r2p-sdk/core/Middleware/port/chibios/include/r2p/impl/MemoryPool_.hpp"
 443              		.loc 7 39 0
 444              		.cfi_startproc
ARM GAS  /tmp/ccznMLDd.s 			page 9


 445              		@ args = 0, pretend = 0, frame = 8
 446              		@ frame_needed = 0, uses_anonymous_args = 0
 447              		@ link register save eliminated.
 448 0000 82B0     		sub	sp, sp, #8
 449              		.cfi_def_cfa_offset 8
 450 0002 0190     		str	r0, [sp, #4]
 451              		.loc 7 41 0
 452 0004 019B     		ldr	r3, [sp, #4]
 453 0006 5B68     		ldr	r3, [r3, #4]
 454              		.loc 7 42 0
 455 0008 1846     		mov	r0, r3
 456 000a 02B0     		add	sp, sp, #8
 457              		.cfi_def_cfa_offset 0
 458              		@ sp needed
 459 000c 7047     		bx	lr
 460              		.cfi_endproc
 461              	.LFE297:
 462              		.size	_ZNK3r2p11MemoryPool_13get_item_sizeEv, .-_ZNK3r2p11MemoryPool_13get_item_sizeEv
 463 000e 00BF     		.section	.text._ZN3r2p11MemoryPool_12alloc_unsafeEv,"axG",%progbits,_ZN3r2p11MemoryPool_12alloc_un
 464              		.align	2
 465              		.p2align 4,,15
 466              		.weak	_ZN3r2p11MemoryPool_12alloc_unsafeEv
 467              		.thumb
 468              		.thumb_func
 469              		.type	_ZN3r2p11MemoryPool_12alloc_unsafeEv, %function
 470              	_ZN3r2p11MemoryPool_12alloc_unsafeEv:
 471              	.LFB299:
 472              		.loc 7 53 0
 473              		.cfi_startproc
 474              		@ args = 0, pretend = 0, frame = 8
 475              		@ frame_needed = 0, uses_anonymous_args = 0
 476 0000 00B5     		push	{lr}
 477              		.cfi_def_cfa_offset 4
 478              		.cfi_offset 14, -4
 479 0002 83B0     		sub	sp, sp, #12
 480              		.cfi_def_cfa_offset 16
 481 0004 0190     		str	r0, [sp, #4]
 482              		.loc 7 55 0
 483 0006 019B     		ldr	r3, [sp, #4]
 484 0008 1846     		mov	r0, r3
 485 000a FFF7FEFF 		bl	chPoolAllocI
 486 000e 0346     		mov	r3, r0
 487              		.loc 7 56 0
 488 0010 1846     		mov	r0, r3
 489 0012 03B0     		add	sp, sp, #12
 490              		.cfi_def_cfa_offset 4
 491              		@ sp needed
 492 0014 5DF804FB 		ldr	pc, [sp], #4
 493              		.cfi_endproc
 494              	.LFE299:
 495              		.size	_ZN3r2p11MemoryPool_12alloc_unsafeEv, .-_ZN3r2p11MemoryPool_12alloc_unsafeEv
 496 0018 AFF30080 		.section	.text._ZN3r2p11MemoryPool_11free_unsafeEPv,"axG",%progbits,_ZN3r2p11MemoryPool_11free_uns
 496      AFF30080 
 497              		.align	2
 498              		.p2align 4,,15
 499              		.weak	_ZN3r2p11MemoryPool_11free_unsafeEPv
 500              		.thumb
ARM GAS  /tmp/ccznMLDd.s 			page 10


 501              		.thumb_func
 502              		.type	_ZN3r2p11MemoryPool_11free_unsafeEPv, %function
 503              	_ZN3r2p11MemoryPool_11free_unsafeEPv:
 504              	.LFB300:
 505              		.loc 7 60 0
 506              		.cfi_startproc
 507              		@ args = 0, pretend = 0, frame = 8
 508              		@ frame_needed = 0, uses_anonymous_args = 0
 509 0000 00B5     		push	{lr}
 510              		.cfi_def_cfa_offset 4
 511              		.cfi_offset 14, -4
 512 0002 83B0     		sub	sp, sp, #12
 513              		.cfi_def_cfa_offset 16
 514 0004 0190     		str	r0, [sp, #4]
 515 0006 0091     		str	r1, [sp]
 516              		.loc 7 62 0
 517 0008 009B     		ldr	r3, [sp]
 518 000a 002B     		cmp	r3, #0
 519 000c 04D0     		beq	.L31
 520              		.loc 7 63 0
 521 000e 019B     		ldr	r3, [sp, #4]
 522 0010 1846     		mov	r0, r3
 523 0012 0099     		ldr	r1, [sp]
 524 0014 FFF7FEFF 		bl	chPoolFreeI
 525              	.L31:
 526              		.loc 7 65 0
 527 0018 03B0     		add	sp, sp, #12
 528              		.cfi_def_cfa_offset 4
 529              		@ sp needed
 530 001a 5DF804FB 		ldr	pc, [sp], #4
 531              		.cfi_endproc
 532              	.LFE300:
 533              		.size	_ZN3r2p11MemoryPool_11free_unsafeEPv, .-_ZN3r2p11MemoryPool_11free_unsafeEPv
 534 001e 00BF     		.section	.text._ZN3r2p11MemoryPool_6extendEPvj,"axG",%progbits,_ZN3r2p11MemoryPool_6extendEPvj,com
 535              		.align	2
 536              		.p2align 4,,15
 537              		.weak	_ZN3r2p11MemoryPool_6extendEPvj
 538              		.thumb
 539              		.thumb_func
 540              		.type	_ZN3r2p11MemoryPool_6extendEPvj, %function
 541              	_ZN3r2p11MemoryPool_6extendEPvj:
 542              	.LFB303:
 543              		.loc 7 85 0
 544              		.cfi_startproc
 545              		@ args = 0, pretend = 0, frame = 16
 546              		@ frame_needed = 0, uses_anonymous_args = 0
 547 0000 00B5     		push	{lr}
 548              		.cfi_def_cfa_offset 4
 549              		.cfi_offset 14, -4
 550 0002 85B0     		sub	sp, sp, #20
 551              		.cfi_def_cfa_offset 24
 552 0004 0390     		str	r0, [sp, #12]
 553 0006 0291     		str	r1, [sp, #8]
 554 0008 0192     		str	r2, [sp, #4]
 555              		.loc 7 87 0
 556 000a 039B     		ldr	r3, [sp, #12]
 557 000c 1846     		mov	r0, r3
ARM GAS  /tmp/ccznMLDd.s 			page 11


 558 000e 0299     		ldr	r1, [sp, #8]
 559 0010 019A     		ldr	r2, [sp, #4]
 560 0012 FFF7FEFF 		bl	chPoolLoadArray
 561              		.loc 7 88 0
 562 0016 05B0     		add	sp, sp, #20
 563              		.cfi_def_cfa_offset 4
 564              		@ sp needed
 565 0018 5DF804FB 		ldr	pc, [sp], #4
 566              		.cfi_endproc
 567              	.LFE303:
 568              		.size	_ZN3r2p11MemoryPool_6extendEPvj, .-_ZN3r2p11MemoryPool_6extendEPvj
 569 001c AFF30080 		.section	.text._ZN3r2p11MemoryPool_C2EPvjj,"axG",%progbits,_ZN3r2p11MemoryPool_C5EPvjj,comdat
 570              		.align	2
 571              		.p2align 4,,15
 572              		.weak	_ZN3r2p11MemoryPool_C2EPvjj
 573              		.thumb
 574              		.thumb_func
 575              		.type	_ZN3r2p11MemoryPool_C2EPvjj, %function
 576              	_ZN3r2p11MemoryPool_C2EPvjj:
 577              	.LFB309:
 578              		.loc 7 106 0
 579              		.cfi_startproc
 580              		@ args = 0, pretend = 0, frame = 16
 581              		@ frame_needed = 0, uses_anonymous_args = 0
 582 0000 00B5     		push	{lr}
 583              		.cfi_def_cfa_offset 4
 584              		.cfi_offset 14, -4
 585 0002 85B0     		sub	sp, sp, #20
 586              		.cfi_def_cfa_offset 24
 587 0004 0390     		str	r0, [sp, #12]
 588 0006 0291     		str	r1, [sp, #8]
 589 0008 0192     		str	r2, [sp, #4]
 590 000a 0093     		str	r3, [sp]
 591              	.LBB14:
 592              		.loc 7 106 0
 593 000c 0398     		ldr	r0, [sp, #12]
 594 000e FFF7FEFF 		bl	_ZN3r2p10UncopyableC2Ev
 595              		.loc 7 108 0
 596 0012 039B     		ldr	r3, [sp, #12]
 597 0014 1846     		mov	r0, r3
 598 0016 0099     		ldr	r1, [sp]
 599 0018 0022     		movs	r2, #0
 600 001a FFF7FEFF 		bl	chPoolInit
 601              		.loc 7 109 0
 602 001e 0398     		ldr	r0, [sp, #12]
 603 0020 0299     		ldr	r1, [sp, #8]
 604 0022 019A     		ldr	r2, [sp, #4]
 605 0024 FFF7FEFF 		bl	_ZN3r2p11MemoryPool_6extendEPvj
 606              	.LBE14:
 607              		.loc 7 110 0
 608 0028 039B     		ldr	r3, [sp, #12]
 609 002a 1846     		mov	r0, r3
 610 002c 05B0     		add	sp, sp, #20
 611              		.cfi_def_cfa_offset 4
 612              		@ sp needed
 613 002e 5DF804FB 		ldr	pc, [sp], #4
 614              		.cfi_endproc
ARM GAS  /tmp/ccznMLDd.s 			page 12


 615              	.LFE309:
 616              		.size	_ZN3r2p11MemoryPool_C2EPvjj, .-_ZN3r2p11MemoryPool_C2EPvjj
 617              		.weak	_ZN3r2p11MemoryPool_C1EPvjj
 618              		.thumb_set _ZN3r2p11MemoryPool_C1EPvjj,_ZN3r2p11MemoryPool_C2EPvjj
 619 0032 00BFAFF3 		.section	.text._ZNK3r2p14BaseSubscriber9get_topicEv,"axG",%progbits,_ZNK3r2p14BaseSubscriber9get_t
 619      0080AFF3 
 619      0080AFF3 
 619      0080
 620              		.align	2
 621              		.p2align 4,,15
 622              		.weak	_ZNK3r2p14BaseSubscriber9get_topicEv
 623              		.thumb
 624              		.thumb_func
 625              		.type	_ZNK3r2p14BaseSubscriber9get_topicEv, %function
 626              	_ZNK3r2p14BaseSubscriber9get_topicEv:
 627              	.LFB462:
 628              		.file 8 "/home/denny/r2p-sdk/core/Middleware/include/r2p/BaseSubscriber.hpp"
 629              		.loc 8 42 0
 630              		.cfi_startproc
 631              		@ args = 0, pretend = 0, frame = 8
 632              		@ frame_needed = 0, uses_anonymous_args = 0
 633              		@ link register save eliminated.
 634 0000 82B0     		sub	sp, sp, #8
 635              		.cfi_def_cfa_offset 8
 636 0002 0190     		str	r0, [sp, #4]
 637              		.loc 8 44 0
 638 0004 019B     		ldr	r3, [sp, #4]
 639 0006 5B68     		ldr	r3, [r3, #4]
 640              		.loc 8 45 0
 641 0008 1846     		mov	r0, r3
 642 000a 02B0     		add	sp, sp, #8
 643              		.cfi_def_cfa_offset 0
 644              		@ sp needed
 645 000c 7047     		bx	lr
 646              		.cfi_endproc
 647              	.LFE462:
 648              		.size	_ZNK3r2p14BaseSubscriber9get_topicEv, .-_ZNK3r2p14BaseSubscriber9get_topicEv
 649 000e 00BF     		.section	.text._ZNK3r2p16RemoteSubscriber13get_transportEv,"axG",%progbits,_ZNK3r2p16RemoteSubscri
 650              		.align	2
 651              		.p2align 4,,15
 652              		.weak	_ZNK3r2p16RemoteSubscriber13get_transportEv
 653              		.thumb
 654              		.thumb_func
 655              		.type	_ZNK3r2p16RemoteSubscriber13get_transportEv, %function
 656              	_ZNK3r2p16RemoteSubscriber13get_transportEv:
 657              	.LFB505:
 658              		.file 9 "/home/denny/r2p-sdk/core/Middleware/include/r2p/RemoteSubscriber.hpp"
 659              		.loc 9 31 0
 660              		.cfi_startproc
 661              		@ args = 0, pretend = 0, frame = 8
 662              		@ frame_needed = 0, uses_anonymous_args = 0
 663              		@ link register save eliminated.
 664 0000 82B0     		sub	sp, sp, #8
 665              		.cfi_def_cfa_offset 8
 666 0002 0190     		str	r0, [sp, #4]
 667              		.loc 9 33 0
 668 0004 019B     		ldr	r3, [sp, #4]
ARM GAS  /tmp/ccznMLDd.s 			page 13


 669 0006 9B68     		ldr	r3, [r3, #8]
 670              		.loc 9 34 0
 671 0008 1846     		mov	r0, r3
 672 000a 02B0     		add	sp, sp, #8
 673              		.cfi_def_cfa_offset 0
 674              		@ sp needed
 675 000c 7047     		bx	lr
 676              		.cfi_endproc
 677              	.LFE505:
 678              		.size	_ZNK3r2p16RemoteSubscriber13get_transportEv, .-_ZNK3r2p16RemoteSubscriber13get_transportEv
 679 000e 00BF     		.section	.text._ZNK3r2p5Topic8get_nameEv,"axG",%progbits,_ZNK3r2p5Topic8get_nameEv,comdat
 680              		.align	2
 681              		.p2align 4,,15
 682              		.weak	_ZNK3r2p5Topic8get_nameEv
 683              		.thumb
 684              		.thumb_func
 685              		.type	_ZNK3r2p5Topic8get_nameEv, %function
 686              	_ZNK3r2p5Topic8get_nameEv:
 687              	.LFB506:
 688              		.file 10 "/home/denny/r2p-sdk/core/Middleware/include/r2p/Topic.hpp"
 689              		.loc 10 131 0
 690              		.cfi_startproc
 691              		@ args = 0, pretend = 0, frame = 8
 692              		@ frame_needed = 0, uses_anonymous_args = 0
 693              		@ link register save eliminated.
 694 0000 82B0     		sub	sp, sp, #8
 695              		.cfi_def_cfa_offset 8
 696 0002 0190     		str	r0, [sp, #4]
 697              		.loc 10 133 0
 698 0004 019B     		ldr	r3, [sp, #4]
 699 0006 1B68     		ldr	r3, [r3]
 700              		.loc 10 134 0
 701 0008 1846     		mov	r0, r3
 702 000a 02B0     		add	sp, sp, #8
 703              		.cfi_def_cfa_offset 0
 704              		@ sp needed
 705 000c 7047     		bx	lr
 706              		.cfi_endproc
 707              	.LFE506:
 708              		.size	_ZNK3r2p5Topic8get_nameEv, .-_ZNK3r2p5Topic8get_nameEv
 709 000e 00BF     		.section	.text._ZNK3r2p5Topic16get_payload_sizeEv,"axG",%progbits,_ZNK3r2p5Topic16get_payload_size
 710              		.align	2
 711              		.p2align 4,,15
 712              		.weak	_ZNK3r2p5Topic16get_payload_sizeEv
 713              		.thumb
 714              		.thumb_func
 715              		.type	_ZNK3r2p5Topic16get_payload_sizeEv, %function
 716              	_ZNK3r2p5Topic16get_payload_sizeEv:
 717              	.LFB509:
 718              		.loc 10 152 0
 719              		.cfi_startproc
 720              		@ args = 0, pretend = 0, frame = 8
 721              		@ frame_needed = 0, uses_anonymous_args = 0
 722 0000 00B5     		push	{lr}
 723              		.cfi_def_cfa_offset 4
 724              		.cfi_offset 14, -4
 725 0002 83B0     		sub	sp, sp, #12
ARM GAS  /tmp/ccznMLDd.s 			page 14


 726              		.cfi_def_cfa_offset 16
 727 0004 0190     		str	r0, [sp, #4]
 728              		.loc 10 154 0
 729 0006 019B     		ldr	r3, [sp, #4]
 730 0008 0833     		adds	r3, r3, #8
 731 000a 1846     		mov	r0, r3
 732 000c FFF7FEFF 		bl	_ZNK3r2p11MemoryPool_13get_item_sizeEv
 733 0010 0346     		mov	r3, r0
 734 0012 1846     		mov	r0, r3
 735 0014 FFF7FEFF 		bl	_ZN3r2p7Message16get_payload_sizeEj
 736 0018 0346     		mov	r3, r0
 737              		.loc 10 155 0
 738 001a 1846     		mov	r0, r3
 739 001c 03B0     		add	sp, sp, #12
 740              		.cfi_def_cfa_offset 4
 741              		@ sp needed
 742 001e 5DF804FB 		ldr	pc, [sp], #4
 743              		.cfi_endproc
 744              	.LFE509:
 745              		.size	_ZNK3r2p5Topic16get_payload_sizeEv, .-_ZNK3r2p5Topic16get_payload_sizeEv
 746 0022 00BFAFF3 		.section	.text._ZN3r2p5Topic12alloc_unsafeEv,"axG",%progbits,_ZN3r2p5Topic12alloc_unsafeEv,comdat
 746      0080AFF3 
 746      0080AFF3 
 746      0080
 747              		.align	2
 748              		.p2align 4,,15
 749              		.weak	_ZN3r2p5Topic12alloc_unsafeEv
 750              		.thumb
 751              		.thumb_func
 752              		.type	_ZN3r2p5Topic12alloc_unsafeEv, %function
 753              	_ZN3r2p5Topic12alloc_unsafeEv:
 754              	.LFB522:
 755              		.loc 10 250 0
 756              		.cfi_startproc
 757              		@ args = 0, pretend = 0, frame = 8
 758              		@ frame_needed = 0, uses_anonymous_args = 0
 759 0000 10B5     		push	{r4, lr}
 760              		.cfi_def_cfa_offset 8
 761              		.cfi_offset 4, -8
 762              		.cfi_offset 14, -4
 763 0002 82B0     		sub	sp, sp, #8
 764              		.cfi_def_cfa_offset 16
 765 0004 0190     		str	r0, [sp, #4]
 766              	.LBB15:
 767              		.loc 10 252 0
 768 0006 019B     		ldr	r3, [sp, #4]
 769 0008 0833     		adds	r3, r3, #8
 770 000a 1846     		mov	r0, r3
 771 000c FFF7FEFF 		bl	_ZN3r2p11MemoryPool_12alloc_unsafeEv
 772 0010 0446     		mov	r4, r0
 773              		.loc 10 253 0
 774 0012 002C     		cmp	r4, #0
 775 0014 04D0     		beq	.L46
 776              		.loc 10 254 0
 777 0016 2046     		mov	r0, r4
 778 0018 FFF7FEFF 		bl	_ZN3r2p7Message12reset_unsafeEv
 779              		.loc 10 255 0
ARM GAS  /tmp/ccznMLDd.s 			page 15


 780 001c 2346     		mov	r3, r4
 781 001e 00E0     		b	.L47
 782              	.L46:
 783              		.loc 10 257 0
 784 0020 0023     		movs	r3, #0
 785              	.L47:
 786              	.LBE15:
 787              		.loc 10 258 0
 788 0022 1846     		mov	r0, r3
 789 0024 02B0     		add	sp, sp, #8
 790              		.cfi_def_cfa_offset 8
 791              		@ sp needed
 792 0026 10BD     		pop	{r4, pc}
 793              		.cfi_endproc
 794              	.LFE522:
 795              		.size	_ZN3r2p5Topic12alloc_unsafeEv, .-_ZN3r2p5Topic12alloc_unsafeEv
 796 0028 AFF30080 		.section	.text._ZN3r2p5Topic8has_nameERKS0_PKc,"axG",%progbits,_ZN3r2p5Topic8has_nameERKS0_PKc,com
 796      AFF30080 
 797              		.align	2
 798              		.p2align 4,,15
 799              		.weak	_ZN3r2p5Topic8has_nameERKS0_PKc
 800              		.thumb
 801              		.thumb_func
 802              		.type	_ZN3r2p5Topic8has_nameERKS0_PKc, %function
 803              	_ZN3r2p5Topic8has_nameERKS0_PKc:
 804              	.LFB532:
 805              		.loc 10 337 0
 806              		.cfi_startproc
 807              		@ args = 0, pretend = 0, frame = 8
 808              		@ frame_needed = 0, uses_anonymous_args = 0
 809 0000 00B5     		push	{lr}
 810              		.cfi_def_cfa_offset 4
 811              		.cfi_offset 14, -4
 812 0002 83B0     		sub	sp, sp, #12
 813              		.cfi_def_cfa_offset 16
 814 0004 0190     		str	r0, [sp, #4]
 815 0006 0091     		str	r1, [sp]
 816              		.loc 10 339 0
 817 0008 009B     		ldr	r3, [sp]
 818 000a 002B     		cmp	r3, #0
 819 000c 0DD0     		beq	.L49
 820              		.loc 10 340 0 discriminator 1
 821 000e 0198     		ldr	r0, [sp, #4]
 822 0010 FFF7FEFF 		bl	_ZNK3r2p5Topic8get_nameEv
 823 0014 0346     		mov	r3, r0
 824 0016 1846     		mov	r0, r3
 825 0018 0099     		ldr	r1, [sp]
 826 001a 1022     		movs	r2, #16
 827 001c FFF7FEFF 		bl	strncmp
 828 0020 0346     		mov	r3, r0
 829              		.loc 10 339 0 discriminator 1
 830 0022 002B     		cmp	r3, #0
 831 0024 01D1     		bne	.L49
 832              		.loc 10 339 0 is_stmt 0 discriminator 3
 833 0026 0123     		movs	r3, #1
 834 0028 00E0     		b	.L50
 835              	.L49:
ARM GAS  /tmp/ccznMLDd.s 			page 16


 836              		.loc 10 339 0 discriminator 4
 837 002a 0023     		movs	r3, #0
 838              	.L50:
 839              		.loc 10 341 0 is_stmt 1
 840 002c 1846     		mov	r0, r3
 841 002e 03B0     		add	sp, sp, #12
 842              		.cfi_def_cfa_offset 4
 843              		@ sp needed
 844 0030 5DF804FB 		ldr	pc, [sp], #4
 845              		.cfi_endproc
 846              	.LFE532:
 847              		.size	_ZN3r2p5Topic8has_nameERKS0_PKc, .-_ZN3r2p5Topic8has_nameERKS0_PKc
 848 0034 AFF30080 		.section	.rodata
 848      AFF30080 
 848      AFF30080 
 849              		.align	2
 850              	.LC0:
 851 0000 5232505F 		.ascii	"R2P_ASSERT()\000"
 851      41535345 
 851      52542829 
 851      00
 852              		.section	.text._ZN3r2p13BasePublisher12alloc_unsafeERPNS_7MessageE,"axG",%progbits,_ZN3r2p13BasePu
 853              		.align	2
 854              		.p2align 4,,15
 855              		.weak	_ZN3r2p13BasePublisher12alloc_unsafeERPNS_7MessageE
 856              		.thumb
 857              		.thumb_func
 858              		.type	_ZN3r2p13BasePublisher12alloc_unsafeERPNS_7MessageE, %function
 859              	_ZN3r2p13BasePublisher12alloc_unsafeERPNS_7MessageE:
 860              	.LFB547:
 861              		.file 11 "/home/denny/r2p-sdk/core/Middleware/include/r2p/BasePublisher.hpp"
 862              		.loc 11 64 0
 863              		.cfi_startproc
 864              		@ args = 0, pretend = 0, frame = 8
 865              		@ frame_needed = 0, uses_anonymous_args = 0
 866 0000 00B5     		push	{lr}
 867              		.cfi_def_cfa_offset 4
 868              		.cfi_offset 14, -4
 869 0002 83B0     		sub	sp, sp, #12
 870              		.cfi_def_cfa_offset 16
 871 0004 0190     		str	r0, [sp, #4]
 872 0006 0091     		str	r1, [sp]
 873              		.loc 11 66 0
 874 0008 019B     		ldr	r3, [sp, #4]
 875 000a 5B68     		ldr	r3, [r3, #4]
 876 000c 002B     		cmp	r3, #0
 877 000e 02D1     		bne	.L53
 878              		.loc 11 66 0 is_stmt 0 discriminator 1
 879 0010 0A48     		ldr	r0, .L55
 880 0012 FFF7FEFF 		bl	chDbgPanic
 881              	.L53:
 882              		.loc 11 68 0 is_stmt 1
 883 0016 019B     		ldr	r3, [sp, #4]
 884 0018 5B68     		ldr	r3, [r3, #4]
 885 001a 1846     		mov	r0, r3
 886 001c FFF7FEFF 		bl	_ZN3r2p5Topic12alloc_unsafeEv
 887 0020 0246     		mov	r2, r0
ARM GAS  /tmp/ccznMLDd.s 			page 17


 888 0022 009B     		ldr	r3, [sp]
 889 0024 1A60     		str	r2, [r3]
 890              		.loc 11 69 0
 891 0026 009B     		ldr	r3, [sp]
 892 0028 1B68     		ldr	r3, [r3]
 893 002a 002B     		cmp	r3, #0
 894 002c 14BF     		ite	ne
 895 002e 0123     		movne	r3, #1
 896 0030 0023     		moveq	r3, #0
 897 0032 DBB2     		uxtb	r3, r3
 898              		.loc 11 70 0
 899 0034 1846     		mov	r0, r3
 900 0036 03B0     		add	sp, sp, #12
 901              		.cfi_def_cfa_offset 4
 902              		@ sp needed
 903 0038 5DF804FB 		ldr	pc, [sp], #4
 904              	.L56:
 905              		.align	2
 906              	.L55:
 907 003c 00000000 		.word	.LC0
 908              		.cfi_endproc
 909              	.LFE547:
 910              		.size	_ZN3r2p13BasePublisher12alloc_unsafeERPNS_7MessageE, .-_ZN3r2p13BasePublisher12alloc_unsafeE
 911              		.section	.text._ZNK3r2p10Middleware10get_topicsEv,"axG",%progbits,_ZNK3r2p10Middleware10get_topics
 912              		.align	2
 913              		.p2align 4,,15
 914              		.weak	_ZNK3r2p10Middleware10get_topicsEv
 915              		.thumb
 916              		.thumb_func
 917              		.type	_ZNK3r2p10Middleware10get_topicsEv, %function
 918              	_ZNK3r2p10Middleware10get_topicsEv:
 919              	.LFB591:
 920              		.file 12 "/home/denny/r2p-sdk/core/Middleware/include/r2p/Middleware.hpp"
 921              		.loc 12 184 0
 922              		.cfi_startproc
 923              		@ args = 0, pretend = 0, frame = 8
 924              		@ frame_needed = 0, uses_anonymous_args = 0
 925              		@ link register save eliminated.
 926 0000 82B0     		sub	sp, sp, #8
 927              		.cfi_def_cfa_offset 8
 928 0002 0190     		str	r0, [sp, #4]
 929              		.loc 12 186 0
 930 0004 019B     		ldr	r3, [sp, #4]
 931 0006 0833     		adds	r3, r3, #8
 932              		.loc 12 187 0
 933 0008 1846     		mov	r0, r3
 934 000a 02B0     		add	sp, sp, #8
 935              		.cfi_def_cfa_offset 0
 936              		@ sp needed
 937 000c 7047     		bx	lr
 938              		.cfi_endproc
 939              	.LFE591:
 940              		.size	_ZNK3r2p10Middleware10get_topicsEv, .-_ZNK3r2p10Middleware10get_topicsEv
 941 000e 00BF     		.section	.text._ZN3r2p10Middleware14get_mgmt_topicEv,"axG",%progbits,_ZN3r2p10Middleware14get_mgmt
 942              		.align	2
 943              		.p2align 4,,15
 944              		.weak	_ZN3r2p10Middleware14get_mgmt_topicEv
ARM GAS  /tmp/ccznMLDd.s 			page 18


 945              		.thumb
 946              		.thumb_func
 947              		.type	_ZN3r2p10Middleware14get_mgmt_topicEv, %function
 948              	_ZN3r2p10Middleware14get_mgmt_topicEv:
 949              	.LFB593:
 950              		.loc 12 198 0
 951              		.cfi_startproc
 952              		@ args = 0, pretend = 0, frame = 8
 953              		@ frame_needed = 0, uses_anonymous_args = 0
 954              		@ link register save eliminated.
 955 0000 82B0     		sub	sp, sp, #8
 956              		.cfi_def_cfa_offset 8
 957 0002 0190     		str	r0, [sp, #4]
 958              		.loc 12 200 0
 959 0004 019B     		ldr	r3, [sp, #4]
 960 0006 2833     		adds	r3, r3, #40
 961              		.loc 12 201 0
 962 0008 1846     		mov	r0, r3
 963 000a 02B0     		add	sp, sp, #8
 964              		.cfi_def_cfa_offset 0
 965              		@ sp needed
 966 000c 7047     		bx	lr
 967              		.cfi_endproc
 968              	.LFE593:
 969              		.size	_ZN3r2p10Middleware14get_mgmt_topicEv, .-_ZN3r2p10Middleware14get_mgmt_topicEv
 970 000e 00BF     		.section	.text._ZN3r2p14RTCANTransport4sendEPNS_7MessageEPNS_15RTCANSubscriberE,"ax",%progbits
 971              		.align	2
 972              		.p2align 4,,15
 973              		.global	_ZN3r2p14RTCANTransport4sendEPNS_7MessageEPNS_15RTCANSubscriberE
 974              		.thumb
 975              		.thumb_func
 976              		.type	_ZN3r2p14RTCANTransport4sendEPNS_7MessageEPNS_15RTCANSubscriberE, %function
 977              	_ZN3r2p14RTCANTransport4sendEPNS_7MessageEPNS_15RTCANSubscriberE:
 978              	.LFB596:
 979              		.file 13 "/home/denny/r2p-sdk/core/Middleware/src/transport/RTCANTransport.cpp"
 980              		.loc 13 14 0
 981              		.cfi_startproc
 982              		@ args = 0, pretend = 0, frame = 24
 983              		@ frame_needed = 0, uses_anonymous_args = 0
 984 0000 00B5     		push	{lr}
 985              		.cfi_def_cfa_offset 4
 986              		.cfi_offset 14, -4
 987 0002 87B0     		sub	sp, sp, #28
 988              		.cfi_def_cfa_offset 32
 989 0004 0390     		str	r0, [sp, #12]
 990 0006 0291     		str	r1, [sp, #8]
 991 0008 0192     		str	r2, [sp, #4]
 992              	.LBB16:
 993              		.loc 13 22 0
 994 000a 039B     		ldr	r3, [sp, #12]
 995 000c 03F5B873 		add	r3, r3, #368
 996 0010 1846     		mov	r0, r3
 997 0012 FFF7FEFF 		bl	_ZN3r2p10MemoryPoolI11rtcan_msg_tE12alloc_unsafeEv
 998 0016 0590     		str	r0, [sp, #20]
 999              		.loc 13 23 0
 1000 0018 059B     		ldr	r3, [sp, #20]
 1001 001a 002B     		cmp	r3, #0
ARM GAS  /tmp/ccznMLDd.s 			page 19


 1002 001c 01D1     		bne	.L62
 1003              		.loc 13 24 0
 1004 001e 0023     		movs	r3, #0
 1005 0020 2BE0     		b	.L63
 1006              	.L62:
 1007              		.loc 13 26 0
 1008 0022 019B     		ldr	r3, [sp, #4]
 1009 0024 9A8B     		ldrh	r2, [r3, #28]
 1010 0026 059B     		ldr	r3, [sp, #20]
 1011 0028 A3F81120 		strh	r2, [r3, #17]	@ unaligned
 1012              		.loc 13 27 0
 1013 002c 059B     		ldr	r3, [sp, #20]
 1014 002e 154A     		ldr	r2, .L64
 1015 0030 C3F80520 		str	r2, [r3, #5]	@ unaligned
 1016              		.loc 13 28 0
 1017 0034 059B     		ldr	r3, [sp, #20]
 1018 0036 019A     		ldr	r2, [sp, #4]
 1019 0038 C3F80920 		str	r2, [r3, #9]	@ unaligned
 1020              		.loc 13 29 0
 1021 003c 019B     		ldr	r3, [sp, #4]
 1022 003e 1846     		mov	r0, r3
 1023 0040 FFF7FEFF 		bl	_ZNK3r2p14BaseSubscriber9get_topicEv
 1024 0044 0346     		mov	r3, r0
 1025 0046 1846     		mov	r0, r3
 1026 0048 FFF7FEFF 		bl	_ZNK3r2p5Topic16get_payload_sizeEv
 1027 004c 0346     		mov	r3, r0
 1028 004e 9AB2     		uxth	r2, r3
 1029 0050 059B     		ldr	r3, [sp, #20]
 1030 0052 A3F81320 		strh	r2, [r3, #19]	@ unaligned
 1031              		.loc 13 30 0
 1032 0056 0298     		ldr	r0, [sp, #8]
 1033 0058 FFF7FEFF 		bl	_ZNK3r2p7Message12get_raw_dataEv
 1034 005c 0246     		mov	r2, r0
 1035 005e 059B     		ldr	r3, [sp, #20]
 1036 0060 C3F81520 		str	r2, [r3, #21]	@ unaligned
 1037              		.loc 13 31 0
 1038 0064 059B     		ldr	r3, [sp, #20]
 1039 0066 0222     		movs	r2, #2
 1040 0068 1A71     		strb	r2, [r3, #4]
 1041              		.loc 13 33 0
 1042 006a 039B     		ldr	r3, [sp, #12]
 1043 006c 1B6C     		ldr	r3, [r3, #64]
 1044 006e 1846     		mov	r0, r3
 1045 0070 0599     		ldr	r1, [sp, #20]
 1046 0072 3222     		movs	r2, #50
 1047 0074 FFF7FEFF 		bl	rtcanTransmitI
 1048              		.loc 13 34 0
 1049 0078 0123     		movs	r3, #1
 1050              	.L63:
 1051              	.LBE16:
 1052              		.loc 13 35 0
 1053 007a 1846     		mov	r0, r3
 1054 007c 07B0     		add	sp, sp, #28
 1055              		.cfi_def_cfa_offset 4
 1056              		@ sp needed
 1057 007e 5DF804FB 		ldr	pc, [sp], #4
 1058              	.L65:
ARM GAS  /tmp/ccznMLDd.s 			page 20


 1059 0082 00BF     		.align	2
 1060              	.L64:
 1061 0084 00000000 		.word	_ZN3r2p14RTCANTransport7send_cbER11rtcan_msg_t
 1062              		.cfi_endproc
 1063              	.LFE596:
 1064              		.size	_ZN3r2p14RTCANTransport4sendEPNS_7MessageEPNS_15RTCANSubscriberE, .-_ZN3r2p14RTCANTransport4
 1065 0088 AFF30080 		.section	.text._ZN3r2p14RTCANTransport7send_cbER11rtcan_msg_t,"ax",%progbits
 1065      AFF30080 
 1066              		.align	2
 1067              		.p2align 4,,15
 1068              		.global	_ZN3r2p14RTCANTransport7send_cbER11rtcan_msg_t
 1069              		.thumb
 1070              		.thumb_func
 1071              		.type	_ZN3r2p14RTCANTransport7send_cbER11rtcan_msg_t, %function
 1072              	_ZN3r2p14RTCANTransport7send_cbER11rtcan_msg_t:
 1073              	.LFB597:
 1074              		.loc 13 37 0
 1075              		.cfi_startproc
 1076              		@ args = 0, pretend = 0, frame = 24
 1077              		@ frame_needed = 0, uses_anonymous_args = 0
 1078 0000 00B5     		push	{lr}
 1079              		.cfi_def_cfa_offset 4
 1080              		.cfi_offset 14, -4
 1081 0002 87B0     		sub	sp, sp, #28
 1082              		.cfi_def_cfa_offset 32
 1083 0004 0190     		str	r0, [sp, #4]
 1084              	.LBB17:
 1085              		.loc 13 38 0
 1086 0006 019B     		ldr	r3, [sp, #4]
 1087 0008 D3F80930 		ldr	r3, [r3, #9]	@ unaligned
 1088 000c 0593     		str	r3, [sp, #20]
 1089              		.loc 13 39 0
 1090 000e 059B     		ldr	r3, [sp, #20]
 1091 0010 1846     		mov	r0, r3
 1092 0012 FFF7FEFF 		bl	_ZNK3r2p16RemoteSubscriber13get_transportEv
 1093 0016 0490     		str	r0, [sp, #16]
 1094              		.loc 13 40 0
 1095 0018 019B     		ldr	r3, [sp, #4]
 1096 001a D3F81530 		ldr	r3, [r3, #21]	@ unaligned
 1097 001e 1846     		mov	r0, r3
 1098 0020 FFF7FEFF 		bl	_ZN3r2p7Message21get_msg_from_raw_dataEPKh
 1099 0024 0390     		str	r0, [sp, #12]
 1100              		.loc 13 42 0
 1101 0026 059B     		ldr	r3, [sp, #20]
 1102 0028 1846     		mov	r0, r3
 1103 002a 0399     		ldr	r1, [sp, #12]
 1104 002c FFF7FEFF 		bl	_ZN3r2p14BaseSubscriber14release_unsafeERNS_7MessageE
 1105              		.loc 13 43 0
 1106 0030 049B     		ldr	r3, [sp, #16]
 1107 0032 03F5B873 		add	r3, r3, #368
 1108 0036 1846     		mov	r0, r3
 1109 0038 0199     		ldr	r1, [sp, #4]
 1110 003a FFF7FEFF 		bl	_ZN3r2p10MemoryPoolI11rtcan_msg_tE11free_unsafeEPS1_
 1111              	.LBE17:
 1112              		.loc 13 44 0
 1113 003e 07B0     		add	sp, sp, #28
 1114              		.cfi_def_cfa_offset 4
ARM GAS  /tmp/ccznMLDd.s 			page 21


 1115              		@ sp needed
 1116 0040 5DF804FB 		ldr	pc, [sp], #4
 1117              		.cfi_endproc
 1118              	.LFE597:
 1119              		.size	_ZN3r2p14RTCANTransport7send_cbER11rtcan_msg_t, .-_ZN3r2p14RTCANTransport7send_cbER11rtcan_m
 1120 0044 AFF30080 		.section	.text._ZN3r2p14RTCANTransport7recv_cbER11rtcan_msg_t,"ax",%progbits
 1120      AFF30080 
 1120      AFF30080 
 1121              		.align	2
 1122              		.p2align 4,,15
 1123              		.global	_ZN3r2p14RTCANTransport7recv_cbER11rtcan_msg_t
 1124              		.thumb
 1125              		.thumb_func
 1126              		.type	_ZN3r2p14RTCANTransport7recv_cbER11rtcan_msg_t, %function
 1127              	_ZN3r2p14RTCANTransport7recv_cbER11rtcan_msg_t:
 1128              	.LFB598:
 1129              		.loc 13 46 0
 1130              		.cfi_startproc
 1131              		@ args = 0, pretend = 0, frame = 16
 1132              		@ frame_needed = 0, uses_anonymous_args = 0
 1133 0000 00B5     		push	{lr}
 1134              		.cfi_def_cfa_offset 4
 1135              		.cfi_offset 14, -4
 1136 0002 85B0     		sub	sp, sp, #20
 1137              		.cfi_def_cfa_offset 24
 1138 0004 0190     		str	r0, [sp, #4]
 1139              	.LBB18:
 1140              		.loc 13 47 0
 1141 0006 019B     		ldr	r3, [sp, #4]
 1142 0008 D3F80930 		ldr	r3, [r3, #9]	@ unaligned
 1143 000c 0393     		str	r3, [sp, #12]
 1144              		.loc 13 48 0
 1145 000e 019B     		ldr	r3, [sp, #4]
 1146 0010 D3F81530 		ldr	r3, [r3, #21]	@ unaligned
 1147 0014 1846     		mov	r0, r3
 1148 0016 FFF7FEFF 		bl	_ZN3r2p7Message21get_msg_from_raw_dataEPKh
 1149 001a 0346     		mov	r3, r0
 1150 001c 0293     		str	r3, [sp, #8]
 1151              		.loc 13 59 0
 1152 001e 039A     		ldr	r2, [sp, #12]
 1153 0020 029B     		ldr	r3, [sp, #8]
 1154 0022 1046     		mov	r0, r2
 1155 0024 1946     		mov	r1, r3
 1156 0026 FFF7FEFF 		bl	_ZN3r2p13BasePublisher22publish_locally_unsafeERNS_7MessageE
 1157              		.loc 13 63 0
 1158 002a 039A     		ldr	r2, [sp, #12]
 1159 002c 02AB     		add	r3, sp, #8
 1160 002e 1046     		mov	r0, r2
 1161 0030 1946     		mov	r1, r3
 1162 0032 FFF7FEFF 		bl	_ZN3r2p13BasePublisher12alloc_unsafeERPNS_7MessageE
 1163 0036 0346     		mov	r3, r0
 1164 0038 002B     		cmp	r3, #0
 1165 003a 08D0     		beq	.L68
 1166              		.loc 13 64 0
 1167 003c 029B     		ldr	r3, [sp, #8]
 1168 003e 1846     		mov	r0, r3
 1169 0040 FFF7FEFF 		bl	_ZNK3r2p7Message12get_raw_dataEv
ARM GAS  /tmp/ccznMLDd.s 			page 22


 1170 0044 0246     		mov	r2, r0
 1171 0046 019B     		ldr	r3, [sp, #4]
 1172 0048 C3F81520 		str	r2, [r3, #21]	@ unaligned
 1173 004c 02E0     		b	.L67
 1174              	.L68:
 1175              		.loc 13 66 0
 1176 004e 019B     		ldr	r3, [sp, #4]
 1177 0050 0122     		movs	r2, #1
 1178 0052 1A71     		strb	r2, [r3, #4]
 1179              	.L67:
 1180              	.LBE18:
 1181              		.loc 13 69 0
 1182 0054 05B0     		add	sp, sp, #20
 1183              		.cfi_def_cfa_offset 4
 1184              		@ sp needed
 1185 0056 5DF804FB 		ldr	pc, [sp], #4
 1186              		.cfi_endproc
 1187              	.LFE598:
 1188              		.size	_ZN3r2p14RTCANTransport7recv_cbER11rtcan_msg_t, .-_ZN3r2p14RTCANTransport7recv_cbER11rtcan_m
 1189 005a 00BFAFF3 		.section	.text._ZN3r2p14RTCANTransport11free_headerER11rtcan_msg_t,"ax",%progbits
 1189      0080
 1190              		.align	2
 1191              		.p2align 4,,15
 1192              		.global	_ZN3r2p14RTCANTransport11free_headerER11rtcan_msg_t
 1193              		.thumb
 1194              		.thumb_func
 1195              		.type	_ZN3r2p14RTCANTransport11free_headerER11rtcan_msg_t, %function
 1196              	_ZN3r2p14RTCANTransport11free_headerER11rtcan_msg_t:
 1197              	.LFB599:
 1198              		.loc 13 71 0
 1199              		.cfi_startproc
 1200              		@ args = 0, pretend = 0, frame = 16
 1201              		@ frame_needed = 0, uses_anonymous_args = 0
 1202 0000 00B5     		push	{lr}
 1203              		.cfi_def_cfa_offset 4
 1204              		.cfi_offset 14, -4
 1205 0002 85B0     		sub	sp, sp, #20
 1206              		.cfi_def_cfa_offset 24
 1207 0004 0190     		str	r0, [sp, #4]
 1208              	.LBB19:
 1209              		.loc 13 72 0
 1210 0006 019B     		ldr	r3, [sp, #4]
 1211 0008 D3F80930 		ldr	r3, [r3, #9]	@ unaligned
 1212 000c 0393     		str	r3, [sp, #12]
 1213              		.loc 13 73 0
 1214 000e 039B     		ldr	r3, [sp, #12]
 1215 0010 03F5B873 		add	r3, r3, #368
 1216 0014 1846     		mov	r0, r3
 1217 0016 0199     		ldr	r1, [sp, #4]
 1218 0018 FFF7FEFF 		bl	_ZN3r2p10MemoryPoolI11rtcan_msg_tE11free_unsafeEPS1_
 1219              	.LBE19:
 1220              		.loc 13 74 0
 1221 001c 05B0     		add	sp, sp, #20
 1222              		.cfi_def_cfa_offset 4
 1223              		@ sp needed
 1224 001e 5DF804FB 		ldr	pc, [sp], #4
 1225              		.cfi_endproc
ARM GAS  /tmp/ccznMLDd.s 			page 23


 1226              	.LFE599:
 1227              		.size	_ZN3r2p14RTCANTransport11free_headerER11rtcan_msg_t, .-_ZN3r2p14RTCANTransport11free_headerE
 1228 0022 00BFAFF3 		.section	.text._ZNK3r2p14RTCANTransport16create_publisherERNS_5TopicEPKh,"ax",%progbits
 1228      0080AFF3 
 1228      0080AFF3 
 1228      0080
 1229              		.align	2
 1230              		.p2align 4,,15
 1231              		.global	_ZNK3r2p14RTCANTransport16create_publisherERNS_5TopicEPKh
 1232              		.thumb
 1233              		.thumb_func
 1234              		.type	_ZNK3r2p14RTCANTransport16create_publisherERNS_5TopicEPKh, %function
 1235              	_ZNK3r2p14RTCANTransport16create_publisherERNS_5TopicEPKh:
 1236              	.LFB600:
 1237              		.loc 13 76 0
 1238              		.cfi_startproc
 1239              		@ args = 0, pretend = 0, frame = 32
 1240              		@ frame_needed = 0, uses_anonymous_args = 0
 1241 0000 10B5     		push	{r4, lr}
 1242              		.cfi_def_cfa_offset 8
 1243              		.cfi_offset 4, -8
 1244              		.cfi_offset 14, -4
 1245 0002 88B0     		sub	sp, sp, #32
 1246              		.cfi_def_cfa_offset 40
 1247 0004 0390     		str	r0, [sp, #12]
 1248 0006 0291     		str	r1, [sp, #8]
 1249 0008 0192     		str	r2, [sp, #4]
 1250              	.LBB20:
 1251              		.loc 13 77 0
 1252 000a 3420     		movs	r0, #52
 1253 000c FFF7FEFF 		bl	_Znwj
 1254 0010 0446     		mov	r4, r0
 1255 0012 039B     		ldr	r3, [sp, #12]
 1256 0014 2046     		mov	r0, r4
 1257 0016 1946     		mov	r1, r3
 1258 0018 FFF7FEFF 		bl	_ZN3r2p14RTCANPublisherC1ERNS_9TransportE
 1259 001c 0794     		str	r4, [sp, #28]
 1260              		.loc 13 81 0
 1261 001e 079B     		ldr	r3, [sp, #28]
 1262 0020 002B     		cmp	r3, #0
 1263 0022 02D1     		bne	.L72
 1264              		.loc 13 81 0 is_stmt 0 discriminator 1
 1265 0024 2048     		ldr	r0, .L75
 1266 0026 FFF7FEFF 		bl	chDbgPanic
 1267              	.L72:
 1268              		.loc 13 83 0 is_stmt 1
 1269 002a 04AB     		add	r3, sp, #16
 1270 002c 0298     		ldr	r0, [sp, #8]
 1271 002e 1946     		mov	r1, r3
 1272 0030 FFF7FEFF 		bl	_ZN3r2p5Topic5allocINS_7MessageEEEbRPT_
 1273 0034 0346     		mov	r3, r0
 1274 0036 8DF81B30 		strb	r3, [sp, #27]
 1275              		.loc 13 84 0
 1276 003a 9DF81B30 		ldrb	r3, [sp, #27]
 1277 003e 83F00103 		eor	r3, r3, #1
 1278 0042 DBB2     		uxtb	r3, r3
 1279 0044 002B     		cmp	r3, #0
ARM GAS  /tmp/ccznMLDd.s 			page 24


 1280 0046 02D0     		beq	.L73
 1281              		.loc 13 84 0 is_stmt 0 discriminator 1
 1282 0048 1748     		ldr	r0, .L75
 1283 004a FFF7FEFF 		bl	chDbgPanic
 1284              	.L73:
 1285              		.loc 13 86 0 is_stmt 1
 1286 004e 079B     		ldr	r3, [sp, #28]
 1287 0050 1433     		adds	r3, r3, #20
 1288 0052 0593     		str	r3, [sp, #20]
 1289              		.loc 13 87 0
 1290 0054 019B     		ldr	r3, [sp, #4]
 1291 0056 1A88     		ldrh	r2, [r3]
 1292 0058 059B     		ldr	r3, [sp, #20]
 1293 005a A3F81120 		strh	r2, [r3, #17]	@ unaligned
 1294              		.loc 13 88 0
 1295 005e 059B     		ldr	r3, [sp, #20]
 1296 0060 124A     		ldr	r2, .L75+4
 1297 0062 C3F80520 		str	r2, [r3, #5]	@ unaligned
 1298              		.loc 13 89 0
 1299 0066 059B     		ldr	r3, [sp, #20]
 1300 0068 079A     		ldr	r2, [sp, #28]
 1301 006a C3F80920 		str	r2, [r3, #9]	@ unaligned
 1302              		.loc 13 90 0
 1303 006e 0298     		ldr	r0, [sp, #8]
 1304 0070 FFF7FEFF 		bl	_ZNK3r2p5Topic16get_payload_sizeEv
 1305 0074 0346     		mov	r3, r0
 1306 0076 9AB2     		uxth	r2, r3
 1307 0078 059B     		ldr	r3, [sp, #20]
 1308 007a A3F81320 		strh	r2, [r3, #19]	@ unaligned
 1309              		.loc 13 91 0
 1310 007e 049B     		ldr	r3, [sp, #16]
 1311 0080 1846     		mov	r0, r3
 1312 0082 FFF7FEFF 		bl	_ZNK3r2p7Message12get_raw_dataEv
 1313 0086 0246     		mov	r2, r0
 1314 0088 059B     		ldr	r3, [sp, #20]
 1315 008a C3F81520 		str	r2, [r3, #21]	@ unaligned
 1316              		.loc 13 93 0
 1317 008e 059B     		ldr	r3, [sp, #20]
 1318 0090 0222     		movs	r2, #2
 1319 0092 1A71     		strb	r2, [r3, #4]
 1320              		.loc 13 95 0
 1321 0094 0648     		ldr	r0, .L75+8
 1322 0096 0599     		ldr	r1, [sp, #20]
 1323 0098 4FF47F42 		mov	r2, #65280
 1324 009c FFF7FEFF 		bl	rtcanReceiveMask
 1325              		.loc 13 96 0
 1326 00a0 079B     		ldr	r3, [sp, #28]
 1327              	.LBE20:
 1328              		.loc 13 97 0
 1329 00a2 1846     		mov	r0, r3
 1330 00a4 08B0     		add	sp, sp, #32
 1331              		.cfi_def_cfa_offset 8
 1332              		@ sp needed
 1333 00a6 10BD     		pop	{r4, pc}
 1334              	.L76:
 1335              		.align	2
 1336              	.L75:
ARM GAS  /tmp/ccznMLDd.s 			page 25


 1337 00a8 00000000 		.word	.LC0
 1338 00ac 00000000 		.word	_ZN3r2p14RTCANTransport7recv_cbER11rtcan_msg_t
 1339 00b0 00000000 		.word	RTCAND1
 1340              		.cfi_endproc
 1341              	.LFE600:
 1342              		.size	_ZNK3r2p14RTCANTransport16create_publisherERNS_5TopicEPKh, .-_ZNK3r2p14RTCANTransport16creat
 1343 00b4 AFF30080 		.section	.text._ZNK3r2p14RTCANTransport17create_subscriberERNS_5TopicEPNS_22TimestampedMsgPtrQueue
 1343      AFF30080 
 1343      AFF30080 
 1344              		.align	2
 1345              		.p2align 4,,15
 1346              		.global	_ZNK3r2p14RTCANTransport17create_subscriberERNS_5TopicEPNS_22TimestampedMsgPtrQueue5EntryE
 1347              		.thumb
 1348              		.thumb_func
 1349              		.type	_ZNK3r2p14RTCANTransport17create_subscriberERNS_5TopicEPNS_22TimestampedMsgPtrQueue5EntryEj,
 1350              	_ZNK3r2p14RTCANTransport17create_subscriberERNS_5TopicEPNS_22TimestampedMsgPtrQueue5EntryEj:
 1351              	.LFB601:
 1352              		.loc 13 100 0
 1353              		.cfi_startproc
 1354              		@ args = 0, pretend = 0, frame = 24
 1355              		@ frame_needed = 0, uses_anonymous_args = 0
 1356 0000 10B5     		push	{r4, lr}
 1357              		.cfi_def_cfa_offset 8
 1358              		.cfi_offset 4, -8
 1359              		.cfi_offset 14, -4
 1360 0002 86B0     		sub	sp, sp, #24
 1361              		.cfi_def_cfa_offset 32
 1362 0004 0390     		str	r0, [sp, #12]
 1363 0006 0291     		str	r1, [sp, #8]
 1364 0008 0192     		str	r2, [sp, #4]
 1365 000a 0093     		str	r3, [sp]
 1366              	.LBB21:
 1367              		.loc 13 101 0
 1368 000c 2020     		movs	r0, #32
 1369 000e FFF7FEFF 		bl	_Znwj
 1370 0012 0446     		mov	r4, r0
 1371 0014 2046     		mov	r0, r4
 1372 0016 0399     		ldr	r1, [sp, #12]
 1373 0018 019A     		ldr	r2, [sp, #4]
 1374 001a 009B     		ldr	r3, [sp]
 1375 001c FFF7FEFF 		bl	_ZN3r2p15RTCANSubscriberC1ERNS_14RTCANTransportEPNS_22TimestampedMsgPtrQueue5EntryEj
 1376 0020 0594     		str	r4, [sp, #20]
 1377              		.loc 13 105 0
 1378 0022 0398     		ldr	r0, [sp, #12]
 1379 0024 0299     		ldr	r1, [sp, #8]
 1380 0026 FFF7FEFF 		bl	_ZNK3r2p14RTCANTransport8topic_idERKNS_5TopicE
 1381 002a 0346     		mov	r3, r0
 1382 002c 1A46     		mov	r2, r3
 1383 002e 059B     		ldr	r3, [sp, #20]
 1384 0030 9A83     		strh	r2, [r3, #28]	@ movhi
 1385              		.loc 13 107 0
 1386 0032 059B     		ldr	r3, [sp, #20]
 1387              	.LBE21:
 1388              		.loc 13 108 0
 1389 0034 1846     		mov	r0, r3
 1390 0036 06B0     		add	sp, sp, #24
 1391              		.cfi_def_cfa_offset 8
ARM GAS  /tmp/ccznMLDd.s 			page 26


 1392              		@ sp needed
 1393 0038 10BD     		pop	{r4, pc}
 1394              		.cfi_endproc
 1395              	.LFE601:
 1396              		.size	_ZNK3r2p14RTCANTransport17create_subscriberERNS_5TopicEPNS_22TimestampedMsgPtrQueue5EntryEj,
 1397 003a 00BFAFF3 		.section	.text._ZN3r2p14RTCANTransport15fill_raw_paramsERKNS_5TopicEPh,"ax",%progbits
 1397      0080
 1398              		.align	2
 1399              		.p2align 4,,15
 1400              		.global	_ZN3r2p14RTCANTransport15fill_raw_paramsERKNS_5TopicEPh
 1401              		.thumb
 1402              		.thumb_func
 1403              		.type	_ZN3r2p14RTCANTransport15fill_raw_paramsERKNS_5TopicEPh, %function
 1404              	_ZN3r2p14RTCANTransport15fill_raw_paramsERKNS_5TopicEPh:
 1405              	.LFB602:
 1406              		.loc 13 110 0
 1407              		.cfi_startproc
 1408              		@ args = 0, pretend = 0, frame = 16
 1409              		@ frame_needed = 0, uses_anonymous_args = 0
 1410 0000 00B5     		push	{lr}
 1411              		.cfi_def_cfa_offset 4
 1412              		.cfi_offset 14, -4
 1413 0002 85B0     		sub	sp, sp, #20
 1414              		.cfi_def_cfa_offset 24
 1415 0004 0390     		str	r0, [sp, #12]
 1416 0006 0291     		str	r1, [sp, #8]
 1417 0008 0192     		str	r2, [sp, #4]
 1418              		.loc 13 111 0
 1419 000a 0398     		ldr	r0, [sp, #12]
 1420 000c 0299     		ldr	r1, [sp, #8]
 1421 000e FFF7FEFF 		bl	_ZNK3r2p14RTCANTransport8topic_idERKNS_5TopicE
 1422 0012 0346     		mov	r3, r0
 1423 0014 1A46     		mov	r2, r3
 1424 0016 019B     		ldr	r3, [sp, #4]
 1425 0018 1A80     		strh	r2, [r3]	@ movhi
 1426              		.loc 13 112 0
 1427 001a 05B0     		add	sp, sp, #20
 1428              		.cfi_def_cfa_offset 4
 1429              		@ sp needed
 1430 001c 5DF804FB 		ldr	pc, [sp], #4
 1431              		.cfi_endproc
 1432              	.LFE602:
 1433              		.size	_ZN3r2p14RTCANTransport15fill_raw_paramsERKNS_5TopicEPh, .-_ZN3r2p14RTCANTransport15fill_raw
 1434              		.section	.rodata
 1435 000d 000000   		.align	2
 1436              	.LC1:
 1437 0010 52325000 		.ascii	"R2P\000"
 1438              		.section	.text._ZN3r2p14RTCANTransport10initializeERK11RTCANConfig,"ax",%progbits
 1439              		.align	2
 1440              		.p2align 4,,15
 1441              		.global	_ZN3r2p14RTCANTransport10initializeERK11RTCANConfig
 1442              		.thumb
 1443              		.thumb_func
 1444              		.type	_ZN3r2p14RTCANTransport10initializeERK11RTCANConfig, %function
 1445              	_ZN3r2p14RTCANTransport10initializeERK11RTCANConfig:
 1446              	.LFB603:
 1447              		.loc 13 114 0
ARM GAS  /tmp/ccznMLDd.s 			page 27


 1448              		.cfi_startproc
 1449              		@ args = 0, pretend = 0, frame = 16
 1450              		@ frame_needed = 0, uses_anonymous_args = 0
 1451 0000 10B5     		push	{r4, lr}
 1452              		.cfi_def_cfa_offset 8
 1453              		.cfi_offset 4, -8
 1454              		.cfi_offset 14, -4
 1455 0002 86B0     		sub	sp, sp, #24
 1456              		.cfi_def_cfa_offset 32
 1457 0004 0390     		str	r0, [sp, #12]
 1458 0006 0291     		str	r1, [sp, #8]
 1459              	.LBB22:
 1460              		.loc 13 115 0
 1461 0008 2948     		ldr	r0, .L81
 1462 000a FFF7FEFF 		bl	_ZN3r2p10Middleware14get_mgmt_topicEv
 1463 000e 0590     		str	r0, [sp, #20]
 1464              		.loc 13 116 0
 1465 0010 0398     		ldr	r0, [sp, #12]
 1466 0012 0599     		ldr	r1, [sp, #20]
 1467 0014 FFF7FEFF 		bl	_ZNK3r2p14RTCANTransport8topic_idERKNS_5TopicE
 1468 0018 0346     		mov	r3, r0
 1469 001a ADF81230 		strh	r3, [sp, #18]	@ movhi
 1470              		.loc 13 118 0
 1471 001e FFF7FEFF 		bl	rtcanInit
 1472              		.loc 13 119 0
 1473 0022 039B     		ldr	r3, [sp, #12]
 1474 0024 1B6C     		ldr	r3, [r3, #64]
 1475 0026 1846     		mov	r0, r3
 1476 0028 0299     		ldr	r1, [sp, #8]
 1477 002a FFF7FEFF 		bl	rtcanStart
 1478              		.loc 13 121 0
 1479 002e 039B     		ldr	r3, [sp, #12]
 1480 0030 1B68     		ldr	r3, [r3]
 1481 0032 0833     		adds	r3, r3, #8
 1482 0034 1C68     		ldr	r4, [r3]
 1483 0036 039B     		ldr	r3, [sp, #12]
 1484 0038 03F50573 		add	r3, r3, #532
 1485 003c 0398     		ldr	r0, [sp, #12]
 1486 003e 0599     		ldr	r1, [sp, #20]
 1487 0040 1A46     		mov	r2, r3
 1488 0042 0423     		movs	r3, #4
 1489 0044 A047     		blx	r4
 1490 0046 0246     		mov	r2, r0
 1491 0048 039B     		ldr	r3, [sp, #12]
 1492 004a C3F83422 		str	r2, [r3, #564]
 1493              		.loc 13 122 0
 1494 004e 039A     		ldr	r2, [sp, #12]
 1495 0050 039B     		ldr	r3, [sp, #12]
 1496 0052 D3F83432 		ldr	r3, [r3, #564]
 1497 0056 1946     		mov	r1, r3
 1498 0058 039B     		ldr	r3, [sp, #12]
 1499 005a 03F5C674 		add	r4, r3, #396
 1500 005e 0423     		movs	r3, #4
 1501 0060 0093     		str	r3, [sp]
 1502 0062 2223     		movs	r3, #34
 1503 0064 0193     		str	r3, [sp, #4]
 1504 0066 1046     		mov	r0, r2
ARM GAS  /tmp/ccznMLDd.s 			page 28


 1505 0068 124A     		ldr	r2, .L81+4
 1506 006a 2346     		mov	r3, r4
 1507 006c FFF7FEFF 		bl	_ZN3r2p9Transport9subscribeERNS_16RemoteSubscriberEPKcPNS_7MessageEjj
 1508              		.loc 13 124 0
 1509 0070 039B     		ldr	r3, [sp, #12]
 1510 0072 1B68     		ldr	r3, [r3]
 1511 0074 0433     		adds	r3, r3, #4
 1512 0076 1B68     		ldr	r3, [r3]
 1513 0078 0DF11202 		add	r2, sp, #18
 1514 007c 0398     		ldr	r0, [sp, #12]
 1515 007e 0599     		ldr	r1, [sp, #20]
 1516 0080 9847     		blx	r3
 1517 0082 0246     		mov	r2, r0
 1518 0084 039B     		ldr	r3, [sp, #12]
 1519 0086 C3F83822 		str	r2, [r3, #568]
 1520              		.loc 13 125 0
 1521 008a 039A     		ldr	r2, [sp, #12]
 1522 008c 039B     		ldr	r3, [sp, #12]
 1523 008e D3F83832 		ldr	r3, [r3, #568]
 1524 0092 1946     		mov	r1, r3
 1525 0094 2223     		movs	r3, #34
 1526 0096 0093     		str	r3, [sp]
 1527 0098 1046     		mov	r0, r2
 1528 009a 064A     		ldr	r2, .L81+4
 1529 009c 064B     		ldr	r3, .L81+8
 1530 009e FFF7FEFF 		bl	_ZN3r2p9Transport9advertiseERNS_15RemotePublisherEPKcRKNS_4TimeEj
 1531              		.loc 13 127 0
 1532 00a2 039B     		ldr	r3, [sp, #12]
 1533 00a4 0248     		ldr	r0, .L81
 1534 00a6 1946     		mov	r1, r3
 1535 00a8 FFF7FEFF 		bl	_ZN3r2p10Middleware3addERNS_9TransportE
 1536              	.LBE22:
 1537              		.loc 13 128 0
 1538 00ac 06B0     		add	sp, sp, #24
 1539              		.cfi_def_cfa_offset 8
 1540              		@ sp needed
 1541 00ae 10BD     		pop	{r4, pc}
 1542              	.L82:
 1543              		.align	2
 1544              	.L81:
 1545 00b0 00000000 		.word	_ZN3r2p10Middleware8instanceE
 1546 00b4 10000000 		.word	.LC1
 1547 00b8 00000000 		.word	_ZN3r2p4Time8INFINITEE
 1548              		.cfi_endproc
 1549              	.LFE603:
 1550              		.size	_ZN3r2p14RTCANTransport10initializeERK11RTCANConfig, .-_ZN3r2p14RTCANTransport10initializeER
 1551 00bc AFF30080 		.section	.text._ZN3r2p11MemoryPool_D2Ev,"axG",%progbits,_ZN3r2p11MemoryPool_D5Ev,comdat
 1552              		.align	2
 1553              		.p2align 4,,15
 1554              		.weak	_ZN3r2p11MemoryPool_D2Ev
 1555              		.thumb
 1556              		.thumb_func
 1557              		.type	_ZN3r2p11MemoryPool_D2Ev, %function
 1558              	_ZN3r2p11MemoryPool_D2Ev:
 1559              	.LFB607:
 1560              		.loc 7 9 0
 1561              		.cfi_startproc
ARM GAS  /tmp/ccznMLDd.s 			page 29


 1562              		@ args = 0, pretend = 0, frame = 8
 1563              		@ frame_needed = 0, uses_anonymous_args = 0
 1564 0000 00B5     		push	{lr}
 1565              		.cfi_def_cfa_offset 4
 1566              		.cfi_offset 14, -4
 1567 0002 83B0     		sub	sp, sp, #12
 1568              		.cfi_def_cfa_offset 16
 1569 0004 0190     		str	r0, [sp, #4]
 1570              	.LBB23:
 1571              		.loc 7 9 0
 1572 0006 0198     		ldr	r0, [sp, #4]
 1573 0008 FFF7FEFF 		bl	_ZN3r2p10UncopyableD2Ev
 1574              	.LBE23:
 1575 000c 019B     		ldr	r3, [sp, #4]
 1576 000e 1846     		mov	r0, r3
 1577 0010 03B0     		add	sp, sp, #12
 1578              		.cfi_def_cfa_offset 4
 1579              		@ sp needed
 1580 0012 5DF804FB 		ldr	pc, [sp], #4
 1581              		.cfi_endproc
 1582              	.LFE607:
 1583              		.size	_ZN3r2p11MemoryPool_D2Ev, .-_ZN3r2p11MemoryPool_D2Ev
 1584              		.weak	_ZN3r2p11MemoryPool_D1Ev
 1585              		.thumb_set _ZN3r2p11MemoryPool_D1Ev,_ZN3r2p11MemoryPool_D2Ev
 1586 0016 00BFAFF3 		.section	.text._ZN3r2p10MemoryPoolI11rtcan_msg_tED2Ev,"axG",%progbits,_ZN3r2p10MemoryPoolI11rtcan_
 1586      0080AFF3 
 1586      0080
 1587              		.align	2
 1588              		.p2align 4,,15
 1589              		.weak	_ZN3r2p10MemoryPoolI11rtcan_msg_tED2Ev
 1590              		.thumb
 1591              		.thumb_func
 1592              		.type	_ZN3r2p10MemoryPoolI11rtcan_msg_tED2Ev, %function
 1593              	_ZN3r2p10MemoryPoolI11rtcan_msg_tED2Ev:
 1594              	.LFB609:
 1595              		.file 14 "/home/denny/r2p-sdk/core/Middleware/include/r2p/MemoryPool.hpp"
 1596              		.loc 14 10 0
 1597              		.cfi_startproc
 1598              		@ args = 0, pretend = 0, frame = 8
 1599              		@ frame_needed = 0, uses_anonymous_args = 0
 1600 0000 00B5     		push	{lr}
 1601              		.cfi_def_cfa_offset 4
 1602              		.cfi_offset 14, -4
 1603 0002 83B0     		sub	sp, sp, #12
 1604              		.cfi_def_cfa_offset 16
 1605 0004 0190     		str	r0, [sp, #4]
 1606              	.LBB24:
 1607              		.loc 14 10 0
 1608 0006 019B     		ldr	r3, [sp, #4]
 1609 0008 0433     		adds	r3, r3, #4
 1610 000a 1846     		mov	r0, r3
 1611 000c FFF7FEFF 		bl	_ZN3r2p11MemoryPool_D1Ev
 1612 0010 0198     		ldr	r0, [sp, #4]
 1613 0012 FFF7FEFF 		bl	_ZN3r2p10UncopyableD2Ev
 1614              	.LBE24:
 1615 0016 019B     		ldr	r3, [sp, #4]
 1616 0018 1846     		mov	r0, r3
ARM GAS  /tmp/ccznMLDd.s 			page 30


 1617 001a 03B0     		add	sp, sp, #12
 1618              		.cfi_def_cfa_offset 4
 1619              		@ sp needed
 1620 001c 5DF804FB 		ldr	pc, [sp], #4
 1621              		.cfi_endproc
 1622              	.LFE609:
 1623              		.size	_ZN3r2p10MemoryPoolI11rtcan_msg_tED2Ev, .-_ZN3r2p10MemoryPoolI11rtcan_msg_tED2Ev
 1624              		.weak	_ZN3r2p10MemoryPoolI11rtcan_msg_tED1Ev
 1625              		.thumb_set _ZN3r2p10MemoryPoolI11rtcan_msg_tED1Ev,_ZN3r2p10MemoryPoolI11rtcan_msg_tED2Ev
 1626              		.section	.text._ZN3r2p12StaticQueue_D2Ev,"axG",%progbits,_ZN3r2p12StaticQueue_D5Ev,comdat
 1627              		.align	2
 1628              		.p2align 4,,15
 1629              		.weak	_ZN3r2p12StaticQueue_D2Ev
 1630              		.thumb
 1631              		.thumb_func
 1632              		.type	_ZN3r2p12StaticQueue_D2Ev, %function
 1633              	_ZN3r2p12StaticQueue_D2Ev:
 1634              	.LFB614:
 1635              		.file 15 "/home/denny/r2p-sdk/core/Middleware/include/r2p/impl/StaticQueue_.hpp"
 1636              		.loc 15 10 0
 1637              		.cfi_startproc
 1638              		@ args = 0, pretend = 0, frame = 8
 1639              		@ frame_needed = 0, uses_anonymous_args = 0
 1640 0000 00B5     		push	{lr}
 1641              		.cfi_def_cfa_offset 4
 1642              		.cfi_offset 14, -4
 1643 0002 83B0     		sub	sp, sp, #12
 1644              		.cfi_def_cfa_offset 16
 1645 0004 0190     		str	r0, [sp, #4]
 1646              	.LBB25:
 1647              		.loc 15 10 0
 1648 0006 0198     		ldr	r0, [sp, #4]
 1649 0008 FFF7FEFF 		bl	_ZN3r2p10UncopyableD2Ev
 1650              	.LBE25:
 1651 000c 019B     		ldr	r3, [sp, #4]
 1652 000e 1846     		mov	r0, r3
 1653 0010 03B0     		add	sp, sp, #12
 1654              		.cfi_def_cfa_offset 4
 1655              		@ sp needed
 1656 0012 5DF804FB 		ldr	pc, [sp], #4
 1657              		.cfi_endproc
 1658              	.LFE614:
 1659              		.size	_ZN3r2p12StaticQueue_D2Ev, .-_ZN3r2p12StaticQueue_D2Ev
 1660              		.weak	_ZN3r2p12StaticQueue_D1Ev
 1661              		.thumb_set _ZN3r2p12StaticQueue_D1Ev,_ZN3r2p12StaticQueue_D2Ev
 1662 0016 00BFAFF3 		.section	.text._ZN3r2p11StaticQueueINS_14BaseSubscriberEED2Ev,"axG",%progbits,_ZN3r2p11StaticQueue
 1662      0080AFF3 
 1662      0080
 1663              		.align	2
 1664              		.p2align 4,,15
 1665              		.weak	_ZN3r2p11StaticQueueINS_14BaseSubscriberEED2Ev
 1666              		.thumb
 1667              		.thumb_func
 1668              		.type	_ZN3r2p11StaticQueueINS_14BaseSubscriberEED2Ev, %function
 1669              	_ZN3r2p11StaticQueueINS_14BaseSubscriberEED2Ev:
 1670              	.LFB616:
 1671              		.file 16 "/home/denny/r2p-sdk/core/Middleware/include/r2p/StaticQueue.hpp"
ARM GAS  /tmp/ccznMLDd.s 			page 31


 1672              		.loc 16 10 0
 1673              		.cfi_startproc
 1674              		@ args = 0, pretend = 0, frame = 8
 1675              		@ frame_needed = 0, uses_anonymous_args = 0
 1676 0000 00B5     		push	{lr}
 1677              		.cfi_def_cfa_offset 4
 1678              		.cfi_offset 14, -4
 1679 0002 83B0     		sub	sp, sp, #12
 1680              		.cfi_def_cfa_offset 16
 1681 0004 0190     		str	r0, [sp, #4]
 1682              	.LBB26:
 1683              		.loc 16 10 0
 1684 0006 019B     		ldr	r3, [sp, #4]
 1685 0008 0433     		adds	r3, r3, #4
 1686 000a 1846     		mov	r0, r3
 1687 000c FFF7FEFF 		bl	_ZN3r2p12StaticQueue_D1Ev
 1688 0010 0198     		ldr	r0, [sp, #4]
 1689 0012 FFF7FEFF 		bl	_ZN3r2p10UncopyableD2Ev
 1690              	.LBE26:
 1691 0016 019B     		ldr	r3, [sp, #4]
 1692 0018 1846     		mov	r0, r3
 1693 001a 03B0     		add	sp, sp, #12
 1694              		.cfi_def_cfa_offset 4
 1695              		@ sp needed
 1696 001c 5DF804FB 		ldr	pc, [sp], #4
 1697              		.cfi_endproc
 1698              	.LFE616:
 1699              		.size	_ZN3r2p11StaticQueueINS_14BaseSubscriberEED2Ev, .-_ZN3r2p11StaticQueueINS_14BaseSubscriberEE
 1700              		.weak	_ZN3r2p11StaticQueueINS_14BaseSubscriberEED1Ev
 1701              		.thumb_set _ZN3r2p11StaticQueueINS_14BaseSubscriberEED1Ev,_ZN3r2p11StaticQueueINS_14BaseSubscriber
 1702              		.section	.text._ZN3r2p19BaseSubscriberQueueD2Ev,"axG",%progbits,_ZN3r2p19BaseSubscriberQueueD5Ev,c
 1703              		.align	2
 1704              		.p2align 4,,15
 1705              		.weak	_ZN3r2p19BaseSubscriberQueueD2Ev
 1706              		.thumb
 1707              		.thumb_func
 1708              		.type	_ZN3r2p19BaseSubscriberQueueD2Ev, %function
 1709              	_ZN3r2p19BaseSubscriberQueueD2Ev:
 1710              	.LFB618:
 1711              		.file 17 "/home/denny/r2p-sdk/core/Middleware/include/r2p/BaseSubscriberQueue.hpp"
 1712              		.loc 17 11 0
 1713              		.cfi_startproc
 1714              		@ args = 0, pretend = 0, frame = 8
 1715              		@ frame_needed = 0, uses_anonymous_args = 0
 1716 0000 00B5     		push	{lr}
 1717              		.cfi_def_cfa_offset 4
 1718              		.cfi_offset 14, -4
 1719 0002 83B0     		sub	sp, sp, #12
 1720              		.cfi_def_cfa_offset 16
 1721 0004 0190     		str	r0, [sp, #4]
 1722              	.LBB27:
 1723              		.loc 17 11 0
 1724 0006 019B     		ldr	r3, [sp, #4]
 1725 0008 1846     		mov	r0, r3
 1726 000a FFF7FEFF 		bl	_ZN3r2p11StaticQueueINS_14BaseSubscriberEED2Ev
 1727              	.LBE27:
 1728 000e 019B     		ldr	r3, [sp, #4]
ARM GAS  /tmp/ccznMLDd.s 			page 32


 1729 0010 1846     		mov	r0, r3
 1730 0012 03B0     		add	sp, sp, #12
 1731              		.cfi_def_cfa_offset 4
 1732              		@ sp needed
 1733 0014 5DF804FB 		ldr	pc, [sp], #4
 1734              		.cfi_endproc
 1735              	.LFE618:
 1736              		.size	_ZN3r2p19BaseSubscriberQueueD2Ev, .-_ZN3r2p19BaseSubscriberQueueD2Ev
 1737              		.weak	_ZN3r2p19BaseSubscriberQueueD1Ev
 1738              		.thumb_set _ZN3r2p19BaseSubscriberQueueD1Ev,_ZN3r2p19BaseSubscriberQueueD2Ev
 1739 0018 AFF30080 		.section	.text._ZN3r2p7MgmtMsgC2Ev,"axG",%progbits,_ZN3r2p7MgmtMsgC5Ev,comdat
 1739      AFF30080 
 1740              		.align	2
 1741              		.p2align 4,,15
 1742              		.weak	_ZN3r2p7MgmtMsgC2Ev
 1743              		.thumb
 1744              		.thumb_func
 1745              		.type	_ZN3r2p7MgmtMsgC2Ev, %function
 1746              	_ZN3r2p7MgmtMsgC2Ev:
 1747              	.LFB621:
 1748              		.file 18 "/home/denny/r2p-sdk/core/Middleware/include/r2p/MgmtMsg.hpp"
 1749              		.loc 18 12 0
 1750              		.cfi_startproc
 1751              		@ args = 0, pretend = 0, frame = 8
 1752              		@ frame_needed = 0, uses_anonymous_args = 0
 1753 0000 00B5     		push	{lr}
 1754              		.cfi_def_cfa_offset 4
 1755              		.cfi_offset 14, -4
 1756 0002 83B0     		sub	sp, sp, #12
 1757              		.cfi_def_cfa_offset 16
 1758 0004 0190     		str	r0, [sp, #4]
 1759              	.LBB28:
 1760              		.loc 18 12 0
 1761 0006 019B     		ldr	r3, [sp, #4]
 1762 0008 1846     		mov	r0, r3
 1763 000a FFF7FEFF 		bl	_ZN3r2p7MessageC2Ev
 1764              	.LBE28:
 1765 000e 019B     		ldr	r3, [sp, #4]
 1766 0010 1846     		mov	r0, r3
 1767 0012 03B0     		add	sp, sp, #12
 1768              		.cfi_def_cfa_offset 4
 1769              		@ sp needed
 1770 0014 5DF804FB 		ldr	pc, [sp], #4
 1771              		.cfi_endproc
 1772              	.LFE621:
 1773              		.size	_ZN3r2p7MgmtMsgC2Ev, .-_ZN3r2p7MgmtMsgC2Ev
 1774              		.weak	_ZN3r2p7MgmtMsgC1Ev
 1775              		.thumb_set _ZN3r2p7MgmtMsgC1Ev,_ZN3r2p7MgmtMsgC2Ev
 1776 0018 AFF30080 		.section	.rodata
 1776      AFF30080 
 1777              		.align	2
 1778              	.LC2:
 1779 0014 72746361 		.ascii	"rtcan\000"
 1779      6E00
 1780              		.section	.text._ZN3r2p14RTCANTransportC2ER11RTCANDriver,"ax",%progbits
 1781              		.align	2
 1782              		.p2align 4,,15
ARM GAS  /tmp/ccznMLDd.s 			page 33


 1783              		.global	_ZN3r2p14RTCANTransportC2ER11RTCANDriver
 1784              		.thumb
 1785              		.thumb_func
 1786              		.type	_ZN3r2p14RTCANTransportC2ER11RTCANDriver, %function
 1787              	_ZN3r2p14RTCANTransportC2ER11RTCANDriver:
 1788              	.LFB623:
 1789              		.loc 13 130 0
 1790              		.cfi_startproc
 1791              		@ args = 0, pretend = 0, frame = 8
 1792              		@ frame_needed = 0, uses_anonymous_args = 0
 1793 0000 30B5     		push	{r4, r5, lr}
 1794              		.cfi_def_cfa_offset 12
 1795              		.cfi_offset 4, -12
 1796              		.cfi_offset 5, -8
 1797              		.cfi_offset 14, -4
 1798 0002 83B0     		sub	sp, sp, #12
 1799              		.cfi_def_cfa_offset 24
 1800 0004 0190     		str	r0, [sp, #4]
 1801 0006 0091     		str	r1, [sp]
 1802              	.LBB29:
 1803              		.loc 13 131 0
 1804 0008 019B     		ldr	r3, [sp, #4]
 1805 000a 1846     		mov	r0, r3
 1806 000c 2049     		ldr	r1, .L108
 1807 000e FFF7FEFF 		bl	_ZN3r2p9TransportC2EPKc
 1808 0012 019B     		ldr	r3, [sp, #4]
 1809 0014 1F4A     		ldr	r2, .L108+4
 1810 0016 1A60     		str	r2, [r3]
 1811 0018 019B     		ldr	r3, [sp, #4]
 1812 001a 009A     		ldr	r2, [sp]
 1813 001c 1A64     		str	r2, [r3, #64]
 1814 001e 019B     		ldr	r3, [sp, #4]
 1815 0020 03F5B872 		add	r2, r3, #368
 1816 0024 019B     		ldr	r3, [sp, #4]
 1817 0026 4433     		adds	r3, r3, #68
 1818 0028 1046     		mov	r0, r2
 1819 002a 1946     		mov	r1, r3
 1820 002c 0A22     		movs	r2, #10
 1821 002e FFF7FEFF 		bl	_ZN3r2p10MemoryPoolI11rtcan_msg_tEC1EPS1_j
 1822 0032 019B     		ldr	r3, [sp, #4]
 1823 0034 03F5C073 		add	r3, r3, #384
 1824 0038 1846     		mov	r0, r3
 1825 003a FFF7FEFF 		bl	_ZN3r2p19BaseSubscriberQueueC1Ev
 1826 003e 019B     		ldr	r3, [sp, #4]
 1827 0040 03F5C673 		add	r3, r3, #396
 1828 0044 0324     		movs	r4, #3
 1829 0046 1D46     		mov	r5, r3
 1830 0048 04E0     		b	.L102
 1831              	.L103:
 1832              		.loc 13 131 0 is_stmt 0 discriminator 3
 1833 004a 2846     		mov	r0, r5
 1834 004c FFF7FEFF 		bl	_ZN3r2p7MgmtMsgC1Ev
 1835 0050 2235     		adds	r5, r5, #34
 1836 0052 013C     		subs	r4, r4, #1
 1837              	.L102:
 1838              		.loc 13 131 0 discriminator 1
 1839 0054 B4F1FF3F 		cmp	r4, #-1
ARM GAS  /tmp/ccznMLDd.s 			page 34


 1840 0058 F7D1     		bne	.L103
 1841              		.loc 13 131 0 discriminator 4
 1842 005a 019B     		ldr	r3, [sp, #4]
 1843 005c 03F50573 		add	r3, r3, #532
 1844 0060 0324     		movs	r4, #3
 1845 0062 1D46     		mov	r5, r3
 1846 0064 04E0     		b	.L104
 1847              	.L105:
 1848              		.loc 13 131 0 discriminator 7
 1849 0066 2846     		mov	r0, r5
 1850 0068 FFF7FEFF 		bl	_ZN3r2p22TimestampedMsgPtrQueue5EntryC1Ev
 1851 006c 0835     		adds	r5, r5, #8
 1852 006e 013C     		subs	r4, r4, #1
 1853              	.L104:
 1854              		.loc 13 131 0 discriminator 5
 1855 0070 B4F1FF3F 		cmp	r4, #-1
 1856 0074 F7D1     		bne	.L105
 1857              		.loc 13 131 0 discriminator 8
 1858 0076 019B     		ldr	r3, [sp, #4]
 1859 0078 0022     		movs	r2, #0
 1860 007a C3F83422 		str	r2, [r3, #564]
 1861 007e 019B     		ldr	r3, [sp, #4]
 1862 0080 0022     		movs	r2, #0
 1863 0082 C3F83822 		str	r2, [r3, #568]
 1864              	.LBE29:
 1865              		.loc 13 132 0 is_stmt 1 discriminator 8
 1866 0086 019B     		ldr	r3, [sp, #4]
 1867 0088 1846     		mov	r0, r3
 1868 008a 03B0     		add	sp, sp, #12
 1869              		.cfi_def_cfa_offset 12
 1870              		@ sp needed
 1871 008c 30BD     		pop	{r4, r5, pc}
 1872              	.L109:
 1873 008e 00BF     		.align	2
 1874              	.L108:
 1875 0090 14000000 		.word	.LC2
 1876 0094 08000000 		.word	_ZTVN3r2p14RTCANTransportE+8
 1877              		.cfi_endproc
 1878              	.LFE623:
 1879              		.size	_ZN3r2p14RTCANTransportC2ER11RTCANDriver, .-_ZN3r2p14RTCANTransportC2ER11RTCANDriver
 1880              		.global	_ZN3r2p14RTCANTransportC1ER11RTCANDriver
 1881              		.thumb_set _ZN3r2p14RTCANTransportC1ER11RTCANDriver,_ZN3r2p14RTCANTransportC2ER11RTCANDriver
 1882 0098 AFF30080 		.section	.text._ZN3r2p14RTCANTransportD2Ev,"ax",%progbits
 1882      AFF30080 
 1883              		.align	2
 1884              		.p2align 4,,15
 1885              		.global	_ZN3r2p14RTCANTransportD2Ev
 1886              		.thumb
 1887              		.thumb_func
 1888              		.type	_ZN3r2p14RTCANTransportD2Ev, %function
 1889              	_ZN3r2p14RTCANTransportD2Ev:
 1890              	.LFB626:
 1891              		.loc 13 134 0
 1892              		.cfi_startproc
 1893              		@ args = 0, pretend = 0, frame = 8
 1894              		@ frame_needed = 0, uses_anonymous_args = 0
 1895 0000 00B5     		push	{lr}
ARM GAS  /tmp/ccznMLDd.s 			page 35


 1896              		.cfi_def_cfa_offset 4
 1897              		.cfi_offset 14, -4
 1898 0002 83B0     		sub	sp, sp, #12
 1899              		.cfi_def_cfa_offset 16
 1900 0004 0190     		str	r0, [sp, #4]
 1901              	.LBB30:
 1902              		.loc 13 134 0
 1903 0006 019B     		ldr	r3, [sp, #4]
 1904 0008 0E4A     		ldr	r2, .L114
 1905 000a 1A60     		str	r2, [r3]
 1906 000c 019B     		ldr	r3, [sp, #4]
 1907 000e 03F5C073 		add	r3, r3, #384
 1908 0012 1846     		mov	r0, r3
 1909 0014 FFF7FEFF 		bl	_ZN3r2p19BaseSubscriberQueueD1Ev
 1910 0018 019B     		ldr	r3, [sp, #4]
 1911 001a 03F5B873 		add	r3, r3, #368
 1912 001e 1846     		mov	r0, r3
 1913 0020 FFF7FEFF 		bl	_ZN3r2p10MemoryPoolI11rtcan_msg_tED1Ev
 1914 0024 019B     		ldr	r3, [sp, #4]
 1915 0026 1846     		mov	r0, r3
 1916 0028 FFF7FEFF 		bl	_ZN3r2p9TransportD2Ev
 1917              	.LBE30:
 1918              		.loc 13 135 0
 1919 002c 0023     		movs	r3, #0
 1920 002e 002B     		cmp	r3, #0
 1921 0030 02D0     		beq	.L112
 1922              		.loc 13 135 0 is_stmt 0 discriminator 2
 1923 0032 0198     		ldr	r0, [sp, #4]
 1924 0034 FFF7FEFF 		bl	_ZdlPv
 1925              	.L112:
 1926              		.loc 13 135 0 discriminator 4
 1927 0038 019B     		ldr	r3, [sp, #4]
 1928 003a 1846     		mov	r0, r3
 1929 003c 03B0     		add	sp, sp, #12
 1930              		.cfi_def_cfa_offset 4
 1931              		@ sp needed
 1932 003e 5DF804FB 		ldr	pc, [sp], #4
 1933              	.L115:
 1934 0042 00BF     		.align	2
 1935              	.L114:
 1936 0044 08000000 		.word	_ZTVN3r2p14RTCANTransportE+8
 1937              		.cfi_endproc
 1938              	.LFE626:
 1939              		.size	_ZN3r2p14RTCANTransportD2Ev, .-_ZN3r2p14RTCANTransportD2Ev
 1940              		.global	_ZN3r2p14RTCANTransportD1Ev
 1941              		.thumb_set _ZN3r2p14RTCANTransportD1Ev,_ZN3r2p14RTCANTransportD2Ev
 1942 0048 AFF30080 		.section	.text._ZN3r2p14RTCANTransportD0Ev,"ax",%progbits
 1942      AFF30080 
 1943              		.align	2
 1944              		.p2align 4,,15
 1945              		.global	_ZN3r2p14RTCANTransportD0Ev
 1946              		.thumb
 1947              		.thumb_func
 1948              		.type	_ZN3r2p14RTCANTransportD0Ev, %function
 1949              	_ZN3r2p14RTCANTransportD0Ev:
 1950              	.LFB628:
 1951              		.loc 13 134 0 is_stmt 1
ARM GAS  /tmp/ccznMLDd.s 			page 36


 1952              		.cfi_startproc
 1953              		@ args = 0, pretend = 0, frame = 8
 1954              		@ frame_needed = 0, uses_anonymous_args = 0
 1955 0000 00B5     		push	{lr}
 1956              		.cfi_def_cfa_offset 4
 1957              		.cfi_offset 14, -4
 1958 0002 83B0     		sub	sp, sp, #12
 1959              		.cfi_def_cfa_offset 16
 1960 0004 0190     		str	r0, [sp, #4]
 1961              		.loc 13 135 0
 1962 0006 0198     		ldr	r0, [sp, #4]
 1963 0008 FFF7FEFF 		bl	_ZN3r2p14RTCANTransportD2Ev
 1964 000c 0198     		ldr	r0, [sp, #4]
 1965 000e FFF7FEFF 		bl	_ZdlPv
 1966 0012 019B     		ldr	r3, [sp, #4]
 1967 0014 1846     		mov	r0, r3
 1968 0016 03B0     		add	sp, sp, #12
 1969              		.cfi_def_cfa_offset 4
 1970              		@ sp needed
 1971 0018 5DF804FB 		ldr	pc, [sp], #4
 1972              		.cfi_endproc
 1973              	.LFE628:
 1974              		.size	_ZN3r2p14RTCANTransportD0Ev, .-_ZN3r2p14RTCANTransportD0Ev
 1975 001c AFF30080 		.section	.rodata
 1976 001a 0000     		.align	2
 1977              	.LC3:
 1978 001c 74657374 		.ascii	"test\000"
 1978      00
 1979 0021 000000   		.section	.text._ZNK3r2p14RTCANTransport8topic_idERKNS_5TopicE,"ax",%progbits
 1980              		.align	2
 1981              		.p2align 4,,15
 1982              		.global	_ZNK3r2p14RTCANTransport8topic_idERKNS_5TopicE
 1983              		.thumb
 1984              		.thumb_func
 1985              		.type	_ZNK3r2p14RTCANTransport8topic_idERKNS_5TopicE, %function
 1986              	_ZNK3r2p14RTCANTransport8topic_idERKNS_5TopicE:
 1987              	.LFB629:
 1988              		.loc 13 138 0
 1989              		.cfi_startproc
 1990              		@ args = 0, pretend = 0, frame = 24
 1991              		@ frame_needed = 0, uses_anonymous_args = 0
 1992 0000 10B5     		push	{r4, lr}
 1993              		.cfi_def_cfa_offset 8
 1994              		.cfi_offset 4, -8
 1995              		.cfi_offset 14, -4
 1996 0002 86B0     		sub	sp, sp, #24
 1997              		.cfi_def_cfa_offset 32
 1998 0004 0190     		str	r0, [sp, #4]
 1999 0006 0091     		str	r1, [sp]
 2000              	.LBB31:
 2001              		.loc 13 139 0
 2002 0008 2348     		ldr	r0, .L124
 2003 000a FFF7FEFF 		bl	_ZNK3r2p10Middleware10get_topicsEv
 2004 000e 0590     		str	r0, [sp, #20]
 2005              		.loc 13 140 0
 2006 0010 2148     		ldr	r0, .L124
 2007 0012 FFF7FEFF 		bl	_ZN3r2p10Middleware14get_mgmt_topicEv
ARM GAS  /tmp/ccznMLDd.s 			page 37


 2008 0016 0490     		str	r0, [sp, #16]
 2009              		.loc 13 141 0
 2010 0018 0598     		ldr	r0, [sp, #20]
 2011 001a 0099     		ldr	r1, [sp]
 2012 001c FFF7FEFF 		bl	_ZNK3r2p10StaticListINS_5TopicEE8index_ofERKS1_
 2013 0020 0390     		str	r0, [sp, #12]
 2014              		.loc 13 145 0
 2015 0022 009A     		ldr	r2, [sp]
 2016 0024 049B     		ldr	r3, [sp, #16]
 2017 0026 9A42     		cmp	r2, r3
 2018 0028 04D1     		bne	.L120
 2019              		.loc 13 145 0 is_stmt 0 discriminator 1
 2020 002a FFF7FEFF 		bl	stm32_id8
 2021 002e 0346     		mov	r3, r0
 2022 0030 9BB2     		uxth	r3, r3
 2023 0032 2EE0     		b	.L121
 2024              	.L120:
 2025              		.loc 13 148 0 is_stmt 1
 2026 0034 0098     		ldr	r0, [sp]
 2027 0036 1949     		ldr	r1, .L124+4
 2028 0038 FFF7FEFF 		bl	_ZN3r2p5Topic8has_nameERKS0_PKc
 2029 003c 0346     		mov	r3, r0
 2030 003e 002B     		cmp	r3, #0
 2031 0040 09D0     		beq	.L122
 2032              		.loc 13 148 0 is_stmt 0 discriminator 1
 2033 0042 FFF7FEFF 		bl	stm32_id8
 2034 0046 0346     		mov	r3, r0
 2035 0048 9BB2     		uxth	r3, r3
 2036 004a 6FEAC353 		mvn	r3, r3, lsl #23
 2037 004e 6FEAD353 		mvn	r3, r3, lsr #23
 2038 0052 9BB2     		uxth	r3, r3
 2039 0054 1DE0     		b	.L121
 2040              	.L122:
 2041              		.loc 13 150 0 is_stmt 1
 2042 0056 039B     		ldr	r3, [sp, #12]
 2043 0058 002B     		cmp	r3, #0
 2044 005a 02DA     		bge	.L123
 2045              		.loc 13 150 0 is_stmt 0 discriminator 1
 2046 005c 4FF47F43 		mov	r3, #65280
 2047 0060 17E0     		b	.L121
 2048              	.L123:
 2049              		.loc 13 152 0 is_stmt 1
 2050 0062 039B     		ldr	r3, [sp, #12]
 2051 0064 1B03     		lsls	r3, r3, #12
 2052 0066 9CB2     		uxth	r4, r3
 2053 0068 FFF7FEFF 		bl	stm32_id8
 2054 006c 0346     		mov	r3, r0
 2055 006e 03F00F03 		and	r3, r3, #15
 2056 0072 1B02     		lsls	r3, r3, #8
 2057 0074 9BB2     		uxth	r3, r3
 2058 0076 2246     		mov	r2, r4	@ movhi
 2059 0078 1343     		orrs	r3, r3, r2
 2060 007a 9CB2     		uxth	r4, r3
 2061 007c FFF7FEFF 		bl	stm32_id8
 2062 0080 0346     		mov	r3, r0
 2063 0082 9BB2     		uxth	r3, r3
 2064 0084 2246     		mov	r2, r4	@ movhi
ARM GAS  /tmp/ccznMLDd.s 			page 38


 2065 0086 1343     		orrs	r3, r3, r2
 2066 0088 9BB2     		uxth	r3, r3
 2067 008a ADF80A30 		strh	r3, [sp, #10]	@ movhi
 2068              		.loc 13 153 0
 2069 008e BDF80A30 		ldrh	r3, [sp, #10]
 2070              	.L121:
 2071              	.LBE31:
 2072              		.loc 13 154 0
 2073 0092 1846     		mov	r0, r3
 2074 0094 06B0     		add	sp, sp, #24
 2075              		.cfi_def_cfa_offset 8
 2076              		@ sp needed
 2077 0096 10BD     		pop	{r4, pc}
 2078              	.L125:
 2079              		.align	2
 2080              	.L124:
 2081 0098 00000000 		.word	_ZN3r2p10Middleware8instanceE
 2082 009c 1C000000 		.word	.LC3
 2083              		.cfi_endproc
 2084              	.LFE629:
 2085              		.size	_ZNK3r2p14RTCANTransport8topic_idERKNS_5TopicE, .-_ZNK3r2p14RTCANTransport8topic_idERKNS_5To
 2086              		.section	.text._ZN3r2p10MemoryPoolI11rtcan_msg_tE12alloc_unsafeEv,"axG",%progbits,_ZN3r2p10MemoryP
 2087              		.align	2
 2088              		.p2align 4,,15
 2089              		.weak	_ZN3r2p10MemoryPoolI11rtcan_msg_tE12alloc_unsafeEv
 2090              		.thumb
 2091              		.thumb_func
 2092              		.type	_ZN3r2p10MemoryPoolI11rtcan_msg_tE12alloc_unsafeEv, %function
 2093              	_ZN3r2p10MemoryPoolI11rtcan_msg_tE12alloc_unsafeEv:
 2094              	.LFB651:
 2095              		.loc 14 58 0
 2096              		.cfi_startproc
 2097              		@ args = 0, pretend = 0, frame = 8
 2098              		@ frame_needed = 0, uses_anonymous_args = 0
 2099 0000 00B5     		push	{lr}
 2100              		.cfi_def_cfa_offset 4
 2101              		.cfi_offset 14, -4
 2102 0002 83B0     		sub	sp, sp, #12
 2103              		.cfi_def_cfa_offset 16
 2104 0004 0190     		str	r0, [sp, #4]
 2105              		.loc 14 60 0
 2106 0006 019B     		ldr	r3, [sp, #4]
 2107 0008 0433     		adds	r3, r3, #4
 2108 000a 1846     		mov	r0, r3
 2109 000c FFF7FEFF 		bl	_ZN3r2p11MemoryPool_12alloc_unsafeEv
 2110 0010 0346     		mov	r3, r0
 2111              		.loc 14 61 0
 2112 0012 1846     		mov	r0, r3
 2113 0014 03B0     		add	sp, sp, #12
 2114              		.cfi_def_cfa_offset 4
 2115              		@ sp needed
 2116 0016 5DF804FB 		ldr	pc, [sp], #4
 2117              		.cfi_endproc
 2118              	.LFE651:
 2119              		.size	_ZN3r2p10MemoryPoolI11rtcan_msg_tE12alloc_unsafeEv, .-_ZN3r2p10MemoryPoolI11rtcan_msg_tE12al
 2120 001a 00BFAFF3 		.section	.text._ZN3r2p10MemoryPoolI11rtcan_msg_tE11free_unsafeEPS1_,"axG",%progbits,_ZN3r2p10Memor
 2120      0080
ARM GAS  /tmp/ccznMLDd.s 			page 39


 2121              		.align	2
 2122              		.p2align 4,,15
 2123              		.weak	_ZN3r2p10MemoryPoolI11rtcan_msg_tE11free_unsafeEPS1_
 2124              		.thumb
 2125              		.thumb_func
 2126              		.type	_ZN3r2p10MemoryPoolI11rtcan_msg_tE11free_unsafeEPS1_, %function
 2127              	_ZN3r2p10MemoryPoolI11rtcan_msg_tE11free_unsafeEPS1_:
 2128              	.LFB652:
 2129              		.loc 14 66 0
 2130              		.cfi_startproc
 2131              		@ args = 0, pretend = 0, frame = 8
 2132              		@ frame_needed = 0, uses_anonymous_args = 0
 2133 0000 00B5     		push	{lr}
 2134              		.cfi_def_cfa_offset 4
 2135              		.cfi_offset 14, -4
 2136 0002 83B0     		sub	sp, sp, #12
 2137              		.cfi_def_cfa_offset 16
 2138 0004 0190     		str	r0, [sp, #4]
 2139 0006 0091     		str	r1, [sp]
 2140              		.loc 14 68 0
 2141 0008 019B     		ldr	r3, [sp, #4]
 2142 000a 0433     		adds	r3, r3, #4
 2143 000c 1846     		mov	r0, r3
 2144 000e 0099     		ldr	r1, [sp]
 2145 0010 FFF7FEFF 		bl	_ZN3r2p11MemoryPool_11free_unsafeEPv
 2146              		.loc 14 69 0
 2147 0014 03B0     		add	sp, sp, #12
 2148              		.cfi_def_cfa_offset 4
 2149              		@ sp needed
 2150 0016 5DF804FB 		ldr	pc, [sp], #4
 2151              		.cfi_endproc
 2152              	.LFE652:
 2153              		.size	_ZN3r2p10MemoryPoolI11rtcan_msg_tE11free_unsafeEPS1_, .-_ZN3r2p10MemoryPoolI11rtcan_msg_tE11
 2154 001a 00BFAFF3 		.section	.text._ZN3r2p5Topic5allocINS_7MessageEEEbRPT_,"axG",%progbits,_ZN3r2p5Topic5allocINS_7Mes
 2154      0080
 2155              		.align	2
 2156              		.p2align 4,,15
 2157              		.weak	_ZN3r2p5Topic5allocINS_7MessageEEEbRPT_
 2158              		.thumb
 2159              		.thumb_func
 2160              		.type	_ZN3r2p5Topic5allocINS_7MessageEEEbRPT_, %function
 2161              	_ZN3r2p5Topic5allocINS_7MessageEEEbRPT_:
 2162              	.LFB653:
 2163              		.loc 10 305 0
 2164              		.cfi_startproc
 2165              		@ args = 0, pretend = 0, frame = 8
 2166              		@ frame_needed = 0, uses_anonymous_args = 0
 2167 0000 00B5     		push	{lr}
 2168              		.cfi_def_cfa_offset 4
 2169              		.cfi_offset 14, -4
 2170 0002 83B0     		sub	sp, sp, #12
 2171              		.cfi_def_cfa_offset 16
 2172 0004 0190     		str	r0, [sp, #4]
 2173 0006 0091     		str	r1, [sp]
 2174              		.loc 10 308 0
 2175 0008 0198     		ldr	r0, [sp, #4]
 2176 000a FFF7FEFF 		bl	_ZN3r2p5Topic5allocEv
ARM GAS  /tmp/ccznMLDd.s 			page 40


 2177 000e 0246     		mov	r2, r0
 2178 0010 009B     		ldr	r3, [sp]
 2179 0012 1A60     		str	r2, [r3]
 2180 0014 009B     		ldr	r3, [sp]
 2181 0016 1B68     		ldr	r3, [r3]
 2182 0018 002B     		cmp	r3, #0
 2183 001a 14BF     		ite	ne
 2184 001c 0123     		movne	r3, #1
 2185 001e 0023     		moveq	r3, #0
 2186 0020 DBB2     		uxtb	r3, r3
 2187              		.loc 10 309 0
 2188 0022 1846     		mov	r0, r3
 2189 0024 03B0     		add	sp, sp, #12
 2190              		.cfi_def_cfa_offset 4
 2191              		@ sp needed
 2192 0026 5DF804FB 		ldr	pc, [sp], #4
 2193              		.cfi_endproc
 2194              	.LFE653:
 2195              		.size	_ZN3r2p5Topic5allocINS_7MessageEEEbRPT_, .-_ZN3r2p5Topic5allocINS_7MessageEEEbRPT_
 2196 002a 00BFAFF3 		.section	.text._ZN3r2p10MemoryPoolI11rtcan_msg_tEC2EPS1_j,"axG",%progbits,_ZN3r2p10MemoryPoolI11rt
 2196      0080
 2197              		.align	2
 2198              		.p2align 4,,15
 2199              		.weak	_ZN3r2p10MemoryPoolI11rtcan_msg_tEC2EPS1_j
 2200              		.thumb
 2201              		.thumb_func
 2202              		.type	_ZN3r2p10MemoryPoolI11rtcan_msg_tEC2EPS1_j, %function
 2203              	_ZN3r2p10MemoryPoolI11rtcan_msg_tEC2EPS1_j:
 2204              	.LFB655:
 2205              		.loc 14 108 0
 2206              		.cfi_startproc
 2207              		@ args = 0, pretend = 0, frame = 16
 2208              		@ frame_needed = 0, uses_anonymous_args = 0
 2209 0000 00B5     		push	{lr}
 2210              		.cfi_def_cfa_offset 4
 2211              		.cfi_offset 14, -4
 2212 0002 85B0     		sub	sp, sp, #20
 2213              		.cfi_def_cfa_offset 24
 2214 0004 0390     		str	r0, [sp, #12]
 2215 0006 0291     		str	r1, [sp, #8]
 2216 0008 0192     		str	r2, [sp, #4]
 2217              	.LBB32:
 2218              		.loc 14 110 0
 2219 000a 0398     		ldr	r0, [sp, #12]
 2220 000c FFF7FEFF 		bl	_ZN3r2p10UncopyableC2Ev
 2221 0010 039B     		ldr	r3, [sp, #12]
 2222 0012 0433     		adds	r3, r3, #4
 2223 0014 1846     		mov	r0, r3
 2224 0016 0299     		ldr	r1, [sp, #8]
 2225 0018 019A     		ldr	r2, [sp, #4]
 2226 001a 1E23     		movs	r3, #30
 2227 001c FFF7FEFF 		bl	_ZN3r2p11MemoryPool_C1EPvjj
 2228              	.LBE32:
 2229              		.loc 14 113 0
 2230 0020 039B     		ldr	r3, [sp, #12]
 2231 0022 1846     		mov	r0, r3
 2232 0024 05B0     		add	sp, sp, #20
ARM GAS  /tmp/ccznMLDd.s 			page 41


 2233              		.cfi_def_cfa_offset 4
 2234              		@ sp needed
 2235 0026 5DF804FB 		ldr	pc, [sp], #4
 2236              		.cfi_endproc
 2237              	.LFE655:
 2238              		.size	_ZN3r2p10MemoryPoolI11rtcan_msg_tEC2EPS1_j, .-_ZN3r2p10MemoryPoolI11rtcan_msg_tEC2EPS1_j
 2239              		.weak	_ZN3r2p10MemoryPoolI11rtcan_msg_tEC1EPS1_j
 2240              		.thumb_set _ZN3r2p10MemoryPoolI11rtcan_msg_tEC1EPS1_j,_ZN3r2p10MemoryPoolI11rtcan_msg_tEC2EPS1_j
 2241 002a 00BFAFF3 		.section	.text._ZNK3r2p10StaticListINS_5TopicEE8index_ofERKS1_,"axG",%progbits,_ZNK3r2p10StaticLis
 2241      0080
 2242              		.align	2
 2243              		.p2align 4,,15
 2244              		.weak	_ZNK3r2p10StaticListINS_5TopicEE8index_ofERKS1_
 2245              		.thumb
 2246              		.thumb_func
 2247              		.type	_ZNK3r2p10StaticListINS_5TopicEE8index_ofERKS1_, %function
 2248              	_ZNK3r2p10StaticListINS_5TopicEE8index_ofERKS1_:
 2249              	.LFB657:
 2250              		.file 19 "/home/denny/r2p-sdk/core/Middleware/include/r2p/StaticList.hpp"
 2251              		.loc 19 650 0
 2252              		.cfi_startproc
 2253              		@ args = 0, pretend = 0, frame = 16
 2254              		@ frame_needed = 0, uses_anonymous_args = 0
 2255 0000 00B5     		push	{lr}
 2256              		.cfi_def_cfa_offset 4
 2257              		.cfi_offset 14, -4
 2258 0002 85B0     		sub	sp, sp, #20
 2259              		.cfi_def_cfa_offset 24
 2260 0004 0190     		str	r0, [sp, #4]
 2261 0006 0091     		str	r1, [sp]
 2262              	.LBB33:
 2263              		.loc 19 652 0
 2264 0008 0023     		movs	r3, #0
 2265 000a 0393     		str	r3, [sp, #12]
 2266              		.loc 19 653 0
 2267 000c FFF7FEFF 		bl	_ZN3r2p7SysLock7acquireEv
 2268              	.LBB34:
 2269              		.loc 19 654 0
 2270 0010 019B     		ldr	r3, [sp, #4]
 2271 0012 1B68     		ldr	r3, [r3]
 2272 0014 0293     		str	r3, [sp, #8]
 2273 0016 10E0     		b	.L135
 2274              	.L138:
 2275              		.loc 19 655 0
 2276 0018 FFF7FEFF 		bl	_ZN3r2p7SysLock7releaseEv
 2277              		.loc 19 656 0
 2278 001c 029B     		ldr	r3, [sp, #8]
 2279 001e 5A68     		ldr	r2, [r3, #4]
 2280 0020 009B     		ldr	r3, [sp]
 2281 0022 9A42     		cmp	r2, r3
 2282 0024 01D1     		bne	.L136
 2283              		.loc 19 657 0
 2284 0026 039B     		ldr	r3, [sp, #12]
 2285 0028 0EE0     		b	.L137
 2286              	.L136:
 2287              		.loc 19 659 0 discriminator 2
 2288 002a FFF7FEFF 		bl	_ZN3r2p7SysLock7acquireEv
ARM GAS  /tmp/ccznMLDd.s 			page 42


 2289              		.loc 19 654 0 discriminator 2
 2290 002e 039B     		ldr	r3, [sp, #12]
 2291 0030 0133     		adds	r3, r3, #1
 2292 0032 0393     		str	r3, [sp, #12]
 2293 0034 029B     		ldr	r3, [sp, #8]
 2294 0036 1B68     		ldr	r3, [r3]
 2295 0038 0293     		str	r3, [sp, #8]
 2296              	.L135:
 2297              		.loc 19 654 0 is_stmt 0 discriminator 1
 2298 003a 029B     		ldr	r3, [sp, #8]
 2299 003c 002B     		cmp	r3, #0
 2300 003e EBD1     		bne	.L138
 2301              	.LBE34:
 2302              		.loc 19 661 0 is_stmt 1
 2303 0040 FFF7FEFF 		bl	_ZN3r2p7SysLock7releaseEv
 2304              		.loc 19 662 0
 2305 0044 4FF0FF33 		mov	r3, #-1
 2306              	.L137:
 2307              	.LBE33:
 2308              		.loc 19 663 0
 2309 0048 1846     		mov	r0, r3
 2310 004a 05B0     		add	sp, sp, #20
 2311              		.cfi_def_cfa_offset 4
 2312              		@ sp needed
 2313 004c 5DF804FB 		ldr	pc, [sp], #4
 2314              		.cfi_endproc
 2315              	.LFE657:
 2316              		.size	_ZNK3r2p10StaticListINS_5TopicEE8index_ofERKS1_, .-_ZNK3r2p10StaticListINS_5TopicEE8index_of
 2317              		.global	_ZTVN3r2p14RTCANTransportE
 2318              		.section	.rodata._ZTVN3r2p14RTCANTransportE,"a",%progbits
 2319              		.align	3
 2320              		.type	_ZTVN3r2p14RTCANTransportE, %object
 2321              		.size	_ZTVN3r2p14RTCANTransportE, 28
 2322              	_ZTVN3r2p14RTCANTransportE:
 2323 0000 00000000 		.word	0
 2324 0004 00000000 		.word	0
 2325 0008 00000000 		.word	_ZN3r2p14RTCANTransport15fill_raw_paramsERKNS_5TopicEPh
 2326 000c 00000000 		.word	_ZNK3r2p14RTCANTransport16create_publisherERNS_5TopicEPKh
 2327 0010 00000000 		.word	_ZNK3r2p14RTCANTransport17create_subscriberERNS_5TopicEPNS_22TimestampedMsgPtrQueue5EntryEj
 2328 0014 00000000 		.word	_ZN3r2p14RTCANTransportD1Ev
 2329 0018 00000000 		.word	_ZN3r2p14RTCANTransportD0Ev
 2330 001c 00000000 		.text
 2331              	.Letext0:
 2332              		.file 20 "/home/denny/r2p-sdk/tools/gcc-arm-none-eabi-4_9-2014q4/lib/gcc/arm-none-eabi/4.9.3/inclu
 2333              		.file 21 "/home/denny/r2p-sdk/tools/gcc-arm-none-eabi-4_9-2014q4/arm-none-eabi/include/machine/_de
 2334              		.file 22 "/home/denny/r2p-sdk/tools/gcc-arm-none-eabi-4_9-2014q4/arm-none-eabi/include/c++/4.9.3/c
 2335              		.file 23 "/home/denny/r2p-sdk/tools/gcc-arm-none-eabi-4_9-2014q4/arm-none-eabi/include/string.h"
 2336              		.file 24 "<built-in>"
 2337              		.file 25 "/home/denny/r2p-sdk/core/Middleware/include/r2p/ArrayQueue.hpp"
 2338              		.file 26 "/home/denny/r2p-sdk/core/Middleware/port/chibios/include/r2p/impl/Mutex_.hpp"
 2339              		.file 27 "/home/denny/r2p-sdk/core/Middleware/include/r2p/Mutex.hpp"
 2340              		.file 28 "/home/denny/r2p-sdk/core/Middleware/port/chibios/include/r2p/impl/Thread_.hpp"
 2341              		.file 29 "/home/denny/r2p-sdk/core/Middleware/include/r2p/Thread.hpp"
 2342              		.file 30 "/home/denny/r2p-sdk/core/Middleware/port/chibios/include/r2p/impl/SpinEvent_.hpp"
 2343              		.file 31 "/home/denny/r2p-sdk/core/Middleware/include/r2p/SpinEvent.hpp"
 2344              		.file 32 "/home/denny/r2p-sdk/core/Middleware/include/r2p/Node.hpp"
 2345              		.file 33 "/home/denny/r2p-sdk/core/Middleware/include/r2p/transport/RTCANTransport.hpp"
ARM GAS  /tmp/ccznMLDd.s 			page 43


 2346              		.file 34 "/home/denny/r2p-sdk/core/Middleware/include/r2p/ReMutex.hpp"
 2347              		.file 35 "/home/denny/r2p-sdk/core/Middleware/include/r2p/common.hpp"
 2348              		.file 36 "/home/denny/r2p-sdk/tools/gcc-arm-none-eabi-4_9-2014q4/arm-none-eabi/include/stdint.h"
 2349              		.file 37 "/home/denny/r2p-sdk/core/ChibiOS/os/ports/GCC/ARMCMx/chtypes.h"
 2350              		.file 38 "/home/denny/r2p-sdk/core/ChibiOS/os/kernel/include/chlists.h"
 2351              		.file 39 "/home/denny/r2p-sdk/core/ChibiOS/os/kernel/include/chthreads.h"
 2352              		.file 40 "/home/denny/r2p-sdk/core/ChibiOS/os/ports/GCC/ARMCMx/chcore_v7m.h"
 2353              		.file 41 "/home/denny/r2p-sdk/core/ChibiOS/os/kernel/include/chschd.h"
 2354              		.file 42 "/home/denny/r2p-sdk/core/ChibiOS/os/kernel/include/chmtx.h"
 2355              		.file 43 "/home/denny/r2p-sdk/core/ChibiOS/os/kernel/include/chmemcore.h"
 2356              		.file 44 "/home/denny/r2p-sdk/core/ChibiOS/os/kernel/include/chmempools.h"
 2357              		.file 45 "/home/denny/r2p-sdk/core/ChibiOS/os/hal/platforms/STM32F30x/stm32f30x.h"
 2358              		.file 46 "/home/denny/r2p-sdk/core/RTCAN/include/rtcan.h"
 2359              		.file 47 "/home/denny/r2p-sdk/core/RTCAN/include/msgqueue.h"
 2360              		.file 48 "/home/denny/r2p-sdk/core/RTCAN/include/hrt.h"
 2361              		.file 49 "/home/denny/r2p-sdk/core/ChibiOS/os/ports/common/ARMCMx/CMSIS/include/core_cm4.h"
 2362              		.file 50 "/home/denny/r2p-sdk/core/RTCAN/platforms/STM32/rtcan_lld_can.h"