ARM GAS  /tmp/ccbsvhOp.s 			page 1


   1              		.syntax unified
   2              		.cpu cortex-m4
   3              		.eabi_attribute 27, 3
   4              		.eabi_attribute 28, 1
   5              		.fpu fpv4-sp-d16
   6              		.eabi_attribute 20, 1
   7              		.eabi_attribute 21, 1
   8              		.eabi_attribute 23, 3
   9              		.eabi_attribute 24, 1
  10              		.eabi_attribute 25, 1
  11              		.eabi_attribute 26, 1
  12              		.eabi_attribute 30, 6
  13              		.eabi_attribute 34, 1
  14              		.eabi_attribute 18, 4
  15              		.thumb
  16              		.file	"RTCANPublisher.cpp"
  17              		.text
  18              	.Ltext0:
  19              		.cfi_sections	.debug_frame
  20              		.section	.text._ZN3r2p14RTCANPublisherC2ERNS_9TransportE,"ax",%progbits
  21              		.align	2
  22              		.p2align 4,,15
  23              		.global	_ZN3r2p14RTCANPublisherC2ERNS_9TransportE
  24              		.thumb
  25              		.thumb_func
  26              		.type	_ZN3r2p14RTCANPublisherC2ERNS_9TransportE, %function
  27              	_ZN3r2p14RTCANPublisherC2ERNS_9TransportE:
  28              	.LFB436:
  29              		.file 1 "/home/denny/r2p-sdk/core/Middleware/src/transport/RTCANPublisher.cpp"
  30              		.loc 1 7 0
  31              		.cfi_startproc
  32              		@ args = 0, pretend = 0, frame = 8
  33              		@ frame_needed = 0, uses_anonymous_args = 0
  34 0000 00B5     		push	{lr}
  35              		.cfi_def_cfa_offset 4
  36              		.cfi_offset 14, -4
  37 0002 83B0     		sub	sp, sp, #12
  38              		.cfi_def_cfa_offset 16
  39 0004 0190     		str	r0, [sp, #4]
  40 0006 0091     		str	r1, [sp]
  41              	.LBB2:
  42              		.loc 1 9 0
  43 0008 019B     		ldr	r3, [sp, #4]
  44 000a 1846     		mov	r0, r3
  45 000c 0099     		ldr	r1, [sp]
  46 000e FFF7FEFF 		bl	_ZN3r2p15RemotePublisherC2ERNS_9TransportE
  47 0012 019B     		ldr	r3, [sp, #4]
  48 0014 034A     		ldr	r2, .L4
  49 0016 1A60     		str	r2, [r3]
  50              	.LBE2:
  51              		.loc 1 10 0
  52 0018 019B     		ldr	r3, [sp, #4]
  53 001a 1846     		mov	r0, r3
  54 001c 03B0     		add	sp, sp, #12
  55              		.cfi_def_cfa_offset 4
  56              		@ sp needed
  57 001e 5DF804FB 		ldr	pc, [sp], #4
ARM GAS  /tmp/ccbsvhOp.s 			page 2


  58              	.L5:
  59 0022 00BF     		.align	2
  60              	.L4:
  61 0024 08000000 		.word	_ZTVN3r2p14RTCANPublisherE+8
  62              		.cfi_endproc
  63              	.LFE436:
  64              		.size	_ZN3r2p14RTCANPublisherC2ERNS_9TransportE, .-_ZN3r2p14RTCANPublisherC2ERNS_9TransportE
  65              		.global	_ZN3r2p14RTCANPublisherC1ERNS_9TransportE
  66              		.thumb_set _ZN3r2p14RTCANPublisherC1ERNS_9TransportE,_ZN3r2p14RTCANPublisherC2ERNS_9TransportE
  67 0028 AFF30080 		.section	.text._ZN3r2p14RTCANPublisherD2Ev,"ax",%progbits
  67      AFF30080 
  68              		.align	2
  69              		.p2align 4,,15
  70              		.global	_ZN3r2p14RTCANPublisherD2Ev
  71              		.thumb
  72              		.thumb_func
  73              		.type	_ZN3r2p14RTCANPublisherD2Ev, %function
  74              	_ZN3r2p14RTCANPublisherD2Ev:
  75              	.LFB439:
  76              		.loc 1 13 0
  77              		.cfi_startproc
  78              		@ args = 0, pretend = 0, frame = 8
  79              		@ frame_needed = 0, uses_anonymous_args = 0
  80 0000 00B5     		push	{lr}
  81              		.cfi_def_cfa_offset 4
  82              		.cfi_offset 14, -4
  83 0002 83B0     		sub	sp, sp, #12
  84              		.cfi_def_cfa_offset 16
  85 0004 0190     		str	r0, [sp, #4]
  86              	.LBB3:
  87              		.loc 1 13 0
  88 0006 019B     		ldr	r3, [sp, #4]
  89 0008 084A     		ldr	r2, .L10
  90 000a 1A60     		str	r2, [r3]
  91 000c 019B     		ldr	r3, [sp, #4]
  92 000e 1846     		mov	r0, r3
  93 0010 FFF7FEFF 		bl	_ZN3r2p15RemotePublisherD2Ev
  94              	.LBE3:
  95 0014 0023     		movs	r3, #0
  96 0016 002B     		cmp	r3, #0
  97 0018 02D0     		beq	.L8
  98              		.loc 1 13 0 is_stmt 0 discriminator 2
  99 001a 0198     		ldr	r0, [sp, #4]
 100 001c FFF7FEFF 		bl	_ZdlPv
 101              	.L8:
 102              		.loc 1 13 0 discriminator 4
 103 0020 019B     		ldr	r3, [sp, #4]
 104 0022 1846     		mov	r0, r3
 105 0024 03B0     		add	sp, sp, #12
 106              		.cfi_def_cfa_offset 4
 107              		@ sp needed
 108 0026 5DF804FB 		ldr	pc, [sp], #4
 109              	.L11:
 110 002a 00BF     		.align	2
 111              	.L10:
 112 002c 08000000 		.word	_ZTVN3r2p14RTCANPublisherE+8
 113              		.cfi_endproc
ARM GAS  /tmp/ccbsvhOp.s 			page 3


 114              	.LFE439:
 115              		.size	_ZN3r2p14RTCANPublisherD2Ev, .-_ZN3r2p14RTCANPublisherD2Ev
 116              		.global	_ZN3r2p14RTCANPublisherD1Ev
 117              		.thumb_set _ZN3r2p14RTCANPublisherD1Ev,_ZN3r2p14RTCANPublisherD2Ev
 118              		.section	.text._ZN3r2p14RTCANPublisherD0Ev,"ax",%progbits
 119              		.align	2
 120              		.p2align 4,,15
 121              		.global	_ZN3r2p14RTCANPublisherD0Ev
 122              		.thumb
 123              		.thumb_func
 124              		.type	_ZN3r2p14RTCANPublisherD0Ev, %function
 125              	_ZN3r2p14RTCANPublisherD0Ev:
 126              	.LFB441:
 127              		.loc 1 13 0 is_stmt 1
 128              		.cfi_startproc
 129              		@ args = 0, pretend = 0, frame = 8
 130              		@ frame_needed = 0, uses_anonymous_args = 0
 131 0000 00B5     		push	{lr}
 132              		.cfi_def_cfa_offset 4
 133              		.cfi_offset 14, -4
 134 0002 83B0     		sub	sp, sp, #12
 135              		.cfi_def_cfa_offset 16
 136 0004 0190     		str	r0, [sp, #4]
 137              		.loc 1 13 0
 138 0006 0198     		ldr	r0, [sp, #4]
 139 0008 FFF7FEFF 		bl	_ZN3r2p14RTCANPublisherD2Ev
 140 000c 0198     		ldr	r0, [sp, #4]
 141 000e FFF7FEFF 		bl	_ZdlPv
 142 0012 019B     		ldr	r3, [sp, #4]
 143 0014 1846     		mov	r0, r3
 144 0016 03B0     		add	sp, sp, #12
 145              		.cfi_def_cfa_offset 4
 146              		@ sp needed
 147 0018 5DF804FB 		ldr	pc, [sp], #4
 148              		.cfi_endproc
 149              	.LFE441:
 150              		.size	_ZN3r2p14RTCANPublisherD0Ev, .-_ZN3r2p14RTCANPublisherD0Ev
 151              		.global	_ZTVN3r2p14RTCANPublisherE
 152 001c AFF30080 		.section	.rodata._ZTVN3r2p14RTCANPublisherE,"a",%progbits
 153              		.align	3
 154              		.type	_ZTVN3r2p14RTCANPublisherE, %object
 155              		.size	_ZTVN3r2p14RTCANPublisherE, 16
 156              	_ZTVN3r2p14RTCANPublisherE:
 157 0000 00000000 		.word	0
 158 0004 00000000 		.word	0
 159 0008 00000000 		.word	_ZN3r2p14RTCANPublisherD1Ev
 160 000c 00000000 		.word	_ZN3r2p14RTCANPublisherD0Ev
 161              		.text
 162              	.Letext0:
 163              		.file 2 "/home/denny/r2p-sdk/tools/gcc-arm-none-eabi-4_9-2014q4/lib/gcc/arm-none-eabi/4.9.3/includ
 164              		.file 3 "/home/denny/r2p-sdk/tools/gcc-arm-none-eabi-4_9-2014q4/arm-none-eabi/include/machine/_def
 165              		.file 4 "/home/denny/r2p-sdk/tools/gcc-arm-none-eabi-4_9-2014q4/arm-none-eabi/include/c++/4.9.3/cs
 166              		.file 5 "/home/denny/r2p-sdk/tools/gcc-arm-none-eabi-4_9-2014q4/arm-none-eabi/include/string.h"
 167              		.file 6 "<built-in>"
 168              		.file 7 "/home/denny/r2p-sdk/core/Middleware/include/r2p/Uncopyable.hpp"
 169              		.file 8 "/home/denny/r2p-sdk/core/Middleware/include/r2p/Message.hpp"
 170              		.file 9 "/home/denny/r2p-sdk/core/Middleware/port/chibios/include/r2p/impl/MemoryPool_.hpp"
ARM GAS  /tmp/ccbsvhOp.s 			page 4


 171              		.file 10 "/home/denny/r2p-sdk/core/Middleware/include/r2p/Time.hpp"
 172              		.file 11 "/home/denny/r2p-sdk/core/Middleware/include/r2p/StaticList.hpp"
 173              		.file 12 "/home/denny/r2p-sdk/core/Middleware/include/r2p/Topic.hpp"
 174              		.file 13 "/home/denny/r2p-sdk/core/Middleware/include/r2p/RemotePublisher.hpp"
 175              		.file 14 "/home/denny/r2p-sdk/core/Middleware/include/r2p/transport/RTCANPublisher.hpp"
 176              		.file 15 "/home/denny/r2p-sdk/core/Middleware/include/r2p/BasePublisher.hpp"
 177              		.file 16 "/home/denny/r2p-sdk/tools/gcc-arm-none-eabi-4_9-2014q4/arm-none-eabi/include/stdint.h"
 178              		.file 17 "/home/denny/r2p-sdk/core/ChibiOS/os/ports/GCC/ARMCMx/chtypes.h"
 179              		.file 18 "/home/denny/r2p-sdk/core/ChibiOS/os/kernel/include/chlists.h"
 180              		.file 19 "/home/denny/r2p-sdk/core/ChibiOS/os/kernel/include/chthreads.h"
 181              		.file 20 "/home/denny/r2p-sdk/core/ChibiOS/os/ports/GCC/ARMCMx/chcore_v7m.h"
 182              		.file 21 "/home/denny/r2p-sdk/core/ChibiOS/os/kernel/include/chschd.h"
 183              		.file 22 "/home/denny/r2p-sdk/core/ChibiOS/os/kernel/include/chmtx.h"
 184              		.file 23 "/home/denny/r2p-sdk/core/ChibiOS/os/kernel/include/chmemcore.h"
 185              		.file 24 "/home/denny/r2p-sdk/core/ChibiOS/os/kernel/include/chmempools.h"
 186              		.file 25 "/home/denny/r2p-sdk/core/RTCAN/include/rtcan.h"
 187              		.file 26 "/home/denny/r2p-sdk/core/ChibiOS/os/ports/common/ARMCMx/CMSIS/include/core_cm4.h"