ARM GAS  /tmp/ccPiMA8j.s 			page 1


   1              		.syntax unified
   2              		.cpu cortex-m4
   3              		.eabi_attribute 27, 3
   4              		.eabi_attribute 28, 1
   5              		.fpu fpv4-sp-d16
   6              		.eabi_attribute 20, 1
   7              		.eabi_attribute 21, 1
   8              		.eabi_attribute 23, 3
   9              		.eabi_attribute 24, 1
  10              		.eabi_attribute 25, 1
  11              		.eabi_attribute 26, 1
  12              		.eabi_attribute 30, 6
  13              		.eabi_attribute 34, 1
  14              		.eabi_attribute 18, 4
  15              		.thumb
  16              		.file	"srt.c"
  17              		.text
  18              	.Ltext0:
  19              		.cfi_sections	.debug_frame
  20              		.section	.text.srt_laxity,"ax",%progbits
  21              		.align	2
  22              		.p2align 4,,15
  23              		.global	srt_laxity
  24              		.thumb
  25              		.thumb_func
  26              		.type	srt_laxity, %function
  27              	srt_laxity:
  28              	.LFB118:
  29              		.file 1 "/home/denny/r2p-sdk/core/RTCAN/src/srt.c"
  30              		.loc 1 22 0
  31              		.cfi_startproc
  32              		@ args = 0, pretend = 0, frame = 16
  33              		@ frame_needed = 0, uses_anonymous_args = 0
  34              		@ link register save eliminated.
  35 0000 84B0     		sub	sp, sp, #16
  36              		.cfi_def_cfa_offset 16
  37 0002 0190     		str	r0, [sp, #4]
  38              		.loc 1 25 0
  39 0004 019B     		ldr	r3, [sp, #4]
  40 0006 D3F80D20 		ldr	r2, [r3, #13]	@ unaligned
  41 000a 0A4B     		ldr	r3, .L5
  42 000c DB68     		ldr	r3, [r3, #12]
  43 000e D31A     		subs	r3, r2, r3
  44 0010 0393     		str	r3, [sp, #12]
  45              		.loc 1 27 0
  46 0012 039B     		ldr	r3, [sp, #12]
  47 0014 002B     		cmp	r3, #0
  48 0016 02DB     		blt	.L2
  49              		.loc 1 27 0 is_stmt 0 discriminator 1
  50 0018 039B     		ldr	r3, [sp, #12]
  51 001a 402B     		cmp	r3, #64
  52 001c 01DD     		ble	.L3
  53              	.L2:
  54              		.loc 1 28 0 is_stmt 1
  55 001e 3F23     		movs	r3, #63
  56 0020 04E0     		b	.L4
  57              	.L3:
ARM GAS  /tmp/ccPiMA8j.s 			page 2


  58              		.loc 1 31 0
  59 0022 039B     		ldr	r3, [sp, #12]
  60 0024 DBB2     		uxtb	r3, r3
  61 0026 03F03F03 		and	r3, r3, #63
  62 002a DBB2     		uxtb	r3, r3
  63              	.L4:
  64              		.loc 1 32 0
  65 002c 1846     		mov	r0, r3
  66 002e 04B0     		add	sp, sp, #16
  67              		.cfi_def_cfa_offset 0
  68              		@ sp needed
  69 0030 7047     		bx	lr
  70              	.L6:
  71 0032 00BF     		.align	2
  72              	.L5:
  73 0034 00000000 		.word	vtlist
  74              		.cfi_endproc
  75              	.LFE118:
  76              		.size	srt_laxity, .-srt_laxity
  77 0038 AFF30080 		.section	.text.srt_transmit,"ax",%progbits
  77      AFF30080 
  78              		.align	2
  79              		.p2align 4,,15
  80              		.global	srt_transmit
  81              		.thumb
  82              		.thumb_func
  83              		.type	srt_transmit, %function
  84              	srt_transmit:
  85              	.LFB119:
  86              		.loc 1 40 0
  87              		.cfi_startproc
  88              		@ args = 0, pretend = 0, frame = 32
  89              		@ frame_needed = 0, uses_anonymous_args = 0
  90 0000 00B5     		push	{lr}
  91              		.cfi_def_cfa_offset 4
  92              		.cfi_offset 14, -4
  93 0002 89B0     		sub	sp, sp, #36
  94              		.cfi_def_cfa_offset 40
  95 0004 0190     		str	r0, [sp, #4]
  96              		.loc 1 44 0
  97 0006 019B     		ldr	r3, [sp, #4]
  98 0008 03F10C02 		add	r2, r3, #12
  99 000c 019B     		ldr	r3, [sp, #4]
 100 000e DB68     		ldr	r3, [r3, #12]
 101 0010 9A42     		cmp	r2, r3
 102 0012 01D1     		bne	.L8
 103              		.loc 1 45 0
 104 0014 0023     		movs	r3, #0
 105 0016 70E0     		b	.L14
 106              	.L8:
 107              		.loc 1 48 0
 108 0018 0198     		ldr	r0, [sp, #4]
 109 001a FFF7FEFF 		bl	rtcan_lld_can_txe
 110 001e 0346     		mov	r3, r0
 111 0020 83F00103 		eor	r3, r3, #1
 112 0024 DBB2     		uxtb	r3, r3
 113 0026 002B     		cmp	r3, #0
ARM GAS  /tmp/ccPiMA8j.s 			page 3


 114 0028 01D0     		beq	.L10
 115              		.loc 1 49 0
 116 002a 0023     		movs	r3, #0
 117 002c 65E0     		b	.L14
 118              	.L10:
 119              		.loc 1 52 0
 120 002e 019B     		ldr	r3, [sp, #4]
 121 0030 1B69     		ldr	r3, [r3, #16]
 122 0032 002B     		cmp	r3, #0
 123 0034 01D0     		beq	.L11
 124              		.loc 1 53 0
 125 0036 0023     		movs	r3, #0
 126 0038 5FE0     		b	.L14
 127              	.L11:
 128              		.loc 1 56 0
 129 003a 019B     		ldr	r3, [sp, #4]
 130 003c 0C33     		adds	r3, r3, #12
 131 003e 1846     		mov	r0, r3
 132 0040 FFF7FEFF 		bl	msgqueue_get
 133 0044 0790     		str	r0, [sp, #28]
 134              		.loc 1 67 0
 135 0046 0798     		ldr	r0, [sp, #28]
 136 0048 FFF7FEFF 		bl	srt_laxity
 137 004c 0346     		mov	r3, r0
 138 004e DA05     		lsls	r2, r3, #23
 139 0050 079B     		ldr	r3, [sp, #28]
 140 0052 B3F81130 		ldrh	r3, [r3, #17]	@ unaligned
 141 0056 9BB2     		uxth	r3, r3
 142 0058 DB01     		lsls	r3, r3, #7
 143 005a 1A43     		orrs	r2, r2, r3
 144 005c 079B     		ldr	r3, [sp, #28]
 145 005e 5B7F     		ldrb	r3, [r3, #29]
 146 0060 C3F30603 		ubfx	r3, r3, #0, #7
 147 0064 DBB2     		uxtb	r3, r3
 148 0066 03F07F03 		and	r3, r3, #127
 149 006a 1343     		orrs	r3, r3, r2
 150 006c 23F06042 		bic	r2, r3, #-536870912
 151 0070 039B     		ldr	r3, [sp, #12]
 152 0072 62F31C03 		bfi	r3, r2, #0, #29
 153 0076 0393     		str	r3, [sp, #12]
 154              		.loc 1 69 0
 155 0078 079B     		ldr	r3, [sp, #28]
 156 007a 5B7F     		ldrb	r3, [r3, #29]
 157 007c C3F30603 		ubfx	r3, r3, #0, #7
 158 0080 DBB2     		uxtb	r3, r3
 159 0082 002B     		cmp	r3, #0
 160 0084 07DD     		ble	.L12
 161              		.loc 1 70 0
 162 0086 9DF81030 		ldrb	r3, [sp, #16]
 163 008a 0822     		movs	r2, #8
 164 008c 62F30303 		bfi	r3, r2, #0, #4
 165 0090 8DF81030 		strb	r3, [sp, #16]
 166 0094 16E0     		b	.L13
 167              	.L12:
 168              		.loc 1 72 0
 169 0096 079B     		ldr	r3, [sp, #28]
 170 0098 D3F81530 		ldr	r3, [r3, #21]	@ unaligned
ARM GAS  /tmp/ccPiMA8j.s 			page 4


 171 009c 079A     		ldr	r2, [sp, #28]
 172 009e B2F81320 		ldrh	r2, [r2, #19]	@ unaligned
 173 00a2 92B2     		uxth	r2, r2
 174 00a4 1344     		add	r3, r3, r2
 175 00a6 1A46     		mov	r2, r3
 176 00a8 079B     		ldr	r3, [sp, #28]
 177 00aa D3F81930 		ldr	r3, [r3, #25]	@ unaligned
 178 00ae D31A     		subs	r3, r2, r3
 179 00b0 DBB2     		uxtb	r3, r3
 180 00b2 03F00F03 		and	r3, r3, #15
 181 00b6 DAB2     		uxtb	r2, r3
 182 00b8 9DF81030 		ldrb	r3, [sp, #16]
 183 00bc 62F30303 		bfi	r3, r2, #0, #4
 184 00c0 8DF81030 		strb	r3, [sp, #16]
 185              	.L13:
 186              		.loc 1 75 0
 187 00c4 079B     		ldr	r3, [sp, #28]
 188 00c6 D3F81930 		ldr	r3, [r3, #25]	@ unaligned
 189 00ca 1B68     		ldr	r3, [r3]
 190 00cc 0593     		str	r3, [sp, #20]
 191              		.loc 1 76 0
 192 00ce 079B     		ldr	r3, [sp, #28]
 193 00d0 D3F81930 		ldr	r3, [r3, #25]	@ unaligned
 194 00d4 5B68     		ldr	r3, [r3, #4]
 195 00d6 0693     		str	r3, [sp, #24]
 196              		.loc 1 78 0
 197 00d8 03AB     		add	r3, sp, #12
 198 00da 0198     		ldr	r0, [sp, #4]
 199 00dc 1946     		mov	r1, r3
 200 00de FFF7FEFF 		bl	rtcan_lld_can_transmit
 201              		.loc 1 79 0
 202 00e2 9DF81130 		ldrb	r3, [sp, #17]	@ zero_extendqisi2
 203 00e6 1A46     		mov	r2, r3
 204 00e8 019B     		ldr	r3, [sp, #4]
 205 00ea 0432     		adds	r2, r2, #4
 206 00ec 0799     		ldr	r1, [sp, #28]
 207 00ee 43F82210 		str	r1, [r3, r2, lsl #2]
 208              		.loc 1 80 0
 209 00f2 079B     		ldr	r3, [sp, #28]
 210 00f4 0422     		movs	r2, #4
 211 00f6 1A71     		strb	r2, [r3, #4]
 212              		.loc 1 82 0
 213 00f8 0123     		movs	r3, #1
 214              	.L14:
 215              		.loc 1 83 0 discriminator 1
 216 00fa 1846     		mov	r0, r3
 217 00fc 09B0     		add	sp, sp, #36
 218              		.cfi_def_cfa_offset 4
 219              		@ sp needed
 220 00fe 5DF804FB 		ldr	pc, [sp], #4
 221              		.cfi_endproc
 222              	.LFE119:
 223              		.size	srt_transmit, .-srt_transmit
 224 0102 00BFAFF3 		.text
 224      0080AFF3 
 224      0080AFF3 
 224      0080
ARM GAS  /tmp/ccPiMA8j.s 			page 5


 225              	.Letext0:
 226              		.file 2 "/home/denny/r2p-sdk/tools/gcc-arm-none-eabi-4_9-2014q4/arm-none-eabi/include/machine/_def
 227              		.file 3 "/home/denny/r2p-sdk/tools/gcc-arm-none-eabi-4_9-2014q4/arm-none-eabi/include/stdint.h"
 228              		.file 4 "/home/denny/r2p-sdk/core/ChibiOS/os/ports/GCC/ARMCMx/chtypes.h"
 229              		.file 5 "/home/denny/r2p-sdk/core/ChibiOS/os/kernel/include/chvt.h"
 230              		.file 6 "/home/denny/r2p-sdk/core/ChibiOS/os/hal/platforms/STM32F30x/stm32f30x.h"
 231              		.file 7 "/home/denny/r2p-sdk/core/RTCAN/include/rtcan.h"
 232              		.file 8 "/home/denny/r2p-sdk/core/RTCAN/include/msgqueue.h"
 233              		.file 9 "/home/denny/r2p-sdk/core/ChibiOS/os/ports/common/ARMCMx/CMSIS/include/core_cm4.h"