ARM GAS  /tmp/ccaYvJo6.s 			page 1


   1              		.syntax unified
   2              		.cpu cortex-m4
   3              		.eabi_attribute 27, 3
   4              		.eabi_attribute 28, 1
   5              		.fpu fpv4-sp-d16
   6              		.eabi_attribute 20, 1
   7              		.eabi_attribute 21, 1
   8              		.eabi_attribute 23, 3
   9              		.eabi_attribute 24, 1
  10              		.eabi_attribute 25, 1
  11              		.eabi_attribute 26, 1
  12              		.eabi_attribute 30, 6
  13              		.eabi_attribute 34, 1
  14              		.eabi_attribute 18, 4
  15              		.thumb
  16              		.file	"Time.cpp"
  17              		.text
  18              	.Ltext0:
  19              		.cfi_sections	.debug_frame
  20              		.global	_ZN3r2p4Time9IMMEDIATEE
  21              		.section	.bss._ZN3r2p4Time9IMMEDIATEE,"aw",%nobits
  22              		.align	2
  23              		.type	_ZN3r2p4Time9IMMEDIATEE, %object
  24              		.size	_ZN3r2p4Time9IMMEDIATEE, 4
  25              	_ZN3r2p4Time9IMMEDIATEE:
  26 0000 00000000 		.space	4
  27              		.global	_ZN3r2p4Time8INFINITEE
  28              		.section	.bss._ZN3r2p4Time8INFINITEE,"aw",%nobits
  29              		.align	2
  30              		.type	_ZN3r2p4Time8INFINITEE, %object
  31              		.size	_ZN3r2p4Time8INFINITEE, 4
  32              	_ZN3r2p4Time8INFINITEE:
  33 0000 00000000 		.space	4
  34              		.global	_ZN3r2p4Time9INFINITENE
  35              		.section	.bss._ZN3r2p4Time9INFINITENE,"aw",%nobits
  36              		.align	2
  37              		.type	_ZN3r2p4Time9INFINITENE, %object
  38              		.size	_ZN3r2p4Time9INFINITENE, 4
  39              	_ZN3r2p4Time9INFINITENE:
  40 0000 00000000 		.space	4
  41              		.section	.text._ZN3r2p4TimeC2IiEET_,"axG",%progbits,_ZN3r2p4TimeC5IiEET_,comdat
  42              		.align	2
  43              		.p2align 4,,15
  44              		.weak	_ZN3r2p4TimeC2IiEET_
  45              		.thumb
  46              		.thumb_func
  47              		.type	_ZN3r2p4TimeC2IiEET_, %function
  48              	_ZN3r2p4TimeC2IiEET_:
  49              	.LFB77:
  50              		.file 1 "/home/denny/r2p-sdk/core/Middleware/include/r2p/Time.hpp"
  51              		.loc 1 159 0
  52              		.cfi_startproc
  53              		@ args = 0, pretend = 0, frame = 8
  54              		@ frame_needed = 0, uses_anonymous_args = 0
  55              		@ link register save eliminated.
  56 0000 82B0     		sub	sp, sp, #8
  57              		.cfi_def_cfa_offset 8
ARM GAS  /tmp/ccaYvJo6.s 			page 2


  58 0002 0190     		str	r0, [sp, #4]
  59 0004 0091     		str	r1, [sp]
  60              	.LBB2:
  61              		.loc 1 161 0
  62 0006 019B     		ldr	r3, [sp, #4]
  63 0008 009A     		ldr	r2, [sp]
  64 000a 1A60     		str	r2, [r3]
  65              	.LBE2:
  66              		.loc 1 162 0
  67 000c 019B     		ldr	r3, [sp, #4]
  68 000e 1846     		mov	r0, r3
  69 0010 02B0     		add	sp, sp, #8
  70              		.cfi_def_cfa_offset 0
  71              		@ sp needed
  72 0012 7047     		bx	lr
  73              		.cfi_endproc
  74              	.LFE77:
  75              		.size	_ZN3r2p4TimeC2IiEET_, .-_ZN3r2p4TimeC2IiEET_
  76              		.weak	_ZN3r2p4TimeC1IiEET_
  77              		.thumb_set _ZN3r2p4TimeC1IiEET_,_ZN3r2p4TimeC2IiEET_
  78 0014 AFF30080 		.section	.text._Z41__static_initialization_and_destruction_0ii,"ax",%progbits
  78      AFF30080 
  78      AFF30080 
  79              		.align	2
  80              		.p2align 4,,15
  81              		.thumb
  82              		.thumb_func
  83              		.type	_Z41__static_initialization_and_destruction_0ii, %function
  84              	_Z41__static_initialization_and_destruction_0ii:
  85              	.LFB79:
  86              		.file 2 "/home/denny/r2p-sdk/core/Middleware/src/Time.cpp"
  87              		.loc 2 12 0
  88              		.cfi_startproc
  89              		@ args = 0, pretend = 0, frame = 8
  90              		@ frame_needed = 0, uses_anonymous_args = 0
  91 0000 00B5     		push	{lr}
  92              		.cfi_def_cfa_offset 4
  93              		.cfi_offset 14, -4
  94 0002 83B0     		sub	sp, sp, #12
  95              		.cfi_def_cfa_offset 16
  96 0004 0190     		str	r0, [sp, #4]
  97 0006 0091     		str	r1, [sp]
  98              		.loc 2 12 0
  99 0008 019B     		ldr	r3, [sp, #4]
 100 000a 012B     		cmp	r3, #1
 101 000c 12D1     		bne	.L4
 102              		.loc 2 12 0 is_stmt 0 discriminator 1
 103 000e 009B     		ldr	r3, [sp]
 104 0010 4FF6FF72 		movw	r2, #65535
 105 0014 9342     		cmp	r3, r2
 106 0016 0DD1     		bne	.L4
 107              		.loc 2 7 0 is_stmt 1
 108 0018 0848     		ldr	r0, .L6
 109 001a 0021     		movs	r1, #0
 110 001c FFF7FEFF 		bl	_ZN3r2p4TimeC1IiEET_
 111              		.loc 2 8 0
 112 0020 0748     		ldr	r0, .L6+4
ARM GAS  /tmp/ccaYvJo6.s 			page 3


 113 0022 6FF00041 		mvn	r1, #-2147483648
 114 0026 FFF7FEFF 		bl	_ZN3r2p4TimeC1IiEET_
 115              		.loc 2 9 0
 116 002a 0648     		ldr	r0, .L6+8
 117 002c 4FF00041 		mov	r1, #-2147483648
 118 0030 FFF7FEFF 		bl	_ZN3r2p4TimeC1IiEET_
 119              	.L4:
 120              		.loc 2 12 0
 121 0034 03B0     		add	sp, sp, #12
 122              		.cfi_def_cfa_offset 4
 123              		@ sp needed
 124 0036 5DF804FB 		ldr	pc, [sp], #4
 125              	.L7:
 126 003a 00BF     		.align	2
 127              	.L6:
 128 003c 00000000 		.word	_ZN3r2p4Time9IMMEDIATEE
 129 0040 00000000 		.word	_ZN3r2p4Time8INFINITEE
 130 0044 00000000 		.word	_ZN3r2p4Time9INFINITENE
 131              		.cfi_endproc
 132              	.LFE79:
 133              		.size	_Z41__static_initialization_and_destruction_0ii, .-_Z41__static_initialization_and_destructi
 134 0048 AFF30080 		.section	.text._GLOBAL__sub_I__ZN3r2p4Time9IMMEDIATEE,"ax",%progbits
 134      AFF30080 
 135              		.align	2
 136              		.p2align 4,,15
 137              		.thumb
 138              		.thumb_func
 139              		.type	_GLOBAL__sub_I__ZN3r2p4Time9IMMEDIATEE, %function
 140              	_GLOBAL__sub_I__ZN3r2p4Time9IMMEDIATEE:
 141              	.LFB80:
 142              		.loc 2 12 0
 143              		.cfi_startproc
 144              		@ args = 0, pretend = 0, frame = 0
 145              		@ frame_needed = 0, uses_anonymous_args = 0
 146 0000 08B5     		push	{r3, lr}
 147              		.cfi_def_cfa_offset 8
 148              		.cfi_offset 3, -8
 149              		.cfi_offset 14, -4
 150              		.loc 2 12 0
 151 0002 0120     		movs	r0, #1
 152 0004 4FF6FF71 		movw	r1, #65535
 153 0008 FFF7FEFF 		bl	_Z41__static_initialization_and_destruction_0ii
 154 000c 08BD     		pop	{r3, pc}
 155              		.cfi_endproc
 156              	.LFE80:
 157              		.size	_GLOBAL__sub_I__ZN3r2p4Time9IMMEDIATEE, .-_GLOBAL__sub_I__ZN3r2p4Time9IMMEDIATEE
 158 000e 00BF     		.section	.init_array,"aw",%init_array
 159              		.align	2
 160 0000 00000000 		.word	_GLOBAL__sub_I__ZN3r2p4Time9IMMEDIATEE(target1)
 161              		.text
 162              	.Letext0:
 163              		.file 3 "/home/denny/r2p-sdk/tools/gcc-arm-none-eabi-4_9-2014q4/lib/gcc/arm-none-eabi/4.9.3/includ
 164              		.file 4 "/home/denny/r2p-sdk/tools/gcc-arm-none-eabi-4_9-2014q4/arm-none-eabi/include/machine/_def
 165              		.file 5 "/home/denny/r2p-sdk/tools/gcc-arm-none-eabi-4_9-2014q4/arm-none-eabi/include/c++/4.9.3/cs
 166              		.file 6 "/home/denny/r2p-sdk/tools/gcc-arm-none-eabi-4_9-2014q4/arm-none-eabi/include/string.h"
 167              		.file 7 "<built-in>"
 168              		.file 8 "/home/denny/r2p-sdk/core/Middleware/include/r2p/Uncopyable.hpp"
ARM GAS  /tmp/ccaYvJo6.s 			page 4


 169              		.file 9 "/home/denny/r2p-sdk/tools/gcc-arm-none-eabi-4_9-2014q4/arm-none-eabi/include/stdint.h"