ARM GAS  /tmp/ccI7GV4j.s 			page 1


   1              		.syntax unified
   2              		.cpu cortex-m4
   3              		.eabi_attribute 27, 3
   4              		.eabi_attribute 28, 1
   5              		.fpu fpv4-sp-d16
   6              		.eabi_attribute 20, 1
   7              		.eabi_attribute 21, 1
   8              		.eabi_attribute 23, 3
   9              		.eabi_attribute 24, 1
  10              		.eabi_attribute 25, 1
  11              		.eabi_attribute 26, 1
  12              		.eabi_attribute 30, 6
  13              		.eabi_attribute 34, 1
  14              		.eabi_attribute 18, 4
  15              		.thumb
  16              		.file	"Utils.cpp"
  17              		.text
  18              	.Ltext0:
  19              		.cfi_sections	.debug_frame
  20              		.section	.text._ZN3r2p13is_identifierEPKc,"ax",%progbits
  21              		.align	2
  22              		.p2align 4,,15
  23              		.global	_ZN3r2p13is_identifierEPKc
  24              		.thumb
  25              		.thumb_func
  26              		.type	_ZN3r2p13is_identifierEPKc, %function
  27              	_ZN3r2p13is_identifierEPKc:
  28              	.LFB36:
  29              		.file 1 "/home/denny/r2p-sdk/core/Middleware/src/Utils.cpp"
  30              		.loc 1 7 0
  31              		.cfi_startproc
  32              		@ args = 0, pretend = 0, frame = 8
  33              		@ frame_needed = 0, uses_anonymous_args = 0
  34              		@ link register save eliminated.
  35 0000 82B0     		sub	sp, sp, #8
  36              		.cfi_def_cfa_offset 8
  37 0002 0190     		str	r0, [sp, #4]
  38              		.loc 1 9 0
  39 0004 019B     		ldr	r3, [sp, #4]
  40 0006 002B     		cmp	r3, #0
  41 0008 2BD0     		beq	.L2
  42              		.loc 1 9 0 is_stmt 0 discriminator 1
  43 000a 019B     		ldr	r3, [sp, #4]
  44 000c 1B78     		ldrb	r3, [r3]	@ zero_extendqisi2
  45 000e 002B     		cmp	r3, #0
  46 0010 27D0     		beq	.L2
  47              		.loc 1 10 0 is_stmt 1
  48 0012 02E0     		b	.L3
  49              	.L5:
  50              		.loc 1 14 0
  51 0014 019B     		ldr	r3, [sp, #4]
  52 0016 0133     		adds	r3, r3, #1
  53 0018 0193     		str	r3, [sp, #4]
  54              	.L3:
  55              		.loc 1 10 0
  56 001a 019B     		ldr	r3, [sp, #4]
  57 001c 1B78     		ldrb	r3, [r3]	@ zero_extendqisi2
ARM GAS  /tmp/ccI7GV4j.s 			page 2


  58 001e 602B     		cmp	r3, #96
  59 0020 03D9     		bls	.L4
  60              		.loc 1 10 0 is_stmt 0 discriminator 1
  61 0022 019B     		ldr	r3, [sp, #4]
  62 0024 1B78     		ldrb	r3, [r3]	@ zero_extendqisi2
  63 0026 7A2B     		cmp	r3, #122
  64 0028 F4D9     		bls	.L5
  65              	.L4:
  66              		.loc 1 11 0 is_stmt 1 discriminator 3
  67 002a 019B     		ldr	r3, [sp, #4]
  68 002c 1B78     		ldrb	r3, [r3]	@ zero_extendqisi2
  69              		.loc 1 10 0 discriminator 3
  70 002e 402B     		cmp	r3, #64
  71 0030 03D9     		bls	.L6
  72              		.loc 1 11 0
  73 0032 019B     		ldr	r3, [sp, #4]
  74 0034 1B78     		ldrb	r3, [r3]	@ zero_extendqisi2
  75 0036 5A2B     		cmp	r3, #90
  76 0038 ECD9     		bls	.L5
  77              	.L6:
  78              		.loc 1 12 0 discriminator 1
  79 003a 019B     		ldr	r3, [sp, #4]
  80 003c 1B78     		ldrb	r3, [r3]	@ zero_extendqisi2
  81              		.loc 1 11 0 discriminator 1
  82 003e 2F2B     		cmp	r3, #47
  83 0040 03D9     		bls	.L7
  84              		.loc 1 12 0
  85 0042 019B     		ldr	r3, [sp, #4]
  86 0044 1B78     		ldrb	r3, [r3]	@ zero_extendqisi2
  87 0046 392B     		cmp	r3, #57
  88 0048 E4D9     		bls	.L5
  89              	.L7:
  90              		.loc 1 13 0 discriminator 1
  91 004a 019B     		ldr	r3, [sp, #4]
  92 004c 1B78     		ldrb	r3, [r3]	@ zero_extendqisi2
  93              		.loc 1 12 0 discriminator 1
  94 004e 5F2B     		cmp	r3, #95
  95 0050 E0D0     		beq	.L5
  96              		.loc 1 16 0
  97 0052 019B     		ldr	r3, [sp, #4]
  98 0054 1B78     		ldrb	r3, [r3]	@ zero_extendqisi2
  99 0056 002B     		cmp	r3, #0
 100 0058 0CBF     		ite	eq
 101 005a 0123     		moveq	r3, #1
 102 005c 0023     		movne	r3, #0
 103 005e DBB2     		uxtb	r3, r3
 104 0060 00E0     		b	.L8
 105              	.L2:
 106              		.loc 1 18 0
 107 0062 0023     		movs	r3, #0
 108              	.L8:
 109              		.loc 1 19 0
 110 0064 1846     		mov	r0, r3
 111 0066 02B0     		add	sp, sp, #8
 112              		.cfi_def_cfa_offset 0
 113              		@ sp needed
 114 0068 7047     		bx	lr
ARM GAS  /tmp/ccI7GV4j.s 			page 3


 115              		.cfi_endproc
 116              	.LFE36:
 117              		.size	_ZN3r2p13is_identifierEPKc, .-_ZN3r2p13is_identifierEPKc
 118 006a 00BFAFF3 		.section	.text._ZN3r2p13is_identifierEPKcj,"ax",%progbits
 118      0080
 119              		.align	2
 120              		.p2align 4,,15
 121              		.global	_ZN3r2p13is_identifierEPKcj
 122              		.thumb
 123              		.thumb_func
 124              		.type	_ZN3r2p13is_identifierEPKcj, %function
 125              	_ZN3r2p13is_identifierEPKcj:
 126              	.LFB37:
 127              		.loc 1 22 0
 128              		.cfi_startproc
 129              		@ args = 0, pretend = 0, frame = 8
 130              		@ frame_needed = 0, uses_anonymous_args = 0
 131              		@ link register save eliminated.
 132 0000 82B0     		sub	sp, sp, #8
 133              		.cfi_def_cfa_offset 8
 134 0002 0190     		str	r0, [sp, #4]
 135 0004 0091     		str	r1, [sp]
 136              		.loc 1 24 0
 137 0006 019B     		ldr	r3, [sp, #4]
 138 0008 002B     		cmp	r3, #0
 139 000a 34D0     		beq	.L10
 140              		.loc 1 24 0 is_stmt 0 discriminator 1
 141 000c 019B     		ldr	r3, [sp, #4]
 142 000e 1B78     		ldrb	r3, [r3]	@ zero_extendqisi2
 143 0010 002B     		cmp	r3, #0
 144 0012 30D0     		beq	.L10
 145              		.loc 1 25 0 is_stmt 1
 146 0014 05E0     		b	.L11
 147              	.L14:
 148              		.loc 1 29 0
 149 0016 019B     		ldr	r3, [sp, #4]
 150 0018 0133     		adds	r3, r3, #1
 151 001a 0193     		str	r3, [sp, #4]
 152              		.loc 1 30 0
 153 001c 009B     		ldr	r3, [sp]
 154 001e 013B     		subs	r3, r3, #1
 155 0020 0093     		str	r3, [sp]
 156              	.L11:
 157              		.loc 1 25 0
 158 0022 009B     		ldr	r3, [sp]
 159 0024 002B     		cmp	r3, #0
 160 0026 1BD0     		beq	.L12
 161              		.loc 1 25 0 is_stmt 0 discriminator 1
 162 0028 019B     		ldr	r3, [sp, #4]
 163 002a 1B78     		ldrb	r3, [r3]	@ zero_extendqisi2
 164 002c 602B     		cmp	r3, #96
 165 002e 03D9     		bls	.L13
 166              		.loc 1 25 0 discriminator 2
 167 0030 019B     		ldr	r3, [sp, #4]
 168 0032 1B78     		ldrb	r3, [r3]	@ zero_extendqisi2
 169 0034 7A2B     		cmp	r3, #122
 170 0036 EED9     		bls	.L14
ARM GAS  /tmp/ccI7GV4j.s 			page 4


 171              	.L13:
 172              		.loc 1 26 0 is_stmt 1 discriminator 4
 173 0038 019B     		ldr	r3, [sp, #4]
 174 003a 1B78     		ldrb	r3, [r3]	@ zero_extendqisi2
 175              		.loc 1 25 0 discriminator 4
 176 003c 402B     		cmp	r3, #64
 177 003e 03D9     		bls	.L15
 178              		.loc 1 26 0
 179 0040 019B     		ldr	r3, [sp, #4]
 180 0042 1B78     		ldrb	r3, [r3]	@ zero_extendqisi2
 181 0044 5A2B     		cmp	r3, #90
 182 0046 E6D9     		bls	.L14
 183              	.L15:
 184              		.loc 1 27 0 discriminator 1
 185 0048 019B     		ldr	r3, [sp, #4]
 186 004a 1B78     		ldrb	r3, [r3]	@ zero_extendqisi2
 187              		.loc 1 26 0 discriminator 1
 188 004c 2F2B     		cmp	r3, #47
 189 004e 03D9     		bls	.L16
 190              		.loc 1 27 0
 191 0050 019B     		ldr	r3, [sp, #4]
 192 0052 1B78     		ldrb	r3, [r3]	@ zero_extendqisi2
 193 0054 392B     		cmp	r3, #57
 194 0056 DED9     		bls	.L14
 195              	.L16:
 196              		.loc 1 28 0 discriminator 1
 197 0058 019B     		ldr	r3, [sp, #4]
 198 005a 1B78     		ldrb	r3, [r3]	@ zero_extendqisi2
 199              		.loc 1 27 0 discriminator 1
 200 005c 5F2B     		cmp	r3, #95
 201 005e DAD0     		beq	.L14
 202              	.L12:
 203              		.loc 1 32 0
 204 0060 009B     		ldr	r3, [sp]
 205 0062 002B     		cmp	r3, #0
 206 0064 03D0     		beq	.L17
 207              		.loc 1 32 0 is_stmt 0 discriminator 2
 208 0066 019B     		ldr	r3, [sp, #4]
 209 0068 1B78     		ldrb	r3, [r3]	@ zero_extendqisi2
 210 006a 002B     		cmp	r3, #0
 211 006c 01D1     		bne	.L18
 212              	.L17:
 213              		.loc 1 32 0 discriminator 3
 214 006e 0123     		movs	r3, #1
 215 0070 02E0     		b	.L20
 216              	.L18:
 217              		.loc 1 32 0 discriminator 4
 218 0072 0023     		movs	r3, #0
 219 0074 00E0     		b	.L20
 220              	.L10:
 221              		.loc 1 34 0 is_stmt 1
 222 0076 0023     		movs	r3, #0
 223              	.L20:
 224              		.loc 1 35 0
 225 0078 1846     		mov	r0, r3
 226 007a 02B0     		add	sp, sp, #8
 227              		.cfi_def_cfa_offset 0
ARM GAS  /tmp/ccI7GV4j.s 			page 5


 228              		@ sp needed
 229 007c 7047     		bx	lr
 230              		.cfi_endproc
 231              	.LFE37:
 232              		.size	_ZN3r2p13is_identifierEPKcj, .-_ZN3r2p13is_identifierEPKcj
 233 007e 00BF     		.text
 234              	.Letext0:
 235              		.file 2 "/home/denny/r2p-sdk/tools/gcc-arm-none-eabi-4_9-2014q4/arm-none-eabi/include/c++/4.9.3/cs
 236              		.file 3 "/home/denny/r2p-sdk/tools/gcc-arm-none-eabi-4_9-2014q4/arm-none-eabi/include/string.h"
 237              		.file 4 "<built-in>"
 238              		.file 5 "/home/denny/r2p-sdk/core/Middleware/include/r2p/Uncopyable.hpp"
 239              		.file 6 "/home/denny/r2p-sdk/tools/gcc-arm-none-eabi-4_9-2014q4/lib/gcc/arm-none-eabi/4.9.3/includ
 240              		.section	.debug_info,"",%progbits
 241              	.Ldebug_info0:
 242 0000 B6010000 		.4byte	0x1b6
 243 0004 0400     		.2byte	0x4
 244 0006 00000000 		.4byte	.Ldebug_abbrev0
 245 000a 04       		.byte	0x4
 246 000b 01       		.uleb128 0x1
 247 000c E8000000 		.4byte	.LASF19
 248 0010 04       		.byte	0x4
 249 0011 9F000000 		.4byte	.LASF20
 250 0015 7C020000 		.4byte	.LASF21
 251 0019 00000000 		.4byte	.Ldebug_ranges0+0
 252 001d 00000000 		.4byte	0
 253 0021 00000000 		.4byte	.Ldebug_line0
 254 0025 02       		.uleb128 0x2
 255 0026 04       		.byte	0x4
 256 0027 05       		.byte	0x5
 257 0028 696E7400 		.ascii	"int\000"
 258 002c 03       		.uleb128 0x3
 259 002d 39000000 		.4byte	.LASF22
 260 0031 06       		.byte	0x6
 261 0032 D4       		.byte	0xd4
 262 0033 37000000 		.4byte	0x37
 263 0037 04       		.uleb128 0x4
 264 0038 04       		.byte	0x4
 265 0039 07       		.byte	0x7
 266 003a 21000000 		.4byte	.LASF0
 267 003e 04       		.uleb128 0x4
 268 003f 01       		.byte	0x1
 269 0040 06       		.byte	0x6
 270 0041 4E000000 		.4byte	.LASF1
 271 0045 04       		.uleb128 0x4
 272 0046 01       		.byte	0x1
 273 0047 08       		.byte	0x8
 274 0048 DA000000 		.4byte	.LASF2
 275 004c 04       		.uleb128 0x4
 276 004d 02       		.byte	0x2
 277 004e 05       		.byte	0x5
 278 004f 47020000 		.4byte	.LASF3
 279 0053 04       		.uleb128 0x4
 280 0054 02       		.byte	0x2
 281 0055 07       		.byte	0x7
 282 0056 0E000000 		.4byte	.LASF4
 283 005a 04       		.uleb128 0x4
 284 005b 04       		.byte	0x4
ARM GAS  /tmp/ccI7GV4j.s 			page 6


 285 005c 05       		.byte	0x5
 286 005d 6C020000 		.4byte	.LASF5
 287 0061 04       		.uleb128 0x4
 288 0062 04       		.byte	0x4
 289 0063 07       		.byte	0x7
 290 0064 5A000000 		.4byte	.LASF6
 291 0068 04       		.uleb128 0x4
 292 0069 08       		.byte	0x8
 293 006a 05       		.byte	0x5
 294 006b 00000000 		.4byte	.LASF7
 295 006f 04       		.uleb128 0x4
 296 0070 08       		.byte	0x8
 297 0071 07       		.byte	0x7
 298 0072 6C000000 		.4byte	.LASF8
 299 0076 04       		.uleb128 0x4
 300 0077 04       		.byte	0x4
 301 0078 07       		.byte	0x7
 302 0079 A8020000 		.4byte	.LASF9
 303 007d 05       		.uleb128 0x5
 304 007e 04       		.byte	0x4
 305 007f 83000000 		.4byte	0x83
 306 0083 04       		.uleb128 0x4
 307 0084 01       		.byte	0x1
 308 0085 08       		.byte	0x8
 309 0086 35020000 		.4byte	.LASF10
 310 008a 05       		.uleb128 0x5
 311 008b 04       		.byte	0x4
 312 008c 90000000 		.4byte	0x90
 313 0090 06       		.uleb128 0x6
 314 0091 83000000 		.4byte	0x83
 315 0095 07       		.uleb128 0x7
 316 0096 73746400 		.ascii	"std\000"
 317 009a 04       		.byte	0x4
 318 009b 00       		.byte	0
 319 009c BD000000 		.4byte	0xbd
 320 00a0 08       		.uleb128 0x8
 321 00a1 02       		.byte	0x2
 322 00a2 52       		.byte	0x52
 323 00a3 BD000000 		.4byte	0xbd
 324 00a7 08       		.uleb128 0x8
 325 00a8 02       		.byte	0x2
 326 00a9 55       		.byte	0x55
 327 00aa D7000000 		.4byte	0xd7
 328 00ae 08       		.uleb128 0x8
 329 00af 02       		.byte	0x2
 330 00b0 5B       		.byte	0x5b
 331 00b1 EC000000 		.4byte	0xec
 332 00b5 08       		.uleb128 0x8
 333 00b6 02       		.byte	0x2
 334 00b7 5C       		.byte	0x5c
 335 00b8 06010000 		.4byte	0x106
 336 00bc 00       		.byte	0
 337 00bd 09       		.uleb128 0x9
 338 00be A0020000 		.4byte	.LASF11
 339 00c2 03       		.byte	0x3
 340 00c3 1D       		.byte	0x1d
 341 00c4 25000000 		.4byte	0x25
ARM GAS  /tmp/ccI7GV4j.s 			page 7


 342 00c8 D7000000 		.4byte	0xd7
 343 00cc 0A       		.uleb128 0xa
 344 00cd 8A000000 		.4byte	0x8a
 345 00d1 0A       		.uleb128 0xa
 346 00d2 8A000000 		.4byte	0x8a
 347 00d6 00       		.byte	0
 348 00d7 09       		.uleb128 0x9
 349 00d8 D1000000 		.4byte	.LASF12
 350 00dc 03       		.byte	0x3
 351 00dd 20       		.byte	0x20
 352 00de 7D000000 		.4byte	0x7d
 353 00e2 EC000000 		.4byte	0xec
 354 00e6 0A       		.uleb128 0xa
 355 00e7 25000000 		.4byte	0x25
 356 00eb 00       		.byte	0
 357 00ec 09       		.uleb128 0x9
 358 00ed 75020000 		.4byte	.LASF13
 359 00f1 03       		.byte	0x3
 360 00f2 2A       		.byte	0x2a
 361 00f3 7D000000 		.4byte	0x7d
 362 00f7 06010000 		.4byte	0x106
 363 00fb 0A       		.uleb128 0xa
 364 00fc 7D000000 		.4byte	0x7d
 365 0100 0A       		.uleb128 0xa
 366 0101 8A000000 		.4byte	0x8a
 367 0105 00       		.byte	0
 368 0106 09       		.uleb128 0x9
 369 0107 3A020000 		.4byte	.LASF14
 370 010b 03       		.byte	0x3
 371 010c 2C       		.byte	0x2c
 372 010d 2C000000 		.4byte	0x2c
 373 0111 25010000 		.4byte	0x125
 374 0115 0A       		.uleb128 0xa
 375 0116 7D000000 		.4byte	0x7d
 376 011a 0A       		.uleb128 0xa
 377 011b 8A000000 		.4byte	0x8a
 378 011f 0A       		.uleb128 0xa
 379 0120 2C000000 		.4byte	0x2c
 380 0124 00       		.byte	0
 381 0125 07       		.uleb128 0x7
 382 0126 72327000 		.ascii	"r2p\000"
 383 012a 05       		.byte	0x5
 384 012b 03       		.byte	0x3
 385 012c 64010000 		.4byte	0x164
 386 0130 0B       		.uleb128 0xb
 387 0131 40000000 		.4byte	.LASF15
 388 0135 01       		.byte	0x1
 389 0136 07       		.byte	0x7
 390 0137 51020000 		.4byte	.LASF23
 391 013b 64010000 		.4byte	0x164
 392 013f 49010000 		.4byte	0x149
 393 0143 0A       		.uleb128 0xa
 394 0144 8A000000 		.4byte	0x8a
 395 0148 00       		.byte	0
 396 0149 0C       		.uleb128 0xc
 397 014a 40000000 		.4byte	.LASF15
 398 014e 01       		.byte	0x1
ARM GAS  /tmp/ccI7GV4j.s 			page 8


 399 014f 16       		.byte	0x16
 400 0150 83000000 		.4byte	.LASF24
 401 0154 64010000 		.4byte	0x164
 402 0158 0A       		.uleb128 0xa
 403 0159 8A000000 		.4byte	0x8a
 404 015d 0A       		.uleb128 0xa
 405 015e 2C000000 		.4byte	0x2c
 406 0162 00       		.byte	0
 407 0163 00       		.byte	0
 408 0164 04       		.uleb128 0x4
 409 0165 01       		.byte	0x1
 410 0166 02       		.byte	0x2
 411 0167 42020000 		.4byte	.LASF16
 412 016b 0D       		.uleb128 0xd
 413 016c 30010000 		.4byte	0x130
 414 0170 00000000 		.4byte	.LFB36
 415 0174 6A000000 		.4byte	.LFE36-.LFB36
 416 0178 01       		.uleb128 0x1
 417 0179 9C       		.byte	0x9c
 418 017a 8D010000 		.4byte	0x18d
 419 017e 0E       		.uleb128 0xe
 420 017f B1020000 		.4byte	.LASF17
 421 0183 01       		.byte	0x1
 422 0184 07       		.byte	0x7
 423 0185 8A000000 		.4byte	0x8a
 424 0189 02       		.uleb128 0x2
 425 018a 91       		.byte	0x91
 426 018b 7C       		.sleb128 -4
 427 018c 00       		.byte	0
 428 018d 0F       		.uleb128 0xf
 429 018e 49010000 		.4byte	0x149
 430 0192 00000000 		.4byte	.LFB37
 431 0196 7E000000 		.4byte	.LFE37-.LFB37
 432 019a 01       		.uleb128 0x1
 433 019b 9C       		.byte	0x9c
 434 019c 0E       		.uleb128 0xe
 435 019d B1020000 		.4byte	.LASF17
 436 01a1 01       		.byte	0x1
 437 01a2 16       		.byte	0x16
 438 01a3 8A000000 		.4byte	0x8a
 439 01a7 02       		.uleb128 0x2
 440 01a8 91       		.byte	0x91
 441 01a9 7C       		.sleb128 -4
 442 01aa 0E       		.uleb128 0xe
 443 01ab 2E000000 		.4byte	.LASF18
 444 01af 01       		.byte	0x1
 445 01b0 16       		.byte	0x16
 446 01b1 2C000000 		.4byte	0x2c
 447 01b5 02       		.uleb128 0x2
 448 01b6 91       		.byte	0x91
 449 01b7 78       		.sleb128 -8
 450 01b8 00       		.byte	0
 451 01b9 00       		.byte	0
 452              		.section	.debug_abbrev,"",%progbits
 453              	.Ldebug_abbrev0:
 454 0000 01       		.uleb128 0x1
 455 0001 11       		.uleb128 0x11
ARM GAS  /tmp/ccI7GV4j.s 			page 9


 456 0002 01       		.byte	0x1
 457 0003 25       		.uleb128 0x25
 458 0004 0E       		.uleb128 0xe
 459 0005 13       		.uleb128 0x13
 460 0006 0B       		.uleb128 0xb
 461 0007 03       		.uleb128 0x3
 462 0008 0E       		.uleb128 0xe
 463 0009 1B       		.uleb128 0x1b
 464 000a 0E       		.uleb128 0xe
 465 000b 55       		.uleb128 0x55
 466 000c 17       		.uleb128 0x17
 467 000d 11       		.uleb128 0x11
 468 000e 01       		.uleb128 0x1
 469 000f 10       		.uleb128 0x10
 470 0010 17       		.uleb128 0x17
 471 0011 00       		.byte	0
 472 0012 00       		.byte	0
 473 0013 02       		.uleb128 0x2
 474 0014 24       		.uleb128 0x24
 475 0015 00       		.byte	0
 476 0016 0B       		.uleb128 0xb
 477 0017 0B       		.uleb128 0xb
 478 0018 3E       		.uleb128 0x3e
 479 0019 0B       		.uleb128 0xb
 480 001a 03       		.uleb128 0x3
 481 001b 08       		.uleb128 0x8
 482 001c 00       		.byte	0
 483 001d 00       		.byte	0
 484 001e 03       		.uleb128 0x3
 485 001f 16       		.uleb128 0x16
 486 0020 00       		.byte	0
 487 0021 03       		.uleb128 0x3
 488 0022 0E       		.uleb128 0xe
 489 0023 3A       		.uleb128 0x3a
 490 0024 0B       		.uleb128 0xb
 491 0025 3B       		.uleb128 0x3b
 492 0026 0B       		.uleb128 0xb
 493 0027 49       		.uleb128 0x49
 494 0028 13       		.uleb128 0x13
 495 0029 00       		.byte	0
 496 002a 00       		.byte	0
 497 002b 04       		.uleb128 0x4
 498 002c 24       		.uleb128 0x24
 499 002d 00       		.byte	0
 500 002e 0B       		.uleb128 0xb
 501 002f 0B       		.uleb128 0xb
 502 0030 3E       		.uleb128 0x3e
 503 0031 0B       		.uleb128 0xb
 504 0032 03       		.uleb128 0x3
 505 0033 0E       		.uleb128 0xe
 506 0034 00       		.byte	0
 507 0035 00       		.byte	0
 508 0036 05       		.uleb128 0x5
 509 0037 0F       		.uleb128 0xf
 510 0038 00       		.byte	0
 511 0039 0B       		.uleb128 0xb
 512 003a 0B       		.uleb128 0xb
ARM GAS  /tmp/ccI7GV4j.s 			page 10


 513 003b 49       		.uleb128 0x49
 514 003c 13       		.uleb128 0x13
 515 003d 00       		.byte	0
 516 003e 00       		.byte	0
 517 003f 06       		.uleb128 0x6
 518 0040 26       		.uleb128 0x26
 519 0041 00       		.byte	0
 520 0042 49       		.uleb128 0x49
 521 0043 13       		.uleb128 0x13
 522 0044 00       		.byte	0
 523 0045 00       		.byte	0
 524 0046 07       		.uleb128 0x7
 525 0047 39       		.uleb128 0x39
 526 0048 01       		.byte	0x1
 527 0049 03       		.uleb128 0x3
 528 004a 08       		.uleb128 0x8
 529 004b 3A       		.uleb128 0x3a
 530 004c 0B       		.uleb128 0xb
 531 004d 3B       		.uleb128 0x3b
 532 004e 0B       		.uleb128 0xb
 533 004f 01       		.uleb128 0x1
 534 0050 13       		.uleb128 0x13
 535 0051 00       		.byte	0
 536 0052 00       		.byte	0
 537 0053 08       		.uleb128 0x8
 538 0054 08       		.uleb128 0x8
 539 0055 00       		.byte	0
 540 0056 3A       		.uleb128 0x3a
 541 0057 0B       		.uleb128 0xb
 542 0058 3B       		.uleb128 0x3b
 543 0059 0B       		.uleb128 0xb
 544 005a 18       		.uleb128 0x18
 545 005b 13       		.uleb128 0x13
 546 005c 00       		.byte	0
 547 005d 00       		.byte	0
 548 005e 09       		.uleb128 0x9
 549 005f 2E       		.uleb128 0x2e
 550 0060 01       		.byte	0x1
 551 0061 3F       		.uleb128 0x3f
 552 0062 19       		.uleb128 0x19
 553 0063 03       		.uleb128 0x3
 554 0064 0E       		.uleb128 0xe
 555 0065 3A       		.uleb128 0x3a
 556 0066 0B       		.uleb128 0xb
 557 0067 3B       		.uleb128 0x3b
 558 0068 0B       		.uleb128 0xb
 559 0069 49       		.uleb128 0x49
 560 006a 13       		.uleb128 0x13
 561 006b 3C       		.uleb128 0x3c
 562 006c 19       		.uleb128 0x19
 563 006d 01       		.uleb128 0x1
 564 006e 13       		.uleb128 0x13
 565 006f 00       		.byte	0
 566 0070 00       		.byte	0
 567 0071 0A       		.uleb128 0xa
 568 0072 05       		.uleb128 0x5
 569 0073 00       		.byte	0
ARM GAS  /tmp/ccI7GV4j.s 			page 11


 570 0074 49       		.uleb128 0x49
 571 0075 13       		.uleb128 0x13
 572 0076 00       		.byte	0
 573 0077 00       		.byte	0
 574 0078 0B       		.uleb128 0xb
 575 0079 2E       		.uleb128 0x2e
 576 007a 01       		.byte	0x1
 577 007b 3F       		.uleb128 0x3f
 578 007c 19       		.uleb128 0x19
 579 007d 03       		.uleb128 0x3
 580 007e 0E       		.uleb128 0xe
 581 007f 3A       		.uleb128 0x3a
 582 0080 0B       		.uleb128 0xb
 583 0081 3B       		.uleb128 0x3b
 584 0082 0B       		.uleb128 0xb
 585 0083 6E       		.uleb128 0x6e
 586 0084 0E       		.uleb128 0xe
 587 0085 49       		.uleb128 0x49
 588 0086 13       		.uleb128 0x13
 589 0087 3C       		.uleb128 0x3c
 590 0088 19       		.uleb128 0x19
 591 0089 01       		.uleb128 0x1
 592 008a 13       		.uleb128 0x13
 593 008b 00       		.byte	0
 594 008c 00       		.byte	0
 595 008d 0C       		.uleb128 0xc
 596 008e 2E       		.uleb128 0x2e
 597 008f 01       		.byte	0x1
 598 0090 3F       		.uleb128 0x3f
 599 0091 19       		.uleb128 0x19
 600 0092 03       		.uleb128 0x3
 601 0093 0E       		.uleb128 0xe
 602 0094 3A       		.uleb128 0x3a
 603 0095 0B       		.uleb128 0xb
 604 0096 3B       		.uleb128 0x3b
 605 0097 0B       		.uleb128 0xb
 606 0098 6E       		.uleb128 0x6e
 607 0099 0E       		.uleb128 0xe
 608 009a 49       		.uleb128 0x49
 609 009b 13       		.uleb128 0x13
 610 009c 3C       		.uleb128 0x3c
 611 009d 19       		.uleb128 0x19
 612 009e 00       		.byte	0
 613 009f 00       		.byte	0
 614 00a0 0D       		.uleb128 0xd
 615 00a1 2E       		.uleb128 0x2e
 616 00a2 01       		.byte	0x1
 617 00a3 47       		.uleb128 0x47
 618 00a4 13       		.uleb128 0x13
 619 00a5 11       		.uleb128 0x11
 620 00a6 01       		.uleb128 0x1
 621 00a7 12       		.uleb128 0x12
 622 00a8 06       		.uleb128 0x6
 623 00a9 40       		.uleb128 0x40
 624 00aa 18       		.uleb128 0x18
 625 00ab 9742     		.uleb128 0x2117
 626 00ad 19       		.uleb128 0x19
ARM GAS  /tmp/ccI7GV4j.s 			page 12


 627 00ae 01       		.uleb128 0x1
 628 00af 13       		.uleb128 0x13
 629 00b0 00       		.byte	0
 630 00b1 00       		.byte	0
 631 00b2 0E       		.uleb128 0xe
 632 00b3 05       		.uleb128 0x5
 633 00b4 00       		.byte	0
 634 00b5 03       		.uleb128 0x3
 635 00b6 0E       		.uleb128 0xe
 636 00b7 3A       		.uleb128 0x3a
 637 00b8 0B       		.uleb128 0xb
 638 00b9 3B       		.uleb128 0x3b
 639 00ba 0B       		.uleb128 0xb
 640 00bb 49       		.uleb128 0x49
 641 00bc 13       		.uleb128 0x13
 642 00bd 02       		.uleb128 0x2
 643 00be 18       		.uleb128 0x18
 644 00bf 00       		.byte	0
 645 00c0 00       		.byte	0
 646 00c1 0F       		.uleb128 0xf
 647 00c2 2E       		.uleb128 0x2e
 648 00c3 01       		.byte	0x1
 649 00c4 47       		.uleb128 0x47
 650 00c5 13       		.uleb128 0x13
 651 00c6 11       		.uleb128 0x11
 652 00c7 01       		.uleb128 0x1
 653 00c8 12       		.uleb128 0x12
 654 00c9 06       		.uleb128 0x6
 655 00ca 40       		.uleb128 0x40
 656 00cb 18       		.uleb128 0x18
 657 00cc 9742     		.uleb128 0x2117
 658 00ce 19       		.uleb128 0x19
 659 00cf 00       		.byte	0
 660 00d0 00       		.byte	0
 661 00d1 00       		.byte	0
 662              		.section	.debug_aranges,"",%progbits
 663 0000 24000000 		.4byte	0x24
 664 0004 0200     		.2byte	0x2
 665 0006 00000000 		.4byte	.Ldebug_info0
 666 000a 04       		.byte	0x4
 667 000b 00       		.byte	0
 668 000c 0000     		.2byte	0
 669 000e 0000     		.2byte	0
 670 0010 00000000 		.4byte	.LFB36
 671 0014 6A000000 		.4byte	.LFE36-.LFB36
 672 0018 00000000 		.4byte	.LFB37
 673 001c 7E000000 		.4byte	.LFE37-.LFB37
 674 0020 00000000 		.4byte	0
 675 0024 00000000 		.4byte	0
 676              		.section	.debug_ranges,"",%progbits
 677              	.Ldebug_ranges0:
 678 0000 00000000 		.4byte	.LFB36
 679 0004 6A000000 		.4byte	.LFE36
 680 0008 00000000 		.4byte	.LFB37
 681 000c 7E000000 		.4byte	.LFE37
 682 0010 00000000 		.4byte	0
 683 0014 00000000 		.4byte	0
ARM GAS  /tmp/ccI7GV4j.s 			page 13


 684              		.section	.debug_line,"",%progbits
 685              	.Ldebug_line0:
 686 0000 5D020000 		.section	.debug_str,"MS",%progbits,1
 686      0200BA01 
 686      00000201 
 686      FB0E0D00 
 686      01010101 
 687              	.LASF7:
 688 0000 6C6F6E67 		.ascii	"long long int\000"
 688      206C6F6E 
 688      6720696E 
 688      7400
 689              	.LASF4:
 690 000e 73686F72 		.ascii	"short unsigned int\000"
 690      7420756E 
 690      7369676E 
 690      65642069 
 690      6E7400
 691              	.LASF0:
 692 0021 756E7369 		.ascii	"unsigned int\000"
 692      676E6564 
 692      20696E74 
 692      00
 693              	.LASF18:
 694 002e 6D61785F 		.ascii	"max_length\000"
 694      6C656E67 
 694      746800
 695              	.LASF22:
 696 0039 73697A65 		.ascii	"size_t\000"
 696      5F7400
 697              	.LASF15:
 698 0040 69735F69 		.ascii	"is_identifier\000"
 698      64656E74 
 698      69666965 
 698      7200
 699              	.LASF1:
 700 004e 7369676E 		.ascii	"signed char\000"
 700      65642063 
 700      68617200 
 701              	.LASF6:
 702 005a 6C6F6E67 		.ascii	"long unsigned int\000"
 702      20756E73 
 702      69676E65 
 702      6420696E 
 702      7400
 703              	.LASF8:
 704 006c 6C6F6E67 		.ascii	"long long unsigned int\000"
 704      206C6F6E 
 704      6720756E 
 704      7369676E 
 704      65642069 
 705              	.LASF24:
 706 0083 5F5A4E33 		.ascii	"_ZN3r2p13is_identifierEPKcj\000"
 706      72327031 
 706      3369735F 
 706      6964656E 
 706      74696669 
ARM GAS  /tmp/ccI7GV4j.s 			page 14


 707              	.LASF20:
 708 009f 2F686F6D 		.ascii	"/home/denny/r2p-sdk/core/Middleware/src/Utils.cpp\000"
 708      652F6465 
 708      6E6E792F 
 708      7232702D 
 708      73646B2F 
 709              	.LASF12:
 710 00d1 73747265 		.ascii	"strerror\000"
 710      72726F72 
 710      00
 711              	.LASF2:
 712 00da 756E7369 		.ascii	"unsigned char\000"
 712      676E6564 
 712      20636861 
 712      7200
 713              	.LASF19:
 714 00e8 474E5520 		.ascii	"GNU C++ 4.9.3 20141119 (release) [ARM/embedded-4_9-"
 714      432B2B20 
 714      342E392E 
 714      33203230 
 714      31343131 
 715 011b 6272616E 		.ascii	"branch revision 218278] -mcpu=cortex-m4 -mfloat-abi"
 715      63682072 
 715      65766973 
 715      696F6E20 
 715      32313832 
 716 014e 3D686172 		.ascii	"=hard -mfpu=fpv4-sp-d16 -mno-thumb-interwork -mthum"
 716      64202D6D 
 716      6670753D 
 716      66707634 
 716      2D73702D 
 717 0181 62202D67 		.ascii	"b -ggdb -O0 -fomit-frame-pointer -falign-functions="
 717      67646220 
 717      2D4F3020 
 717      2D666F6D 
 717      69742D66 
 718 01b4 3136202D 		.ascii	"16 -ffunction-sections -fdata-sections -fno-common "
 718      6666756E 
 718      6374696F 
 718      6E2D7365 
 718      6374696F 
 719 01e7 2D667369 		.ascii	"-fsingle-precision-constant -fno-rtti -fno-exceptio"
 719      6E676C65 
 719      2D707265 
 719      63697369 
 719      6F6E2D63 
 720 021a 6E73202D 		.ascii	"ns -fno-threadsafe-statics\000"
 720      666E6F2D 
 720      74687265 
 720      61647361 
 720      66652D73 
 721              	.LASF10:
 722 0235 63686172 		.ascii	"char\000"
 722      00
 723              	.LASF14:
 724 023a 73747278 		.ascii	"strxfrm\000"
 724      66726D00 
ARM GAS  /tmp/ccI7GV4j.s 			page 15


 725              	.LASF16:
 726 0242 626F6F6C 		.ascii	"bool\000"
 726      00
 727              	.LASF3:
 728 0247 73686F72 		.ascii	"short int\000"
 728      7420696E 
 728      7400
 729              	.LASF23:
 730 0251 5F5A4E33 		.ascii	"_ZN3r2p13is_identifierEPKc\000"
 730      72327031 
 730      3369735F 
 730      6964656E 
 730      74696669 
 731              	.LASF5:
 732 026c 6C6F6E67 		.ascii	"long int\000"
 732      20696E74 
 732      00
 733              	.LASF13:
 734 0275 73747274 		.ascii	"strtok\000"
 734      6F6B00
 735              	.LASF21:
 736 027c 2F686F6D 		.ascii	"/home/denny/git/TriskarPixy/motor0/\000"
 736      652F6465 
 736      6E6E792F 
 736      6769742F 
 736      54726973 
 737              	.LASF11:
 738 02a0 73747263 		.ascii	"strcoll\000"
 738      6F6C6C00 
 739              	.LASF9:
 740 02a8 73697A65 		.ascii	"sizetype\000"
 740      74797065 
 740      00
 741              	.LASF17:
 742 02b1 6E616D65 		.ascii	"namep\000"
 742      7000
 743              		.ident	"GCC: (GNU Tools for ARM Embedded Processors) 4.9.3 20141119 (release) [ARM/embedded-4_9-br
ARM GAS  /tmp/ccI7GV4j.s 			page 16


DEFINED SYMBOLS
                            *ABS*:00000000 Utils.cpp
     /tmp/ccI7GV4j.s:21     .text._ZN3r2p13is_identifierEPKc:00000000 $t
     /tmp/ccI7GV4j.s:27     .text._ZN3r2p13is_identifierEPKc:00000000 _ZN3r2p13is_identifierEPKc
     /tmp/ccI7GV4j.s:119    .text._ZN3r2p13is_identifierEPKcj:00000000 $t
     /tmp/ccI7GV4j.s:125    .text._ZN3r2p13is_identifierEPKcj:00000000 _ZN3r2p13is_identifierEPKcj
                     .debug_frame:00000010 $d

NO UNDEFINED SYMBOLS
