ARM GAS  /tmp/cc9dhpUe.s 			page 1


   1              		.syntax unified
   2              		.cpu cortex-m4
   3              		.eabi_attribute 27, 3
   4              		.eabi_attribute 28, 1
   5              		.fpu fpv4-sp-d16
   6              		.eabi_attribute 20, 1
   7              		.eabi_attribute 21, 1
   8              		.eabi_attribute 23, 3
   9              		.eabi_attribute 24, 1
  10              		.eabi_attribute 25, 1
  11              		.eabi_attribute 26, 1
  12              		.eabi_attribute 30, 6
  13              		.eabi_attribute 34, 1
  14              		.eabi_attribute 18, 4
  15              		.thumb
  16              		.file	"BasePublisher.cpp"
  17              		.text
  18              	.Ltext0:
  19              		.cfi_sections	.debug_frame
  20              		.section	.text._ZN3r2p10UncopyableC2Ev,"axG",%progbits,_ZN3r2p10UncopyableC5Ev,comdat
  21              		.align	2
  22              		.p2align 4,,15
  23              		.weak	_ZN3r2p10UncopyableC2Ev
  24              		.thumb
  25              		.thumb_func
  26              		.type	_ZN3r2p10UncopyableC2Ev, %function
  27              	_ZN3r2p10UncopyableC2Ev:
  28              	.LFB6:
  29              		.file 1 "/home/denny/r2p-sdk/core/Middleware/include/r2p/Uncopyable.hpp"
  30              		.loc 1 20 0
  31              		.cfi_startproc
  32              		@ args = 0, pretend = 0, frame = 8
  33              		@ frame_needed = 0, uses_anonymous_args = 0
  34              		@ link register save eliminated.
  35 0000 82B0     		sub	sp, sp, #8
  36              		.cfi_def_cfa_offset 8
  37 0002 0190     		str	r0, [sp, #4]
  38              		.loc 1 20 0
  39 0004 019B     		ldr	r3, [sp, #4]
  40 0006 1846     		mov	r0, r3
  41 0008 02B0     		add	sp, sp, #8
  42              		.cfi_def_cfa_offset 0
  43              		@ sp needed
  44 000a 7047     		bx	lr
  45              		.cfi_endproc
  46              	.LFE6:
  47              		.size	_ZN3r2p10UncopyableC2Ev, .-_ZN3r2p10UncopyableC2Ev
  48              		.weak	_ZN3r2p10UncopyableC1Ev
  49              		.thumb_set _ZN3r2p10UncopyableC1Ev,_ZN3r2p10UncopyableC2Ev
  50 000c AFF30080 		.section	.text._ZN3r2p10UncopyableD2Ev,"axG",%progbits,_ZN3r2p10UncopyableD5Ev,comdat
  51              		.align	2
  52              		.p2align 4,,15
  53              		.weak	_ZN3r2p10UncopyableD2Ev
  54              		.thumb
  55              		.thumb_func
  56              		.type	_ZN3r2p10UncopyableD2Ev, %function
  57              	_ZN3r2p10UncopyableD2Ev:
ARM GAS  /tmp/cc9dhpUe.s 			page 2


  58              	.LFB9:
  59              		.loc 1 21 0
  60              		.cfi_startproc
  61              		@ args = 0, pretend = 0, frame = 8
  62              		@ frame_needed = 0, uses_anonymous_args = 0
  63              		@ link register save eliminated.
  64 0000 82B0     		sub	sp, sp, #8
  65              		.cfi_def_cfa_offset 8
  66 0002 0190     		str	r0, [sp, #4]
  67              		.loc 1 21 0
  68 0004 019B     		ldr	r3, [sp, #4]
  69 0006 1846     		mov	r0, r3
  70 0008 02B0     		add	sp, sp, #8
  71              		.cfi_def_cfa_offset 0
  72              		@ sp needed
  73 000a 7047     		bx	lr
  74              		.cfi_endproc
  75              	.LFE9:
  76              		.size	_ZN3r2p10UncopyableD2Ev, .-_ZN3r2p10UncopyableD2Ev
  77              		.weak	_ZN3r2p10UncopyableD1Ev
  78              		.thumb_set _ZN3r2p10UncopyableD1Ev,_ZN3r2p10UncopyableD2Ev
  79 000c AFF30080 		.section	.rodata
  80              		.align	2
  81              	.LC0:
  82 0000 5232505F 		.ascii	"R2P_ASSERT()\000"
  82      41535345 
  82      52542829 
  82      00
  83 000d 000000   		.section	.text._ZN3r2p7Message14acquire_unsafeEv,"axG",%progbits,_ZN3r2p7Message14acquire_unsafeEv
  84              		.align	2
  85              		.p2align 4,,15
  86              		.weak	_ZN3r2p7Message14acquire_unsafeEv
  87              		.thumb
  88              		.thumb_func
  89              		.type	_ZN3r2p7Message14acquire_unsafeEv, %function
  90              	_ZN3r2p7Message14acquire_unsafeEv:
  91              	.LFB38:
  92              		.file 2 "/home/denny/r2p-sdk/core/Middleware/include/r2p/Message.hpp"
  93              		.loc 2 104 0
  94              		.cfi_startproc
  95              		@ args = 0, pretend = 0, frame = 8
  96              		@ frame_needed = 0, uses_anonymous_args = 0
  97 0000 00B5     		push	{lr}
  98              		.cfi_def_cfa_offset 4
  99              		.cfi_offset 14, -4
 100 0002 83B0     		sub	sp, sp, #12
 101              		.cfi_def_cfa_offset 16
 102 0004 0190     		str	r0, [sp, #4]
 103              		.loc 2 106 0
 104 0006 019B     		ldr	r3, [sp, #4]
 105 0008 1B88     		ldrh	r3, [r3]	@ unaligned
 106 000a 9BB2     		uxth	r3, r3
 107 000c 1A46     		mov	r2, r3
 108 000e 1023     		movs	r3, #16
 109 0010 013B     		subs	r3, r3, #1
 110 0012 1946     		mov	r1, r3
 111 0014 0123     		movs	r3, #1
ARM GAS  /tmp/cc9dhpUe.s 			page 3


 112 0016 8B40     		lsls	r3, r3, r1
 113 0018 013B     		subs	r3, r3, #1
 114 001a 9A42     		cmp	r2, r3
 115 001c 02DB     		blt	.L8
 116              		.loc 2 106 0 is_stmt 0 discriminator 1
 117 001e 0648     		ldr	r0, .L9
 118 0020 FFF7FEFF 		bl	chDbgPanic
 119              	.L8:
 120              		.loc 2 108 0 is_stmt 1
 121 0024 019B     		ldr	r3, [sp, #4]
 122 0026 1B88     		ldrh	r3, [r3]	@ unaligned
 123 0028 9BB2     		uxth	r3, r3
 124 002a 0133     		adds	r3, r3, #1
 125 002c 9AB2     		uxth	r2, r3
 126 002e 019B     		ldr	r3, [sp, #4]
 127 0030 1A80     		strh	r2, [r3]	@ unaligned
 128              		.loc 2 109 0
 129 0032 03B0     		add	sp, sp, #12
 130              		.cfi_def_cfa_offset 4
 131              		@ sp needed
 132 0034 5DF804FB 		ldr	pc, [sp], #4
 133              	.L10:
 134              		.align	2
 135              	.L9:
 136 0038 00000000 		.word	.LC0
 137              		.cfi_endproc
 138              	.LFE38:
 139              		.size	_ZN3r2p7Message14acquire_unsafeEv, .-_ZN3r2p7Message14acquire_unsafeEv
 140 003c AFF30080 		.section	.text._ZN3r2p7Message14release_unsafeEv,"axG",%progbits,_ZN3r2p7Message14release_unsafeEv
 141              		.align	2
 142              		.p2align 4,,15
 143              		.weak	_ZN3r2p7Message14release_unsafeEv
 144              		.thumb
 145              		.thumb_func
 146              		.type	_ZN3r2p7Message14release_unsafeEv, %function
 147              	_ZN3r2p7Message14release_unsafeEv:
 148              	.LFB39:
 149              		.loc 2 113 0
 150              		.cfi_startproc
 151              		@ args = 0, pretend = 0, frame = 8
 152              		@ frame_needed = 0, uses_anonymous_args = 0
 153 0000 00B5     		push	{lr}
 154              		.cfi_def_cfa_offset 4
 155              		.cfi_offset 14, -4
 156 0002 83B0     		sub	sp, sp, #12
 157              		.cfi_def_cfa_offset 16
 158 0004 0190     		str	r0, [sp, #4]
 159              		.loc 2 115 0
 160 0006 019B     		ldr	r3, [sp, #4]
 161 0008 1B88     		ldrh	r3, [r3]	@ unaligned
 162 000a 9BB2     		uxth	r3, r3
 163 000c 002B     		cmp	r3, #0
 164 000e 02D1     		bne	.L12
 165              		.loc 2 115 0 is_stmt 0 discriminator 1
 166 0010 0A48     		ldr	r0, .L14
 167 0012 FFF7FEFF 		bl	chDbgPanic
 168              	.L12:
ARM GAS  /tmp/cc9dhpUe.s 			page 4


 169              		.loc 2 117 0 is_stmt 1
 170 0016 019B     		ldr	r3, [sp, #4]
 171 0018 1B88     		ldrh	r3, [r3]	@ unaligned
 172 001a 9BB2     		uxth	r3, r3
 173 001c 013B     		subs	r3, r3, #1
 174 001e 9AB2     		uxth	r2, r3
 175 0020 019B     		ldr	r3, [sp, #4]
 176 0022 1A80     		strh	r2, [r3]	@ unaligned
 177 0024 019B     		ldr	r3, [sp, #4]
 178 0026 1B88     		ldrh	r3, [r3]	@ unaligned
 179 0028 9BB2     		uxth	r3, r3
 180 002a 002B     		cmp	r3, #0
 181 002c 14BF     		ite	ne
 182 002e 0123     		movne	r3, #1
 183 0030 0023     		moveq	r3, #0
 184 0032 DBB2     		uxtb	r3, r3
 185              		.loc 2 118 0
 186 0034 1846     		mov	r0, r3
 187 0036 03B0     		add	sp, sp, #12
 188              		.cfi_def_cfa_offset 4
 189              		@ sp needed
 190 0038 5DF804FB 		ldr	pc, [sp], #4
 191              	.L15:
 192              		.align	2
 193              	.L14:
 194 003c 00000000 		.word	.LC0
 195              		.cfi_endproc
 196              	.LFE39:
 197              		.size	_ZN3r2p7Message14release_unsafeEv, .-_ZN3r2p7Message14release_unsafeEv
 198              		.section	.text._ZN3r2p11MemoryPool_11free_unsafeEPv,"axG",%progbits,_ZN3r2p11MemoryPool_11free_uns
 199              		.align	2
 200              		.p2align 4,,15
 201              		.weak	_ZN3r2p11MemoryPool_11free_unsafeEPv
 202              		.thumb
 203              		.thumb_func
 204              		.type	_ZN3r2p11MemoryPool_11free_unsafeEPv, %function
 205              	_ZN3r2p11MemoryPool_11free_unsafeEPv:
 206              	.LFB52:
 207              		.file 3 "/home/denny/r2p-sdk/core/Middleware/port/chibios/include/r2p/impl/MemoryPool_.hpp"
 208              		.loc 3 60 0
 209              		.cfi_startproc
 210              		@ args = 0, pretend = 0, frame = 8
 211              		@ frame_needed = 0, uses_anonymous_args = 0
 212 0000 00B5     		push	{lr}
 213              		.cfi_def_cfa_offset 4
 214              		.cfi_offset 14, -4
 215 0002 83B0     		sub	sp, sp, #12
 216              		.cfi_def_cfa_offset 16
 217 0004 0190     		str	r0, [sp, #4]
 218 0006 0091     		str	r1, [sp]
 219              		.loc 3 62 0
 220 0008 009B     		ldr	r3, [sp]
 221 000a 002B     		cmp	r3, #0
 222 000c 04D0     		beq	.L16
 223              		.loc 3 63 0
 224 000e 019B     		ldr	r3, [sp, #4]
 225 0010 1846     		mov	r0, r3
ARM GAS  /tmp/cc9dhpUe.s 			page 5


 226 0012 0099     		ldr	r1, [sp]
 227 0014 FFF7FEFF 		bl	chPoolFreeI
 228              	.L16:
 229              		.loc 3 65 0
 230 0018 03B0     		add	sp, sp, #12
 231              		.cfi_def_cfa_offset 4
 232              		@ sp needed
 233 001a 5DF804FB 		ldr	pc, [sp], #4
 234              		.cfi_endproc
 235              	.LFE52:
 236              		.size	_ZN3r2p11MemoryPool_11free_unsafeEPv, .-_ZN3r2p11MemoryPool_11free_unsafeEPv
 237 001e 00BF     		.section	.text._ZN3r2p11MemoryPool_4freeEPv,"axG",%progbits,_ZN3r2p11MemoryPool_4freeEPv,comdat
 238              		.align	2
 239              		.p2align 4,,15
 240              		.weak	_ZN3r2p11MemoryPool_4freeEPv
 241              		.thumb
 242              		.thumb_func
 243              		.type	_ZN3r2p11MemoryPool_4freeEPv, %function
 244              	_ZN3r2p11MemoryPool_4freeEPv:
 245              	.LFB54:
 246              		.loc 3 76 0
 247              		.cfi_startproc
 248              		@ args = 0, pretend = 0, frame = 8
 249              		@ frame_needed = 0, uses_anonymous_args = 0
 250 0000 00B5     		push	{lr}
 251              		.cfi_def_cfa_offset 4
 252              		.cfi_offset 14, -4
 253 0002 83B0     		sub	sp, sp, #12
 254              		.cfi_def_cfa_offset 16
 255 0004 0190     		str	r0, [sp, #4]
 256 0006 0091     		str	r1, [sp]
 257              		.loc 3 78 0
 258 0008 009B     		ldr	r3, [sp]
 259 000a 002B     		cmp	r3, #0
 260 000c 04D0     		beq	.L18
 261              		.loc 3 79 0
 262 000e 019B     		ldr	r3, [sp, #4]
 263 0010 1846     		mov	r0, r3
 264 0012 0099     		ldr	r1, [sp]
 265 0014 FFF7FEFF 		bl	chPoolFree
 266              	.L18:
 267              		.loc 3 81 0
 268 0018 03B0     		add	sp, sp, #12
 269              		.cfi_def_cfa_offset 4
 270              		@ sp needed
 271 001a 5DF804FB 		ldr	pc, [sp], #4
 272              		.cfi_endproc
 273              	.LFE54:
 274              		.size	_ZN3r2p11MemoryPool_4freeEPv, .-_ZN3r2p11MemoryPool_4freeEPv
 275 001e 00BF     		.section	.text._ZN3r2p5Topic11free_unsafeERNS_7MessageE,"axG",%progbits,_ZN3r2p5Topic11free_unsafe
 276              		.align	2
 277              		.p2align 4,,15
 278              		.weak	_ZN3r2p5Topic11free_unsafeERNS_7MessageE
 279              		.thumb
 280              		.thumb_func
 281              		.type	_ZN3r2p5Topic11free_unsafeERNS_7MessageE, %function
 282              	_ZN3r2p5Topic11free_unsafeERNS_7MessageE:
ARM GAS  /tmp/cc9dhpUe.s 			page 6


 283              	.LFB297:
 284              		.file 4 "/home/denny/r2p-sdk/core/Middleware/include/r2p/Topic.hpp"
 285              		.loc 4 281 0
 286              		.cfi_startproc
 287              		@ args = 0, pretend = 0, frame = 8
 288              		@ frame_needed = 0, uses_anonymous_args = 0
 289 0000 00B5     		push	{lr}
 290              		.cfi_def_cfa_offset 4
 291              		.cfi_offset 14, -4
 292 0002 83B0     		sub	sp, sp, #12
 293              		.cfi_def_cfa_offset 16
 294 0004 0190     		str	r0, [sp, #4]
 295 0006 0091     		str	r1, [sp]
 296              		.loc 4 283 0
 297 0008 019B     		ldr	r3, [sp, #4]
 298 000a 0833     		adds	r3, r3, #8
 299 000c 1846     		mov	r0, r3
 300 000e 0099     		ldr	r1, [sp]
 301 0010 FFF7FEFF 		bl	_ZN3r2p11MemoryPool_11free_unsafeEPv
 302              		.loc 4 284 0
 303 0014 03B0     		add	sp, sp, #12
 304              		.cfi_def_cfa_offset 4
 305              		@ sp needed
 306 0016 5DF804FB 		ldr	pc, [sp], #4
 307              		.cfi_endproc
 308              	.LFE297:
 309              		.size	_ZN3r2p5Topic11free_unsafeERNS_7MessageE, .-_ZN3r2p5Topic11free_unsafeERNS_7MessageE
 310 001a 00BFAFF3 		.section	.text._ZN3r2p5Topic4freeERNS_7MessageE,"axG",%progbits,_ZN3r2p5Topic4freeERNS_7MessageE,c
 310      0080
 311              		.align	2
 312              		.p2align 4,,15
 313              		.weak	_ZN3r2p5Topic4freeERNS_7MessageE
 314              		.thumb
 315              		.thumb_func
 316              		.type	_ZN3r2p5Topic4freeERNS_7MessageE, %function
 317              	_ZN3r2p5Topic4freeERNS_7MessageE:
 318              	.LFB302:
 319              		.loc 4 323 0
 320              		.cfi_startproc
 321              		@ args = 0, pretend = 0, frame = 8
 322              		@ frame_needed = 0, uses_anonymous_args = 0
 323 0000 00B5     		push	{lr}
 324              		.cfi_def_cfa_offset 4
 325              		.cfi_offset 14, -4
 326 0002 83B0     		sub	sp, sp, #12
 327              		.cfi_def_cfa_offset 16
 328 0004 0190     		str	r0, [sp, #4]
 329 0006 0091     		str	r1, [sp]
 330              		.loc 4 325 0
 331 0008 019B     		ldr	r3, [sp, #4]
 332 000a 0833     		adds	r3, r3, #8
 333 000c 1846     		mov	r0, r3
 334 000e 0099     		ldr	r1, [sp]
 335 0010 FFF7FEFF 		bl	_ZN3r2p11MemoryPool_4freeEPv
 336              		.loc 4 326 0
 337 0014 03B0     		add	sp, sp, #12
 338              		.cfi_def_cfa_offset 4
ARM GAS  /tmp/cc9dhpUe.s 			page 7


 339              		@ sp needed
 340 0016 5DF804FB 		ldr	pc, [sp], #4
 341              		.cfi_endproc
 342              	.LFE302:
 343              		.size	_ZN3r2p5Topic4freeERNS_7MessageE, .-_ZN3r2p5Topic4freeERNS_7MessageE
 344 001a 00BFAFF3 		.section	.text._ZN3r2p13BasePublisher14publish_unsafeERNS_7MessageE,"ax",%progbits
 344      0080
 345              		.align	2
 346              		.p2align 4,,15
 347              		.global	_ZN3r2p13BasePublisher14publish_unsafeERNS_7MessageE
 348              		.thumb
 349              		.thumb_func
 350              		.type	_ZN3r2p13BasePublisher14publish_unsafeERNS_7MessageE, %function
 351              	_ZN3r2p13BasePublisher14publish_unsafeERNS_7MessageE:
 352              	.LFB324:
 353              		.file 5 "/home/denny/r2p-sdk/core/Middleware/src/BasePublisher.cpp"
 354              		.loc 5 9 0
 355              		.cfi_startproc
 356              		@ args = 0, pretend = 0, frame = 16
 357              		@ frame_needed = 0, uses_anonymous_args = 0
 358 0000 00B5     		push	{lr}
 359              		.cfi_def_cfa_offset 4
 360              		.cfi_offset 14, -4
 361 0002 85B0     		sub	sp, sp, #20
 362              		.cfi_def_cfa_offset 24
 363 0004 0190     		str	r0, [sp, #4]
 364 0006 0091     		str	r1, [sp]
 365              	.LBB2:
 366              		.loc 5 11 0
 367 0008 019B     		ldr	r3, [sp, #4]
 368 000a 5B68     		ldr	r3, [r3, #4]
 369 000c 002B     		cmp	r3, #0
 370 000e 02D1     		bne	.L23
 371              		.loc 5 11 0 is_stmt 0 discriminator 1
 372 0010 1E48     		ldr	r0, .L28
 373 0012 FFF7FEFF 		bl	chDbgPanic
 374              	.L23:
 375              		.loc 5 13 0 is_stmt 1
 376 0016 0098     		ldr	r0, [sp]
 377 0018 FFF7FEFF 		bl	_ZN3r2p7Message14acquire_unsafeEv
 378              		.loc 5 15 0
 379 001c 02AB     		add	r3, sp, #8
 380 001e 1846     		mov	r0, r3
 381 0020 FFF7FEFF 		bl	_ZN3r2p4Time3nowEv
 382              		.loc 5 17 0
 383 0024 019B     		ldr	r3, [sp, #4]
 384 0026 5A68     		ldr	r2, [r3, #4]
 385 0028 02AB     		add	r3, sp, #8
 386 002a 1046     		mov	r0, r2
 387 002c 0099     		ldr	r1, [sp]
 388 002e 1A46     		mov	r2, r3
 389 0030 FFF7FEFF 		bl	_ZN3r2p5Topic20notify_locals_unsafeERNS_7MessageERKNS_4TimeE
 390 0034 0346     		mov	r3, r0
 391 0036 8DF80F30 		strb	r3, [sp, #15]
 392              		.loc 5 18 0
 393 003a 019B     		ldr	r3, [sp, #4]
 394 003c 5A68     		ldr	r2, [r3, #4]
ARM GAS  /tmp/cc9dhpUe.s 			page 8


 395 003e 02AB     		add	r3, sp, #8
 396 0040 1046     		mov	r0, r2
 397 0042 0099     		ldr	r1, [sp]
 398 0044 1A46     		mov	r2, r3
 399 0046 FFF7FEFF 		bl	_ZN3r2p5Topic21notify_remotes_unsafeERNS_7MessageERKNS_4TimeE
 400 004a 0346     		mov	r3, r0
 401 004c 002B     		cmp	r3, #0
 402 004e 05D0     		beq	.L24
 403              		.loc 5 18 0 is_stmt 0 discriminator 1
 404 0050 9DF80F30 		ldrb	r3, [sp, #15]	@ zero_extendqisi2
 405 0054 002B     		cmp	r3, #0
 406 0056 01D0     		beq	.L24
 407              		.loc 5 18 0 discriminator 3
 408 0058 0123     		movs	r3, #1
 409 005a 00E0     		b	.L25
 410              	.L24:
 411              		.loc 5 18 0 discriminator 4
 412 005c 0023     		movs	r3, #0
 413              	.L25:
 414              		.loc 5 18 0 discriminator 6
 415 005e 8DF80F30 		strb	r3, [sp, #15]
 416              		.loc 5 20 0 is_stmt 1 discriminator 6
 417 0062 0098     		ldr	r0, [sp]
 418 0064 FFF7FEFF 		bl	_ZN3r2p7Message14release_unsafeEv
 419 0068 0346     		mov	r3, r0
 420 006a 83F00103 		eor	r3, r3, #1
 421 006e DBB2     		uxtb	r3, r3
 422 0070 002B     		cmp	r3, #0
 423 0072 05D0     		beq	.L26
 424              		.loc 5 21 0
 425 0074 019B     		ldr	r3, [sp, #4]
 426 0076 5B68     		ldr	r3, [r3, #4]
 427 0078 1846     		mov	r0, r3
 428 007a 0099     		ldr	r1, [sp]
 429 007c FFF7FEFF 		bl	_ZN3r2p5Topic11free_unsafeERNS_7MessageE
 430              	.L26:
 431              		.loc 5 24 0
 432 0080 9DF80F30 		ldrb	r3, [sp, #15]	@ zero_extendqisi2
 433              	.LBE2:
 434              		.loc 5 25 0
 435 0084 1846     		mov	r0, r3
 436 0086 05B0     		add	sp, sp, #20
 437              		.cfi_def_cfa_offset 4
 438              		@ sp needed
 439 0088 5DF804FB 		ldr	pc, [sp], #4
 440              	.L29:
 441              		.align	2
 442              	.L28:
 443 008c 00000000 		.word	.LC0
 444              		.cfi_endproc
 445              	.LFE324:
 446              		.size	_ZN3r2p13BasePublisher14publish_unsafeERNS_7MessageE, .-_ZN3r2p13BasePublisher14publish_unsa
 447              		.section	.text._ZN3r2p13BasePublisher22publish_locally_unsafeERNS_7MessageE,"ax",%progbits
 448              		.align	2
 449              		.p2align 4,,15
 450              		.global	_ZN3r2p13BasePublisher22publish_locally_unsafeERNS_7MessageE
 451              		.thumb
ARM GAS  /tmp/cc9dhpUe.s 			page 9


 452              		.thumb_func
 453              		.type	_ZN3r2p13BasePublisher22publish_locally_unsafeERNS_7MessageE, %function
 454              	_ZN3r2p13BasePublisher22publish_locally_unsafeERNS_7MessageE:
 455              	.LFB325:
 456              		.loc 5 28 0
 457              		.cfi_startproc
 458              		@ args = 0, pretend = 0, frame = 16
 459              		@ frame_needed = 0, uses_anonymous_args = 0
 460 0000 10B5     		push	{r4, lr}
 461              		.cfi_def_cfa_offset 8
 462              		.cfi_offset 4, -8
 463              		.cfi_offset 14, -4
 464 0002 84B0     		sub	sp, sp, #16
 465              		.cfi_def_cfa_offset 24
 466 0004 0190     		str	r0, [sp, #4]
 467 0006 0091     		str	r1, [sp]
 468              	.LBB3:
 469              		.loc 5 30 0
 470 0008 019B     		ldr	r3, [sp, #4]
 471 000a 5B68     		ldr	r3, [r3, #4]
 472 000c 002B     		cmp	r3, #0
 473 000e 02D1     		bne	.L31
 474              		.loc 5 30 0 is_stmt 0 discriminator 1
 475 0010 1448     		ldr	r0, .L34
 476 0012 FFF7FEFF 		bl	chDbgPanic
 477              	.L31:
 478              		.loc 5 32 0 is_stmt 1
 479 0016 0098     		ldr	r0, [sp]
 480 0018 FFF7FEFF 		bl	_ZN3r2p7Message14acquire_unsafeEv
 481              		.loc 5 33 0
 482 001c 019B     		ldr	r3, [sp, #4]
 483 001e 5C68     		ldr	r4, [r3, #4]
 484 0020 02AB     		add	r3, sp, #8
 485 0022 1846     		mov	r0, r3
 486 0024 FFF7FEFF 		bl	_ZN3r2p4Time3nowEv
 487 0028 02AB     		add	r3, sp, #8
 488 002a 2046     		mov	r0, r4
 489 002c 0099     		ldr	r1, [sp]
 490 002e 1A46     		mov	r2, r3
 491 0030 FFF7FEFF 		bl	_ZN3r2p5Topic20notify_locals_unsafeERNS_7MessageERKNS_4TimeE
 492 0034 0346     		mov	r3, r0
 493 0036 8DF80F30 		strb	r3, [sp, #15]
 494              		.loc 5 34 0
 495 003a 0098     		ldr	r0, [sp]
 496 003c FFF7FEFF 		bl	_ZN3r2p7Message14release_unsafeEv
 497 0040 0346     		mov	r3, r0
 498 0042 83F00103 		eor	r3, r3, #1
 499 0046 DBB2     		uxtb	r3, r3
 500 0048 002B     		cmp	r3, #0
 501 004a 05D0     		beq	.L32
 502              		.loc 5 35 0
 503 004c 019B     		ldr	r3, [sp, #4]
 504 004e 5B68     		ldr	r3, [r3, #4]
 505 0050 1846     		mov	r0, r3
 506 0052 0099     		ldr	r1, [sp]
 507 0054 FFF7FEFF 		bl	_ZN3r2p5Topic11free_unsafeERNS_7MessageE
 508              	.L32:
ARM GAS  /tmp/cc9dhpUe.s 			page 10


 509              		.loc 5 37 0
 510 0058 9DF80F30 		ldrb	r3, [sp, #15]	@ zero_extendqisi2
 511              	.LBE3:
 512              		.loc 5 38 0
 513 005c 1846     		mov	r0, r3
 514 005e 04B0     		add	sp, sp, #16
 515              		.cfi_def_cfa_offset 8
 516              		@ sp needed
 517 0060 10BD     		pop	{r4, pc}
 518              	.L35:
 519 0062 00BF     		.align	2
 520              	.L34:
 521 0064 00000000 		.word	.LC0
 522              		.cfi_endproc
 523              	.LFE325:
 524              		.size	_ZN3r2p13BasePublisher22publish_locally_unsafeERNS_7MessageE, .-_ZN3r2p13BasePublisher22publ
 525 0068 AFF30080 		.section	.text._ZN3r2p13BasePublisher23publish_remotely_unsafeERNS_7MessageE,"ax",%progbits
 525      AFF30080 
 526              		.align	2
 527              		.p2align 4,,15
 528              		.global	_ZN3r2p13BasePublisher23publish_remotely_unsafeERNS_7MessageE
 529              		.thumb
 530              		.thumb_func
 531              		.type	_ZN3r2p13BasePublisher23publish_remotely_unsafeERNS_7MessageE, %function
 532              	_ZN3r2p13BasePublisher23publish_remotely_unsafeERNS_7MessageE:
 533              	.LFB326:
 534              		.loc 5 41 0
 535              		.cfi_startproc
 536              		@ args = 0, pretend = 0, frame = 16
 537              		@ frame_needed = 0, uses_anonymous_args = 0
 538 0000 10B5     		push	{r4, lr}
 539              		.cfi_def_cfa_offset 8
 540              		.cfi_offset 4, -8
 541              		.cfi_offset 14, -4
 542 0002 84B0     		sub	sp, sp, #16
 543              		.cfi_def_cfa_offset 24
 544 0004 0190     		str	r0, [sp, #4]
 545 0006 0091     		str	r1, [sp]
 546              	.LBB4:
 547              		.loc 5 43 0
 548 0008 019B     		ldr	r3, [sp, #4]
 549 000a 5B68     		ldr	r3, [r3, #4]
 550 000c 002B     		cmp	r3, #0
 551 000e 02D1     		bne	.L37
 552              		.loc 5 43 0 is_stmt 0 discriminator 1
 553 0010 1448     		ldr	r0, .L40
 554 0012 FFF7FEFF 		bl	chDbgPanic
 555              	.L37:
 556              		.loc 5 45 0 is_stmt 1
 557 0016 0098     		ldr	r0, [sp]
 558 0018 FFF7FEFF 		bl	_ZN3r2p7Message14acquire_unsafeEv
 559              		.loc 5 46 0
 560 001c 019B     		ldr	r3, [sp, #4]
 561 001e 5C68     		ldr	r4, [r3, #4]
 562 0020 02AB     		add	r3, sp, #8
 563 0022 1846     		mov	r0, r3
 564 0024 FFF7FEFF 		bl	_ZN3r2p4Time3nowEv
ARM GAS  /tmp/cc9dhpUe.s 			page 11


 565 0028 02AB     		add	r3, sp, #8
 566 002a 2046     		mov	r0, r4
 567 002c 0099     		ldr	r1, [sp]
 568 002e 1A46     		mov	r2, r3
 569 0030 FFF7FEFF 		bl	_ZN3r2p5Topic21notify_remotes_unsafeERNS_7MessageERKNS_4TimeE
 570 0034 0346     		mov	r3, r0
 571 0036 8DF80F30 		strb	r3, [sp, #15]
 572              		.loc 5 47 0
 573 003a 0098     		ldr	r0, [sp]
 574 003c FFF7FEFF 		bl	_ZN3r2p7Message14release_unsafeEv
 575 0040 0346     		mov	r3, r0
 576 0042 83F00103 		eor	r3, r3, #1
 577 0046 DBB2     		uxtb	r3, r3
 578 0048 002B     		cmp	r3, #0
 579 004a 05D0     		beq	.L38
 580              		.loc 5 48 0
 581 004c 019B     		ldr	r3, [sp, #4]
 582 004e 5B68     		ldr	r3, [r3, #4]
 583 0050 1846     		mov	r0, r3
 584 0052 0099     		ldr	r1, [sp]
 585 0054 FFF7FEFF 		bl	_ZN3r2p5Topic11free_unsafeERNS_7MessageE
 586              	.L38:
 587              		.loc 5 50 0
 588 0058 9DF80F30 		ldrb	r3, [sp, #15]	@ zero_extendqisi2
 589              	.LBE4:
 590              		.loc 5 51 0
 591 005c 1846     		mov	r0, r3
 592 005e 04B0     		add	sp, sp, #16
 593              		.cfi_def_cfa_offset 8
 594              		@ sp needed
 595 0060 10BD     		pop	{r4, pc}
 596              	.L41:
 597 0062 00BF     		.align	2
 598              	.L40:
 599 0064 00000000 		.word	.LC0
 600              		.cfi_endproc
 601              	.LFE326:
 602              		.size	_ZN3r2p13BasePublisher23publish_remotely_unsafeERNS_7MessageE, .-_ZN3r2p13BasePublisher23pub
 603 0068 AFF30080 		.section	.text._ZN3r2p13BasePublisher7publishERNS_7MessageE,"ax",%progbits
 603      AFF30080 
 604              		.align	2
 605              		.p2align 4,,15
 606              		.global	_ZN3r2p13BasePublisher7publishERNS_7MessageE
 607              		.thumb
 608              		.thumb_func
 609              		.type	_ZN3r2p13BasePublisher7publishERNS_7MessageE, %function
 610              	_ZN3r2p13BasePublisher7publishERNS_7MessageE:
 611              	.LFB327:
 612              		.loc 5 54 0
 613              		.cfi_startproc
 614              		@ args = 0, pretend = 0, frame = 16
 615              		@ frame_needed = 0, uses_anonymous_args = 0
 616 0000 00B5     		push	{lr}
 617              		.cfi_def_cfa_offset 4
 618              		.cfi_offset 14, -4
 619 0002 85B0     		sub	sp, sp, #20
 620              		.cfi_def_cfa_offset 24
ARM GAS  /tmp/cc9dhpUe.s 			page 12


 621 0004 0190     		str	r0, [sp, #4]
 622 0006 0091     		str	r1, [sp]
 623              	.LBB5:
 624              		.loc 5 56 0
 625 0008 019B     		ldr	r3, [sp, #4]
 626 000a 5B68     		ldr	r3, [r3, #4]
 627 000c 002B     		cmp	r3, #0
 628 000e 02D1     		bne	.L43
 629              		.loc 5 56 0 is_stmt 0 discriminator 1
 630 0010 1E48     		ldr	r0, .L48
 631 0012 FFF7FEFF 		bl	chDbgPanic
 632              	.L43:
 633              		.loc 5 58 0 is_stmt 1
 634 0016 0098     		ldr	r0, [sp]
 635 0018 FFF7FEFF 		bl	_ZN3r2p7Message7acquireEv
 636              		.loc 5 60 0
 637 001c 02AB     		add	r3, sp, #8
 638 001e 1846     		mov	r0, r3
 639 0020 FFF7FEFF 		bl	_ZN3r2p4Time3nowEv
 640              		.loc 5 62 0
 641 0024 019B     		ldr	r3, [sp, #4]
 642 0026 5A68     		ldr	r2, [r3, #4]
 643 0028 02AB     		add	r3, sp, #8
 644 002a 1046     		mov	r0, r2
 645 002c 0099     		ldr	r1, [sp]
 646 002e 1A46     		mov	r2, r3
 647 0030 FFF7FEFF 		bl	_ZN3r2p5Topic13notify_localsERNS_7MessageERKNS_4TimeE
 648 0034 0346     		mov	r3, r0
 649 0036 8DF80F30 		strb	r3, [sp, #15]
 650              		.loc 5 63 0
 651 003a 019B     		ldr	r3, [sp, #4]
 652 003c 5A68     		ldr	r2, [r3, #4]
 653 003e 02AB     		add	r3, sp, #8
 654 0040 1046     		mov	r0, r2
 655 0042 0099     		ldr	r1, [sp]
 656 0044 1A46     		mov	r2, r3
 657 0046 FFF7FEFF 		bl	_ZN3r2p5Topic14notify_remotesERNS_7MessageERKNS_4TimeE
 658 004a 0346     		mov	r3, r0
 659 004c 002B     		cmp	r3, #0
 660 004e 05D0     		beq	.L44
 661              		.loc 5 63 0 is_stmt 0 discriminator 1
 662 0050 9DF80F30 		ldrb	r3, [sp, #15]	@ zero_extendqisi2
 663 0054 002B     		cmp	r3, #0
 664 0056 01D0     		beq	.L44
 665              		.loc 5 63 0 discriminator 3
 666 0058 0123     		movs	r3, #1
 667 005a 00E0     		b	.L45
 668              	.L44:
 669              		.loc 5 63 0 discriminator 4
 670 005c 0023     		movs	r3, #0
 671              	.L45:
 672              		.loc 5 63 0 discriminator 6
 673 005e 8DF80F30 		strb	r3, [sp, #15]
 674              		.loc 5 65 0 is_stmt 1 discriminator 6
 675 0062 0098     		ldr	r0, [sp]
 676 0064 FFF7FEFF 		bl	_ZN3r2p7Message7releaseEv
 677 0068 0346     		mov	r3, r0
ARM GAS  /tmp/cc9dhpUe.s 			page 13


 678 006a 83F00103 		eor	r3, r3, #1
 679 006e DBB2     		uxtb	r3, r3
 680 0070 002B     		cmp	r3, #0
 681 0072 05D0     		beq	.L46
 682              		.loc 5 66 0
 683 0074 019B     		ldr	r3, [sp, #4]
 684 0076 5B68     		ldr	r3, [r3, #4]
 685 0078 1846     		mov	r0, r3
 686 007a 0099     		ldr	r1, [sp]
 687 007c FFF7FEFF 		bl	_ZN3r2p5Topic4freeERNS_7MessageE
 688              	.L46:
 689              		.loc 5 69 0
 690 0080 9DF80F30 		ldrb	r3, [sp, #15]	@ zero_extendqisi2
 691              	.LBE5:
 692              		.loc 5 70 0
 693 0084 1846     		mov	r0, r3
 694 0086 05B0     		add	sp, sp, #20
 695              		.cfi_def_cfa_offset 4
 696              		@ sp needed
 697 0088 5DF804FB 		ldr	pc, [sp], #4
 698              	.L49:
 699              		.align	2
 700              	.L48:
 701 008c 00000000 		.word	.LC0
 702              		.cfi_endproc
 703              	.LFE327:
 704              		.size	_ZN3r2p13BasePublisher7publishERNS_7MessageE, .-_ZN3r2p13BasePublisher7publishERNS_7MessageE
 705              		.section	.text._ZN3r2p13BasePublisherC2Ev,"ax",%progbits
 706              		.align	2
 707              		.p2align 4,,15
 708              		.global	_ZN3r2p13BasePublisherC2Ev
 709              		.thumb
 710              		.thumb_func
 711              		.type	_ZN3r2p13BasePublisherC2Ev, %function
 712              	_ZN3r2p13BasePublisherC2Ev:
 713              	.LFB329:
 714              		.loc 5 73 0
 715              		.cfi_startproc
 716              		@ args = 0, pretend = 0, frame = 8
 717              		@ frame_needed = 0, uses_anonymous_args = 0
 718 0000 00B5     		push	{lr}
 719              		.cfi_def_cfa_offset 4
 720              		.cfi_offset 14, -4
 721 0002 83B0     		sub	sp, sp, #12
 722              		.cfi_def_cfa_offset 16
 723 0004 0190     		str	r0, [sp, #4]
 724              	.LBB6:
 725              		.loc 5 75 0
 726 0006 0198     		ldr	r0, [sp, #4]
 727 0008 FFF7FEFF 		bl	_ZN3r2p10UncopyableC2Ev
 728 000c 019B     		ldr	r3, [sp, #4]
 729 000e 054A     		ldr	r2, .L53
 730 0010 1A60     		str	r2, [r3]
 731 0012 019B     		ldr	r3, [sp, #4]
 732 0014 0022     		movs	r2, #0
 733 0016 5A60     		str	r2, [r3, #4]
 734              	.LBE6:
ARM GAS  /tmp/cc9dhpUe.s 			page 14


 735              		.loc 5 76 0
 736 0018 019B     		ldr	r3, [sp, #4]
 737 001a 1846     		mov	r0, r3
 738 001c 03B0     		add	sp, sp, #12
 739              		.cfi_def_cfa_offset 4
 740              		@ sp needed
 741 001e 5DF804FB 		ldr	pc, [sp], #4
 742              	.L54:
 743 0022 00BF     		.align	2
 744              	.L53:
 745 0024 08000000 		.word	_ZTVN3r2p13BasePublisherE+8
 746              		.cfi_endproc
 747              	.LFE329:
 748              		.size	_ZN3r2p13BasePublisherC2Ev, .-_ZN3r2p13BasePublisherC2Ev
 749              		.global	_ZN3r2p13BasePublisherC1Ev
 750              		.thumb_set _ZN3r2p13BasePublisherC1Ev,_ZN3r2p13BasePublisherC2Ev
 751 0028 AFF30080 		.section	.text._ZN3r2p13BasePublisherD2Ev,"ax",%progbits
 751      AFF30080 
 752              		.align	2
 753              		.p2align 4,,15
 754              		.global	_ZN3r2p13BasePublisherD2Ev
 755              		.thumb
 756              		.thumb_func
 757              		.type	_ZN3r2p13BasePublisherD2Ev, %function
 758              	_ZN3r2p13BasePublisherD2Ev:
 759              	.LFB332:
 760              		.loc 5 79 0
 761              		.cfi_startproc
 762              		@ args = 0, pretend = 0, frame = 8
 763              		@ frame_needed = 0, uses_anonymous_args = 0
 764 0000 00B5     		push	{lr}
 765              		.cfi_def_cfa_offset 4
 766              		.cfi_offset 14, -4
 767 0002 83B0     		sub	sp, sp, #12
 768              		.cfi_def_cfa_offset 16
 769 0004 0190     		str	r0, [sp, #4]
 770              	.LBB7:
 771              		.loc 5 79 0
 772 0006 019B     		ldr	r3, [sp, #4]
 773 0008 074A     		ldr	r2, .L59
 774 000a 1A60     		str	r2, [r3]
 775 000c 0198     		ldr	r0, [sp, #4]
 776 000e FFF7FEFF 		bl	_ZN3r2p10UncopyableD2Ev
 777              	.LBE7:
 778 0012 0023     		movs	r3, #0
 779 0014 002B     		cmp	r3, #0
 780 0016 02D0     		beq	.L57
 781              		.loc 5 79 0 is_stmt 0 discriminator 2
 782 0018 0198     		ldr	r0, [sp, #4]
 783 001a FFF7FEFF 		bl	_ZdlPv
 784              	.L57:
 785              		.loc 5 79 0 discriminator 4
 786 001e 019B     		ldr	r3, [sp, #4]
 787 0020 1846     		mov	r0, r3
 788 0022 03B0     		add	sp, sp, #12
 789              		.cfi_def_cfa_offset 4
 790              		@ sp needed
ARM GAS  /tmp/cc9dhpUe.s 			page 15


 791 0024 5DF804FB 		ldr	pc, [sp], #4
 792              	.L60:
 793              		.align	2
 794              	.L59:
 795 0028 08000000 		.word	_ZTVN3r2p13BasePublisherE+8
 796              		.cfi_endproc
 797              	.LFE332:
 798              		.size	_ZN3r2p13BasePublisherD2Ev, .-_ZN3r2p13BasePublisherD2Ev
 799              		.global	_ZN3r2p13BasePublisherD1Ev
 800              		.thumb_set _ZN3r2p13BasePublisherD1Ev,_ZN3r2p13BasePublisherD2Ev
 801 002c AFF30080 		.section	.text._ZN3r2p13BasePublisherD0Ev,"ax",%progbits
 802              		.align	2
 803              		.p2align 4,,15
 804              		.global	_ZN3r2p13BasePublisherD0Ev
 805              		.thumb
 806              		.thumb_func
 807              		.type	_ZN3r2p13BasePublisherD0Ev, %function
 808              	_ZN3r2p13BasePublisherD0Ev:
 809              	.LFB334:
 810              		.loc 5 79 0 is_stmt 1
 811              		.cfi_startproc
 812              		@ args = 0, pretend = 0, frame = 8
 813              		@ frame_needed = 0, uses_anonymous_args = 0
 814 0000 00B5     		push	{lr}
 815              		.cfi_def_cfa_offset 4
 816              		.cfi_offset 14, -4
 817 0002 83B0     		sub	sp, sp, #12
 818              		.cfi_def_cfa_offset 16
 819 0004 0190     		str	r0, [sp, #4]
 820              		.loc 5 79 0
 821 0006 0198     		ldr	r0, [sp, #4]
 822 0008 FFF7FEFF 		bl	_ZN3r2p13BasePublisherD2Ev
 823 000c 0198     		ldr	r0, [sp, #4]
 824 000e FFF7FEFF 		bl	_ZdlPv
 825 0012 019B     		ldr	r3, [sp, #4]
 826 0014 1846     		mov	r0, r3
 827 0016 03B0     		add	sp, sp, #12
 828              		.cfi_def_cfa_offset 4
 829              		@ sp needed
 830 0018 5DF804FB 		ldr	pc, [sp], #4
 831              		.cfi_endproc
 832              	.LFE334:
 833              		.size	_ZN3r2p13BasePublisherD0Ev, .-_ZN3r2p13BasePublisherD0Ev
 834              		.weak	_ZTVN3r2p13BasePublisherE
 835 001c AFF30080 		.section	.rodata._ZTVN3r2p13BasePublisherE,"aG",%progbits,_ZTVN3r2p13BasePublisherE,comdat
 836              		.align	3
 837              		.type	_ZTVN3r2p13BasePublisherE, %object
 838              		.size	_ZTVN3r2p13BasePublisherE, 16
 839              	_ZTVN3r2p13BasePublisherE:
 840 0000 00000000 		.word	0
 841 0004 00000000 		.word	0
 842 0008 00000000 		.word	__cxa_pure_virtual
 843 000c 00000000 		.word	__cxa_pure_virtual
 844              		.text
 845              	.Letext0:
 846              		.file 6 "/home/denny/r2p-sdk/tools/gcc-arm-none-eabi-4_9-2014q4/lib/gcc/arm-none-eabi/4.9.3/includ
 847              		.file 7 "/home/denny/r2p-sdk/tools/gcc-arm-none-eabi-4_9-2014q4/arm-none-eabi/include/machine/_def
ARM GAS  /tmp/cc9dhpUe.s 			page 16


 848              		.file 8 "/home/denny/r2p-sdk/tools/gcc-arm-none-eabi-4_9-2014q4/arm-none-eabi/include/c++/4.9.3/cs
 849              		.file 9 "/home/denny/r2p-sdk/tools/gcc-arm-none-eabi-4_9-2014q4/arm-none-eabi/include/string.h"
 850              		.file 10 "<built-in>"
 851              		.file 11 "/home/denny/r2p-sdk/core/Middleware/include/r2p/Time.hpp"
 852              		.file 12 "/home/denny/r2p-sdk/core/Middleware/include/r2p/StaticList.hpp"
 853              		.file 13 "/home/denny/r2p-sdk/core/Middleware/include/r2p/BasePublisher.hpp"
 854              		.file 14 "/home/denny/r2p-sdk/tools/gcc-arm-none-eabi-4_9-2014q4/arm-none-eabi/include/stdint.h"
 855              		.file 15 "/home/denny/r2p-sdk/core/ChibiOS/os/ports/GCC/ARMCMx/chtypes.h"
 856              		.file 16 "/home/denny/r2p-sdk/core/ChibiOS/os/kernel/include/chlists.h"
 857              		.file 17 "/home/denny/r2p-sdk/core/ChibiOS/os/kernel/include/chthreads.h"
 858              		.file 18 "/home/denny/r2p-sdk/core/ChibiOS/os/ports/GCC/ARMCMx/chcore_v7m.h"
 859              		.file 19 "/home/denny/r2p-sdk/core/ChibiOS/os/kernel/include/chschd.h"
 860              		.file 20 "/home/denny/r2p-sdk/core/ChibiOS/os/kernel/include/chmtx.h"
 861              		.file 21 "/home/denny/r2p-sdk/core/ChibiOS/os/kernel/include/chmemcore.h"
 862              		.file 22 "/home/denny/r2p-sdk/core/ChibiOS/os/kernel/include/chmempools.h"