ARM GAS  /tmp/ccKnTyrk.s 			page 1


   1              		.syntax unified
   2              		.cpu cortex-m4
   3              		.eabi_attribute 27, 3
   4              		.eabi_attribute 28, 1
   5              		.fpu fpv4-sp-d16
   6              		.eabi_attribute 20, 1
   7              		.eabi_attribute 21, 1
   8              		.eabi_attribute 23, 3
   9              		.eabi_attribute 24, 1
  10              		.eabi_attribute 25, 1
  11              		.eabi_attribute 26, 1
  12              		.eabi_attribute 30, 6
  13              		.eabi_attribute 34, 1
  14              		.eabi_attribute 18, 4
  15              		.thumb
  16              		.file	"BaseSubscriber.cpp"
  17              		.text
  18              	.Ltext0:
  19              		.cfi_sections	.debug_frame
  20              		.section	.text._ZN3r2p10UncopyableC2Ev,"axG",%progbits,_ZN3r2p10UncopyableC5Ev,comdat
  21              		.align	2
  22              		.p2align 4,,15
  23              		.weak	_ZN3r2p10UncopyableC2Ev
  24              		.thumb
  25              		.thumb_func
  26              		.type	_ZN3r2p10UncopyableC2Ev, %function
  27              	_ZN3r2p10UncopyableC2Ev:
  28              	.LFB6:
  29              		.file 1 "/home/ergae/r2p-sdk/core/Middleware/include/r2p/Uncopyable.hpp"
  30              		.loc 1 20 0
  31              		.cfi_startproc
  32              		@ args = 0, pretend = 0, frame = 8
  33              		@ frame_needed = 0, uses_anonymous_args = 0
  34              		@ link register save eliminated.
  35 0000 82B0     		sub	sp, sp, #8
  36              		.cfi_def_cfa_offset 8
  37 0002 0190     		str	r0, [sp, #4]
  38              		.loc 1 20 0
  39 0004 019B     		ldr	r3, [sp, #4]
  40 0006 1846     		mov	r0, r3
  41 0008 02B0     		add	sp, sp, #8
  42              		.cfi_def_cfa_offset 0
  43              		@ sp needed
  44 000a 7047     		bx	lr
  45              		.cfi_endproc
  46              	.LFE6:
  47              		.size	_ZN3r2p10UncopyableC2Ev, .-_ZN3r2p10UncopyableC2Ev
  48              		.weak	_ZN3r2p10UncopyableC1Ev
  49              		.thumb_set _ZN3r2p10UncopyableC1Ev,_ZN3r2p10UncopyableC2Ev
  50 000c AFF30080 		.section	.text._ZN3r2p10UncopyableD2Ev,"axG",%progbits,_ZN3r2p10UncopyableD5Ev,comdat
  51              		.align	2
  52              		.p2align 4,,15
  53              		.weak	_ZN3r2p10UncopyableD2Ev
  54              		.thumb
  55              		.thumb_func
  56              		.type	_ZN3r2p10UncopyableD2Ev, %function
  57              	_ZN3r2p10UncopyableD2Ev:
ARM GAS  /tmp/ccKnTyrk.s 			page 2


  58              	.LFB9:
  59              		.loc 1 21 0
  60              		.cfi_startproc
  61              		@ args = 0, pretend = 0, frame = 8
  62              		@ frame_needed = 0, uses_anonymous_args = 0
  63              		@ link register save eliminated.
  64 0000 82B0     		sub	sp, sp, #8
  65              		.cfi_def_cfa_offset 8
  66 0002 0190     		str	r0, [sp, #4]
  67              		.loc 1 21 0
  68 0004 019B     		ldr	r3, [sp, #4]
  69 0006 1846     		mov	r0, r3
  70 0008 02B0     		add	sp, sp, #8
  71              		.cfi_def_cfa_offset 0
  72              		@ sp needed
  73 000a 7047     		bx	lr
  74              		.cfi_endproc
  75              	.LFE9:
  76              		.size	_ZN3r2p10UncopyableD2Ev, .-_ZN3r2p10UncopyableD2Ev
  77              		.weak	_ZN3r2p10UncopyableD1Ev
  78              		.thumb_set _ZN3r2p10UncopyableD1Ev,_ZN3r2p10UncopyableD2Ev
  79 000c AFF30080 		.section	.text._ZN3r2p11MemoryPool_11free_unsafeEPv,"axG",%progbits,_ZN3r2p11MemoryPool_11free_uns
  80              		.align	2
  81              		.p2align 4,,15
  82              		.weak	_ZN3r2p11MemoryPool_11free_unsafeEPv
  83              		.thumb
  84              		.thumb_func
  85              		.type	_ZN3r2p11MemoryPool_11free_unsafeEPv, %function
  86              	_ZN3r2p11MemoryPool_11free_unsafeEPv:
  87              	.LFB135:
  88              		.file 2 "/home/ergae/r2p-sdk/core/Middleware/port/chibios/include/r2p/impl/MemoryPool_.hpp"
  89              		.loc 2 60 0
  90              		.cfi_startproc
  91              		@ args = 0, pretend = 0, frame = 8
  92              		@ frame_needed = 0, uses_anonymous_args = 0
  93 0000 00B5     		push	{lr}
  94              		.cfi_def_cfa_offset 4
  95              		.cfi_offset 14, -4
  96 0002 83B0     		sub	sp, sp, #12
  97              		.cfi_def_cfa_offset 16
  98 0004 0190     		str	r0, [sp, #4]
  99 0006 0091     		str	r1, [sp]
 100              		.loc 2 62 0
 101 0008 009B     		ldr	r3, [sp]
 102 000a 002B     		cmp	r3, #0
 103 000c 04D0     		beq	.L7
 104              		.loc 2 63 0
 105 000e 019B     		ldr	r3, [sp, #4]
 106 0010 1846     		mov	r0, r3
 107 0012 0099     		ldr	r1, [sp]
 108 0014 FFF7FEFF 		bl	chPoolFreeI
 109              	.L7:
 110              		.loc 2 65 0
 111 0018 03B0     		add	sp, sp, #12
 112              		.cfi_def_cfa_offset 4
 113              		@ sp needed
 114 001a 5DF804FB 		ldr	pc, [sp], #4
ARM GAS  /tmp/ccKnTyrk.s 			page 3


 115              		.cfi_endproc
 116              	.LFE135:
 117              		.size	_ZN3r2p11MemoryPool_11free_unsafeEPv, .-_ZN3r2p11MemoryPool_11free_unsafeEPv
 118 001e 00BF     		.section	.text._ZN3r2p11MemoryPool_4freeEPv,"axG",%progbits,_ZN3r2p11MemoryPool_4freeEPv,comdat
 119              		.align	2
 120              		.p2align 4,,15
 121              		.weak	_ZN3r2p11MemoryPool_4freeEPv
 122              		.thumb
 123              		.thumb_func
 124              		.type	_ZN3r2p11MemoryPool_4freeEPv, %function
 125              	_ZN3r2p11MemoryPool_4freeEPv:
 126              	.LFB137:
 127              		.loc 2 76 0
 128              		.cfi_startproc
 129              		@ args = 0, pretend = 0, frame = 8
 130              		@ frame_needed = 0, uses_anonymous_args = 0
 131 0000 00B5     		push	{lr}
 132              		.cfi_def_cfa_offset 4
 133              		.cfi_offset 14, -4
 134 0002 83B0     		sub	sp, sp, #12
 135              		.cfi_def_cfa_offset 16
 136 0004 0190     		str	r0, [sp, #4]
 137 0006 0091     		str	r1, [sp]
 138              		.loc 2 78 0
 139 0008 009B     		ldr	r3, [sp]
 140 000a 002B     		cmp	r3, #0
 141 000c 04D0     		beq	.L9
 142              		.loc 2 79 0
 143 000e 019B     		ldr	r3, [sp, #4]
 144 0010 1846     		mov	r0, r3
 145 0012 0099     		ldr	r1, [sp]
 146 0014 FFF7FEFF 		bl	chPoolFree
 147              	.L9:
 148              		.loc 2 81 0
 149 0018 03B0     		add	sp, sp, #12
 150              		.cfi_def_cfa_offset 4
 151              		@ sp needed
 152 001a 5DF804FB 		ldr	pc, [sp], #4
 153              		.cfi_endproc
 154              	.LFE137:
 155              		.size	_ZN3r2p11MemoryPool_4freeEPv, .-_ZN3r2p11MemoryPool_4freeEPv
 156 001e 00BF     		.section	.rodata
 157              		.align	2
 158              	.LC0:
 159 0000 5232505F 		.ascii	"R2P_ASSERT()\000"
 159      41535345 
 159      52542829 
 159      00
 160 000d 000000   		.section	.text._ZN3r2p7Message14release_unsafeEv,"axG",%progbits,_ZN3r2p7Message14release_unsafeEv
 161              		.align	2
 162              		.p2align 4,,15
 163              		.weak	_ZN3r2p7Message14release_unsafeEv
 164              		.thumb
 165              		.thumb_func
 166              		.type	_ZN3r2p7Message14release_unsafeEv, %function
 167              	_ZN3r2p7Message14release_unsafeEv:
 168              	.LFB168:
ARM GAS  /tmp/ccKnTyrk.s 			page 4


 169              		.file 3 "/home/ergae/r2p-sdk/core/Middleware/include/r2p/Message.hpp"
 170              		.loc 3 113 0
 171              		.cfi_startproc
 172              		@ args = 0, pretend = 0, frame = 8
 173              		@ frame_needed = 0, uses_anonymous_args = 0
 174 0000 00B5     		push	{lr}
 175              		.cfi_def_cfa_offset 4
 176              		.cfi_offset 14, -4
 177 0002 83B0     		sub	sp, sp, #12
 178              		.cfi_def_cfa_offset 16
 179 0004 0190     		str	r0, [sp, #4]
 180              		.loc 3 115 0
 181 0006 019B     		ldr	r3, [sp, #4]
 182 0008 1B88     		ldrh	r3, [r3]	@ unaligned
 183 000a 9BB2     		uxth	r3, r3
 184 000c 002B     		cmp	r3, #0
 185 000e 02D1     		bne	.L12
 186              		.loc 3 115 0 is_stmt 0 discriminator 1
 187 0010 0A48     		ldr	r0, .L14
 188 0012 FFF7FEFF 		bl	chDbgPanic
 189              	.L12:
 190              		.loc 3 117 0 is_stmt 1
 191 0016 019B     		ldr	r3, [sp, #4]
 192 0018 1B88     		ldrh	r3, [r3]	@ unaligned
 193 001a 9BB2     		uxth	r3, r3
 194 001c 013B     		subs	r3, r3, #1
 195 001e 9AB2     		uxth	r2, r3
 196 0020 019B     		ldr	r3, [sp, #4]
 197 0022 1A80     		strh	r2, [r3]	@ unaligned
 198 0024 019B     		ldr	r3, [sp, #4]
 199 0026 1B88     		ldrh	r3, [r3]	@ unaligned
 200 0028 9BB2     		uxth	r3, r3
 201 002a 002B     		cmp	r3, #0
 202 002c 14BF     		ite	ne
 203 002e 0123     		movne	r3, #1
 204 0030 0023     		moveq	r3, #0
 205 0032 DBB2     		uxtb	r3, r3
 206              		.loc 3 118 0
 207 0034 1846     		mov	r0, r3
 208 0036 03B0     		add	sp, sp, #12
 209              		.cfi_def_cfa_offset 4
 210              		@ sp needed
 211 0038 5DF804FB 		ldr	pc, [sp], #4
 212              	.L15:
 213              		.align	2
 214              	.L14:
 215 003c 00000000 		.word	.LC0
 216              		.cfi_endproc
 217              	.LFE168:
 218              		.size	_ZN3r2p7Message14release_unsafeEv, .-_ZN3r2p7Message14release_unsafeEv
 219              		.section	.text._ZNK3r2p5Topic8get_nameEv,"axG",%progbits,_ZNK3r2p5Topic8get_nameEv,comdat
 220              		.align	2
 221              		.p2align 4,,15
 222              		.weak	_ZNK3r2p5Topic8get_nameEv
 223              		.thumb
 224              		.thumb_func
 225              		.type	_ZNK3r2p5Topic8get_nameEv, %function
ARM GAS  /tmp/ccKnTyrk.s 			page 5


 226              	_ZNK3r2p5Topic8get_nameEv:
 227              	.LFB285:
 228              		.file 4 "/home/ergae/r2p-sdk/core/Middleware/include/r2p/Topic.hpp"
 229              		.loc 4 131 0
 230              		.cfi_startproc
 231              		@ args = 0, pretend = 0, frame = 8
 232              		@ frame_needed = 0, uses_anonymous_args = 0
 233              		@ link register save eliminated.
 234 0000 82B0     		sub	sp, sp, #8
 235              		.cfi_def_cfa_offset 8
 236 0002 0190     		str	r0, [sp, #4]
 237              		.loc 4 133 0
 238 0004 019B     		ldr	r3, [sp, #4]
 239 0006 1B68     		ldr	r3, [r3]
 240              		.loc 4 134 0
 241 0008 1846     		mov	r0, r3
 242 000a 02B0     		add	sp, sp, #8
 243              		.cfi_def_cfa_offset 0
 244              		@ sp needed
 245 000c 7047     		bx	lr
 246              		.cfi_endproc
 247              	.LFE285:
 248              		.size	_ZNK3r2p5Topic8get_nameEv, .-_ZNK3r2p5Topic8get_nameEv
 249 000e 00BF     		.section	.text._ZN3r2p5Topic11free_unsafeERNS_7MessageE,"axG",%progbits,_ZN3r2p5Topic11free_unsafe
 250              		.align	2
 251              		.p2align 4,,15
 252              		.weak	_ZN3r2p5Topic11free_unsafeERNS_7MessageE
 253              		.thumb
 254              		.thumb_func
 255              		.type	_ZN3r2p5Topic11free_unsafeERNS_7MessageE, %function
 256              	_ZN3r2p5Topic11free_unsafeERNS_7MessageE:
 257              	.LFB304:
 258              		.loc 4 281 0
 259              		.cfi_startproc
 260              		@ args = 0, pretend = 0, frame = 8
 261              		@ frame_needed = 0, uses_anonymous_args = 0
 262 0000 00B5     		push	{lr}
 263              		.cfi_def_cfa_offset 4
 264              		.cfi_offset 14, -4
 265 0002 83B0     		sub	sp, sp, #12
 266              		.cfi_def_cfa_offset 16
 267 0004 0190     		str	r0, [sp, #4]
 268 0006 0091     		str	r1, [sp]
 269              		.loc 4 283 0
 270 0008 019B     		ldr	r3, [sp, #4]
 271 000a 0833     		adds	r3, r3, #8
 272 000c 1846     		mov	r0, r3
 273 000e 0099     		ldr	r1, [sp]
 274 0010 FFF7FEFF 		bl	_ZN3r2p11MemoryPool_11free_unsafeEPv
 275              		.loc 4 284 0
 276 0014 03B0     		add	sp, sp, #12
 277              		.cfi_def_cfa_offset 4
 278              		@ sp needed
 279 0016 5DF804FB 		ldr	pc, [sp], #4
 280              		.cfi_endproc
 281              	.LFE304:
 282              		.size	_ZN3r2p5Topic11free_unsafeERNS_7MessageE, .-_ZN3r2p5Topic11free_unsafeERNS_7MessageE
ARM GAS  /tmp/ccKnTyrk.s 			page 6


 283 001a 00BFAFF3 		.section	.text._ZN3r2p5Topic4freeERNS_7MessageE,"axG",%progbits,_ZN3r2p5Topic4freeERNS_7MessageE,c
 283      0080
 284              		.align	2
 285              		.p2align 4,,15
 286              		.weak	_ZN3r2p5Topic4freeERNS_7MessageE
 287              		.thumb
 288              		.thumb_func
 289              		.type	_ZN3r2p5Topic4freeERNS_7MessageE, %function
 290              	_ZN3r2p5Topic4freeERNS_7MessageE:
 291              	.LFB309:
 292              		.loc 4 323 0
 293              		.cfi_startproc
 294              		@ args = 0, pretend = 0, frame = 8
 295              		@ frame_needed = 0, uses_anonymous_args = 0
 296 0000 00B5     		push	{lr}
 297              		.cfi_def_cfa_offset 4
 298              		.cfi_offset 14, -4
 299 0002 83B0     		sub	sp, sp, #12
 300              		.cfi_def_cfa_offset 16
 301 0004 0190     		str	r0, [sp, #4]
 302 0006 0091     		str	r1, [sp]
 303              		.loc 4 325 0
 304 0008 019B     		ldr	r3, [sp, #4]
 305 000a 0833     		adds	r3, r3, #8
 306 000c 1846     		mov	r0, r3
 307 000e 0099     		ldr	r1, [sp]
 308 0010 FFF7FEFF 		bl	_ZN3r2p11MemoryPool_4freeEPv
 309              		.loc 4 326 0
 310 0014 03B0     		add	sp, sp, #12
 311              		.cfi_def_cfa_offset 4
 312              		@ sp needed
 313 0016 5DF804FB 		ldr	pc, [sp], #4
 314              		.cfi_endproc
 315              	.LFE309:
 316              		.size	_ZN3r2p5Topic4freeERNS_7MessageE, .-_ZN3r2p5Topic4freeERNS_7MessageE
 317 001a 00BFAFF3 		.section	.text._ZN3r2p5Topic8has_nameERKS0_PKc,"axG",%progbits,_ZN3r2p5Topic8has_nameERKS0_PKc,com
 317      0080
 318              		.align	2
 319              		.p2align 4,,15
 320              		.weak	_ZN3r2p5Topic8has_nameERKS0_PKc
 321              		.thumb
 322              		.thumb_func
 323              		.type	_ZN3r2p5Topic8has_nameERKS0_PKc, %function
 324              	_ZN3r2p5Topic8has_nameERKS0_PKc:
 325              	.LFB311:
 326              		.loc 4 337 0
 327              		.cfi_startproc
 328              		@ args = 0, pretend = 0, frame = 8
 329              		@ frame_needed = 0, uses_anonymous_args = 0
 330 0000 00B5     		push	{lr}
 331              		.cfi_def_cfa_offset 4
 332              		.cfi_offset 14, -4
 333 0002 83B0     		sub	sp, sp, #12
 334              		.cfi_def_cfa_offset 16
 335 0004 0190     		str	r0, [sp, #4]
 336 0006 0091     		str	r1, [sp]
 337              		.loc 4 339 0
ARM GAS  /tmp/ccKnTyrk.s 			page 7


 338 0008 009B     		ldr	r3, [sp]
 339 000a 002B     		cmp	r3, #0
 340 000c 0DD0     		beq	.L21
 341              		.loc 4 340 0 discriminator 1
 342 000e 0198     		ldr	r0, [sp, #4]
 343 0010 FFF7FEFF 		bl	_ZNK3r2p5Topic8get_nameEv
 344 0014 0346     		mov	r3, r0
 345 0016 1846     		mov	r0, r3
 346 0018 0099     		ldr	r1, [sp]
 347 001a 1022     		movs	r2, #16
 348 001c FFF7FEFF 		bl	strncmp
 349 0020 0346     		mov	r3, r0
 350              		.loc 4 339 0 discriminator 1
 351 0022 002B     		cmp	r3, #0
 352 0024 01D1     		bne	.L21
 353              		.loc 4 339 0 is_stmt 0 discriminator 3
 354 0026 0123     		movs	r3, #1
 355 0028 00E0     		b	.L22
 356              	.L21:
 357              		.loc 4 339 0 discriminator 4
 358 002a 0023     		movs	r3, #0
 359              	.L22:
 360              		.loc 4 341 0 is_stmt 1
 361 002c 1846     		mov	r0, r3
 362 002e 03B0     		add	sp, sp, #12
 363              		.cfi_def_cfa_offset 4
 364              		@ sp needed
 365 0030 5DF804FB 		ldr	pc, [sp], #4
 366              		.cfi_endproc
 367              	.LFE311:
 368              		.size	_ZN3r2p5Topic8has_nameERKS0_PKc, .-_ZN3r2p5Topic8has_nameERKS0_PKc
 369 0034 AFF30080 		.section	.text._ZN3r2p14BaseSubscriber14release_unsafeERNS_7MessageE,"ax",%progbits
 369      AFF30080 
 369      AFF30080 
 370              		.align	2
 371              		.p2align 4,,15
 372              		.global	_ZN3r2p14BaseSubscriber14release_unsafeERNS_7MessageE
 373              		.thumb
 374              		.thumb_func
 375              		.type	_ZN3r2p14BaseSubscriber14release_unsafeERNS_7MessageE, %function
 376              	_ZN3r2p14BaseSubscriber14release_unsafeERNS_7MessageE:
 377              	.LFB324:
 378              		.file 5 "/home/ergae/r2p-sdk/core/Middleware/src/BaseSubscriber.cpp"
 379              		.loc 5 9 0
 380              		.cfi_startproc
 381              		@ args = 0, pretend = 0, frame = 8
 382              		@ frame_needed = 0, uses_anonymous_args = 0
 383 0000 00B5     		push	{lr}
 384              		.cfi_def_cfa_offset 4
 385              		.cfi_offset 14, -4
 386 0002 83B0     		sub	sp, sp, #12
 387              		.cfi_def_cfa_offset 16
 388 0004 0190     		str	r0, [sp, #4]
 389 0006 0091     		str	r1, [sp]
 390              		.loc 5 11 0
 391 0008 019B     		ldr	r3, [sp, #4]
 392 000a 5B68     		ldr	r3, [r3, #4]
ARM GAS  /tmp/ccKnTyrk.s 			page 8


 393 000c 002B     		cmp	r3, #0
 394 000e 02D1     		bne	.L25
 395              		.loc 5 11 0 is_stmt 0 discriminator 1
 396 0010 0C48     		ldr	r0, .L28
 397 0012 FFF7FEFF 		bl	chDbgPanic
 398              	.L25:
 399              		.loc 5 13 0 is_stmt 1
 400 0016 0098     		ldr	r0, [sp]
 401 0018 FFF7FEFF 		bl	_ZN3r2p7Message14release_unsafeEv
 402 001c 0346     		mov	r3, r0
 403 001e 83F00103 		eor	r3, r3, #1
 404 0022 DBB2     		uxtb	r3, r3
 405 0024 002B     		cmp	r3, #0
 406 0026 07D0     		beq	.L26
 407              		.loc 5 14 0
 408 0028 019B     		ldr	r3, [sp, #4]
 409 002a 5B68     		ldr	r3, [r3, #4]
 410 002c 1846     		mov	r0, r3
 411 002e 0099     		ldr	r1, [sp]
 412 0030 FFF7FEFF 		bl	_ZN3r2p5Topic11free_unsafeERNS_7MessageE
 413              		.loc 5 15 0
 414 0034 0023     		movs	r3, #0
 415 0036 00E0     		b	.L27
 416              	.L26:
 417              		.loc 5 17 0
 418 0038 0123     		movs	r3, #1
 419              	.L27:
 420              		.loc 5 18 0
 421 003a 1846     		mov	r0, r3
 422 003c 03B0     		add	sp, sp, #12
 423              		.cfi_def_cfa_offset 4
 424              		@ sp needed
 425 003e 5DF804FB 		ldr	pc, [sp], #4
 426              	.L29:
 427 0042 00BF     		.align	2
 428              	.L28:
 429 0044 00000000 		.word	.LC0
 430              		.cfi_endproc
 431              	.LFE324:
 432              		.size	_ZN3r2p14BaseSubscriber14release_unsafeERNS_7MessageE, .-_ZN3r2p14BaseSubscriber14release_un
 433 0048 AFF30080 		.section	.text._ZN3r2p14BaseSubscriber7releaseERNS_7MessageE,"ax",%progbits
 433      AFF30080 
 434              		.align	2
 435              		.p2align 4,,15
 436              		.global	_ZN3r2p14BaseSubscriber7releaseERNS_7MessageE
 437              		.thumb
 438              		.thumb_func
 439              		.type	_ZN3r2p14BaseSubscriber7releaseERNS_7MessageE, %function
 440              	_ZN3r2p14BaseSubscriber7releaseERNS_7MessageE:
 441              	.LFB325:
 442              		.loc 5 21 0
 443              		.cfi_startproc
 444              		@ args = 0, pretend = 0, frame = 8
 445              		@ frame_needed = 0, uses_anonymous_args = 0
 446 0000 00B5     		push	{lr}
 447              		.cfi_def_cfa_offset 4
 448              		.cfi_offset 14, -4
ARM GAS  /tmp/ccKnTyrk.s 			page 9


 449 0002 83B0     		sub	sp, sp, #12
 450              		.cfi_def_cfa_offset 16
 451 0004 0190     		str	r0, [sp, #4]
 452 0006 0091     		str	r1, [sp]
 453              		.loc 5 23 0
 454 0008 019B     		ldr	r3, [sp, #4]
 455 000a 5B68     		ldr	r3, [r3, #4]
 456 000c 002B     		cmp	r3, #0
 457 000e 02D1     		bne	.L31
 458              		.loc 5 23 0 is_stmt 0 discriminator 1
 459 0010 0C48     		ldr	r0, .L34
 460 0012 FFF7FEFF 		bl	chDbgPanic
 461              	.L31:
 462              		.loc 5 25 0 is_stmt 1
 463 0016 0098     		ldr	r0, [sp]
 464 0018 FFF7FEFF 		bl	_ZN3r2p7Message7releaseEv
 465 001c 0346     		mov	r3, r0
 466 001e 83F00103 		eor	r3, r3, #1
 467 0022 DBB2     		uxtb	r3, r3
 468 0024 002B     		cmp	r3, #0
 469 0026 07D0     		beq	.L32
 470              		.loc 5 26 0
 471 0028 019B     		ldr	r3, [sp, #4]
 472 002a 5B68     		ldr	r3, [r3, #4]
 473 002c 1846     		mov	r0, r3
 474 002e 0099     		ldr	r1, [sp]
 475 0030 FFF7FEFF 		bl	_ZN3r2p5Topic4freeERNS_7MessageE
 476              		.loc 5 27 0
 477 0034 0023     		movs	r3, #0
 478 0036 00E0     		b	.L33
 479              	.L32:
 480              		.loc 5 29 0
 481 0038 0123     		movs	r3, #1
 482              	.L33:
 483              		.loc 5 30 0
 484 003a 1846     		mov	r0, r3
 485 003c 03B0     		add	sp, sp, #12
 486              		.cfi_def_cfa_offset 4
 487              		@ sp needed
 488 003e 5DF804FB 		ldr	pc, [sp], #4
 489              	.L35:
 490 0042 00BF     		.align	2
 491              	.L34:
 492 0044 00000000 		.word	.LC0
 493              		.cfi_endproc
 494              	.LFE325:
 495              		.size	_ZN3r2p14BaseSubscriber7releaseERNS_7MessageE, .-_ZN3r2p14BaseSubscriber7releaseERNS_7Messag
 496 0048 AFF30080 		.section	.text._ZN3r2p14BaseSubscriberC2Ev,"ax",%progbits
 496      AFF30080 
 497              		.align	2
 498              		.p2align 4,,15
 499              		.global	_ZN3r2p14BaseSubscriberC2Ev
 500              		.thumb
 501              		.thumb_func
 502              		.type	_ZN3r2p14BaseSubscriberC2Ev, %function
 503              	_ZN3r2p14BaseSubscriberC2Ev:
 504              	.LFB327:
ARM GAS  /tmp/ccKnTyrk.s 			page 10


 505              		.loc 5 33 0
 506              		.cfi_startproc
 507              		@ args = 0, pretend = 0, frame = 8
 508              		@ frame_needed = 0, uses_anonymous_args = 0
 509 0000 00B5     		push	{lr}
 510              		.cfi_def_cfa_offset 4
 511              		.cfi_offset 14, -4
 512 0002 83B0     		sub	sp, sp, #12
 513              		.cfi_def_cfa_offset 16
 514 0004 0190     		str	r0, [sp, #4]
 515              	.LBB2:
 516              		.loc 5 35 0
 517 0006 0198     		ldr	r0, [sp, #4]
 518 0008 FFF7FEFF 		bl	_ZN3r2p10UncopyableC2Ev
 519 000c 019B     		ldr	r3, [sp, #4]
 520 000e 054A     		ldr	r2, .L39
 521 0010 1A60     		str	r2, [r3]
 522 0012 019B     		ldr	r3, [sp, #4]
 523 0014 0022     		movs	r2, #0
 524 0016 5A60     		str	r2, [r3, #4]
 525              	.LBE2:
 526              		.loc 5 36 0
 527 0018 019B     		ldr	r3, [sp, #4]
 528 001a 1846     		mov	r0, r3
 529 001c 03B0     		add	sp, sp, #12
 530              		.cfi_def_cfa_offset 4
 531              		@ sp needed
 532 001e 5DF804FB 		ldr	pc, [sp], #4
 533              	.L40:
 534 0022 00BF     		.align	2
 535              	.L39:
 536 0024 08000000 		.word	_ZTVN3r2p14BaseSubscriberE+8
 537              		.cfi_endproc
 538              	.LFE327:
 539              		.size	_ZN3r2p14BaseSubscriberC2Ev, .-_ZN3r2p14BaseSubscriberC2Ev
 540              		.global	_ZN3r2p14BaseSubscriberC1Ev
 541              		.thumb_set _ZN3r2p14BaseSubscriberC1Ev,_ZN3r2p14BaseSubscriberC2Ev
 542 0028 AFF30080 		.section	.text._ZN3r2p14BaseSubscriberD2Ev,"ax",%progbits
 542      AFF30080 
 543              		.align	2
 544              		.p2align 4,,15
 545              		.global	_ZN3r2p14BaseSubscriberD2Ev
 546              		.thumb
 547              		.thumb_func
 548              		.type	_ZN3r2p14BaseSubscriberD2Ev, %function
 549              	_ZN3r2p14BaseSubscriberD2Ev:
 550              	.LFB330:
 551              		.loc 5 39 0
 552              		.cfi_startproc
 553              		@ args = 0, pretend = 0, frame = 8
 554              		@ frame_needed = 0, uses_anonymous_args = 0
 555 0000 00B5     		push	{lr}
 556              		.cfi_def_cfa_offset 4
 557              		.cfi_offset 14, -4
 558 0002 83B0     		sub	sp, sp, #12
 559              		.cfi_def_cfa_offset 16
 560 0004 0190     		str	r0, [sp, #4]
ARM GAS  /tmp/ccKnTyrk.s 			page 11


 561              	.LBB3:
 562              		.loc 5 39 0
 563 0006 019B     		ldr	r3, [sp, #4]
 564 0008 074A     		ldr	r2, .L45
 565 000a 1A60     		str	r2, [r3]
 566 000c 0198     		ldr	r0, [sp, #4]
 567 000e FFF7FEFF 		bl	_ZN3r2p10UncopyableD2Ev
 568              	.LBE3:
 569 0012 0023     		movs	r3, #0
 570 0014 002B     		cmp	r3, #0
 571 0016 02D0     		beq	.L43
 572              		.loc 5 39 0 is_stmt 0 discriminator 2
 573 0018 0198     		ldr	r0, [sp, #4]
 574 001a FFF7FEFF 		bl	_ZdlPv
 575              	.L43:
 576              		.loc 5 39 0 discriminator 4
 577 001e 019B     		ldr	r3, [sp, #4]
 578 0020 1846     		mov	r0, r3
 579 0022 03B0     		add	sp, sp, #12
 580              		.cfi_def_cfa_offset 4
 581              		@ sp needed
 582 0024 5DF804FB 		ldr	pc, [sp], #4
 583              	.L46:
 584              		.align	2
 585              	.L45:
 586 0028 08000000 		.word	_ZTVN3r2p14BaseSubscriberE+8
 587              		.cfi_endproc
 588              	.LFE330:
 589              		.size	_ZN3r2p14BaseSubscriberD2Ev, .-_ZN3r2p14BaseSubscriberD2Ev
 590              		.global	_ZN3r2p14BaseSubscriberD1Ev
 591              		.thumb_set _ZN3r2p14BaseSubscriberD1Ev,_ZN3r2p14BaseSubscriberD2Ev
 592 002c AFF30080 		.section	.text._ZN3r2p14BaseSubscriberD0Ev,"ax",%progbits
 593              		.align	2
 594              		.p2align 4,,15
 595              		.global	_ZN3r2p14BaseSubscriberD0Ev
 596              		.thumb
 597              		.thumb_func
 598              		.type	_ZN3r2p14BaseSubscriberD0Ev, %function
 599              	_ZN3r2p14BaseSubscriberD0Ev:
 600              	.LFB332:
 601              		.loc 5 39 0 is_stmt 1
 602              		.cfi_startproc
 603              		@ args = 0, pretend = 0, frame = 8
 604              		@ frame_needed = 0, uses_anonymous_args = 0
 605 0000 00B5     		push	{lr}
 606              		.cfi_def_cfa_offset 4
 607              		.cfi_offset 14, -4
 608 0002 83B0     		sub	sp, sp, #12
 609              		.cfi_def_cfa_offset 16
 610 0004 0190     		str	r0, [sp, #4]
 611              		.loc 5 39 0
 612 0006 0198     		ldr	r0, [sp, #4]
 613 0008 FFF7FEFF 		bl	_ZN3r2p14BaseSubscriberD2Ev
 614 000c 0198     		ldr	r0, [sp, #4]
 615 000e FFF7FEFF 		bl	_ZdlPv
 616 0012 019B     		ldr	r3, [sp, #4]
 617 0014 1846     		mov	r0, r3
ARM GAS  /tmp/ccKnTyrk.s 			page 12


 618 0016 03B0     		add	sp, sp, #12
 619              		.cfi_def_cfa_offset 4
 620              		@ sp needed
 621 0018 5DF804FB 		ldr	pc, [sp], #4
 622              		.cfi_endproc
 623              	.LFE332:
 624              		.size	_ZN3r2p14BaseSubscriberD0Ev, .-_ZN3r2p14BaseSubscriberD0Ev
 625 001c AFF30080 		.section	.text._ZN3r2p14BaseSubscriber9has_topicERKS0_PKc,"ax",%progbits
 626              		.align	2
 627              		.p2align 4,,15
 628              		.global	_ZN3r2p14BaseSubscriber9has_topicERKS0_PKc
 629              		.thumb
 630              		.thumb_func
 631              		.type	_ZN3r2p14BaseSubscriber9has_topicERKS0_PKc, %function
 632              	_ZN3r2p14BaseSubscriber9has_topicERKS0_PKc:
 633              	.LFB333:
 634              		.loc 5 42 0
 635              		.cfi_startproc
 636              		@ args = 0, pretend = 0, frame = 8
 637              		@ frame_needed = 0, uses_anonymous_args = 0
 638 0000 00B5     		push	{lr}
 639              		.cfi_def_cfa_offset 4
 640              		.cfi_offset 14, -4
 641 0002 83B0     		sub	sp, sp, #12
 642              		.cfi_def_cfa_offset 16
 643 0004 0190     		str	r0, [sp, #4]
 644 0006 0091     		str	r1, [sp]
 645              		.loc 5 44 0
 646 0008 019B     		ldr	r3, [sp, #4]
 647 000a 5B68     		ldr	r3, [r3, #4]
 648 000c 1846     		mov	r0, r3
 649 000e 0099     		ldr	r1, [sp]
 650 0010 FFF7FEFF 		bl	_ZN3r2p5Topic8has_nameERKS0_PKc
 651 0014 0346     		mov	r3, r0
 652              		.loc 5 45 0
 653 0016 1846     		mov	r0, r3
 654 0018 03B0     		add	sp, sp, #12
 655              		.cfi_def_cfa_offset 4
 656              		@ sp needed
 657 001a 5DF804FB 		ldr	pc, [sp], #4
 658              		.cfi_endproc
 659              	.LFE333:
 660              		.size	_ZN3r2p14BaseSubscriber9has_topicERKS0_PKc, .-_ZN3r2p14BaseSubscriber9has_topicERKS0_PKc
 661              		.weak	_ZTVN3r2p14BaseSubscriberE
 662 001e 00BF     		.section	.rodata._ZTVN3r2p14BaseSubscriberE,"aG",%progbits,_ZTVN3r2p14BaseSubscriberE,comdat
 663              		.align	3
 664              		.type	_ZTVN3r2p14BaseSubscriberE, %object
 665              		.size	_ZTVN3r2p14BaseSubscriberE, 36
 666              	_ZTVN3r2p14BaseSubscriberE:
 667 0000 00000000 		.word	0
 668 0004 00000000 		.word	0
 669 0008 00000000 		.word	__cxa_pure_virtual
 670 000c 00000000 		.word	__cxa_pure_virtual
 671 0010 00000000 		.word	__cxa_pure_virtual
 672 0014 00000000 		.word	__cxa_pure_virtual
 673 0018 00000000 		.word	__cxa_pure_virtual
 674 001c 00000000 		.word	__cxa_pure_virtual
ARM GAS  /tmp/ccKnTyrk.s 			page 13


 675 0020 00000000 		.word	__cxa_pure_virtual
 676 0024 00000000 		.text
 677              	.Letext0:
 678              		.file 6 "/home/ergae/r2p-sdk/tools/gcc-arm-none-eabi-4_9-2014q4/lib/gcc/arm-none-eabi/4.9.3/includ
 679              		.file 7 "/home/ergae/r2p-sdk/tools/gcc-arm-none-eabi-4_9-2014q4/arm-none-eabi/include/machine/_def
 680              		.file 8 "/home/ergae/r2p-sdk/tools/gcc-arm-none-eabi-4_9-2014q4/arm-none-eabi/include/c++/4.9.3/cs
 681              		.file 9 "/home/ergae/r2p-sdk/tools/gcc-arm-none-eabi-4_9-2014q4/arm-none-eabi/include/string.h"
 682              		.file 10 "<built-in>"
 683              		.file 11 "/home/ergae/r2p-sdk/core/Middleware/include/r2p/Time.hpp"
 684              		.file 12 "/home/ergae/r2p-sdk/core/Middleware/include/r2p/StaticList.hpp"
 685              		.file 13 "/home/ergae/r2p-sdk/core/Middleware/include/r2p/BaseSubscriber.hpp"
 686              		.file 14 "/home/ergae/r2p-sdk/tools/gcc-arm-none-eabi-4_9-2014q4/arm-none-eabi/include/stdint.h"
 687              		.file 15 "/home/ergae/r2p-sdk/core/ChibiOS/os/ports/GCC/ARMCMx/chtypes.h"
 688              		.file 16 "/home/ergae/r2p-sdk/core/ChibiOS/os/kernel/include/chlists.h"
 689              		.file 17 "/home/ergae/r2p-sdk/core/ChibiOS/os/kernel/include/chthreads.h"
 690              		.file 18 "/home/ergae/r2p-sdk/core/ChibiOS/os/ports/GCC/ARMCMx/chcore_v7m.h"
 691              		.file 19 "/home/ergae/r2p-sdk/core/ChibiOS/os/kernel/include/chschd.h"
 692              		.file 20 "/home/ergae/r2p-sdk/core/ChibiOS/os/kernel/include/chmtx.h"
 693              		.file 21 "/home/ergae/r2p-sdk/core/ChibiOS/os/kernel/include/chmemcore.h"
 694              		.file 22 "/home/ergae/r2p-sdk/core/ChibiOS/os/kernel/include/chmempools.h"