ARM GAS  /tmp/cchR4a3P.s 			page 1


   1              		.syntax unified
   2              		.cpu cortex-m4
   3              		.eabi_attribute 27, 3
   4              		.eabi_attribute 28, 1
   5              		.fpu fpv4-sp-d16
   6              		.eabi_attribute 20, 1
   7              		.eabi_attribute 21, 1
   8              		.eabi_attribute 23, 3
   9              		.eabi_attribute 24, 1
  10              		.eabi_attribute 25, 1
  11              		.eabi_attribute 26, 1
  12              		.eabi_attribute 30, 6
  13              		.eabi_attribute 34, 1
  14              		.eabi_attribute 18, 4
  15              		.thumb
  16              		.file	"chcond.c"
  17              		.text
  18              	.Ltext0:
  19              		.cfi_sections	.debug_frame
  20              		.section	.text.prio_insert,"ax",%progbits
  21              		.align	2
  22              		.p2align 4,,15
  23              		.thumb
  24              		.thumb_func
  25              		.type	prio_insert, %function
  26              	prio_insert:
  27              	.LFB0:
  28              		.file 1 "/home/ergae/r2p-sdk/core/ChibiOS/os/kernel/include/chinline.h"
  29              		.loc 1 41 0
  30              		.cfi_startproc
  31              		@ args = 0, pretend = 0, frame = 16
  32              		@ frame_needed = 0, uses_anonymous_args = 0
  33              		@ link register save eliminated.
  34 0000 84B0     		sub	sp, sp, #16
  35              		.cfi_def_cfa_offset 16
  36 0002 0190     		str	r0, [sp, #4]
  37 0004 0091     		str	r1, [sp]
  38              		.loc 1 43 0
  39 0006 009B     		ldr	r3, [sp]
  40 0008 0393     		str	r3, [sp, #12]
  41              	.L3:
  42              		.loc 1 45 0 discriminator 2
  43 000a 039B     		ldr	r3, [sp, #12]
  44 000c 1B68     		ldr	r3, [r3]
  45 000e 0393     		str	r3, [sp, #12]
  46              		.loc 1 46 0 discriminator 2
  47 0010 039A     		ldr	r2, [sp, #12]
  48 0012 009B     		ldr	r3, [sp]
  49 0014 9A42     		cmp	r2, r3
  50 0016 05D0     		beq	.L2
  51              		.loc 1 46 0 is_stmt 0 discriminator 1
  52 0018 039B     		ldr	r3, [sp, #12]
  53 001a 9A68     		ldr	r2, [r3, #8]
  54 001c 019B     		ldr	r3, [sp, #4]
  55 001e 9B68     		ldr	r3, [r3, #8]
  56 0020 9A42     		cmp	r2, r3
  57 0022 F2D2     		bcs	.L3
ARM GAS  /tmp/cchR4a3P.s 			page 2


  58              	.L2:
  59              		.loc 1 47 0 is_stmt 1
  60 0024 019B     		ldr	r3, [sp, #4]
  61 0026 039A     		ldr	r2, [sp, #12]
  62 0028 1A60     		str	r2, [r3]
  63              		.loc 1 48 0
  64 002a 039B     		ldr	r3, [sp, #12]
  65 002c 5A68     		ldr	r2, [r3, #4]
  66 002e 019B     		ldr	r3, [sp, #4]
  67 0030 5A60     		str	r2, [r3, #4]
  68              		.loc 1 49 0
  69 0032 019B     		ldr	r3, [sp, #4]
  70 0034 5B68     		ldr	r3, [r3, #4]
  71 0036 039A     		ldr	r2, [sp, #12]
  72 0038 0199     		ldr	r1, [sp, #4]
  73 003a 5160     		str	r1, [r2, #4]
  74 003c 039A     		ldr	r2, [sp, #12]
  75 003e 5268     		ldr	r2, [r2, #4]
  76 0040 1A60     		str	r2, [r3]
  77              		.loc 1 50 0
  78 0042 04B0     		add	sp, sp, #16
  79              		.cfi_def_cfa_offset 0
  80              		@ sp needed
  81 0044 7047     		bx	lr
  82              		.cfi_endproc
  83              	.LFE0:
  84              		.size	prio_insert, .-prio_insert
  85 0046 00BFAFF3 		.section	.text.fifo_remove,"ax",%progbits
  85      0080AFF3 
  85      0080
  86              		.align	2
  87              		.p2align 4,,15
  88              		.thumb
  89              		.thumb_func
  90              		.type	fifo_remove, %function
  91              	fifo_remove:
  92              	.LFB2:
  93              		.loc 1 59 0
  94              		.cfi_startproc
  95              		@ args = 0, pretend = 0, frame = 16
  96              		@ frame_needed = 0, uses_anonymous_args = 0
  97              		@ link register save eliminated.
  98 0000 84B0     		sub	sp, sp, #16
  99              		.cfi_def_cfa_offset 16
 100 0002 0190     		str	r0, [sp, #4]
 101              		.loc 1 60 0
 102 0004 019B     		ldr	r3, [sp, #4]
 103 0006 1B68     		ldr	r3, [r3]
 104 0008 0393     		str	r3, [sp, #12]
 105              		.loc 1 62 0
 106 000a 039B     		ldr	r3, [sp, #12]
 107 000c 1A68     		ldr	r2, [r3]
 108 000e 019B     		ldr	r3, [sp, #4]
 109 0010 1A60     		str	r2, [r3]
 110 0012 019B     		ldr	r3, [sp, #4]
 111 0014 1B68     		ldr	r3, [r3]
 112 0016 019A     		ldr	r2, [sp, #4]
ARM GAS  /tmp/cchR4a3P.s 			page 3


 113 0018 5A60     		str	r2, [r3, #4]
 114              		.loc 1 63 0
 115 001a 039B     		ldr	r3, [sp, #12]
 116              		.loc 1 64 0
 117 001c 1846     		mov	r0, r3
 118 001e 04B0     		add	sp, sp, #16
 119              		.cfi_def_cfa_offset 0
 120              		@ sp needed
 121 0020 7047     		bx	lr
 122              		.cfi_endproc
 123              	.LFE2:
 124              		.size	fifo_remove, .-fifo_remove
 125 0022 00BFAFF3 		.section	.rodata
 125      0080AFF3 
 125      0080AFF3 
 125      0080
 126              		.align	2
 127              	.LC0:
 128 0000 22636843 		.ascii	"\"chCondInit\"()\000"
 128      6F6E6449 
 128      6E697422 
 128      282900
 129              		.section	.text.chCondInit,"ax",%progbits
 130              		.align	2
 131              		.p2align 4,,15
 132              		.global	chCondInit
 133              		.thumb
 134              		.thumb_func
 135              		.type	chCondInit, %function
 136              	chCondInit:
 137              	.LFB7:
 138              		.file 2 "/home/ergae/r2p-sdk/core/ChibiOS/os/kernel/src/chcond.c"
 139              		.loc 2 59 0
 140              		.cfi_startproc
 141              		@ args = 0, pretend = 0, frame = 8
 142              		@ frame_needed = 0, uses_anonymous_args = 0
 143 0000 00B5     		push	{lr}
 144              		.cfi_def_cfa_offset 4
 145              		.cfi_offset 14, -4
 146 0002 83B0     		sub	sp, sp, #12
 147              		.cfi_def_cfa_offset 16
 148 0004 0190     		str	r0, [sp, #4]
 149              		.loc 2 61 0
 150 0006 019B     		ldr	r3, [sp, #4]
 151 0008 002B     		cmp	r3, #0
 152 000a 02D1     		bne	.L7
 153              		.loc 2 61 0 is_stmt 0 discriminator 1
 154 000c 0648     		ldr	r0, .L8
 155 000e FFF7FEFF 		bl	chDbgPanic
 156              	.L7:
 157              		.loc 2 63 0 is_stmt 1
 158 0012 019A     		ldr	r2, [sp, #4]
 159 0014 019B     		ldr	r3, [sp, #4]
 160 0016 5A60     		str	r2, [r3, #4]
 161 0018 019B     		ldr	r3, [sp, #4]
 162 001a 5A68     		ldr	r2, [r3, #4]
 163 001c 019B     		ldr	r3, [sp, #4]
ARM GAS  /tmp/cchR4a3P.s 			page 4


 164 001e 1A60     		str	r2, [r3]
 165              		.loc 2 64 0
 166 0020 03B0     		add	sp, sp, #12
 167              		.cfi_def_cfa_offset 4
 168              		@ sp needed
 169 0022 5DF804FB 		ldr	pc, [sp], #4
 170              	.L9:
 171 0026 00BF     		.align	2
 172              	.L8:
 173 0028 00000000 		.word	.LC0
 174              		.cfi_endproc
 175              	.LFE7:
 176              		.size	chCondInit, .-chCondInit
 177 002c AFF30080 		.section	.rodata
 178 000f 00       		.align	2
 179              	.LC1:
 180 0010 22636843 		.ascii	"\"chCondSignal\"()\000"
 180      6F6E6453 
 180      69676E61 
 180      6C222829 
 180      00
 181              		.section	.text.chCondSignal,"ax",%progbits
 182              		.align	2
 183              		.p2align 4,,15
 184              		.global	chCondSignal
 185              		.thumb
 186              		.thumb_func
 187              		.type	chCondSignal, %function
 188              	chCondSignal:
 189              	.LFB8:
 190              		.loc 2 73 0
 191              		.cfi_startproc
 192              		@ args = 0, pretend = 0, frame = 8
 193              		@ frame_needed = 0, uses_anonymous_args = 0
 194 0000 00B5     		push	{lr}
 195              		.cfi_def_cfa_offset 4
 196              		.cfi_offset 14, -4
 197 0002 83B0     		sub	sp, sp, #12
 198              		.cfi_def_cfa_offset 16
 199 0004 0190     		str	r0, [sp, #4]
 200              		.loc 2 75 0
 201 0006 019B     		ldr	r3, [sp, #4]
 202 0008 002B     		cmp	r3, #0
 203 000a 02D1     		bne	.L11
 204              		.loc 2 75 0 is_stmt 0 discriminator 1
 205 000c 0E48     		ldr	r0, .L13
 206 000e FFF7FEFF 		bl	chDbgPanic
 207              	.L11:
 208              	.LBB2:
 209              		.loc 2 77 0 is_stmt 1
 210 0012 2023     		movs	r3, #32
 211              	@ 77 "/home/ergae/r2p-sdk/core/ChibiOS/os/kernel/src/chcond.c" 1
 212 0014 83F31188 		msr     BASEPRI, r3
 213              	@ 0 "" 2
 214              		.thumb
 215              	.LBE2:
 216 0018 FFF7FEFF 		bl	dbg_check_lock
ARM GAS  /tmp/cchR4a3P.s 			page 5


 217              		.loc 2 78 0
 218 001c 019B     		ldr	r3, [sp, #4]
 219 001e 1A68     		ldr	r2, [r3]
 220 0020 019B     		ldr	r3, [sp, #4]
 221 0022 9A42     		cmp	r2, r3
 222 0024 08D0     		beq	.L12
 223              		.loc 2 79 0
 224 0026 019B     		ldr	r3, [sp, #4]
 225 0028 1846     		mov	r0, r3
 226 002a FFF7FEFF 		bl	fifo_remove
 227 002e 0346     		mov	r3, r0
 228 0030 1846     		mov	r0, r3
 229 0032 0021     		movs	r1, #0
 230 0034 FFF7FEFF 		bl	chSchWakeupS
 231              	.L12:
 232              		.loc 2 80 0
 233 0038 FFF7FEFF 		bl	dbg_check_unlock
 234              	.LBB3:
 235 003c 0023     		movs	r3, #0
 236              	@ 80 "/home/ergae/r2p-sdk/core/ChibiOS/os/kernel/src/chcond.c" 1
 237 003e 83F31188 		msr     BASEPRI, r3
 238              	@ 0 "" 2
 239              		.thumb
 240              	.LBE3:
 241              		.loc 2 81 0
 242 0042 03B0     		add	sp, sp, #12
 243              		.cfi_def_cfa_offset 4
 244              		@ sp needed
 245 0044 5DF804FB 		ldr	pc, [sp], #4
 246              	.L14:
 247              		.align	2
 248              	.L13:
 249 0048 10000000 		.word	.LC1
 250              		.cfi_endproc
 251              	.LFE8:
 252              		.size	chCondSignal, .-chCondSignal
 253 004c AFF30080 		.section	.rodata
 254 0021 000000   		.align	2
 255              	.LC2:
 256 0024 22636843 		.ascii	"\"chCondSignalI\"()\000"
 256      6F6E6453 
 256      69676E61 
 256      6C492228 
 256      2900
 257              		.section	.text.chCondSignalI,"ax",%progbits
 258              		.align	2
 259              		.p2align 4,,15
 260              		.global	chCondSignalI
 261              		.thumb
 262              		.thumb_func
 263              		.type	chCondSignalI, %function
 264              	chCondSignalI:
 265              	.LFB9:
 266              		.loc 2 94 0
 267              		.cfi_startproc
 268              		@ args = 0, pretend = 0, frame = 8
 269              		@ frame_needed = 0, uses_anonymous_args = 0
ARM GAS  /tmp/cchR4a3P.s 			page 6


 270 0000 00B5     		push	{lr}
 271              		.cfi_def_cfa_offset 4
 272              		.cfi_offset 14, -4
 273 0002 83B0     		sub	sp, sp, #12
 274              		.cfi_def_cfa_offset 16
 275 0004 0190     		str	r0, [sp, #4]
 276              		.loc 2 96 0
 277 0006 FFF7FEFF 		bl	chDbgCheckClassI
 278              		.loc 2 97 0
 279 000a 019B     		ldr	r3, [sp, #4]
 280 000c 002B     		cmp	r3, #0
 281 000e 02D1     		bne	.L16
 282              		.loc 2 97 0 is_stmt 0 discriminator 1
 283 0010 0A48     		ldr	r0, .L18
 284 0012 FFF7FEFF 		bl	chDbgPanic
 285              	.L16:
 286              		.loc 2 99 0 is_stmt 1
 287 0016 019B     		ldr	r3, [sp, #4]
 288 0018 1A68     		ldr	r2, [r3]
 289 001a 019B     		ldr	r3, [sp, #4]
 290 001c 9A42     		cmp	r2, r3
 291 001e 0AD0     		beq	.L15
 292              		.loc 2 100 0
 293 0020 019B     		ldr	r3, [sp, #4]
 294 0022 1846     		mov	r0, r3
 295 0024 FFF7FEFF 		bl	fifo_remove
 296 0028 0346     		mov	r3, r0
 297 002a 1846     		mov	r0, r3
 298 002c FFF7FEFF 		bl	chSchReadyI
 299 0030 0246     		mov	r2, r0
 300 0032 0023     		movs	r3, #0
 301 0034 9362     		str	r3, [r2, #40]
 302              	.L15:
 303              		.loc 2 101 0
 304 0036 03B0     		add	sp, sp, #12
 305              		.cfi_def_cfa_offset 4
 306              		@ sp needed
 307 0038 5DF804FB 		ldr	pc, [sp], #4
 308              	.L19:
 309              		.align	2
 310              	.L18:
 311 003c 24000000 		.word	.LC2
 312              		.cfi_endproc
 313              	.LFE9:
 314              		.size	chCondSignalI, .-chCondSignalI
 315              		.section	.text.chCondBroadcast,"ax",%progbits
 316              		.align	2
 317              		.p2align 4,,15
 318              		.global	chCondBroadcast
 319              		.thumb
 320              		.thumb_func
 321              		.type	chCondBroadcast, %function
 322              	chCondBroadcast:
 323              	.LFB10:
 324              		.loc 2 110 0
 325              		.cfi_startproc
 326              		@ args = 0, pretend = 0, frame = 8
ARM GAS  /tmp/cchR4a3P.s 			page 7


 327              		@ frame_needed = 0, uses_anonymous_args = 0
 328 0000 00B5     		push	{lr}
 329              		.cfi_def_cfa_offset 4
 330              		.cfi_offset 14, -4
 331 0002 83B0     		sub	sp, sp, #12
 332              		.cfi_def_cfa_offset 16
 333 0004 0190     		str	r0, [sp, #4]
 334              	.LBB4:
 335              		.loc 2 112 0
 336 0006 2023     		movs	r3, #32
 337              	@ 112 "/home/ergae/r2p-sdk/core/ChibiOS/os/kernel/src/chcond.c" 1
 338 0008 83F31188 		msr     BASEPRI, r3
 339              	@ 0 "" 2
 340              		.thumb
 341              	.LBE4:
 342 000c FFF7FEFF 		bl	dbg_check_lock
 343              		.loc 2 113 0
 344 0010 0198     		ldr	r0, [sp, #4]
 345 0012 FFF7FEFF 		bl	chCondBroadcastI
 346              		.loc 2 114 0
 347 0016 FFF7FEFF 		bl	chSchRescheduleS
 348              		.loc 2 115 0
 349 001a FFF7FEFF 		bl	dbg_check_unlock
 350              	.LBB5:
 351 001e 0023     		movs	r3, #0
 352              	@ 115 "/home/ergae/r2p-sdk/core/ChibiOS/os/kernel/src/chcond.c" 1
 353 0020 83F31188 		msr     BASEPRI, r3
 354              	@ 0 "" 2
 355              		.thumb
 356              	.LBE5:
 357              		.loc 2 116 0
 358 0024 03B0     		add	sp, sp, #12
 359              		.cfi_def_cfa_offset 4
 360              		@ sp needed
 361 0026 5DF804FB 		ldr	pc, [sp], #4
 362              		.cfi_endproc
 363              	.LFE10:
 364              		.size	chCondBroadcast, .-chCondBroadcast
 365 002a 00BFAFF3 		.section	.rodata
 365      0080
 366 0036 0000     		.align	2
 367              	.LC3:
 368 0038 22636843 		.ascii	"\"chCondBroadcastI\"()\000"
 368      6F6E6442 
 368      726F6164 
 368      63617374 
 368      49222829 
 369              		.section	.text.chCondBroadcastI,"ax",%progbits
 370              		.align	2
 371              		.p2align 4,,15
 372              		.global	chCondBroadcastI
 373              		.thumb
 374              		.thumb_func
 375              		.type	chCondBroadcastI, %function
 376              	chCondBroadcastI:
 377              	.LFB11:
 378              		.loc 2 129 0
ARM GAS  /tmp/cchR4a3P.s 			page 8


 379              		.cfi_startproc
 380              		@ args = 0, pretend = 0, frame = 8
 381              		@ frame_needed = 0, uses_anonymous_args = 0
 382 0000 00B5     		push	{lr}
 383              		.cfi_def_cfa_offset 4
 384              		.cfi_offset 14, -4
 385 0002 83B0     		sub	sp, sp, #12
 386              		.cfi_def_cfa_offset 16
 387 0004 0190     		str	r0, [sp, #4]
 388              		.loc 2 131 0
 389 0006 FFF7FEFF 		bl	chDbgCheckClassI
 390              		.loc 2 132 0
 391 000a 019B     		ldr	r3, [sp, #4]
 392 000c 002B     		cmp	r3, #0
 393 000e 02D1     		bne	.L22
 394              		.loc 2 132 0 is_stmt 0 discriminator 1
 395 0010 0B48     		ldr	r0, .L25
 396 0012 FFF7FEFF 		bl	chDbgPanic
 397              	.L22:
 398              		.loc 2 137 0 is_stmt 1
 399 0016 0BE0     		b	.L23
 400              	.L24:
 401              		.loc 2 138 0
 402 0018 019B     		ldr	r3, [sp, #4]
 403 001a 1846     		mov	r0, r3
 404 001c FFF7FEFF 		bl	fifo_remove
 405 0020 0346     		mov	r3, r0
 406 0022 1846     		mov	r0, r3
 407 0024 FFF7FEFF 		bl	chSchReadyI
 408 0028 0246     		mov	r2, r0
 409 002a 6FF00103 		mvn	r3, #1
 410 002e 9362     		str	r3, [r2, #40]
 411              	.L23:
 412              		.loc 2 137 0
 413 0030 019B     		ldr	r3, [sp, #4]
 414 0032 1A68     		ldr	r2, [r3]
 415 0034 019B     		ldr	r3, [sp, #4]
 416 0036 9A42     		cmp	r2, r3
 417 0038 EED1     		bne	.L24
 418              		.loc 2 139 0
 419 003a 03B0     		add	sp, sp, #12
 420              		.cfi_def_cfa_offset 4
 421              		@ sp needed
 422 003c 5DF804FB 		ldr	pc, [sp], #4
 423              	.L26:
 424              		.align	2
 425              	.L25:
 426 0040 38000000 		.word	.LC3
 427              		.cfi_endproc
 428              	.LFE11:
 429              		.size	chCondBroadcastI, .-chCondBroadcastI
 430 0044 AFF30080 		.section	.text.chCondWait,"ax",%progbits
 430      AFF30080 
 430      AFF30080 
 431              		.align	2
 432              		.p2align 4,,15
 433              		.global	chCondWait
ARM GAS  /tmp/cchR4a3P.s 			page 9


 434              		.thumb
 435              		.thumb_func
 436              		.type	chCondWait, %function
 437              	chCondWait:
 438              	.LFB12:
 439              		.loc 2 158 0
 440              		.cfi_startproc
 441              		@ args = 0, pretend = 0, frame = 16
 442              		@ frame_needed = 0, uses_anonymous_args = 0
 443 0000 00B5     		push	{lr}
 444              		.cfi_def_cfa_offset 4
 445              		.cfi_offset 14, -4
 446 0002 85B0     		sub	sp, sp, #20
 447              		.cfi_def_cfa_offset 24
 448 0004 0190     		str	r0, [sp, #4]
 449              	.LBB6:
 450              		.loc 2 161 0
 451 0006 2023     		movs	r3, #32
 452              	@ 161 "/home/ergae/r2p-sdk/core/ChibiOS/os/kernel/src/chcond.c" 1
 453 0008 83F31188 		msr     BASEPRI, r3
 454              	@ 0 "" 2
 455              		.thumb
 456              	.LBE6:
 457 000c FFF7FEFF 		bl	dbg_check_lock
 458              		.loc 2 162 0
 459 0010 0198     		ldr	r0, [sp, #4]
 460 0012 FFF7FEFF 		bl	chCondWaitS
 461 0016 0390     		str	r0, [sp, #12]
 462              		.loc 2 163 0
 463 0018 FFF7FEFF 		bl	dbg_check_unlock
 464              	.LBB7:
 465 001c 0023     		movs	r3, #0
 466              	@ 163 "/home/ergae/r2p-sdk/core/ChibiOS/os/kernel/src/chcond.c" 1
 467 001e 83F31188 		msr     BASEPRI, r3
 468              	@ 0 "" 2
 469              		.thumb
 470              	.LBE7:
 471              		.loc 2 164 0
 472 0022 039B     		ldr	r3, [sp, #12]
 473              		.loc 2 165 0
 474 0024 1846     		mov	r0, r3
 475 0026 05B0     		add	sp, sp, #20
 476              		.cfi_def_cfa_offset 4
 477              		@ sp needed
 478 0028 5DF804FB 		ldr	pc, [sp], #4
 479              		.cfi_endproc
 480              	.LFE12:
 481              		.size	chCondWait, .-chCondWait
 482 002c AFF30080 		.section	.rodata
 483 004d 000000   		.align	2
 484              	.LC4:
 485 0050 22636843 		.ascii	"\"chCondWaitS\"()\000"
 485      6F6E6457 
 485      61697453 
 485      22282900 
 486              		.align	2
 487              	.LC5:
ARM GAS  /tmp/cchR4a3P.s 			page 10


 488 0060 6368436F 		.ascii	"chCondWaitS(), #1\000"
 488      6E645761 
 488      69745328 
 488      292C2023 
 488      3100
 489              		.section	.text.chCondWaitS,"ax",%progbits
 490              		.align	2
 491              		.p2align 4,,15
 492              		.global	chCondWaitS
 493              		.thumb
 494              		.thumb_func
 495              		.type	chCondWaitS, %function
 496              	chCondWaitS:
 497              	.LFB13:
 498              		.loc 2 184 0
 499              		.cfi_startproc
 500              		@ args = 0, pretend = 0, frame = 24
 501              		@ frame_needed = 0, uses_anonymous_args = 0
 502 0000 00B5     		push	{lr}
 503              		.cfi_def_cfa_offset 4
 504              		.cfi_offset 14, -4
 505 0002 87B0     		sub	sp, sp, #28
 506              		.cfi_def_cfa_offset 32
 507 0004 0190     		str	r0, [sp, #4]
 508              		.loc 2 185 0
 509 0006 154B     		ldr	r3, .L33
 510 0008 9B69     		ldr	r3, [r3, #24]
 511 000a 0593     		str	r3, [sp, #20]
 512              		.loc 2 189 0
 513 000c FFF7FEFF 		bl	chDbgCheckClassS
 514              		.loc 2 190 0
 515 0010 019B     		ldr	r3, [sp, #4]
 516 0012 002B     		cmp	r3, #0
 517 0014 02D1     		bne	.L30
 518              		.loc 2 190 0 is_stmt 0 discriminator 1
 519 0016 1248     		ldr	r0, .L33+4
 520 0018 FFF7FEFF 		bl	chDbgPanic
 521              	.L30:
 522              		.loc 2 191 0 is_stmt 1
 523 001c 059B     		ldr	r3, [sp, #20]
 524 001e 1B6C     		ldr	r3, [r3, #64]
 525 0020 002B     		cmp	r3, #0
 526 0022 02D1     		bne	.L31
 527              		.loc 2 191 0 is_stmt 0 discriminator 1
 528 0024 0F48     		ldr	r0, .L33+8
 529 0026 FFF7FEFF 		bl	chDbgPanic
 530              	.L31:
 531              		.loc 2 195 0 is_stmt 1
 532 002a FFF7FEFF 		bl	chMtxUnlockS
 533 002e 0490     		str	r0, [sp, #16]
 534              		.loc 2 196 0
 535 0030 059B     		ldr	r3, [sp, #20]
 536 0032 019A     		ldr	r2, [sp, #4]
 537 0034 9A62     		str	r2, [r3, #40]
 538              		.loc 2 197 0
 539 0036 019B     		ldr	r3, [sp, #4]
 540 0038 0598     		ldr	r0, [sp, #20]
ARM GAS  /tmp/cchR4a3P.s 			page 11


 541 003a 1946     		mov	r1, r3
 542 003c FFF7FEFF 		bl	prio_insert
 543              		.loc 2 198 0
 544 0040 0520     		movs	r0, #5
 545 0042 FFF7FEFF 		bl	chSchGoSleepS
 546              		.loc 2 199 0
 547 0046 059B     		ldr	r3, [sp, #20]
 548 0048 9B6A     		ldr	r3, [r3, #40]
 549 004a 0393     		str	r3, [sp, #12]
 550              		.loc 2 200 0
 551 004c 0498     		ldr	r0, [sp, #16]
 552 004e FFF7FEFF 		bl	chMtxLockS
 553              		.loc 2 201 0
 554 0052 039B     		ldr	r3, [sp, #12]
 555              		.loc 2 202 0
 556 0054 1846     		mov	r0, r3
 557 0056 07B0     		add	sp, sp, #28
 558              		.cfi_def_cfa_offset 4
 559              		@ sp needed
 560 0058 5DF804FB 		ldr	pc, [sp], #4
 561              	.L34:
 562              		.align	2
 563              	.L33:
 564 005c 00000000 		.word	rlist
 565 0060 50000000 		.word	.LC4
 566 0064 60000000 		.word	.LC5
 567              		.cfi_endproc
 568              	.LFE13:
 569              		.size	chCondWaitS, .-chCondWaitS
 570 0068 AFF30080 		.section	.text.chCondWaitTimeout,"ax",%progbits
 570      AFF30080 
 571              		.align	2
 572              		.p2align 4,,15
 573              		.global	chCondWaitTimeout
 574              		.thumb
 575              		.thumb_func
 576              		.type	chCondWaitTimeout, %function
 577              	chCondWaitTimeout:
 578              	.LFB14:
 579              		.loc 2 233 0
 580              		.cfi_startproc
 581              		@ args = 0, pretend = 0, frame = 16
 582              		@ frame_needed = 0, uses_anonymous_args = 0
 583 0000 00B5     		push	{lr}
 584              		.cfi_def_cfa_offset 4
 585              		.cfi_offset 14, -4
 586 0002 85B0     		sub	sp, sp, #20
 587              		.cfi_def_cfa_offset 24
 588 0004 0190     		str	r0, [sp, #4]
 589 0006 0091     		str	r1, [sp]
 590              	.LBB8:
 591              		.loc 2 236 0
 592 0008 2023     		movs	r3, #32
 593              	@ 236 "/home/ergae/r2p-sdk/core/ChibiOS/os/kernel/src/chcond.c" 1
 594 000a 83F31188 		msr     BASEPRI, r3
 595              	@ 0 "" 2
 596              		.thumb
ARM GAS  /tmp/cchR4a3P.s 			page 12


 597              	.LBE8:
 598 000e FFF7FEFF 		bl	dbg_check_lock
 599              		.loc 2 237 0
 600 0012 0198     		ldr	r0, [sp, #4]
 601 0014 0099     		ldr	r1, [sp]
 602 0016 FFF7FEFF 		bl	chCondWaitTimeoutS
 603 001a 0390     		str	r0, [sp, #12]
 604              		.loc 2 238 0
 605 001c FFF7FEFF 		bl	dbg_check_unlock
 606              	.LBB9:
 607 0020 0023     		movs	r3, #0
 608              	@ 238 "/home/ergae/r2p-sdk/core/ChibiOS/os/kernel/src/chcond.c" 1
 609 0022 83F31188 		msr     BASEPRI, r3
 610              	@ 0 "" 2
 611              		.thumb
 612              	.LBE9:
 613              		.loc 2 239 0
 614 0026 039B     		ldr	r3, [sp, #12]
 615              		.loc 2 240 0
 616 0028 1846     		mov	r0, r3
 617 002a 05B0     		add	sp, sp, #20
 618              		.cfi_def_cfa_offset 4
 619              		@ sp needed
 620 002c 5DF804FB 		ldr	pc, [sp], #4
 621              		.cfi_endproc
 622              	.LFE14:
 623              		.size	chCondWaitTimeout, .-chCondWaitTimeout
 624              		.section	.rodata
 625 0072 0000     		.align	2
 626              	.LC6:
 627 0074 22636843 		.ascii	"\"chCondWaitTimeoutS\"()\000"
 627      6F6E6457 
 627      61697454 
 627      696D656F 
 627      75745322 
 628 008b 00       		.align	2
 629              	.LC7:
 630 008c 6368436F 		.ascii	"chCondWaitTimeoutS(), #1\000"
 630      6E645761 
 630      69745469 
 630      6D656F75 
 630      74532829 
 631 00a5 000000   		.section	.text.chCondWaitTimeoutS,"ax",%progbits
 632              		.align	2
 633              		.p2align 4,,15
 634              		.global	chCondWaitTimeoutS
 635              		.thumb
 636              		.thumb_func
 637              		.type	chCondWaitTimeoutS, %function
 638              	chCondWaitTimeoutS:
 639              	.LFB15:
 640              		.loc 2 270 0
 641              		.cfi_startproc
 642              		@ args = 0, pretend = 0, frame = 16
 643              		@ frame_needed = 0, uses_anonymous_args = 0
 644 0000 00B5     		push	{lr}
 645              		.cfi_def_cfa_offset 4
ARM GAS  /tmp/cchR4a3P.s 			page 13


 646              		.cfi_offset 14, -4
 647 0002 85B0     		sub	sp, sp, #20
 648              		.cfi_def_cfa_offset 24
 649 0004 0190     		str	r0, [sp, #4]
 650 0006 0091     		str	r1, [sp]
 651              		.loc 2 274 0
 652 0008 FFF7FEFF 		bl	chDbgCheckClassS
 653              		.loc 2 275 0
 654 000c 019B     		ldr	r3, [sp, #4]
 655 000e 002B     		cmp	r3, #0
 656 0010 02D0     		beq	.L38
 657              		.loc 2 275 0 is_stmt 0 discriminator 2
 658 0012 009B     		ldr	r3, [sp]
 659 0014 002B     		cmp	r3, #0
 660 0016 02D1     		bne	.L39
 661              	.L38:
 662              		.loc 2 275 0 discriminator 3
 663 0018 1448     		ldr	r0, .L43
 664 001a FFF7FEFF 		bl	chDbgPanic
 665              	.L39:
 666              		.loc 2 276 0 is_stmt 1
 667 001e 144B     		ldr	r3, .L43+4
 668 0020 9B69     		ldr	r3, [r3, #24]
 669 0022 1B6C     		ldr	r3, [r3, #64]
 670 0024 002B     		cmp	r3, #0
 671 0026 02D1     		bne	.L40
 672              		.loc 2 276 0 is_stmt 0 discriminator 1
 673 0028 1248     		ldr	r0, .L43+8
 674 002a FFF7FEFF 		bl	chDbgPanic
 675              	.L40:
 676              		.loc 2 280 0 is_stmt 1
 677 002e FFF7FEFF 		bl	chMtxUnlockS
 678 0032 0390     		str	r0, [sp, #12]
 679              		.loc 2 281 0
 680 0034 0E4B     		ldr	r3, .L43+4
 681 0036 9B69     		ldr	r3, [r3, #24]
 682 0038 019A     		ldr	r2, [sp, #4]
 683 003a 9A62     		str	r2, [r3, #40]
 684              		.loc 2 282 0
 685 003c 0C4B     		ldr	r3, .L43+4
 686 003e 9A69     		ldr	r2, [r3, #24]
 687 0040 019B     		ldr	r3, [sp, #4]
 688 0042 1046     		mov	r0, r2
 689 0044 1946     		mov	r1, r3
 690 0046 FFF7FEFF 		bl	prio_insert
 691              		.loc 2 283 0
 692 004a 0520     		movs	r0, #5
 693 004c 0099     		ldr	r1, [sp]
 694 004e FFF7FEFF 		bl	chSchGoSleepTimeoutS
 695 0052 0290     		str	r0, [sp, #8]
 696              		.loc 2 284 0
 697 0054 029B     		ldr	r3, [sp, #8]
 698 0056 B3F1FF3F 		cmp	r3, #-1
 699 005a 02D0     		beq	.L41
 700              		.loc 2 285 0
 701 005c 0398     		ldr	r0, [sp, #12]
 702 005e FFF7FEFF 		bl	chMtxLockS
ARM GAS  /tmp/cchR4a3P.s 			page 14


 703              	.L41:
 704              		.loc 2 286 0
 705 0062 029B     		ldr	r3, [sp, #8]
 706              		.loc 2 287 0
 707 0064 1846     		mov	r0, r3
 708 0066 05B0     		add	sp, sp, #20
 709              		.cfi_def_cfa_offset 4
 710              		@ sp needed
 711 0068 5DF804FB 		ldr	pc, [sp], #4
 712              	.L44:
 713              		.align	2
 714              	.L43:
 715 006c 74000000 		.word	.LC6
 716 0070 00000000 		.word	rlist
 717 0074 8C000000 		.word	.LC7
 718              		.cfi_endproc
 719              	.LFE15:
 720              		.size	chCondWaitTimeoutS, .-chCondWaitTimeoutS
 721 0078 AFF30080 		.text
 721      AFF30080 
 722              	.Letext0:
 723              		.file 3 "/home/ergae/r2p-sdk/tools/gcc-arm-none-eabi-4_9-2014q4/arm-none-eabi/include/machine/_def
 724              		.file 4 "/home/ergae/r2p-sdk/tools/gcc-arm-none-eabi-4_9-2014q4/arm-none-eabi/include/stdint.h"
 725              		.file 5 "/home/ergae/r2p-sdk/core/ChibiOS/os/ports/GCC/ARMCMx/chtypes.h"
 726              		.file 6 "/home/ergae/r2p-sdk/core/ChibiOS/os/kernel/include/chlists.h"
 727              		.file 7 "/home/ergae/r2p-sdk/core/ChibiOS/os/kernel/include/chthreads.h"
 728              		.file 8 "/home/ergae/r2p-sdk/core/ChibiOS/os/ports/GCC/ARMCMx/chcore_v7m.h"
 729              		.file 9 "/home/ergae/r2p-sdk/core/ChibiOS/os/kernel/include/chschd.h"
 730              		.file 10 "/home/ergae/r2p-sdk/core/ChibiOS/os/kernel/include/chmtx.h"
 731              		.file 11 "/home/ergae/r2p-sdk/core/ChibiOS/os/kernel/include/chcond.h"