ARM GAS  /tmp/cc01Tg3a.s 			page 1


   1              		.syntax unified
   2              		.cpu cortex-m4
   3              		.eabi_attribute 27, 3
   4              		.eabi_attribute 28, 1
   5              		.fpu fpv4-sp-d16
   6              		.eabi_attribute 20, 1
   7              		.eabi_attribute 21, 1
   8              		.eabi_attribute 23, 3
   9              		.eabi_attribute 24, 1
  10              		.eabi_attribute 25, 1
  11              		.eabi_attribute 26, 1
  12              		.eabi_attribute 30, 6
  13              		.eabi_attribute 34, 1
  14              		.eabi_attribute 18, 4
  15              		.thumb
  16              		.file	"chdebug.c"
  17              		.text
  18              	.Ltext0:
  19              		.cfi_sections	.debug_frame
  20              		.global	dbg_isr_cnt
  21              		.section	.bss.dbg_isr_cnt,"aw",%nobits
  22              		.align	2
  23              		.type	dbg_isr_cnt, %object
  24              		.size	dbg_isr_cnt, 4
  25              	dbg_isr_cnt:
  26 0000 00000000 		.space	4
  27              		.global	dbg_lock_cnt
  28              		.section	.bss.dbg_lock_cnt,"aw",%nobits
  29              		.align	2
  30              		.type	dbg_lock_cnt, %object
  31              		.size	dbg_lock_cnt, 4
  32              	dbg_lock_cnt:
  33 0000 00000000 		.space	4
  34              		.section	.rodata
  35              		.align	2
  36              	.LC0:
  37 0000 53562331 		.ascii	"SV#1\000"
  37      00
  38              		.section	.text.dbg_check_disable,"ax",%progbits
  39              		.align	2
  40              		.p2align 4,,15
  41              		.global	dbg_check_disable
  42              		.thumb
  43              		.thumb_func
  44              		.type	dbg_check_disable, %function
  45              	dbg_check_disable:
  46              	.LFB7:
  47              		.file 1 "/home/ergae/r2p-sdk/core/ChibiOS/os/kernel/src/chdebug.c"
  48              		.loc 1 81 0
  49              		.cfi_startproc
  50              		@ args = 0, pretend = 0, frame = 0
  51              		@ frame_needed = 0, uses_anonymous_args = 0
  52 0000 08B5     		push	{r3, lr}
  53              		.cfi_def_cfa_offset 8
  54              		.cfi_offset 3, -8
  55              		.cfi_offset 14, -4
  56              		.loc 1 83 0
ARM GAS  /tmp/cc01Tg3a.s 			page 2


  57 0002 064B     		ldr	r3, .L4
  58 0004 1B68     		ldr	r3, [r3]
  59 0006 002B     		cmp	r3, #0
  60 0008 03D1     		bne	.L2
  61              		.loc 1 83 0 is_stmt 0 discriminator 1
  62 000a 054B     		ldr	r3, .L4+4
  63 000c 1B68     		ldr	r3, [r3]
  64 000e 002B     		cmp	r3, #0
  65 0010 02D0     		beq	.L1
  66              	.L2:
  67              		.loc 1 84 0 is_stmt 1
  68 0012 0448     		ldr	r0, .L4+8
  69 0014 FFF7FEFF 		bl	chDbgPanic
  70              	.L1:
  71              		.loc 1 85 0
  72 0018 08BD     		pop	{r3, pc}
  73              	.L5:
  74 001a 00BF     		.align	2
  75              	.L4:
  76 001c 00000000 		.word	dbg_isr_cnt
  77 0020 00000000 		.word	dbg_lock_cnt
  78 0024 00000000 		.word	.LC0
  79              		.cfi_endproc
  80              	.LFE7:
  81              		.size	dbg_check_disable, .-dbg_check_disable
  82 0028 AFF30080 		.section	.rodata
  82      AFF30080 
  83 0005 000000   		.align	2
  84              	.LC1:
  85 0008 53562332 		.ascii	"SV#2\000"
  85      00
  86              		.section	.text.dbg_check_suspend,"ax",%progbits
  87              		.align	2
  88              		.p2align 4,,15
  89              		.global	dbg_check_suspend
  90              		.thumb
  91              		.thumb_func
  92              		.type	dbg_check_suspend, %function
  93              	dbg_check_suspend:
  94              	.LFB8:
  95              		.loc 1 92 0
  96              		.cfi_startproc
  97              		@ args = 0, pretend = 0, frame = 0
  98              		@ frame_needed = 0, uses_anonymous_args = 0
  99 0000 08B5     		push	{r3, lr}
 100              		.cfi_def_cfa_offset 8
 101              		.cfi_offset 3, -8
 102              		.cfi_offset 14, -4
 103              		.loc 1 94 0
 104 0002 064B     		ldr	r3, .L9
 105 0004 1B68     		ldr	r3, [r3]
 106 0006 002B     		cmp	r3, #0
 107 0008 03D1     		bne	.L7
 108              		.loc 1 94 0 is_stmt 0 discriminator 1
 109 000a 054B     		ldr	r3, .L9+4
 110 000c 1B68     		ldr	r3, [r3]
 111 000e 002B     		cmp	r3, #0
ARM GAS  /tmp/cc01Tg3a.s 			page 3


 112 0010 02D0     		beq	.L6
 113              	.L7:
 114              		.loc 1 95 0 is_stmt 1
 115 0012 0448     		ldr	r0, .L9+8
 116 0014 FFF7FEFF 		bl	chDbgPanic
 117              	.L6:
 118              		.loc 1 96 0
 119 0018 08BD     		pop	{r3, pc}
 120              	.L10:
 121 001a 00BF     		.align	2
 122              	.L9:
 123 001c 00000000 		.word	dbg_isr_cnt
 124 0020 00000000 		.word	dbg_lock_cnt
 125 0024 08000000 		.word	.LC1
 126              		.cfi_endproc
 127              	.LFE8:
 128              		.size	dbg_check_suspend, .-dbg_check_suspend
 129 0028 AFF30080 		.section	.rodata
 129      AFF30080 
 130 000d 000000   		.align	2
 131              	.LC2:
 132 0010 53562333 		.ascii	"SV#3\000"
 132      00
 133              		.section	.text.dbg_check_enable,"ax",%progbits
 134              		.align	2
 135              		.p2align 4,,15
 136              		.global	dbg_check_enable
 137              		.thumb
 138              		.thumb_func
 139              		.type	dbg_check_enable, %function
 140              	dbg_check_enable:
 141              	.LFB9:
 142              		.loc 1 103 0
 143              		.cfi_startproc
 144              		@ args = 0, pretend = 0, frame = 0
 145              		@ frame_needed = 0, uses_anonymous_args = 0
 146 0000 08B5     		push	{r3, lr}
 147              		.cfi_def_cfa_offset 8
 148              		.cfi_offset 3, -8
 149              		.cfi_offset 14, -4
 150              		.loc 1 105 0
 151 0002 064B     		ldr	r3, .L14
 152 0004 1B68     		ldr	r3, [r3]
 153 0006 002B     		cmp	r3, #0
 154 0008 03D1     		bne	.L12
 155              		.loc 1 105 0 is_stmt 0 discriminator 1
 156 000a 054B     		ldr	r3, .L14+4
 157 000c 1B68     		ldr	r3, [r3]
 158 000e 002B     		cmp	r3, #0
 159 0010 02D0     		beq	.L11
 160              	.L12:
 161              		.loc 1 106 0 is_stmt 1
 162 0012 0448     		ldr	r0, .L14+8
 163 0014 FFF7FEFF 		bl	chDbgPanic
 164              	.L11:
 165              		.loc 1 107 0
 166 0018 08BD     		pop	{r3, pc}
ARM GAS  /tmp/cc01Tg3a.s 			page 4


 167              	.L15:
 168 001a 00BF     		.align	2
 169              	.L14:
 170 001c 00000000 		.word	dbg_isr_cnt
 171 0020 00000000 		.word	dbg_lock_cnt
 172 0024 10000000 		.word	.LC2
 173              		.cfi_endproc
 174              	.LFE9:
 175              		.size	dbg_check_enable, .-dbg_check_enable
 176 0028 AFF30080 		.section	.rodata
 176      AFF30080 
 177 0015 000000   		.align	2
 178              	.LC3:
 179 0018 53562334 		.ascii	"SV#4\000"
 179      00
 180              		.section	.text.dbg_check_lock,"ax",%progbits
 181              		.align	2
 182              		.p2align 4,,15
 183              		.global	dbg_check_lock
 184              		.thumb
 185              		.thumb_func
 186              		.type	dbg_check_lock, %function
 187              	dbg_check_lock:
 188              	.LFB10:
 189              		.loc 1 114 0
 190              		.cfi_startproc
 191              		@ args = 0, pretend = 0, frame = 0
 192              		@ frame_needed = 0, uses_anonymous_args = 0
 193 0000 08B5     		push	{r3, lr}
 194              		.cfi_def_cfa_offset 8
 195              		.cfi_offset 3, -8
 196              		.cfi_offset 14, -4
 197              		.loc 1 116 0
 198 0002 074B     		ldr	r3, .L19
 199 0004 1B68     		ldr	r3, [r3]
 200 0006 002B     		cmp	r3, #0
 201 0008 03D1     		bne	.L17
 202              		.loc 1 116 0 is_stmt 0 discriminator 1
 203 000a 064B     		ldr	r3, .L19+4
 204 000c 1B68     		ldr	r3, [r3]
 205 000e 002B     		cmp	r3, #0
 206 0010 02D0     		beq	.L18
 207              	.L17:
 208              		.loc 1 117 0 is_stmt 1
 209 0012 0548     		ldr	r0, .L19+8
 210 0014 FFF7FEFF 		bl	chDbgPanic
 211              	.L18:
 212              		.loc 1 118 0
 213 0018 024B     		ldr	r3, .L19+4
 214 001a 0122     		movs	r2, #1
 215 001c 1A60     		str	r2, [r3]
 216              		.loc 1 119 0
 217 001e 08BD     		pop	{r3, pc}
 218              	.L20:
 219              		.align	2
 220              	.L19:
 221 0020 00000000 		.word	dbg_isr_cnt
ARM GAS  /tmp/cc01Tg3a.s 			page 5


 222 0024 00000000 		.word	dbg_lock_cnt
 223 0028 18000000 		.word	.LC3
 224              		.cfi_endproc
 225              	.LFE10:
 226              		.size	dbg_check_lock, .-dbg_check_lock
 227 002c AFF30080 		.section	.rodata
 228 001d 000000   		.align	2
 229              	.LC4:
 230 0020 53562335 		.ascii	"SV#5\000"
 230      00
 231              		.section	.text.dbg_check_unlock,"ax",%progbits
 232              		.align	2
 233              		.p2align 4,,15
 234              		.global	dbg_check_unlock
 235              		.thumb
 236              		.thumb_func
 237              		.type	dbg_check_unlock, %function
 238              	dbg_check_unlock:
 239              	.LFB11:
 240              		.loc 1 126 0
 241              		.cfi_startproc
 242              		@ args = 0, pretend = 0, frame = 0
 243              		@ frame_needed = 0, uses_anonymous_args = 0
 244 0000 08B5     		push	{r3, lr}
 245              		.cfi_def_cfa_offset 8
 246              		.cfi_offset 3, -8
 247              		.cfi_offset 14, -4
 248              		.loc 1 128 0
 249 0002 074B     		ldr	r3, .L24
 250 0004 1B68     		ldr	r3, [r3]
 251 0006 002B     		cmp	r3, #0
 252 0008 03D1     		bne	.L22
 253              		.loc 1 128 0 is_stmt 0 discriminator 1
 254 000a 064B     		ldr	r3, .L24+4
 255 000c 1B68     		ldr	r3, [r3]
 256 000e 002B     		cmp	r3, #0
 257 0010 02DC     		bgt	.L23
 258              	.L22:
 259              		.loc 1 129 0 is_stmt 1
 260 0012 0548     		ldr	r0, .L24+8
 261 0014 FFF7FEFF 		bl	chDbgPanic
 262              	.L23:
 263              		.loc 1 130 0
 264 0018 024B     		ldr	r3, .L24+4
 265 001a 0022     		movs	r2, #0
 266 001c 1A60     		str	r2, [r3]
 267              		.loc 1 131 0
 268 001e 08BD     		pop	{r3, pc}
 269              	.L25:
 270              		.align	2
 271              	.L24:
 272 0020 00000000 		.word	dbg_isr_cnt
 273 0024 00000000 		.word	dbg_lock_cnt
 274 0028 20000000 		.word	.LC4
 275              		.cfi_endproc
 276              	.LFE11:
 277              		.size	dbg_check_unlock, .-dbg_check_unlock
ARM GAS  /tmp/cc01Tg3a.s 			page 6


 278 002c AFF30080 		.section	.rodata
 279 0025 000000   		.align	2
 280              	.LC5:
 281 0028 53562336 		.ascii	"SV#6\000"
 281      00
 282              		.section	.text.dbg_check_lock_from_isr,"ax",%progbits
 283              		.align	2
 284              		.p2align 4,,15
 285              		.global	dbg_check_lock_from_isr
 286              		.thumb
 287              		.thumb_func
 288              		.type	dbg_check_lock_from_isr, %function
 289              	dbg_check_lock_from_isr:
 290              	.LFB12:
 291              		.loc 1 138 0
 292              		.cfi_startproc
 293              		@ args = 0, pretend = 0, frame = 0
 294              		@ frame_needed = 0, uses_anonymous_args = 0
 295 0000 08B5     		push	{r3, lr}
 296              		.cfi_def_cfa_offset 8
 297              		.cfi_offset 3, -8
 298              		.cfi_offset 14, -4
 299              		.loc 1 140 0
 300 0002 074B     		ldr	r3, .L29
 301 0004 1B68     		ldr	r3, [r3]
 302 0006 002B     		cmp	r3, #0
 303 0008 03DD     		ble	.L27
 304              		.loc 1 140 0 is_stmt 0 discriminator 1
 305 000a 064B     		ldr	r3, .L29+4
 306 000c 1B68     		ldr	r3, [r3]
 307 000e 002B     		cmp	r3, #0
 308 0010 02D0     		beq	.L28
 309              	.L27:
 310              		.loc 1 141 0 is_stmt 1
 311 0012 0548     		ldr	r0, .L29+8
 312 0014 FFF7FEFF 		bl	chDbgPanic
 313              	.L28:
 314              		.loc 1 142 0
 315 0018 024B     		ldr	r3, .L29+4
 316 001a 0122     		movs	r2, #1
 317 001c 1A60     		str	r2, [r3]
 318              		.loc 1 143 0
 319 001e 08BD     		pop	{r3, pc}
 320              	.L30:
 321              		.align	2
 322              	.L29:
 323 0020 00000000 		.word	dbg_isr_cnt
 324 0024 00000000 		.word	dbg_lock_cnt
 325 0028 28000000 		.word	.LC5
 326              		.cfi_endproc
 327              	.LFE12:
 328              		.size	dbg_check_lock_from_isr, .-dbg_check_lock_from_isr
 329 002c AFF30080 		.section	.rodata
 330 002d 000000   		.align	2
 331              	.LC6:
 332 0030 53562337 		.ascii	"SV#7\000"
 332      00
ARM GAS  /tmp/cc01Tg3a.s 			page 7


 333              		.section	.text.dbg_check_unlock_from_isr,"ax",%progbits
 334              		.align	2
 335              		.p2align 4,,15
 336              		.global	dbg_check_unlock_from_isr
 337              		.thumb
 338              		.thumb_func
 339              		.type	dbg_check_unlock_from_isr, %function
 340              	dbg_check_unlock_from_isr:
 341              	.LFB13:
 342              		.loc 1 150 0
 343              		.cfi_startproc
 344              		@ args = 0, pretend = 0, frame = 0
 345              		@ frame_needed = 0, uses_anonymous_args = 0
 346 0000 08B5     		push	{r3, lr}
 347              		.cfi_def_cfa_offset 8
 348              		.cfi_offset 3, -8
 349              		.cfi_offset 14, -4
 350              		.loc 1 152 0
 351 0002 074B     		ldr	r3, .L34
 352 0004 1B68     		ldr	r3, [r3]
 353 0006 002B     		cmp	r3, #0
 354 0008 03DD     		ble	.L32
 355              		.loc 1 152 0 is_stmt 0 discriminator 1
 356 000a 064B     		ldr	r3, .L34+4
 357 000c 1B68     		ldr	r3, [r3]
 358 000e 002B     		cmp	r3, #0
 359 0010 02DC     		bgt	.L33
 360              	.L32:
 361              		.loc 1 153 0 is_stmt 1
 362 0012 0548     		ldr	r0, .L34+8
 363 0014 FFF7FEFF 		bl	chDbgPanic
 364              	.L33:
 365              		.loc 1 154 0
 366 0018 024B     		ldr	r3, .L34+4
 367 001a 0022     		movs	r2, #0
 368 001c 1A60     		str	r2, [r3]
 369              		.loc 1 155 0
 370 001e 08BD     		pop	{r3, pc}
 371              	.L35:
 372              		.align	2
 373              	.L34:
 374 0020 00000000 		.word	dbg_isr_cnt
 375 0024 00000000 		.word	dbg_lock_cnt
 376 0028 30000000 		.word	.LC6
 377              		.cfi_endproc
 378              	.LFE13:
 379              		.size	dbg_check_unlock_from_isr, .-dbg_check_unlock_from_isr
 380 002c AFF30080 		.section	.rodata
 381 0035 000000   		.align	2
 382              	.LC7:
 383 0038 53562338 		.ascii	"SV#8\000"
 383      00
 384              		.section	.text.dbg_check_enter_isr,"ax",%progbits
 385              		.align	2
 386              		.p2align 4,,15
 387              		.global	dbg_check_enter_isr
 388              		.thumb
ARM GAS  /tmp/cc01Tg3a.s 			page 8


 389              		.thumb_func
 390              		.type	dbg_check_enter_isr, %function
 391              	dbg_check_enter_isr:
 392              	.LFB14:
 393              		.loc 1 162 0
 394              		.cfi_startproc
 395              		@ args = 0, pretend = 0, frame = 0
 396              		@ frame_needed = 0, uses_anonymous_args = 0
 397 0000 08B5     		push	{r3, lr}
 398              		.cfi_def_cfa_offset 8
 399              		.cfi_offset 3, -8
 400              		.cfi_offset 14, -4
 401              	.LBB2:
 402              		.loc 1 164 0
 403 0002 2023     		movs	r3, #32
 404              	@ 164 "/home/ergae/r2p-sdk/core/ChibiOS/os/kernel/src/chdebug.c" 1
 405 0004 83F31188 		msr     BASEPRI, r3
 406              	@ 0 "" 2
 407              		.thumb
 408              	.LBE2:
 409              		.loc 1 165 0
 410 0008 094B     		ldr	r3, .L39
 411 000a 1B68     		ldr	r3, [r3]
 412 000c 002B     		cmp	r3, #0
 413 000e 03DB     		blt	.L37
 414              		.loc 1 165 0 is_stmt 0 discriminator 1
 415 0010 084B     		ldr	r3, .L39+4
 416 0012 1B68     		ldr	r3, [r3]
 417 0014 002B     		cmp	r3, #0
 418 0016 02D0     		beq	.L38
 419              	.L37:
 420              		.loc 1 166 0 is_stmt 1
 421 0018 0748     		ldr	r0, .L39+8
 422 001a FFF7FEFF 		bl	chDbgPanic
 423              	.L38:
 424              		.loc 1 167 0
 425 001e 044B     		ldr	r3, .L39
 426 0020 1B68     		ldr	r3, [r3]
 427 0022 0133     		adds	r3, r3, #1
 428 0024 024A     		ldr	r2, .L39
 429 0026 1360     		str	r3, [r2]
 430              	.LBB3:
 431              		.loc 1 168 0
 432 0028 0023     		movs	r3, #0
 433              	@ 168 "/home/ergae/r2p-sdk/core/ChibiOS/os/kernel/src/chdebug.c" 1
 434 002a 83F31188 		msr     BASEPRI, r3
 435              	@ 0 "" 2
 436              		.thumb
 437              	.LBE3:
 438              		.loc 1 169 0
 439 002e 08BD     		pop	{r3, pc}
 440              	.L40:
 441              		.align	2
 442              	.L39:
 443 0030 00000000 		.word	dbg_isr_cnt
 444 0034 00000000 		.word	dbg_lock_cnt
 445 0038 38000000 		.word	.LC7
ARM GAS  /tmp/cc01Tg3a.s 			page 9


 446              		.cfi_endproc
 447              	.LFE14:
 448              		.size	dbg_check_enter_isr, .-dbg_check_enter_isr
 449 003c AFF30080 		.section	.rodata
 450 003d 000000   		.align	2
 451              	.LC8:
 452 0040 53562339 		.ascii	"SV#9\000"
 452      00
 453              		.section	.text.dbg_check_leave_isr,"ax",%progbits
 454              		.align	2
 455              		.p2align 4,,15
 456              		.global	dbg_check_leave_isr
 457              		.thumb
 458              		.thumb_func
 459              		.type	dbg_check_leave_isr, %function
 460              	dbg_check_leave_isr:
 461              	.LFB15:
 462              		.loc 1 176 0
 463              		.cfi_startproc
 464              		@ args = 0, pretend = 0, frame = 0
 465              		@ frame_needed = 0, uses_anonymous_args = 0
 466 0000 08B5     		push	{r3, lr}
 467              		.cfi_def_cfa_offset 8
 468              		.cfi_offset 3, -8
 469              		.cfi_offset 14, -4
 470              	.LBB4:
 471              		.loc 1 178 0
 472 0002 2023     		movs	r3, #32
 473              	@ 178 "/home/ergae/r2p-sdk/core/ChibiOS/os/kernel/src/chdebug.c" 1
 474 0004 83F31188 		msr     BASEPRI, r3
 475              	@ 0 "" 2
 476              		.thumb
 477              	.LBE4:
 478              		.loc 1 179 0
 479 0008 094B     		ldr	r3, .L44
 480 000a 1B68     		ldr	r3, [r3]
 481 000c 002B     		cmp	r3, #0
 482 000e 03DD     		ble	.L42
 483              		.loc 1 179 0 is_stmt 0 discriminator 1
 484 0010 084B     		ldr	r3, .L44+4
 485 0012 1B68     		ldr	r3, [r3]
 486 0014 002B     		cmp	r3, #0
 487 0016 02D0     		beq	.L43
 488              	.L42:
 489              		.loc 1 180 0 is_stmt 1
 490 0018 0748     		ldr	r0, .L44+8
 491 001a FFF7FEFF 		bl	chDbgPanic
 492              	.L43:
 493              		.loc 1 181 0
 494 001e 044B     		ldr	r3, .L44
 495 0020 1B68     		ldr	r3, [r3]
 496 0022 013B     		subs	r3, r3, #1
 497 0024 024A     		ldr	r2, .L44
 498 0026 1360     		str	r3, [r2]
 499              	.LBB5:
 500              		.loc 1 182 0
 501 0028 0023     		movs	r3, #0
ARM GAS  /tmp/cc01Tg3a.s 			page 10


 502              	@ 182 "/home/ergae/r2p-sdk/core/ChibiOS/os/kernel/src/chdebug.c" 1
 503 002a 83F31188 		msr     BASEPRI, r3
 504              	@ 0 "" 2
 505              		.thumb
 506              	.LBE5:
 507              		.loc 1 183 0
 508 002e 08BD     		pop	{r3, pc}
 509              	.L45:
 510              		.align	2
 511              	.L44:
 512 0030 00000000 		.word	dbg_isr_cnt
 513 0034 00000000 		.word	dbg_lock_cnt
 514 0038 40000000 		.word	.LC8
 515              		.cfi_endproc
 516              	.LFE15:
 517              		.size	dbg_check_leave_isr, .-dbg_check_leave_isr
 518 003c AFF30080 		.section	.rodata
 519 0045 000000   		.align	2
 520              	.LC9:
 521 0048 53562331 		.ascii	"SV#10\000"
 521      3000
 522              		.section	.text.chDbgCheckClassI,"ax",%progbits
 523              		.align	2
 524              		.p2align 4,,15
 525              		.global	chDbgCheckClassI
 526              		.thumb
 527              		.thumb_func
 528              		.type	chDbgCheckClassI, %function
 529              	chDbgCheckClassI:
 530              	.LFB16:
 531              		.loc 1 193 0
 532              		.cfi_startproc
 533              		@ args = 0, pretend = 0, frame = 0
 534              		@ frame_needed = 0, uses_anonymous_args = 0
 535 0000 08B5     		push	{r3, lr}
 536              		.cfi_def_cfa_offset 8
 537              		.cfi_offset 3, -8
 538              		.cfi_offset 14, -4
 539              		.loc 1 195 0
 540 0002 064B     		ldr	r3, .L49
 541 0004 1B68     		ldr	r3, [r3]
 542 0006 002B     		cmp	r3, #0
 543 0008 03DB     		blt	.L47
 544              		.loc 1 195 0 is_stmt 0 discriminator 1
 545 000a 054B     		ldr	r3, .L49+4
 546 000c 1B68     		ldr	r3, [r3]
 547 000e 002B     		cmp	r3, #0
 548 0010 02DC     		bgt	.L46
 549              	.L47:
 550              		.loc 1 196 0 is_stmt 1
 551 0012 0448     		ldr	r0, .L49+8
 552 0014 FFF7FEFF 		bl	chDbgPanic
 553              	.L46:
 554              		.loc 1 197 0
 555 0018 08BD     		pop	{r3, pc}
 556              	.L50:
 557 001a 00BF     		.align	2
ARM GAS  /tmp/cc01Tg3a.s 			page 11


 558              	.L49:
 559 001c 00000000 		.word	dbg_isr_cnt
 560 0020 00000000 		.word	dbg_lock_cnt
 561 0024 48000000 		.word	.LC9
 562              		.cfi_endproc
 563              	.LFE16:
 564              		.size	chDbgCheckClassI, .-chDbgCheckClassI
 565 0028 AFF30080 		.section	.rodata
 565      AFF30080 
 566 004e 0000     		.align	2
 567              	.LC10:
 568 0050 53562331 		.ascii	"SV#11\000"
 568      3100
 569 0056 0000     		.section	.text.chDbgCheckClassS,"ax",%progbits
 570              		.align	2
 571              		.p2align 4,,15
 572              		.global	chDbgCheckClassS
 573              		.thumb
 574              		.thumb_func
 575              		.type	chDbgCheckClassS, %function
 576              	chDbgCheckClassS:
 577              	.LFB17:
 578              		.loc 1 207 0
 579              		.cfi_startproc
 580              		@ args = 0, pretend = 0, frame = 0
 581              		@ frame_needed = 0, uses_anonymous_args = 0
 582 0000 08B5     		push	{r3, lr}
 583              		.cfi_def_cfa_offset 8
 584              		.cfi_offset 3, -8
 585              		.cfi_offset 14, -4
 586              		.loc 1 209 0
 587 0002 064B     		ldr	r3, .L54
 588 0004 1B68     		ldr	r3, [r3]
 589 0006 002B     		cmp	r3, #0
 590 0008 03D1     		bne	.L52
 591              		.loc 1 209 0 is_stmt 0 discriminator 1
 592 000a 054B     		ldr	r3, .L54+4
 593 000c 1B68     		ldr	r3, [r3]
 594 000e 002B     		cmp	r3, #0
 595 0010 02DC     		bgt	.L51
 596              	.L52:
 597              		.loc 1 210 0 is_stmt 1
 598 0012 0448     		ldr	r0, .L54+8
 599 0014 FFF7FEFF 		bl	chDbgPanic
 600              	.L51:
 601              		.loc 1 211 0
 602 0018 08BD     		pop	{r3, pc}
 603              	.L55:
 604 001a 00BF     		.align	2
 605              	.L54:
 606 001c 00000000 		.word	dbg_isr_cnt
 607 0020 00000000 		.word	dbg_lock_cnt
 608 0024 50000000 		.word	.LC10
 609              		.cfi_endproc
 610              	.LFE17:
 611              		.size	chDbgCheckClassS, .-chDbgCheckClassS
 612              		.global	dbg_trace_buffer
ARM GAS  /tmp/cc01Tg3a.s 			page 12


 613 0028 AFF30080 		.section	.bss.dbg_trace_buffer,"aw",%nobits
 613      AFF30080 
 614              		.align	2
 615              		.type	dbg_trace_buffer, %object
 616              		.size	dbg_trace_buffer, 1032
 617              	dbg_trace_buffer:
 618 0000 00000000 		.space	1032
 618      00000000 
 618      00000000 
 618      00000000 
 618      00000000 
 619              		.section	.text._trace_init,"ax",%progbits
 620              		.align	2
 621              		.p2align 4,,15
 622              		.global	_trace_init
 623              		.thumb
 624              		.thumb_func
 625              		.type	_trace_init, %function
 626              	_trace_init:
 627              	.LFB18:
 628              		.loc 1 229 0
 629              		.cfi_startproc
 630              		@ args = 0, pretend = 0, frame = 0
 631              		@ frame_needed = 0, uses_anonymous_args = 0
 632              		@ link register save eliminated.
 633              		.loc 1 231 0
 634 0000 034B     		ldr	r3, .L57
 635 0002 4022     		movs	r2, #64
 636 0004 1A60     		str	r2, [r3]
 637              		.loc 1 232 0
 638 0006 024B     		ldr	r3, .L57
 639 0008 024A     		ldr	r2, .L57+4
 640 000a 5A60     		str	r2, [r3, #4]
 641              		.loc 1 233 0
 642 000c 7047     		bx	lr
 643              	.L58:
 644 000e 00BF     		.align	2
 645              	.L57:
 646 0010 00000000 		.word	dbg_trace_buffer
 647 0014 08000000 		.word	dbg_trace_buffer+8
 648              		.cfi_endproc
 649              	.LFE18:
 650              		.size	_trace_init, .-_trace_init
 651 0018 AFF30080 		.section	.text.dbg_trace,"ax",%progbits
 651      AFF30080 
 652              		.align	2
 653              		.p2align 4,,15
 654              		.global	dbg_trace
 655              		.thumb
 656              		.thumb_func
 657              		.type	dbg_trace, %function
 658              	dbg_trace:
 659              	.LFB19:
 660              		.loc 1 242 0
 661              		.cfi_startproc
 662              		@ args = 0, pretend = 0, frame = 8
 663              		@ frame_needed = 0, uses_anonymous_args = 0
ARM GAS  /tmp/cc01Tg3a.s 			page 13


 664              		@ link register save eliminated.
 665 0000 82B0     		sub	sp, sp, #8
 666              		.cfi_def_cfa_offset 8
 667 0002 0190     		str	r0, [sp, #4]
 668              		.loc 1 244 0
 669 0004 114B     		ldr	r3, .L61
 670 0006 5B68     		ldr	r3, [r3, #4]
 671 0008 114A     		ldr	r2, .L61+4
 672 000a D268     		ldr	r2, [r2, #12]
 673 000c 1A60     		str	r2, [r3]
 674              		.loc 1 245 0
 675 000e 0F4B     		ldr	r3, .L61
 676 0010 5B68     		ldr	r3, [r3, #4]
 677 0012 104A     		ldr	r2, .L61+8
 678 0014 9269     		ldr	r2, [r2, #24]
 679 0016 5A60     		str	r2, [r3, #4]
 680              		.loc 1 246 0
 681 0018 0C4B     		ldr	r3, .L61
 682 001a 5B68     		ldr	r3, [r3, #4]
 683 001c 019A     		ldr	r2, [sp, #4]
 684 001e 926A     		ldr	r2, [r2, #40]
 685 0020 9A60     		str	r2, [r3, #8]
 686              		.loc 1 247 0
 687 0022 0A4B     		ldr	r3, .L61
 688 0024 5B68     		ldr	r3, [r3, #4]
 689 0026 019A     		ldr	r2, [sp, #4]
 690 0028 92F82020 		ldrb	r2, [r2, #32]	@ zero_extendqisi2
 691 002c 1A73     		strb	r2, [r3, #12]
 692              		.loc 1 248 0
 693 002e 074B     		ldr	r3, .L61
 694 0030 5B68     		ldr	r3, [r3, #4]
 695 0032 1033     		adds	r3, r3, #16
 696 0034 054A     		ldr	r2, .L61
 697 0036 5360     		str	r3, [r2, #4]
 698 0038 044B     		ldr	r3, .L61
 699 003a 5B68     		ldr	r3, [r3, #4]
 700 003c 064A     		ldr	r2, .L61+12
 701 003e 9342     		cmp	r3, r2
 702 0040 02D3     		bcc	.L59
 703              		.loc 1 250 0
 704 0042 024B     		ldr	r3, .L61
 705 0044 054A     		ldr	r2, .L61+16
 706 0046 5A60     		str	r2, [r3, #4]
 707              	.L59:
 708              		.loc 1 251 0
 709 0048 02B0     		add	sp, sp, #8
 710              		.cfi_def_cfa_offset 0
 711              		@ sp needed
 712 004a 7047     		bx	lr
 713              	.L62:
 714              		.align	2
 715              	.L61:
 716 004c 00000000 		.word	dbg_trace_buffer
 717 0050 00000000 		.word	vtlist
 718 0054 00000000 		.word	rlist
 719 0058 08040000 		.word	dbg_trace_buffer+1032
 720 005c 08000000 		.word	dbg_trace_buffer+8
ARM GAS  /tmp/cc01Tg3a.s 			page 14


 721              		.cfi_endproc
 722              	.LFE19:
 723              		.size	dbg_trace, .-dbg_trace
 724              		.global	dbg_panic_msg
 725              		.section	.bss.dbg_panic_msg,"aw",%nobits
 726              		.align	2
 727              		.type	dbg_panic_msg, %object
 728              		.size	dbg_panic_msg, 4
 729              	dbg_panic_msg:
 730 0000 00000000 		.space	4
 731              		.section	.text.chDbgPanic,"ax",%progbits
 732              		.align	2
 733              		.p2align 4,,15
 734              		.global	chDbgPanic
 735              		.thumb
 736              		.thumb_func
 737              		.type	chDbgPanic, %function
 738              	chDbgPanic:
 739              	.LFB20:
 740              		.loc 1 271 0
 741              		.cfi_startproc
 742              		@ args = 0, pretend = 0, frame = 8
 743              		@ frame_needed = 0, uses_anonymous_args = 0
 744 0000 00B5     		push	{lr}
 745              		.cfi_def_cfa_offset 4
 746              		.cfi_offset 14, -4
 747 0002 83B0     		sub	sp, sp, #12
 748              		.cfi_def_cfa_offset 16
 749 0004 0190     		str	r0, [sp, #4]
 750              		.loc 1 273 0
 751 0006 044A     		ldr	r2, .L64
 752 0008 019B     		ldr	r3, [sp, #4]
 753 000a 1360     		str	r3, [r2]
 754              		.loc 1 274 0
 755 000c FFF7FEFF 		bl	port_halt
 756              		.loc 1 275 0
 757 0010 03B0     		add	sp, sp, #12
 758              		.cfi_def_cfa_offset 4
 759              		@ sp needed
 760 0012 5DF804FB 		ldr	pc, [sp], #4
 761              	.L65:
 762 0016 00BF     		.align	2
 763              	.L64:
 764 0018 00000000 		.word	dbg_panic_msg
 765              		.cfi_endproc
 766              	.LFE20:
 767              		.size	chDbgPanic, .-chDbgPanic
 768 001c AFF30080 		.text
 769              	.Letext0:
 770              		.file 2 "/home/ergae/r2p-sdk/tools/gcc-arm-none-eabi-4_9-2014q4/arm-none-eabi/include/machine/_def
 771              		.file 3 "/home/ergae/r2p-sdk/tools/gcc-arm-none-eabi-4_9-2014q4/arm-none-eabi/include/stdint.h"
 772              		.file 4 "/home/ergae/r2p-sdk/core/ChibiOS/os/ports/GCC/ARMCMx/chtypes.h"
 773              		.file 5 "/home/ergae/r2p-sdk/core/ChibiOS/os/kernel/include/chlists.h"
 774              		.file 6 "/home/ergae/r2p-sdk/core/ChibiOS/os/kernel/include/chthreads.h"
 775              		.file 7 "/home/ergae/r2p-sdk/core/ChibiOS/os/ports/GCC/ARMCMx/chcore_v7m.h"
 776              		.file 8 "/home/ergae/r2p-sdk/core/ChibiOS/os/kernel/include/chvt.h"
 777              		.file 9 "/home/ergae/r2p-sdk/core/ChibiOS/os/kernel/include/chschd.h"
ARM GAS  /tmp/cc01Tg3a.s 			page 15


 778              		.file 10 "/home/ergae/r2p-sdk/core/ChibiOS/os/kernel/include/chmtx.h"
 779              		.file 11 "/home/ergae/r2p-sdk/core/ChibiOS/os/kernel/include/chdebug.h"