ARM GAS  /tmp/cc1zhrQa.s 			page 1


   1              		.syntax unified
   2              		.cpu cortex-m4
   3              		.eabi_attribute 27, 3
   4              		.eabi_attribute 28, 1
   5              		.fpu fpv4-sp-d16
   6              		.eabi_attribute 20, 1
   7              		.eabi_attribute 21, 1
   8              		.eabi_attribute 23, 3
   9              		.eabi_attribute 24, 1
  10              		.eabi_attribute 25, 1
  11              		.eabi_attribute 26, 1
  12              		.eabi_attribute 30, 6
  13              		.eabi_attribute 34, 1
  14              		.eabi_attribute 18, 4
  15              		.thumb
  16              		.file	"chdynamic.c"
  17              		.text
  18              	.Ltext0:
  19              		.cfi_sections	.debug_frame
  20              		.section	.rodata
  21              		.align	2
  22              	.LC0:
  23 0000 63685468 		.ascii	"chThdAddRef(), #1\000"
  23      64416464 
  23      52656628 
  23      292C2023 
  23      3100
  24              		.section	.text.chThdAddRef,"ax",%progbits
  25              		.align	2
  26              		.p2align 4,,15
  27              		.global	chThdAddRef
  28              		.thumb
  29              		.thumb_func
  30              		.type	chThdAddRef, %function
  31              	chThdAddRef:
  32              	.LFB7:
  33              		.file 1 "/home/ergae/r2p-sdk/core/ChibiOS/os/kernel/src/chdynamic.c"
  34              		.loc 1 52 0
  35              		.cfi_startproc
  36              		@ args = 0, pretend = 0, frame = 8
  37              		@ frame_needed = 0, uses_anonymous_args = 0
  38 0000 00B5     		push	{lr}
  39              		.cfi_def_cfa_offset 4
  40              		.cfi_offset 14, -4
  41 0002 83B0     		sub	sp, sp, #12
  42              		.cfi_def_cfa_offset 16
  43 0004 0190     		str	r0, [sp, #4]
  44              	.LBB2:
  45              		.loc 1 54 0
  46 0006 2023     		movs	r3, #32
  47              	@ 54 "/home/ergae/r2p-sdk/core/ChibiOS/os/kernel/src/chdynamic.c" 1
  48 0008 83F31188 		msr     BASEPRI, r3
  49              	@ 0 "" 2
  50              		.thumb
  51              	.LBE2:
  52 000c FFF7FEFF 		bl	dbg_check_lock
  53              		.loc 1 55 0
ARM GAS  /tmp/cc1zhrQa.s 			page 2


  54 0010 019B     		ldr	r3, [sp, #4]
  55 0012 93F82230 		ldrb	r3, [r3, #34]	@ zero_extendqisi2
  56 0016 FF2B     		cmp	r3, #255
  57 0018 02D1     		bne	.L2
  58              		.loc 1 55 0 is_stmt 0 discriminator 1
  59 001a 0A48     		ldr	r0, .L4
  60 001c FFF7FEFF 		bl	chDbgPanic
  61              	.L2:
  62              		.loc 1 56 0 is_stmt 1
  63 0020 019B     		ldr	r3, [sp, #4]
  64 0022 93F82230 		ldrb	r3, [r3, #34]	@ zero_extendqisi2
  65 0026 0133     		adds	r3, r3, #1
  66 0028 DAB2     		uxtb	r2, r3
  67 002a 019B     		ldr	r3, [sp, #4]
  68 002c 83F82220 		strb	r2, [r3, #34]
  69              		.loc 1 57 0
  70 0030 FFF7FEFF 		bl	dbg_check_unlock
  71              	.LBB3:
  72 0034 0023     		movs	r3, #0
  73              	@ 57 "/home/ergae/r2p-sdk/core/ChibiOS/os/kernel/src/chdynamic.c" 1
  74 0036 83F31188 		msr     BASEPRI, r3
  75              	@ 0 "" 2
  76              		.thumb
  77              	.LBE3:
  78              		.loc 1 58 0
  79 003a 019B     		ldr	r3, [sp, #4]
  80              		.loc 1 59 0
  81 003c 1846     		mov	r0, r3
  82 003e 03B0     		add	sp, sp, #12
  83              		.cfi_def_cfa_offset 4
  84              		@ sp needed
  85 0040 5DF804FB 		ldr	pc, [sp], #4
  86              	.L5:
  87              		.align	2
  88              	.L4:
  89 0044 00000000 		.word	.LC0
  90              		.cfi_endproc
  91              	.LFE7:
  92              		.size	chThdAddRef, .-chThdAddRef
  93 0048 AFF30080 		.section	.rodata
  93      AFF30080 
  94 0012 0000     		.align	2
  95              	.LC1:
  96 0014 63685468 		.ascii	"chThdRelease(), #1\000"
  96      6452656C 
  96      65617365 
  96      28292C20 
  96      233100
  97              		.section	.text.chThdRelease,"ax",%progbits
  98              		.align	2
  99              		.p2align 4,,15
 100              		.global	chThdRelease
 101              		.thumb
 102              		.thumb_func
 103              		.type	chThdRelease, %function
 104              	chThdRelease:
 105              	.LFB8:
ARM GAS  /tmp/cc1zhrQa.s 			page 3


 106              		.loc 1 74 0
 107              		.cfi_startproc
 108              		@ args = 0, pretend = 0, frame = 16
 109              		@ frame_needed = 0, uses_anonymous_args = 0
 110 0000 00B5     		push	{lr}
 111              		.cfi_def_cfa_offset 4
 112              		.cfi_offset 14, -4
 113 0002 85B0     		sub	sp, sp, #20
 114              		.cfi_def_cfa_offset 24
 115 0004 0190     		str	r0, [sp, #4]
 116              	.LBB4:
 117              		.loc 1 77 0
 118 0006 2023     		movs	r3, #32
 119              	@ 77 "/home/ergae/r2p-sdk/core/ChibiOS/os/kernel/src/chdynamic.c" 1
 120 0008 83F31188 		msr     BASEPRI, r3
 121              	@ 0 "" 2
 122              		.thumb
 123              	.LBE4:
 124 000c FFF7FEFF 		bl	dbg_check_lock
 125              		.loc 1 78 0
 126 0010 019B     		ldr	r3, [sp, #4]
 127 0012 93F82230 		ldrb	r3, [r3, #34]	@ zero_extendqisi2
 128 0016 002B     		cmp	r3, #0
 129 0018 02D1     		bne	.L7
 130              		.loc 1 78 0 is_stmt 0 discriminator 1
 131 001a 2548     		ldr	r0, .L11
 132 001c FFF7FEFF 		bl	chDbgPanic
 133              	.L7:
 134              		.loc 1 79 0 is_stmt 1
 135 0020 019B     		ldr	r3, [sp, #4]
 136 0022 93F82230 		ldrb	r3, [r3, #34]	@ zero_extendqisi2
 137 0026 013B     		subs	r3, r3, #1
 138 0028 DAB2     		uxtb	r2, r3
 139 002a 019B     		ldr	r3, [sp, #4]
 140 002c 83F82220 		strb	r2, [r3, #34]
 141 0030 019B     		ldr	r3, [sp, #4]
 142 0032 93F82230 		ldrb	r3, [r3, #34]
 143 0036 8DF80F30 		strb	r3, [sp, #15]
 144              		.loc 1 80 0
 145 003a FFF7FEFF 		bl	dbg_check_unlock
 146              	.LBB5:
 147 003e 0023     		movs	r3, #0
 148              	@ 80 "/home/ergae/r2p-sdk/core/ChibiOS/os/kernel/src/chdynamic.c" 1
 149 0040 83F31188 		msr     BASEPRI, r3
 150              	@ 0 "" 2
 151              		.thumb
 152              	.LBE5:
 153              		.loc 1 85 0
 154 0044 9DF80F30 		ldrb	r3, [sp, #15]	@ zero_extendqisi2
 155 0048 002B     		cmp	r3, #0
 156 004a 2DD1     		bne	.L6
 157              		.loc 1 85 0 is_stmt 0 discriminator 1
 158 004c 019B     		ldr	r3, [sp, #4]
 159 004e 93F82030 		ldrb	r3, [r3, #32]	@ zero_extendqisi2
 160 0052 0E2B     		cmp	r3, #14
 161 0054 28D1     		bne	.L6
 162              		.loc 1 86 0 is_stmt 1
ARM GAS  /tmp/cc1zhrQa.s 			page 4


 163 0056 019B     		ldr	r3, [sp, #4]
 164 0058 93F82130 		ldrb	r3, [r3, #33]	@ zero_extendqisi2
 165 005c 03F00303 		and	r3, r3, #3
 166 0060 012B     		cmp	r3, #1
 167 0062 02D0     		beq	.L9
 168 0064 022B     		cmp	r3, #2
 169 0066 0ED0     		beq	.L10
 170 0068 1EE0     		b	.L6
 171              	.L9:
 172              		.loc 1 90 0
 173 006a 019B     		ldr	r3, [sp, #4]
 174 006c 5B69     		ldr	r3, [r3, #20]
 175 006e 019A     		ldr	r2, [sp, #4]
 176 0070 1269     		ldr	r2, [r2, #16]
 177 0072 1A61     		str	r2, [r3, #16]
 178 0074 019B     		ldr	r3, [sp, #4]
 179 0076 1B69     		ldr	r3, [r3, #16]
 180 0078 019A     		ldr	r2, [sp, #4]
 181 007a 5269     		ldr	r2, [r2, #20]
 182 007c 5A61     		str	r2, [r3, #20]
 183              		.loc 1 92 0
 184 007e 0198     		ldr	r0, [sp, #4]
 185 0080 FFF7FEFF 		bl	chHeapFree
 186              		.loc 1 93 0
 187 0084 10E0     		b	.L6
 188              	.L10:
 189              		.loc 1 98 0
 190 0086 019B     		ldr	r3, [sp, #4]
 191 0088 5B69     		ldr	r3, [r3, #20]
 192 008a 019A     		ldr	r2, [sp, #4]
 193 008c 1269     		ldr	r2, [r2, #16]
 194 008e 1A61     		str	r2, [r3, #16]
 195 0090 019B     		ldr	r3, [sp, #4]
 196 0092 1B69     		ldr	r3, [r3, #16]
 197 0094 019A     		ldr	r2, [sp, #4]
 198 0096 5269     		ldr	r2, [r2, #20]
 199 0098 5A61     		str	r2, [r3, #20]
 200              		.loc 1 100 0
 201 009a 019B     		ldr	r3, [sp, #4]
 202 009c 9B6C     		ldr	r3, [r3, #72]
 203 009e 1846     		mov	r0, r3
 204 00a0 0199     		ldr	r1, [sp, #4]
 205 00a2 FFF7FEFF 		bl	chPoolFree
 206              		.loc 1 101 0
 207 00a6 00BF     		nop
 208              	.L6:
 209              		.loc 1 105 0
 210 00a8 05B0     		add	sp, sp, #20
 211              		.cfi_def_cfa_offset 4
 212              		@ sp needed
 213 00aa 5DF804FB 		ldr	pc, [sp], #4
 214              	.L12:
 215 00ae 00BF     		.align	2
 216              	.L11:
 217 00b0 14000000 		.word	.LC1
 218              		.cfi_endproc
 219              	.LFE8:
ARM GAS  /tmp/cc1zhrQa.s 			page 5


 220              		.size	chThdRelease, .-chThdRelease
 221 00b4 AFF30080 		.section	.text.chThdCreateFromHeap,"ax",%progbits
 221      AFF30080 
 221      AFF30080 
 222              		.align	2
 223              		.p2align 4,,15
 224              		.global	chThdCreateFromHeap
 225              		.thumb
 226              		.thumb_func
 227              		.type	chThdCreateFromHeap, %function
 228              	chThdCreateFromHeap:
 229              	.LFB9:
 230              		.loc 1 131 0
 231              		.cfi_startproc
 232              		@ args = 4, pretend = 0, frame = 24
 233              		@ frame_needed = 0, uses_anonymous_args = 0
 234 0000 00B5     		push	{lr}
 235              		.cfi_def_cfa_offset 4
 236              		.cfi_offset 14, -4
 237 0002 89B0     		sub	sp, sp, #36
 238              		.cfi_def_cfa_offset 40
 239 0004 0590     		str	r0, [sp, #20]
 240 0006 0491     		str	r1, [sp, #16]
 241 0008 0392     		str	r2, [sp, #12]
 242 000a 0293     		str	r3, [sp, #8]
 243              		.loc 1 135 0
 244 000c 0598     		ldr	r0, [sp, #20]
 245 000e 0499     		ldr	r1, [sp, #16]
 246 0010 FFF7FEFF 		bl	chHeapAlloc
 247 0014 0790     		str	r0, [sp, #28]
 248              		.loc 1 136 0
 249 0016 079B     		ldr	r3, [sp, #28]
 250 0018 002B     		cmp	r3, #0
 251 001a 01D1     		bne	.L14
 252              		.loc 1 137 0
 253 001c 0023     		movs	r3, #0
 254 001e 2DE0     		b	.L15
 255              	.L14:
 256              		.loc 1 140 0
 257 0020 079B     		ldr	r3, [sp, #28]
 258 0022 4C33     		adds	r3, r3, #76
 259 0024 0798     		ldr	r0, [sp, #28]
 260 0026 1946     		mov	r1, r3
 261 0028 FF22     		movs	r2, #255
 262 002a FFF7FEFF 		bl	_thread_memfill
 263              		.loc 1 143 0
 264 002e 079B     		ldr	r3, [sp, #28]
 265 0030 03F14C01 		add	r1, r3, #76
 266 0034 079A     		ldr	r2, [sp, #28]
 267 0036 049B     		ldr	r3, [sp, #16]
 268 0038 1344     		add	r3, r3, r2
 269 003a 0846     		mov	r0, r1
 270 003c 1946     		mov	r1, r3
 271 003e 5522     		movs	r2, #85
 272 0040 FFF7FEFF 		bl	_thread_memfill
 273              	.LBB6:
 274              		.loc 1 148 0
ARM GAS  /tmp/cc1zhrQa.s 			page 6


 275 0044 2023     		movs	r3, #32
 276              	@ 148 "/home/ergae/r2p-sdk/core/ChibiOS/os/kernel/src/chdynamic.c" 1
 277 0046 83F31188 		msr     BASEPRI, r3
 278              	@ 0 "" 2
 279              		.thumb
 280              	.LBE6:
 281 004a FFF7FEFF 		bl	dbg_check_lock
 282              		.loc 1 149 0
 283 004e 0A9B     		ldr	r3, [sp, #40]
 284 0050 0093     		str	r3, [sp]
 285 0052 0798     		ldr	r0, [sp, #28]
 286 0054 0499     		ldr	r1, [sp, #16]
 287 0056 039A     		ldr	r2, [sp, #12]
 288 0058 029B     		ldr	r3, [sp, #8]
 289 005a FFF7FEFF 		bl	chThdCreateI
 290 005e 0690     		str	r0, [sp, #24]
 291              		.loc 1 150 0
 292 0060 069B     		ldr	r3, [sp, #24]
 293 0062 0122     		movs	r2, #1
 294 0064 83F82120 		strb	r2, [r3, #33]
 295              		.loc 1 151 0
 296 0068 0698     		ldr	r0, [sp, #24]
 297 006a 0021     		movs	r1, #0
 298 006c FFF7FEFF 		bl	chSchWakeupS
 299              		.loc 1 152 0
 300 0070 FFF7FEFF 		bl	dbg_check_unlock
 301              	.LBB7:
 302 0074 0023     		movs	r3, #0
 303              	@ 152 "/home/ergae/r2p-sdk/core/ChibiOS/os/kernel/src/chdynamic.c" 1
 304 0076 83F31188 		msr     BASEPRI, r3
 305              	@ 0 "" 2
 306              		.thumb
 307              	.LBE7:
 308              		.loc 1 153 0
 309 007a 069B     		ldr	r3, [sp, #24]
 310              	.L15:
 311              		.loc 1 154 0
 312 007c 1846     		mov	r0, r3
 313 007e 09B0     		add	sp, sp, #36
 314              		.cfi_def_cfa_offset 4
 315              		@ sp needed
 316 0080 5DF804FB 		ldr	pc, [sp], #4
 317              		.cfi_endproc
 318              	.LFE9:
 319              		.size	chThdCreateFromHeap, .-chThdCreateFromHeap
 320 0084 AFF30080 		.section	.rodata
 320      AFF30080 
 320      AFF30080 
 321 0027 00       		.align	2
 322              	.LC2:
 323 0028 22636854 		.ascii	"\"chThdCreateFromMemoryPool\"()\000"
 323      68644372 
 323      65617465 
 323      46726F6D 
 323      4D656D6F 
 324 0046 0000     		.section	.text.chThdCreateFromMemoryPool,"ax",%progbits
 325              		.align	2
ARM GAS  /tmp/cc1zhrQa.s 			page 7


 326              		.p2align 4,,15
 327              		.global	chThdCreateFromMemoryPool
 328              		.thumb
 329              		.thumb_func
 330              		.type	chThdCreateFromMemoryPool, %function
 331              	chThdCreateFromMemoryPool:
 332              	.LFB10:
 333              		.loc 1 180 0
 334              		.cfi_startproc
 335              		@ args = 0, pretend = 0, frame = 24
 336              		@ frame_needed = 0, uses_anonymous_args = 0
 337 0000 00B5     		push	{lr}
 338              		.cfi_def_cfa_offset 4
 339              		.cfi_offset 14, -4
 340 0002 89B0     		sub	sp, sp, #36
 341              		.cfi_def_cfa_offset 40
 342 0004 0590     		str	r0, [sp, #20]
 343 0006 0491     		str	r1, [sp, #16]
 344 0008 0392     		str	r2, [sp, #12]
 345 000a 0293     		str	r3, [sp, #8]
 346              		.loc 1 184 0
 347 000c 059B     		ldr	r3, [sp, #20]
 348 000e 002B     		cmp	r3, #0
 349 0010 02D1     		bne	.L17
 350              		.loc 1 184 0 is_stmt 0 discriminator 1
 351 0012 2248     		ldr	r0, .L20
 352 0014 FFF7FEFF 		bl	chDbgPanic
 353              	.L17:
 354              		.loc 1 186 0 is_stmt 1
 355 0018 0598     		ldr	r0, [sp, #20]
 356 001a FFF7FEFF 		bl	chPoolAlloc
 357 001e 0790     		str	r0, [sp, #28]
 358              		.loc 1 187 0
 359 0020 079B     		ldr	r3, [sp, #28]
 360 0022 002B     		cmp	r3, #0
 361 0024 01D1     		bne	.L18
 362              		.loc 1 188 0
 363 0026 0023     		movs	r3, #0
 364 0028 33E0     		b	.L19
 365              	.L18:
 366              		.loc 1 191 0
 367 002a 079B     		ldr	r3, [sp, #28]
 368 002c 4C33     		adds	r3, r3, #76
 369 002e 0798     		ldr	r0, [sp, #28]
 370 0030 1946     		mov	r1, r3
 371 0032 FF22     		movs	r2, #255
 372 0034 FFF7FEFF 		bl	_thread_memfill
 373              		.loc 1 194 0
 374 0038 079B     		ldr	r3, [sp, #28]
 375 003a 03F14C01 		add	r1, r3, #76
 376              		.loc 1 195 0
 377 003e 059B     		ldr	r3, [sp, #20]
 378 0040 5B68     		ldr	r3, [r3, #4]
 379              		.loc 1 194 0
 380 0042 079A     		ldr	r2, [sp, #28]
 381 0044 1344     		add	r3, r3, r2
 382 0046 0846     		mov	r0, r1
ARM GAS  /tmp/cc1zhrQa.s 			page 8


 383 0048 1946     		mov	r1, r3
 384 004a 5522     		movs	r2, #85
 385 004c FFF7FEFF 		bl	_thread_memfill
 386              	.LBB8:
 387              		.loc 1 199 0
 388 0050 2023     		movs	r3, #32
 389              	@ 199 "/home/ergae/r2p-sdk/core/ChibiOS/os/kernel/src/chdynamic.c" 1
 390 0052 83F31188 		msr     BASEPRI, r3
 391              	@ 0 "" 2
 392              		.thumb
 393              	.LBE8:
 394 0056 FFF7FEFF 		bl	dbg_check_lock
 395              		.loc 1 200 0
 396 005a 059B     		ldr	r3, [sp, #20]
 397 005c 5A68     		ldr	r2, [r3, #4]
 398 005e 029B     		ldr	r3, [sp, #8]
 399 0060 0093     		str	r3, [sp]
 400 0062 0798     		ldr	r0, [sp, #28]
 401 0064 1146     		mov	r1, r2
 402 0066 049A     		ldr	r2, [sp, #16]
 403 0068 039B     		ldr	r3, [sp, #12]
 404 006a FFF7FEFF 		bl	chThdCreateI
 405 006e 0690     		str	r0, [sp, #24]
 406              		.loc 1 201 0
 407 0070 069B     		ldr	r3, [sp, #24]
 408 0072 0222     		movs	r2, #2
 409 0074 83F82120 		strb	r2, [r3, #33]
 410              		.loc 1 202 0
 411 0078 069B     		ldr	r3, [sp, #24]
 412 007a 059A     		ldr	r2, [sp, #20]
 413 007c 9A64     		str	r2, [r3, #72]
 414              		.loc 1 203 0
 415 007e 0698     		ldr	r0, [sp, #24]
 416 0080 0021     		movs	r1, #0
 417 0082 FFF7FEFF 		bl	chSchWakeupS
 418              		.loc 1 204 0
 419 0086 FFF7FEFF 		bl	dbg_check_unlock
 420              	.LBB9:
 421 008a 0023     		movs	r3, #0
 422              	@ 204 "/home/ergae/r2p-sdk/core/ChibiOS/os/kernel/src/chdynamic.c" 1
 423 008c 83F31188 		msr     BASEPRI, r3
 424              	@ 0 "" 2
 425              		.thumb
 426              	.LBE9:
 427              		.loc 1 205 0
 428 0090 069B     		ldr	r3, [sp, #24]
 429              	.L19:
 430              		.loc 1 206 0
 431 0092 1846     		mov	r0, r3
 432 0094 09B0     		add	sp, sp, #36
 433              		.cfi_def_cfa_offset 4
 434              		@ sp needed
 435 0096 5DF804FB 		ldr	pc, [sp], #4
 436              	.L21:
 437 009a 00BF     		.align	2
 438              	.L20:
 439 009c 28000000 		.word	.LC2
ARM GAS  /tmp/cc1zhrQa.s 			page 9


 440              		.cfi_endproc
 441              	.LFE10:
 442              		.size	chThdCreateFromMemoryPool, .-chThdCreateFromMemoryPool
 443              		.text
 444              	.Letext0:
 445              		.file 2 "/home/ergae/r2p-sdk/tools/gcc-arm-none-eabi-4_9-2014q4/lib/gcc/arm-none-eabi/4.9.3/includ
 446              		.file 3 "/home/ergae/r2p-sdk/tools/gcc-arm-none-eabi-4_9-2014q4/arm-none-eabi/include/machine/_def
 447              		.file 4 "/home/ergae/r2p-sdk/tools/gcc-arm-none-eabi-4_9-2014q4/arm-none-eabi/include/stdint.h"
 448              		.file 5 "/home/ergae/r2p-sdk/core/ChibiOS/os/ports/GCC/ARMCMx/chtypes.h"
 449              		.file 6 "/home/ergae/r2p-sdk/core/ChibiOS/os/kernel/include/chlists.h"
 450              		.file 7 "/home/ergae/r2p-sdk/core/ChibiOS/os/kernel/include/chthreads.h"
 451              		.file 8 "/home/ergae/r2p-sdk/core/ChibiOS/os/ports/GCC/ARMCMx/chcore_v7m.h"
 452              		.file 9 "/home/ergae/r2p-sdk/core/ChibiOS/os/kernel/include/chmtx.h"
 453              		.file 10 "/home/ergae/r2p-sdk/core/ChibiOS/os/kernel/include/chmemcore.h"
 454              		.file 11 "/home/ergae/r2p-sdk/core/ChibiOS/os/kernel/include/chheap.h"
 455              		.file 12 "/home/ergae/r2p-sdk/core/ChibiOS/os/kernel/include/chmempools.h"