ARM GAS  /tmp/cc1zhrQa.s 			page 1


   1              		.syntax unified
   2              		.cpu cortex-m4
   3              		.eabi_attribute 27, 3
   4              		.eabi_attribute 28, 1
   5              		.fpu fpv4-sp-d16
   6              		.eabi_attribute 20, 1
   7              		.eabi_attribute 21, 1
   8              		.eabi_attribute 23, 3
   9              		.eabi_attribute 24, 1
  10              		.eabi_attribute 25, 1
  11              		.eabi_attribute 26, 1
  12              		.eabi_attribute 30, 6
  13              		.eabi_attribute 34, 1
  14              		.eabi_attribute 18, 4
  15              		.thumb
  16              		.file	"chdynamic.c"
  17              		.text
  18              	.Ltext0:
  19              		.cfi_sections	.debug_frame
  20              		.section	.rodata
  21              		.align	2
  22              	.LC0:
  23 0000 63685468 		.ascii	"chThdAddRef(), #1\000"
  23      64416464 
  23      52656628 
  23      292C2023 
  23      3100
  24              		.section	.text.chThdAddRef,"ax",%progbits
  25              		.align	2
  26              		.p2align 4,,15
  27              		.global	chThdAddRef
  28              		.thumb
  29              		.thumb_func
  30              		.type	chThdAddRef, %function
  31              	chThdAddRef:
  32              	.LFB7:
  33              		.file 1 "/home/ergae/r2p-sdk/core/ChibiOS/os/kernel/src/chdynamic.c"
  34              		.loc 1 52 0
  35              		.cfi_startproc
  36              		@ args = 0, pretend = 0, frame = 8
  37              		@ frame_needed = 0, uses_anonymous_args = 0
  38 0000 00B5     		push	{lr}
  39              		.cfi_def_cfa_offset 4
  40              		.cfi_offset 14, -4
  41 0002 83B0     		sub	sp, sp, #12
  42              		.cfi_def_cfa_offset 16
  43 0004 0190     		str	r0, [sp, #4]
  44              	.LBB2:
  45              		.loc 1 54 0
  46 0006 2023     		movs	r3, #32
  47              	@ 54 "/home/ergae/r2p-sdk/core/ChibiOS/os/kernel/src/chdynamic.c" 1
  48 0008 83F31188 		msr     BASEPRI, r3
  49              	@ 0 "" 2
  50              		.thumb
  51              	.LBE2:
  52 000c FFF7FEFF 		bl	dbg_check_lock
  53              		.loc 1 55 0
ARM GAS  /tmp/cc1zhrQa.s 			page 2


  54 0010 019B     		ldr	r3, [sp, #4]
  55 0012 93F82230 		ldrb	r3, [r3, #34]	@ zero_extendqisi2
  56 0016 FF2B     		cmp	r3, #255
  57 0018 02D1     		bne	.L2
  58              		.loc 1 55 0 is_stmt 0 discriminator 1
  59 001a 0A48     		ldr	r0, .L4
  60 001c FFF7FEFF 		bl	chDbgPanic
  61              	.L2:
  62              		.loc 1 56 0 is_stmt 1
  63 0020 019B     		ldr	r3, [sp, #4]
  64 0022 93F82230 		ldrb	r3, [r3, #34]	@ zero_extendqisi2
  65 0026 0133     		adds	r3, r3, #1
  66 0028 DAB2     		uxtb	r2, r3
  67 002a 019B     		ldr	r3, [sp, #4]
  68 002c 83F82220 		strb	r2, [r3, #34]
  69              		.loc 1 57 0
  70 0030 FFF7FEFF 		bl	dbg_check_unlock
  71              	.LBB3:
  72 0034 0023     		movs	r3, #0
  73              	@ 57 "/home/ergae/r2p-sdk/core/ChibiOS/os/kernel/src/chdynamic.c" 1
  74 0036 83F31188 		msr     BASEPRI, r3
  75              	@ 0 "" 2
  76              		.thumb
  77              	.LBE3:
  78              		.loc 1 58 0
  79 003a 019B     		ldr	r3, [sp, #4]
  80              		.loc 1 59 0
  81 003c 1846     		mov	r0, r3
  82 003e 03B0     		add	sp, sp, #12
  83              		.cfi_def_cfa_offset 4
  84              		@ sp needed
  85 0040 5DF804FB 		ldr	pc, [sp], #4
  86              	.L5:
  87              		.align	2
  88              	.L4:
  89 0044 00000000 		.word	.LC0
  90              		.cfi_endproc
  91              	.LFE7:
  92              		.size	chThdAddRef, .-chThdAddRef
  93 0048 AFF30080 		.section	.rodata
  93      AFF30080 
  94 0012 0000     		.align	2
  95              	.LC1:
  96 0014 63685468 		.ascii	"chThdRelease(), #1\000"
  96      6452656C 
  96      65617365 
  96      28292C20 
  96      233100
  97              		.section	.text.chThdRelease,"ax",%progbits
  98              		.align	2
  99              		.p2align 4,,15
 100              		.global	chThdRelease
 101              		.thumb
 102              		.thumb_func
 103              		.type	chThdRelease, %function
 104              	chThdRelease:
 105              	.LFB8:
ARM GAS  /tmp/cc1zhrQa.s 			page 3


 106              		.loc 1 74 0
 107              		.cfi_startproc
 108              		@ args = 0, pretend = 0, frame = 16
 109              		@ frame_needed = 0, uses_anonymous_args = 0
 110 0000 00B5     		push	{lr}
 111              		.cfi_def_cfa_offset 4
 112              		.cfi_offset 14, -4
 113 0002 85B0     		sub	sp, sp, #20
 114              		.cfi_def_cfa_offset 24
 115 0004 0190     		str	r0, [sp, #4]
 116              	.LBB4:
 117              		.loc 1 77 0
 118 0006 2023     		movs	r3, #32
 119              	@ 77 "/home/ergae/r2p-sdk/core/ChibiOS/os/kernel/src/chdynamic.c" 1
 120 0008 83F31188 		msr     BASEPRI, r3
 121              	@ 0 "" 2
 122              		.thumb
 123              	.LBE4:
 124 000c FFF7FEFF 		bl	dbg_check_lock
 125              		.loc 1 78 0
 126 0010 019B     		ldr	r3, [sp, #4]
 127 0012 93F82230 		ldrb	r3, [r3, #34]	@ zero_extendqisi2
 128 0016 002B     		cmp	r3, #0
 129 0018 02D1     		bne	.L7
 130              		.loc 1 78 0 is_stmt 0 discriminator 1
 131 001a 2548     		ldr	r0, .L11
 132 001c FFF7FEFF 		bl	chDbgPanic
 133              	.L7:
 134              		.loc 1 79 0 is_stmt 1
 135 0020 019B     		ldr	r3, [sp, #4]
 136 0022 93F82230 		ldrb	r3, [r3, #34]	@ zero_extendqisi2
 137 0026 013B     		subs	r3, r3, #1
 138 0028 DAB2     		uxtb	r2, r3
 139 002a 019B     		ldr	r3, [sp, #4]
 140 002c 83F82220 		strb	r2, [r3, #34]
 141 0030 019B     		ldr	r3, [sp, #4]
 142 0032 93F82230 		ldrb	r3, [r3, #34]
 143 0036 8DF80F30 		strb	r3, [sp, #15]
 144              		.loc 1 80 0
 145 003a FFF7FEFF 		bl	dbg_check_unlock
 146              	.LBB5:
 147 003e 0023     		movs	r3, #0
 148              	@ 80 "/home/ergae/r2p-sdk/core/ChibiOS/os/kernel/src/chdynamic.c" 1
 149 0040 83F31188 		msr     BASEPRI, r3
 150              	@ 0 "" 2
 151              		.thumb
 152              	.LBE5:
 153              		.loc 1 85 0
 154 0044 9DF80F30 		ldrb	r3, [sp, #15]	@ zero_extendqisi2
 155 0048 002B     		cmp	r3, #0
 156 004a 2DD1     		bne	.L6
 157              		.loc 1 85 0 is_stmt 0 discriminator 1
 158 004c 019B     		ldr	r3, [sp, #4]
 159 004e 93F82030 		ldrb	r3, [r3, #32]	@ zero_extendqisi2
 160 0052 0E2B     		cmp	r3, #14
 161 0054 28D1     		bne	.L6
 162              		.loc 1 86 0 is_stmt 1
ARM GAS  /tmp/cc1zhrQa.s 			page 4


 163 0056 019B     		ldr	r3, [sp, #4]
 164 0058 93F82130 		ldrb	r3, [r3, #33]	@ zero_extendqisi2
 165 005c 03F00303 		and	r3, r3, #3
 166 0060 012B     		cmp	r3, #1
 167 0062 02D0     		beq	.L9
 168 0064 022B     		cmp	r3, #2
 169 0066 0ED0     		beq	.L10
 170 0068 1EE0     		b	.L6
 171              	.L9:
 172              		.loc 1 90 0
 173 006a 019B     		ldr	r3, [sp, #4]
 174 006c 5B69     		ldr	r3, [r3, #20]
 175 006e 019A     		ldr	r2, [sp, #4]
 176 0070 1269     		ldr	r2, [r2, #16]
 177 0072 1A61     		str	r2, [r3, #16]
 178 0074 019B     		ldr	r3, [sp, #4]
 179 0076 1B69     		ldr	r3, [r3, #16]
 180 0078 019A     		ldr	r2, [sp, #4]
 181 007a 5269     		ldr	r2, [r2, #20]
 182 007c 5A61     		str	r2, [r3, #20]
 183              		.loc 1 92 0
 184 007e 0198     		ldr	r0, [sp, #4]
 185 0080 FFF7FEFF 		bl	chHeapFree
 186              		.loc 1 93 0
 187 0084 10E0     		b	.L6
 188              	.L10:
 189              		.loc 1 98 0
 190 0086 019B     		ldr	r3, [sp, #4]
 191 0088 5B69     		ldr	r3, [r3, #20]
 192 008a 019A     		ldr	r2, [sp, #4]
 193 008c 1269     		ldr	r2, [r2, #16]
 194 008e 1A61     		str	r2, [r3, #16]
 195 0090 019B     		ldr	r3, [sp, #4]
 196 0092 1B69     		ldr	r3, [r3, #16]
 197 0094 019A     		ldr	r2, [sp, #4]
 198 0096 5269     		ldr	r2, [r2, #20]
 199 0098 5A61     		str	r2, [r3, #20]
 200              		.loc 1 100 0
 201 009a 019B     		ldr	r3, [sp, #4]
 202 009c 9B6C     		ldr	r3, [r3, #72]
 203 009e 1846     		mov	r0, r3
 204 00a0 0199     		ldr	r1, [sp, #4]
 205 00a2 FFF7FEFF 		bl	chPoolFree
 206              		.loc 1 101 0
 207 00a6 00BF     		nop
 208              	.L6:
 209              		.loc 1 105 0
 210 00a8 05B0     		add	sp, sp, #20
 211              		.cfi_def_cfa_offset 4
 212              		@ sp needed
 213 00aa 5DF804FB 		ldr	pc, [sp], #4
 214              	.L12:
 215 00ae 00BF     		.align	2
 216              	.L11:
 217 00b0 14000000 		.word	.LC1
 218              		.cfi_endproc
 219              	.LFE8:
ARM GAS  /tmp/cc1zhrQa.s 			page 5


 220              		.size	chThdRelease, .-chThdRelease
 221 00b4 AFF30080 		.section	.text.chThdCreateFromHeap,"ax",%progbits
 221      AFF30080 
 221      AFF30080 
 222              		.align	2
 223              		.p2align 4,,15
 224              		.global	chThdCreateFromHeap
 225              		.thumb
 226              		.thumb_func
 227              		.type	chThdCreateFromHeap, %function
 228              	chThdCreateFromHeap:
 229              	.LFB9:
 230              		.loc 1 131 0
 231              		.cfi_startproc
 232              		@ args = 4, pretend = 0, frame = 24
 233              		@ frame_needed = 0, uses_anonymous_args = 0
 234 0000 00B5     		push	{lr}
 235              		.cfi_def_cfa_offset 4
 236              		.cfi_offset 14, -4
 237 0002 89B0     		sub	sp, sp, #36
 238              		.cfi_def_cfa_offset 40
 239 0004 0590     		str	r0, [sp, #20]
 240 0006 0491     		str	r1, [sp, #16]
 241 0008 0392     		str	r2, [sp, #12]
 242 000a 0293     		str	r3, [sp, #8]
 243              		.loc 1 135 0
 244 000c 0598     		ldr	r0, [sp, #20]
 245 000e 0499     		ldr	r1, [sp, #16]
 246 0010 FFF7FEFF 		bl	chHeapAlloc
 247 0014 0790     		str	r0, [sp, #28]
 248              		.loc 1 136 0
 249 0016 079B     		ldr	r3, [sp, #28]
 250 0018 002B     		cmp	r3, #0
 251 001a 01D1     		bne	.L14
 252              		.loc 1 137 0
 253 001c 0023     		movs	r3, #0
 254 001e 2DE0     		b	.L15
 255              	.L14:
 256              		.loc 1 140 0
 257 0020 079B     		ldr	r3, [sp, #28]
 258 0022 4C33     		adds	r3, r3, #76
 259 0024 0798     		ldr	r0, [sp, #28]
 260 0026 1946     		mov	r1, r3
 261 0028 FF22     		movs	r2, #255
 262 002a FFF7FEFF 		bl	_thread_memfill
 263              		.loc 1 143 0
 264 002e 079B     		ldr	r3, [sp, #28]
 265 0030 03F14C01 		add	r1, r3, #76
 266 0034 079A     		ldr	r2, [sp, #28]
 267 0036 049B     		ldr	r3, [sp, #16]
 268 0038 1344     		add	r3, r3, r2
 269 003a 0846     		mov	r0, r1
 270 003c 1946     		mov	r1, r3
 271 003e 5522     		movs	r2, #85
 272 0040 FFF7FEFF 		bl	_thread_memfill
 273              	.LBB6:
 274              		.loc 1 148 0
ARM GAS  /tmp/cc1zhrQa.s 			page 6


 275 0044 2023     		movs	r3, #32
 276              	@ 148 "/home/ergae/r2p-sdk/core/ChibiOS/os/kernel/src/chdynamic.c" 1
 277 0046 83F31188 		msr     BASEPRI, r3
 278              	@ 0 "" 2
 279              		.thumb
 280              	.LBE6:
 281 004a FFF7FEFF 		bl	dbg_check_lock
 282              		.loc 1 149 0
 283 004e 0A9B     		ldr	r3, [sp, #40]
 284 0050 0093     		str	r3, [sp]
 285 0052 0798     		ldr	r0, [sp, #28]
 286 0054 0499     		ldr	r1, [sp, #16]
 287 0056 039A     		ldr	r2, [sp, #12]
 288 0058 029B     		ldr	r3, [sp, #8]
 289 005a FFF7FEFF 		bl	chThdCreateI
 290 005e 0690     		str	r0, [sp, #24]
 291              		.loc 1 150 0
 292 0060 069B     		ldr	r3, [sp, #24]
 293 0062 0122     		movs	r2, #1
 294 0064 83F82120 		strb	r2, [r3, #33]
 295              		.loc 1 151 0
 296 0068 0698     		ldr	r0, [sp, #24]
 297 006a 0021     		movs	r1, #0
 298 006c FFF7FEFF 		bl	chSchWakeupS
 299              		.loc 1 152 0
 300 0070 FFF7FEFF 		bl	dbg_check_unlock
 301              	.LBB7:
 302 0074 0023     		movs	r3, #0
 303              	@ 152 "/home/ergae/r2p-sdk/core/ChibiOS/os/kernel/src/chdynamic.c" 1
 304 0076 83F31188 		msr     BASEPRI, r3
 305              	@ 0 "" 2
 306              		.thumb
 307              	.LBE7:
 308              		.loc 1 153 0
 309 007a 069B     		ldr	r3, [sp, #24]
 310              	.L15:
 311              		.loc 1 154 0
 312 007c 1846     		mov	r0, r3
 313 007e 09B0     		add	sp, sp, #36
 314              		.cfi_def_cfa_offset 4
 315              		@ sp needed
 316 0080 5DF804FB 		ldr	pc, [sp], #4
 317              		.cfi_endproc
 318              	.LFE9:
 319              		.size	chThdCreateFromHeap, .-chThdCreateFromHeap
 320 0084 AFF30080 		.section	.rodata
 320      AFF30080 
 320      AFF30080 
 321 0027 00       		.align	2
 322              	.LC2:
 323 0028 22636854 		.ascii	"\"chThdCreateFromMemoryPool\"()\000"
 323      68644372 
 323      65617465 
 323      46726F6D 
 323      4D656D6F 
 324 0046 0000     		.section	.text.chThdCreateFromMemoryPool,"ax",%progbits
 325              		.align	2
ARM GAS  /tmp/cc1zhrQa.s 			page 7


 326              		.p2align 4,,15
 327              		.global	chThdCreateFromMemoryPool
 328              		.thumb
 329              		.thumb_func
 330              		.type	chThdCreateFromMemoryPool, %function
 331              	chThdCreateFromMemoryPool:
 332              	.LFB10:
 333              		.loc 1 180 0
 334              		.cfi_startproc
 335              		@ args = 0, pretend = 0, frame = 24
 336              		@ frame_needed = 0, uses_anonymous_args = 0
 337 0000 00B5     		push	{lr}
 338              		.cfi_def_cfa_offset 4
 339              		.cfi_offset 14, -4
 340 0002 89B0     		sub	sp, sp, #36
 341              		.cfi_def_cfa_offset 40
 342 0004 0590     		str	r0, [sp, #20]
 343 0006 0491     		str	r1, [sp, #16]
 344 0008 0392     		str	r2, [sp, #12]
 345 000a 0293     		str	r3, [sp, #8]
 346              		.loc 1 184 0
 347 000c 059B     		ldr	r3, [sp, #20]
 348 000e 002B     		cmp	r3, #0
 349 0010 02D1     		bne	.L17
 350              		.loc 1 184 0 is_stmt 0 discriminator 1
 351 0012 2248     		ldr	r0, .L20
 352 0014 FFF7FEFF 		bl	chDbgPanic
 353              	.L17:
 354              		.loc 1 186 0 is_stmt 1
 355 0018 0598     		ldr	r0, [sp, #20]
 356 001a FFF7FEFF 		bl	chPoolAlloc
 357 001e 0790     		str	r0, [sp, #28]
 358              		.loc 1 187 0
 359 0020 079B     		ldr	r3, [sp, #28]
 360 0022 002B     		cmp	r3, #0
 361 0024 01D1     		bne	.L18
 362              		.loc 1 188 0
 363 0026 0023     		movs	r3, #0
 364 0028 33E0     		b	.L19
 365              	.L18:
 366              		.loc 1 191 0
 367 002a 079B     		ldr	r3, [sp, #28]
 368 002c 4C33     		adds	r3, r3, #76
 369 002e 0798     		ldr	r0, [sp, #28]
 370 0030 1946     		mov	r1, r3
 371 0032 FF22     		movs	r2, #255
 372 0034 FFF7FEFF 		bl	_thread_memfill
 373              		.loc 1 194 0
 374 0038 079B     		ldr	r3, [sp, #28]
 375 003a 03F14C01 		add	r1, r3, #76
 376              		.loc 1 195 0
 377 003e 059B     		ldr	r3, [sp, #20]
 378 0040 5B68     		ldr	r3, [r3, #4]
 379              		.loc 1 194 0
 380 0042 079A     		ldr	r2, [sp, #28]
 381 0044 1344     		add	r3, r3, r2
 382 0046 0846     		mov	r0, r1
ARM GAS  /tmp/cc1zhrQa.s 			page 8


 383 0048 1946     		mov	r1, r3
 384 004a 5522     		movs	r2, #85
 385 004c FFF7FEFF 		bl	_thread_memfill
 386              	.LBB8:
 387              		.loc 1 199 0
 388 0050 2023     		movs	r3, #32
 389              	@ 199 "/home/ergae/r2p-sdk/core/ChibiOS/os/kernel/src/chdynamic.c" 1
 390 0052 83F31188 		msr     BASEPRI, r3
 391              	@ 0 "" 2
 392              		.thumb
 393              	.LBE8:
 394 0056 FFF7FEFF 		bl	dbg_check_lock
 395              		.loc 1 200 0
 396 005a 059B     		ldr	r3, [sp, #20]
 397 005c 5A68     		ldr	r2, [r3, #4]
 398 005e 029B     		ldr	r3, [sp, #8]
 399 0060 0093     		str	r3, [sp]
 400 0062 0798     		ldr	r0, [sp, #28]
 401 0064 1146     		mov	r1, r2
 402 0066 049A     		ldr	r2, [sp, #16]
 403 0068 039B     		ldr	r3, [sp, #12]
 404 006a FFF7FEFF 		bl	chThdCreateI
 405 006e 0690     		str	r0, [sp, #24]
 406              		.loc 1 201 0
 407 0070 069B     		ldr	r3, [sp, #24]
 408 0072 0222     		movs	r2, #2
 409 0074 83F82120 		strb	r2, [r3, #33]
 410              		.loc 1 202 0
 411 0078 069B     		ldr	r3, [sp, #24]
 412 007a 059A     		ldr	r2, [sp, #20]
 413 007c 9A64     		str	r2, [r3, #72]
 414              		.loc 1 203 0
 415 007e 0698     		ldr	r0, [sp, #24]
 416 0080 0021     		movs	r1, #0
 417 0082 FFF7FEFF 		bl	chSchWakeupS
 418              		.loc 1 204 0
 419 0086 FFF7FEFF 		bl	dbg_check_unlock
 420              	.LBB9:
 421 008a 0023     		movs	r3, #0
 422              	@ 204 "/home/ergae/r2p-sdk/core/ChibiOS/os/kernel/src/chdynamic.c" 1
 423 008c 83F31188 		msr     BASEPRI, r3
 424              	@ 0 "" 2
 425              		.thumb
 426              	.LBE9:
 427              		.loc 1 205 0
 428 0090 069B     		ldr	r3, [sp, #24]
 429              	.L19:
 430              		.loc 1 206 0
 431 0092 1846     		mov	r0, r3
 432 0094 09B0     		add	sp, sp, #36
 433              		.cfi_def_cfa_offset 4
 434              		@ sp needed
 435 0096 5DF804FB 		ldr	pc, [sp], #4
 436              	.L21:
 437 009a 00BF     		.align	2
 438              	.L20:
 439 009c 28000000 		.word	.LC2
ARM GAS  /tmp/cc1zhrQa.s 			page 9


 440              		.cfi_endproc
 441              	.LFE10:
 442              		.size	chThdCreateFromMemoryPool, .-chThdCreateFromMemoryPool
 443              		.text
 444              	.Letext0:
 445              		.file 2 "/home/ergae/r2p-sdk/tools/gcc-arm-none-eabi-4_9-2014q4/lib/gcc/arm-none-eabi/4.9.3/includ
 446              		.file 3 "/home/ergae/r2p-sdk/tools/gcc-arm-none-eabi-4_9-2014q4/arm-none-eabi/include/machine/_def
 447              		.file 4 "/home/ergae/r2p-sdk/tools/gcc-arm-none-eabi-4_9-2014q4/arm-none-eabi/include/stdint.h"
 448              		.file 5 "/home/ergae/r2p-sdk/core/ChibiOS/os/ports/GCC/ARMCMx/chtypes.h"
 449              		.file 6 "/home/ergae/r2p-sdk/core/ChibiOS/os/kernel/include/chlists.h"
 450              		.file 7 "/home/ergae/r2p-sdk/core/ChibiOS/os/kernel/include/chthreads.h"
 451              		.file 8 "/home/ergae/r2p-sdk/core/ChibiOS/os/ports/GCC/ARMCMx/chcore_v7m.h"
 452              		.file 9 "/home/ergae/r2p-sdk/core/ChibiOS/os/kernel/include/chmtx.h"
 453              		.file 10 "/home/ergae/r2p-sdk/core/ChibiOS/os/kernel/include/chmemcore.h"
 454              		.file 11 "/home/ergae/r2p-sdk/core/ChibiOS/os/kernel/include/chheap.h"
 455              		.file 12 "/home/ergae/r2p-sdk/core/ChibiOS/os/kernel/include/chmempools.h"
 456              		.section	.debug_info,"",%progbits
 457              	.Ldebug_info0:
 458 0000 FB070000 		.4byte	0x7fb
 459 0004 0400     		.2byte	0x4
 460 0006 00000000 		.4byte	.Ldebug_abbrev0
 461 000a 04       		.byte	0x4
 462 000b 01       		.uleb128 0x1
 463 000c 75030000 		.4byte	.LASF87
 464 0010 01       		.byte	0x1
 465 0011 52010000 		.4byte	.LASF88
 466 0015 00000000 		.4byte	.Ldebug_ranges0+0
 467 0019 00000000 		.4byte	0
 468 001d 00000000 		.4byte	.Ldebug_line0
 469 0021 02       		.uleb128 0x2
 470 0022 04       		.byte	0x4
 471 0023 05       		.byte	0x5
 472 0024 696E7400 		.ascii	"int\000"
 473 0028 03       		.uleb128 0x3
 474 0029 0E000000 		.4byte	.LASF2
 475 002d 02       		.byte	0x2
 476 002e D4       		.byte	0xd4
 477 002f 33000000 		.4byte	0x33
 478 0033 04       		.uleb128 0x4
 479 0034 04       		.byte	0x4
 480 0035 07       		.byte	0x7
 481 0036 33010000 		.4byte	.LASF0
 482 003a 04       		.uleb128 0x4
 483 003b 01       		.byte	0x1
 484 003c 06       		.byte	0x6
 485 003d 85000000 		.4byte	.LASF1
 486 0041 03       		.uleb128 0x3
 487 0042 25000000 		.4byte	.LASF3
 488 0046 03       		.byte	0x3
 489 0047 1D       		.byte	0x1d
 490 0048 4C000000 		.4byte	0x4c
 491 004c 04       		.uleb128 0x4
 492 004d 01       		.byte	0x1
 493 004e 08       		.byte	0x8
 494 004f 6A020000 		.4byte	.LASF4
 495 0053 04       		.uleb128 0x4
 496 0054 02       		.byte	0x2
ARM GAS  /tmp/cc1zhrQa.s 			page 10


 497 0055 05       		.byte	0x5
 498 0056 8D020000 		.4byte	.LASF5
 499 005a 04       		.uleb128 0x4
 500 005b 02       		.byte	0x2
 501 005c 07       		.byte	0x7
 502 005d 9A010000 		.4byte	.LASF6
 503 0061 03       		.uleb128 0x3
 504 0062 19030000 		.4byte	.LASF7
 505 0066 03       		.byte	0x3
 506 0067 3F       		.byte	0x3f
 507 0068 6C000000 		.4byte	0x6c
 508 006c 04       		.uleb128 0x4
 509 006d 04       		.byte	0x4
 510 006e 05       		.byte	0x5
 511 006f B1000000 		.4byte	.LASF8
 512 0073 03       		.uleb128 0x3
 513 0074 02010000 		.4byte	.LASF9
 514 0078 03       		.byte	0x3
 515 0079 41       		.byte	0x41
 516 007a 7E000000 		.4byte	0x7e
 517 007e 04       		.uleb128 0x4
 518 007f 04       		.byte	0x4
 519 0080 07       		.byte	0x7
 520 0081 40010000 		.4byte	.LASF10
 521 0085 04       		.uleb128 0x4
 522 0086 08       		.byte	0x8
 523 0087 05       		.byte	0x5
 524 0088 77000000 		.4byte	.LASF11
 525 008c 03       		.uleb128 0x3
 526 008d 2D020000 		.4byte	.LASF12
 527 0091 03       		.byte	0x3
 528 0092 5B       		.byte	0x5b
 529 0093 97000000 		.4byte	0x97
 530 0097 04       		.uleb128 0x4
 531 0098 08       		.byte	0x8
 532 0099 07       		.byte	0x7
 533 009a 47000000 		.4byte	.LASF13
 534 009e 03       		.uleb128 0x3
 535 009f 57030000 		.4byte	.LASF14
 536 00a3 04       		.byte	0x4
 537 00a4 15       		.byte	0x15
 538 00a5 41000000 		.4byte	0x41
 539 00a9 03       		.uleb128 0x3
 540 00aa 62020000 		.4byte	.LASF15
 541 00ae 04       		.byte	0x4
 542 00af 2C       		.byte	0x2c
 543 00b0 61000000 		.4byte	0x61
 544 00b4 03       		.uleb128 0x3
 545 00b5 EA020000 		.4byte	.LASF16
 546 00b9 04       		.byte	0x4
 547 00ba 2D       		.byte	0x2d
 548 00bb 73000000 		.4byte	0x73
 549 00bf 03       		.uleb128 0x3
 550 00c0 1C000000 		.4byte	.LASF17
 551 00c4 04       		.byte	0x4
 552 00c5 39       		.byte	0x39
 553 00c6 8C000000 		.4byte	0x8c
ARM GAS  /tmp/cc1zhrQa.s 			page 11


 554 00ca 04       		.uleb128 0x4
 555 00cb 01       		.byte	0x1
 556 00cc 02       		.byte	0x2
 557 00cd 5C020000 		.4byte	.LASF18
 558 00d1 03       		.uleb128 0x3
 559 00d2 B3010000 		.4byte	.LASF19
 560 00d6 05       		.byte	0x5
 561 00d7 2C       		.byte	0x2c
 562 00d8 9E000000 		.4byte	0x9e
 563 00dc 03       		.uleb128 0x3
 564 00dd CE000000 		.4byte	.LASF20
 565 00e1 05       		.byte	0x5
 566 00e2 2D       		.byte	0x2d
 567 00e3 9E000000 		.4byte	0x9e
 568 00e7 03       		.uleb128 0x3
 569 00e8 40020000 		.4byte	.LASF21
 570 00ec 05       		.byte	0x5
 571 00ed 2E       		.byte	0x2e
 572 00ee 9E000000 		.4byte	0x9e
 573 00f2 03       		.uleb128 0x3
 574 00f3 A7000000 		.4byte	.LASF22
 575 00f7 05       		.byte	0x5
 576 00f8 2F       		.byte	0x2f
 577 00f9 9E000000 		.4byte	0x9e
 578 00fd 03       		.uleb128 0x3
 579 00fe 54020000 		.4byte	.LASF23
 580 0102 05       		.byte	0x5
 581 0103 30       		.byte	0x30
 582 0104 B4000000 		.4byte	0xb4
 583 0108 03       		.uleb128 0x3
 584 0109 AD010000 		.4byte	.LASF24
 585 010d 05       		.byte	0x5
 586 010e 31       		.byte	0x31
 587 010f A9000000 		.4byte	0xa9
 588 0113 03       		.uleb128 0x3
 589 0114 C7010000 		.4byte	.LASF25
 590 0118 05       		.byte	0x5
 591 0119 33       		.byte	0x33
 592 011a B4000000 		.4byte	0xb4
 593 011e 03       		.uleb128 0x3
 594 011f 04030000 		.4byte	.LASF26
 595 0123 05       		.byte	0x5
 596 0124 35       		.byte	0x35
 597 0125 B4000000 		.4byte	0xb4
 598 0129 03       		.uleb128 0x3
 599 012a D8020000 		.4byte	.LASF27
 600 012e 06       		.byte	0x6
 601 012f 2A       		.byte	0x2a
 602 0130 34010000 		.4byte	0x134
 603 0134 05       		.uleb128 0x5
 604 0135 D8020000 		.4byte	.LASF27
 605 0139 4C       		.byte	0x4c
 606 013a 07       		.byte	0x7
 607 013b 5E       		.byte	0x5e
 608 013c 3D020000 		.4byte	0x23d
 609 0140 06       		.uleb128 0x6
 610 0141 BC020000 		.4byte	.LASF28
ARM GAS  /tmp/cc1zhrQa.s 			page 12


 611 0145 07       		.byte	0x7
 612 0146 5F       		.byte	0x5f
 613 0147 5E020000 		.4byte	0x25e
 614 014b 00       		.byte	0
 615 014c 06       		.uleb128 0x6
 616 014d 4D020000 		.4byte	.LASF29
 617 0151 07       		.byte	0x7
 618 0152 61       		.byte	0x61
 619 0153 5E020000 		.4byte	0x25e
 620 0157 04       		.byte	0x4
 621 0158 06       		.uleb128 0x6
 622 0159 70000000 		.4byte	.LASF30
 623 015d 07       		.byte	0x7
 624 015e 63       		.byte	0x63
 625 015f FD000000 		.4byte	0xfd
 626 0163 08       		.byte	0x8
 627 0164 06       		.uleb128 0x6
 628 0165 8E040000 		.4byte	.LASF31
 629 0169 07       		.byte	0x7
 630 016a 64       		.byte	0x64
 631 016b F3030000 		.4byte	0x3f3
 632 016f 0C       		.byte	0xc
 633 0170 06       		.uleb128 0x6
 634 0171 D7000000 		.4byte	.LASF32
 635 0175 07       		.byte	0x7
 636 0176 66       		.byte	0x66
 637 0177 5E020000 		.4byte	0x25e
 638 017b 10       		.byte	0x10
 639 017c 06       		.uleb128 0x6
 640 017d F9010000 		.4byte	.LASF33
 641 0181 07       		.byte	0x7
 642 0182 67       		.byte	0x67
 643 0183 5E020000 		.4byte	0x25e
 644 0187 14       		.byte	0x14
 645 0188 06       		.uleb128 0x6
 646 0189 66030000 		.4byte	.LASF34
 647 018d 07       		.byte	0x7
 648 018e 6E       		.byte	0x6e
 649 018f B5050000 		.4byte	0x5b5
 650 0193 18       		.byte	0x18
 651 0194 06       		.uleb128 0x6
 652 0195 28010000 		.4byte	.LASF35
 653 0199 07       		.byte	0x7
 654 019a 74       		.byte	0x74
 655 019b C7050000 		.4byte	0x5c7
 656 019f 1C       		.byte	0x1c
 657 01a0 06       		.uleb128 0x6
 658 01a1 97020000 		.4byte	.LASF36
 659 01a5 07       		.byte	0x7
 660 01a6 79       		.byte	0x79
 661 01a7 DC000000 		.4byte	0xdc
 662 01ab 20       		.byte	0x20
 663 01ac 06       		.uleb128 0x6
 664 01ad C3020000 		.4byte	.LASF37
 665 01b1 07       		.byte	0x7
 666 01b2 7D       		.byte	0x7d
 667 01b3 D1000000 		.4byte	0xd1
ARM GAS  /tmp/cc1zhrQa.s 			page 13


 668 01b7 21       		.byte	0x21
 669 01b8 06       		.uleb128 0x6
 670 01b9 50030000 		.4byte	.LASF38
 671 01bd 07       		.byte	0x7
 672 01be 82       		.byte	0x82
 673 01bf E7000000 		.4byte	0xe7
 674 01c3 22       		.byte	0x22
 675 01c4 06       		.uleb128 0x6
 676 01c5 9F020000 		.4byte	.LASF39
 677 01c9 07       		.byte	0x7
 678 01ca 88       		.byte	0x88
 679 01cb F2000000 		.4byte	0xf2
 680 01cf 23       		.byte	0x23
 681 01d0 06       		.uleb128 0x6
 682 01d1 2B030000 		.4byte	.LASF40
 683 01d5 07       		.byte	0x7
 684 01d6 8F       		.byte	0x8f
 685 01d7 1B040000 		.4byte	0x41b
 686 01db 24       		.byte	0x24
 687 01dc 07       		.uleb128 0x7
 688 01dd 705F7500 		.ascii	"p_u\000"
 689 01e1 07       		.byte	0x7
 690 01e2 B4       		.byte	0xb4
 691 01e3 80050000 		.4byte	0x580
 692 01e7 28       		.byte	0x28
 693 01e8 06       		.uleb128 0x6
 694 01e9 94040000 		.4byte	.LASF41
 695 01ed 07       		.byte	0x7
 696 01ee B9       		.byte	0xb9
 697 01ef 84020000 		.4byte	0x284
 698 01f3 2C       		.byte	0x2c
 699 01f4 06       		.uleb128 0x6
 700 01f5 39030000 		.4byte	.LASF42
 701 01f9 07       		.byte	0x7
 702 01fa BF       		.byte	0xbf
 703 01fb 64020000 		.4byte	0x264
 704 01ff 30       		.byte	0x30
 705 0200 06       		.uleb128 0x6
 706 0201 08000000 		.4byte	.LASF43
 707 0205 07       		.byte	0x7
 708 0206 C3       		.byte	0xc3
 709 0207 08010000 		.4byte	0x108
 710 020b 38       		.byte	0x38
 711 020c 06       		.uleb128 0x6
 712 020d DF020000 		.4byte	.LASF44
 713 0211 07       		.byte	0x7
 714 0212 C9       		.byte	0xc9
 715 0213 13010000 		.4byte	0x113
 716 0217 3C       		.byte	0x3c
 717 0218 06       		.uleb128 0x6
 718 0219 83020000 		.4byte	.LASF45
 719 021d 07       		.byte	0x7
 720 021e D0       		.byte	0xd0
 721 021f CD050000 		.4byte	0x5cd
 722 0223 40       		.byte	0x40
 723 0224 06       		.uleb128 0x6
 724 0225 0E030000 		.4byte	.LASF46
ARM GAS  /tmp/cc1zhrQa.s 			page 14


 725 0229 07       		.byte	0x7
 726 022a D4       		.byte	0xd4
 727 022b FD000000 		.4byte	0xfd
 728 022f 44       		.byte	0x44
 729 0230 06       		.uleb128 0x6
 730 0231 97000000 		.4byte	.LASF47
 731 0235 07       		.byte	0x7
 732 0236 DA       		.byte	0xda
 733 0237 9A020000 		.4byte	0x29a
 734 023b 48       		.byte	0x48
 735 023c 00       		.byte	0
 736 023d 08       		.uleb128 0x8
 737 023e 08       		.byte	0x8
 738 023f 06       		.byte	0x6
 739 0240 61       		.byte	0x61
 740 0241 5E020000 		.4byte	0x25e
 741 0245 06       		.uleb128 0x6
 742 0246 BC020000 		.4byte	.LASF28
 743 024a 06       		.byte	0x6
 744 024b 62       		.byte	0x62
 745 024c 5E020000 		.4byte	0x25e
 746 0250 00       		.byte	0
 747 0251 06       		.uleb128 0x6
 748 0252 4D020000 		.4byte	.LASF29
 749 0256 06       		.byte	0x6
 750 0257 64       		.byte	0x64
 751 0258 5E020000 		.4byte	0x25e
 752 025c 04       		.byte	0x4
 753 025d 00       		.byte	0
 754 025e 09       		.uleb128 0x9
 755 025f 04       		.byte	0x4
 756 0260 29010000 		.4byte	0x129
 757 0264 03       		.uleb128 0x3
 758 0265 01020000 		.4byte	.LASF48
 759 0269 06       		.byte	0x6
 760 026a 66       		.byte	0x66
 761 026b 3D020000 		.4byte	0x23d
 762 026f 08       		.uleb128 0x8
 763 0270 04       		.byte	0x4
 764 0271 06       		.byte	0x6
 765 0272 6B       		.byte	0x6b
 766 0273 84020000 		.4byte	0x284
 767 0277 06       		.uleb128 0x6
 768 0278 BC020000 		.4byte	.LASF28
 769 027c 06       		.byte	0x6
 770 027d 6D       		.byte	0x6d
 771 027e 5E020000 		.4byte	0x25e
 772 0282 00       		.byte	0
 773 0283 00       		.byte	0
 774 0284 03       		.uleb128 0x3
 775 0285 BB010000 		.4byte	.LASF49
 776 0289 06       		.byte	0x6
 777 028a 70       		.byte	0x70
 778 028b 6F020000 		.4byte	0x26f
 779 028f 03       		.uleb128 0x3
 780 0290 19010000 		.4byte	.LASF50
 781 0294 08       		.byte	0x8
ARM GAS  /tmp/cc1zhrQa.s 			page 15


 782 0295 E5       		.byte	0xe5
 783 0296 9A020000 		.4byte	0x29a
 784 029a 0A       		.uleb128 0xa
 785 029b 04       		.byte	0x4
 786 029c 03       		.uleb128 0x3
 787 029d E5010000 		.4byte	.LASF51
 788 02a1 08       		.byte	0x8
 789 02a2 EB       		.byte	0xeb
 790 02a3 BF000000 		.4byte	0xbf
 791 02a7 0B       		.uleb128 0xb
 792 02a8 32030000 		.4byte	.LASF52
 793 02ac 64       		.byte	0x64
 794 02ad 08       		.byte	0x8
 795 02ae 0C01     		.2byte	0x10c
 796 02b0 F3030000 		.4byte	0x3f3
 797 02b4 0C       		.uleb128 0xc
 798 02b5 73313600 		.ascii	"s16\000"
 799 02b9 08       		.byte	0x8
 800 02ba 0E01     		.2byte	0x10e
 801 02bc 8F020000 		.4byte	0x28f
 802 02c0 00       		.byte	0
 803 02c1 0C       		.uleb128 0xc
 804 02c2 73313700 		.ascii	"s17\000"
 805 02c6 08       		.byte	0x8
 806 02c7 0F01     		.2byte	0x10f
 807 02c9 8F020000 		.4byte	0x28f
 808 02cd 04       		.byte	0x4
 809 02ce 0C       		.uleb128 0xc
 810 02cf 73313800 		.ascii	"s18\000"
 811 02d3 08       		.byte	0x8
 812 02d4 1001     		.2byte	0x110
 813 02d6 8F020000 		.4byte	0x28f
 814 02da 08       		.byte	0x8
 815 02db 0C       		.uleb128 0xc
 816 02dc 73313900 		.ascii	"s19\000"
 817 02e0 08       		.byte	0x8
 818 02e1 1101     		.2byte	0x111
 819 02e3 8F020000 		.4byte	0x28f
 820 02e7 0C       		.byte	0xc
 821 02e8 0C       		.uleb128 0xc
 822 02e9 73323000 		.ascii	"s20\000"
 823 02ed 08       		.byte	0x8
 824 02ee 1201     		.2byte	0x112
 825 02f0 8F020000 		.4byte	0x28f
 826 02f4 10       		.byte	0x10
 827 02f5 0C       		.uleb128 0xc
 828 02f6 73323100 		.ascii	"s21\000"
 829 02fa 08       		.byte	0x8
 830 02fb 1301     		.2byte	0x113
 831 02fd 8F020000 		.4byte	0x28f
 832 0301 14       		.byte	0x14
 833 0302 0C       		.uleb128 0xc
 834 0303 73323200 		.ascii	"s22\000"
 835 0307 08       		.byte	0x8
 836 0308 1401     		.2byte	0x114
 837 030a 8F020000 		.4byte	0x28f
 838 030e 18       		.byte	0x18
ARM GAS  /tmp/cc1zhrQa.s 			page 16


 839 030f 0C       		.uleb128 0xc
 840 0310 73323300 		.ascii	"s23\000"
 841 0314 08       		.byte	0x8
 842 0315 1501     		.2byte	0x115
 843 0317 8F020000 		.4byte	0x28f
 844 031b 1C       		.byte	0x1c
 845 031c 0C       		.uleb128 0xc
 846 031d 73323400 		.ascii	"s24\000"
 847 0321 08       		.byte	0x8
 848 0322 1601     		.2byte	0x116
 849 0324 8F020000 		.4byte	0x28f
 850 0328 20       		.byte	0x20
 851 0329 0C       		.uleb128 0xc
 852 032a 73323500 		.ascii	"s25\000"
 853 032e 08       		.byte	0x8
 854 032f 1701     		.2byte	0x117
 855 0331 8F020000 		.4byte	0x28f
 856 0335 24       		.byte	0x24
 857 0336 0C       		.uleb128 0xc
 858 0337 73323600 		.ascii	"s26\000"
 859 033b 08       		.byte	0x8
 860 033c 1801     		.2byte	0x118
 861 033e 8F020000 		.4byte	0x28f
 862 0342 28       		.byte	0x28
 863 0343 0C       		.uleb128 0xc
 864 0344 73323700 		.ascii	"s27\000"
 865 0348 08       		.byte	0x8
 866 0349 1901     		.2byte	0x119
 867 034b 8F020000 		.4byte	0x28f
 868 034f 2C       		.byte	0x2c
 869 0350 0C       		.uleb128 0xc
 870 0351 73323800 		.ascii	"s28\000"
 871 0355 08       		.byte	0x8
 872 0356 1A01     		.2byte	0x11a
 873 0358 8F020000 		.4byte	0x28f
 874 035c 30       		.byte	0x30
 875 035d 0C       		.uleb128 0xc
 876 035e 73323900 		.ascii	"s29\000"
 877 0362 08       		.byte	0x8
 878 0363 1B01     		.2byte	0x11b
 879 0365 8F020000 		.4byte	0x28f
 880 0369 34       		.byte	0x34
 881 036a 0C       		.uleb128 0xc
 882 036b 73333000 		.ascii	"s30\000"
 883 036f 08       		.byte	0x8
 884 0370 1C01     		.2byte	0x11c
 885 0372 8F020000 		.4byte	0x28f
 886 0376 38       		.byte	0x38
 887 0377 0C       		.uleb128 0xc
 888 0378 73333100 		.ascii	"s31\000"
 889 037c 08       		.byte	0x8
 890 037d 1D01     		.2byte	0x11d
 891 037f 8F020000 		.4byte	0x28f
 892 0383 3C       		.byte	0x3c
 893 0384 0C       		.uleb128 0xc
 894 0385 723400   		.ascii	"r4\000"
 895 0388 08       		.byte	0x8
ARM GAS  /tmp/cc1zhrQa.s 			page 17


 896 0389 1F01     		.2byte	0x11f
 897 038b 8F020000 		.4byte	0x28f
 898 038f 40       		.byte	0x40
 899 0390 0C       		.uleb128 0xc
 900 0391 723500   		.ascii	"r5\000"
 901 0394 08       		.byte	0x8
 902 0395 2001     		.2byte	0x120
 903 0397 8F020000 		.4byte	0x28f
 904 039b 44       		.byte	0x44
 905 039c 0C       		.uleb128 0xc
 906 039d 723600   		.ascii	"r6\000"
 907 03a0 08       		.byte	0x8
 908 03a1 2101     		.2byte	0x121
 909 03a3 8F020000 		.4byte	0x28f
 910 03a7 48       		.byte	0x48
 911 03a8 0C       		.uleb128 0xc
 912 03a9 723700   		.ascii	"r7\000"
 913 03ac 08       		.byte	0x8
 914 03ad 2201     		.2byte	0x122
 915 03af 8F020000 		.4byte	0x28f
 916 03b3 4C       		.byte	0x4c
 917 03b4 0C       		.uleb128 0xc
 918 03b5 723800   		.ascii	"r8\000"
 919 03b8 08       		.byte	0x8
 920 03b9 2301     		.2byte	0x123
 921 03bb 8F020000 		.4byte	0x28f
 922 03bf 50       		.byte	0x50
 923 03c0 0C       		.uleb128 0xc
 924 03c1 723900   		.ascii	"r9\000"
 925 03c4 08       		.byte	0x8
 926 03c5 2401     		.2byte	0x124
 927 03c7 8F020000 		.4byte	0x28f
 928 03cb 54       		.byte	0x54
 929 03cc 0C       		.uleb128 0xc
 930 03cd 72313000 		.ascii	"r10\000"
 931 03d1 08       		.byte	0x8
 932 03d2 2501     		.2byte	0x125
 933 03d4 8F020000 		.4byte	0x28f
 934 03d8 58       		.byte	0x58
 935 03d9 0C       		.uleb128 0xc
 936 03da 72313100 		.ascii	"r11\000"
 937 03de 08       		.byte	0x8
 938 03df 2601     		.2byte	0x126
 939 03e1 8F020000 		.4byte	0x28f
 940 03e5 5C       		.byte	0x5c
 941 03e6 0C       		.uleb128 0xc
 942 03e7 6C7200   		.ascii	"lr\000"
 943 03ea 08       		.byte	0x8
 944 03eb 2701     		.2byte	0x127
 945 03ed 8F020000 		.4byte	0x28f
 946 03f1 60       		.byte	0x60
 947 03f2 00       		.byte	0
 948 03f3 0B       		.uleb128 0xb
 949 03f4 8D010000 		.4byte	.LASF53
 950 03f8 04       		.byte	0x4
 951 03f9 08       		.byte	0x8
 952 03fa 3101     		.2byte	0x131
ARM GAS  /tmp/cc1zhrQa.s 			page 18


 953 03fc 0E040000 		.4byte	0x40e
 954 0400 0C       		.uleb128 0xc
 955 0401 72313300 		.ascii	"r13\000"
 956 0405 08       		.byte	0x8
 957 0406 3201     		.2byte	0x132
 958 0408 0E040000 		.4byte	0x40e
 959 040c 00       		.byte	0
 960 040d 00       		.byte	0
 961 040e 09       		.uleb128 0x9
 962 040f 04       		.byte	0x4
 963 0410 A7020000 		.4byte	0x2a7
 964 0414 04       		.uleb128 0x4
 965 0415 04       		.byte	0x4
 966 0416 07       		.byte	0x7
 967 0417 F0010000 		.4byte	.LASF54
 968 041b 0D       		.uleb128 0xd
 969 041c 1E010000 		.4byte	0x11e
 970 0420 05       		.uleb128 0x5
 971 0421 D3010000 		.4byte	.LASF55
 972 0425 10       		.byte	0x10
 973 0426 09       		.byte	0x9
 974 0427 2C       		.byte	0x2c
 975 0428 51040000 		.4byte	0x451
 976 042c 06       		.uleb128 0x6
 977 042d 9F000000 		.4byte	.LASF56
 978 0431 09       		.byte	0x9
 979 0432 2D       		.byte	0x2d
 980 0433 64020000 		.4byte	0x264
 981 0437 00       		.byte	0
 982 0438 06       		.uleb128 0x6
 983 0439 6D030000 		.4byte	.LASF57
 984 043d 09       		.byte	0x9
 985 043e 2F       		.byte	0x2f
 986 043f 5E020000 		.4byte	0x25e
 987 0443 08       		.byte	0x8
 988 0444 06       		.uleb128 0x6
 989 0445 FD020000 		.4byte	.LASF58
 990 0449 09       		.byte	0x9
 991 044a 31       		.byte	0x31
 992 044b 51040000 		.4byte	0x451
 993 044f 0C       		.byte	0xc
 994 0450 00       		.byte	0
 995 0451 09       		.uleb128 0x9
 996 0452 04       		.byte	0x4
 997 0453 20040000 		.4byte	0x420
 998 0457 03       		.uleb128 0x3
 999 0458 D3010000 		.4byte	.LASF55
 1000 045c 09       		.byte	0x9
 1001 045d 33       		.byte	0x33
 1002 045e 20040000 		.4byte	0x420
 1003 0462 03       		.uleb128 0x3
 1004 0463 3A000000 		.4byte	.LASF59
 1005 0467 0A       		.byte	0xa
 1006 0468 2C       		.byte	0x2c
 1007 0469 6D040000 		.4byte	0x46d
 1008 046d 09       		.uleb128 0x9
 1009 046e 04       		.byte	0x4
ARM GAS  /tmp/cc1zhrQa.s 			page 19


 1010 046f 73040000 		.4byte	0x473
 1011 0473 0E       		.uleb128 0xe
 1012 0474 9A020000 		.4byte	0x29a
 1013 0478 82040000 		.4byte	0x482
 1014 047c 0F       		.uleb128 0xf
 1015 047d 28000000 		.4byte	0x28
 1016 0481 00       		.byte	0
 1017 0482 03       		.uleb128 0x3
 1018 0483 22020000 		.4byte	.LASF60
 1019 0487 0B       		.byte	0xb
 1020 0488 34       		.byte	0x34
 1021 0489 8D040000 		.4byte	0x48d
 1022 048d 05       		.uleb128 0x5
 1023 048e 9E040000 		.4byte	.LASF61
 1024 0492 20       		.byte	0x20
 1025 0493 0B       		.byte	0xb
 1026 0494 47       		.byte	0x47
 1027 0495 BE040000 		.4byte	0x4be
 1028 0499 06       		.uleb128 0x6
 1029 049a 78020000 		.4byte	.LASF62
 1030 049e 0B       		.byte	0xb
 1031 049f 48       		.byte	0x48
 1032 04a0 62040000 		.4byte	0x462
 1033 04a4 00       		.byte	0
 1034 04a5 06       		.uleb128 0x6
 1035 04a6 5E000000 		.4byte	.LASF63
 1036 04aa 0B       		.byte	0xb
 1037 04ab 4A       		.byte	0x4a
 1038 04ac DD040000 		.4byte	0x4dd
 1039 04b0 08       		.byte	0x8
 1040 04b1 06       		.uleb128 0x6
 1041 04b2 91000000 		.4byte	.LASF64
 1042 04b6 0B       		.byte	0xb
 1043 04b7 4C       		.byte	0x4c
 1044 04b8 57040000 		.4byte	0x457
 1045 04bc 10       		.byte	0x10
 1046 04bd 00       		.byte	0
 1047 04be 10       		.uleb128 0x10
 1048 04bf 04       		.byte	0x4
 1049 04c0 0B       		.byte	0xb
 1050 04c1 3C       		.byte	0x3c
 1051 04c2 DD040000 		.4byte	0x4dd
 1052 04c6 11       		.uleb128 0x11
 1053 04c7 6B000000 		.4byte	.LASF65
 1054 04cb 0B       		.byte	0xb
 1055 04cc 3D       		.byte	0x3d
 1056 04cd FE040000 		.4byte	0x4fe
 1057 04d1 11       		.uleb128 0x11
 1058 04d2 F3020000 		.4byte	.LASF66
 1059 04d6 0B       		.byte	0xb
 1060 04d7 3E       		.byte	0x3e
 1061 04d8 04050000 		.4byte	0x504
 1062 04dc 00       		.byte	0
 1063 04dd 12       		.uleb128 0x12
 1064 04de A9020000 		.4byte	.LASF89
 1065 04e2 08       		.byte	0x8
 1066 04e3 0B       		.byte	0xb
ARM GAS  /tmp/cc1zhrQa.s 			page 20


 1067 04e4 39       		.byte	0x39
 1068 04e5 FE040000 		.4byte	0x4fe
 1069 04e9 11       		.uleb128 0x11
 1070 04ea 22010000 		.4byte	.LASF67
 1071 04ee 0B       		.byte	0xb
 1072 04ef 3A       		.byte	0x3a
 1073 04f0 9C020000 		.4byte	0x29c
 1074 04f4 13       		.uleb128 0x13
 1075 04f5 6800     		.ascii	"h\000"
 1076 04f7 0B       		.byte	0xb
 1077 04f8 41       		.byte	0x41
 1078 04f9 0A050000 		.4byte	0x50a
 1079 04fd 00       		.byte	0
 1080 04fe 09       		.uleb128 0x9
 1081 04ff 04       		.byte	0x4
 1082 0500 DD040000 		.4byte	0x4dd
 1083 0504 09       		.uleb128 0x9
 1084 0505 04       		.byte	0x4
 1085 0506 82040000 		.4byte	0x482
 1086 050a 08       		.uleb128 0x8
 1087 050b 08       		.byte	0x8
 1088 050c 0B       		.byte	0xb
 1089 050d 3B       		.byte	0x3b
 1090 050e 29050000 		.4byte	0x529
 1091 0512 07       		.uleb128 0x7
 1092 0513 7500     		.ascii	"u\000"
 1093 0515 0B       		.byte	0xb
 1094 0516 3F       		.byte	0x3f
 1095 0517 BE040000 		.4byte	0x4be
 1096 051b 00       		.byte	0
 1097 051c 06       		.uleb128 0x6
 1098 051d 95010000 		.4byte	.LASF68
 1099 0521 0B       		.byte	0xb
 1100 0522 40       		.byte	0x40
 1101 0523 28000000 		.4byte	0x28
 1102 0527 04       		.byte	0x4
 1103 0528 00       		.byte	0
 1104 0529 05       		.uleb128 0x5
 1105 052a 44030000 		.4byte	.LASF69
 1106 052e 04       		.byte	0x4
 1107 052f 0C       		.byte	0xc
 1108 0530 2C       		.byte	0x2c
 1109 0531 42050000 		.4byte	0x542
 1110 0535 06       		.uleb128 0x6
 1111 0536 38020000 		.4byte	.LASF70
 1112 053a 0C       		.byte	0xc
 1113 053b 2D       		.byte	0x2d
 1114 053c 42050000 		.4byte	0x542
 1115 0540 00       		.byte	0
 1116 0541 00       		.byte	0
 1117 0542 09       		.uleb128 0x9
 1118 0543 04       		.byte	0x4
 1119 0544 29050000 		.4byte	0x529
 1120 0548 08       		.uleb128 0x8
 1121 0549 0C       		.byte	0xc
 1122 054a 0C       		.byte	0xc
 1123 054b 34       		.byte	0x34
ARM GAS  /tmp/cc1zhrQa.s 			page 21


 1124 054c 75050000 		.4byte	0x575
 1125 0550 06       		.uleb128 0x6
 1126 0551 23030000 		.4byte	.LASF71
 1127 0555 0C       		.byte	0xc
 1128 0556 35       		.byte	0x35
 1129 0557 42050000 		.4byte	0x542
 1130 055b 00       		.byte	0
 1131 055c 06       		.uleb128 0x6
 1132 055d 0E020000 		.4byte	.LASF72
 1133 0561 0C       		.byte	0xc
 1134 0562 36       		.byte	0x36
 1135 0563 28000000 		.4byte	0x28
 1136 0567 04       		.byte	0x4
 1137 0568 06       		.uleb128 0x6
 1138 0569 0D010000 		.4byte	.LASF73
 1139 056d 0C       		.byte	0xc
 1140 056e 38       		.byte	0x38
 1141 056f 62040000 		.4byte	0x462
 1142 0573 08       		.byte	0x8
 1143 0574 00       		.byte	0
 1144 0575 03       		.uleb128 0x3
 1145 0576 2F000000 		.4byte	.LASF74
 1146 057a 0C       		.byte	0xc
 1147 057b 3A       		.byte	0x3a
 1148 057c 48050000 		.4byte	0x548
 1149 0580 10       		.uleb128 0x10
 1150 0581 04       		.byte	0x4
 1151 0582 07       		.byte	0x7
 1152 0583 96       		.byte	0x96
 1153 0584 B5050000 		.4byte	0x5b5
 1154 0588 11       		.uleb128 0x11
 1155 0589 15000000 		.4byte	.LASF75
 1156 058d 07       		.byte	0x7
 1157 058e 9D       		.byte	0x9d
 1158 058f 08010000 		.4byte	0x108
 1159 0593 11       		.uleb128 0x11
 1160 0594 F9000000 		.4byte	.LASF76
 1161 0598 07       		.byte	0x7
 1162 0599 A4       		.byte	0xa4
 1163 059a 08010000 		.4byte	0x108
 1164 059e 11       		.uleb128 0x11
 1165 059f 5F030000 		.4byte	.LASF77
 1166 05a3 07       		.byte	0x7
 1167 05a4 AB       		.byte	0xab
 1168 05a5 9A020000 		.4byte	0x29a
 1169 05a9 11       		.uleb128 0x11
 1170 05aa B5020000 		.4byte	.LASF78
 1171 05ae 07       		.byte	0x7
 1172 05af B2       		.byte	0xb2
 1173 05b0 13010000 		.4byte	0x113
 1174 05b4 00       		.byte	0
 1175 05b5 09       		.uleb128 0x9
 1176 05b6 04       		.byte	0x4
 1177 05b7 BB050000 		.4byte	0x5bb
 1178 05bb 14       		.uleb128 0x14
 1179 05bc C0050000 		.4byte	0x5c0
 1180 05c0 04       		.uleb128 0x4
ARM GAS  /tmp/cc1zhrQa.s 			page 22


 1181 05c1 01       		.byte	0x1
 1182 05c2 08       		.byte	0x8
 1183 05c3 F8020000 		.4byte	.LASF79
 1184 05c7 09       		.uleb128 0x9
 1185 05c8 04       		.byte	0x4
 1186 05c9 9C020000 		.4byte	0x29c
 1187 05cd 09       		.uleb128 0x9
 1188 05ce 04       		.byte	0x4
 1189 05cf 57040000 		.4byte	0x457
 1190 05d3 03       		.uleb128 0x3
 1191 05d4 00000000 		.4byte	.LASF80
 1192 05d8 07       		.byte	0x7
 1193 05d9 E5       		.byte	0xe5
 1194 05da DE050000 		.4byte	0x5de
 1195 05de 09       		.uleb128 0x9
 1196 05df 04       		.byte	0x4
 1197 05e0 E4050000 		.4byte	0x5e4
 1198 05e4 0E       		.uleb128 0xe
 1199 05e5 08010000 		.4byte	0x108
 1200 05e9 F3050000 		.4byte	0x5f3
 1201 05ed 0F       		.uleb128 0xf
 1202 05ee 9A020000 		.4byte	0x29a
 1203 05f2 00       		.byte	0
 1204 05f3 15       		.uleb128 0x15
 1205 05f4 D9010000 		.4byte	.LASF82
 1206 05f8 01       		.byte	0x1
 1207 05f9 34       		.byte	0x34
 1208 05fa 5E020000 		.4byte	0x25e
 1209 05fe 00000000 		.4byte	.LFB7
 1210 0602 48000000 		.4byte	.LFE7-.LFB7
 1211 0606 01       		.uleb128 0x1
 1212 0607 9C       		.byte	0x9c
 1213 0608 4C060000 		.4byte	0x64c
 1214 060c 16       		.uleb128 0x16
 1215 060d 747000   		.ascii	"tp\000"
 1216 0610 01       		.byte	0x1
 1217 0611 34       		.byte	0x34
 1218 0612 5E020000 		.4byte	0x25e
 1219 0616 02       		.uleb128 0x2
 1220 0617 91       		.byte	0x91
 1221 0618 74       		.sleb128 -12
 1222 0619 17       		.uleb128 0x17
 1223 061a 06000000 		.4byte	.LBB2
 1224 061e 06000000 		.4byte	.LBE2-.LBB2
 1225 0622 34060000 		.4byte	0x634
 1226 0626 18       		.uleb128 0x18
 1227 0627 746D7000 		.ascii	"tmp\000"
 1228 062b 01       		.byte	0x1
 1229 062c 36       		.byte	0x36
 1230 062d B4000000 		.4byte	0xb4
 1231 0631 01       		.uleb128 0x1
 1232 0632 53       		.byte	0x53
 1233 0633 00       		.byte	0
 1234 0634 19       		.uleb128 0x19
 1235 0635 34000000 		.4byte	.LBB3
 1236 0639 06000000 		.4byte	.LBE3-.LBB3
 1237 063d 18       		.uleb128 0x18
ARM GAS  /tmp/cc1zhrQa.s 			page 23


 1238 063e 746D7000 		.ascii	"tmp\000"
 1239 0642 01       		.byte	0x1
 1240 0643 39       		.byte	0x39
 1241 0644 B4000000 		.4byte	0xb4
 1242 0648 01       		.uleb128 0x1
 1243 0649 53       		.byte	0x53
 1244 064a 00       		.byte	0
 1245 064b 00       		.byte	0
 1246 064c 1A       		.uleb128 0x1a
 1247 064d CB020000 		.4byte	.LASF90
 1248 0651 01       		.byte	0x1
 1249 0652 4A       		.byte	0x4a
 1250 0653 00000000 		.4byte	.LFB8
 1251 0657 B4000000 		.4byte	.LFE8-.LFB8
 1252 065b 01       		.uleb128 0x1
 1253 065c 9C       		.byte	0x9c
 1254 065d AF060000 		.4byte	0x6af
 1255 0661 16       		.uleb128 0x16
 1256 0662 747000   		.ascii	"tp\000"
 1257 0665 01       		.byte	0x1
 1258 0666 4A       		.byte	0x4a
 1259 0667 5E020000 		.4byte	0x25e
 1260 066b 02       		.uleb128 0x2
 1261 066c 91       		.byte	0x91
 1262 066d 6C       		.sleb128 -20
 1263 066e 1B       		.uleb128 0x1b
 1264 066f 48020000 		.4byte	.LASF81
 1265 0673 01       		.byte	0x1
 1266 0674 4B       		.byte	0x4b
 1267 0675 E7000000 		.4byte	0xe7
 1268 0679 02       		.uleb128 0x2
 1269 067a 91       		.byte	0x91
 1270 067b 77       		.sleb128 -9
 1271 067c 17       		.uleb128 0x17
 1272 067d 06000000 		.4byte	.LBB4
 1273 0681 06000000 		.4byte	.LBE4-.LBB4
 1274 0685 97060000 		.4byte	0x697
 1275 0689 18       		.uleb128 0x18
 1276 068a 746D7000 		.ascii	"tmp\000"
 1277 068e 01       		.byte	0x1
 1278 068f 4D       		.byte	0x4d
 1279 0690 B4000000 		.4byte	0xb4
 1280 0694 01       		.uleb128 0x1
 1281 0695 53       		.byte	0x53
 1282 0696 00       		.byte	0
 1283 0697 19       		.uleb128 0x19
 1284 0698 3E000000 		.4byte	.LBB5
 1285 069c 06000000 		.4byte	.LBE5-.LBB5
 1286 06a0 18       		.uleb128 0x18
 1287 06a1 746D7000 		.ascii	"tmp\000"
 1288 06a5 01       		.byte	0x1
 1289 06a6 50       		.byte	0x50
 1290 06a7 B4000000 		.4byte	0xb4
 1291 06ab 01       		.uleb128 0x1
 1292 06ac 53       		.byte	0x53
 1293 06ad 00       		.byte	0
 1294 06ae 00       		.byte	0
ARM GAS  /tmp/cc1zhrQa.s 			page 24


 1295 06af 15       		.uleb128 0x15
 1296 06b0 BA000000 		.4byte	.LASF83
 1297 06b4 01       		.byte	0x1
 1298 06b5 82       		.byte	0x82
 1299 06b6 5E020000 		.4byte	0x25e
 1300 06ba 00000000 		.4byte	.LFB9
 1301 06be 84000000 		.4byte	.LFE9-.LFB9
 1302 06c2 01       		.uleb128 0x1
 1303 06c3 9C       		.byte	0x9c
 1304 06c4 5B070000 		.4byte	0x75b
 1305 06c8 1C       		.uleb128 0x1c
 1306 06c9 65000000 		.4byte	.LASF84
 1307 06cd 01       		.byte	0x1
 1308 06ce 82       		.byte	0x82
 1309 06cf 04050000 		.4byte	0x504
 1310 06d3 02       		.uleb128 0x2
 1311 06d4 91       		.byte	0x91
 1312 06d5 6C       		.sleb128 -20
 1313 06d6 1C       		.uleb128 0x1c
 1314 06d7 95010000 		.4byte	.LASF68
 1315 06db 01       		.byte	0x1
 1316 06dc 82       		.byte	0x82
 1317 06dd 28000000 		.4byte	0x28
 1318 06e1 02       		.uleb128 0x2
 1319 06e2 91       		.byte	0x91
 1320 06e3 68       		.sleb128 -24
 1321 06e4 1C       		.uleb128 0x1c
 1322 06e5 1D020000 		.4byte	.LASF85
 1323 06e9 01       		.byte	0x1
 1324 06ea 83       		.byte	0x83
 1325 06eb FD000000 		.4byte	0xfd
 1326 06ef 02       		.uleb128 0x2
 1327 06f0 91       		.byte	0x91
 1328 06f1 64       		.sleb128 -28
 1329 06f2 16       		.uleb128 0x16
 1330 06f3 706600   		.ascii	"pf\000"
 1331 06f6 01       		.byte	0x1
 1332 06f7 83       		.byte	0x83
 1333 06f8 D3050000 		.4byte	0x5d3
 1334 06fc 02       		.uleb128 0x2
 1335 06fd 91       		.byte	0x91
 1336 06fe 60       		.sleb128 -32
 1337 06ff 16       		.uleb128 0x16
 1338 0700 61726700 		.ascii	"arg\000"
 1339 0704 01       		.byte	0x1
 1340 0705 83       		.byte	0x83
 1341 0706 9A020000 		.4byte	0x29a
 1342 070a 02       		.uleb128 0x2
 1343 070b 91       		.byte	0x91
 1344 070c 00       		.sleb128 0
 1345 070d 18       		.uleb128 0x18
 1346 070e 77737000 		.ascii	"wsp\000"
 1347 0712 01       		.byte	0x1
 1348 0713 84       		.byte	0x84
 1349 0714 9A020000 		.4byte	0x29a
 1350 0718 02       		.uleb128 0x2
 1351 0719 91       		.byte	0x91
ARM GAS  /tmp/cc1zhrQa.s 			page 25


 1352 071a 74       		.sleb128 -12
 1353 071b 18       		.uleb128 0x18
 1354 071c 747000   		.ascii	"tp\000"
 1355 071f 01       		.byte	0x1
 1356 0720 85       		.byte	0x85
 1357 0721 5E020000 		.4byte	0x25e
 1358 0725 02       		.uleb128 0x2
 1359 0726 91       		.byte	0x91
 1360 0727 70       		.sleb128 -16
 1361 0728 17       		.uleb128 0x17
 1362 0729 44000000 		.4byte	.LBB6
 1363 072d 06000000 		.4byte	.LBE6-.LBB6
 1364 0731 43070000 		.4byte	0x743
 1365 0735 18       		.uleb128 0x18
 1366 0736 746D7000 		.ascii	"tmp\000"
 1367 073a 01       		.byte	0x1
 1368 073b 94       		.byte	0x94
 1369 073c B4000000 		.4byte	0xb4
 1370 0740 01       		.uleb128 0x1
 1371 0741 53       		.byte	0x53
 1372 0742 00       		.byte	0
 1373 0743 19       		.uleb128 0x19
 1374 0744 74000000 		.4byte	.LBB7
 1375 0748 06000000 		.4byte	.LBE7-.LBB7
 1376 074c 18       		.uleb128 0x18
 1377 074d 746D7000 		.ascii	"tmp\000"
 1378 0751 01       		.byte	0x1
 1379 0752 98       		.byte	0x98
 1380 0753 B4000000 		.4byte	0xb4
 1381 0757 01       		.uleb128 0x1
 1382 0758 53       		.byte	0x53
 1383 0759 00       		.byte	0
 1384 075a 00       		.byte	0
 1385 075b 15       		.uleb128 0x15
 1386 075c DF000000 		.4byte	.LASF86
 1387 0760 01       		.byte	0x1
 1388 0761 B3       		.byte	0xb3
 1389 0762 5E020000 		.4byte	0x25e
 1390 0766 00000000 		.4byte	.LFB10
 1391 076a A0000000 		.4byte	.LFE10-.LFB10
 1392 076e 01       		.uleb128 0x1
 1393 076f 9C       		.byte	0x9c
 1394 0770 F8070000 		.4byte	0x7f8
 1395 0774 16       		.uleb128 0x16
 1396 0775 6D7000   		.ascii	"mp\000"
 1397 0778 01       		.byte	0x1
 1398 0779 B3       		.byte	0xb3
 1399 077a F8070000 		.4byte	0x7f8
 1400 077e 02       		.uleb128 0x2
 1401 077f 91       		.byte	0x91
 1402 0780 6C       		.sleb128 -20
 1403 0781 1C       		.uleb128 0x1c
 1404 0782 1D020000 		.4byte	.LASF85
 1405 0786 01       		.byte	0x1
 1406 0787 B3       		.byte	0xb3
 1407 0788 FD000000 		.4byte	0xfd
 1408 078c 02       		.uleb128 0x2
ARM GAS  /tmp/cc1zhrQa.s 			page 26


 1409 078d 91       		.byte	0x91
 1410 078e 68       		.sleb128 -24
 1411 078f 16       		.uleb128 0x16
 1412 0790 706600   		.ascii	"pf\000"
 1413 0793 01       		.byte	0x1
 1414 0794 B4       		.byte	0xb4
 1415 0795 D3050000 		.4byte	0x5d3
 1416 0799 02       		.uleb128 0x2
 1417 079a 91       		.byte	0x91
 1418 079b 64       		.sleb128 -28
 1419 079c 16       		.uleb128 0x16
 1420 079d 61726700 		.ascii	"arg\000"
 1421 07a1 01       		.byte	0x1
 1422 07a2 B4       		.byte	0xb4
 1423 07a3 9A020000 		.4byte	0x29a
 1424 07a7 02       		.uleb128 0x2
 1425 07a8 91       		.byte	0x91
 1426 07a9 60       		.sleb128 -32
 1427 07aa 18       		.uleb128 0x18
 1428 07ab 77737000 		.ascii	"wsp\000"
 1429 07af 01       		.byte	0x1
 1430 07b0 B5       		.byte	0xb5
 1431 07b1 9A020000 		.4byte	0x29a
 1432 07b5 02       		.uleb128 0x2
 1433 07b6 91       		.byte	0x91
 1434 07b7 74       		.sleb128 -12
 1435 07b8 18       		.uleb128 0x18
 1436 07b9 747000   		.ascii	"tp\000"
 1437 07bc 01       		.byte	0x1
 1438 07bd B6       		.byte	0xb6
 1439 07be 5E020000 		.4byte	0x25e
 1440 07c2 02       		.uleb128 0x2
 1441 07c3 91       		.byte	0x91
 1442 07c4 70       		.sleb128 -16
 1443 07c5 17       		.uleb128 0x17
 1444 07c6 50000000 		.4byte	.LBB8
 1445 07ca 06000000 		.4byte	.LBE8-.LBB8
 1446 07ce E0070000 		.4byte	0x7e0
 1447 07d2 18       		.uleb128 0x18
 1448 07d3 746D7000 		.ascii	"tmp\000"
 1449 07d7 01       		.byte	0x1
 1450 07d8 C7       		.byte	0xc7
 1451 07d9 B4000000 		.4byte	0xb4
 1452 07dd 01       		.uleb128 0x1
 1453 07de 53       		.byte	0x53
 1454 07df 00       		.byte	0
 1455 07e0 19       		.uleb128 0x19
 1456 07e1 8A000000 		.4byte	.LBB9
 1457 07e5 06000000 		.4byte	.LBE9-.LBB9
 1458 07e9 18       		.uleb128 0x18
 1459 07ea 746D7000 		.ascii	"tmp\000"
 1460 07ee 01       		.byte	0x1
 1461 07ef CC       		.byte	0xcc
 1462 07f0 B4000000 		.4byte	0xb4
 1463 07f4 01       		.uleb128 0x1
 1464 07f5 53       		.byte	0x53
 1465 07f6 00       		.byte	0
ARM GAS  /tmp/cc1zhrQa.s 			page 27


 1466 07f7 00       		.byte	0
 1467 07f8 09       		.uleb128 0x9
 1468 07f9 04       		.byte	0x4
 1469 07fa 75050000 		.4byte	0x575
 1470 07fe 00       		.byte	0
 1471              		.section	.debug_abbrev,"",%progbits
 1472              	.Ldebug_abbrev0:
 1473 0000 01       		.uleb128 0x1
 1474 0001 11       		.uleb128 0x11
 1475 0002 01       		.byte	0x1
 1476 0003 25       		.uleb128 0x25
 1477 0004 0E       		.uleb128 0xe
 1478 0005 13       		.uleb128 0x13
 1479 0006 0B       		.uleb128 0xb
 1480 0007 03       		.uleb128 0x3
 1481 0008 0E       		.uleb128 0xe
 1482 0009 55       		.uleb128 0x55
 1483 000a 17       		.uleb128 0x17
 1484 000b 11       		.uleb128 0x11
 1485 000c 01       		.uleb128 0x1
 1486 000d 10       		.uleb128 0x10
 1487 000e 17       		.uleb128 0x17
 1488 000f 00       		.byte	0
 1489 0010 00       		.byte	0
 1490 0011 02       		.uleb128 0x2
 1491 0012 24       		.uleb128 0x24
 1492 0013 00       		.byte	0
 1493 0014 0B       		.uleb128 0xb
 1494 0015 0B       		.uleb128 0xb
 1495 0016 3E       		.uleb128 0x3e
 1496 0017 0B       		.uleb128 0xb
 1497 0018 03       		.uleb128 0x3
 1498 0019 08       		.uleb128 0x8
 1499 001a 00       		.byte	0
 1500 001b 00       		.byte	0
 1501 001c 03       		.uleb128 0x3
 1502 001d 16       		.uleb128 0x16
 1503 001e 00       		.byte	0
 1504 001f 03       		.uleb128 0x3
 1505 0020 0E       		.uleb128 0xe
 1506 0021 3A       		.uleb128 0x3a
 1507 0022 0B       		.uleb128 0xb
 1508 0023 3B       		.uleb128 0x3b
 1509 0024 0B       		.uleb128 0xb
 1510 0025 49       		.uleb128 0x49
 1511 0026 13       		.uleb128 0x13
 1512 0027 00       		.byte	0
 1513 0028 00       		.byte	0
 1514 0029 04       		.uleb128 0x4
 1515 002a 24       		.uleb128 0x24
 1516 002b 00       		.byte	0
 1517 002c 0B       		.uleb128 0xb
 1518 002d 0B       		.uleb128 0xb
 1519 002e 3E       		.uleb128 0x3e
 1520 002f 0B       		.uleb128 0xb
 1521 0030 03       		.uleb128 0x3
 1522 0031 0E       		.uleb128 0xe
ARM GAS  /tmp/cc1zhrQa.s 			page 28


 1523 0032 00       		.byte	0
 1524 0033 00       		.byte	0
 1525 0034 05       		.uleb128 0x5
 1526 0035 13       		.uleb128 0x13
 1527 0036 01       		.byte	0x1
 1528 0037 03       		.uleb128 0x3
 1529 0038 0E       		.uleb128 0xe
 1530 0039 0B       		.uleb128 0xb
 1531 003a 0B       		.uleb128 0xb
 1532 003b 3A       		.uleb128 0x3a
 1533 003c 0B       		.uleb128 0xb
 1534 003d 3B       		.uleb128 0x3b
 1535 003e 0B       		.uleb128 0xb
 1536 003f 01       		.uleb128 0x1
 1537 0040 13       		.uleb128 0x13
 1538 0041 00       		.byte	0
 1539 0042 00       		.byte	0
 1540 0043 06       		.uleb128 0x6
 1541 0044 0D       		.uleb128 0xd
 1542 0045 00       		.byte	0
 1543 0046 03       		.uleb128 0x3
 1544 0047 0E       		.uleb128 0xe
 1545 0048 3A       		.uleb128 0x3a
 1546 0049 0B       		.uleb128 0xb
 1547 004a 3B       		.uleb128 0x3b
 1548 004b 0B       		.uleb128 0xb
 1549 004c 49       		.uleb128 0x49
 1550 004d 13       		.uleb128 0x13
 1551 004e 38       		.uleb128 0x38
 1552 004f 0B       		.uleb128 0xb
 1553 0050 00       		.byte	0
 1554 0051 00       		.byte	0
 1555 0052 07       		.uleb128 0x7
 1556 0053 0D       		.uleb128 0xd
 1557 0054 00       		.byte	0
 1558 0055 03       		.uleb128 0x3
 1559 0056 08       		.uleb128 0x8
 1560 0057 3A       		.uleb128 0x3a
 1561 0058 0B       		.uleb128 0xb
 1562 0059 3B       		.uleb128 0x3b
 1563 005a 0B       		.uleb128 0xb
 1564 005b 49       		.uleb128 0x49
 1565 005c 13       		.uleb128 0x13
 1566 005d 38       		.uleb128 0x38
 1567 005e 0B       		.uleb128 0xb
 1568 005f 00       		.byte	0
 1569 0060 00       		.byte	0
 1570 0061 08       		.uleb128 0x8
 1571 0062 13       		.uleb128 0x13
 1572 0063 01       		.byte	0x1
 1573 0064 0B       		.uleb128 0xb
 1574 0065 0B       		.uleb128 0xb
 1575 0066 3A       		.uleb128 0x3a
 1576 0067 0B       		.uleb128 0xb
 1577 0068 3B       		.uleb128 0x3b
 1578 0069 0B       		.uleb128 0xb
 1579 006a 01       		.uleb128 0x1
ARM GAS  /tmp/cc1zhrQa.s 			page 29


 1580 006b 13       		.uleb128 0x13
 1581 006c 00       		.byte	0
 1582 006d 00       		.byte	0
 1583 006e 09       		.uleb128 0x9
 1584 006f 0F       		.uleb128 0xf
 1585 0070 00       		.byte	0
 1586 0071 0B       		.uleb128 0xb
 1587 0072 0B       		.uleb128 0xb
 1588 0073 49       		.uleb128 0x49
 1589 0074 13       		.uleb128 0x13
 1590 0075 00       		.byte	0
 1591 0076 00       		.byte	0
 1592 0077 0A       		.uleb128 0xa
 1593 0078 0F       		.uleb128 0xf
 1594 0079 00       		.byte	0
 1595 007a 0B       		.uleb128 0xb
 1596 007b 0B       		.uleb128 0xb
 1597 007c 00       		.byte	0
 1598 007d 00       		.byte	0
 1599 007e 0B       		.uleb128 0xb
 1600 007f 13       		.uleb128 0x13
 1601 0080 01       		.byte	0x1
 1602 0081 03       		.uleb128 0x3
 1603 0082 0E       		.uleb128 0xe
 1604 0083 0B       		.uleb128 0xb
 1605 0084 0B       		.uleb128 0xb
 1606 0085 3A       		.uleb128 0x3a
 1607 0086 0B       		.uleb128 0xb
 1608 0087 3B       		.uleb128 0x3b
 1609 0088 05       		.uleb128 0x5
 1610 0089 01       		.uleb128 0x1
 1611 008a 13       		.uleb128 0x13
 1612 008b 00       		.byte	0
 1613 008c 00       		.byte	0
 1614 008d 0C       		.uleb128 0xc
 1615 008e 0D       		.uleb128 0xd
 1616 008f 00       		.byte	0
 1617 0090 03       		.uleb128 0x3
 1618 0091 08       		.uleb128 0x8
 1619 0092 3A       		.uleb128 0x3a
 1620 0093 0B       		.uleb128 0xb
 1621 0094 3B       		.uleb128 0x3b
 1622 0095 05       		.uleb128 0x5
 1623 0096 49       		.uleb128 0x49
 1624 0097 13       		.uleb128 0x13
 1625 0098 38       		.uleb128 0x38
 1626 0099 0B       		.uleb128 0xb
 1627 009a 00       		.byte	0
 1628 009b 00       		.byte	0
 1629 009c 0D       		.uleb128 0xd
 1630 009d 35       		.uleb128 0x35
 1631 009e 00       		.byte	0
 1632 009f 49       		.uleb128 0x49
 1633 00a0 13       		.uleb128 0x13
 1634 00a1 00       		.byte	0
 1635 00a2 00       		.byte	0
 1636 00a3 0E       		.uleb128 0xe
ARM GAS  /tmp/cc1zhrQa.s 			page 30


 1637 00a4 15       		.uleb128 0x15
 1638 00a5 01       		.byte	0x1
 1639 00a6 27       		.uleb128 0x27
 1640 00a7 19       		.uleb128 0x19
 1641 00a8 49       		.uleb128 0x49
 1642 00a9 13       		.uleb128 0x13
 1643 00aa 01       		.uleb128 0x1
 1644 00ab 13       		.uleb128 0x13
 1645 00ac 00       		.byte	0
 1646 00ad 00       		.byte	0
 1647 00ae 0F       		.uleb128 0xf
 1648 00af 05       		.uleb128 0x5
 1649 00b0 00       		.byte	0
 1650 00b1 49       		.uleb128 0x49
 1651 00b2 13       		.uleb128 0x13
 1652 00b3 00       		.byte	0
 1653 00b4 00       		.byte	0
 1654 00b5 10       		.uleb128 0x10
 1655 00b6 17       		.uleb128 0x17
 1656 00b7 01       		.byte	0x1
 1657 00b8 0B       		.uleb128 0xb
 1658 00b9 0B       		.uleb128 0xb
 1659 00ba 3A       		.uleb128 0x3a
 1660 00bb 0B       		.uleb128 0xb
 1661 00bc 3B       		.uleb128 0x3b
 1662 00bd 0B       		.uleb128 0xb
 1663 00be 01       		.uleb128 0x1
 1664 00bf 13       		.uleb128 0x13
 1665 00c0 00       		.byte	0
 1666 00c1 00       		.byte	0
 1667 00c2 11       		.uleb128 0x11
 1668 00c3 0D       		.uleb128 0xd
 1669 00c4 00       		.byte	0
 1670 00c5 03       		.uleb128 0x3
 1671 00c6 0E       		.uleb128 0xe
 1672 00c7 3A       		.uleb128 0x3a
 1673 00c8 0B       		.uleb128 0xb
 1674 00c9 3B       		.uleb128 0x3b
 1675 00ca 0B       		.uleb128 0xb
 1676 00cb 49       		.uleb128 0x49
 1677 00cc 13       		.uleb128 0x13
 1678 00cd 00       		.byte	0
 1679 00ce 00       		.byte	0
 1680 00cf 12       		.uleb128 0x12
 1681 00d0 17       		.uleb128 0x17
 1682 00d1 01       		.byte	0x1
 1683 00d2 03       		.uleb128 0x3
 1684 00d3 0E       		.uleb128 0xe
 1685 00d4 0B       		.uleb128 0xb
 1686 00d5 0B       		.uleb128 0xb
 1687 00d6 3A       		.uleb128 0x3a
 1688 00d7 0B       		.uleb128 0xb
 1689 00d8 3B       		.uleb128 0x3b
 1690 00d9 0B       		.uleb128 0xb
 1691 00da 01       		.uleb128 0x1
 1692 00db 13       		.uleb128 0x13
 1693 00dc 00       		.byte	0
ARM GAS  /tmp/cc1zhrQa.s 			page 31


 1694 00dd 00       		.byte	0
 1695 00de 13       		.uleb128 0x13
 1696 00df 0D       		.uleb128 0xd
 1697 00e0 00       		.byte	0
 1698 00e1 03       		.uleb128 0x3
 1699 00e2 08       		.uleb128 0x8
 1700 00e3 3A       		.uleb128 0x3a
 1701 00e4 0B       		.uleb128 0xb
 1702 00e5 3B       		.uleb128 0x3b
 1703 00e6 0B       		.uleb128 0xb
 1704 00e7 49       		.uleb128 0x49
 1705 00e8 13       		.uleb128 0x13
 1706 00e9 00       		.byte	0
 1707 00ea 00       		.byte	0
 1708 00eb 14       		.uleb128 0x14
 1709 00ec 26       		.uleb128 0x26
 1710 00ed 00       		.byte	0
 1711 00ee 49       		.uleb128 0x49
 1712 00ef 13       		.uleb128 0x13
 1713 00f0 00       		.byte	0
 1714 00f1 00       		.byte	0
 1715 00f2 15       		.uleb128 0x15
 1716 00f3 2E       		.uleb128 0x2e
 1717 00f4 01       		.byte	0x1
 1718 00f5 3F       		.uleb128 0x3f
 1719 00f6 19       		.uleb128 0x19
 1720 00f7 03       		.uleb128 0x3
 1721 00f8 0E       		.uleb128 0xe
 1722 00f9 3A       		.uleb128 0x3a
 1723 00fa 0B       		.uleb128 0xb
 1724 00fb 3B       		.uleb128 0x3b
 1725 00fc 0B       		.uleb128 0xb
 1726 00fd 27       		.uleb128 0x27
 1727 00fe 19       		.uleb128 0x19
 1728 00ff 49       		.uleb128 0x49
 1729 0100 13       		.uleb128 0x13
 1730 0101 11       		.uleb128 0x11
 1731 0102 01       		.uleb128 0x1
 1732 0103 12       		.uleb128 0x12
 1733 0104 06       		.uleb128 0x6
 1734 0105 40       		.uleb128 0x40
 1735 0106 18       		.uleb128 0x18
 1736 0107 9642     		.uleb128 0x2116
 1737 0109 19       		.uleb128 0x19
 1738 010a 01       		.uleb128 0x1
 1739 010b 13       		.uleb128 0x13
 1740 010c 00       		.byte	0
 1741 010d 00       		.byte	0
 1742 010e 16       		.uleb128 0x16
 1743 010f 05       		.uleb128 0x5
 1744 0110 00       		.byte	0
 1745 0111 03       		.uleb128 0x3
 1746 0112 08       		.uleb128 0x8
 1747 0113 3A       		.uleb128 0x3a
 1748 0114 0B       		.uleb128 0xb
 1749 0115 3B       		.uleb128 0x3b
 1750 0116 0B       		.uleb128 0xb
ARM GAS  /tmp/cc1zhrQa.s 			page 32


 1751 0117 49       		.uleb128 0x49
 1752 0118 13       		.uleb128 0x13
 1753 0119 02       		.uleb128 0x2
 1754 011a 18       		.uleb128 0x18
 1755 011b 00       		.byte	0
 1756 011c 00       		.byte	0
 1757 011d 17       		.uleb128 0x17
 1758 011e 0B       		.uleb128 0xb
 1759 011f 01       		.byte	0x1
 1760 0120 11       		.uleb128 0x11
 1761 0121 01       		.uleb128 0x1
 1762 0122 12       		.uleb128 0x12
 1763 0123 06       		.uleb128 0x6
 1764 0124 01       		.uleb128 0x1
 1765 0125 13       		.uleb128 0x13
 1766 0126 00       		.byte	0
 1767 0127 00       		.byte	0
 1768 0128 18       		.uleb128 0x18
 1769 0129 34       		.uleb128 0x34
 1770 012a 00       		.byte	0
 1771 012b 03       		.uleb128 0x3
 1772 012c 08       		.uleb128 0x8
 1773 012d 3A       		.uleb128 0x3a
 1774 012e 0B       		.uleb128 0xb
 1775 012f 3B       		.uleb128 0x3b
 1776 0130 0B       		.uleb128 0xb
 1777 0131 49       		.uleb128 0x49
 1778 0132 13       		.uleb128 0x13
 1779 0133 02       		.uleb128 0x2
 1780 0134 18       		.uleb128 0x18
 1781 0135 00       		.byte	0
 1782 0136 00       		.byte	0
 1783 0137 19       		.uleb128 0x19
 1784 0138 0B       		.uleb128 0xb
 1785 0139 01       		.byte	0x1
 1786 013a 11       		.uleb128 0x11
 1787 013b 01       		.uleb128 0x1
 1788 013c 12       		.uleb128 0x12
 1789 013d 06       		.uleb128 0x6
 1790 013e 00       		.byte	0
 1791 013f 00       		.byte	0
 1792 0140 1A       		.uleb128 0x1a
 1793 0141 2E       		.uleb128 0x2e
 1794 0142 01       		.byte	0x1
 1795 0143 3F       		.uleb128 0x3f
 1796 0144 19       		.uleb128 0x19
 1797 0145 03       		.uleb128 0x3
 1798 0146 0E       		.uleb128 0xe
 1799 0147 3A       		.uleb128 0x3a
 1800 0148 0B       		.uleb128 0xb
 1801 0149 3B       		.uleb128 0x3b
 1802 014a 0B       		.uleb128 0xb
 1803 014b 27       		.uleb128 0x27
 1804 014c 19       		.uleb128 0x19
 1805 014d 11       		.uleb128 0x11
 1806 014e 01       		.uleb128 0x1
 1807 014f 12       		.uleb128 0x12
ARM GAS  /tmp/cc1zhrQa.s 			page 33


 1808 0150 06       		.uleb128 0x6
 1809 0151 40       		.uleb128 0x40
 1810 0152 18       		.uleb128 0x18
 1811 0153 9642     		.uleb128 0x2116
 1812 0155 19       		.uleb128 0x19
 1813 0156 01       		.uleb128 0x1
 1814 0157 13       		.uleb128 0x13
 1815 0158 00       		.byte	0
 1816 0159 00       		.byte	0
 1817 015a 1B       		.uleb128 0x1b
 1818 015b 34       		.uleb128 0x34
 1819 015c 00       		.byte	0
 1820 015d 03       		.uleb128 0x3
 1821 015e 0E       		.uleb128 0xe
 1822 015f 3A       		.uleb128 0x3a
 1823 0160 0B       		.uleb128 0xb
 1824 0161 3B       		.uleb128 0x3b
 1825 0162 0B       		.uleb128 0xb
 1826 0163 49       		.uleb128 0x49
 1827 0164 13       		.uleb128 0x13
 1828 0165 02       		.uleb128 0x2
 1829 0166 18       		.uleb128 0x18
 1830 0167 00       		.byte	0
 1831 0168 00       		.byte	0
 1832 0169 1C       		.uleb128 0x1c
 1833 016a 05       		.uleb128 0x5
 1834 016b 00       		.byte	0
 1835 016c 03       		.uleb128 0x3
 1836 016d 0E       		.uleb128 0xe
 1837 016e 3A       		.uleb128 0x3a
 1838 016f 0B       		.uleb128 0xb
 1839 0170 3B       		.uleb128 0x3b
 1840 0171 0B       		.uleb128 0xb
 1841 0172 49       		.uleb128 0x49
 1842 0173 13       		.uleb128 0x13
 1843 0174 02       		.uleb128 0x2
 1844 0175 18       		.uleb128 0x18
 1845 0176 00       		.byte	0
 1846 0177 00       		.byte	0
 1847 0178 00       		.byte	0
 1848              		.section	.debug_aranges,"",%progbits
 1849 0000 34000000 		.4byte	0x34
 1850 0004 0200     		.2byte	0x2
 1851 0006 00000000 		.4byte	.Ldebug_info0
 1852 000a 04       		.byte	0x4
 1853 000b 00       		.byte	0
 1854 000c 0000     		.2byte	0
 1855 000e 0000     		.2byte	0
 1856 0010 00000000 		.4byte	.LFB7
 1857 0014 48000000 		.4byte	.LFE7-.LFB7
 1858 0018 00000000 		.4byte	.LFB8
 1859 001c B4000000 		.4byte	.LFE8-.LFB8
 1860 0020 00000000 		.4byte	.LFB9
 1861 0024 84000000 		.4byte	.LFE9-.LFB9
 1862 0028 00000000 		.4byte	.LFB10
 1863 002c A0000000 		.4byte	.LFE10-.LFB10
 1864 0030 00000000 		.4byte	0
ARM GAS  /tmp/cc1zhrQa.s 			page 34


 1865 0034 00000000 		.4byte	0
 1866              		.section	.debug_ranges,"",%progbits
 1867              	.Ldebug_ranges0:
 1868 0000 00000000 		.4byte	.LFB7
 1869 0004 48000000 		.4byte	.LFE7
 1870 0008 00000000 		.4byte	.LFB8
 1871 000c B4000000 		.4byte	.LFE8
 1872 0010 00000000 		.4byte	.LFB9
 1873 0014 84000000 		.4byte	.LFE9
 1874 0018 00000000 		.4byte	.LFB10
 1875 001c A0000000 		.4byte	.LFE10
 1876 0020 00000000 		.4byte	0
 1877 0024 00000000 		.4byte	0
 1878              		.section	.debug_line,"",%progbits
 1879              	.Ldebug_line0:
 1880 0000 E1020000 		.section	.debug_str,"MS",%progbits,1
 1880      02005102 
 1880      00000201 
 1880      FB0E0D00 
 1880      01010101 
 1881              	.LASF80:
 1882 0000 7466756E 		.ascii	"tfunc_t\000"
 1882      635F7400 
 1883              	.LASF43:
 1884 0008 705F6D73 		.ascii	"p_msg\000"
 1884      6700
 1885              	.LASF2:
 1886 000e 73697A65 		.ascii	"size_t\000"
 1886      5F7400
 1887              	.LASF75:
 1888 0015 7264796D 		.ascii	"rdymsg\000"
 1888      736700
 1889              	.LASF17:
 1890 001c 75696E74 		.ascii	"uint64_t\000"
 1890      36345F74 
 1890      00
 1891              	.LASF3:
 1892 0025 5F5F7569 		.ascii	"__uint8_t\000"
 1892      6E74385F 
 1892      7400
 1893              	.LASF74:
 1894 002f 4D656D6F 		.ascii	"MemoryPool\000"
 1894      7279506F 
 1894      6F6C00
 1895              	.LASF59:
 1896 003a 6D656D67 		.ascii	"memgetfunc_t\000"
 1896      65746675 
 1896      6E635F74 
 1896      00
 1897              	.LASF13:
 1898 0047 6C6F6E67 		.ascii	"long long unsigned int\000"
 1898      206C6F6E 
 1898      6720756E 
 1898      7369676E 
 1898      65642069 
 1899              	.LASF63:
 1900 005e 685F6672 		.ascii	"h_free\000"
ARM GAS  /tmp/cc1zhrQa.s 			page 35


 1900      656500
 1901              	.LASF84:
 1902 0065 68656170 		.ascii	"heapp\000"
 1902      7000
 1903              	.LASF65:
 1904 006b 6E657874 		.ascii	"next\000"
 1904      00
 1905              	.LASF30:
 1906 0070 705F7072 		.ascii	"p_prio\000"
 1906      696F00
 1907              	.LASF11:
 1908 0077 6C6F6E67 		.ascii	"long long int\000"
 1908      206C6F6E 
 1908      6720696E 
 1908      7400
 1909              	.LASF1:
 1910 0085 7369676E 		.ascii	"signed char\000"
 1910      65642063 
 1910      68617200 
 1911              	.LASF64:
 1912 0091 685F6D74 		.ascii	"h_mtx\000"
 1912      7800
 1913              	.LASF47:
 1914 0097 705F6D70 		.ascii	"p_mpool\000"
 1914      6F6F6C00 
 1915              	.LASF56:
 1916 009f 6D5F7175 		.ascii	"m_queue\000"
 1916      65756500 
 1917              	.LASF22:
 1918 00a7 74736C69 		.ascii	"tslices_t\000"
 1918      6365735F 
 1918      7400
 1919              	.LASF8:
 1920 00b1 6C6F6E67 		.ascii	"long int\000"
 1920      20696E74 
 1920      00
 1921              	.LASF83:
 1922 00ba 63685468 		.ascii	"chThdCreateFromHeap\000"
 1922      64437265 
 1922      61746546 
 1922      726F6D48 
 1922      65617000 
 1923              	.LASF20:
 1924 00ce 74737461 		.ascii	"tstate_t\000"
 1924      74655F74 
 1924      00
 1925              	.LASF32:
 1926 00d7 705F6E65 		.ascii	"p_newer\000"
 1926      77657200 
 1927              	.LASF86:
 1928 00df 63685468 		.ascii	"chThdCreateFromMemoryPool\000"
 1928      64437265 
 1928      61746546 
 1928      726F6D4D 
 1928      656D6F72 
 1929              	.LASF76:
 1930 00f9 65786974 		.ascii	"exitcode\000"
ARM GAS  /tmp/cc1zhrQa.s 			page 36


 1930      636F6465 
 1930      00
 1931              	.LASF9:
 1932 0102 5F5F7569 		.ascii	"__uint32_t\000"
 1932      6E743332 
 1932      5F7400
 1933              	.LASF73:
 1934 010d 6D705F70 		.ascii	"mp_provider\000"
 1934      726F7669 
 1934      64657200 
 1935              	.LASF50:
 1936 0119 72656761 		.ascii	"regarm_t\000"
 1936      726D5F74 
 1936      00
 1937              	.LASF67:
 1938 0122 616C6967 		.ascii	"align\000"
 1938      6E00
 1939              	.LASF35:
 1940 0128 705F7374 		.ascii	"p_stklimit\000"
 1940      6B6C696D 
 1940      697400
 1941              	.LASF0:
 1942 0133 756E7369 		.ascii	"unsigned int\000"
 1942      676E6564 
 1942      20696E74 
 1942      00
 1943              	.LASF10:
 1944 0140 6C6F6E67 		.ascii	"long unsigned int\000"
 1944      20756E73 
 1944      69676E65 
 1944      6420696E 
 1944      7400
 1945              	.LASF88:
 1946 0152 2F686F6D 		.ascii	"/home/ergae/r2p-sdk/core/ChibiOS/os/kernel/src/chdy"
 1946      652F6572 
 1946      6761652F 
 1946      7232702D 
 1946      73646B2F 
 1947 0185 6E616D69 		.ascii	"namic.c\000"
 1947      632E6300 
 1948              	.LASF53:
 1949 018d 636F6E74 		.ascii	"context\000"
 1949      65787400 
 1950              	.LASF68:
 1951 0195 73697A65 		.ascii	"size\000"
 1951      00
 1952              	.LASF6:
 1953 019a 73686F72 		.ascii	"short unsigned int\000"
 1953      7420756E 
 1953      7369676E 
 1953      65642069 
 1953      6E7400
 1954              	.LASF24:
 1955 01ad 6D73675F 		.ascii	"msg_t\000"
 1955      7400
 1956              	.LASF19:
 1957 01b3 746D6F64 		.ascii	"tmode_t\000"
ARM GAS  /tmp/cc1zhrQa.s 			page 37


 1957      655F7400 
 1958              	.LASF49:
 1959 01bb 54687265 		.ascii	"ThreadsList\000"
 1959      6164734C 
 1959      69737400 
 1960              	.LASF25:
 1961 01c7 6576656E 		.ascii	"eventmask_t\000"
 1961      746D6173 
 1961      6B5F7400 
 1962              	.LASF55:
 1963 01d3 4D757465 		.ascii	"Mutex\000"
 1963      7800
 1964              	.LASF82:
 1965 01d9 63685468 		.ascii	"chThdAddRef\000"
 1965      64416464 
 1965      52656600 
 1966              	.LASF51:
 1967 01e5 73746B61 		.ascii	"stkalign_t\000"
 1967      6C69676E 
 1967      5F7400
 1968              	.LASF54:
 1969 01f0 73697A65 		.ascii	"sizetype\000"
 1969      74797065 
 1969      00
 1970              	.LASF33:
 1971 01f9 705F6F6C 		.ascii	"p_older\000"
 1971      64657200 
 1972              	.LASF48:
 1973 0201 54687265 		.ascii	"ThreadsQueue\000"
 1973      61647351 
 1973      75657565 
 1973      00
 1974              	.LASF72:
 1975 020e 6D705F6F 		.ascii	"mp_object_size\000"
 1975      626A6563 
 1975      745F7369 
 1975      7A6500
 1976              	.LASF85:
 1977 021d 7072696F 		.ascii	"prio\000"
 1977      00
 1978              	.LASF60:
 1979 0222 4D656D6F 		.ascii	"MemoryHeap\000"
 1979      72794865 
 1979      617000
 1980              	.LASF12:
 1981 022d 5F5F7569 		.ascii	"__uint64_t\000"
 1981      6E743634 
 1981      5F7400
 1982              	.LASF70:
 1983 0238 70685F6E 		.ascii	"ph_next\000"
 1983      65787400 
 1984              	.LASF21:
 1985 0240 74726566 		.ascii	"trefs_t\000"
 1985      735F7400 
 1986              	.LASF81:
 1987 0248 72656673 		.ascii	"refs\000"
 1987      00
ARM GAS  /tmp/cc1zhrQa.s 			page 38


 1988              	.LASF29:
 1989 024d 705F7072 		.ascii	"p_prev\000"
 1989      657600
 1990              	.LASF23:
 1991 0254 74707269 		.ascii	"tprio_t\000"
 1991      6F5F7400 
 1992              	.LASF18:
 1993 025c 5F426F6F 		.ascii	"_Bool\000"
 1993      6C00
 1994              	.LASF15:
 1995 0262 696E7433 		.ascii	"int32_t\000"
 1995      325F7400 
 1996              	.LASF4:
 1997 026a 756E7369 		.ascii	"unsigned char\000"
 1997      676E6564 
 1997      20636861 
 1997      7200
 1998              	.LASF62:
 1999 0278 685F7072 		.ascii	"h_provider\000"
 1999      6F766964 
 1999      657200
 2000              	.LASF45:
 2001 0283 705F6D74 		.ascii	"p_mtxlist\000"
 2001      786C6973 
 2001      7400
 2002              	.LASF5:
 2003 028d 73686F72 		.ascii	"short int\000"
 2003      7420696E 
 2003      7400
 2004              	.LASF36:
 2005 0297 705F7374 		.ascii	"p_state\000"
 2005      61746500 
 2006              	.LASF39:
 2007 029f 705F7072 		.ascii	"p_preempt\000"
 2007      65656D70 
 2007      7400
 2008              	.LASF89:
 2009 02a9 68656170 		.ascii	"heap_header\000"
 2009      5F686561 
 2009      64657200 
 2010              	.LASF78:
 2011 02b5 65776D61 		.ascii	"ewmask\000"
 2011      736B00
 2012              	.LASF28:
 2013 02bc 705F6E65 		.ascii	"p_next\000"
 2013      787400
 2014              	.LASF37:
 2015 02c3 705F666C 		.ascii	"p_flags\000"
 2015      61677300 
 2016              	.LASF90:
 2017 02cb 63685468 		.ascii	"chThdRelease\000"
 2017      6452656C 
 2017      65617365 
 2017      00
 2018              	.LASF27:
 2019 02d8 54687265 		.ascii	"Thread\000"
 2019      616400
ARM GAS  /tmp/cc1zhrQa.s 			page 39


 2020              	.LASF44:
 2021 02df 705F6570 		.ascii	"p_epending\000"
 2021      656E6469 
 2021      6E6700
 2022              	.LASF16:
 2023 02ea 75696E74 		.ascii	"uint32_t\000"
 2023      33325F74 
 2023      00
 2024              	.LASF66:
 2025 02f3 68656170 		.ascii	"heap\000"
 2025      00
 2026              	.LASF79:
 2027 02f8 63686172 		.ascii	"char\000"
 2027      00
 2028              	.LASF58:
 2029 02fd 6D5F6E65 		.ascii	"m_next\000"
 2029      787400
 2030              	.LASF26:
 2031 0304 73797374 		.ascii	"systime_t\000"
 2031      696D655F 
 2031      7400
 2032              	.LASF46:
 2033 030e 705F7265 		.ascii	"p_realprio\000"
 2033      616C7072 
 2033      696F00
 2034              	.LASF7:
 2035 0319 5F5F696E 		.ascii	"__int32_t\000"
 2035      7433325F 
 2035      7400
 2036              	.LASF71:
 2037 0323 6D705F6E 		.ascii	"mp_next\000"
 2037      65787400 
 2038              	.LASF40:
 2039 032b 705F7469 		.ascii	"p_time\000"
 2039      6D6500
 2040              	.LASF52:
 2041 0332 696E7463 		.ascii	"intctx\000"
 2041      747800
 2042              	.LASF42:
 2043 0339 705F6D73 		.ascii	"p_msgqueue\000"
 2043      67717565 
 2043      756500
 2044              	.LASF69:
 2045 0344 706F6F6C 		.ascii	"pool_header\000"
 2045      5F686561 
 2045      64657200 
 2046              	.LASF38:
 2047 0350 705F7265 		.ascii	"p_refs\000"
 2047      667300
 2048              	.LASF14:
 2049 0357 75696E74 		.ascii	"uint8_t\000"
 2049      385F7400 
 2050              	.LASF77:
 2051 035f 77746F62 		.ascii	"wtobjp\000"
 2051      6A7000
 2052              	.LASF34:
 2053 0366 705F6E61 		.ascii	"p_name\000"
ARM GAS  /tmp/cc1zhrQa.s 			page 40


 2053      6D6500
 2054              	.LASF57:
 2055 036d 6D5F6F77 		.ascii	"m_owner\000"
 2055      6E657200 
 2056              	.LASF87:
 2057 0375 474E5520 		.ascii	"GNU C 4.9.3 20141119 (release) [ARM/embedded-4_9-br"
 2057      4320342E 
 2057      392E3320 
 2057      32303134 
 2057      31313139 
 2058 03a8 616E6368 		.ascii	"anch revision 218278] -mcpu=cortex-m4 -mfloat-abi=h"
 2058      20726576 
 2058      6973696F 
 2058      6E203231 
 2058      38323738 
 2059 03db 61726420 		.ascii	"ard -mfpu=fpv4-sp-d16 -mno-thumb-interwork -mthumb "
 2059      2D6D6670 
 2059      753D6670 
 2059      76342D73 
 2059      702D6431 
 2060 040e 2D676764 		.ascii	"-ggdb -O0 -fomit-frame-pointer -falign-functions=16"
 2060      62202D4F 
 2060      30202D66 
 2060      6F6D6974 
 2060      2D667261 
 2061 0441 202D6666 		.ascii	" -ffunction-sections -fdata-sections -fno-common -f"
 2061      756E6374 
 2061      696F6E2D 
 2061      73656374 
 2061      696F6E73 
 2062 0474 73696E67 		.ascii	"single-precision-constant\000"
 2062      6C652D70 
 2062      72656369 
 2062      73696F6E 
 2062      2D636F6E 
 2063              	.LASF31:
 2064 048e 705F6374 		.ascii	"p_ctx\000"
 2064      7800
 2065              	.LASF41:
 2066 0494 705F7761 		.ascii	"p_waiting\000"
 2066      6974696E 
 2066      6700
 2067              	.LASF61:
 2068 049e 6D656D6F 		.ascii	"memory_heap\000"
 2068      72795F68 
 2068      65617000 
 2069              		.ident	"GCC: (GNU Tools for ARM Embedded Processors) 4.9.3 20141119 (release) [ARM/embedded-4_9-br
ARM GAS  /tmp/cc1zhrQa.s 			page 41


DEFINED SYMBOLS
                            *ABS*:00000000 chdynamic.c
     /tmp/cc1zhrQa.s:21     .rodata:00000000 $d
     /tmp/cc1zhrQa.s:25     .text.chThdAddRef:00000000 $t
     /tmp/cc1zhrQa.s:31     .text.chThdAddRef:00000000 chThdAddRef
     /tmp/cc1zhrQa.s:89     .text.chThdAddRef:00000044 $d
     /tmp/cc1zhrQa.s:98     .text.chThdRelease:00000000 $t
     /tmp/cc1zhrQa.s:104    .text.chThdRelease:00000000 chThdRelease
     /tmp/cc1zhrQa.s:217    .text.chThdRelease:000000b0 $d
     /tmp/cc1zhrQa.s:222    .text.chThdCreateFromHeap:00000000 $t
     /tmp/cc1zhrQa.s:228    .text.chThdCreateFromHeap:00000000 chThdCreateFromHeap
     /tmp/cc1zhrQa.s:325    .text.chThdCreateFromMemoryPool:00000000 $t
     /tmp/cc1zhrQa.s:331    .text.chThdCreateFromMemoryPool:00000000 chThdCreateFromMemoryPool
     /tmp/cc1zhrQa.s:439    .text.chThdCreateFromMemoryPool:0000009c $d
                     .debug_frame:00000010 $d
     /tmp/cc1zhrQa.s:93     .text.chThdAddRef:00000048 $t
     /tmp/cc1zhrQa.s:221    .text.chThdRelease:000000b4 $t

UNDEFINED SYMBOLS
dbg_check_lock
chDbgPanic
dbg_check_unlock
chHeapFree
chPoolFree
chHeapAlloc
_thread_memfill
chThdCreateI
chSchWakeupS
chPoolAlloc
