ARM GAS  /tmp/cc1kMflJ.s 			page 1


   1              		.syntax unified
   2              		.cpu cortex-m4
   3              		.eabi_attribute 27, 3
   4              		.eabi_attribute 28, 1
   5              		.fpu fpv4-sp-d16
   6              		.eabi_attribute 20, 1
   7              		.eabi_attribute 21, 1
   8              		.eabi_attribute 23, 3
   9              		.eabi_attribute 24, 1
  10              		.eabi_attribute 25, 1
  11              		.eabi_attribute 26, 1
  12              		.eabi_attribute 30, 6
  13              		.eabi_attribute 34, 1
  14              		.eabi_attribute 18, 4
  15              		.thumb
  16              		.file	"Checksummer.cpp"
  17              		.text
  18              	.Ltext0:
  19              		.cfi_sections	.debug_frame
  20              		.section	.text._ZN3r2p11Checksummer3addEh,"axG",%progbits,_ZN3r2p11Checksummer3addEh,comdat
  21              		.align	2
  22              		.p2align 4,,15
  23              		.weak	_ZN3r2p11Checksummer3addEh
  24              		.thumb
  25              		.thumb_func
  26              		.type	_ZN3r2p11Checksummer3addEh, %function
  27              	_ZN3r2p11Checksummer3addEh:
  28              	.LFB41:
  29              		.file 1 "/home/ergae/r2p-sdk/core/Middleware/include/r2p/Checksummer.hpp"
  30              		.loc 1 104 0
  31              		.cfi_startproc
  32              		@ args = 0, pretend = 0, frame = 8
  33              		@ frame_needed = 0, uses_anonymous_args = 0
  34              		@ link register save eliminated.
  35 0000 82B0     		sub	sp, sp, #8
  36              		.cfi_def_cfa_offset 8
  37 0002 0190     		str	r0, [sp, #4]
  38 0004 0B46     		mov	r3, r1
  39 0006 8DF80330 		strb	r3, [sp, #3]
  40              		.loc 1 106 0
  41 000a 019B     		ldr	r3, [sp, #4]
  42 000c 1A78     		ldrb	r2, [r3]	@ zero_extendqisi2
  43 000e 9DF80330 		ldrb	r3, [sp, #3]
  44 0012 1344     		add	r3, r3, r2
  45 0014 DAB2     		uxtb	r2, r3
  46 0016 019B     		ldr	r3, [sp, #4]
  47 0018 1A70     		strb	r2, [r3]
  48              		.loc 1 107 0
  49 001a 02B0     		add	sp, sp, #8
  50              		.cfi_def_cfa_offset 0
  51              		@ sp needed
  52 001c 7047     		bx	lr
  53              		.cfi_endproc
  54              	.LFE41:
  55              		.size	_ZN3r2p11Checksummer3addEh, .-_ZN3r2p11Checksummer3addEh
  56 001e 00BF     		.section	.text._ZN3r2p11Checksummer3addEPKhj,"ax",%progbits
  57              		.align	2
ARM GAS  /tmp/cc1kMflJ.s 			page 2


  58              		.p2align 4,,15
  59              		.global	_ZN3r2p11Checksummer3addEPKhj
  60              		.thumb
  61              		.thumb_func
  62              		.type	_ZN3r2p11Checksummer3addEPKhj, %function
  63              	_ZN3r2p11Checksummer3addEPKhj:
  64              	.LFB66:
  65              		.file 2 "/home/ergae/r2p-sdk/core/Middleware/src/Checksummer.cpp"
  66              		.loc 2 7 0
  67              		.cfi_startproc
  68              		@ args = 0, pretend = 0, frame = 16
  69              		@ frame_needed = 0, uses_anonymous_args = 0
  70 0000 00B5     		push	{lr}
  71              		.cfi_def_cfa_offset 4
  72              		.cfi_offset 14, -4
  73 0002 85B0     		sub	sp, sp, #20
  74              		.cfi_def_cfa_offset 24
  75 0004 0390     		str	r0, [sp, #12]
  76 0006 0291     		str	r1, [sp, #8]
  77 0008 0192     		str	r2, [sp, #4]
  78              		.loc 2 9 0
  79 000a 07E0     		b	.L3
  80              	.L4:
  81              		.loc 2 10 0
  82 000c 029B     		ldr	r3, [sp, #8]
  83 000e 5A1C     		adds	r2, r3, #1
  84 0010 0292     		str	r2, [sp, #8]
  85 0012 1B78     		ldrb	r3, [r3]	@ zero_extendqisi2
  86 0014 0398     		ldr	r0, [sp, #12]
  87 0016 1946     		mov	r1, r3
  88 0018 FFF7FEFF 		bl	_ZN3r2p11Checksummer3addEh
  89              	.L3:
  90              		.loc 2 9 0
  91 001c 019B     		ldr	r3, [sp, #4]
  92 001e 5A1E     		subs	r2, r3, #1
  93 0020 0192     		str	r2, [sp, #4]
  94 0022 002B     		cmp	r3, #0
  95 0024 14BF     		ite	ne
  96 0026 0123     		movne	r3, #1
  97 0028 0023     		moveq	r3, #0
  98 002a DBB2     		uxtb	r3, r3
  99 002c 002B     		cmp	r3, #0
 100 002e EDD1     		bne	.L4
 101              		.loc 2 12 0
 102 0030 05B0     		add	sp, sp, #20
 103              		.cfi_def_cfa_offset 4
 104              		@ sp needed
 105 0032 5DF804FB 		ldr	pc, [sp], #4
 106              		.cfi_endproc
 107              	.LFE66:
 108              		.size	_ZN3r2p11Checksummer3addEPKhj, .-_ZN3r2p11Checksummer3addEPKhj
 109 0036 00BFAFF3 		.text
 109      0080AFF3 
 109      0080
 110              	.Letext0:
 111              		.file 3 "/home/ergae/r2p-sdk/tools/gcc-arm-none-eabi-4_9-2014q4/lib/gcc/arm-none-eabi/4.9.3/includ
 112              		.file 4 "/home/ergae/r2p-sdk/tools/gcc-arm-none-eabi-4_9-2014q4/arm-none-eabi/include/machine/_def
ARM GAS  /tmp/cc1kMflJ.s 			page 3


 113              		.file 5 "/home/ergae/r2p-sdk/tools/gcc-arm-none-eabi-4_9-2014q4/arm-none-eabi/include/c++/4.9.3/cs
 114              		.file 6 "/home/ergae/r2p-sdk/tools/gcc-arm-none-eabi-4_9-2014q4/arm-none-eabi/include/string.h"
 115              		.file 7 "<built-in>"
 116              		.file 8 "/home/ergae/r2p-sdk/core/Middleware/include/r2p/Uncopyable.hpp"
 117              		.file 9 "/home/ergae/r2p-sdk/tools/gcc-arm-none-eabi-4_9-2014q4/arm-none-eabi/include/stdint.h"