ARM GAS  /tmp/ccgWp5m1.s 			page 1


   1              		.syntax unified
   2              		.cpu cortex-m4
   3              		.eabi_attribute 27, 3
   4              		.eabi_attribute 28, 1
   5              		.fpu fpv4-sp-d16
   6              		.eabi_attribute 20, 1
   7              		.eabi_attribute 21, 1
   8              		.eabi_attribute 23, 3
   9              		.eabi_attribute 24, 1
  10              		.eabi_attribute 25, 1
  11              		.eabi_attribute 26, 1
  12              		.eabi_attribute 30, 6
  13              		.eabi_attribute 34, 1
  14              		.eabi_attribute 18, 4
  15              		.thumb
  16              		.file	"chmempools.c"
  17              		.text
  18              	.Ltext0:
  19              		.cfi_sections	.debug_frame
  20              		.section	.rodata
  21              		.align	2
  22              	.LC0:
  23 0000 22636850 		.ascii	"\"chPoolInit\"()\000"
  23      6F6F6C49 
  23      6E697422 
  23      282900
  24              		.section	.text.chPoolInit,"ax",%progbits
  25              		.align	2
  26              		.p2align 4,,15
  27              		.global	chPoolInit
  28              		.thumb
  29              		.thumb_func
  30              		.type	chPoolInit, %function
  31              	chPoolInit:
  32              	.LFB7:
  33              		.file 1 "/home/ergae/r2p-sdk/core/ChibiOS/os/kernel/src/chmempools.c"
  34              		.loc 1 62 0
  35              		.cfi_startproc
  36              		@ args = 0, pretend = 0, frame = 16
  37              		@ frame_needed = 0, uses_anonymous_args = 0
  38 0000 00B5     		push	{lr}
  39              		.cfi_def_cfa_offset 4
  40              		.cfi_offset 14, -4
  41 0002 85B0     		sub	sp, sp, #20
  42              		.cfi_def_cfa_offset 24
  43 0004 0390     		str	r0, [sp, #12]
  44 0006 0291     		str	r1, [sp, #8]
  45 0008 0192     		str	r2, [sp, #4]
  46              		.loc 1 64 0
  47 000a 039B     		ldr	r3, [sp, #12]
  48 000c 002B     		cmp	r3, #0
  49 000e 02D0     		beq	.L2
  50              		.loc 1 64 0 is_stmt 0 discriminator 2
  51 0010 029B     		ldr	r3, [sp, #8]
  52 0012 032B     		cmp	r3, #3
  53 0014 02D8     		bhi	.L3
  54              	.L2:
ARM GAS  /tmp/ccgWp5m1.s 			page 2


  55              		.loc 1 64 0 discriminator 3
  56 0016 0748     		ldr	r0, .L4
  57 0018 FFF7FEFF 		bl	chDbgPanic
  58              	.L3:
  59              		.loc 1 66 0 is_stmt 1
  60 001c 039B     		ldr	r3, [sp, #12]
  61 001e 0022     		movs	r2, #0
  62 0020 1A60     		str	r2, [r3]
  63              		.loc 1 67 0
  64 0022 039B     		ldr	r3, [sp, #12]
  65 0024 029A     		ldr	r2, [sp, #8]
  66 0026 5A60     		str	r2, [r3, #4]
  67              		.loc 1 68 0
  68 0028 039B     		ldr	r3, [sp, #12]
  69 002a 019A     		ldr	r2, [sp, #4]
  70 002c 9A60     		str	r2, [r3, #8]
  71              		.loc 1 69 0
  72 002e 05B0     		add	sp, sp, #20
  73              		.cfi_def_cfa_offset 4
  74              		@ sp needed
  75 0030 5DF804FB 		ldr	pc, [sp], #4
  76              	.L5:
  77              		.align	2
  78              	.L4:
  79 0034 00000000 		.word	.LC0
  80              		.cfi_endproc
  81              	.LFE7:
  82              		.size	chPoolInit, .-chPoolInit
  83 0038 AFF30080 		.section	.rodata
  83      AFF30080 
  84 000f 00       		.align	2
  85              	.LC1:
  86 0010 22636850 		.ascii	"\"chPoolLoadArray\"()\000"
  86      6F6F6C4C 
  86      6F616441 
  86      72726179 
  86      22282900 
  87              		.section	.text.chPoolLoadArray,"ax",%progbits
  88              		.align	2
  89              		.p2align 4,,15
  90              		.global	chPoolLoadArray
  91              		.thumb
  92              		.thumb_func
  93              		.type	chPoolLoadArray, %function
  94              	chPoolLoadArray:
  95              	.LFB8:
  96              		.loc 1 84 0
  97              		.cfi_startproc
  98              		@ args = 0, pretend = 0, frame = 16
  99              		@ frame_needed = 0, uses_anonymous_args = 0
 100 0000 00B5     		push	{lr}
 101              		.cfi_def_cfa_offset 4
 102              		.cfi_offset 14, -4
 103 0002 85B0     		sub	sp, sp, #20
 104              		.cfi_def_cfa_offset 24
 105 0004 0390     		str	r0, [sp, #12]
 106 0006 0291     		str	r1, [sp, #8]
ARM GAS  /tmp/ccgWp5m1.s 			page 3


 107 0008 0192     		str	r2, [sp, #4]
 108              		.loc 1 86 0
 109 000a 039B     		ldr	r3, [sp, #12]
 110 000c 002B     		cmp	r3, #0
 111 000e 02D0     		beq	.L7
 112              		.loc 1 86 0 is_stmt 0 discriminator 2
 113 0010 019B     		ldr	r3, [sp, #4]
 114 0012 002B     		cmp	r3, #0
 115 0014 02D1     		bne	.L8
 116              	.L7:
 117              		.loc 1 86 0 discriminator 3
 118 0016 0B48     		ldr	r0, .L11
 119 0018 FFF7FEFF 		bl	chDbgPanic
 120              	.L8:
 121              		.loc 1 88 0 is_stmt 1
 122 001c 0BE0     		b	.L9
 123              	.L10:
 124              		.loc 1 89 0
 125 001e 0398     		ldr	r0, [sp, #12]
 126 0020 0299     		ldr	r1, [sp, #8]
 127 0022 FFF7FEFF 		bl	chPoolFree
 128              		.loc 1 90 0
 129 0026 039B     		ldr	r3, [sp, #12]
 130 0028 5B68     		ldr	r3, [r3, #4]
 131 002a 029A     		ldr	r2, [sp, #8]
 132 002c 1344     		add	r3, r3, r2
 133 002e 0293     		str	r3, [sp, #8]
 134              		.loc 1 91 0
 135 0030 019B     		ldr	r3, [sp, #4]
 136 0032 013B     		subs	r3, r3, #1
 137 0034 0193     		str	r3, [sp, #4]
 138              	.L9:
 139              		.loc 1 88 0
 140 0036 019B     		ldr	r3, [sp, #4]
 141 0038 002B     		cmp	r3, #0
 142 003a F0D1     		bne	.L10
 143              		.loc 1 93 0
 144 003c 05B0     		add	sp, sp, #20
 145              		.cfi_def_cfa_offset 4
 146              		@ sp needed
 147 003e 5DF804FB 		ldr	pc, [sp], #4
 148              	.L12:
 149 0042 00BF     		.align	2
 150              	.L11:
 151 0044 10000000 		.word	.LC1
 152              		.cfi_endproc
 153              	.LFE8:
 154              		.size	chPoolLoadArray, .-chPoolLoadArray
 155 0048 AFF30080 		.section	.rodata
 155      AFF30080 
 156              		.align	2
 157              	.LC2:
 158 0024 22636850 		.ascii	"\"chPoolAllocI\"()\000"
 158      6F6F6C41 
 158      6C6C6F63 
 158      49222829 
 158      00
ARM GAS  /tmp/ccgWp5m1.s 			page 4


 159              		.section	.text.chPoolAllocI,"ax",%progbits
 160              		.align	2
 161              		.p2align 4,,15
 162              		.global	chPoolAllocI
 163              		.thumb
 164              		.thumb_func
 165              		.type	chPoolAllocI, %function
 166              	chPoolAllocI:
 167              	.LFB9:
 168              		.loc 1 105 0
 169              		.cfi_startproc
 170              		@ args = 0, pretend = 0, frame = 16
 171              		@ frame_needed = 0, uses_anonymous_args = 0
 172 0000 00B5     		push	{lr}
 173              		.cfi_def_cfa_offset 4
 174              		.cfi_offset 14, -4
 175 0002 85B0     		sub	sp, sp, #20
 176              		.cfi_def_cfa_offset 24
 177 0004 0190     		str	r0, [sp, #4]
 178              		.loc 1 108 0
 179 0006 FFF7FEFF 		bl	chDbgCheckClassI
 180              		.loc 1 109 0
 181 000a 019B     		ldr	r3, [sp, #4]
 182 000c 002B     		cmp	r3, #0
 183 000e 02D1     		bne	.L14
 184              		.loc 1 109 0 is_stmt 0 discriminator 1
 185 0010 0F48     		ldr	r0, .L18
 186 0012 FFF7FEFF 		bl	chDbgPanic
 187              	.L14:
 188              		.loc 1 111 0 is_stmt 1
 189 0016 019B     		ldr	r3, [sp, #4]
 190 0018 1B68     		ldr	r3, [r3]
 191 001a 0393     		str	r3, [sp, #12]
 192 001c 039B     		ldr	r3, [sp, #12]
 193 001e 002B     		cmp	r3, #0
 194 0020 05D0     		beq	.L15
 195              		.loc 1 112 0
 196 0022 019B     		ldr	r3, [sp, #4]
 197 0024 1B68     		ldr	r3, [r3]
 198 0026 1A68     		ldr	r2, [r3]
 199 0028 019B     		ldr	r3, [sp, #4]
 200 002a 1A60     		str	r2, [r3]
 201 002c 0AE0     		b	.L16
 202              	.L15:
 203              		.loc 1 113 0
 204 002e 019B     		ldr	r3, [sp, #4]
 205 0030 9B68     		ldr	r3, [r3, #8]
 206 0032 002B     		cmp	r3, #0
 207 0034 06D0     		beq	.L16
 208              		.loc 1 114 0
 209 0036 019B     		ldr	r3, [sp, #4]
 210 0038 9B68     		ldr	r3, [r3, #8]
 211 003a 019A     		ldr	r2, [sp, #4]
 212 003c 5268     		ldr	r2, [r2, #4]
 213 003e 1046     		mov	r0, r2
 214 0040 9847     		blx	r3
 215 0042 0390     		str	r0, [sp, #12]
ARM GAS  /tmp/ccgWp5m1.s 			page 5


 216              	.L16:
 217              		.loc 1 115 0
 218 0044 039B     		ldr	r3, [sp, #12]
 219              		.loc 1 116 0
 220 0046 1846     		mov	r0, r3
 221 0048 05B0     		add	sp, sp, #20
 222              		.cfi_def_cfa_offset 4
 223              		@ sp needed
 224 004a 5DF804FB 		ldr	pc, [sp], #4
 225              	.L19:
 226 004e 00BF     		.align	2
 227              	.L18:
 228 0050 24000000 		.word	.LC2
 229              		.cfi_endproc
 230              	.LFE9:
 231              		.size	chPoolAllocI, .-chPoolAllocI
 232 0054 AFF30080 		.section	.text.chPoolAlloc,"ax",%progbits
 232      AFF30080 
 232      AFF30080 
 233              		.align	2
 234              		.p2align 4,,15
 235              		.global	chPoolAlloc
 236              		.thumb
 237              		.thumb_func
 238              		.type	chPoolAlloc, %function
 239              	chPoolAlloc:
 240              	.LFB10:
 241              		.loc 1 128 0
 242              		.cfi_startproc
 243              		@ args = 0, pretend = 0, frame = 16
 244              		@ frame_needed = 0, uses_anonymous_args = 0
 245 0000 00B5     		push	{lr}
 246              		.cfi_def_cfa_offset 4
 247              		.cfi_offset 14, -4
 248 0002 85B0     		sub	sp, sp, #20
 249              		.cfi_def_cfa_offset 24
 250 0004 0190     		str	r0, [sp, #4]
 251              	.LBB2:
 252              		.loc 1 131 0
 253 0006 2023     		movs	r3, #32
 254              	@ 131 "/home/ergae/r2p-sdk/core/ChibiOS/os/kernel/src/chmempools.c" 1
 255 0008 83F31188 		msr     BASEPRI, r3
 256              	@ 0 "" 2
 257              		.thumb
 258              	.LBE2:
 259 000c FFF7FEFF 		bl	dbg_check_lock
 260              		.loc 1 132 0
 261 0010 0198     		ldr	r0, [sp, #4]
 262 0012 FFF7FEFF 		bl	chPoolAllocI
 263 0016 0390     		str	r0, [sp, #12]
 264              		.loc 1 133 0
 265 0018 FFF7FEFF 		bl	dbg_check_unlock
 266              	.LBB3:
 267 001c 0023     		movs	r3, #0
 268              	@ 133 "/home/ergae/r2p-sdk/core/ChibiOS/os/kernel/src/chmempools.c" 1
 269 001e 83F31188 		msr     BASEPRI, r3
 270              	@ 0 "" 2
ARM GAS  /tmp/ccgWp5m1.s 			page 6


 271              		.thumb
 272              	.LBE3:
 273              		.loc 1 134 0
 274 0022 039B     		ldr	r3, [sp, #12]
 275              		.loc 1 135 0
 276 0024 1846     		mov	r0, r3
 277 0026 05B0     		add	sp, sp, #20
 278              		.cfi_def_cfa_offset 4
 279              		@ sp needed
 280 0028 5DF804FB 		ldr	pc, [sp], #4
 281              		.cfi_endproc
 282              	.LFE10:
 283              		.size	chPoolAlloc, .-chPoolAlloc
 284 002c AFF30080 		.section	.rodata
 285 0035 000000   		.align	2
 286              	.LC3:
 287 0038 22636850 		.ascii	"\"chPoolFreeI\"()\000"
 287      6F6F6C46 
 287      72656549 
 287      22282900 
 288              		.section	.text.chPoolFreeI,"ax",%progbits
 289              		.align	2
 290              		.p2align 4,,15
 291              		.global	chPoolFreeI
 292              		.thumb
 293              		.thumb_func
 294              		.type	chPoolFreeI, %function
 295              	chPoolFreeI:
 296              	.LFB11:
 297              		.loc 1 149 0
 298              		.cfi_startproc
 299              		@ args = 0, pretend = 0, frame = 16
 300              		@ frame_needed = 0, uses_anonymous_args = 0
 301 0000 00B5     		push	{lr}
 302              		.cfi_def_cfa_offset 4
 303              		.cfi_offset 14, -4
 304 0002 85B0     		sub	sp, sp, #20
 305              		.cfi_def_cfa_offset 24
 306 0004 0190     		str	r0, [sp, #4]
 307 0006 0091     		str	r1, [sp]
 308              		.loc 1 150 0
 309 0008 009B     		ldr	r3, [sp]
 310 000a 0393     		str	r3, [sp, #12]
 311              		.loc 1 152 0
 312 000c FFF7FEFF 		bl	chDbgCheckClassI
 313              		.loc 1 153 0
 314 0010 019B     		ldr	r3, [sp, #4]
 315 0012 002B     		cmp	r3, #0
 316 0014 02D0     		beq	.L23
 317              		.loc 1 153 0 is_stmt 0 discriminator 2
 318 0016 009B     		ldr	r3, [sp]
 319 0018 002B     		cmp	r3, #0
 320 001a 02D1     		bne	.L24
 321              	.L23:
 322              		.loc 1 153 0 discriminator 3
 323 001c 0648     		ldr	r0, .L25
 324 001e FFF7FEFF 		bl	chDbgPanic
ARM GAS  /tmp/ccgWp5m1.s 			page 7


 325              	.L24:
 326              		.loc 1 155 0 is_stmt 1
 327 0022 019B     		ldr	r3, [sp, #4]
 328 0024 1A68     		ldr	r2, [r3]
 329 0026 039B     		ldr	r3, [sp, #12]
 330 0028 1A60     		str	r2, [r3]
 331              		.loc 1 156 0
 332 002a 019B     		ldr	r3, [sp, #4]
 333 002c 039A     		ldr	r2, [sp, #12]
 334 002e 1A60     		str	r2, [r3]
 335              		.loc 1 157 0
 336 0030 05B0     		add	sp, sp, #20
 337              		.cfi_def_cfa_offset 4
 338              		@ sp needed
 339 0032 5DF804FB 		ldr	pc, [sp], #4
 340              	.L26:
 341 0036 00BF     		.align	2
 342              	.L25:
 343 0038 38000000 		.word	.LC3
 344              		.cfi_endproc
 345              	.LFE11:
 346              		.size	chPoolFreeI, .-chPoolFreeI
 347 003c AFF30080 		.section	.text.chPoolFree,"ax",%progbits
 348              		.align	2
 349              		.p2align 4,,15
 350              		.global	chPoolFree
 351              		.thumb
 352              		.thumb_func
 353              		.type	chPoolFree, %function
 354              	chPoolFree:
 355              	.LFB12:
 356              		.loc 1 171 0
 357              		.cfi_startproc
 358              		@ args = 0, pretend = 0, frame = 8
 359              		@ frame_needed = 0, uses_anonymous_args = 0
 360 0000 00B5     		push	{lr}
 361              		.cfi_def_cfa_offset 4
 362              		.cfi_offset 14, -4
 363 0002 83B0     		sub	sp, sp, #12
 364              		.cfi_def_cfa_offset 16
 365 0004 0190     		str	r0, [sp, #4]
 366 0006 0091     		str	r1, [sp]
 367              	.LBB4:
 368              		.loc 1 173 0
 369 0008 2023     		movs	r3, #32
 370              	@ 173 "/home/ergae/r2p-sdk/core/ChibiOS/os/kernel/src/chmempools.c" 1
 371 000a 83F31188 		msr     BASEPRI, r3
 372              	@ 0 "" 2
 373              		.thumb
 374              	.LBE4:
 375 000e FFF7FEFF 		bl	dbg_check_lock
 376              		.loc 1 174 0
 377 0012 0198     		ldr	r0, [sp, #4]
 378 0014 0099     		ldr	r1, [sp]
 379 0016 FFF7FEFF 		bl	chPoolFreeI
 380              		.loc 1 175 0
 381 001a FFF7FEFF 		bl	dbg_check_unlock
ARM GAS  /tmp/ccgWp5m1.s 			page 8


 382              	.LBB5:
 383 001e 0023     		movs	r3, #0
 384              	@ 175 "/home/ergae/r2p-sdk/core/ChibiOS/os/kernel/src/chmempools.c" 1
 385 0020 83F31188 		msr     BASEPRI, r3
 386              	@ 0 "" 2
 387              		.thumb
 388              	.LBE5:
 389              		.loc 1 176 0
 390 0024 03B0     		add	sp, sp, #12
 391              		.cfi_def_cfa_offset 4
 392              		@ sp needed
 393 0026 5DF804FB 		ldr	pc, [sp], #4
 394              		.cfi_endproc
 395              	.LFE12:
 396              		.size	chPoolFree, .-chPoolFree
 397 002a 00BFAFF3 		.text
 397      0080
 398              	.Letext0:
 399              		.file 2 "/home/ergae/r2p-sdk/tools/gcc-arm-none-eabi-4_9-2014q4/lib/gcc/arm-none-eabi/4.9.3/includ
 400              		.file 3 "/home/ergae/r2p-sdk/tools/gcc-arm-none-eabi-4_9-2014q4/arm-none-eabi/include/machine/_def
 401              		.file 4 "/home/ergae/r2p-sdk/tools/gcc-arm-none-eabi-4_9-2014q4/arm-none-eabi/include/stdint.h"
 402              		.file 5 "/home/ergae/r2p-sdk/core/ChibiOS/os/kernel/include/chmemcore.h"
 403              		.file 6 "/home/ergae/r2p-sdk/core/ChibiOS/os/kernel/include/chmempools.h"