ARM GAS  /tmp/ccBEyI3X.s 			page 1


   1              		.syntax unified
   2              		.cpu cortex-m4
   3              		.eabi_attribute 27, 3
   4              		.eabi_attribute 28, 1
   5              		.fpu fpv4-sp-d16
   6              		.eabi_attribute 20, 1
   7              		.eabi_attribute 21, 1
   8              		.eabi_attribute 23, 3
   9              		.eabi_attribute 24, 1
  10              		.eabi_attribute 25, 1
  11              		.eabi_attribute 26, 1
  12              		.eabi_attribute 30, 6
  13              		.eabi_attribute 34, 1
  14              		.eabi_attribute 18, 4
  15              		.thumb
  16              		.file	"chnew.cpp"
  17              		.text
  18              	.Ltext0:
  19              		.cfi_sections	.debug_frame
  20              		.section	.text._Znwj,"ax",%progbits
  21              		.align	2
  22              		.p2align 4,,15
  23              		.global	_Znwj
  24              		.thumb
  25              		.thumb_func
  26              		.type	_Znwj, %function
  27              	_Znwj:
  28              	.LFB7:
  29              		.file 1 "/home/ergae/r2p-sdk/modules/USB_module/chnew.cpp"
  30              		.loc 1 5 0
  31              		.cfi_startproc
  32              		@ args = 0, pretend = 0, frame = 8
  33              		@ frame_needed = 0, uses_anonymous_args = 0
  34 0000 00B5     		push	{lr}
  35              		.cfi_def_cfa_offset 4
  36              		.cfi_offset 14, -4
  37 0002 83B0     		sub	sp, sp, #12
  38              		.cfi_def_cfa_offset 16
  39 0004 0190     		str	r0, [sp, #4]
  40              		.loc 1 7 0
  41 0006 019B     		ldr	r3, [sp, #4]
  42 0008 002B     		cmp	r3, #0
  43 000a 01D0     		beq	.L2
  44              		.loc 1 7 0 is_stmt 0 discriminator 1
  45 000c 019B     		ldr	r3, [sp, #4]
  46 000e 00E0     		b	.L3
  47              	.L2:
  48              		.loc 1 7 0 discriminator 2
  49 0010 0123     		movs	r3, #1
  50              	.L3:
  51              		.loc 1 7 0 discriminator 4
  52 0012 0020     		movs	r0, #0
  53 0014 1946     		mov	r1, r3
  54 0016 FFF7FEFF 		bl	chHeapAlloc
  55 001a 0346     		mov	r3, r0
  56              		.loc 1 8 0 is_stmt 1 discriminator 4
  57 001c 1846     		mov	r0, r3
ARM GAS  /tmp/ccBEyI3X.s 			page 2


  58 001e 03B0     		add	sp, sp, #12
  59              		.cfi_def_cfa_offset 4
  60              		@ sp needed
  61 0020 5DF804FB 		ldr	pc, [sp], #4
  62              		.cfi_endproc
  63              	.LFE7:
  64              		.size	_Znwj, .-_Znwj
  65 0024 AFF30080 		.section	.text._ZnwjP11memory_heap,"ax",%progbits
  65      AFF30080 
  65      AFF30080 
  66              		.align	2
  67              		.p2align 4,,15
  68              		.global	_ZnwjP11memory_heap
  69              		.thumb
  70              		.thumb_func
  71              		.type	_ZnwjP11memory_heap, %function
  72              	_ZnwjP11memory_heap:
  73              	.LFB8:
  74              		.loc 1 11 0
  75              		.cfi_startproc
  76              		@ args = 0, pretend = 0, frame = 8
  77              		@ frame_needed = 0, uses_anonymous_args = 0
  78 0000 00B5     		push	{lr}
  79              		.cfi_def_cfa_offset 4
  80              		.cfi_offset 14, -4
  81 0002 83B0     		sub	sp, sp, #12
  82              		.cfi_def_cfa_offset 16
  83 0004 0190     		str	r0, [sp, #4]
  84 0006 0091     		str	r1, [sp]
  85              		.loc 1 13 0
  86 0008 019B     		ldr	r3, [sp, #4]
  87 000a 002B     		cmp	r3, #0
  88 000c 01D0     		beq	.L6
  89              		.loc 1 13 0 is_stmt 0 discriminator 1
  90 000e 019B     		ldr	r3, [sp, #4]
  91 0010 00E0     		b	.L7
  92              	.L6:
  93              		.loc 1 13 0 discriminator 2
  94 0012 0123     		movs	r3, #1
  95              	.L7:
  96              		.loc 1 13 0 discriminator 4
  97 0014 0098     		ldr	r0, [sp]
  98 0016 1946     		mov	r1, r3
  99 0018 FFF7FEFF 		bl	chHeapAlloc
 100 001c 0346     		mov	r3, r0
 101              		.loc 1 14 0 is_stmt 1 discriminator 4
 102 001e 1846     		mov	r0, r3
 103 0020 03B0     		add	sp, sp, #12
 104              		.cfi_def_cfa_offset 4
 105              		@ sp needed
 106 0022 5DF804FB 		ldr	pc, [sp], #4
 107              		.cfi_endproc
 108              	.LFE8:
 109              		.size	_ZnwjP11memory_heap, .-_ZnwjP11memory_heap
 110              		.section	.text._Znaj,"ax",%progbits
 111              		.align	2
 112              		.p2align 4,,15
ARM GAS  /tmp/ccBEyI3X.s 			page 3


 113              		.global	_Znaj
 114              		.thumb
 115              		.thumb_func
 116              		.type	_Znaj, %function
 117              	_Znaj:
 118              	.LFB9:
 119              		.loc 1 17 0
 120              		.cfi_startproc
 121              		@ args = 0, pretend = 0, frame = 8
 122              		@ frame_needed = 0, uses_anonymous_args = 0
 123 0000 00B5     		push	{lr}
 124              		.cfi_def_cfa_offset 4
 125              		.cfi_offset 14, -4
 126 0002 83B0     		sub	sp, sp, #12
 127              		.cfi_def_cfa_offset 16
 128 0004 0190     		str	r0, [sp, #4]
 129              		.loc 1 19 0
 130 0006 019B     		ldr	r3, [sp, #4]
 131 0008 002B     		cmp	r3, #0
 132 000a 01D0     		beq	.L10
 133              		.loc 1 19 0 is_stmt 0 discriminator 1
 134 000c 019B     		ldr	r3, [sp, #4]
 135 000e 00E0     		b	.L11
 136              	.L10:
 137              		.loc 1 19 0 discriminator 2
 138 0010 0123     		movs	r3, #1
 139              	.L11:
 140              		.loc 1 19 0 discriminator 4
 141 0012 0020     		movs	r0, #0
 142 0014 1946     		mov	r1, r3
 143 0016 FFF7FEFF 		bl	chHeapAlloc
 144 001a 0346     		mov	r3, r0
 145              		.loc 1 20 0 is_stmt 1 discriminator 4
 146 001c 1846     		mov	r0, r3
 147 001e 03B0     		add	sp, sp, #12
 148              		.cfi_def_cfa_offset 4
 149              		@ sp needed
 150 0020 5DF804FB 		ldr	pc, [sp], #4
 151              		.cfi_endproc
 152              	.LFE9:
 153              		.size	_Znaj, .-_Znaj
 154 0024 AFF30080 		.section	.text._ZnajP11memory_heap,"ax",%progbits
 154      AFF30080 
 154      AFF30080 
 155              		.align	2
 156              		.p2align 4,,15
 157              		.global	_ZnajP11memory_heap
 158              		.thumb
 159              		.thumb_func
 160              		.type	_ZnajP11memory_heap, %function
 161              	_ZnajP11memory_heap:
 162              	.LFB10:
 163              		.loc 1 23 0
 164              		.cfi_startproc
 165              		@ args = 0, pretend = 0, frame = 8
 166              		@ frame_needed = 0, uses_anonymous_args = 0
 167 0000 00B5     		push	{lr}
ARM GAS  /tmp/ccBEyI3X.s 			page 4


 168              		.cfi_def_cfa_offset 4
 169              		.cfi_offset 14, -4
 170 0002 83B0     		sub	sp, sp, #12
 171              		.cfi_def_cfa_offset 16
 172 0004 0190     		str	r0, [sp, #4]
 173 0006 0091     		str	r1, [sp]
 174              		.loc 1 25 0
 175 0008 019B     		ldr	r3, [sp, #4]
 176 000a 002B     		cmp	r3, #0
 177 000c 01D0     		beq	.L14
 178              		.loc 1 25 0 is_stmt 0 discriminator 1
 179 000e 019B     		ldr	r3, [sp, #4]
 180 0010 00E0     		b	.L15
 181              	.L14:
 182              		.loc 1 25 0 discriminator 2
 183 0012 0123     		movs	r3, #1
 184              	.L15:
 185              		.loc 1 25 0 discriminator 4
 186 0014 0098     		ldr	r0, [sp]
 187 0016 1946     		mov	r1, r3
 188 0018 FFF7FEFF 		bl	chHeapAlloc
 189 001c 0346     		mov	r3, r0
 190              		.loc 1 26 0 is_stmt 1 discriminator 4
 191 001e 1846     		mov	r0, r3
 192 0020 03B0     		add	sp, sp, #12
 193              		.cfi_def_cfa_offset 4
 194              		@ sp needed
 195 0022 5DF804FB 		ldr	pc, [sp], #4
 196              		.cfi_endproc
 197              	.LFE10:
 198              		.size	_ZnajP11memory_heap, .-_ZnajP11memory_heap
 199              		.section	.text._ZdlPv,"ax",%progbits
 200              		.align	2
 201              		.p2align 4,,15
 202              		.global	_ZdlPv
 203              		.thumb
 204              		.thumb_func
 205              		.type	_ZdlPv, %function
 206              	_ZdlPv:
 207              	.LFB11:
 208              		.loc 1 29 0
 209              		.cfi_startproc
 210              		@ args = 0, pretend = 0, frame = 8
 211              		@ frame_needed = 0, uses_anonymous_args = 0
 212 0000 00B5     		push	{lr}
 213              		.cfi_def_cfa_offset 4
 214              		.cfi_offset 14, -4
 215 0002 83B0     		sub	sp, sp, #12
 216              		.cfi_def_cfa_offset 16
 217 0004 0190     		str	r0, [sp, #4]
 218              		.loc 1 31 0
 219 0006 019B     		ldr	r3, [sp, #4]
 220 0008 002B     		cmp	r3, #0
 221 000a 02D0     		beq	.L17
 222              		.loc 1 32 0
 223 000c 0198     		ldr	r0, [sp, #4]
 224 000e FFF7FEFF 		bl	chHeapFree
ARM GAS  /tmp/ccBEyI3X.s 			page 5


 225              	.L17:
 226              		.loc 1 34 0
 227 0012 03B0     		add	sp, sp, #12
 228              		.cfi_def_cfa_offset 4
 229              		@ sp needed
 230 0014 5DF804FB 		ldr	pc, [sp], #4
 231              		.cfi_endproc
 232              	.LFE11:
 233              		.size	_ZdlPv, .-_ZdlPv
 234 0018 AFF30080 		.section	.text._ZdlPvP11memory_heap,"ax",%progbits
 234      AFF30080 
 235              		.align	2
 236              		.p2align 4,,15
 237              		.global	_ZdlPvP11memory_heap
 238              		.thumb
 239              		.thumb_func
 240              		.type	_ZdlPvP11memory_heap, %function
 241              	_ZdlPvP11memory_heap:
 242              	.LFB12:
 243              		.loc 1 37 0
 244              		.cfi_startproc
 245              		@ args = 0, pretend = 0, frame = 8
 246              		@ frame_needed = 0, uses_anonymous_args = 0
 247 0000 00B5     		push	{lr}
 248              		.cfi_def_cfa_offset 4
 249              		.cfi_offset 14, -4
 250 0002 83B0     		sub	sp, sp, #12
 251              		.cfi_def_cfa_offset 16
 252 0004 0190     		str	r0, [sp, #4]
 253 0006 0091     		str	r1, [sp]
 254              		.loc 1 40 0
 255 0008 019B     		ldr	r3, [sp, #4]
 256 000a 002B     		cmp	r3, #0
 257 000c 02D0     		beq	.L19
 258              		.loc 1 41 0
 259 000e 0198     		ldr	r0, [sp, #4]
 260 0010 FFF7FEFF 		bl	chHeapFree
 261              	.L19:
 262              		.loc 1 43 0
 263 0014 03B0     		add	sp, sp, #12
 264              		.cfi_def_cfa_offset 4
 265              		@ sp needed
 266 0016 5DF804FB 		ldr	pc, [sp], #4
 267              		.cfi_endproc
 268              	.LFE12:
 269              		.size	_ZdlPvP11memory_heap, .-_ZdlPvP11memory_heap
 270 001a 00BFAFF3 		.section	.text._ZdaPv,"ax",%progbits
 270      0080
 271              		.align	2
 272              		.p2align 4,,15
 273              		.global	_ZdaPv
 274              		.thumb
 275              		.thumb_func
 276              		.type	_ZdaPv, %function
 277              	_ZdaPv:
 278              	.LFB13:
 279              		.loc 1 46 0
ARM GAS  /tmp/ccBEyI3X.s 			page 6


 280              		.cfi_startproc
 281              		@ args = 0, pretend = 0, frame = 8
 282              		@ frame_needed = 0, uses_anonymous_args = 0
 283 0000 00B5     		push	{lr}
 284              		.cfi_def_cfa_offset 4
 285              		.cfi_offset 14, -4
 286 0002 83B0     		sub	sp, sp, #12
 287              		.cfi_def_cfa_offset 16
 288 0004 0190     		str	r0, [sp, #4]
 289              		.loc 1 48 0
 290 0006 019B     		ldr	r3, [sp, #4]
 291 0008 002B     		cmp	r3, #0
 292 000a 02D0     		beq	.L21
 293              		.loc 1 49 0
 294 000c 0198     		ldr	r0, [sp, #4]
 295 000e FFF7FEFF 		bl	chHeapFree
 296              	.L21:
 297              		.loc 1 51 0
 298 0012 03B0     		add	sp, sp, #12
 299              		.cfi_def_cfa_offset 4
 300              		@ sp needed
 301 0014 5DF804FB 		ldr	pc, [sp], #4
 302              		.cfi_endproc
 303              	.LFE13:
 304              		.size	_ZdaPv, .-_ZdaPv
 305 0018 AFF30080 		.section	.text._ZdaPvP11memory_heap,"ax",%progbits
 305      AFF30080 
 306              		.align	2
 307              		.p2align 4,,15
 308              		.global	_ZdaPvP11memory_heap
 309              		.thumb
 310              		.thumb_func
 311              		.type	_ZdaPvP11memory_heap, %function
 312              	_ZdaPvP11memory_heap:
 313              	.LFB14:
 314              		.loc 1 54 0
 315              		.cfi_startproc
 316              		@ args = 0, pretend = 0, frame = 8
 317              		@ frame_needed = 0, uses_anonymous_args = 0
 318 0000 00B5     		push	{lr}
 319              		.cfi_def_cfa_offset 4
 320              		.cfi_offset 14, -4
 321 0002 83B0     		sub	sp, sp, #12
 322              		.cfi_def_cfa_offset 16
 323 0004 0190     		str	r0, [sp, #4]
 324 0006 0091     		str	r1, [sp]
 325              		.loc 1 57 0
 326 0008 019B     		ldr	r3, [sp, #4]
 327 000a 002B     		cmp	r3, #0
 328 000c 02D0     		beq	.L23
 329              		.loc 1 58 0
 330 000e 0198     		ldr	r0, [sp, #4]
 331 0010 FFF7FEFF 		bl	chHeapFree
 332              	.L23:
 333              		.loc 1 60 0
 334 0014 03B0     		add	sp, sp, #12
 335              		.cfi_def_cfa_offset 4
ARM GAS  /tmp/ccBEyI3X.s 			page 7


 336              		@ sp needed
 337 0016 5DF804FB 		ldr	pc, [sp], #4
 338              		.cfi_endproc
 339              	.LFE14:
 340              		.size	_ZdaPvP11memory_heap, .-_ZdaPvP11memory_heap
 341 001a 00BFAFF3 		.text
 341      0080
 342              	.Letext0:
 343              		.file 2 "/home/ergae/r2p-sdk/tools/gcc-arm-none-eabi-4_9-2014q4/lib/gcc/arm-none-eabi/4.9.3/includ
 344              		.file 3 "/home/ergae/r2p-sdk/tools/gcc-arm-none-eabi-4_9-2014q4/arm-none-eabi/include/machine/_def
 345              		.file 4 "/home/ergae/r2p-sdk/tools/gcc-arm-none-eabi-4_9-2014q4/arm-none-eabi/include/stdint.h"
 346              		.file 5 "/home/ergae/r2p-sdk/core/ChibiOS/os/ports/GCC/ARMCMx/chtypes.h"
 347              		.file 6 "/home/ergae/r2p-sdk/core/ChibiOS/os/kernel/include/chlists.h"
 348              		.file 7 "/home/ergae/r2p-sdk/core/ChibiOS/os/kernel/include/chthreads.h"
 349              		.file 8 "/home/ergae/r2p-sdk/core/ChibiOS/os/ports/GCC/ARMCMx/chcore_v7m.h"
 350              		.file 9 "/home/ergae/r2p-sdk/core/ChibiOS/os/kernel/include/chmtx.h"
 351              		.file 10 "/home/ergae/r2p-sdk/core/ChibiOS/os/kernel/include/chmemcore.h"
 352              		.file 11 "/home/ergae/r2p-sdk/core/ChibiOS/os/kernel/include/chheap.h"