ARM GAS  /tmp/cc6az2p5.s 			page 1


   1              		.syntax unified
   2              		.cpu cortex-m4
   3              		.eabi_attribute 27, 3
   4              		.eabi_attribute 28, 1
   5              		.fpu fpv4-sp-d16
   6              		.eabi_attribute 20, 1
   7              		.eabi_attribute 21, 1
   8              		.eabi_attribute 23, 3
   9              		.eabi_attribute 24, 1
  10              		.eabi_attribute 25, 1
  11              		.eabi_attribute 26, 1
  12              		.eabi_attribute 30, 6
  13              		.eabi_attribute 34, 1
  14              		.eabi_attribute 18, 4
  15              		.thumb
  16              		.file	"chqueues.c"
  17              		.text
  18              	.Ltext0:
  19              		.cfi_sections	.debug_frame
  20              		.section	.text.queue_insert,"ax",%progbits
  21              		.align	2
  22              		.p2align 4,,15
  23              		.thumb
  24              		.thumb_func
  25              		.type	queue_insert, %function
  26              	queue_insert:
  27              	.LFB1:
  28              		.file 1 "/home/ergae/r2p-sdk/core/ChibiOS/os/kernel/include/chinline.h"
  29              		.loc 1 52 0
  30              		.cfi_startproc
  31              		@ args = 0, pretend = 0, frame = 8
  32              		@ frame_needed = 0, uses_anonymous_args = 0
  33              		@ link register save eliminated.
  34 0000 82B0     		sub	sp, sp, #8
  35              		.cfi_def_cfa_offset 8
  36 0002 0190     		str	r0, [sp, #4]
  37 0004 0091     		str	r1, [sp]
  38              		.loc 1 54 0
  39 0006 019B     		ldr	r3, [sp, #4]
  40 0008 009A     		ldr	r2, [sp]
  41 000a 1A60     		str	r2, [r3]
  42              		.loc 1 55 0
  43 000c 009B     		ldr	r3, [sp]
  44 000e 5A68     		ldr	r2, [r3, #4]
  45 0010 019B     		ldr	r3, [sp, #4]
  46 0012 5A60     		str	r2, [r3, #4]
  47              		.loc 1 56 0
  48 0014 019B     		ldr	r3, [sp, #4]
  49 0016 5B68     		ldr	r3, [r3, #4]
  50 0018 009A     		ldr	r2, [sp]
  51 001a 0199     		ldr	r1, [sp, #4]
  52 001c 5160     		str	r1, [r2, #4]
  53 001e 009A     		ldr	r2, [sp]
  54 0020 5268     		ldr	r2, [r2, #4]
  55 0022 1A60     		str	r2, [r3]
  56              		.loc 1 57 0
  57 0024 02B0     		add	sp, sp, #8
ARM GAS  /tmp/cc6az2p5.s 			page 2


  58              		.cfi_def_cfa_offset 0
  59              		@ sp needed
  60 0026 7047     		bx	lr
  61              		.cfi_endproc
  62              	.LFE1:
  63              		.size	queue_insert, .-queue_insert
  64 0028 AFF30080 		.section	.text.fifo_remove,"ax",%progbits
  64      AFF30080 
  65              		.align	2
  66              		.p2align 4,,15
  67              		.thumb
  68              		.thumb_func
  69              		.type	fifo_remove, %function
  70              	fifo_remove:
  71              	.LFB2:
  72              		.loc 1 59 0
  73              		.cfi_startproc
  74              		@ args = 0, pretend = 0, frame = 16
  75              		@ frame_needed = 0, uses_anonymous_args = 0
  76              		@ link register save eliminated.
  77 0000 84B0     		sub	sp, sp, #16
  78              		.cfi_def_cfa_offset 16
  79 0002 0190     		str	r0, [sp, #4]
  80              		.loc 1 60 0
  81 0004 019B     		ldr	r3, [sp, #4]
  82 0006 1B68     		ldr	r3, [r3]
  83 0008 0393     		str	r3, [sp, #12]
  84              		.loc 1 62 0
  85 000a 039B     		ldr	r3, [sp, #12]
  86 000c 1A68     		ldr	r2, [r3]
  87 000e 019B     		ldr	r3, [sp, #4]
  88 0010 1A60     		str	r2, [r3]
  89 0012 019B     		ldr	r3, [sp, #4]
  90 0014 1B68     		ldr	r3, [r3]
  91 0016 019A     		ldr	r2, [sp, #4]
  92 0018 5A60     		str	r2, [r3, #4]
  93              		.loc 1 63 0
  94 001a 039B     		ldr	r3, [sp, #12]
  95              		.loc 1 64 0
  96 001c 1846     		mov	r0, r3
  97 001e 04B0     		add	sp, sp, #16
  98              		.cfi_def_cfa_offset 0
  99              		@ sp needed
 100 0020 7047     		bx	lr
 101              		.cfi_endproc
 102              	.LFE2:
 103              		.size	fifo_remove, .-fifo_remove
 104 0022 00BFAFF3 		.section	.text.qwait,"ax",%progbits
 104      0080AFF3 
 104      0080AFF3 
 104      0080
 105              		.align	2
 106              		.p2align 4,,15
 107              		.thumb
 108              		.thumb_func
 109              		.type	qwait, %function
 110              	qwait:
ARM GAS  /tmp/cc6az2p5.s 			page 3


 111              	.LFB7:
 112              		.file 2 "/home/ergae/r2p-sdk/core/ChibiOS/os/kernel/src/chqueues.c"
 113              		.loc 2 70 0
 114              		.cfi_startproc
 115              		@ args = 0, pretend = 0, frame = 8
 116              		@ frame_needed = 0, uses_anonymous_args = 0
 117 0000 00B5     		push	{lr}
 118              		.cfi_def_cfa_offset 4
 119              		.cfi_offset 14, -4
 120 0002 83B0     		sub	sp, sp, #12
 121              		.cfi_def_cfa_offset 16
 122 0004 0190     		str	r0, [sp, #4]
 123 0006 0091     		str	r1, [sp]
 124              		.loc 2 72 0
 125 0008 009B     		ldr	r3, [sp]
 126 000a 002B     		cmp	r3, #0
 127 000c 02D1     		bne	.L5
 128              		.loc 2 73 0
 129 000e 4FF0FF33 		mov	r3, #-1
 130 0012 0FE0     		b	.L6
 131              	.L5:
 132              		.loc 2 74 0
 133 0014 094B     		ldr	r3, .L7
 134 0016 9B69     		ldr	r3, [r3, #24]
 135 0018 019A     		ldr	r2, [sp, #4]
 136 001a 9A62     		str	r2, [r3, #40]
 137              		.loc 2 75 0
 138 001c 074B     		ldr	r3, .L7
 139 001e 9A69     		ldr	r2, [r3, #24]
 140 0020 019B     		ldr	r3, [sp, #4]
 141 0022 1046     		mov	r0, r2
 142 0024 1946     		mov	r1, r3
 143 0026 FFF7FEFF 		bl	queue_insert
 144              		.loc 2 76 0
 145 002a 0D20     		movs	r0, #13
 146 002c 0099     		ldr	r1, [sp]
 147 002e FFF7FEFF 		bl	chSchGoSleepTimeoutS
 148 0032 0346     		mov	r3, r0
 149              	.L6:
 150              		.loc 2 77 0
 151 0034 1846     		mov	r0, r3
 152 0036 03B0     		add	sp, sp, #12
 153              		.cfi_def_cfa_offset 4
 154              		@ sp needed
 155 0038 5DF804FB 		ldr	pc, [sp], #4
 156              	.L8:
 157              		.align	2
 158              	.L7:
 159 003c 00000000 		.word	rlist
 160              		.cfi_endproc
 161              	.LFE7:
 162              		.size	qwait, .-qwait
 163              		.section	.text.chIQInit,"ax",%progbits
 164              		.align	2
 165              		.p2align 4,,15
 166              		.global	chIQInit
 167              		.thumb
ARM GAS  /tmp/cc6az2p5.s 			page 4


 168              		.thumb_func
 169              		.type	chIQInit, %function
 170              	chIQInit:
 171              	.LFB8:
 172              		.loc 2 96 0
 173              		.cfi_startproc
 174              		@ args = 4, pretend = 0, frame = 16
 175              		@ frame_needed = 0, uses_anonymous_args = 0
 176              		@ link register save eliminated.
 177 0000 84B0     		sub	sp, sp, #16
 178              		.cfi_def_cfa_offset 16
 179 0002 0390     		str	r0, [sp, #12]
 180 0004 0291     		str	r1, [sp, #8]
 181 0006 0192     		str	r2, [sp, #4]
 182 0008 0093     		str	r3, [sp]
 183              		.loc 2 98 0
 184 000a 039A     		ldr	r2, [sp, #12]
 185 000c 039B     		ldr	r3, [sp, #12]
 186 000e 5A60     		str	r2, [r3, #4]
 187 0010 039B     		ldr	r3, [sp, #12]
 188 0012 5A68     		ldr	r2, [r3, #4]
 189 0014 039B     		ldr	r3, [sp, #12]
 190 0016 1A60     		str	r2, [r3]
 191              		.loc 2 99 0
 192 0018 039B     		ldr	r3, [sp, #12]
 193 001a 0022     		movs	r2, #0
 194 001c 9A60     		str	r2, [r3, #8]
 195              		.loc 2 100 0
 196 001e 039B     		ldr	r3, [sp, #12]
 197 0020 029A     		ldr	r2, [sp, #8]
 198 0022 5A61     		str	r2, [r3, #20]
 199 0024 039B     		ldr	r3, [sp, #12]
 200 0026 5A69     		ldr	r2, [r3, #20]
 201 0028 039B     		ldr	r3, [sp, #12]
 202 002a 9A61     		str	r2, [r3, #24]
 203 002c 039B     		ldr	r3, [sp, #12]
 204 002e 9A69     		ldr	r2, [r3, #24]
 205 0030 039B     		ldr	r3, [sp, #12]
 206 0032 DA60     		str	r2, [r3, #12]
 207              		.loc 2 101 0
 208 0034 029A     		ldr	r2, [sp, #8]
 209 0036 019B     		ldr	r3, [sp, #4]
 210 0038 1A44     		add	r2, r2, r3
 211 003a 039B     		ldr	r3, [sp, #12]
 212 003c 1A61     		str	r2, [r3, #16]
 213              		.loc 2 102 0
 214 003e 039B     		ldr	r3, [sp, #12]
 215 0040 009A     		ldr	r2, [sp]
 216 0042 DA61     		str	r2, [r3, #28]
 217              		.loc 2 103 0
 218 0044 039B     		ldr	r3, [sp, #12]
 219 0046 049A     		ldr	r2, [sp, #16]
 220 0048 1A62     		str	r2, [r3, #32]
 221              		.loc 2 104 0
 222 004a 04B0     		add	sp, sp, #16
 223              		.cfi_def_cfa_offset 0
 224              		@ sp needed
ARM GAS  /tmp/cc6az2p5.s 			page 5


 225 004c 7047     		bx	lr
 226              		.cfi_endproc
 227              	.LFE8:
 228              		.size	chIQInit, .-chIQInit
 229 004e 00BF     		.section	.text.chIQResetI,"ax",%progbits
 230              		.align	2
 231              		.p2align 4,,15
 232              		.global	chIQResetI
 233              		.thumb
 234              		.thumb_func
 235              		.type	chIQResetI, %function
 236              	chIQResetI:
 237              	.LFB9:
 238              		.loc 2 117 0
 239              		.cfi_startproc
 240              		@ args = 0, pretend = 0, frame = 8
 241              		@ frame_needed = 0, uses_anonymous_args = 0
 242 0000 00B5     		push	{lr}
 243              		.cfi_def_cfa_offset 4
 244              		.cfi_offset 14, -4
 245 0002 83B0     		sub	sp, sp, #12
 246              		.cfi_def_cfa_offset 16
 247 0004 0190     		str	r0, [sp, #4]
 248              		.loc 2 119 0
 249 0006 FFF7FEFF 		bl	chDbgCheckClassI
 250              		.loc 2 121 0
 251 000a 019B     		ldr	r3, [sp, #4]
 252 000c DA68     		ldr	r2, [r3, #12]
 253 000e 019B     		ldr	r3, [sp, #4]
 254 0010 5A61     		str	r2, [r3, #20]
 255 0012 019B     		ldr	r3, [sp, #4]
 256 0014 5A69     		ldr	r2, [r3, #20]
 257 0016 019B     		ldr	r3, [sp, #4]
 258 0018 9A61     		str	r2, [r3, #24]
 259              		.loc 2 122 0
 260 001a 019B     		ldr	r3, [sp, #4]
 261 001c 0022     		movs	r2, #0
 262 001e 9A60     		str	r2, [r3, #8]
 263              		.loc 2 123 0
 264 0020 0BE0     		b	.L11
 265              	.L12:
 266              		.loc 2 124 0
 267 0022 019B     		ldr	r3, [sp, #4]
 268 0024 1846     		mov	r0, r3
 269 0026 FFF7FEFF 		bl	fifo_remove
 270 002a 0346     		mov	r3, r0
 271 002c 1846     		mov	r0, r3
 272 002e FFF7FEFF 		bl	chSchReadyI
 273 0032 0246     		mov	r2, r0
 274 0034 6FF00103 		mvn	r3, #1
 275 0038 9362     		str	r3, [r2, #40]
 276              	.L11:
 277              		.loc 2 123 0
 278 003a 019B     		ldr	r3, [sp, #4]
 279 003c 1A68     		ldr	r2, [r3]
 280 003e 019B     		ldr	r3, [sp, #4]
 281 0040 9A42     		cmp	r2, r3
ARM GAS  /tmp/cc6az2p5.s 			page 6


 282 0042 EED1     		bne	.L12
 283              		.loc 2 125 0
 284 0044 03B0     		add	sp, sp, #12
 285              		.cfi_def_cfa_offset 4
 286              		@ sp needed
 287 0046 5DF804FB 		ldr	pc, [sp], #4
 288              		.cfi_endproc
 289              	.LFE9:
 290              		.size	chIQResetI, .-chIQResetI
 291 004a 00BFAFF3 		.section	.text.chIQPutI,"ax",%progbits
 291      0080
 292              		.align	2
 293              		.p2align 4,,15
 294              		.global	chIQPutI
 295              		.thumb
 296              		.thumb_func
 297              		.type	chIQPutI, %function
 298              	chIQPutI:
 299              	.LFB10:
 300              		.loc 2 140 0
 301              		.cfi_startproc
 302              		@ args = 0, pretend = 0, frame = 8
 303              		@ frame_needed = 0, uses_anonymous_args = 0
 304 0000 00B5     		push	{lr}
 305              		.cfi_def_cfa_offset 4
 306              		.cfi_offset 14, -4
 307 0002 83B0     		sub	sp, sp, #12
 308              		.cfi_def_cfa_offset 16
 309 0004 0190     		str	r0, [sp, #4]
 310 0006 0B46     		mov	r3, r1
 311 0008 8DF80330 		strb	r3, [sp, #3]
 312              		.loc 2 142 0
 313 000c FFF7FEFF 		bl	chDbgCheckClassI
 314              		.loc 2 144 0
 315 0010 019B     		ldr	r3, [sp, #4]
 316 0012 5A69     		ldr	r2, [r3, #20]
 317 0014 019B     		ldr	r3, [sp, #4]
 318 0016 9B69     		ldr	r3, [r3, #24]
 319 0018 9A42     		cmp	r2, r3
 320 001a 05D1     		bne	.L14
 321              		.loc 2 144 0 is_stmt 0 discriminator 1
 322 001c 019B     		ldr	r3, [sp, #4]
 323 001e 9B68     		ldr	r3, [r3, #8]
 324 0020 002B     		cmp	r3, #0
 325 0022 01D0     		beq	.L14
 326              		.loc 2 144 0 discriminator 3
 327 0024 0123     		movs	r3, #1
 328 0026 00E0     		b	.L15
 329              	.L14:
 330              		.loc 2 144 0 discriminator 4
 331 0028 0023     		movs	r3, #0
 332              	.L15:
 333              		.loc 2 144 0 discriminator 6
 334 002a 03F00103 		and	r3, r3, #1
 335 002e DBB2     		uxtb	r3, r3
 336 0030 002B     		cmp	r3, #0
 337 0032 02D0     		beq	.L16
ARM GAS  /tmp/cc6az2p5.s 			page 7


 338              		.loc 2 145 0 is_stmt 1
 339 0034 6FF00303 		mvn	r3, #3
 340 0038 27E0     		b	.L17
 341              	.L16:
 342              		.loc 2 147 0
 343 003a 019B     		ldr	r3, [sp, #4]
 344 003c 9B68     		ldr	r3, [r3, #8]
 345 003e 5A1C     		adds	r2, r3, #1
 346 0040 019B     		ldr	r3, [sp, #4]
 347 0042 9A60     		str	r2, [r3, #8]
 348              		.loc 2 148 0
 349 0044 019B     		ldr	r3, [sp, #4]
 350 0046 5B69     		ldr	r3, [r3, #20]
 351 0048 591C     		adds	r1, r3, #1
 352 004a 019A     		ldr	r2, [sp, #4]
 353 004c 5161     		str	r1, [r2, #20]
 354 004e 9DF80320 		ldrb	r2, [sp, #3]
 355 0052 1A70     		strb	r2, [r3]
 356              		.loc 2 149 0
 357 0054 019B     		ldr	r3, [sp, #4]
 358 0056 5A69     		ldr	r2, [r3, #20]
 359 0058 019B     		ldr	r3, [sp, #4]
 360 005a 1B69     		ldr	r3, [r3, #16]
 361 005c 9A42     		cmp	r2, r3
 362 005e 03D3     		bcc	.L18
 363              		.loc 2 150 0
 364 0060 019B     		ldr	r3, [sp, #4]
 365 0062 DA68     		ldr	r2, [r3, #12]
 366 0064 019B     		ldr	r3, [sp, #4]
 367 0066 5A61     		str	r2, [r3, #20]
 368              	.L18:
 369              		.loc 2 152 0
 370 0068 019B     		ldr	r3, [sp, #4]
 371 006a 1A68     		ldr	r2, [r3]
 372 006c 019B     		ldr	r3, [sp, #4]
 373 006e 9A42     		cmp	r2, r3
 374 0070 0AD0     		beq	.L19
 375              		.loc 2 153 0
 376 0072 019B     		ldr	r3, [sp, #4]
 377 0074 1846     		mov	r0, r3
 378 0076 FFF7FEFF 		bl	fifo_remove
 379 007a 0346     		mov	r3, r0
 380 007c 1846     		mov	r0, r3
 381 007e FFF7FEFF 		bl	chSchReadyI
 382 0082 0246     		mov	r2, r0
 383 0084 0023     		movs	r3, #0
 384 0086 9362     		str	r3, [r2, #40]
 385              	.L19:
 386              		.loc 2 155 0
 387 0088 0023     		movs	r3, #0
 388              	.L17:
 389              		.loc 2 156 0
 390 008a 1846     		mov	r0, r3
 391 008c 03B0     		add	sp, sp, #12
 392              		.cfi_def_cfa_offset 4
 393              		@ sp needed
 394 008e 5DF804FB 		ldr	pc, [sp], #4
ARM GAS  /tmp/cc6az2p5.s 			page 8


 395              		.cfi_endproc
 396              	.LFE10:
 397              		.size	chIQPutI, .-chIQPutI
 398 0092 00BFAFF3 		.section	.text.chIQGetTimeout,"ax",%progbits
 398      0080AFF3 
 398      0080AFF3 
 398      0080
 399              		.align	2
 400              		.p2align 4,,15
 401              		.global	chIQGetTimeout
 402              		.thumb
 403              		.thumb_func
 404              		.type	chIQGetTimeout, %function
 405              	chIQGetTimeout:
 406              	.LFB11:
 407              		.loc 2 178 0
 408              		.cfi_startproc
 409              		@ args = 0, pretend = 0, frame = 16
 410              		@ frame_needed = 0, uses_anonymous_args = 0
 411 0000 00B5     		push	{lr}
 412              		.cfi_def_cfa_offset 4
 413              		.cfi_offset 14, -4
 414 0002 85B0     		sub	sp, sp, #20
 415              		.cfi_def_cfa_offset 24
 416 0004 0190     		str	r0, [sp, #4]
 417 0006 0091     		str	r1, [sp]
 418              	.LBB2:
 419              		.loc 2 181 0
 420 0008 2023     		movs	r3, #32
 421              	@ 181 "/home/ergae/r2p-sdk/core/ChibiOS/os/kernel/src/chqueues.c" 1
 422 000a 83F31188 		msr     BASEPRI, r3
 423              	@ 0 "" 2
 424              		.thumb
 425              	.LBE2:
 426 000e FFF7FEFF 		bl	dbg_check_lock
 427              		.loc 2 182 0
 428 0012 019B     		ldr	r3, [sp, #4]
 429 0014 DB69     		ldr	r3, [r3, #28]
 430 0016 002B     		cmp	r3, #0
 431 0018 03D0     		beq	.L21
 432              		.loc 2 183 0
 433 001a 019B     		ldr	r3, [sp, #4]
 434 001c DB69     		ldr	r3, [r3, #28]
 435 001e 0198     		ldr	r0, [sp, #4]
 436 0020 9847     		blx	r3
 437              	.L21:
 438              		.loc 2 185 0
 439 0022 0EE0     		b	.L22
 440              	.L24:
 441              	.LBB3:
 442              		.loc 2 187 0
 443 0024 0198     		ldr	r0, [sp, #4]
 444 0026 0099     		ldr	r1, [sp]
 445 0028 FFF7FEFF 		bl	qwait
 446 002c 0390     		str	r0, [sp, #12]
 447 002e 039B     		ldr	r3, [sp, #12]
 448 0030 002B     		cmp	r3, #0
ARM GAS  /tmp/cc6az2p5.s 			page 9


 449 0032 06DA     		bge	.L22
 450              		.loc 2 188 0
 451 0034 FFF7FEFF 		bl	dbg_check_unlock
 452              	.LBB4:
 453 0038 0023     		movs	r3, #0
 454              	@ 188 "/home/ergae/r2p-sdk/core/ChibiOS/os/kernel/src/chqueues.c" 1
 455 003a 83F31188 		msr     BASEPRI, r3
 456              	@ 0 "" 2
 457              		.thumb
 458              	.LBE4:
 459              		.loc 2 189 0
 460 003e 039B     		ldr	r3, [sp, #12]
 461 0040 21E0     		b	.L23
 462              	.L22:
 463              	.LBE3:
 464              		.loc 2 185 0
 465 0042 019B     		ldr	r3, [sp, #4]
 466 0044 9B68     		ldr	r3, [r3, #8]
 467 0046 002B     		cmp	r3, #0
 468 0048 ECD0     		beq	.L24
 469              		.loc 2 193 0
 470 004a 019B     		ldr	r3, [sp, #4]
 471 004c 9B68     		ldr	r3, [r3, #8]
 472 004e 5A1E     		subs	r2, r3, #1
 473 0050 019B     		ldr	r3, [sp, #4]
 474 0052 9A60     		str	r2, [r3, #8]
 475              		.loc 2 194 0
 476 0054 019B     		ldr	r3, [sp, #4]
 477 0056 9B69     		ldr	r3, [r3, #24]
 478 0058 591C     		adds	r1, r3, #1
 479 005a 019A     		ldr	r2, [sp, #4]
 480 005c 9161     		str	r1, [r2, #24]
 481 005e 1B78     		ldrb	r3, [r3]
 482 0060 8DF80B30 		strb	r3, [sp, #11]
 483              		.loc 2 195 0
 484 0064 019B     		ldr	r3, [sp, #4]
 485 0066 9A69     		ldr	r2, [r3, #24]
 486 0068 019B     		ldr	r3, [sp, #4]
 487 006a 1B69     		ldr	r3, [r3, #16]
 488 006c 9A42     		cmp	r2, r3
 489 006e 03D3     		bcc	.L25
 490              		.loc 2 196 0
 491 0070 019B     		ldr	r3, [sp, #4]
 492 0072 DA68     		ldr	r2, [r3, #12]
 493 0074 019B     		ldr	r3, [sp, #4]
 494 0076 9A61     		str	r2, [r3, #24]
 495              	.L25:
 496              		.loc 2 198 0
 497 0078 FFF7FEFF 		bl	dbg_check_unlock
 498              	.LBB5:
 499 007c 0023     		movs	r3, #0
 500              	@ 198 "/home/ergae/r2p-sdk/core/ChibiOS/os/kernel/src/chqueues.c" 1
 501 007e 83F31188 		msr     BASEPRI, r3
 502              	@ 0 "" 2
 503              		.thumb
 504              	.LBE5:
 505              		.loc 2 199 0
ARM GAS  /tmp/cc6az2p5.s 			page 10


 506 0082 9DF80B30 		ldrb	r3, [sp, #11]	@ zero_extendqisi2
 507              	.L23:
 508              		.loc 2 200 0
 509 0086 1846     		mov	r0, r3
 510 0088 05B0     		add	sp, sp, #20
 511              		.cfi_def_cfa_offset 4
 512              		@ sp needed
 513 008a 5DF804FB 		ldr	pc, [sp], #4
 514              		.cfi_endproc
 515              	.LFE11:
 516              		.size	chIQGetTimeout, .-chIQGetTimeout
 517 008e 00BF     		.section	.rodata
 518              		.align	2
 519              	.LC0:
 520 0000 22636849 		.ascii	"\"chIQReadTimeout\"()\000"
 520      51526561 
 520      6454696D 
 520      656F7574 
 520      22282900 
 521              		.section	.text.chIQReadTimeout,"ax",%progbits
 522              		.align	2
 523              		.p2align 4,,15
 524              		.global	chIQReadTimeout
 525              		.thumb
 526              		.thumb_func
 527              		.type	chIQReadTimeout, %function
 528              	chIQReadTimeout:
 529              	.LFB12:
 530              		.loc 2 227 0
 531              		.cfi_startproc
 532              		@ args = 0, pretend = 0, frame = 24
 533              		@ frame_needed = 0, uses_anonymous_args = 0
 534 0000 00B5     		push	{lr}
 535              		.cfi_def_cfa_offset 4
 536              		.cfi_offset 14, -4
 537 0002 87B0     		sub	sp, sp, #28
 538              		.cfi_def_cfa_offset 32
 539 0004 0390     		str	r0, [sp, #12]
 540 0006 0291     		str	r1, [sp, #8]
 541 0008 0192     		str	r2, [sp, #4]
 542 000a 0093     		str	r3, [sp]
 543              		.loc 2 228 0
 544 000c 039B     		ldr	r3, [sp, #12]
 545 000e DB69     		ldr	r3, [r3, #28]
 546 0010 0493     		str	r3, [sp, #16]
 547              		.loc 2 229 0
 548 0012 0023     		movs	r3, #0
 549 0014 0593     		str	r3, [sp, #20]
 550              		.loc 2 231 0
 551 0016 019B     		ldr	r3, [sp, #4]
 552 0018 002B     		cmp	r3, #0
 553 001a 02D1     		bne	.L27
 554              		.loc 2 231 0 is_stmt 0 discriminator 1
 555 001c 2948     		ldr	r0, .L35
 556 001e FFF7FEFF 		bl	chDbgPanic
 557              	.L27:
 558              	.LBB6:
ARM GAS  /tmp/cc6az2p5.s 			page 11


 559              		.loc 2 233 0 is_stmt 1
 560 0022 2023     		movs	r3, #32
 561              	@ 233 "/home/ergae/r2p-sdk/core/ChibiOS/os/kernel/src/chqueues.c" 1
 562 0024 83F31188 		msr     BASEPRI, r3
 563              	@ 0 "" 2
 564              		.thumb
 565              	.LBE6:
 566 0028 FFF7FEFF 		bl	dbg_check_lock
 567              	.L34:
 568              		.loc 2 235 0
 569 002c 049B     		ldr	r3, [sp, #16]
 570 002e 002B     		cmp	r3, #0
 571 0030 02D0     		beq	.L28
 572              		.loc 2 236 0
 573 0032 049B     		ldr	r3, [sp, #16]
 574 0034 0398     		ldr	r0, [sp, #12]
 575 0036 9847     		blx	r3
 576              	.L28:
 577              		.loc 2 238 0
 578 0038 0DE0     		b	.L29
 579              	.L31:
 580              		.loc 2 239 0
 581 003a 0398     		ldr	r0, [sp, #12]
 582 003c 0099     		ldr	r1, [sp]
 583 003e FFF7FEFF 		bl	qwait
 584 0042 0346     		mov	r3, r0
 585 0044 002B     		cmp	r3, #0
 586 0046 06D0     		beq	.L29
 587              		.loc 2 240 0
 588 0048 FFF7FEFF 		bl	dbg_check_unlock
 589              	.LBB7:
 590 004c 0023     		movs	r3, #0
 591              	@ 240 "/home/ergae/r2p-sdk/core/ChibiOS/os/kernel/src/chqueues.c" 1
 592 004e 83F31188 		msr     BASEPRI, r3
 593              	@ 0 "" 2
 594              		.thumb
 595              	.LBE7:
 596              		.loc 2 241 0
 597 0052 059B     		ldr	r3, [sp, #20]
 598 0054 32E0     		b	.L30
 599              	.L29:
 600              		.loc 2 238 0
 601 0056 039B     		ldr	r3, [sp, #12]
 602 0058 9B68     		ldr	r3, [r3, #8]
 603 005a 002B     		cmp	r3, #0
 604 005c EDD0     		beq	.L31
 605              		.loc 2 245 0
 606 005e 039B     		ldr	r3, [sp, #12]
 607 0060 9B68     		ldr	r3, [r3, #8]
 608 0062 5A1E     		subs	r2, r3, #1
 609 0064 039B     		ldr	r3, [sp, #12]
 610 0066 9A60     		str	r2, [r3, #8]
 611              		.loc 2 246 0
 612 0068 029B     		ldr	r3, [sp, #8]
 613 006a 5A1C     		adds	r2, r3, #1
 614 006c 0292     		str	r2, [sp, #8]
 615 006e 039A     		ldr	r2, [sp, #12]
ARM GAS  /tmp/cc6az2p5.s 			page 12


 616 0070 9269     		ldr	r2, [r2, #24]
 617 0072 501C     		adds	r0, r2, #1
 618 0074 0399     		ldr	r1, [sp, #12]
 619 0076 8861     		str	r0, [r1, #24]
 620 0078 1278     		ldrb	r2, [r2]	@ zero_extendqisi2
 621 007a 1A70     		strb	r2, [r3]
 622              		.loc 2 247 0
 623 007c 039B     		ldr	r3, [sp, #12]
 624 007e 9A69     		ldr	r2, [r3, #24]
 625 0080 039B     		ldr	r3, [sp, #12]
 626 0082 1B69     		ldr	r3, [r3, #16]
 627 0084 9A42     		cmp	r2, r3
 628 0086 03D3     		bcc	.L32
 629              		.loc 2 248 0
 630 0088 039B     		ldr	r3, [sp, #12]
 631 008a DA68     		ldr	r2, [r3, #12]
 632 008c 039B     		ldr	r3, [sp, #12]
 633 008e 9A61     		str	r2, [r3, #24]
 634              	.L32:
 635              		.loc 2 250 0
 636 0090 FFF7FEFF 		bl	dbg_check_unlock
 637              	.LBB8:
 638 0094 0023     		movs	r3, #0
 639              	@ 250 "/home/ergae/r2p-sdk/core/ChibiOS/os/kernel/src/chqueues.c" 1
 640 0096 83F31188 		msr     BASEPRI, r3
 641              	@ 0 "" 2
 642              		.thumb
 643              	.LBE8:
 644              		.loc 2 251 0
 645 009a 059B     		ldr	r3, [sp, #20]
 646 009c 0133     		adds	r3, r3, #1
 647 009e 0593     		str	r3, [sp, #20]
 648              		.loc 2 252 0
 649 00a0 019B     		ldr	r3, [sp, #4]
 650 00a2 013B     		subs	r3, r3, #1
 651 00a4 0193     		str	r3, [sp, #4]
 652 00a6 019B     		ldr	r3, [sp, #4]
 653 00a8 002B     		cmp	r3, #0
 654 00aa 01D1     		bne	.L33
 655              		.loc 2 253 0
 656 00ac 059B     		ldr	r3, [sp, #20]
 657 00ae 05E0     		b	.L30
 658              	.L33:
 659              	.LBB9:
 660              		.loc 2 255 0
 661 00b0 2023     		movs	r3, #32
 662              	@ 255 "/home/ergae/r2p-sdk/core/ChibiOS/os/kernel/src/chqueues.c" 1
 663 00b2 83F31188 		msr     BASEPRI, r3
 664              	@ 0 "" 2
 665              		.thumb
 666              	.LBE9:
 667 00b6 FFF7FEFF 		bl	dbg_check_lock
 668              		.loc 2 256 0
 669 00ba B7E7     		b	.L34
 670              	.L30:
 671              		.loc 2 257 0
 672 00bc 1846     		mov	r0, r3
ARM GAS  /tmp/cc6az2p5.s 			page 13


 673 00be 07B0     		add	sp, sp, #28
 674              		.cfi_def_cfa_offset 4
 675              		@ sp needed
 676 00c0 5DF804FB 		ldr	pc, [sp], #4
 677              	.L36:
 678              		.align	2
 679              	.L35:
 680 00c4 00000000 		.word	.LC0
 681              		.cfi_endproc
 682              	.LFE12:
 683              		.size	chIQReadTimeout, .-chIQReadTimeout
 684 00c8 AFF30080 		.section	.text.chOQInit,"ax",%progbits
 684      AFF30080 
 685              		.align	2
 686              		.p2align 4,,15
 687              		.global	chOQInit
 688              		.thumb
 689              		.thumb_func
 690              		.type	chOQInit, %function
 691              	chOQInit:
 692              	.LFB13:
 693              		.loc 2 276 0
 694              		.cfi_startproc
 695              		@ args = 4, pretend = 0, frame = 16
 696              		@ frame_needed = 0, uses_anonymous_args = 0
 697              		@ link register save eliminated.
 698 0000 84B0     		sub	sp, sp, #16
 699              		.cfi_def_cfa_offset 16
 700 0002 0390     		str	r0, [sp, #12]
 701 0004 0291     		str	r1, [sp, #8]
 702 0006 0192     		str	r2, [sp, #4]
 703 0008 0093     		str	r3, [sp]
 704              		.loc 2 278 0
 705 000a 039A     		ldr	r2, [sp, #12]
 706 000c 039B     		ldr	r3, [sp, #12]
 707 000e 5A60     		str	r2, [r3, #4]
 708 0010 039B     		ldr	r3, [sp, #12]
 709 0012 5A68     		ldr	r2, [r3, #4]
 710 0014 039B     		ldr	r3, [sp, #12]
 711 0016 1A60     		str	r2, [r3]
 712              		.loc 2 279 0
 713 0018 039B     		ldr	r3, [sp, #12]
 714 001a 019A     		ldr	r2, [sp, #4]
 715 001c 9A60     		str	r2, [r3, #8]
 716              		.loc 2 280 0
 717 001e 039B     		ldr	r3, [sp, #12]
 718 0020 029A     		ldr	r2, [sp, #8]
 719 0022 5A61     		str	r2, [r3, #20]
 720 0024 039B     		ldr	r3, [sp, #12]
 721 0026 5A69     		ldr	r2, [r3, #20]
 722 0028 039B     		ldr	r3, [sp, #12]
 723 002a 9A61     		str	r2, [r3, #24]
 724 002c 039B     		ldr	r3, [sp, #12]
 725 002e 9A69     		ldr	r2, [r3, #24]
 726 0030 039B     		ldr	r3, [sp, #12]
 727 0032 DA60     		str	r2, [r3, #12]
 728              		.loc 2 281 0
ARM GAS  /tmp/cc6az2p5.s 			page 14


 729 0034 029A     		ldr	r2, [sp, #8]
 730 0036 019B     		ldr	r3, [sp, #4]
 731 0038 1A44     		add	r2, r2, r3
 732 003a 039B     		ldr	r3, [sp, #12]
 733 003c 1A61     		str	r2, [r3, #16]
 734              		.loc 2 282 0
 735 003e 039B     		ldr	r3, [sp, #12]
 736 0040 009A     		ldr	r2, [sp]
 737 0042 DA61     		str	r2, [r3, #28]
 738              		.loc 2 283 0
 739 0044 039B     		ldr	r3, [sp, #12]
 740 0046 049A     		ldr	r2, [sp, #16]
 741 0048 1A62     		str	r2, [r3, #32]
 742              		.loc 2 284 0
 743 004a 04B0     		add	sp, sp, #16
 744              		.cfi_def_cfa_offset 0
 745              		@ sp needed
 746 004c 7047     		bx	lr
 747              		.cfi_endproc
 748              	.LFE13:
 749              		.size	chOQInit, .-chOQInit
 750 004e 00BF     		.section	.text.chOQResetI,"ax",%progbits
 751              		.align	2
 752              		.p2align 4,,15
 753              		.global	chOQResetI
 754              		.thumb
 755              		.thumb_func
 756              		.type	chOQResetI, %function
 757              	chOQResetI:
 758              	.LFB14:
 759              		.loc 2 297 0
 760              		.cfi_startproc
 761              		@ args = 0, pretend = 0, frame = 8
 762              		@ frame_needed = 0, uses_anonymous_args = 0
 763 0000 00B5     		push	{lr}
 764              		.cfi_def_cfa_offset 4
 765              		.cfi_offset 14, -4
 766 0002 83B0     		sub	sp, sp, #12
 767              		.cfi_def_cfa_offset 16
 768 0004 0190     		str	r0, [sp, #4]
 769              		.loc 2 299 0
 770 0006 FFF7FEFF 		bl	chDbgCheckClassI
 771              		.loc 2 301 0
 772 000a 019B     		ldr	r3, [sp, #4]
 773 000c DA68     		ldr	r2, [r3, #12]
 774 000e 019B     		ldr	r3, [sp, #4]
 775 0010 5A61     		str	r2, [r3, #20]
 776 0012 019B     		ldr	r3, [sp, #4]
 777 0014 5A69     		ldr	r2, [r3, #20]
 778 0016 019B     		ldr	r3, [sp, #4]
 779 0018 9A61     		str	r2, [r3, #24]
 780              		.loc 2 302 0
 781 001a 019B     		ldr	r3, [sp, #4]
 782 001c 1B69     		ldr	r3, [r3, #16]
 783 001e 1A46     		mov	r2, r3
 784 0020 019B     		ldr	r3, [sp, #4]
 785 0022 DB68     		ldr	r3, [r3, #12]
ARM GAS  /tmp/cc6az2p5.s 			page 15


 786 0024 D31A     		subs	r3, r2, r3
 787 0026 1A46     		mov	r2, r3
 788 0028 019B     		ldr	r3, [sp, #4]
 789 002a 9A60     		str	r2, [r3, #8]
 790              		.loc 2 303 0
 791 002c 0BE0     		b	.L39
 792              	.L40:
 793              		.loc 2 304 0
 794 002e 019B     		ldr	r3, [sp, #4]
 795 0030 1846     		mov	r0, r3
 796 0032 FFF7FEFF 		bl	fifo_remove
 797 0036 0346     		mov	r3, r0
 798 0038 1846     		mov	r0, r3
 799 003a FFF7FEFF 		bl	chSchReadyI
 800 003e 0246     		mov	r2, r0
 801 0040 6FF00103 		mvn	r3, #1
 802 0044 9362     		str	r3, [r2, #40]
 803              	.L39:
 804              		.loc 2 303 0
 805 0046 019B     		ldr	r3, [sp, #4]
 806 0048 1A68     		ldr	r2, [r3]
 807 004a 019B     		ldr	r3, [sp, #4]
 808 004c 9A42     		cmp	r2, r3
 809 004e EED1     		bne	.L40
 810              		.loc 2 305 0
 811 0050 03B0     		add	sp, sp, #12
 812              		.cfi_def_cfa_offset 4
 813              		@ sp needed
 814 0052 5DF804FB 		ldr	pc, [sp], #4
 815              		.cfi_endproc
 816              	.LFE14:
 817              		.size	chOQResetI, .-chOQResetI
 818 0056 00BFAFF3 		.section	.text.chOQPutTimeout,"ax",%progbits
 818      0080AFF3 
 818      0080
 819              		.align	2
 820              		.p2align 4,,15
 821              		.global	chOQPutTimeout
 822              		.thumb
 823              		.thumb_func
 824              		.type	chOQPutTimeout, %function
 825              	chOQPutTimeout:
 826              	.LFB15:
 827              		.loc 2 329 0
 828              		.cfi_startproc
 829              		@ args = 0, pretend = 0, frame = 24
 830              		@ frame_needed = 0, uses_anonymous_args = 0
 831 0000 00B5     		push	{lr}
 832              		.cfi_def_cfa_offset 4
 833              		.cfi_offset 14, -4
 834 0002 87B0     		sub	sp, sp, #28
 835              		.cfi_def_cfa_offset 32
 836 0004 0390     		str	r0, [sp, #12]
 837 0006 0B46     		mov	r3, r1
 838 0008 0192     		str	r2, [sp, #4]
 839 000a 8DF80B30 		strb	r3, [sp, #11]
 840              	.LBB10:
ARM GAS  /tmp/cc6az2p5.s 			page 16


 841              		.loc 2 331 0
 842 000e 2023     		movs	r3, #32
 843              	@ 331 "/home/ergae/r2p-sdk/core/ChibiOS/os/kernel/src/chqueues.c" 1
 844 0010 83F31188 		msr     BASEPRI, r3
 845              	@ 0 "" 2
 846              		.thumb
 847              	.LBE10:
 848 0014 FFF7FEFF 		bl	dbg_check_lock
 849              		.loc 2 332 0
 850 0018 0EE0     		b	.L42
 851              	.L44:
 852              	.LBB11:
 853              		.loc 2 335 0
 854 001a 0398     		ldr	r0, [sp, #12]
 855 001c 0199     		ldr	r1, [sp, #4]
 856 001e FFF7FEFF 		bl	qwait
 857 0022 0590     		str	r0, [sp, #20]
 858 0024 059B     		ldr	r3, [sp, #20]
 859 0026 002B     		cmp	r3, #0
 860 0028 06DA     		bge	.L42
 861              		.loc 2 336 0
 862 002a FFF7FEFF 		bl	dbg_check_unlock
 863              	.LBB12:
 864 002e 0023     		movs	r3, #0
 865              	@ 336 "/home/ergae/r2p-sdk/core/ChibiOS/os/kernel/src/chqueues.c" 1
 866 0030 83F31188 		msr     BASEPRI, r3
 867              	@ 0 "" 2
 868              		.thumb
 869              	.LBE12:
 870              		.loc 2 337 0
 871 0034 059B     		ldr	r3, [sp, #20]
 872 0036 28E0     		b	.L43
 873              	.L42:
 874              	.LBE11:
 875              		.loc 2 332 0
 876 0038 039B     		ldr	r3, [sp, #12]
 877 003a 9B68     		ldr	r3, [r3, #8]
 878 003c 002B     		cmp	r3, #0
 879 003e ECD0     		beq	.L44
 880              		.loc 2 341 0
 881 0040 039B     		ldr	r3, [sp, #12]
 882 0042 9B68     		ldr	r3, [r3, #8]
 883 0044 5A1E     		subs	r2, r3, #1
 884 0046 039B     		ldr	r3, [sp, #12]
 885 0048 9A60     		str	r2, [r3, #8]
 886              		.loc 2 342 0
 887 004a 039B     		ldr	r3, [sp, #12]
 888 004c 5B69     		ldr	r3, [r3, #20]
 889 004e 591C     		adds	r1, r3, #1
 890 0050 039A     		ldr	r2, [sp, #12]
 891 0052 5161     		str	r1, [r2, #20]
 892 0054 9DF80B20 		ldrb	r2, [sp, #11]
 893 0058 1A70     		strb	r2, [r3]
 894              		.loc 2 343 0
 895 005a 039B     		ldr	r3, [sp, #12]
 896 005c 5A69     		ldr	r2, [r3, #20]
 897 005e 039B     		ldr	r3, [sp, #12]
ARM GAS  /tmp/cc6az2p5.s 			page 17


 898 0060 1B69     		ldr	r3, [r3, #16]
 899 0062 9A42     		cmp	r2, r3
 900 0064 03D3     		bcc	.L45
 901              		.loc 2 344 0
 902 0066 039B     		ldr	r3, [sp, #12]
 903 0068 DA68     		ldr	r2, [r3, #12]
 904 006a 039B     		ldr	r3, [sp, #12]
 905 006c 5A61     		str	r2, [r3, #20]
 906              	.L45:
 907              		.loc 2 346 0
 908 006e 039B     		ldr	r3, [sp, #12]
 909 0070 DB69     		ldr	r3, [r3, #28]
 910 0072 002B     		cmp	r3, #0
 911 0074 03D0     		beq	.L46
 912              		.loc 2 347 0
 913 0076 039B     		ldr	r3, [sp, #12]
 914 0078 DB69     		ldr	r3, [r3, #28]
 915 007a 0398     		ldr	r0, [sp, #12]
 916 007c 9847     		blx	r3
 917              	.L46:
 918              		.loc 2 349 0
 919 007e FFF7FEFF 		bl	dbg_check_unlock
 920              	.LBB13:
 921 0082 0023     		movs	r3, #0
 922              	@ 349 "/home/ergae/r2p-sdk/core/ChibiOS/os/kernel/src/chqueues.c" 1
 923 0084 83F31188 		msr     BASEPRI, r3
 924              	@ 0 "" 2
 925              		.thumb
 926              	.LBE13:
 927              		.loc 2 350 0
 928 0088 0023     		movs	r3, #0
 929              	.L43:
 930              		.loc 2 351 0
 931 008a 1846     		mov	r0, r3
 932 008c 07B0     		add	sp, sp, #28
 933              		.cfi_def_cfa_offset 4
 934              		@ sp needed
 935 008e 5DF804FB 		ldr	pc, [sp], #4
 936              		.cfi_endproc
 937              	.LFE15:
 938              		.size	chOQPutTimeout, .-chOQPutTimeout
 939 0092 00BFAFF3 		.section	.text.chOQGetI,"ax",%progbits
 939      0080AFF3 
 939      0080AFF3 
 939      0080
 940              		.align	2
 941              		.p2align 4,,15
 942              		.global	chOQGetI
 943              		.thumb
 944              		.thumb_func
 945              		.type	chOQGetI, %function
 946              	chOQGetI:
 947              	.LFB16:
 948              		.loc 2 363 0
 949              		.cfi_startproc
 950              		@ args = 0, pretend = 0, frame = 16
 951              		@ frame_needed = 0, uses_anonymous_args = 0
ARM GAS  /tmp/cc6az2p5.s 			page 18


 952 0000 00B5     		push	{lr}
 953              		.cfi_def_cfa_offset 4
 954              		.cfi_offset 14, -4
 955 0002 85B0     		sub	sp, sp, #20
 956              		.cfi_def_cfa_offset 24
 957 0004 0190     		str	r0, [sp, #4]
 958              		.loc 2 366 0
 959 0006 FFF7FEFF 		bl	chDbgCheckClassI
 960              		.loc 2 368 0
 961 000a 019B     		ldr	r3, [sp, #4]
 962 000c 5A69     		ldr	r2, [r3, #20]
 963 000e 019B     		ldr	r3, [sp, #4]
 964 0010 9B69     		ldr	r3, [r3, #24]
 965 0012 9A42     		cmp	r2, r3
 966 0014 05D1     		bne	.L48
 967              		.loc 2 368 0 is_stmt 0 discriminator 1
 968 0016 019B     		ldr	r3, [sp, #4]
 969 0018 9B68     		ldr	r3, [r3, #8]
 970 001a 002B     		cmp	r3, #0
 971 001c 01D0     		beq	.L48
 972              		.loc 2 368 0 discriminator 3
 973 001e 0123     		movs	r3, #1
 974 0020 00E0     		b	.L49
 975              	.L48:
 976              		.loc 2 368 0 discriminator 4
 977 0022 0023     		movs	r3, #0
 978              	.L49:
 979              		.loc 2 368 0 discriminator 6
 980 0024 03F00103 		and	r3, r3, #1
 981 0028 DBB2     		uxtb	r3, r3
 982 002a 002B     		cmp	r3, #0
 983 002c 02D0     		beq	.L50
 984              		.loc 2 369 0 is_stmt 1
 985 002e 6FF00203 		mvn	r3, #2
 986 0032 28E0     		b	.L51
 987              	.L50:
 988              		.loc 2 371 0
 989 0034 019B     		ldr	r3, [sp, #4]
 990 0036 9B68     		ldr	r3, [r3, #8]
 991 0038 5A1C     		adds	r2, r3, #1
 992 003a 019B     		ldr	r3, [sp, #4]
 993 003c 9A60     		str	r2, [r3, #8]
 994              		.loc 2 372 0
 995 003e 019B     		ldr	r3, [sp, #4]
 996 0040 9B69     		ldr	r3, [r3, #24]
 997 0042 591C     		adds	r1, r3, #1
 998 0044 019A     		ldr	r2, [sp, #4]
 999 0046 9161     		str	r1, [r2, #24]
 1000 0048 1B78     		ldrb	r3, [r3]
 1001 004a 8DF80F30 		strb	r3, [sp, #15]
 1002              		.loc 2 373 0
 1003 004e 019B     		ldr	r3, [sp, #4]
 1004 0050 9A69     		ldr	r2, [r3, #24]
 1005 0052 019B     		ldr	r3, [sp, #4]
 1006 0054 1B69     		ldr	r3, [r3, #16]
 1007 0056 9A42     		cmp	r2, r3
 1008 0058 03D3     		bcc	.L52
ARM GAS  /tmp/cc6az2p5.s 			page 19


 1009              		.loc 2 374 0
 1010 005a 019B     		ldr	r3, [sp, #4]
 1011 005c DA68     		ldr	r2, [r3, #12]
 1012 005e 019B     		ldr	r3, [sp, #4]
 1013 0060 9A61     		str	r2, [r3, #24]
 1014              	.L52:
 1015              		.loc 2 376 0
 1016 0062 019B     		ldr	r3, [sp, #4]
 1017 0064 1A68     		ldr	r2, [r3]
 1018 0066 019B     		ldr	r3, [sp, #4]
 1019 0068 9A42     		cmp	r2, r3
 1020 006a 0AD0     		beq	.L53
 1021              		.loc 2 377 0
 1022 006c 019B     		ldr	r3, [sp, #4]
 1023 006e 1846     		mov	r0, r3
 1024 0070 FFF7FEFF 		bl	fifo_remove
 1025 0074 0346     		mov	r3, r0
 1026 0076 1846     		mov	r0, r3
 1027 0078 FFF7FEFF 		bl	chSchReadyI
 1028 007c 0246     		mov	r2, r0
 1029 007e 0023     		movs	r3, #0
 1030 0080 9362     		str	r3, [r2, #40]
 1031              	.L53:
 1032              		.loc 2 379 0
 1033 0082 9DF80F30 		ldrb	r3, [sp, #15]	@ zero_extendqisi2
 1034              	.L51:
 1035              		.loc 2 380 0
 1036 0086 1846     		mov	r0, r3
 1037 0088 05B0     		add	sp, sp, #20
 1038              		.cfi_def_cfa_offset 4
 1039              		@ sp needed
 1040 008a 5DF804FB 		ldr	pc, [sp], #4
 1041              		.cfi_endproc
 1042              	.LFE16:
 1043              		.size	chOQGetI, .-chOQGetI
 1044 008e 00BF     		.section	.rodata
 1045              		.align	2
 1046              	.LC1:
 1047 0014 2263684F 		.ascii	"\"chOQWriteTimeout\"()\000"
 1047      51577269 
 1047      74655469 
 1047      6D656F75 
 1047      74222829 
 1048 0029 000000   		.section	.text.chOQWriteTimeout,"ax",%progbits
 1049              		.align	2
 1050              		.p2align 4,,15
 1051              		.global	chOQWriteTimeout
 1052              		.thumb
 1053              		.thumb_func
 1054              		.type	chOQWriteTimeout, %function
 1055              	chOQWriteTimeout:
 1056              	.LFB17:
 1057              		.loc 2 407 0
 1058              		.cfi_startproc
 1059              		@ args = 0, pretend = 0, frame = 24
 1060              		@ frame_needed = 0, uses_anonymous_args = 0
 1061 0000 00B5     		push	{lr}
ARM GAS  /tmp/cc6az2p5.s 			page 20


 1062              		.cfi_def_cfa_offset 4
 1063              		.cfi_offset 14, -4
 1064 0002 87B0     		sub	sp, sp, #28
 1065              		.cfi_def_cfa_offset 32
 1066 0004 0390     		str	r0, [sp, #12]
 1067 0006 0291     		str	r1, [sp, #8]
 1068 0008 0192     		str	r2, [sp, #4]
 1069 000a 0093     		str	r3, [sp]
 1070              		.loc 2 408 0
 1071 000c 039B     		ldr	r3, [sp, #12]
 1072 000e DB69     		ldr	r3, [r3, #28]
 1073 0010 0493     		str	r3, [sp, #16]
 1074              		.loc 2 409 0
 1075 0012 0023     		movs	r3, #0
 1076 0014 0593     		str	r3, [sp, #20]
 1077              		.loc 2 411 0
 1078 0016 019B     		ldr	r3, [sp, #4]
 1079 0018 002B     		cmp	r3, #0
 1080 001a 02D1     		bne	.L55
 1081              		.loc 2 411 0 is_stmt 0 discriminator 1
 1082 001c 2948     		ldr	r0, .L63
 1083 001e FFF7FEFF 		bl	chDbgPanic
 1084              	.L55:
 1085              	.LBB14:
 1086              		.loc 2 413 0 is_stmt 1
 1087 0022 2023     		movs	r3, #32
 1088              	@ 413 "/home/ergae/r2p-sdk/core/ChibiOS/os/kernel/src/chqueues.c" 1
 1089 0024 83F31188 		msr     BASEPRI, r3
 1090              	@ 0 "" 2
 1091              		.thumb
 1092              	.LBE14:
 1093 0028 FFF7FEFF 		bl	dbg_check_lock
 1094              	.L62:
 1095              		.loc 2 415 0
 1096 002c 0DE0     		b	.L56
 1097              	.L58:
 1098              		.loc 2 416 0
 1099 002e 0398     		ldr	r0, [sp, #12]
 1100 0030 0099     		ldr	r1, [sp]
 1101 0032 FFF7FEFF 		bl	qwait
 1102 0036 0346     		mov	r3, r0
 1103 0038 002B     		cmp	r3, #0
 1104 003a 06D0     		beq	.L56
 1105              		.loc 2 417 0
 1106 003c FFF7FEFF 		bl	dbg_check_unlock
 1107              	.LBB15:
 1108 0040 0023     		movs	r3, #0
 1109              	@ 417 "/home/ergae/r2p-sdk/core/ChibiOS/os/kernel/src/chqueues.c" 1
 1110 0042 83F31188 		msr     BASEPRI, r3
 1111              	@ 0 "" 2
 1112              		.thumb
 1113              	.LBE15:
 1114              		.loc 2 418 0
 1115 0046 059B     		ldr	r3, [sp, #20]
 1116 0048 38E0     		b	.L57
 1117              	.L56:
 1118              		.loc 2 415 0
ARM GAS  /tmp/cc6az2p5.s 			page 21


 1119 004a 039B     		ldr	r3, [sp, #12]
 1120 004c 9B68     		ldr	r3, [r3, #8]
 1121 004e 002B     		cmp	r3, #0
 1122 0050 EDD0     		beq	.L58
 1123              		.loc 2 421 0
 1124 0052 039B     		ldr	r3, [sp, #12]
 1125 0054 9B68     		ldr	r3, [r3, #8]
 1126 0056 5A1E     		subs	r2, r3, #1
 1127 0058 039B     		ldr	r3, [sp, #12]
 1128 005a 9A60     		str	r2, [r3, #8]
 1129              		.loc 2 422 0
 1130 005c 039B     		ldr	r3, [sp, #12]
 1131 005e 5B69     		ldr	r3, [r3, #20]
 1132 0060 591C     		adds	r1, r3, #1
 1133 0062 039A     		ldr	r2, [sp, #12]
 1134 0064 5161     		str	r1, [r2, #20]
 1135 0066 029A     		ldr	r2, [sp, #8]
 1136 0068 511C     		adds	r1, r2, #1
 1137 006a 0291     		str	r1, [sp, #8]
 1138 006c 1278     		ldrb	r2, [r2]	@ zero_extendqisi2
 1139 006e 1A70     		strb	r2, [r3]
 1140              		.loc 2 423 0
 1141 0070 039B     		ldr	r3, [sp, #12]
 1142 0072 5A69     		ldr	r2, [r3, #20]
 1143 0074 039B     		ldr	r3, [sp, #12]
 1144 0076 1B69     		ldr	r3, [r3, #16]
 1145 0078 9A42     		cmp	r2, r3
 1146 007a 03D3     		bcc	.L59
 1147              		.loc 2 424 0
 1148 007c 039B     		ldr	r3, [sp, #12]
 1149 007e DA68     		ldr	r2, [r3, #12]
 1150 0080 039B     		ldr	r3, [sp, #12]
 1151 0082 5A61     		str	r2, [r3, #20]
 1152              	.L59:
 1153              		.loc 2 426 0
 1154 0084 049B     		ldr	r3, [sp, #16]
 1155 0086 002B     		cmp	r3, #0
 1156 0088 02D0     		beq	.L60
 1157              		.loc 2 427 0
 1158 008a 049B     		ldr	r3, [sp, #16]
 1159 008c 0398     		ldr	r0, [sp, #12]
 1160 008e 9847     		blx	r3
 1161              	.L60:
 1162              		.loc 2 429 0
 1163 0090 FFF7FEFF 		bl	dbg_check_unlock
 1164              	.LBB16:
 1165 0094 0023     		movs	r3, #0
 1166              	@ 429 "/home/ergae/r2p-sdk/core/ChibiOS/os/kernel/src/chqueues.c" 1
 1167 0096 83F31188 		msr     BASEPRI, r3
 1168              	@ 0 "" 2
 1169              		.thumb
 1170              	.LBE16:
 1171              		.loc 2 430 0
 1172 009a 059B     		ldr	r3, [sp, #20]
 1173 009c 0133     		adds	r3, r3, #1
 1174 009e 0593     		str	r3, [sp, #20]
 1175              		.loc 2 431 0
ARM GAS  /tmp/cc6az2p5.s 			page 22


 1176 00a0 019B     		ldr	r3, [sp, #4]
 1177 00a2 013B     		subs	r3, r3, #1
 1178 00a4 0193     		str	r3, [sp, #4]
 1179 00a6 019B     		ldr	r3, [sp, #4]
 1180 00a8 002B     		cmp	r3, #0
 1181 00aa 01D1     		bne	.L61
 1182              		.loc 2 432 0
 1183 00ac 059B     		ldr	r3, [sp, #20]
 1184 00ae 05E0     		b	.L57
 1185              	.L61:
 1186              	.LBB17:
 1187              		.loc 2 433 0
 1188 00b0 2023     		movs	r3, #32
 1189              	@ 433 "/home/ergae/r2p-sdk/core/ChibiOS/os/kernel/src/chqueues.c" 1
 1190 00b2 83F31188 		msr     BASEPRI, r3
 1191              	@ 0 "" 2
 1192              		.thumb
 1193              	.LBE17:
 1194 00b6 FFF7FEFF 		bl	dbg_check_lock
 1195              		.loc 2 434 0
 1196 00ba B7E7     		b	.L62
 1197              	.L57:
 1198              		.loc 2 435 0
 1199 00bc 1846     		mov	r0, r3
 1200 00be 07B0     		add	sp, sp, #28
 1201              		.cfi_def_cfa_offset 4
 1202              		@ sp needed
 1203 00c0 5DF804FB 		ldr	pc, [sp], #4
 1204              	.L64:
 1205              		.align	2
 1206              	.L63:
 1207 00c4 14000000 		.word	.LC1
 1208              		.cfi_endproc
 1209              	.LFE17:
 1210              		.size	chOQWriteTimeout, .-chOQWriteTimeout
 1211 00c8 AFF30080 		.text
 1211      AFF30080 
 1212              	.Letext0:
 1213              		.file 3 "/home/ergae/r2p-sdk/tools/gcc-arm-none-eabi-4_9-2014q4/lib/gcc/arm-none-eabi/4.9.3/includ
 1214              		.file 4 "/home/ergae/r2p-sdk/tools/gcc-arm-none-eabi-4_9-2014q4/arm-none-eabi/include/machine/_def
 1215              		.file 5 "/home/ergae/r2p-sdk/tools/gcc-arm-none-eabi-4_9-2014q4/arm-none-eabi/include/stdint.h"
 1216              		.file 6 "/home/ergae/r2p-sdk/core/ChibiOS/os/ports/GCC/ARMCMx/chtypes.h"
 1217              		.file 7 "/home/ergae/r2p-sdk/core/ChibiOS/os/kernel/include/chlists.h"
 1218              		.file 8 "/home/ergae/r2p-sdk/core/ChibiOS/os/kernel/include/chthreads.h"
 1219              		.file 9 "/home/ergae/r2p-sdk/core/ChibiOS/os/ports/GCC/ARMCMx/chcore_v7m.h"
 1220              		.file 10 "/home/ergae/r2p-sdk/core/ChibiOS/os/kernel/include/chschd.h"
 1221              		.file 11 "/home/ergae/r2p-sdk/core/ChibiOS/os/kernel/include/chmtx.h"
 1222              		.file 12 "/home/ergae/r2p-sdk/core/ChibiOS/os/kernel/include/chqueues.h"