ARM GAS  /tmp/ccDmDJNA.s 			page 1


   1              		.syntax unified
   2              		.cpu cortex-m4
   3              		.eabi_attribute 27, 3
   4              		.eabi_attribute 28, 1
   5              		.fpu fpv4-sp-d16
   6              		.eabi_attribute 20, 1
   7              		.eabi_attribute 21, 1
   8              		.eabi_attribute 23, 3
   9              		.eabi_attribute 24, 1
  10              		.eabi_attribute 25, 1
  11              		.eabi_attribute 26, 1
  12              		.eabi_attribute 30, 6
  13              		.eabi_attribute 34, 1
  14              		.eabi_attribute 18, 4
  15              		.thumb
  16              		.file	"chregistry.c"
  17              		.text
  18              	.Ltext0:
  19              		.cfi_sections	.debug_frame
  20              		.global	ch_debug
  21              		.section	.rodata.ch_debug,"a",%progbits
  22              		.align	2
  23              		.type	ch_debug, %object
  24              		.size	ch_debug, 22
  25              	ch_debug:
  26 0000 6D61696E 		.ascii	"main"
  27 0004 00       		.byte	0
  28 0005 16       		.byte	22
  29 0006 8511     		.short	4485
  30 0008 04       		.byte	4
  31 0009 04       		.byte	4
  32 000a 4C       		.byte	76
  33 000b 08       		.byte	8
  34 000c 0C       		.byte	12
  35 000d 10       		.byte	16
  36 000e 14       		.byte	20
  37 000f 18       		.byte	24
  38 0010 1C       		.byte	28
  39 0011 20       		.byte	32
  40 0012 21       		.byte	33
  41 0013 22       		.byte	34
  42 0014 23       		.byte	35
  43 0015 24       		.byte	36
  44 0016 0000     		.section	.text.chRegFirstThread,"ax",%progbits
  45              		.align	2
  46              		.p2align 4,,15
  47              		.global	chRegFirstThread
  48              		.thumb
  49              		.thumb_func
  50              		.type	chRegFirstThread, %function
  51              	chRegFirstThread:
  52              	.LFB7:
  53              		.file 1 "/home/ergae/r2p-sdk/core/ChibiOS/os/kernel/src/chregistry.c"
  54              		.loc 1 117 0
  55              		.cfi_startproc
  56              		@ args = 0, pretend = 0, frame = 8
  57              		@ frame_needed = 0, uses_anonymous_args = 0
ARM GAS  /tmp/ccDmDJNA.s 			page 2


  58 0000 00B5     		push	{lr}
  59              		.cfi_def_cfa_offset 4
  60              		.cfi_offset 14, -4
  61 0002 83B0     		sub	sp, sp, #12
  62              		.cfi_def_cfa_offset 16
  63              	.LBB2:
  64              		.loc 1 120 0
  65 0004 2023     		movs	r3, #32
  66              	@ 120 "/home/ergae/r2p-sdk/core/ChibiOS/os/kernel/src/chregistry.c" 1
  67 0006 83F31188 		msr     BASEPRI, r3
  68              	@ 0 "" 2
  69              		.thumb
  70              	.LBE2:
  71 000a FFF7FEFF 		bl	dbg_check_lock
  72              		.loc 1 121 0
  73 000e 0A4B     		ldr	r3, .L3
  74 0010 1B69     		ldr	r3, [r3, #16]
  75 0012 0193     		str	r3, [sp, #4]
  76              		.loc 1 123 0
  77 0014 019B     		ldr	r3, [sp, #4]
  78 0016 93F82230 		ldrb	r3, [r3, #34]	@ zero_extendqisi2
  79 001a 0133     		adds	r3, r3, #1
  80 001c DAB2     		uxtb	r2, r3
  81 001e 019B     		ldr	r3, [sp, #4]
  82 0020 83F82220 		strb	r2, [r3, #34]
  83              		.loc 1 125 0
  84 0024 FFF7FEFF 		bl	dbg_check_unlock
  85              	.LBB3:
  86 0028 0023     		movs	r3, #0
  87              	@ 125 "/home/ergae/r2p-sdk/core/ChibiOS/os/kernel/src/chregistry.c" 1
  88 002a 83F31188 		msr     BASEPRI, r3
  89              	@ 0 "" 2
  90              		.thumb
  91              	.LBE3:
  92              		.loc 1 126 0
  93 002e 019B     		ldr	r3, [sp, #4]
  94              		.loc 1 127 0
  95 0030 1846     		mov	r0, r3
  96 0032 03B0     		add	sp, sp, #12
  97              		.cfi_def_cfa_offset 4
  98              		@ sp needed
  99 0034 5DF804FB 		ldr	pc, [sp], #4
 100              	.L4:
 101              		.align	2
 102              	.L3:
 103 0038 00000000 		.word	rlist
 104              		.cfi_endproc
 105              	.LFE7:
 106              		.size	chRegFirstThread, .-chRegFirstThread
 107 003c AFF30080 		.section	.rodata
 108              		.align	2
 109              	.LC0:
 110 0000 63685265 		.ascii	"chRegNextThread(), #1\000"
 110      674E6578 
 110      74546872 
 110      65616428 
 110      292C2023 
ARM GAS  /tmp/ccDmDJNA.s 			page 3


 111 0016 0000     		.section	.text.chRegNextThread,"ax",%progbits
 112              		.align	2
 113              		.p2align 4,,15
 114              		.global	chRegNextThread
 115              		.thumb
 116              		.thumb_func
 117              		.type	chRegNextThread, %function
 118              	chRegNextThread:
 119              	.LFB8:
 120              		.loc 1 140 0
 121              		.cfi_startproc
 122              		@ args = 0, pretend = 0, frame = 16
 123              		@ frame_needed = 0, uses_anonymous_args = 0
 124 0000 00B5     		push	{lr}
 125              		.cfi_def_cfa_offset 4
 126              		.cfi_offset 14, -4
 127 0002 85B0     		sub	sp, sp, #20
 128              		.cfi_def_cfa_offset 24
 129 0004 0190     		str	r0, [sp, #4]
 130              	.LBB4:
 131              		.loc 1 143 0
 132 0006 2023     		movs	r3, #32
 133              	@ 143 "/home/ergae/r2p-sdk/core/ChibiOS/os/kernel/src/chregistry.c" 1
 134 0008 83F31188 		msr     BASEPRI, r3
 135              	@ 0 "" 2
 136              		.thumb
 137              	.LBE4:
 138 000c FFF7FEFF 		bl	dbg_check_lock
 139              		.loc 1 144 0
 140 0010 019B     		ldr	r3, [sp, #4]
 141 0012 1B69     		ldr	r3, [r3, #16]
 142 0014 0393     		str	r3, [sp, #12]
 143              		.loc 1 145 0
 144 0016 039B     		ldr	r3, [sp, #12]
 145 0018 114A     		ldr	r2, .L10
 146 001a 9342     		cmp	r3, r2
 147 001c 02D1     		bne	.L6
 148              		.loc 1 146 0
 149 001e 0023     		movs	r3, #0
 150 0020 0393     		str	r3, [sp, #12]
 151 0022 0FE0     		b	.L7
 152              	.L6:
 153              		.loc 1 149 0
 154 0024 039B     		ldr	r3, [sp, #12]
 155 0026 93F82230 		ldrb	r3, [r3, #34]	@ zero_extendqisi2
 156 002a FF2B     		cmp	r3, #255
 157 002c 02D1     		bne	.L8
 158              		.loc 1 149 0 is_stmt 0 discriminator 1
 159 002e 0D48     		ldr	r0, .L10+4
 160 0030 FFF7FEFF 		bl	chDbgPanic
 161              	.L8:
 162              		.loc 1 151 0 is_stmt 1
 163 0034 039B     		ldr	r3, [sp, #12]
 164 0036 93F82230 		ldrb	r3, [r3, #34]	@ zero_extendqisi2
 165 003a 0133     		adds	r3, r3, #1
 166 003c DAB2     		uxtb	r2, r3
 167 003e 039B     		ldr	r3, [sp, #12]
ARM GAS  /tmp/ccDmDJNA.s 			page 4


 168 0040 83F82220 		strb	r2, [r3, #34]
 169              	.L7:
 170              		.loc 1 154 0
 171 0044 FFF7FEFF 		bl	dbg_check_unlock
 172              	.LBB5:
 173 0048 0023     		movs	r3, #0
 174              	@ 154 "/home/ergae/r2p-sdk/core/ChibiOS/os/kernel/src/chregistry.c" 1
 175 004a 83F31188 		msr     BASEPRI, r3
 176              	@ 0 "" 2
 177              		.thumb
 178              	.LBE5:
 179              		.loc 1 156 0
 180 004e 0198     		ldr	r0, [sp, #4]
 181 0050 FFF7FEFF 		bl	chThdRelease
 182              		.loc 1 158 0
 183 0054 039B     		ldr	r3, [sp, #12]
 184              		.loc 1 159 0
 185 0056 1846     		mov	r0, r3
 186 0058 05B0     		add	sp, sp, #20
 187              		.cfi_def_cfa_offset 4
 188              		@ sp needed
 189 005a 5DF804FB 		ldr	pc, [sp], #4
 190              	.L11:
 191 005e 00BF     		.align	2
 192              	.L10:
 193 0060 00000000 		.word	rlist
 194 0064 00000000 		.word	.LC0
 195              		.cfi_endproc
 196              	.LFE8:
 197              		.size	chRegNextThread, .-chRegNextThread
 198 0068 AFF30080 		.text
 198      AFF30080 
 199              	.Letext0:
 200              		.file 2 "/home/ergae/r2p-sdk/tools/gcc-arm-none-eabi-4_9-2014q4/lib/gcc/arm-none-eabi/4.9.3/includ
 201              		.file 3 "/home/ergae/r2p-sdk/tools/gcc-arm-none-eabi-4_9-2014q4/arm-none-eabi/include/machine/_def
 202              		.file 4 "/home/ergae/r2p-sdk/tools/gcc-arm-none-eabi-4_9-2014q4/arm-none-eabi/include/stdint.h"
 203              		.file 5 "/home/ergae/r2p-sdk/core/ChibiOS/os/ports/GCC/ARMCMx/chtypes.h"
 204              		.file 6 "/home/ergae/r2p-sdk/core/ChibiOS/os/kernel/include/chlists.h"
 205              		.file 7 "/home/ergae/r2p-sdk/core/ChibiOS/os/kernel/include/chthreads.h"
 206              		.file 8 "/home/ergae/r2p-sdk/core/ChibiOS/os/ports/GCC/ARMCMx/chcore_v7m.h"
 207              		.file 9 "/home/ergae/r2p-sdk/core/ChibiOS/os/kernel/include/chschd.h"
 208              		.file 10 "/home/ergae/r2p-sdk/core/ChibiOS/os/kernel/include/chmtx.h"
 209              		.file 11 "/home/ergae/r2p-sdk/core/ChibiOS/os/kernel/include/chregistry.h"
 210              		.section	.debug_info,"",%progbits
 211              	.Ldebug_info0:
 212 0000 01070000 		.4byte	0x701
 213 0004 0400     		.2byte	0x4
 214 0006 00000000 		.4byte	.Ldebug_abbrev0
 215 000a 04       		.byte	0x4
 216 000b 01       		.uleb128 0x1
 217 000c E7030000 		.4byte	.LASF96
 218 0010 01       		.byte	0x1
 219 0011 B4010000 		.4byte	.LASF97
 220 0015 00000000 		.4byte	.Ldebug_ranges0+0
 221 0019 00000000 		.4byte	0
 222 001d 00000000 		.4byte	.Ldebug_line0
 223 0021 02       		.uleb128 0x2
ARM GAS  /tmp/ccDmDJNA.s 			page 5


 224 0022 04       		.byte	0x4
 225 0023 05       		.byte	0x5
 226 0024 696E7400 		.ascii	"int\000"
 227 0028 03       		.uleb128 0x3
 228 0029 13000000 		.4byte	.LASF2
 229 002d 02       		.byte	0x2
 230 002e D4       		.byte	0xd4
 231 002f 33000000 		.4byte	0x33
 232 0033 04       		.uleb128 0x4
 233 0034 04       		.byte	0x4
 234 0035 07       		.byte	0x7
 235 0036 24010000 		.4byte	.LASF0
 236 003a 04       		.uleb128 0x4
 237 003b 01       		.byte	0x1
 238 003c 06       		.byte	0x6
 239 003d 8C000000 		.4byte	.LASF1
 240 0041 03       		.uleb128 0x3
 241 0042 2A000000 		.4byte	.LASF3
 242 0046 03       		.byte	0x3
 243 0047 1D       		.byte	0x1d
 244 0048 4C000000 		.4byte	0x4c
 245 004c 04       		.uleb128 0x4
 246 004d 01       		.byte	0x1
 247 004e 08       		.byte	0x8
 248 004f 95020000 		.4byte	.LASF4
 249 0053 04       		.uleb128 0x4
 250 0054 02       		.byte	0x2
 251 0055 05       		.byte	0x5
 252 0056 AD020000 		.4byte	.LASF5
 253 005a 03       		.uleb128 0x3
 254 005b 52030000 		.4byte	.LASF6
 255 005f 03       		.byte	0x3
 256 0060 2B       		.byte	0x2b
 257 0061 65000000 		.4byte	0x65
 258 0065 04       		.uleb128 0x4
 259 0066 02       		.byte	0x2
 260 0067 07       		.byte	0x7
 261 0068 62010000 		.4byte	.LASF7
 262 006c 03       		.uleb128 0x3
 263 006d 79030000 		.4byte	.LASF8
 264 0071 03       		.byte	0x3
 265 0072 3F       		.byte	0x3f
 266 0073 77000000 		.4byte	0x77
 267 0077 04       		.uleb128 0x4
 268 0078 04       		.byte	0x4
 269 0079 05       		.byte	0x5
 270 007a CF000000 		.4byte	.LASF9
 271 007e 03       		.uleb128 0x3
 272 007f 05010000 		.4byte	.LASF10
 273 0083 03       		.byte	0x3
 274 0084 41       		.byte	0x41
 275 0085 89000000 		.4byte	0x89
 276 0089 04       		.uleb128 0x4
 277 008a 04       		.byte	0x4
 278 008b 07       		.byte	0x7
 279 008c 31010000 		.4byte	.LASF11
 280 0090 04       		.uleb128 0x4
ARM GAS  /tmp/ccDmDJNA.s 			page 6


 281 0091 08       		.byte	0x8
 282 0092 05       		.byte	0x5
 283 0093 7E000000 		.4byte	.LASF12
 284 0097 03       		.uleb128 0x3
 285 0098 5A020000 		.4byte	.LASF13
 286 009c 03       		.byte	0x3
 287 009d 5B       		.byte	0x5b
 288 009e A2000000 		.4byte	0xa2
 289 00a2 04       		.uleb128 0x4
 290 00a3 08       		.byte	0x8
 291 00a4 07       		.byte	0x7
 292 00a5 42000000 		.4byte	.LASF14
 293 00a9 03       		.uleb128 0x3
 294 00aa BE030000 		.4byte	.LASF15
 295 00ae 04       		.byte	0x4
 296 00af 15       		.byte	0x15
 297 00b0 41000000 		.4byte	0x41
 298 00b4 03       		.uleb128 0x3
 299 00b5 E1000000 		.4byte	.LASF16
 300 00b9 04       		.byte	0x4
 301 00ba 21       		.byte	0x21
 302 00bb 5A000000 		.4byte	0x5a
 303 00bf 03       		.uleb128 0x3
 304 00c0 8D020000 		.4byte	.LASF17
 305 00c4 04       		.byte	0x4
 306 00c5 2C       		.byte	0x2c
 307 00c6 6C000000 		.4byte	0x6c
 308 00ca 03       		.uleb128 0x3
 309 00cb 20030000 		.4byte	.LASF18
 310 00cf 04       		.byte	0x4
 311 00d0 2D       		.byte	0x2d
 312 00d1 7E000000 		.4byte	0x7e
 313 00d5 03       		.uleb128 0x3
 314 00d6 21000000 		.4byte	.LASF19
 315 00da 04       		.byte	0x4
 316 00db 39       		.byte	0x39
 317 00dc 97000000 		.4byte	0x97
 318 00e0 04       		.uleb128 0x4
 319 00e1 01       		.byte	0x1
 320 00e2 02       		.byte	0x2
 321 00e3 87020000 		.4byte	.LASF20
 322 00e7 03       		.uleb128 0x3
 323 00e8 83010000 		.4byte	.LASF21
 324 00ec 05       		.byte	0x5
 325 00ed 2C       		.byte	0x2c
 326 00ee A9000000 		.4byte	0xa9
 327 00f2 03       		.uleb128 0x3
 328 00f3 D8000000 		.4byte	.LASF22
 329 00f7 05       		.byte	0x5
 330 00f8 2D       		.byte	0x2d
 331 00f9 A9000000 		.4byte	0xa9
 332 00fd 03       		.uleb128 0x3
 333 00fe 65020000 		.4byte	.LASF23
 334 0102 05       		.byte	0x5
 335 0103 2E       		.byte	0x2e
 336 0104 A9000000 		.4byte	0xa9
 337 0108 03       		.uleb128 0x3
ARM GAS  /tmp/ccDmDJNA.s 			page 7


 338 0109 C5000000 		.4byte	.LASF24
 339 010d 05       		.byte	0x5
 340 010e 2F       		.byte	0x2f
 341 010f A9000000 		.4byte	0xa9
 342 0113 03       		.uleb128 0x3
 343 0114 7F020000 		.4byte	.LASF25
 344 0118 05       		.byte	0x5
 345 0119 30       		.byte	0x30
 346 011a CA000000 		.4byte	0xca
 347 011e 03       		.uleb128 0x3
 348 011f 75010000 		.4byte	.LASF26
 349 0123 05       		.byte	0x5
 350 0124 31       		.byte	0x31
 351 0125 BF000000 		.4byte	0xbf
 352 0129 03       		.uleb128 0x3
 353 012a 97010000 		.4byte	.LASF27
 354 012e 05       		.byte	0x5
 355 012f 33       		.byte	0x33
 356 0130 CA000000 		.4byte	0xca
 357 0134 03       		.uleb128 0x3
 358 0135 64030000 		.4byte	.LASF28
 359 0139 05       		.byte	0x5
 360 013a 35       		.byte	0x35
 361 013b CA000000 		.4byte	0xca
 362 013f 03       		.uleb128 0x3
 363 0140 01030000 		.4byte	.LASF29
 364 0144 06       		.byte	0x6
 365 0145 2A       		.byte	0x2a
 366 0146 4A010000 		.4byte	0x14a
 367 014a 05       		.uleb128 0x5
 368 014b 01030000 		.4byte	.LASF29
 369 014f 4C       		.byte	0x4c
 370 0150 07       		.byte	0x7
 371 0151 5E       		.byte	0x5e
 372 0152 53020000 		.4byte	0x253
 373 0156 06       		.uleb128 0x6
 374 0157 E3020000 		.4byte	.LASF30
 375 015b 07       		.byte	0x7
 376 015c 5F       		.byte	0x5f
 377 015d 74020000 		.4byte	0x274
 378 0161 00       		.byte	0
 379 0162 06       		.uleb128 0x6
 380 0163 78020000 		.4byte	.LASF31
 381 0167 07       		.byte	0x7
 382 0168 61       		.byte	0x61
 383 0169 74020000 		.4byte	0x274
 384 016d 04       		.byte	0x4
 385 016e 06       		.uleb128 0x6
 386 016f 6A000000 		.4byte	.LASF32
 387 0173 07       		.byte	0x7
 388 0174 63       		.byte	0x63
 389 0175 13010000 		.4byte	0x113
 390 0179 08       		.byte	0x8
 391 017a 06       		.uleb128 0x6
 392 017b 00050000 		.4byte	.LASF33
 393 017f 07       		.byte	0x7
 394 0180 64       		.byte	0x64
ARM GAS  /tmp/ccDmDJNA.s 			page 8


 395 0181 09040000 		.4byte	0x409
 396 0185 0C       		.byte	0xc
 397 0186 06       		.uleb128 0x6
 398 0187 F4000000 		.4byte	.LASF34
 399 018b 07       		.byte	0x7
 400 018c 66       		.byte	0x66
 401 018d 74020000 		.4byte	0x274
 402 0191 10       		.byte	0x10
 403 0192 06       		.uleb128 0x6
 404 0193 25020000 		.4byte	.LASF35
 405 0197 07       		.byte	0x7
 406 0198 67       		.byte	0x67
 407 0199 74020000 		.4byte	0x274
 408 019d 14       		.byte	0x14
 409 019e 06       		.uleb128 0x6
 410 019f CD030000 		.4byte	.LASF36
 411 01a3 07       		.byte	0x7
 412 01a4 6E       		.byte	0x6e
 413 01a5 09050000 		.4byte	0x509
 414 01a9 18       		.byte	0x18
 415 01aa 06       		.uleb128 0x6
 416 01ab 19010000 		.4byte	.LASF37
 417 01af 07       		.byte	0x7
 418 01b0 74       		.byte	0x74
 419 01b1 1B050000 		.4byte	0x51b
 420 01b5 1C       		.byte	0x1c
 421 01b6 06       		.uleb128 0x6
 422 01b7 B7020000 		.4byte	.LASF38
 423 01bb 07       		.byte	0x7
 424 01bc 79       		.byte	0x79
 425 01bd F2000000 		.4byte	0xf2
 426 01c1 20       		.byte	0x20
 427 01c2 06       		.uleb128 0x6
 428 01c3 F9020000 		.4byte	.LASF39
 429 01c7 07       		.byte	0x7
 430 01c8 7D       		.byte	0x7d
 431 01c9 E7000000 		.4byte	0xe7
 432 01cd 21       		.byte	0x21
 433 01ce 06       		.uleb128 0x6
 434 01cf A7030000 		.4byte	.LASF40
 435 01d3 07       		.byte	0x7
 436 01d4 82       		.byte	0x82
 437 01d5 FD000000 		.4byte	0xfd
 438 01d9 22       		.byte	0x22
 439 01da 06       		.uleb128 0x6
 440 01db BF020000 		.4byte	.LASF41
 441 01df 07       		.byte	0x7
 442 01e0 88       		.byte	0x88
 443 01e1 08010000 		.4byte	0x108
 444 01e5 23       		.byte	0x23
 445 01e6 06       		.uleb128 0x6
 446 01e7 83030000 		.4byte	.LASF42
 447 01eb 07       		.byte	0x7
 448 01ec 8F       		.byte	0x8f
 449 01ed 31040000 		.4byte	0x431
 450 01f1 24       		.byte	0x24
 451 01f2 07       		.uleb128 0x7
ARM GAS  /tmp/ccDmDJNA.s 			page 9


 452 01f3 705F7500 		.ascii	"p_u\000"
 453 01f7 07       		.byte	0x7
 454 01f8 B4       		.byte	0xb4
 455 01f9 D4040000 		.4byte	0x4d4
 456 01fd 28       		.byte	0x28
 457 01fe 06       		.uleb128 0x6
 458 01ff 06050000 		.4byte	.LASF43
 459 0203 07       		.byte	0x7
 460 0204 B9       		.byte	0xb9
 461 0205 9A020000 		.4byte	0x29a
 462 0209 2C       		.byte	0x2c
 463 020a 06       		.uleb128 0x6
 464 020b 91030000 		.4byte	.LASF44
 465 020f 07       		.byte	0x7
 466 0210 BF       		.byte	0xbf
 467 0211 7A020000 		.4byte	0x27a
 468 0215 30       		.byte	0x30
 469 0216 06       		.uleb128 0x6
 470 0217 0D000000 		.4byte	.LASF45
 471 021b 07       		.byte	0x7
 472 021c C3       		.byte	0xc3
 473 021d 1E010000 		.4byte	0x11e
 474 0221 38       		.byte	0x38
 475 0222 06       		.uleb128 0x6
 476 0223 15030000 		.4byte	.LASF46
 477 0227 07       		.byte	0x7
 478 0228 C9       		.byte	0xc9
 479 0229 29010000 		.4byte	0x129
 480 022d 3C       		.byte	0x3c
 481 022e 06       		.uleb128 0x6
 482 022f A3020000 		.4byte	.LASF47
 483 0233 07       		.byte	0x7
 484 0234 D0       		.byte	0xd0
 485 0235 21050000 		.4byte	0x521
 486 0239 40       		.byte	0x40
 487 023a 06       		.uleb128 0x6
 488 023b 6E030000 		.4byte	.LASF48
 489 023f 07       		.byte	0x7
 490 0240 D4       		.byte	0xd4
 491 0241 13010000 		.4byte	0x113
 492 0245 44       		.byte	0x44
 493 0246 06       		.uleb128 0x6
 494 0247 B5000000 		.4byte	.LASF49
 495 024b 07       		.byte	0x7
 496 024c DA       		.byte	0xda
 497 024d B0020000 		.4byte	0x2b0
 498 0251 48       		.byte	0x48
 499 0252 00       		.byte	0
 500 0253 08       		.uleb128 0x8
 501 0254 08       		.byte	0x8
 502 0255 06       		.byte	0x6
 503 0256 61       		.byte	0x61
 504 0257 74020000 		.4byte	0x274
 505 025b 06       		.uleb128 0x6
 506 025c E3020000 		.4byte	.LASF30
 507 0260 06       		.byte	0x6
 508 0261 62       		.byte	0x62
ARM GAS  /tmp/ccDmDJNA.s 			page 10


 509 0262 74020000 		.4byte	0x274
 510 0266 00       		.byte	0
 511 0267 06       		.uleb128 0x6
 512 0268 78020000 		.4byte	.LASF31
 513 026c 06       		.byte	0x6
 514 026d 64       		.byte	0x64
 515 026e 74020000 		.4byte	0x274
 516 0272 04       		.byte	0x4
 517 0273 00       		.byte	0
 518 0274 09       		.uleb128 0x9
 519 0275 04       		.byte	0x4
 520 0276 3F010000 		.4byte	0x13f
 521 027a 03       		.uleb128 0x3
 522 027b 33020000 		.4byte	.LASF50
 523 027f 06       		.byte	0x6
 524 0280 66       		.byte	0x66
 525 0281 53020000 		.4byte	0x253
 526 0285 08       		.uleb128 0x8
 527 0286 04       		.byte	0x4
 528 0287 06       		.byte	0x6
 529 0288 6B       		.byte	0x6b
 530 0289 9A020000 		.4byte	0x29a
 531 028d 06       		.uleb128 0x6
 532 028e E3020000 		.4byte	.LASF30
 533 0292 06       		.byte	0x6
 534 0293 6D       		.byte	0x6d
 535 0294 74020000 		.4byte	0x274
 536 0298 00       		.byte	0
 537 0299 00       		.byte	0
 538 029a 03       		.uleb128 0x3
 539 029b 8B010000 		.4byte	.LASF51
 540 029f 06       		.byte	0x6
 541 02a0 70       		.byte	0x70
 542 02a1 85020000 		.4byte	0x285
 543 02a5 03       		.uleb128 0x3
 544 02a6 10010000 		.4byte	.LASF52
 545 02aa 08       		.byte	0x8
 546 02ab E5       		.byte	0xe5
 547 02ac B0020000 		.4byte	0x2b0
 548 02b0 0A       		.uleb128 0xa
 549 02b1 04       		.byte	0x4
 550 02b2 03       		.uleb128 0x3
 551 02b3 A9010000 		.4byte	.LASF53
 552 02b7 08       		.byte	0x8
 553 02b8 EB       		.byte	0xeb
 554 02b9 D5000000 		.4byte	0xd5
 555 02bd 0B       		.uleb128 0xb
 556 02be 8A030000 		.4byte	.LASF54
 557 02c2 64       		.byte	0x64
 558 02c3 08       		.byte	0x8
 559 02c4 0C01     		.2byte	0x10c
 560 02c6 09040000 		.4byte	0x409
 561 02ca 0C       		.uleb128 0xc
 562 02cb 73313600 		.ascii	"s16\000"
 563 02cf 08       		.byte	0x8
 564 02d0 0E01     		.2byte	0x10e
 565 02d2 A5020000 		.4byte	0x2a5
ARM GAS  /tmp/ccDmDJNA.s 			page 11


 566 02d6 00       		.byte	0
 567 02d7 0C       		.uleb128 0xc
 568 02d8 73313700 		.ascii	"s17\000"
 569 02dc 08       		.byte	0x8
 570 02dd 0F01     		.2byte	0x10f
 571 02df A5020000 		.4byte	0x2a5
 572 02e3 04       		.byte	0x4
 573 02e4 0C       		.uleb128 0xc
 574 02e5 73313800 		.ascii	"s18\000"
 575 02e9 08       		.byte	0x8
 576 02ea 1001     		.2byte	0x110
 577 02ec A5020000 		.4byte	0x2a5
 578 02f0 08       		.byte	0x8
 579 02f1 0C       		.uleb128 0xc
 580 02f2 73313900 		.ascii	"s19\000"
 581 02f6 08       		.byte	0x8
 582 02f7 1101     		.2byte	0x111
 583 02f9 A5020000 		.4byte	0x2a5
 584 02fd 0C       		.byte	0xc
 585 02fe 0C       		.uleb128 0xc
 586 02ff 73323000 		.ascii	"s20\000"
 587 0303 08       		.byte	0x8
 588 0304 1201     		.2byte	0x112
 589 0306 A5020000 		.4byte	0x2a5
 590 030a 10       		.byte	0x10
 591 030b 0C       		.uleb128 0xc
 592 030c 73323100 		.ascii	"s21\000"
 593 0310 08       		.byte	0x8
 594 0311 1301     		.2byte	0x113
 595 0313 A5020000 		.4byte	0x2a5
 596 0317 14       		.byte	0x14
 597 0318 0C       		.uleb128 0xc
 598 0319 73323200 		.ascii	"s22\000"
 599 031d 08       		.byte	0x8
 600 031e 1401     		.2byte	0x114
 601 0320 A5020000 		.4byte	0x2a5
 602 0324 18       		.byte	0x18
 603 0325 0C       		.uleb128 0xc
 604 0326 73323300 		.ascii	"s23\000"
 605 032a 08       		.byte	0x8
 606 032b 1501     		.2byte	0x115
 607 032d A5020000 		.4byte	0x2a5
 608 0331 1C       		.byte	0x1c
 609 0332 0C       		.uleb128 0xc
 610 0333 73323400 		.ascii	"s24\000"
 611 0337 08       		.byte	0x8
 612 0338 1601     		.2byte	0x116
 613 033a A5020000 		.4byte	0x2a5
 614 033e 20       		.byte	0x20
 615 033f 0C       		.uleb128 0xc
 616 0340 73323500 		.ascii	"s25\000"
 617 0344 08       		.byte	0x8
 618 0345 1701     		.2byte	0x117
 619 0347 A5020000 		.4byte	0x2a5
 620 034b 24       		.byte	0x24
 621 034c 0C       		.uleb128 0xc
 622 034d 73323600 		.ascii	"s26\000"
ARM GAS  /tmp/ccDmDJNA.s 			page 12


 623 0351 08       		.byte	0x8
 624 0352 1801     		.2byte	0x118
 625 0354 A5020000 		.4byte	0x2a5
 626 0358 28       		.byte	0x28
 627 0359 0C       		.uleb128 0xc
 628 035a 73323700 		.ascii	"s27\000"
 629 035e 08       		.byte	0x8
 630 035f 1901     		.2byte	0x119
 631 0361 A5020000 		.4byte	0x2a5
 632 0365 2C       		.byte	0x2c
 633 0366 0C       		.uleb128 0xc
 634 0367 73323800 		.ascii	"s28\000"
 635 036b 08       		.byte	0x8
 636 036c 1A01     		.2byte	0x11a
 637 036e A5020000 		.4byte	0x2a5
 638 0372 30       		.byte	0x30
 639 0373 0C       		.uleb128 0xc
 640 0374 73323900 		.ascii	"s29\000"
 641 0378 08       		.byte	0x8
 642 0379 1B01     		.2byte	0x11b
 643 037b A5020000 		.4byte	0x2a5
 644 037f 34       		.byte	0x34
 645 0380 0C       		.uleb128 0xc
 646 0381 73333000 		.ascii	"s30\000"
 647 0385 08       		.byte	0x8
 648 0386 1C01     		.2byte	0x11c
 649 0388 A5020000 		.4byte	0x2a5
 650 038c 38       		.byte	0x38
 651 038d 0C       		.uleb128 0xc
 652 038e 73333100 		.ascii	"s31\000"
 653 0392 08       		.byte	0x8
 654 0393 1D01     		.2byte	0x11d
 655 0395 A5020000 		.4byte	0x2a5
 656 0399 3C       		.byte	0x3c
 657 039a 0C       		.uleb128 0xc
 658 039b 723400   		.ascii	"r4\000"
 659 039e 08       		.byte	0x8
 660 039f 1F01     		.2byte	0x11f
 661 03a1 A5020000 		.4byte	0x2a5
 662 03a5 40       		.byte	0x40
 663 03a6 0C       		.uleb128 0xc
 664 03a7 723500   		.ascii	"r5\000"
 665 03aa 08       		.byte	0x8
 666 03ab 2001     		.2byte	0x120
 667 03ad A5020000 		.4byte	0x2a5
 668 03b1 44       		.byte	0x44
 669 03b2 0C       		.uleb128 0xc
 670 03b3 723600   		.ascii	"r6\000"
 671 03b6 08       		.byte	0x8
 672 03b7 2101     		.2byte	0x121
 673 03b9 A5020000 		.4byte	0x2a5
 674 03bd 48       		.byte	0x48
 675 03be 0C       		.uleb128 0xc
 676 03bf 723700   		.ascii	"r7\000"
 677 03c2 08       		.byte	0x8
 678 03c3 2201     		.2byte	0x122
 679 03c5 A5020000 		.4byte	0x2a5
ARM GAS  /tmp/ccDmDJNA.s 			page 13


 680 03c9 4C       		.byte	0x4c
 681 03ca 0C       		.uleb128 0xc
 682 03cb 723800   		.ascii	"r8\000"
 683 03ce 08       		.byte	0x8
 684 03cf 2301     		.2byte	0x123
 685 03d1 A5020000 		.4byte	0x2a5
 686 03d5 50       		.byte	0x50
 687 03d6 0C       		.uleb128 0xc
 688 03d7 723900   		.ascii	"r9\000"
 689 03da 08       		.byte	0x8
 690 03db 2401     		.2byte	0x124
 691 03dd A5020000 		.4byte	0x2a5
 692 03e1 54       		.byte	0x54
 693 03e2 0C       		.uleb128 0xc
 694 03e3 72313000 		.ascii	"r10\000"
 695 03e7 08       		.byte	0x8
 696 03e8 2501     		.2byte	0x125
 697 03ea A5020000 		.4byte	0x2a5
 698 03ee 58       		.byte	0x58
 699 03ef 0C       		.uleb128 0xc
 700 03f0 72313100 		.ascii	"r11\000"
 701 03f4 08       		.byte	0x8
 702 03f5 2601     		.2byte	0x126
 703 03f7 A5020000 		.4byte	0x2a5
 704 03fb 5C       		.byte	0x5c
 705 03fc 0C       		.uleb128 0xc
 706 03fd 6C7200   		.ascii	"lr\000"
 707 0400 08       		.byte	0x8
 708 0401 2701     		.2byte	0x127
 709 0403 A5020000 		.4byte	0x2a5
 710 0407 60       		.byte	0x60
 711 0408 00       		.byte	0
 712 0409 0B       		.uleb128 0xb
 713 040a 5A010000 		.4byte	.LASF55
 714 040e 04       		.byte	0x4
 715 040f 08       		.byte	0x8
 716 0410 3101     		.2byte	0x131
 717 0412 24040000 		.4byte	0x424
 718 0416 0C       		.uleb128 0xc
 719 0417 72313300 		.ascii	"r13\000"
 720 041b 08       		.byte	0x8
 721 041c 3201     		.2byte	0x132
 722 041e 24040000 		.4byte	0x424
 723 0422 00       		.byte	0
 724 0423 00       		.byte	0
 725 0424 09       		.uleb128 0x9
 726 0425 04       		.byte	0x4
 727 0426 BD020000 		.4byte	0x2bd
 728 042a 04       		.uleb128 0x4
 729 042b 04       		.byte	0x4
 730 042c 07       		.byte	0x7
 731 042d 04020000 		.4byte	.LASF56
 732 0431 0D       		.uleb128 0xd
 733 0432 34010000 		.4byte	0x134
 734 0436 08       		.uleb128 0x8
 735 0437 1C       		.byte	0x1c
 736 0438 09       		.byte	0x9
ARM GAS  /tmp/ccDmDJNA.s 			page 14


 737 0439 5E       		.byte	0x5e
 738 043a 87040000 		.4byte	0x487
 739 043e 06       		.uleb128 0x6
 740 043f 35030000 		.4byte	.LASF57
 741 0443 09       		.byte	0x9
 742 0444 5F       		.byte	0x5f
 743 0445 7A020000 		.4byte	0x27a
 744 0449 00       		.byte	0
 745 044a 06       		.uleb128 0x6
 746 044b D5020000 		.4byte	.LASF58
 747 044f 09       		.byte	0x9
 748 0450 60       		.byte	0x60
 749 0451 13010000 		.4byte	0x113
 750 0455 08       		.byte	0x8
 751 0456 06       		.uleb128 0x6
 752 0457 2D020000 		.4byte	.LASF59
 753 045b 09       		.byte	0x9
 754 045c 62       		.byte	0x62
 755 045d 09040000 		.4byte	0x409
 756 0461 0C       		.byte	0xc
 757 0462 06       		.uleb128 0x6
 758 0463 7B010000 		.4byte	.LASF60
 759 0467 09       		.byte	0x9
 760 0468 65       		.byte	0x65
 761 0469 74020000 		.4byte	0x274
 762 046d 10       		.byte	0x10
 763 046e 06       		.uleb128 0x6
 764 046f 52020000 		.4byte	.LASF61
 765 0473 09       		.byte	0x9
 766 0474 66       		.byte	0x66
 767 0475 74020000 		.4byte	0x274
 768 0479 14       		.byte	0x14
 769 047a 06       		.uleb128 0x6
 770 047b 48020000 		.4byte	.LASF62
 771 047f 09       		.byte	0x9
 772 0480 69       		.byte	0x69
 773 0481 74020000 		.4byte	0x274
 774 0485 18       		.byte	0x18
 775 0486 00       		.byte	0
 776 0487 03       		.uleb128 0x3
 777 0488 AE030000 		.4byte	.LASF63
 778 048c 09       		.byte	0x9
 779 048d 6B       		.byte	0x6b
 780 048e 36040000 		.4byte	0x436
 781 0492 05       		.uleb128 0x5
 782 0493 A3010000 		.4byte	.LASF64
 783 0497 10       		.byte	0x10
 784 0498 0A       		.byte	0xa
 785 0499 2C       		.byte	0x2c
 786 049a C3040000 		.4byte	0x4c3
 787 049e 06       		.uleb128 0x6
 788 049f BD000000 		.4byte	.LASF65
 789 04a3 0A       		.byte	0xa
 790 04a4 2D       		.byte	0x2d
 791 04a5 7A020000 		.4byte	0x27a
 792 04a9 00       		.byte	0
 793 04aa 06       		.uleb128 0x6
ARM GAS  /tmp/ccDmDJNA.s 			page 15


 794 04ab DF030000 		.4byte	.LASF66
 795 04af 0A       		.byte	0xa
 796 04b0 2F       		.byte	0x2f
 797 04b1 74020000 		.4byte	0x274
 798 04b5 08       		.byte	0x8
 799 04b6 06       		.uleb128 0x6
 800 04b7 5D030000 		.4byte	.LASF67
 801 04bb 0A       		.byte	0xa
 802 04bc 31       		.byte	0x31
 803 04bd C3040000 		.4byte	0x4c3
 804 04c1 0C       		.byte	0xc
 805 04c2 00       		.byte	0
 806 04c3 09       		.uleb128 0x9
 807 04c4 04       		.byte	0x4
 808 04c5 92040000 		.4byte	0x492
 809 04c9 03       		.uleb128 0x3
 810 04ca A3010000 		.4byte	.LASF64
 811 04ce 0A       		.byte	0xa
 812 04cf 33       		.byte	0x33
 813 04d0 92040000 		.4byte	0x492
 814 04d4 0E       		.uleb128 0xe
 815 04d5 04       		.byte	0x4
 816 04d6 07       		.byte	0x7
 817 04d7 96       		.byte	0x96
 818 04d8 09050000 		.4byte	0x509
 819 04dc 0F       		.uleb128 0xf
 820 04dd 1A000000 		.4byte	.LASF68
 821 04e1 07       		.byte	0x7
 822 04e2 9D       		.byte	0x9d
 823 04e3 1E010000 		.4byte	0x11e
 824 04e7 0F       		.uleb128 0xf
 825 04e8 FC000000 		.4byte	.LASF69
 826 04ec 07       		.byte	0x7
 827 04ed A4       		.byte	0xa4
 828 04ee 1E010000 		.4byte	0x11e
 829 04f2 0F       		.uleb128 0xf
 830 04f3 C6030000 		.4byte	.LASF70
 831 04f7 07       		.byte	0x7
 832 04f8 AB       		.byte	0xab
 833 04f9 B0020000 		.4byte	0x2b0
 834 04fd 0F       		.uleb128 0xf
 835 04fe DC020000 		.4byte	.LASF71
 836 0502 07       		.byte	0x7
 837 0503 B2       		.byte	0xb2
 838 0504 29010000 		.4byte	0x129
 839 0508 00       		.byte	0
 840 0509 09       		.uleb128 0x9
 841 050a 04       		.byte	0x4
 842 050b 0F050000 		.4byte	0x50f
 843 050f 10       		.uleb128 0x10
 844 0510 14050000 		.4byte	0x514
 845 0514 04       		.uleb128 0x4
 846 0515 01       		.byte	0x1
 847 0516 08       		.byte	0x8
 848 0517 3D030000 		.4byte	.LASF72
 849 051b 09       		.uleb128 0x9
 850 051c 04       		.byte	0x4
ARM GAS  /tmp/ccDmDJNA.s 			page 16


 851 051d B2020000 		.4byte	0x2b2
 852 0521 09       		.uleb128 0x9
 853 0522 04       		.byte	0x4
 854 0523 C9040000 		.4byte	0x4c9
 855 0527 08       		.uleb128 0x8
 856 0528 16       		.byte	0x16
 857 0529 0B       		.byte	0xb
 858 052a 2C       		.byte	0x2c
 859 052b 08060000 		.4byte	0x608
 860 052f 06       		.uleb128 0x6
 861 0530 4C010000 		.4byte	.LASF73
 862 0534 0B       		.byte	0xb
 863 0535 2D       		.byte	0x2d
 864 0536 08060000 		.4byte	0x608
 865 053a 00       		.byte	0
 866 053b 06       		.uleb128 0x6
 867 053c F0010000 		.4byte	.LASF74
 868 0540 0B       		.byte	0xb
 869 0541 2E       		.byte	0x2e
 870 0542 A9000000 		.4byte	0xa9
 871 0546 04       		.byte	0x4
 872 0547 06       		.uleb128 0x6
 873 0548 40020000 		.4byte	.LASF75
 874 054c 0B       		.byte	0xb
 875 054d 2F       		.byte	0x2f
 876 054e A9000000 		.4byte	0xa9
 877 0552 05       		.byte	0x5
 878 0553 06       		.uleb128 0x6
 879 0554 D4030000 		.4byte	.LASF76
 880 0558 0B       		.byte	0xb
 881 0559 30       		.byte	0x30
 882 055a B4000000 		.4byte	0xb4
 883 055e 06       		.byte	0x6
 884 055f 06       		.uleb128 0x6
 885 0560 6D020000 		.4byte	.LASF77
 886 0564 0B       		.byte	0xb
 887 0565 31       		.byte	0x31
 888 0566 A9000000 		.4byte	0xa9
 889 056a 08       		.byte	0x8
 890 056b 06       		.uleb128 0x6
 891 056c 0D020000 		.4byte	.LASF78
 892 0570 0B       		.byte	0xb
 893 0571 32       		.byte	0x32
 894 0572 A9000000 		.4byte	0xa9
 895 0576 09       		.byte	0x9
 896 0577 06       		.uleb128 0x6
 897 0578 34000000 		.4byte	.LASF79
 898 057c 0B       		.byte	0xb
 899 057d 33       		.byte	0x33
 900 057e A9000000 		.4byte	0xa9
 901 0582 0A       		.byte	0xa
 902 0583 06       		.uleb128 0x6
 903 0584 29030000 		.4byte	.LASF80
 904 0588 0B       		.byte	0xb
 905 0589 34       		.byte	0x34
 906 058a A9000000 		.4byte	0xa9
 907 058e 0B       		.byte	0xb
ARM GAS  /tmp/ccDmDJNA.s 			page 17


 908 058f 06       		.uleb128 0x6
 909 0590 9C030000 		.4byte	.LASF81
 910 0594 0B       		.byte	0xb
 911 0595 35       		.byte	0x35
 912 0596 A9000000 		.4byte	0xa9
 913 059a 0C       		.byte	0xc
 914 059b 06       		.uleb128 0x6
 915 059c 08030000 		.4byte	.LASF82
 916 05a0 0B       		.byte	0xb
 917 05a1 36       		.byte	0x36
 918 05a2 A9000000 		.4byte	0xa9
 919 05a6 0D       		.byte	0xd
 920 05a7 06       		.uleb128 0x6
 921 05a8 00000000 		.4byte	.LASF83
 922 05ac 0B       		.byte	0xb
 923 05ad 37       		.byte	0x37
 924 05ae A9000000 		.4byte	0xa9
 925 05b2 0E       		.byte	0xe
 926 05b3 06       		.uleb128 0x6
 927 05b4 19020000 		.4byte	.LASF84
 928 05b8 0B       		.byte	0xb
 929 05b9 38       		.byte	0x38
 930 05ba A9000000 		.4byte	0xa9
 931 05be 0F       		.byte	0xf
 932 05bf 06       		.uleb128 0x6
 933 05c0 98000000 		.4byte	.LASF85
 934 05c4 0B       		.byte	0xb
 935 05c5 39       		.byte	0x39
 936 05c6 A9000000 		.4byte	0xa9
 937 05ca 10       		.byte	0x10
 938 05cb 06       		.uleb128 0x6
 939 05cc 71000000 		.4byte	.LASF86
 940 05d0 0B       		.byte	0xb
 941 05d1 3B       		.byte	0x3b
 942 05d2 A9000000 		.4byte	0xa9
 943 05d6 11       		.byte	0x11
 944 05d7 06       		.uleb128 0x6
 945 05d8 A8000000 		.4byte	.LASF87
 946 05dc 0B       		.byte	0xb
 947 05dd 3C       		.byte	0x3c
 948 05de A9000000 		.4byte	0xa9
 949 05e2 12       		.byte	0x12
 950 05e3 06       		.uleb128 0x6
 951 05e4 F8010000 		.4byte	.LASF88
 952 05e8 0B       		.byte	0xb
 953 05e9 3D       		.byte	0x3d
 954 05ea A9000000 		.4byte	0xa9
 955 05ee 13       		.byte	0x13
 956 05ef 06       		.uleb128 0x6
 957 05f0 EA020000 		.4byte	.LASF89
 958 05f4 0B       		.byte	0xb
 959 05f5 3E       		.byte	0x3e
 960 05f6 A9000000 		.4byte	0xa9
 961 05fa 14       		.byte	0x14
 962 05fb 06       		.uleb128 0x6
 963 05fc C9020000 		.4byte	.LASF90
 964 0600 0B       		.byte	0xb
ARM GAS  /tmp/ccDmDJNA.s 			page 18


 965 0601 40       		.byte	0x40
 966 0602 A9000000 		.4byte	0xa9
 967 0606 15       		.byte	0x15
 968 0607 00       		.byte	0
 969 0608 11       		.uleb128 0x11
 970 0609 14050000 		.4byte	0x514
 971 060d 18060000 		.4byte	0x618
 972 0611 12       		.uleb128 0x12
 973 0612 2A040000 		.4byte	0x42a
 974 0616 03       		.byte	0x3
 975 0617 00       		.byte	0
 976 0618 03       		.uleb128 0x3
 977 0619 EA000000 		.4byte	.LASF91
 978 061d 0B       		.byte	0xb
 979 061e 41       		.byte	0x41
 980 061f 27050000 		.4byte	0x527
 981 0623 13       		.uleb128 0x13
 982 0624 59000000 		.4byte	.LASF92
 983 0628 01       		.byte	0x1
 984 0629 75       		.byte	0x75
 985 062a 74020000 		.4byte	0x274
 986 062e 00000000 		.4byte	.LFB7
 987 0632 3C000000 		.4byte	.LFE7-.LFB7
 988 0636 01       		.uleb128 0x1
 989 0637 9C       		.byte	0x9c
 990 0638 7C060000 		.4byte	0x67c
 991 063c 14       		.uleb128 0x14
 992 063d 747000   		.ascii	"tp\000"
 993 0640 01       		.byte	0x1
 994 0641 76       		.byte	0x76
 995 0642 74020000 		.4byte	0x274
 996 0646 02       		.uleb128 0x2
 997 0647 91       		.byte	0x91
 998 0648 74       		.sleb128 -12
 999 0649 15       		.uleb128 0x15
 1000 064a 04000000 		.4byte	.LBB2
 1001 064e 06000000 		.4byte	.LBE2-.LBB2
 1002 0652 64060000 		.4byte	0x664
 1003 0656 14       		.uleb128 0x14
 1004 0657 746D7000 		.ascii	"tmp\000"
 1005 065b 01       		.byte	0x1
 1006 065c 78       		.byte	0x78
 1007 065d CA000000 		.4byte	0xca
 1008 0661 01       		.uleb128 0x1
 1009 0662 53       		.byte	0x53
 1010 0663 00       		.byte	0
 1011 0664 16       		.uleb128 0x16
 1012 0665 28000000 		.4byte	.LBB3
 1013 0669 06000000 		.4byte	.LBE3-.LBB3
 1014 066d 14       		.uleb128 0x14
 1015 066e 746D7000 		.ascii	"tmp\000"
 1016 0672 01       		.byte	0x1
 1017 0673 7D       		.byte	0x7d
 1018 0674 CA000000 		.4byte	0xca
 1019 0678 01       		.uleb128 0x1
 1020 0679 53       		.byte	0x53
 1021 067a 00       		.byte	0
ARM GAS  /tmp/ccDmDJNA.s 			page 19


 1022 067b 00       		.byte	0
 1023 067c 13       		.uleb128 0x13
 1024 067d 42030000 		.4byte	.LASF93
 1025 0681 01       		.byte	0x1
 1026 0682 8C       		.byte	0x8c
 1027 0683 74020000 		.4byte	0x274
 1028 0687 00000000 		.4byte	.LFB8
 1029 068b 68000000 		.4byte	.LFE8-.LFB8
 1030 068f 01       		.uleb128 0x1
 1031 0690 9C       		.byte	0x9c
 1032 0691 E3060000 		.4byte	0x6e3
 1033 0695 17       		.uleb128 0x17
 1034 0696 747000   		.ascii	"tp\000"
 1035 0699 01       		.byte	0x1
 1036 069a 8C       		.byte	0x8c
 1037 069b 74020000 		.4byte	0x274
 1038 069f 02       		.uleb128 0x2
 1039 06a0 91       		.byte	0x91
 1040 06a1 6C       		.sleb128 -20
 1041 06a2 14       		.uleb128 0x14
 1042 06a3 6E747000 		.ascii	"ntp\000"
 1043 06a7 01       		.byte	0x1
 1044 06a8 8D       		.byte	0x8d
 1045 06a9 74020000 		.4byte	0x274
 1046 06ad 02       		.uleb128 0x2
 1047 06ae 91       		.byte	0x91
 1048 06af 74       		.sleb128 -12
 1049 06b0 15       		.uleb128 0x15
 1050 06b1 06000000 		.4byte	.LBB4
 1051 06b5 06000000 		.4byte	.LBE4-.LBB4
 1052 06b9 CB060000 		.4byte	0x6cb
 1053 06bd 14       		.uleb128 0x14
 1054 06be 746D7000 		.ascii	"tmp\000"
 1055 06c2 01       		.byte	0x1
 1056 06c3 8F       		.byte	0x8f
 1057 06c4 CA000000 		.4byte	0xca
 1058 06c8 01       		.uleb128 0x1
 1059 06c9 53       		.byte	0x53
 1060 06ca 00       		.byte	0
 1061 06cb 16       		.uleb128 0x16
 1062 06cc 48000000 		.4byte	.LBB5
 1063 06d0 06000000 		.4byte	.LBE5-.LBB5
 1064 06d4 14       		.uleb128 0x14
 1065 06d5 746D7000 		.ascii	"tmp\000"
 1066 06d9 01       		.byte	0x1
 1067 06da 9A       		.byte	0x9a
 1068 06db CA000000 		.4byte	0xca
 1069 06df 01       		.uleb128 0x1
 1070 06e0 53       		.byte	0x53
 1071 06e1 00       		.byte	0
 1072 06e2 00       		.byte	0
 1073 06e3 18       		.uleb128 0x18
 1074 06e4 B8030000 		.4byte	.LASF94
 1075 06e8 09       		.byte	0x9
 1076 06e9 6F       		.byte	0x6f
 1077 06ea 87040000 		.4byte	0x487
 1078 06ee 19       		.uleb128 0x19
ARM GAS  /tmp/ccDmDJNA.s 			page 20


 1079 06ef 43010000 		.4byte	.LASF95
 1080 06f3 01       		.byte	0x1
 1081 06f4 42       		.byte	0x42
 1082 06f5 FF060000 		.4byte	0x6ff
 1083 06f9 05       		.uleb128 0x5
 1084 06fa 03       		.byte	0x3
 1085 06fb 00000000 		.4byte	ch_debug
 1086 06ff 10       		.uleb128 0x10
 1087 0700 18060000 		.4byte	0x618
 1088 0704 00       		.byte	0
 1089              		.section	.debug_abbrev,"",%progbits
 1090              	.Ldebug_abbrev0:
 1091 0000 01       		.uleb128 0x1
 1092 0001 11       		.uleb128 0x11
 1093 0002 01       		.byte	0x1
 1094 0003 25       		.uleb128 0x25
 1095 0004 0E       		.uleb128 0xe
 1096 0005 13       		.uleb128 0x13
 1097 0006 0B       		.uleb128 0xb
 1098 0007 03       		.uleb128 0x3
 1099 0008 0E       		.uleb128 0xe
 1100 0009 55       		.uleb128 0x55
 1101 000a 17       		.uleb128 0x17
 1102 000b 11       		.uleb128 0x11
 1103 000c 01       		.uleb128 0x1
 1104 000d 10       		.uleb128 0x10
 1105 000e 17       		.uleb128 0x17
 1106 000f 00       		.byte	0
 1107 0010 00       		.byte	0
 1108 0011 02       		.uleb128 0x2
 1109 0012 24       		.uleb128 0x24
 1110 0013 00       		.byte	0
 1111 0014 0B       		.uleb128 0xb
 1112 0015 0B       		.uleb128 0xb
 1113 0016 3E       		.uleb128 0x3e
 1114 0017 0B       		.uleb128 0xb
 1115 0018 03       		.uleb128 0x3
 1116 0019 08       		.uleb128 0x8
 1117 001a 00       		.byte	0
 1118 001b 00       		.byte	0
 1119 001c 03       		.uleb128 0x3
 1120 001d 16       		.uleb128 0x16
 1121 001e 00       		.byte	0
 1122 001f 03       		.uleb128 0x3
 1123 0020 0E       		.uleb128 0xe
 1124 0021 3A       		.uleb128 0x3a
 1125 0022 0B       		.uleb128 0xb
 1126 0023 3B       		.uleb128 0x3b
 1127 0024 0B       		.uleb128 0xb
 1128 0025 49       		.uleb128 0x49
 1129 0026 13       		.uleb128 0x13
 1130 0027 00       		.byte	0
 1131 0028 00       		.byte	0
 1132 0029 04       		.uleb128 0x4
 1133 002a 24       		.uleb128 0x24
 1134 002b 00       		.byte	0
 1135 002c 0B       		.uleb128 0xb
ARM GAS  /tmp/ccDmDJNA.s 			page 21


 1136 002d 0B       		.uleb128 0xb
 1137 002e 3E       		.uleb128 0x3e
 1138 002f 0B       		.uleb128 0xb
 1139 0030 03       		.uleb128 0x3
 1140 0031 0E       		.uleb128 0xe
 1141 0032 00       		.byte	0
 1142 0033 00       		.byte	0
 1143 0034 05       		.uleb128 0x5
 1144 0035 13       		.uleb128 0x13
 1145 0036 01       		.byte	0x1
 1146 0037 03       		.uleb128 0x3
 1147 0038 0E       		.uleb128 0xe
 1148 0039 0B       		.uleb128 0xb
 1149 003a 0B       		.uleb128 0xb
 1150 003b 3A       		.uleb128 0x3a
 1151 003c 0B       		.uleb128 0xb
 1152 003d 3B       		.uleb128 0x3b
 1153 003e 0B       		.uleb128 0xb
 1154 003f 01       		.uleb128 0x1
 1155 0040 13       		.uleb128 0x13
 1156 0041 00       		.byte	0
 1157 0042 00       		.byte	0
 1158 0043 06       		.uleb128 0x6
 1159 0044 0D       		.uleb128 0xd
 1160 0045 00       		.byte	0
 1161 0046 03       		.uleb128 0x3
 1162 0047 0E       		.uleb128 0xe
 1163 0048 3A       		.uleb128 0x3a
 1164 0049 0B       		.uleb128 0xb
 1165 004a 3B       		.uleb128 0x3b
 1166 004b 0B       		.uleb128 0xb
 1167 004c 49       		.uleb128 0x49
 1168 004d 13       		.uleb128 0x13
 1169 004e 38       		.uleb128 0x38
 1170 004f 0B       		.uleb128 0xb
 1171 0050 00       		.byte	0
 1172 0051 00       		.byte	0
 1173 0052 07       		.uleb128 0x7
 1174 0053 0D       		.uleb128 0xd
 1175 0054 00       		.byte	0
 1176 0055 03       		.uleb128 0x3
 1177 0056 08       		.uleb128 0x8
 1178 0057 3A       		.uleb128 0x3a
 1179 0058 0B       		.uleb128 0xb
 1180 0059 3B       		.uleb128 0x3b
 1181 005a 0B       		.uleb128 0xb
 1182 005b 49       		.uleb128 0x49
 1183 005c 13       		.uleb128 0x13
 1184 005d 38       		.uleb128 0x38
 1185 005e 0B       		.uleb128 0xb
 1186 005f 00       		.byte	0
 1187 0060 00       		.byte	0
 1188 0061 08       		.uleb128 0x8
 1189 0062 13       		.uleb128 0x13
 1190 0063 01       		.byte	0x1
 1191 0064 0B       		.uleb128 0xb
 1192 0065 0B       		.uleb128 0xb
ARM GAS  /tmp/ccDmDJNA.s 			page 22


 1193 0066 3A       		.uleb128 0x3a
 1194 0067 0B       		.uleb128 0xb
 1195 0068 3B       		.uleb128 0x3b
 1196 0069 0B       		.uleb128 0xb
 1197 006a 01       		.uleb128 0x1
 1198 006b 13       		.uleb128 0x13
 1199 006c 00       		.byte	0
 1200 006d 00       		.byte	0
 1201 006e 09       		.uleb128 0x9
 1202 006f 0F       		.uleb128 0xf
 1203 0070 00       		.byte	0
 1204 0071 0B       		.uleb128 0xb
 1205 0072 0B       		.uleb128 0xb
 1206 0073 49       		.uleb128 0x49
 1207 0074 13       		.uleb128 0x13
 1208 0075 00       		.byte	0
 1209 0076 00       		.byte	0
 1210 0077 0A       		.uleb128 0xa
 1211 0078 0F       		.uleb128 0xf
 1212 0079 00       		.byte	0
 1213 007a 0B       		.uleb128 0xb
 1214 007b 0B       		.uleb128 0xb
 1215 007c 00       		.byte	0
 1216 007d 00       		.byte	0
 1217 007e 0B       		.uleb128 0xb
 1218 007f 13       		.uleb128 0x13
 1219 0080 01       		.byte	0x1
 1220 0081 03       		.uleb128 0x3
 1221 0082 0E       		.uleb128 0xe
 1222 0083 0B       		.uleb128 0xb
 1223 0084 0B       		.uleb128 0xb
 1224 0085 3A       		.uleb128 0x3a
 1225 0086 0B       		.uleb128 0xb
 1226 0087 3B       		.uleb128 0x3b
 1227 0088 05       		.uleb128 0x5
 1228 0089 01       		.uleb128 0x1
 1229 008a 13       		.uleb128 0x13
 1230 008b 00       		.byte	0
 1231 008c 00       		.byte	0
 1232 008d 0C       		.uleb128 0xc
 1233 008e 0D       		.uleb128 0xd
 1234 008f 00       		.byte	0
 1235 0090 03       		.uleb128 0x3
 1236 0091 08       		.uleb128 0x8
 1237 0092 3A       		.uleb128 0x3a
 1238 0093 0B       		.uleb128 0xb
 1239 0094 3B       		.uleb128 0x3b
 1240 0095 05       		.uleb128 0x5
 1241 0096 49       		.uleb128 0x49
 1242 0097 13       		.uleb128 0x13
 1243 0098 38       		.uleb128 0x38
 1244 0099 0B       		.uleb128 0xb
 1245 009a 00       		.byte	0
 1246 009b 00       		.byte	0
 1247 009c 0D       		.uleb128 0xd
 1248 009d 35       		.uleb128 0x35
 1249 009e 00       		.byte	0
ARM GAS  /tmp/ccDmDJNA.s 			page 23


 1250 009f 49       		.uleb128 0x49
 1251 00a0 13       		.uleb128 0x13
 1252 00a1 00       		.byte	0
 1253 00a2 00       		.byte	0
 1254 00a3 0E       		.uleb128 0xe
 1255 00a4 17       		.uleb128 0x17
 1256 00a5 01       		.byte	0x1
 1257 00a6 0B       		.uleb128 0xb
 1258 00a7 0B       		.uleb128 0xb
 1259 00a8 3A       		.uleb128 0x3a
 1260 00a9 0B       		.uleb128 0xb
 1261 00aa 3B       		.uleb128 0x3b
 1262 00ab 0B       		.uleb128 0xb
 1263 00ac 01       		.uleb128 0x1
 1264 00ad 13       		.uleb128 0x13
 1265 00ae 00       		.byte	0
 1266 00af 00       		.byte	0
 1267 00b0 0F       		.uleb128 0xf
 1268 00b1 0D       		.uleb128 0xd
 1269 00b2 00       		.byte	0
 1270 00b3 03       		.uleb128 0x3
 1271 00b4 0E       		.uleb128 0xe
 1272 00b5 3A       		.uleb128 0x3a
 1273 00b6 0B       		.uleb128 0xb
 1274 00b7 3B       		.uleb128 0x3b
 1275 00b8 0B       		.uleb128 0xb
 1276 00b9 49       		.uleb128 0x49
 1277 00ba 13       		.uleb128 0x13
 1278 00bb 00       		.byte	0
 1279 00bc 00       		.byte	0
 1280 00bd 10       		.uleb128 0x10
 1281 00be 26       		.uleb128 0x26
 1282 00bf 00       		.byte	0
 1283 00c0 49       		.uleb128 0x49
 1284 00c1 13       		.uleb128 0x13
 1285 00c2 00       		.byte	0
 1286 00c3 00       		.byte	0
 1287 00c4 11       		.uleb128 0x11
 1288 00c5 01       		.uleb128 0x1
 1289 00c6 01       		.byte	0x1
 1290 00c7 49       		.uleb128 0x49
 1291 00c8 13       		.uleb128 0x13
 1292 00c9 01       		.uleb128 0x1
 1293 00ca 13       		.uleb128 0x13
 1294 00cb 00       		.byte	0
 1295 00cc 00       		.byte	0
 1296 00cd 12       		.uleb128 0x12
 1297 00ce 21       		.uleb128 0x21
 1298 00cf 00       		.byte	0
 1299 00d0 49       		.uleb128 0x49
 1300 00d1 13       		.uleb128 0x13
 1301 00d2 2F       		.uleb128 0x2f
 1302 00d3 0B       		.uleb128 0xb
 1303 00d4 00       		.byte	0
 1304 00d5 00       		.byte	0
 1305 00d6 13       		.uleb128 0x13
 1306 00d7 2E       		.uleb128 0x2e
ARM GAS  /tmp/ccDmDJNA.s 			page 24


 1307 00d8 01       		.byte	0x1
 1308 00d9 3F       		.uleb128 0x3f
 1309 00da 19       		.uleb128 0x19
 1310 00db 03       		.uleb128 0x3
 1311 00dc 0E       		.uleb128 0xe
 1312 00dd 3A       		.uleb128 0x3a
 1313 00de 0B       		.uleb128 0xb
 1314 00df 3B       		.uleb128 0x3b
 1315 00e0 0B       		.uleb128 0xb
 1316 00e1 27       		.uleb128 0x27
 1317 00e2 19       		.uleb128 0x19
 1318 00e3 49       		.uleb128 0x49
 1319 00e4 13       		.uleb128 0x13
 1320 00e5 11       		.uleb128 0x11
 1321 00e6 01       		.uleb128 0x1
 1322 00e7 12       		.uleb128 0x12
 1323 00e8 06       		.uleb128 0x6
 1324 00e9 40       		.uleb128 0x40
 1325 00ea 18       		.uleb128 0x18
 1326 00eb 9642     		.uleb128 0x2116
 1327 00ed 19       		.uleb128 0x19
 1328 00ee 01       		.uleb128 0x1
 1329 00ef 13       		.uleb128 0x13
 1330 00f0 00       		.byte	0
 1331 00f1 00       		.byte	0
 1332 00f2 14       		.uleb128 0x14
 1333 00f3 34       		.uleb128 0x34
 1334 00f4 00       		.byte	0
 1335 00f5 03       		.uleb128 0x3
 1336 00f6 08       		.uleb128 0x8
 1337 00f7 3A       		.uleb128 0x3a
 1338 00f8 0B       		.uleb128 0xb
 1339 00f9 3B       		.uleb128 0x3b
 1340 00fa 0B       		.uleb128 0xb
 1341 00fb 49       		.uleb128 0x49
 1342 00fc 13       		.uleb128 0x13
 1343 00fd 02       		.uleb128 0x2
 1344 00fe 18       		.uleb128 0x18
 1345 00ff 00       		.byte	0
 1346 0100 00       		.byte	0
 1347 0101 15       		.uleb128 0x15
 1348 0102 0B       		.uleb128 0xb
 1349 0103 01       		.byte	0x1
 1350 0104 11       		.uleb128 0x11
 1351 0105 01       		.uleb128 0x1
 1352 0106 12       		.uleb128 0x12
 1353 0107 06       		.uleb128 0x6
 1354 0108 01       		.uleb128 0x1
 1355 0109 13       		.uleb128 0x13
 1356 010a 00       		.byte	0
 1357 010b 00       		.byte	0
 1358 010c 16       		.uleb128 0x16
 1359 010d 0B       		.uleb128 0xb
 1360 010e 01       		.byte	0x1
 1361 010f 11       		.uleb128 0x11
 1362 0110 01       		.uleb128 0x1
 1363 0111 12       		.uleb128 0x12
ARM GAS  /tmp/ccDmDJNA.s 			page 25


 1364 0112 06       		.uleb128 0x6
 1365 0113 00       		.byte	0
 1366 0114 00       		.byte	0
 1367 0115 17       		.uleb128 0x17
 1368 0116 05       		.uleb128 0x5
 1369 0117 00       		.byte	0
 1370 0118 03       		.uleb128 0x3
 1371 0119 08       		.uleb128 0x8
 1372 011a 3A       		.uleb128 0x3a
 1373 011b 0B       		.uleb128 0xb
 1374 011c 3B       		.uleb128 0x3b
 1375 011d 0B       		.uleb128 0xb
 1376 011e 49       		.uleb128 0x49
 1377 011f 13       		.uleb128 0x13
 1378 0120 02       		.uleb128 0x2
 1379 0121 18       		.uleb128 0x18
 1380 0122 00       		.byte	0
 1381 0123 00       		.byte	0
 1382 0124 18       		.uleb128 0x18
 1383 0125 34       		.uleb128 0x34
 1384 0126 00       		.byte	0
 1385 0127 03       		.uleb128 0x3
 1386 0128 0E       		.uleb128 0xe
 1387 0129 3A       		.uleb128 0x3a
 1388 012a 0B       		.uleb128 0xb
 1389 012b 3B       		.uleb128 0x3b
 1390 012c 0B       		.uleb128 0xb
 1391 012d 49       		.uleb128 0x49
 1392 012e 13       		.uleb128 0x13
 1393 012f 3F       		.uleb128 0x3f
 1394 0130 19       		.uleb128 0x19
 1395 0131 3C       		.uleb128 0x3c
 1396 0132 19       		.uleb128 0x19
 1397 0133 00       		.byte	0
 1398 0134 00       		.byte	0
 1399 0135 19       		.uleb128 0x19
 1400 0136 34       		.uleb128 0x34
 1401 0137 00       		.byte	0
 1402 0138 03       		.uleb128 0x3
 1403 0139 0E       		.uleb128 0xe
 1404 013a 3A       		.uleb128 0x3a
 1405 013b 0B       		.uleb128 0xb
 1406 013c 3B       		.uleb128 0x3b
 1407 013d 0B       		.uleb128 0xb
 1408 013e 49       		.uleb128 0x49
 1409 013f 13       		.uleb128 0x13
 1410 0140 3F       		.uleb128 0x3f
 1411 0141 19       		.uleb128 0x19
 1412 0142 02       		.uleb128 0x2
 1413 0143 18       		.uleb128 0x18
 1414 0144 00       		.byte	0
 1415 0145 00       		.byte	0
 1416 0146 00       		.byte	0
 1417              		.section	.debug_aranges,"",%progbits
 1418 0000 24000000 		.4byte	0x24
 1419 0004 0200     		.2byte	0x2
 1420 0006 00000000 		.4byte	.Ldebug_info0
ARM GAS  /tmp/ccDmDJNA.s 			page 26


 1421 000a 04       		.byte	0x4
 1422 000b 00       		.byte	0
 1423 000c 0000     		.2byte	0
 1424 000e 0000     		.2byte	0
 1425 0010 00000000 		.4byte	.LFB7
 1426 0014 3C000000 		.4byte	.LFE7-.LFB7
 1427 0018 00000000 		.4byte	.LFB8
 1428 001c 68000000 		.4byte	.LFE8-.LFB8
 1429 0020 00000000 		.4byte	0
 1430 0024 00000000 		.4byte	0
 1431              		.section	.debug_ranges,"",%progbits
 1432              	.Ldebug_ranges0:
 1433 0000 00000000 		.4byte	.LFB7
 1434 0004 3C000000 		.4byte	.LFE7
 1435 0008 00000000 		.4byte	.LFB8
 1436 000c 68000000 		.4byte	.LFE8
 1437 0010 00000000 		.4byte	0
 1438 0014 00000000 		.4byte	0
 1439              		.section	.debug_line,"",%progbits
 1440              	.Ldebug_line0:
 1441 0000 80020000 		.section	.debug_str,"MS",%progbits,1
 1441      02004302 
 1441      00000201 
 1441      FB0E0D00 
 1441      01010101 
 1442              	.LASF83:
 1443 0000 63665F6F 		.ascii	"cf_off_older\000"
 1443      66665F6F 
 1443      6C646572 
 1443      00
 1444              	.LASF45:
 1445 000d 705F6D73 		.ascii	"p_msg\000"
 1445      6700
 1446              	.LASF2:
 1447 0013 73697A65 		.ascii	"size_t\000"
 1447      5F7400
 1448              	.LASF68:
 1449 001a 7264796D 		.ascii	"rdymsg\000"
 1449      736700
 1450              	.LASF19:
 1451 0021 75696E74 		.ascii	"uint64_t\000"
 1451      36345F74 
 1451      00
 1452              	.LASF3:
 1453 002a 5F5F7569 		.ascii	"__uint8_t\000"
 1453      6E74385F 
 1453      7400
 1454              	.LASF79:
 1455 0034 63685F74 		.ascii	"ch_threadsize\000"
 1455      68726561 
 1455      6473697A 
 1455      6500
 1456              	.LASF14:
 1457 0042 6C6F6E67 		.ascii	"long long unsigned int\000"
 1457      206C6F6E 
 1457      6720756E 
 1457      7369676E 
ARM GAS  /tmp/ccDmDJNA.s 			page 27


 1457      65642069 
 1458              	.LASF92:
 1459 0059 63685265 		.ascii	"chRegFirstThread\000"
 1459      67466972 
 1459      73745468 
 1459      72656164 
 1459      00
 1460              	.LASF32:
 1461 006a 705F7072 		.ascii	"p_prio\000"
 1461      696F00
 1462              	.LASF86:
 1463 0071 63665F6F 		.ascii	"cf_off_state\000"
 1463      66665F73 
 1463      74617465 
 1463      00
 1464              	.LASF12:
 1465 007e 6C6F6E67 		.ascii	"long long int\000"
 1465      206C6F6E 
 1465      6720696E 
 1465      7400
 1466              	.LASF1:
 1467 008c 7369676E 		.ascii	"signed char\000"
 1467      65642063 
 1467      68617200 
 1468              	.LASF85:
 1469 0098 63665F6F 		.ascii	"cf_off_stklimit\000"
 1469      66665F73 
 1469      746B6C69 
 1469      6D697400 
 1470              	.LASF87:
 1471 00a8 63665F6F 		.ascii	"cf_off_flags\000"
 1471      66665F66 
 1471      6C616773 
 1471      00
 1472              	.LASF49:
 1473 00b5 705F6D70 		.ascii	"p_mpool\000"
 1473      6F6F6C00 
 1474              	.LASF65:
 1475 00bd 6D5F7175 		.ascii	"m_queue\000"
 1475      65756500 
 1476              	.LASF24:
 1477 00c5 74736C69 		.ascii	"tslices_t\000"
 1477      6365735F 
 1477      7400
 1478              	.LASF9:
 1479 00cf 6C6F6E67 		.ascii	"long int\000"
 1479      20696E74 
 1479      00
 1480              	.LASF22:
 1481 00d8 74737461 		.ascii	"tstate_t\000"
 1481      74655F74 
 1481      00
 1482              	.LASF16:
 1483 00e1 75696E74 		.ascii	"uint16_t\000"
 1483      31365F74 
 1483      00
 1484              	.LASF91:
ARM GAS  /tmp/ccDmDJNA.s 			page 28


 1485 00ea 63686465 		.ascii	"chdebug_t\000"
 1485      6275675F 
 1485      7400
 1486              	.LASF34:
 1487 00f4 705F6E65 		.ascii	"p_newer\000"
 1487      77657200 
 1488              	.LASF69:
 1489 00fc 65786974 		.ascii	"exitcode\000"
 1489      636F6465 
 1489      00
 1490              	.LASF10:
 1491 0105 5F5F7569 		.ascii	"__uint32_t\000"
 1491      6E743332 
 1491      5F7400
 1492              	.LASF52:
 1493 0110 72656761 		.ascii	"regarm_t\000"
 1493      726D5F74 
 1493      00
 1494              	.LASF37:
 1495 0119 705F7374 		.ascii	"p_stklimit\000"
 1495      6B6C696D 
 1495      697400
 1496              	.LASF0:
 1497 0124 756E7369 		.ascii	"unsigned int\000"
 1497      676E6564 
 1497      20696E74 
 1497      00
 1498              	.LASF11:
 1499 0131 6C6F6E67 		.ascii	"long unsigned int\000"
 1499      20756E73 
 1499      69676E65 
 1499      6420696E 
 1499      7400
 1500              	.LASF95:
 1501 0143 63685F64 		.ascii	"ch_debug\000"
 1501      65627567 
 1501      00
 1502              	.LASF73:
 1503 014c 63685F69 		.ascii	"ch_identifier\000"
 1503      64656E74 
 1503      69666965 
 1503      7200
 1504              	.LASF55:
 1505 015a 636F6E74 		.ascii	"context\000"
 1505      65787400 
 1506              	.LASF7:
 1507 0162 73686F72 		.ascii	"short unsigned int\000"
 1507      7420756E 
 1507      7369676E 
 1507      65642069 
 1507      6E7400
 1508              	.LASF26:
 1509 0175 6D73675F 		.ascii	"msg_t\000"
 1509      7400
 1510              	.LASF60:
 1511 017b 725F6E65 		.ascii	"r_newer\000"
 1511      77657200 
ARM GAS  /tmp/ccDmDJNA.s 			page 29


 1512              	.LASF21:
 1513 0183 746D6F64 		.ascii	"tmode_t\000"
 1513      655F7400 
 1514              	.LASF51:
 1515 018b 54687265 		.ascii	"ThreadsList\000"
 1515      6164734C 
 1515      69737400 
 1516              	.LASF27:
 1517 0197 6576656E 		.ascii	"eventmask_t\000"
 1517      746D6173 
 1517      6B5F7400 
 1518              	.LASF64:
 1519 01a3 4D757465 		.ascii	"Mutex\000"
 1519      7800
 1520              	.LASF53:
 1521 01a9 73746B61 		.ascii	"stkalign_t\000"
 1521      6C69676E 
 1521      5F7400
 1522              	.LASF97:
 1523 01b4 2F686F6D 		.ascii	"/home/ergae/r2p-sdk/core/ChibiOS/os/kernel/src/chre"
 1523      652F6572 
 1523      6761652F 
 1523      7232702D 
 1523      73646B2F 
 1524 01e7 67697374 		.ascii	"gistry.c\000"
 1524      72792E63 
 1524      00
 1525              	.LASF74:
 1526 01f0 63685F7A 		.ascii	"ch_zero\000"
 1526      65726F00 
 1527              	.LASF88:
 1528 01f8 63665F6F 		.ascii	"cf_off_refs\000"
 1528      66665F72 
 1528      65667300 
 1529              	.LASF56:
 1530 0204 73697A65 		.ascii	"sizetype\000"
 1530      74797065 
 1530      00
 1531              	.LASF78:
 1532 020d 63685F74 		.ascii	"ch_timesize\000"
 1532      696D6573 
 1532      697A6500 
 1533              	.LASF84:
 1534 0219 63665F6F 		.ascii	"cf_off_name\000"
 1534      66665F6E 
 1534      616D6500 
 1535              	.LASF35:
 1536 0225 705F6F6C 		.ascii	"p_older\000"
 1536      64657200 
 1537              	.LASF59:
 1538 022d 725F6374 		.ascii	"r_ctx\000"
 1538      7800
 1539              	.LASF50:
 1540 0233 54687265 		.ascii	"ThreadsQueue\000"
 1540      61647351 
 1540      75657565 
 1540      00
ARM GAS  /tmp/ccDmDJNA.s 			page 30


 1541              	.LASF75:
 1542 0240 63685F73 		.ascii	"ch_size\000"
 1542      697A6500 
 1543              	.LASF62:
 1544 0248 725F6375 		.ascii	"r_current\000"
 1544      7272656E 
 1544      7400
 1545              	.LASF61:
 1546 0252 725F6F6C 		.ascii	"r_older\000"
 1546      64657200 
 1547              	.LASF13:
 1548 025a 5F5F7569 		.ascii	"__uint64_t\000"
 1548      6E743634 
 1548      5F7400
 1549              	.LASF23:
 1550 0265 74726566 		.ascii	"trefs_t\000"
 1550      735F7400 
 1551              	.LASF77:
 1552 026d 63685F70 		.ascii	"ch_ptrsize\000"
 1552      74727369 
 1552      7A6500
 1553              	.LASF31:
 1554 0278 705F7072 		.ascii	"p_prev\000"
 1554      657600
 1555              	.LASF25:
 1556 027f 74707269 		.ascii	"tprio_t\000"
 1556      6F5F7400 
 1557              	.LASF20:
 1558 0287 5F426F6F 		.ascii	"_Bool\000"
 1558      6C00
 1559              	.LASF17:
 1560 028d 696E7433 		.ascii	"int32_t\000"
 1560      325F7400 
 1561              	.LASF4:
 1562 0295 756E7369 		.ascii	"unsigned char\000"
 1562      676E6564 
 1562      20636861 
 1562      7200
 1563              	.LASF47:
 1564 02a3 705F6D74 		.ascii	"p_mtxlist\000"
 1564      786C6973 
 1564      7400
 1565              	.LASF5:
 1566 02ad 73686F72 		.ascii	"short int\000"
 1566      7420696E 
 1566      7400
 1567              	.LASF38:
 1568 02b7 705F7374 		.ascii	"p_state\000"
 1568      61746500 
 1569              	.LASF41:
 1570 02bf 705F7072 		.ascii	"p_preempt\000"
 1570      65656D70 
 1570      7400
 1571              	.LASF90:
 1572 02c9 63665F6F 		.ascii	"cf_off_time\000"
 1572      66665F74 
 1572      696D6500 
ARM GAS  /tmp/ccDmDJNA.s 			page 31


 1573              	.LASF58:
 1574 02d5 725F7072 		.ascii	"r_prio\000"
 1574      696F00
 1575              	.LASF71:
 1576 02dc 65776D61 		.ascii	"ewmask\000"
 1576      736B00
 1577              	.LASF30:
 1578 02e3 705F6E65 		.ascii	"p_next\000"
 1578      787400
 1579              	.LASF89:
 1580 02ea 63665F6F 		.ascii	"cf_off_preempt\000"
 1580      66665F70 
 1580      7265656D 
 1580      707400
 1581              	.LASF39:
 1582 02f9 705F666C 		.ascii	"p_flags\000"
 1582      61677300 
 1583              	.LASF29:
 1584 0301 54687265 		.ascii	"Thread\000"
 1584      616400
 1585              	.LASF82:
 1586 0308 63665F6F 		.ascii	"cf_off_newer\000"
 1586      66665F6E 
 1586      65776572 
 1586      00
 1587              	.LASF46:
 1588 0315 705F6570 		.ascii	"p_epending\000"
 1588      656E6469 
 1588      6E6700
 1589              	.LASF18:
 1590 0320 75696E74 		.ascii	"uint32_t\000"
 1590      33325F74 
 1590      00
 1591              	.LASF80:
 1592 0329 63665F6F 		.ascii	"cf_off_prio\000"
 1592      66665F70 
 1592      72696F00 
 1593              	.LASF57:
 1594 0335 725F7175 		.ascii	"r_queue\000"
 1594      65756500 
 1595              	.LASF72:
 1596 033d 63686172 		.ascii	"char\000"
 1596      00
 1597              	.LASF93:
 1598 0342 63685265 		.ascii	"chRegNextThread\000"
 1598      674E6578 
 1598      74546872 
 1598      65616400 
 1599              	.LASF6:
 1600 0352 5F5F7569 		.ascii	"__uint16_t\000"
 1600      6E743136 
 1600      5F7400
 1601              	.LASF67:
 1602 035d 6D5F6E65 		.ascii	"m_next\000"
 1602      787400
 1603              	.LASF28:
 1604 0364 73797374 		.ascii	"systime_t\000"
ARM GAS  /tmp/ccDmDJNA.s 			page 32


 1604      696D655F 
 1604      7400
 1605              	.LASF48:
 1606 036e 705F7265 		.ascii	"p_realprio\000"
 1606      616C7072 
 1606      696F00
 1607              	.LASF8:
 1608 0379 5F5F696E 		.ascii	"__int32_t\000"
 1608      7433325F 
 1608      7400
 1609              	.LASF42:
 1610 0383 705F7469 		.ascii	"p_time\000"
 1610      6D6500
 1611              	.LASF54:
 1612 038a 696E7463 		.ascii	"intctx\000"
 1612      747800
 1613              	.LASF44:
 1614 0391 705F6D73 		.ascii	"p_msgqueue\000"
 1614      67717565 
 1614      756500
 1615              	.LASF81:
 1616 039c 63665F6F 		.ascii	"cf_off_ctx\000"
 1616      66665F63 
 1616      747800
 1617              	.LASF40:
 1618 03a7 705F7265 		.ascii	"p_refs\000"
 1618      667300
 1619              	.LASF63:
 1620 03ae 52656164 		.ascii	"ReadyList\000"
 1620      794C6973 
 1620      7400
 1621              	.LASF94:
 1622 03b8 726C6973 		.ascii	"rlist\000"
 1622      7400
 1623              	.LASF15:
 1624 03be 75696E74 		.ascii	"uint8_t\000"
 1624      385F7400 
 1625              	.LASF70:
 1626 03c6 77746F62 		.ascii	"wtobjp\000"
 1626      6A7000
 1627              	.LASF36:
 1628 03cd 705F6E61 		.ascii	"p_name\000"
 1628      6D6500
 1629              	.LASF76:
 1630 03d4 63685F76 		.ascii	"ch_version\000"
 1630      65727369 
 1630      6F6E00
 1631              	.LASF66:
 1632 03df 6D5F6F77 		.ascii	"m_owner\000"
 1632      6E657200 
 1633              	.LASF96:
 1634 03e7 474E5520 		.ascii	"GNU C 4.9.3 20141119 (release) [ARM/embedded-4_9-br"
 1634      4320342E 
 1634      392E3320 
 1634      32303134 
 1634      31313139 
 1635 041a 616E6368 		.ascii	"anch revision 218278] -mcpu=cortex-m4 -mfloat-abi=h"
ARM GAS  /tmp/ccDmDJNA.s 			page 33


 1635      20726576 
 1635      6973696F 
 1635      6E203231 
 1635      38323738 
 1636 044d 61726420 		.ascii	"ard -mfpu=fpv4-sp-d16 -mno-thumb-interwork -mthumb "
 1636      2D6D6670 
 1636      753D6670 
 1636      76342D73 
 1636      702D6431 
 1637 0480 2D676764 		.ascii	"-ggdb -O0 -fomit-frame-pointer -falign-functions=16"
 1637      62202D4F 
 1637      30202D66 
 1637      6F6D6974 
 1637      2D667261 
 1638 04b3 202D6666 		.ascii	" -ffunction-sections -fdata-sections -fno-common -f"
 1638      756E6374 
 1638      696F6E2D 
 1638      73656374 
 1638      696F6E73 
 1639 04e6 73696E67 		.ascii	"single-precision-constant\000"
 1639      6C652D70 
 1639      72656369 
 1639      73696F6E 
 1639      2D636F6E 
 1640              	.LASF33:
 1641 0500 705F6374 		.ascii	"p_ctx\000"
 1641      7800
 1642              	.LASF43:
 1643 0506 705F7761 		.ascii	"p_waiting\000"
 1643      6974696E 
 1643      6700
 1644              		.ident	"GCC: (GNU Tools for ARM Embedded Processors) 4.9.3 20141119 (release) [ARM/embedded-4_9-br
ARM GAS  /tmp/ccDmDJNA.s 			page 34


DEFINED SYMBOLS
                            *ABS*:00000000 chregistry.c
     /tmp/ccDmDJNA.s:25     .rodata.ch_debug:00000000 ch_debug
     /tmp/ccDmDJNA.s:22     .rodata.ch_debug:00000000 $d
     /tmp/ccDmDJNA.s:45     .text.chRegFirstThread:00000000 $t
     /tmp/ccDmDJNA.s:51     .text.chRegFirstThread:00000000 chRegFirstThread
     /tmp/ccDmDJNA.s:103    .text.chRegFirstThread:00000038 $d
     /tmp/ccDmDJNA.s:108    .rodata:00000000 $d
     /tmp/ccDmDJNA.s:112    .text.chRegNextThread:00000000 $t
     /tmp/ccDmDJNA.s:118    .text.chRegNextThread:00000000 chRegNextThread
     /tmp/ccDmDJNA.s:193    .text.chRegNextThread:00000060 $d
                     .debug_frame:00000010 $d
     /tmp/ccDmDJNA.s:107    .text.chRegFirstThread:0000003c $t
     /tmp/ccDmDJNA.s:198    .text.chRegNextThread:00000068 $t

UNDEFINED SYMBOLS
dbg_check_lock
dbg_check_unlock
rlist
chDbgPanic
chThdRelease
