ARM GAS  /tmp/ccDmDJNA.s 			page 1


   1              		.syntax unified
   2              		.cpu cortex-m4
   3              		.eabi_attribute 27, 3
   4              		.eabi_attribute 28, 1
   5              		.fpu fpv4-sp-d16
   6              		.eabi_attribute 20, 1
   7              		.eabi_attribute 21, 1
   8              		.eabi_attribute 23, 3
   9              		.eabi_attribute 24, 1
  10              		.eabi_attribute 25, 1
  11              		.eabi_attribute 26, 1
  12              		.eabi_attribute 30, 6
  13              		.eabi_attribute 34, 1
  14              		.eabi_attribute 18, 4
  15              		.thumb
  16              		.file	"chregistry.c"
  17              		.text
  18              	.Ltext0:
  19              		.cfi_sections	.debug_frame
  20              		.global	ch_debug
  21              		.section	.rodata.ch_debug,"a",%progbits
  22              		.align	2
  23              		.type	ch_debug, %object
  24              		.size	ch_debug, 22
  25              	ch_debug:
  26 0000 6D61696E 		.ascii	"main"
  27 0004 00       		.byte	0
  28 0005 16       		.byte	22
  29 0006 8511     		.short	4485
  30 0008 04       		.byte	4
  31 0009 04       		.byte	4
  32 000a 4C       		.byte	76
  33 000b 08       		.byte	8
  34 000c 0C       		.byte	12
  35 000d 10       		.byte	16
  36 000e 14       		.byte	20
  37 000f 18       		.byte	24
  38 0010 1C       		.byte	28
  39 0011 20       		.byte	32
  40 0012 21       		.byte	33
  41 0013 22       		.byte	34
  42 0014 23       		.byte	35
  43 0015 24       		.byte	36
  44 0016 0000     		.section	.text.chRegFirstThread,"ax",%progbits
  45              		.align	2
  46              		.p2align 4,,15
  47              		.global	chRegFirstThread
  48              		.thumb
  49              		.thumb_func
  50              		.type	chRegFirstThread, %function
  51              	chRegFirstThread:
  52              	.LFB7:
  53              		.file 1 "/home/ergae/r2p-sdk/core/ChibiOS/os/kernel/src/chregistry.c"
  54              		.loc 1 117 0
  55              		.cfi_startproc
  56              		@ args = 0, pretend = 0, frame = 8
  57              		@ frame_needed = 0, uses_anonymous_args = 0
ARM GAS  /tmp/ccDmDJNA.s 			page 2


  58 0000 00B5     		push	{lr}
  59              		.cfi_def_cfa_offset 4
  60              		.cfi_offset 14, -4
  61 0002 83B0     		sub	sp, sp, #12
  62              		.cfi_def_cfa_offset 16
  63              	.LBB2:
  64              		.loc 1 120 0
  65 0004 2023     		movs	r3, #32
  66              	@ 120 "/home/ergae/r2p-sdk/core/ChibiOS/os/kernel/src/chregistry.c" 1
  67 0006 83F31188 		msr     BASEPRI, r3
  68              	@ 0 "" 2
  69              		.thumb
  70              	.LBE2:
  71 000a FFF7FEFF 		bl	dbg_check_lock
  72              		.loc 1 121 0
  73 000e 0A4B     		ldr	r3, .L3
  74 0010 1B69     		ldr	r3, [r3, #16]
  75 0012 0193     		str	r3, [sp, #4]
  76              		.loc 1 123 0
  77 0014 019B     		ldr	r3, [sp, #4]
  78 0016 93F82230 		ldrb	r3, [r3, #34]	@ zero_extendqisi2
  79 001a 0133     		adds	r3, r3, #1
  80 001c DAB2     		uxtb	r2, r3
  81 001e 019B     		ldr	r3, [sp, #4]
  82 0020 83F82220 		strb	r2, [r3, #34]
  83              		.loc 1 125 0
  84 0024 FFF7FEFF 		bl	dbg_check_unlock
  85              	.LBB3:
  86 0028 0023     		movs	r3, #0
  87              	@ 125 "/home/ergae/r2p-sdk/core/ChibiOS/os/kernel/src/chregistry.c" 1
  88 002a 83F31188 		msr     BASEPRI, r3
  89              	@ 0 "" 2
  90              		.thumb
  91              	.LBE3:
  92              		.loc 1 126 0
  93 002e 019B     		ldr	r3, [sp, #4]
  94              		.loc 1 127 0
  95 0030 1846     		mov	r0, r3
  96 0032 03B0     		add	sp, sp, #12
  97              		.cfi_def_cfa_offset 4
  98              		@ sp needed
  99 0034 5DF804FB 		ldr	pc, [sp], #4
 100              	.L4:
 101              		.align	2
 102              	.L3:
 103 0038 00000000 		.word	rlist
 104              		.cfi_endproc
 105              	.LFE7:
 106              		.size	chRegFirstThread, .-chRegFirstThread
 107 003c AFF30080 		.section	.rodata
 108              		.align	2
 109              	.LC0:
 110 0000 63685265 		.ascii	"chRegNextThread(), #1\000"
 110      674E6578 
 110      74546872 
 110      65616428 
 110      292C2023 
ARM GAS  /tmp/ccDmDJNA.s 			page 3


 111 0016 0000     		.section	.text.chRegNextThread,"ax",%progbits
 112              		.align	2
 113              		.p2align 4,,15
 114              		.global	chRegNextThread
 115              		.thumb
 116              		.thumb_func
 117              		.type	chRegNextThread, %function
 118              	chRegNextThread:
 119              	.LFB8:
 120              		.loc 1 140 0
 121              		.cfi_startproc
 122              		@ args = 0, pretend = 0, frame = 16
 123              		@ frame_needed = 0, uses_anonymous_args = 0
 124 0000 00B5     		push	{lr}
 125              		.cfi_def_cfa_offset 4
 126              		.cfi_offset 14, -4
 127 0002 85B0     		sub	sp, sp, #20
 128              		.cfi_def_cfa_offset 24
 129 0004 0190     		str	r0, [sp, #4]
 130              	.LBB4:
 131              		.loc 1 143 0
 132 0006 2023     		movs	r3, #32
 133              	@ 143 "/home/ergae/r2p-sdk/core/ChibiOS/os/kernel/src/chregistry.c" 1
 134 0008 83F31188 		msr     BASEPRI, r3
 135              	@ 0 "" 2
 136              		.thumb
 137              	.LBE4:
 138 000c FFF7FEFF 		bl	dbg_check_lock
 139              		.loc 1 144 0
 140 0010 019B     		ldr	r3, [sp, #4]
 141 0012 1B69     		ldr	r3, [r3, #16]
 142 0014 0393     		str	r3, [sp, #12]
 143              		.loc 1 145 0
 144 0016 039B     		ldr	r3, [sp, #12]
 145 0018 114A     		ldr	r2, .L10
 146 001a 9342     		cmp	r3, r2
 147 001c 02D1     		bne	.L6
 148              		.loc 1 146 0
 149 001e 0023     		movs	r3, #0
 150 0020 0393     		str	r3, [sp, #12]
 151 0022 0FE0     		b	.L7
 152              	.L6:
 153              		.loc 1 149 0
 154 0024 039B     		ldr	r3, [sp, #12]
 155 0026 93F82230 		ldrb	r3, [r3, #34]	@ zero_extendqisi2
 156 002a FF2B     		cmp	r3, #255
 157 002c 02D1     		bne	.L8
 158              		.loc 1 149 0 is_stmt 0 discriminator 1
 159 002e 0D48     		ldr	r0, .L10+4
 160 0030 FFF7FEFF 		bl	chDbgPanic
 161              	.L8:
 162              		.loc 1 151 0 is_stmt 1
 163 0034 039B     		ldr	r3, [sp, #12]
 164 0036 93F82230 		ldrb	r3, [r3, #34]	@ zero_extendqisi2
 165 003a 0133     		adds	r3, r3, #1
 166 003c DAB2     		uxtb	r2, r3
 167 003e 039B     		ldr	r3, [sp, #12]
ARM GAS  /tmp/ccDmDJNA.s 			page 4


 168 0040 83F82220 		strb	r2, [r3, #34]
 169              	.L7:
 170              		.loc 1 154 0
 171 0044 FFF7FEFF 		bl	dbg_check_unlock
 172              	.LBB5:
 173 0048 0023     		movs	r3, #0
 174              	@ 154 "/home/ergae/r2p-sdk/core/ChibiOS/os/kernel/src/chregistry.c" 1
 175 004a 83F31188 		msr     BASEPRI, r3
 176              	@ 0 "" 2
 177              		.thumb
 178              	.LBE5:
 179              		.loc 1 156 0
 180 004e 0198     		ldr	r0, [sp, #4]
 181 0050 FFF7FEFF 		bl	chThdRelease
 182              		.loc 1 158 0
 183 0054 039B     		ldr	r3, [sp, #12]
 184              		.loc 1 159 0
 185 0056 1846     		mov	r0, r3
 186 0058 05B0     		add	sp, sp, #20
 187              		.cfi_def_cfa_offset 4
 188              		@ sp needed
 189 005a 5DF804FB 		ldr	pc, [sp], #4
 190              	.L11:
 191 005e 00BF     		.align	2
 192              	.L10:
 193 0060 00000000 		.word	rlist
 194 0064 00000000 		.word	.LC0
 195              		.cfi_endproc
 196              	.LFE8:
 197              		.size	chRegNextThread, .-chRegNextThread
 198 0068 AFF30080 		.text
 198      AFF30080 
 199              	.Letext0:
 200              		.file 2 "/home/ergae/r2p-sdk/tools/gcc-arm-none-eabi-4_9-2014q4/lib/gcc/arm-none-eabi/4.9.3/includ
 201              		.file 3 "/home/ergae/r2p-sdk/tools/gcc-arm-none-eabi-4_9-2014q4/arm-none-eabi/include/machine/_def
 202              		.file 4 "/home/ergae/r2p-sdk/tools/gcc-arm-none-eabi-4_9-2014q4/arm-none-eabi/include/stdint.h"
 203              		.file 5 "/home/ergae/r2p-sdk/core/ChibiOS/os/ports/GCC/ARMCMx/chtypes.h"
 204              		.file 6 "/home/ergae/r2p-sdk/core/ChibiOS/os/kernel/include/chlists.h"
 205              		.file 7 "/home/ergae/r2p-sdk/core/ChibiOS/os/kernel/include/chthreads.h"
 206              		.file 8 "/home/ergae/r2p-sdk/core/ChibiOS/os/ports/GCC/ARMCMx/chcore_v7m.h"
 207              		.file 9 "/home/ergae/r2p-sdk/core/ChibiOS/os/kernel/include/chschd.h"
 208              		.file 10 "/home/ergae/r2p-sdk/core/ChibiOS/os/kernel/include/chmtx.h"
 209              		.file 11 "/home/ergae/r2p-sdk/core/ChibiOS/os/kernel/include/chregistry.h"