ARM GAS  /tmp/ccJCaAwF.s 			page 1


   1              		.syntax unified
   2              		.cpu cortex-m4
   3              		.eabi_attribute 27, 3
   4              		.eabi_attribute 28, 1
   5              		.fpu fpv4-sp-d16
   6              		.eabi_attribute 20, 1
   7              		.eabi_attribute 21, 1
   8              		.eabi_attribute 23, 3
   9              		.eabi_attribute 24, 1
  10              		.eabi_attribute 25, 1
  11              		.eabi_attribute 26, 1
  12              		.eabi_attribute 30, 6
  13              		.eabi_attribute 34, 1
  14              		.eabi_attribute 18, 4
  15              		.thumb
  16              		.file	"chsem.c"
  17              		.text
  18              	.Ltext0:
  19              		.cfi_sections	.debug_frame
  20              		.section	.text.queue_insert,"ax",%progbits
  21              		.align	2
  22              		.p2align 4,,15
  23              		.thumb
  24              		.thumb_func
  25              		.type	queue_insert, %function
  26              	queue_insert:
  27              	.LFB1:
  28              		.file 1 "/home/ergae/r2p-sdk/core/ChibiOS/os/kernel/include/chinline.h"
  29              		.loc 1 52 0
  30              		.cfi_startproc
  31              		@ args = 0, pretend = 0, frame = 8
  32              		@ frame_needed = 0, uses_anonymous_args = 0
  33              		@ link register save eliminated.
  34 0000 82B0     		sub	sp, sp, #8
  35              		.cfi_def_cfa_offset 8
  36 0002 0190     		str	r0, [sp, #4]
  37 0004 0091     		str	r1, [sp]
  38              		.loc 1 54 0
  39 0006 019B     		ldr	r3, [sp, #4]
  40 0008 009A     		ldr	r2, [sp]
  41 000a 1A60     		str	r2, [r3]
  42              		.loc 1 55 0
  43 000c 009B     		ldr	r3, [sp]
  44 000e 5A68     		ldr	r2, [r3, #4]
  45 0010 019B     		ldr	r3, [sp, #4]
  46 0012 5A60     		str	r2, [r3, #4]
  47              		.loc 1 56 0
  48 0014 019B     		ldr	r3, [sp, #4]
  49 0016 5B68     		ldr	r3, [r3, #4]
  50 0018 009A     		ldr	r2, [sp]
  51 001a 0199     		ldr	r1, [sp, #4]
  52 001c 5160     		str	r1, [r2, #4]
  53 001e 009A     		ldr	r2, [sp]
  54 0020 5268     		ldr	r2, [r2, #4]
  55 0022 1A60     		str	r2, [r3]
  56              		.loc 1 57 0
  57 0024 02B0     		add	sp, sp, #8
ARM GAS  /tmp/ccJCaAwF.s 			page 2


  58              		.cfi_def_cfa_offset 0
  59              		@ sp needed
  60 0026 7047     		bx	lr
  61              		.cfi_endproc
  62              	.LFE1:
  63              		.size	queue_insert, .-queue_insert
  64 0028 AFF30080 		.section	.text.fifo_remove,"ax",%progbits
  64      AFF30080 
  65              		.align	2
  66              		.p2align 4,,15
  67              		.thumb
  68              		.thumb_func
  69              		.type	fifo_remove, %function
  70              	fifo_remove:
  71              	.LFB2:
  72              		.loc 1 59 0
  73              		.cfi_startproc
  74              		@ args = 0, pretend = 0, frame = 16
  75              		@ frame_needed = 0, uses_anonymous_args = 0
  76              		@ link register save eliminated.
  77 0000 84B0     		sub	sp, sp, #16
  78              		.cfi_def_cfa_offset 16
  79 0002 0190     		str	r0, [sp, #4]
  80              		.loc 1 60 0
  81 0004 019B     		ldr	r3, [sp, #4]
  82 0006 1B68     		ldr	r3, [r3]
  83 0008 0393     		str	r3, [sp, #12]
  84              		.loc 1 62 0
  85 000a 039B     		ldr	r3, [sp, #12]
  86 000c 1A68     		ldr	r2, [r3]
  87 000e 019B     		ldr	r3, [sp, #4]
  88 0010 1A60     		str	r2, [r3]
  89 0012 019B     		ldr	r3, [sp, #4]
  90 0014 1B68     		ldr	r3, [r3]
  91 0016 019A     		ldr	r2, [sp, #4]
  92 0018 5A60     		str	r2, [r3, #4]
  93              		.loc 1 63 0
  94 001a 039B     		ldr	r3, [sp, #12]
  95              		.loc 1 64 0
  96 001c 1846     		mov	r0, r3
  97 001e 04B0     		add	sp, sp, #16
  98              		.cfi_def_cfa_offset 0
  99              		@ sp needed
 100 0020 7047     		bx	lr
 101              		.cfi_endproc
 102              	.LFE2:
 103              		.size	fifo_remove, .-fifo_remove
 104 0022 00BFAFF3 		.section	.text.lifo_remove,"ax",%progbits
 104      0080AFF3 
 104      0080AFF3 
 104      0080
 105              		.align	2
 106              		.p2align 4,,15
 107              		.thumb
 108              		.thumb_func
 109              		.type	lifo_remove, %function
 110              	lifo_remove:
ARM GAS  /tmp/ccJCaAwF.s 			page 3


 111              	.LFB3:
 112              		.loc 1 66 0
 113              		.cfi_startproc
 114              		@ args = 0, pretend = 0, frame = 16
 115              		@ frame_needed = 0, uses_anonymous_args = 0
 116              		@ link register save eliminated.
 117 0000 84B0     		sub	sp, sp, #16
 118              		.cfi_def_cfa_offset 16
 119 0002 0190     		str	r0, [sp, #4]
 120              		.loc 1 67 0
 121 0004 019B     		ldr	r3, [sp, #4]
 122 0006 5B68     		ldr	r3, [r3, #4]
 123 0008 0393     		str	r3, [sp, #12]
 124              		.loc 1 69 0
 125 000a 039B     		ldr	r3, [sp, #12]
 126 000c 5A68     		ldr	r2, [r3, #4]
 127 000e 019B     		ldr	r3, [sp, #4]
 128 0010 5A60     		str	r2, [r3, #4]
 129 0012 019B     		ldr	r3, [sp, #4]
 130 0014 5B68     		ldr	r3, [r3, #4]
 131 0016 019A     		ldr	r2, [sp, #4]
 132 0018 1A60     		str	r2, [r3]
 133              		.loc 1 70 0
 134 001a 039B     		ldr	r3, [sp, #12]
 135              		.loc 1 71 0
 136 001c 1846     		mov	r0, r3
 137 001e 04B0     		add	sp, sp, #16
 138              		.cfi_def_cfa_offset 0
 139              		@ sp needed
 140 0020 7047     		bx	lr
 141              		.cfi_endproc
 142              	.LFE3:
 143              		.size	lifo_remove, .-lifo_remove
 144 0022 00BFAFF3 		.section	.rodata
 144      0080AFF3 
 144      0080AFF3 
 144      0080
 145              		.align	2
 146              	.LC0:
 147 0000 22636853 		.ascii	"\"chSemInit\"()\000"
 147      656D496E 
 147      69742228 
 147      2900
 148              		.section	.text.chSemInit,"ax",%progbits
 149              		.align	2
 150              		.p2align 4,,15
 151              		.global	chSemInit
 152              		.thumb
 153              		.thumb_func
 154              		.type	chSemInit, %function
 155              	chSemInit:
 156              	.LFB7:
 157              		.file 2 "/home/ergae/r2p-sdk/core/ChibiOS/os/kernel/src/chsem.c"
 158              		.loc 2 86 0
 159              		.cfi_startproc
 160              		@ args = 0, pretend = 0, frame = 8
 161              		@ frame_needed = 0, uses_anonymous_args = 0
ARM GAS  /tmp/ccJCaAwF.s 			page 4


 162 0000 00B5     		push	{lr}
 163              		.cfi_def_cfa_offset 4
 164              		.cfi_offset 14, -4
 165 0002 83B0     		sub	sp, sp, #12
 166              		.cfi_def_cfa_offset 16
 167 0004 0190     		str	r0, [sp, #4]
 168 0006 0091     		str	r1, [sp]
 169              		.loc 2 88 0
 170 0008 019B     		ldr	r3, [sp, #4]
 171 000a 002B     		cmp	r3, #0
 172 000c 02D0     		beq	.L7
 173              		.loc 2 88 0 is_stmt 0 discriminator 2
 174 000e 009B     		ldr	r3, [sp]
 175 0010 002B     		cmp	r3, #0
 176 0012 02DA     		bge	.L8
 177              	.L7:
 178              		.loc 2 88 0 discriminator 3
 179 0014 0748     		ldr	r0, .L9
 180 0016 FFF7FEFF 		bl	chDbgPanic
 181              	.L8:
 182              		.loc 2 90 0 is_stmt 1
 183 001a 019A     		ldr	r2, [sp, #4]
 184 001c 019B     		ldr	r3, [sp, #4]
 185 001e 5A60     		str	r2, [r3, #4]
 186 0020 019B     		ldr	r3, [sp, #4]
 187 0022 5A68     		ldr	r2, [r3, #4]
 188 0024 019B     		ldr	r3, [sp, #4]
 189 0026 1A60     		str	r2, [r3]
 190              		.loc 2 91 0
 191 0028 019B     		ldr	r3, [sp, #4]
 192 002a 009A     		ldr	r2, [sp]
 193 002c 9A60     		str	r2, [r3, #8]
 194              		.loc 2 92 0
 195 002e 03B0     		add	sp, sp, #12
 196              		.cfi_def_cfa_offset 4
 197              		@ sp needed
 198 0030 5DF804FB 		ldr	pc, [sp], #4
 199              	.L10:
 200              		.align	2
 201              	.L9:
 202 0034 00000000 		.word	.LC0
 203              		.cfi_endproc
 204              	.LFE7:
 205              		.size	chSemInit, .-chSemInit
 206 0038 AFF30080 		.section	.text.chSemReset,"ax",%progbits
 206      AFF30080 
 207              		.align	2
 208              		.p2align 4,,15
 209              		.global	chSemReset
 210              		.thumb
 211              		.thumb_func
 212              		.type	chSemReset, %function
 213              	chSemReset:
 214              	.LFB8:
 215              		.loc 2 109 0
 216              		.cfi_startproc
 217              		@ args = 0, pretend = 0, frame = 8
ARM GAS  /tmp/ccJCaAwF.s 			page 5


 218              		@ frame_needed = 0, uses_anonymous_args = 0
 219 0000 00B5     		push	{lr}
 220              		.cfi_def_cfa_offset 4
 221              		.cfi_offset 14, -4
 222 0002 83B0     		sub	sp, sp, #12
 223              		.cfi_def_cfa_offset 16
 224 0004 0190     		str	r0, [sp, #4]
 225 0006 0091     		str	r1, [sp]
 226              	.LBB2:
 227              		.loc 2 111 0
 228 0008 2023     		movs	r3, #32
 229              	@ 111 "/home/ergae/r2p-sdk/core/ChibiOS/os/kernel/src/chsem.c" 1
 230 000a 83F31188 		msr     BASEPRI, r3
 231              	@ 0 "" 2
 232              		.thumb
 233              	.LBE2:
 234 000e FFF7FEFF 		bl	dbg_check_lock
 235              		.loc 2 112 0
 236 0012 0198     		ldr	r0, [sp, #4]
 237 0014 0099     		ldr	r1, [sp]
 238 0016 FFF7FEFF 		bl	chSemResetI
 239              		.loc 2 113 0
 240 001a FFF7FEFF 		bl	chSchRescheduleS
 241              		.loc 2 114 0
 242 001e FFF7FEFF 		bl	dbg_check_unlock
 243              	.LBB3:
 244 0022 0023     		movs	r3, #0
 245              	@ 114 "/home/ergae/r2p-sdk/core/ChibiOS/os/kernel/src/chsem.c" 1
 246 0024 83F31188 		msr     BASEPRI, r3
 247              	@ 0 "" 2
 248              		.thumb
 249              	.LBE3:
 250              		.loc 2 115 0
 251 0028 03B0     		add	sp, sp, #12
 252              		.cfi_def_cfa_offset 4
 253              		@ sp needed
 254 002a 5DF804FB 		ldr	pc, [sp], #4
 255              		.cfi_endproc
 256              	.LFE8:
 257              		.size	chSemReset, .-chSemReset
 258 002e 00BF     		.section	.rodata
 259 000e 0000     		.align	2
 260              	.LC1:
 261 0010 22636853 		.ascii	"\"chSemResetI\"()\000"
 261      656D5265 
 261      73657449 
 261      22282900 
 262              		.align	2
 263              	.LC2:
 264 0020 63685365 		.ascii	"chSemResetI(), #1\000"
 264      6D526573 
 264      65744928 
 264      292C2023 
 264      3100
 265              		.section	.text.chSemResetI,"ax",%progbits
 266              		.align	2
 267              		.p2align 4,,15
ARM GAS  /tmp/ccJCaAwF.s 			page 6


 268              		.global	chSemResetI
 269              		.thumb
 270              		.thumb_func
 271              		.type	chSemResetI, %function
 272              	chSemResetI:
 273              	.LFB9:
 274              		.loc 2 136 0
 275              		.cfi_startproc
 276              		@ args = 0, pretend = 0, frame = 16
 277              		@ frame_needed = 0, uses_anonymous_args = 0
 278 0000 00B5     		push	{lr}
 279              		.cfi_def_cfa_offset 4
 280              		.cfi_offset 14, -4
 281 0002 85B0     		sub	sp, sp, #20
 282              		.cfi_def_cfa_offset 24
 283 0004 0190     		str	r0, [sp, #4]
 284 0006 0091     		str	r1, [sp]
 285              		.loc 2 139 0
 286 0008 FFF7FEFF 		bl	chDbgCheckClassI
 287              		.loc 2 140 0
 288 000c 019B     		ldr	r3, [sp, #4]
 289 000e 002B     		cmp	r3, #0
 290 0010 02D0     		beq	.L13
 291              		.loc 2 140 0 is_stmt 0 discriminator 2
 292 0012 009B     		ldr	r3, [sp]
 293 0014 002B     		cmp	r3, #0
 294 0016 02DA     		bge	.L14
 295              	.L13:
 296              		.loc 2 140 0 discriminator 3
 297 0018 1948     		ldr	r0, .L20
 298 001a FFF7FEFF 		bl	chDbgPanic
 299              	.L14:
 300              		.loc 2 141 0 is_stmt 1
 301 001e 019B     		ldr	r3, [sp, #4]
 302 0020 9B68     		ldr	r3, [r3, #8]
 303 0022 002B     		cmp	r3, #0
 304 0024 04DB     		blt	.L15
 305              		.loc 2 141 0 is_stmt 0 discriminator 2
 306 0026 019B     		ldr	r3, [sp, #4]
 307 0028 1A68     		ldr	r2, [r3]
 308 002a 019B     		ldr	r3, [sp, #4]
 309 002c 9A42     		cmp	r2, r3
 310 002e 0BD0     		beq	.L16
 311              	.L15:
 312              		.loc 2 141 0 discriminator 3
 313 0030 019B     		ldr	r3, [sp, #4]
 314 0032 9B68     		ldr	r3, [r3, #8]
 315 0034 002B     		cmp	r3, #0
 316 0036 04DA     		bge	.L17
 317              		.loc 2 141 0 discriminator 5
 318 0038 019B     		ldr	r3, [sp, #4]
 319 003a 1A68     		ldr	r2, [r3]
 320 003c 019B     		ldr	r3, [sp, #4]
 321 003e 9A42     		cmp	r2, r3
 322 0040 02D1     		bne	.L16
 323              	.L17:
 324              		.loc 2 141 0 discriminator 6
ARM GAS  /tmp/ccJCaAwF.s 			page 7


 325 0042 1048     		ldr	r0, .L20+4
 326 0044 FFF7FEFF 		bl	chDbgPanic
 327              	.L16:
 328              		.loc 2 146 0 is_stmt 1
 329 0048 019B     		ldr	r3, [sp, #4]
 330 004a 9B68     		ldr	r3, [r3, #8]
 331 004c 0393     		str	r3, [sp, #12]
 332              		.loc 2 147 0
 333 004e 019B     		ldr	r3, [sp, #4]
 334 0050 009A     		ldr	r2, [sp]
 335 0052 9A60     		str	r2, [r3, #8]
 336              		.loc 2 148 0
 337 0054 0BE0     		b	.L18
 338              	.L19:
 339              		.loc 2 149 0
 340 0056 019B     		ldr	r3, [sp, #4]
 341 0058 1846     		mov	r0, r3
 342 005a FFF7FEFF 		bl	lifo_remove
 343 005e 0346     		mov	r3, r0
 344 0060 1846     		mov	r0, r3
 345 0062 FFF7FEFF 		bl	chSchReadyI
 346 0066 0246     		mov	r2, r0
 347 0068 6FF00103 		mvn	r3, #1
 348 006c 9362     		str	r3, [r2, #40]
 349              	.L18:
 350              		.loc 2 148 0
 351 006e 039B     		ldr	r3, [sp, #12]
 352 0070 0133     		adds	r3, r3, #1
 353 0072 0393     		str	r3, [sp, #12]
 354 0074 039B     		ldr	r3, [sp, #12]
 355 0076 002B     		cmp	r3, #0
 356 0078 EDDD     		ble	.L19
 357              		.loc 2 150 0
 358 007a 05B0     		add	sp, sp, #20
 359              		.cfi_def_cfa_offset 4
 360              		@ sp needed
 361 007c 5DF804FB 		ldr	pc, [sp], #4
 362              	.L21:
 363              		.align	2
 364              	.L20:
 365 0080 10000000 		.word	.LC1
 366 0084 20000000 		.word	.LC2
 367              		.cfi_endproc
 368              	.LFE9:
 369              		.size	chSemResetI, .-chSemResetI
 370              		.section	.text.chSemWait,"ax",%progbits
 371              		.align	2
 372              		.p2align 4,,15
 373              		.global	chSemWait
 374              		.thumb
 375              		.thumb_func
 376              		.type	chSemWait, %function
 377              	chSemWait:
 378              	.LFB10:
 379              		.loc 2 164 0
 380              		.cfi_startproc
 381              		@ args = 0, pretend = 0, frame = 16
ARM GAS  /tmp/ccJCaAwF.s 			page 8


 382              		@ frame_needed = 0, uses_anonymous_args = 0
 383 0000 00B5     		push	{lr}
 384              		.cfi_def_cfa_offset 4
 385              		.cfi_offset 14, -4
 386 0002 85B0     		sub	sp, sp, #20
 387              		.cfi_def_cfa_offset 24
 388 0004 0190     		str	r0, [sp, #4]
 389              	.LBB4:
 390              		.loc 2 167 0
 391 0006 2023     		movs	r3, #32
 392              	@ 167 "/home/ergae/r2p-sdk/core/ChibiOS/os/kernel/src/chsem.c" 1
 393 0008 83F31188 		msr     BASEPRI, r3
 394              	@ 0 "" 2
 395              		.thumb
 396              	.LBE4:
 397 000c FFF7FEFF 		bl	dbg_check_lock
 398              		.loc 2 168 0
 399 0010 0198     		ldr	r0, [sp, #4]
 400 0012 FFF7FEFF 		bl	chSemWaitS
 401 0016 0390     		str	r0, [sp, #12]
 402              		.loc 2 169 0
 403 0018 FFF7FEFF 		bl	dbg_check_unlock
 404              	.LBB5:
 405 001c 0023     		movs	r3, #0
 406              	@ 169 "/home/ergae/r2p-sdk/core/ChibiOS/os/kernel/src/chsem.c" 1
 407 001e 83F31188 		msr     BASEPRI, r3
 408              	@ 0 "" 2
 409              		.thumb
 410              	.LBE5:
 411              		.loc 2 170 0
 412 0022 039B     		ldr	r3, [sp, #12]
 413              		.loc 2 171 0
 414 0024 1846     		mov	r0, r3
 415 0026 05B0     		add	sp, sp, #20
 416              		.cfi_def_cfa_offset 4
 417              		@ sp needed
 418 0028 5DF804FB 		ldr	pc, [sp], #4
 419              		.cfi_endproc
 420              	.LFE10:
 421              		.size	chSemWait, .-chSemWait
 422 002c AFF30080 		.section	.rodata
 423 0032 0000     		.align	2
 424              	.LC3:
 425 0034 22636853 		.ascii	"\"chSemWaitS\"()\000"
 425      656D5761 
 425      69745322 
 425      282900
 426 0043 00       		.align	2
 427              	.LC4:
 428 0044 63685365 		.ascii	"chSemWaitS(), #1\000"
 428      6D576169 
 428      74532829 
 428      2C202331 
 428      00
 429              		.section	.text.chSemWaitS,"ax",%progbits
 430              		.align	2
 431              		.p2align 4,,15
ARM GAS  /tmp/ccJCaAwF.s 			page 9


 432              		.global	chSemWaitS
 433              		.thumb
 434              		.thumb_func
 435              		.type	chSemWaitS, %function
 436              	chSemWaitS:
 437              	.LFB11:
 438              		.loc 2 185 0
 439              		.cfi_startproc
 440              		@ args = 0, pretend = 0, frame = 8
 441              		@ frame_needed = 0, uses_anonymous_args = 0
 442 0000 00B5     		push	{lr}
 443              		.cfi_def_cfa_offset 4
 444              		.cfi_offset 14, -4
 445 0002 83B0     		sub	sp, sp, #12
 446              		.cfi_def_cfa_offset 16
 447 0004 0190     		str	r0, [sp, #4]
 448              		.loc 2 187 0
 449 0006 FFF7FEFF 		bl	chDbgCheckClassS
 450              		.loc 2 188 0
 451 000a 019B     		ldr	r3, [sp, #4]
 452 000c 002B     		cmp	r3, #0
 453 000e 02D1     		bne	.L25
 454              		.loc 2 188 0 is_stmt 0 discriminator 1
 455 0010 1B48     		ldr	r0, .L31
 456 0012 FFF7FEFF 		bl	chDbgPanic
 457              	.L25:
 458              		.loc 2 189 0 is_stmt 1
 459 0016 019B     		ldr	r3, [sp, #4]
 460 0018 9B68     		ldr	r3, [r3, #8]
 461 001a 002B     		cmp	r3, #0
 462 001c 04DB     		blt	.L26
 463              		.loc 2 189 0 is_stmt 0 discriminator 2
 464 001e 019B     		ldr	r3, [sp, #4]
 465 0020 1A68     		ldr	r2, [r3]
 466 0022 019B     		ldr	r3, [sp, #4]
 467 0024 9A42     		cmp	r2, r3
 468 0026 0BD0     		beq	.L27
 469              	.L26:
 470              		.loc 2 189 0 discriminator 3
 471 0028 019B     		ldr	r3, [sp, #4]
 472 002a 9B68     		ldr	r3, [r3, #8]
 473 002c 002B     		cmp	r3, #0
 474 002e 04DA     		bge	.L28
 475              		.loc 2 189 0 discriminator 5
 476 0030 019B     		ldr	r3, [sp, #4]
 477 0032 1A68     		ldr	r2, [r3]
 478 0034 019B     		ldr	r3, [sp, #4]
 479 0036 9A42     		cmp	r2, r3
 480 0038 02D1     		bne	.L27
 481              	.L28:
 482              		.loc 2 189 0 discriminator 6
 483 003a 1248     		ldr	r0, .L31+4
 484 003c FFF7FEFF 		bl	chDbgPanic
 485              	.L27:
 486              		.loc 2 194 0 is_stmt 1
 487 0040 019B     		ldr	r3, [sp, #4]
 488 0042 9B68     		ldr	r3, [r3, #8]
ARM GAS  /tmp/ccJCaAwF.s 			page 10


 489 0044 5A1E     		subs	r2, r3, #1
 490 0046 019B     		ldr	r3, [sp, #4]
 491 0048 9A60     		str	r2, [r3, #8]
 492 004a 019B     		ldr	r3, [sp, #4]
 493 004c 9B68     		ldr	r3, [r3, #8]
 494 004e 002B     		cmp	r3, #0
 495 0050 11DA     		bge	.L29
 496              		.loc 2 195 0
 497 0052 0D4B     		ldr	r3, .L31+8
 498 0054 9B69     		ldr	r3, [r3, #24]
 499 0056 019A     		ldr	r2, [sp, #4]
 500 0058 9A62     		str	r2, [r3, #40]
 501              		.loc 2 196 0
 502 005a 0B4B     		ldr	r3, .L31+8
 503 005c 9A69     		ldr	r2, [r3, #24]
 504 005e 019B     		ldr	r3, [sp, #4]
 505 0060 1046     		mov	r0, r2
 506 0062 1946     		mov	r1, r3
 507 0064 FFF7FEFF 		bl	queue_insert
 508              		.loc 2 197 0
 509 0068 0320     		movs	r0, #3
 510 006a FFF7FEFF 		bl	chSchGoSleepS
 511              		.loc 2 198 0
 512 006e 064B     		ldr	r3, .L31+8
 513 0070 9B69     		ldr	r3, [r3, #24]
 514 0072 9B6A     		ldr	r3, [r3, #40]
 515 0074 00E0     		b	.L30
 516              	.L29:
 517              		.loc 2 200 0
 518 0076 0023     		movs	r3, #0
 519              	.L30:
 520              		.loc 2 201 0
 521 0078 1846     		mov	r0, r3
 522 007a 03B0     		add	sp, sp, #12
 523              		.cfi_def_cfa_offset 4
 524              		@ sp needed
 525 007c 5DF804FB 		ldr	pc, [sp], #4
 526              	.L32:
 527              		.align	2
 528              	.L31:
 529 0080 34000000 		.word	.LC3
 530 0084 44000000 		.word	.LC4
 531 0088 00000000 		.word	rlist
 532              		.cfi_endproc
 533              	.LFE11:
 534              		.size	chSemWaitS, .-chSemWaitS
 535 008c AFF30080 		.section	.text.chSemWaitTimeout,"ax",%progbits
 536              		.align	2
 537              		.p2align 4,,15
 538              		.global	chSemWaitTimeout
 539              		.thumb
 540              		.thumb_func
 541              		.type	chSemWaitTimeout, %function
 542              	chSemWaitTimeout:
 543              	.LFB12:
 544              		.loc 2 222 0
 545              		.cfi_startproc
ARM GAS  /tmp/ccJCaAwF.s 			page 11


 546              		@ args = 0, pretend = 0, frame = 16
 547              		@ frame_needed = 0, uses_anonymous_args = 0
 548 0000 00B5     		push	{lr}
 549              		.cfi_def_cfa_offset 4
 550              		.cfi_offset 14, -4
 551 0002 85B0     		sub	sp, sp, #20
 552              		.cfi_def_cfa_offset 24
 553 0004 0190     		str	r0, [sp, #4]
 554 0006 0091     		str	r1, [sp]
 555              	.LBB6:
 556              		.loc 2 225 0
 557 0008 2023     		movs	r3, #32
 558              	@ 225 "/home/ergae/r2p-sdk/core/ChibiOS/os/kernel/src/chsem.c" 1
 559 000a 83F31188 		msr     BASEPRI, r3
 560              	@ 0 "" 2
 561              		.thumb
 562              	.LBE6:
 563 000e FFF7FEFF 		bl	dbg_check_lock
 564              		.loc 2 226 0
 565 0012 0198     		ldr	r0, [sp, #4]
 566 0014 0099     		ldr	r1, [sp]
 567 0016 FFF7FEFF 		bl	chSemWaitTimeoutS
 568 001a 0390     		str	r0, [sp, #12]
 569              		.loc 2 227 0
 570 001c FFF7FEFF 		bl	dbg_check_unlock
 571              	.LBB7:
 572 0020 0023     		movs	r3, #0
 573              	@ 227 "/home/ergae/r2p-sdk/core/ChibiOS/os/kernel/src/chsem.c" 1
 574 0022 83F31188 		msr     BASEPRI, r3
 575              	@ 0 "" 2
 576              		.thumb
 577              	.LBE7:
 578              		.loc 2 228 0
 579 0026 039B     		ldr	r3, [sp, #12]
 580              		.loc 2 229 0
 581 0028 1846     		mov	r0, r3
 582 002a 05B0     		add	sp, sp, #20
 583              		.cfi_def_cfa_offset 4
 584              		@ sp needed
 585 002c 5DF804FB 		ldr	pc, [sp], #4
 586              		.cfi_endproc
 587              	.LFE12:
 588              		.size	chSemWaitTimeout, .-chSemWaitTimeout
 589              		.section	.rodata
 590 0055 000000   		.align	2
 591              	.LC5:
 592 0058 22636853 		.ascii	"\"chSemWaitTimeoutS\"()\000"
 592      656D5761 
 592      69745469 
 592      6D656F75 
 592      74532228 
 593 006e 0000     		.align	2
 594              	.LC6:
 595 0070 63685365 		.ascii	"chSemWaitTimeoutS(), #1\000"
 595      6D576169 
 595      7454696D 
 595      656F7574 
ARM GAS  /tmp/ccJCaAwF.s 			page 12


 595      5328292C 
 596              		.section	.text.chSemWaitTimeoutS,"ax",%progbits
 597              		.align	2
 598              		.p2align 4,,15
 599              		.global	chSemWaitTimeoutS
 600              		.thumb
 601              		.thumb_func
 602              		.type	chSemWaitTimeoutS, %function
 603              	chSemWaitTimeoutS:
 604              	.LFB13:
 605              		.loc 2 250 0
 606              		.cfi_startproc
 607              		@ args = 0, pretend = 0, frame = 8
 608              		@ frame_needed = 0, uses_anonymous_args = 0
 609 0000 00B5     		push	{lr}
 610              		.cfi_def_cfa_offset 4
 611              		.cfi_offset 14, -4
 612 0002 83B0     		sub	sp, sp, #12
 613              		.cfi_def_cfa_offset 16
 614 0004 0190     		str	r0, [sp, #4]
 615 0006 0091     		str	r1, [sp]
 616              		.loc 2 252 0
 617 0008 FFF7FEFF 		bl	chDbgCheckClassS
 618              		.loc 2 253 0
 619 000c 019B     		ldr	r3, [sp, #4]
 620 000e 002B     		cmp	r3, #0
 621 0010 02D1     		bne	.L36
 622              		.loc 2 253 0 is_stmt 0 discriminator 1
 623 0012 2148     		ldr	r0, .L43
 624 0014 FFF7FEFF 		bl	chDbgPanic
 625              	.L36:
 626              		.loc 2 254 0 is_stmt 1
 627 0018 019B     		ldr	r3, [sp, #4]
 628 001a 9B68     		ldr	r3, [r3, #8]
 629 001c 002B     		cmp	r3, #0
 630 001e 04DB     		blt	.L37
 631              		.loc 2 254 0 is_stmt 0 discriminator 2
 632 0020 019B     		ldr	r3, [sp, #4]
 633 0022 1A68     		ldr	r2, [r3]
 634 0024 019B     		ldr	r3, [sp, #4]
 635 0026 9A42     		cmp	r2, r3
 636 0028 0BD0     		beq	.L38
 637              	.L37:
 638              		.loc 2 254 0 discriminator 3
 639 002a 019B     		ldr	r3, [sp, #4]
 640 002c 9B68     		ldr	r3, [r3, #8]
 641 002e 002B     		cmp	r3, #0
 642 0030 04DA     		bge	.L39
 643              		.loc 2 254 0 discriminator 5
 644 0032 019B     		ldr	r3, [sp, #4]
 645 0034 1A68     		ldr	r2, [r3]
 646 0036 019B     		ldr	r3, [sp, #4]
 647 0038 9A42     		cmp	r2, r3
 648 003a 02D1     		bne	.L38
 649              	.L39:
 650              		.loc 2 254 0 discriminator 6
 651 003c 1748     		ldr	r0, .L43+4
ARM GAS  /tmp/ccJCaAwF.s 			page 13


 652 003e FFF7FEFF 		bl	chDbgPanic
 653              	.L38:
 654              		.loc 2 259 0 is_stmt 1
 655 0042 019B     		ldr	r3, [sp, #4]
 656 0044 9B68     		ldr	r3, [r3, #8]
 657 0046 5A1E     		subs	r2, r3, #1
 658 0048 019B     		ldr	r3, [sp, #4]
 659 004a 9A60     		str	r2, [r3, #8]
 660 004c 019B     		ldr	r3, [sp, #4]
 661 004e 9B68     		ldr	r3, [r3, #8]
 662 0050 002B     		cmp	r3, #0
 663 0052 1BDA     		bge	.L40
 664              		.loc 2 260 0
 665 0054 009B     		ldr	r3, [sp]
 666 0056 002B     		cmp	r3, #0
 667 0058 07D1     		bne	.L41
 668              		.loc 2 261 0
 669 005a 019B     		ldr	r3, [sp, #4]
 670 005c 9B68     		ldr	r3, [r3, #8]
 671 005e 5A1C     		adds	r2, r3, #1
 672 0060 019B     		ldr	r3, [sp, #4]
 673 0062 9A60     		str	r2, [r3, #8]
 674              		.loc 2 262 0
 675 0064 4FF0FF33 		mov	r3, #-1
 676 0068 11E0     		b	.L42
 677              	.L41:
 678              		.loc 2 264 0
 679 006a 0D4B     		ldr	r3, .L43+8
 680 006c 9B69     		ldr	r3, [r3, #24]
 681 006e 019A     		ldr	r2, [sp, #4]
 682 0070 9A62     		str	r2, [r3, #40]
 683              		.loc 2 265 0
 684 0072 0B4B     		ldr	r3, .L43+8
 685 0074 9A69     		ldr	r2, [r3, #24]
 686 0076 019B     		ldr	r3, [sp, #4]
 687 0078 1046     		mov	r0, r2
 688 007a 1946     		mov	r1, r3
 689 007c FFF7FEFF 		bl	queue_insert
 690              		.loc 2 266 0
 691 0080 0320     		movs	r0, #3
 692 0082 0099     		ldr	r1, [sp]
 693 0084 FFF7FEFF 		bl	chSchGoSleepTimeoutS
 694 0088 0346     		mov	r3, r0
 695 008a 00E0     		b	.L42
 696              	.L40:
 697              		.loc 2 268 0
 698 008c 0023     		movs	r3, #0
 699              	.L42:
 700              		.loc 2 269 0
 701 008e 1846     		mov	r0, r3
 702 0090 03B0     		add	sp, sp, #12
 703              		.cfi_def_cfa_offset 4
 704              		@ sp needed
 705 0092 5DF804FB 		ldr	pc, [sp], #4
 706              	.L44:
 707 0096 00BF     		.align	2
 708              	.L43:
ARM GAS  /tmp/ccJCaAwF.s 			page 14


 709 0098 58000000 		.word	.LC5
 710 009c 70000000 		.word	.LC6
 711 00a0 00000000 		.word	rlist
 712              		.cfi_endproc
 713              	.LFE13:
 714              		.size	chSemWaitTimeoutS, .-chSemWaitTimeoutS
 715 00a4 AFF30080 		.section	.rodata
 715      AFF30080 
 715      AFF30080 
 716              		.align	2
 717              	.LC7:
 718 0088 22636853 		.ascii	"\"chSemSignal\"()\000"
 718      656D5369 
 718      676E616C 
 718      22282900 
 719              		.align	2
 720              	.LC8:
 721 0098 63685365 		.ascii	"chSemSignal(), #1\000"
 721      6D536967 
 721      6E616C28 
 721      292C2023 
 721      3100
 722              		.section	.text.chSemSignal,"ax",%progbits
 723              		.align	2
 724              		.p2align 4,,15
 725              		.global	chSemSignal
 726              		.thumb
 727              		.thumb_func
 728              		.type	chSemSignal, %function
 729              	chSemSignal:
 730              	.LFB14:
 731              		.loc 2 278 0
 732              		.cfi_startproc
 733              		@ args = 0, pretend = 0, frame = 8
 734              		@ frame_needed = 0, uses_anonymous_args = 0
 735 0000 00B5     		push	{lr}
 736              		.cfi_def_cfa_offset 4
 737              		.cfi_offset 14, -4
 738 0002 83B0     		sub	sp, sp, #12
 739              		.cfi_def_cfa_offset 16
 740 0004 0190     		str	r0, [sp, #4]
 741              		.loc 2 280 0
 742 0006 019B     		ldr	r3, [sp, #4]
 743 0008 002B     		cmp	r3, #0
 744 000a 02D1     		bne	.L46
 745              		.loc 2 280 0 is_stmt 0 discriminator 1
 746 000c 1B48     		ldr	r0, .L51
 747 000e FFF7FEFF 		bl	chDbgPanic
 748              	.L46:
 749              		.loc 2 281 0 is_stmt 1
 750 0012 019B     		ldr	r3, [sp, #4]
 751 0014 9B68     		ldr	r3, [r3, #8]
 752 0016 002B     		cmp	r3, #0
 753 0018 04DB     		blt	.L47
 754              		.loc 2 281 0 is_stmt 0 discriminator 2
 755 001a 019B     		ldr	r3, [sp, #4]
 756 001c 1A68     		ldr	r2, [r3]
ARM GAS  /tmp/ccJCaAwF.s 			page 15


 757 001e 019B     		ldr	r3, [sp, #4]
 758 0020 9A42     		cmp	r2, r3
 759 0022 0BD0     		beq	.L48
 760              	.L47:
 761              		.loc 2 281 0 discriminator 3
 762 0024 019B     		ldr	r3, [sp, #4]
 763 0026 9B68     		ldr	r3, [r3, #8]
 764 0028 002B     		cmp	r3, #0
 765 002a 04DA     		bge	.L49
 766              		.loc 2 281 0 discriminator 5
 767 002c 019B     		ldr	r3, [sp, #4]
 768 002e 1A68     		ldr	r2, [r3]
 769 0030 019B     		ldr	r3, [sp, #4]
 770 0032 9A42     		cmp	r2, r3
 771 0034 02D1     		bne	.L48
 772              	.L49:
 773              		.loc 2 281 0 discriminator 6
 774 0036 1248     		ldr	r0, .L51+4
 775 0038 FFF7FEFF 		bl	chDbgPanic
 776              	.L48:
 777              	.LBB8:
 778              		.loc 2 286 0 is_stmt 1
 779 003c 2023     		movs	r3, #32
 780              	@ 286 "/home/ergae/r2p-sdk/core/ChibiOS/os/kernel/src/chsem.c" 1
 781 003e 83F31188 		msr     BASEPRI, r3
 782              	@ 0 "" 2
 783              		.thumb
 784              	.LBE8:
 785 0042 FFF7FEFF 		bl	dbg_check_lock
 786              		.loc 2 287 0
 787 0046 019B     		ldr	r3, [sp, #4]
 788 0048 9B68     		ldr	r3, [r3, #8]
 789 004a 5A1C     		adds	r2, r3, #1
 790 004c 019B     		ldr	r3, [sp, #4]
 791 004e 9A60     		str	r2, [r3, #8]
 792 0050 019B     		ldr	r3, [sp, #4]
 793 0052 9B68     		ldr	r3, [r3, #8]
 794 0054 002B     		cmp	r3, #0
 795 0056 08DC     		bgt	.L50
 796              		.loc 2 288 0
 797 0058 019B     		ldr	r3, [sp, #4]
 798 005a 1846     		mov	r0, r3
 799 005c FFF7FEFF 		bl	fifo_remove
 800 0060 0346     		mov	r3, r0
 801 0062 1846     		mov	r0, r3
 802 0064 0021     		movs	r1, #0
 803 0066 FFF7FEFF 		bl	chSchWakeupS
 804              	.L50:
 805              		.loc 2 289 0
 806 006a FFF7FEFF 		bl	dbg_check_unlock
 807              	.LBB9:
 808 006e 0023     		movs	r3, #0
 809              	@ 289 "/home/ergae/r2p-sdk/core/ChibiOS/os/kernel/src/chsem.c" 1
 810 0070 83F31188 		msr     BASEPRI, r3
 811              	@ 0 "" 2
 812              		.thumb
 813              	.LBE9:
ARM GAS  /tmp/ccJCaAwF.s 			page 16


 814              		.loc 2 290 0
 815 0074 03B0     		add	sp, sp, #12
 816              		.cfi_def_cfa_offset 4
 817              		@ sp needed
 818 0076 5DF804FB 		ldr	pc, [sp], #4
 819              	.L52:
 820 007a 00BF     		.align	2
 821              	.L51:
 822 007c 88000000 		.word	.LC7
 823 0080 98000000 		.word	.LC8
 824              		.cfi_endproc
 825              	.LFE14:
 826              		.size	chSemSignal, .-chSemSignal
 827 0084 AFF30080 		.section	.rodata
 827      AFF30080 
 827      AFF30080 
 828 00aa 0000     		.align	2
 829              	.LC9:
 830 00ac 22636853 		.ascii	"\"chSemSignalI\"()\000"
 830      656D5369 
 830      676E616C 
 830      49222829 
 830      00
 831 00bd 000000   		.align	2
 832              	.LC10:
 833 00c0 63685365 		.ascii	"chSemSignalI(), #1\000"
 833      6D536967 
 833      6E616C49 
 833      28292C20 
 833      233100
 834              		.section	.text.chSemSignalI,"ax",%progbits
 835              		.align	2
 836              		.p2align 4,,15
 837              		.global	chSemSignalI
 838              		.thumb
 839              		.thumb_func
 840              		.type	chSemSignalI, %function
 841              	chSemSignalI:
 842              	.LFB15:
 843              		.loc 2 303 0
 844              		.cfi_startproc
 845              		@ args = 0, pretend = 0, frame = 16
 846              		@ frame_needed = 0, uses_anonymous_args = 0
 847 0000 00B5     		push	{lr}
 848              		.cfi_def_cfa_offset 4
 849              		.cfi_offset 14, -4
 850 0002 85B0     		sub	sp, sp, #20
 851              		.cfi_def_cfa_offset 24
 852 0004 0190     		str	r0, [sp, #4]
 853              		.loc 2 305 0
 854 0006 FFF7FEFF 		bl	chDbgCheckClassI
 855              		.loc 2 306 0
 856 000a 019B     		ldr	r3, [sp, #4]
 857 000c 002B     		cmp	r3, #0
 858 000e 02D1     		bne	.L54
 859              		.loc 2 306 0 is_stmt 0 discriminator 1
 860 0010 1748     		ldr	r0, .L59
ARM GAS  /tmp/ccJCaAwF.s 			page 17


 861 0012 FFF7FEFF 		bl	chDbgPanic
 862              	.L54:
 863              		.loc 2 307 0 is_stmt 1
 864 0016 019B     		ldr	r3, [sp, #4]
 865 0018 9B68     		ldr	r3, [r3, #8]
 866 001a 002B     		cmp	r3, #0
 867 001c 04DB     		blt	.L55
 868              		.loc 2 307 0 is_stmt 0 discriminator 2
 869 001e 019B     		ldr	r3, [sp, #4]
 870 0020 1A68     		ldr	r2, [r3]
 871 0022 019B     		ldr	r3, [sp, #4]
 872 0024 9A42     		cmp	r2, r3
 873 0026 0BD0     		beq	.L56
 874              	.L55:
 875              		.loc 2 307 0 discriminator 3
 876 0028 019B     		ldr	r3, [sp, #4]
 877 002a 9B68     		ldr	r3, [r3, #8]
 878 002c 002B     		cmp	r3, #0
 879 002e 04DA     		bge	.L57
 880              		.loc 2 307 0 discriminator 5
 881 0030 019B     		ldr	r3, [sp, #4]
 882 0032 1A68     		ldr	r2, [r3]
 883 0034 019B     		ldr	r3, [sp, #4]
 884 0036 9A42     		cmp	r2, r3
 885 0038 02D1     		bne	.L56
 886              	.L57:
 887              		.loc 2 307 0 discriminator 6
 888 003a 0E48     		ldr	r0, .L59+4
 889 003c FFF7FEFF 		bl	chDbgPanic
 890              	.L56:
 891              		.loc 2 312 0 is_stmt 1
 892 0040 019B     		ldr	r3, [sp, #4]
 893 0042 9B68     		ldr	r3, [r3, #8]
 894 0044 5A1C     		adds	r2, r3, #1
 895 0046 019B     		ldr	r3, [sp, #4]
 896 0048 9A60     		str	r2, [r3, #8]
 897 004a 019B     		ldr	r3, [sp, #4]
 898 004c 9B68     		ldr	r3, [r3, #8]
 899 004e 002B     		cmp	r3, #0
 900 0050 0ADC     		bgt	.L53
 901              	.LBB10:
 902              		.loc 2 315 0
 903 0052 019B     		ldr	r3, [sp, #4]
 904 0054 1846     		mov	r0, r3
 905 0056 FFF7FEFF 		bl	fifo_remove
 906 005a 0390     		str	r0, [sp, #12]
 907              		.loc 2 316 0
 908 005c 039B     		ldr	r3, [sp, #12]
 909 005e 0022     		movs	r2, #0
 910 0060 9A62     		str	r2, [r3, #40]
 911              		.loc 2 317 0
 912 0062 0398     		ldr	r0, [sp, #12]
 913 0064 FFF7FEFF 		bl	chSchReadyI
 914              	.L53:
 915              	.LBE10:
 916              		.loc 2 319 0
 917 0068 05B0     		add	sp, sp, #20
ARM GAS  /tmp/ccJCaAwF.s 			page 18


 918              		.cfi_def_cfa_offset 4
 919              		@ sp needed
 920 006a 5DF804FB 		ldr	pc, [sp], #4
 921              	.L60:
 922 006e 00BF     		.align	2
 923              	.L59:
 924 0070 AC000000 		.word	.LC9
 925 0074 C0000000 		.word	.LC10
 926              		.cfi_endproc
 927              	.LFE15:
 928              		.size	chSemSignalI, .-chSemSignalI
 929 0078 AFF30080 		.section	.rodata
 929      AFF30080 
 930 00d3 00       		.align	2
 931              	.LC11:
 932 00d4 22636853 		.ascii	"\"chSemAddCounterI\"()\000"
 932      656D4164 
 932      64436F75 
 932      6E746572 
 932      49222829 
 933 00e9 000000   		.align	2
 934              	.LC12:
 935 00ec 63685365 		.ascii	"chSemAddCounterI(), #1\000"
 935      6D416464 
 935      436F756E 
 935      74657249 
 935      28292C20 
 936              		.section	.text.chSemAddCounterI,"ax",%progbits
 937              		.align	2
 938              		.p2align 4,,15
 939              		.global	chSemAddCounterI
 940              		.thumb
 941              		.thumb_func
 942              		.type	chSemAddCounterI, %function
 943              	chSemAddCounterI:
 944              	.LFB16:
 945              		.loc 2 334 0
 946              		.cfi_startproc
 947              		@ args = 0, pretend = 0, frame = 8
 948              		@ frame_needed = 0, uses_anonymous_args = 0
 949 0000 00B5     		push	{lr}
 950              		.cfi_def_cfa_offset 4
 951              		.cfi_offset 14, -4
 952 0002 83B0     		sub	sp, sp, #12
 953              		.cfi_def_cfa_offset 16
 954 0004 0190     		str	r0, [sp, #4]
 955 0006 0091     		str	r1, [sp]
 956              		.loc 2 336 0
 957 0008 FFF7FEFF 		bl	chDbgCheckClassI
 958              		.loc 2 337 0
 959 000c 019B     		ldr	r3, [sp, #4]
 960 000e 002B     		cmp	r3, #0
 961 0010 02D0     		beq	.L62
 962              		.loc 2 337 0 is_stmt 0 discriminator 2
 963 0012 009B     		ldr	r3, [sp]
 964 0014 002B     		cmp	r3, #0
 965 0016 02DC     		bgt	.L63
ARM GAS  /tmp/ccJCaAwF.s 			page 19


 966              	.L62:
 967              		.loc 2 337 0 discriminator 3
 968 0018 1A48     		ldr	r0, .L70
 969 001a FFF7FEFF 		bl	chDbgPanic
 970              	.L63:
 971              		.loc 2 338 0 is_stmt 1
 972 001e 019B     		ldr	r3, [sp, #4]
 973 0020 9B68     		ldr	r3, [r3, #8]
 974 0022 002B     		cmp	r3, #0
 975 0024 04DB     		blt	.L64
 976              		.loc 2 338 0 is_stmt 0 discriminator 2
 977 0026 019B     		ldr	r3, [sp, #4]
 978 0028 1A68     		ldr	r2, [r3]
 979 002a 019B     		ldr	r3, [sp, #4]
 980 002c 9A42     		cmp	r2, r3
 981 002e 0BD0     		beq	.L65
 982              	.L64:
 983              		.loc 2 338 0 discriminator 3
 984 0030 019B     		ldr	r3, [sp, #4]
 985 0032 9B68     		ldr	r3, [r3, #8]
 986 0034 002B     		cmp	r3, #0
 987 0036 04DA     		bge	.L66
 988              		.loc 2 338 0 discriminator 5
 989 0038 019B     		ldr	r3, [sp, #4]
 990 003a 1A68     		ldr	r2, [r3]
 991 003c 019B     		ldr	r3, [sp, #4]
 992 003e 9A42     		cmp	r2, r3
 993 0040 02D1     		bne	.L65
 994              	.L66:
 995              		.loc 2 338 0 discriminator 6
 996 0042 1148     		ldr	r0, .L70+4
 997 0044 FFF7FEFF 		bl	chDbgPanic
 998              	.L65:
 999              		.loc 2 343 0 is_stmt 1
 1000 0048 16E0     		b	.L67
 1001              	.L69:
 1002              		.loc 2 344 0
 1003 004a 019B     		ldr	r3, [sp, #4]
 1004 004c 9B68     		ldr	r3, [r3, #8]
 1005 004e 5A1C     		adds	r2, r3, #1
 1006 0050 019B     		ldr	r3, [sp, #4]
 1007 0052 9A60     		str	r2, [r3, #8]
 1008 0054 019B     		ldr	r3, [sp, #4]
 1009 0056 9B68     		ldr	r3, [r3, #8]
 1010 0058 002B     		cmp	r3, #0
 1011 005a 0ADC     		bgt	.L68
 1012              		.loc 2 345 0
 1013 005c 019B     		ldr	r3, [sp, #4]
 1014 005e 1846     		mov	r0, r3
 1015 0060 FFF7FEFF 		bl	fifo_remove
 1016 0064 0346     		mov	r3, r0
 1017 0066 1846     		mov	r0, r3
 1018 0068 FFF7FEFF 		bl	chSchReadyI
 1019 006c 0246     		mov	r2, r0
 1020 006e 0023     		movs	r3, #0
 1021 0070 9362     		str	r3, [r2, #40]
 1022              	.L68:
ARM GAS  /tmp/ccJCaAwF.s 			page 20


 1023              		.loc 2 346 0
 1024 0072 009B     		ldr	r3, [sp]
 1025 0074 013B     		subs	r3, r3, #1
 1026 0076 0093     		str	r3, [sp]
 1027              	.L67:
 1028              		.loc 2 343 0
 1029 0078 009B     		ldr	r3, [sp]
 1030 007a 002B     		cmp	r3, #0
 1031 007c E5DC     		bgt	.L69
 1032              		.loc 2 348 0
 1033 007e 03B0     		add	sp, sp, #12
 1034              		.cfi_def_cfa_offset 4
 1035              		@ sp needed
 1036 0080 5DF804FB 		ldr	pc, [sp], #4
 1037              	.L71:
 1038              		.align	2
 1039              	.L70:
 1040 0084 D4000000 		.word	.LC11
 1041 0088 EC000000 		.word	.LC12
 1042              		.cfi_endproc
 1043              	.LFE16:
 1044              		.size	chSemAddCounterI, .-chSemAddCounterI
 1045 008c AFF30080 		.section	.rodata
 1046 0103 00       		.align	2
 1047              	.LC13:
 1048 0104 22636853 		.ascii	"\"chSemSignalWait\"()\000"
 1048      656D5369 
 1048      676E616C 
 1048      57616974 
 1048      22282900 
 1049              		.align	2
 1050              	.LC14:
 1051 0118 63685365 		.ascii	"chSemSignalWait(), #1\000"
 1051      6D536967 
 1051      6E616C57 
 1051      61697428 
 1051      292C2023 
 1052 012e 0000     		.align	2
 1053              	.LC15:
 1054 0130 63685365 		.ascii	"chSemSignalWait(), #2\000"
 1054      6D536967 
 1054      6E616C57 
 1054      61697428 
 1054      292C2023 
 1055 0146 0000     		.section	.text.chSemSignalWait,"ax",%progbits
 1056              		.align	2
 1057              		.p2align 4,,15
 1058              		.global	chSemSignalWait
 1059              		.thumb
 1060              		.thumb_func
 1061              		.type	chSemSignalWait, %function
 1062              	chSemSignalWait:
 1063              	.LFB17:
 1064              		.loc 2 366 0
 1065              		.cfi_startproc
 1066              		@ args = 0, pretend = 0, frame = 16
 1067              		@ frame_needed = 0, uses_anonymous_args = 0
ARM GAS  /tmp/ccJCaAwF.s 			page 21


 1068 0000 00B5     		push	{lr}
 1069              		.cfi_def_cfa_offset 4
 1070              		.cfi_offset 14, -4
 1071 0002 85B0     		sub	sp, sp, #20
 1072              		.cfi_def_cfa_offset 24
 1073 0004 0190     		str	r0, [sp, #4]
 1074 0006 0091     		str	r1, [sp]
 1075              		.loc 2 369 0
 1076 0008 019B     		ldr	r3, [sp, #4]
 1077 000a 002B     		cmp	r3, #0
 1078 000c 02D0     		beq	.L73
 1079              		.loc 2 369 0 is_stmt 0 discriminator 2
 1080 000e 009B     		ldr	r3, [sp]
 1081 0010 002B     		cmp	r3, #0
 1082 0012 02D1     		bne	.L74
 1083              	.L73:
 1084              		.loc 2 369 0 discriminator 3
 1085 0014 3748     		ldr	r0, .L85
 1086 0016 FFF7FEFF 		bl	chDbgPanic
 1087              	.L74:
 1088              		.loc 2 370 0 is_stmt 1
 1089 001a 019B     		ldr	r3, [sp, #4]
 1090 001c 9B68     		ldr	r3, [r3, #8]
 1091 001e 002B     		cmp	r3, #0
 1092 0020 04DB     		blt	.L75
 1093              		.loc 2 370 0 is_stmt 0 discriminator 2
 1094 0022 019B     		ldr	r3, [sp, #4]
 1095 0024 1A68     		ldr	r2, [r3]
 1096 0026 019B     		ldr	r3, [sp, #4]
 1097 0028 9A42     		cmp	r2, r3
 1098 002a 0BD0     		beq	.L76
 1099              	.L75:
 1100              		.loc 2 370 0 discriminator 3
 1101 002c 019B     		ldr	r3, [sp, #4]
 1102 002e 9B68     		ldr	r3, [r3, #8]
 1103 0030 002B     		cmp	r3, #0
 1104 0032 04DA     		bge	.L77
 1105              		.loc 2 370 0 discriminator 5
 1106 0034 019B     		ldr	r3, [sp, #4]
 1107 0036 1A68     		ldr	r2, [r3]
 1108 0038 019B     		ldr	r3, [sp, #4]
 1109 003a 9A42     		cmp	r2, r3
 1110 003c 02D1     		bne	.L76
 1111              	.L77:
 1112              		.loc 2 370 0 discriminator 6
 1113 003e 2E48     		ldr	r0, .L85+4
 1114 0040 FFF7FEFF 		bl	chDbgPanic
 1115              	.L76:
 1116              		.loc 2 374 0 is_stmt 1
 1117 0044 009B     		ldr	r3, [sp]
 1118 0046 9B68     		ldr	r3, [r3, #8]
 1119 0048 002B     		cmp	r3, #0
 1120 004a 04DB     		blt	.L78
 1121              		.loc 2 374 0 is_stmt 0 discriminator 2
 1122 004c 009B     		ldr	r3, [sp]
 1123 004e 1A68     		ldr	r2, [r3]
 1124 0050 009B     		ldr	r3, [sp]
ARM GAS  /tmp/ccJCaAwF.s 			page 22


 1125 0052 9A42     		cmp	r2, r3
 1126 0054 0BD0     		beq	.L79
 1127              	.L78:
 1128              		.loc 2 374 0 discriminator 3
 1129 0056 009B     		ldr	r3, [sp]
 1130 0058 9B68     		ldr	r3, [r3, #8]
 1131 005a 002B     		cmp	r3, #0
 1132 005c 04DA     		bge	.L80
 1133              		.loc 2 374 0 discriminator 5
 1134 005e 009B     		ldr	r3, [sp]
 1135 0060 1A68     		ldr	r2, [r3]
 1136 0062 009B     		ldr	r3, [sp]
 1137 0064 9A42     		cmp	r2, r3
 1138 0066 02D1     		bne	.L79
 1139              	.L80:
 1140              		.loc 2 374 0 discriminator 6
 1141 0068 2448     		ldr	r0, .L85+8
 1142 006a FFF7FEFF 		bl	chDbgPanic
 1143              	.L79:
 1144              	.LBB11:
 1145              		.loc 2 379 0 is_stmt 1
 1146 006e 2023     		movs	r3, #32
 1147              	@ 379 "/home/ergae/r2p-sdk/core/ChibiOS/os/kernel/src/chsem.c" 1
 1148 0070 83F31188 		msr     BASEPRI, r3
 1149              	@ 0 "" 2
 1150              		.thumb
 1151              	.LBE11:
 1152 0074 FFF7FEFF 		bl	dbg_check_lock
 1153              		.loc 2 380 0
 1154 0078 019B     		ldr	r3, [sp, #4]
 1155 007a 9B68     		ldr	r3, [r3, #8]
 1156 007c 5A1C     		adds	r2, r3, #1
 1157 007e 019B     		ldr	r3, [sp, #4]
 1158 0080 9A60     		str	r2, [r3, #8]
 1159 0082 019B     		ldr	r3, [sp, #4]
 1160 0084 9B68     		ldr	r3, [r3, #8]
 1161 0086 002B     		cmp	r3, #0
 1162 0088 0ADC     		bgt	.L81
 1163              		.loc 2 381 0
 1164 008a 019B     		ldr	r3, [sp, #4]
 1165 008c 1846     		mov	r0, r3
 1166 008e FFF7FEFF 		bl	fifo_remove
 1167 0092 0346     		mov	r3, r0
 1168 0094 1846     		mov	r0, r3
 1169 0096 FFF7FEFF 		bl	chSchReadyI
 1170 009a 0246     		mov	r2, r0
 1171 009c 0023     		movs	r3, #0
 1172 009e 9362     		str	r3, [r2, #40]
 1173              	.L81:
 1174              		.loc 2 382 0
 1175 00a0 009B     		ldr	r3, [sp]
 1176 00a2 9B68     		ldr	r3, [r3, #8]
 1177 00a4 5A1E     		subs	r2, r3, #1
 1178 00a6 009B     		ldr	r3, [sp]
 1179 00a8 9A60     		str	r2, [r3, #8]
 1180 00aa 009B     		ldr	r3, [sp]
 1181 00ac 9B68     		ldr	r3, [r3, #8]
ARM GAS  /tmp/ccJCaAwF.s 			page 23


 1182 00ae 002B     		cmp	r3, #0
 1183 00b0 11DA     		bge	.L82
 1184              	.LBB12:
 1185              		.loc 2 383 0
 1186 00b2 134B     		ldr	r3, .L85+12
 1187 00b4 9B69     		ldr	r3, [r3, #24]
 1188 00b6 0293     		str	r3, [sp, #8]
 1189              		.loc 2 384 0
 1190 00b8 009B     		ldr	r3, [sp]
 1191 00ba 0298     		ldr	r0, [sp, #8]
 1192 00bc 1946     		mov	r1, r3
 1193 00be FFF7FEFF 		bl	queue_insert
 1194              		.loc 2 385 0
 1195 00c2 029B     		ldr	r3, [sp, #8]
 1196 00c4 009A     		ldr	r2, [sp]
 1197 00c6 9A62     		str	r2, [r3, #40]
 1198              		.loc 2 386 0
 1199 00c8 0320     		movs	r0, #3
 1200 00ca FFF7FEFF 		bl	chSchGoSleepS
 1201              		.loc 2 387 0
 1202 00ce 029B     		ldr	r3, [sp, #8]
 1203 00d0 9B6A     		ldr	r3, [r3, #40]
 1204 00d2 0393     		str	r3, [sp, #12]
 1205              	.LBE12:
 1206 00d4 03E0     		b	.L83
 1207              	.L82:
 1208              		.loc 2 390 0
 1209 00d6 FFF7FEFF 		bl	chSchRescheduleS
 1210              		.loc 2 391 0
 1211 00da 0023     		movs	r3, #0
 1212 00dc 0393     		str	r3, [sp, #12]
 1213              	.L83:
 1214              		.loc 2 393 0
 1215 00de FFF7FEFF 		bl	dbg_check_unlock
 1216              	.LBB13:
 1217 00e2 0023     		movs	r3, #0
 1218              	@ 393 "/home/ergae/r2p-sdk/core/ChibiOS/os/kernel/src/chsem.c" 1
 1219 00e4 83F31188 		msr     BASEPRI, r3
 1220              	@ 0 "" 2
 1221              		.thumb
 1222              	.LBE13:
 1223              		.loc 2 394 0
 1224 00e8 039B     		ldr	r3, [sp, #12]
 1225              		.loc 2 395 0
 1226 00ea 1846     		mov	r0, r3
 1227 00ec 05B0     		add	sp, sp, #20
 1228              		.cfi_def_cfa_offset 4
 1229              		@ sp needed
 1230 00ee 5DF804FB 		ldr	pc, [sp], #4
 1231              	.L86:
 1232 00f2 00BF     		.align	2
 1233              	.L85:
 1234 00f4 04010000 		.word	.LC13
 1235 00f8 18010000 		.word	.LC14
 1236 00fc 30010000 		.word	.LC15
 1237 0100 00000000 		.word	rlist
 1238              		.cfi_endproc
ARM GAS  /tmp/ccJCaAwF.s 			page 24


 1239              	.LFE17:
 1240              		.size	chSemSignalWait, .-chSemSignalWait
 1241 0104 AFF30080 		.text
 1241      AFF30080 
 1241      AFF30080 
 1242              	.Letext0:
 1243              		.file 3 "/home/ergae/r2p-sdk/tools/gcc-arm-none-eabi-4_9-2014q4/arm-none-eabi/include/machine/_def
 1244              		.file 4 "/home/ergae/r2p-sdk/tools/gcc-arm-none-eabi-4_9-2014q4/arm-none-eabi/include/stdint.h"
 1245              		.file 5 "/home/ergae/r2p-sdk/core/ChibiOS/os/ports/GCC/ARMCMx/chtypes.h"
 1246              		.file 6 "/home/ergae/r2p-sdk/core/ChibiOS/os/kernel/include/chlists.h"
 1247              		.file 7 "/home/ergae/r2p-sdk/core/ChibiOS/os/kernel/include/chthreads.h"
 1248              		.file 8 "/home/ergae/r2p-sdk/core/ChibiOS/os/ports/GCC/ARMCMx/chcore_v7m.h"
 1249              		.file 9 "/home/ergae/r2p-sdk/core/ChibiOS/os/kernel/include/chschd.h"
 1250              		.file 10 "/home/ergae/r2p-sdk/core/ChibiOS/os/kernel/include/chsem.h"
 1251              		.file 11 "/home/ergae/r2p-sdk/core/ChibiOS/os/kernel/include/chmtx.h"
 1252              		.section	.debug_info,"",%progbits
 1253              	.Ldebug_info0:
 1254 0000 56090000 		.4byte	0x956
 1255 0004 0400     		.2byte	0x4
 1256 0006 00000000 		.4byte	.Ldebug_abbrev0
 1257 000a 04       		.byte	0x4
 1258 000b 01       		.uleb128 0x1
 1259 000c 88030000 		.4byte	.LASF88
 1260 0010 01       		.byte	0x1
 1261 0011 A4010000 		.4byte	.LASF89
 1262 0015 00000000 		.4byte	.Ldebug_ranges0+0
 1263 0019 00000000 		.4byte	0
 1264 001d 00000000 		.4byte	.Ldebug_line0
 1265 0021 02       		.uleb128 0x2
 1266 0022 04       		.byte	0x4
 1267 0023 05       		.byte	0x5
 1268 0024 696E7400 		.ascii	"int\000"
 1269 0028 03       		.uleb128 0x3
 1270 0029 04       		.byte	0x4
 1271 002a 07       		.byte	0x7
 1272 002b FD000000 		.4byte	.LASF0
 1273 002f 03       		.uleb128 0x3
 1274 0030 01       		.byte	0x1
 1275 0031 06       		.byte	0x6
 1276 0032 77000000 		.4byte	.LASF1
 1277 0036 04       		.uleb128 0x4
 1278 0037 30000000 		.4byte	.LASF5
 1279 003b 03       		.byte	0x3
 1280 003c 1D       		.byte	0x1d
 1281 003d 41000000 		.4byte	0x41
 1282 0041 03       		.uleb128 0x3
 1283 0042 01       		.byte	0x1
 1284 0043 08       		.byte	0x8
 1285 0044 46020000 		.4byte	.LASF2
 1286 0048 03       		.uleb128 0x3
 1287 0049 02       		.byte	0x2
 1288 004a 05       		.byte	0x5
 1289 004b 5E020000 		.4byte	.LASF3
 1290 004f 03       		.uleb128 0x3
 1291 0050 02       		.byte	0x2
 1292 0051 07       		.byte	0x7
 1293 0052 47010000 		.4byte	.LASF4
ARM GAS  /tmp/ccJCaAwF.s 			page 25


 1294 0056 04       		.uleb128 0x4
 1295 0057 04030000 		.4byte	.LASF6
 1296 005b 03       		.byte	0x3
 1297 005c 3F       		.byte	0x3f
 1298 005d 61000000 		.4byte	0x61
 1299 0061 03       		.uleb128 0x3
 1300 0062 04       		.byte	0x4
 1301 0063 05       		.byte	0x5
 1302 0064 AD000000 		.4byte	.LASF7
 1303 0068 04       		.uleb128 0x4
 1304 0069 D8000000 		.4byte	.LASF8
 1305 006d 03       		.byte	0x3
 1306 006e 41       		.byte	0x41
 1307 006f 73000000 		.4byte	0x73
 1308 0073 03       		.uleb128 0x3
 1309 0074 04       		.byte	0x4
 1310 0075 07       		.byte	0x7
 1311 0076 1B010000 		.4byte	.LASF9
 1312 007a 03       		.uleb128 0x3
 1313 007b 08       		.byte	0x8
 1314 007c 05       		.byte	0x5
 1315 007d 69000000 		.4byte	.LASF10
 1316 0081 04       		.uleb128 0x4
 1317 0082 16020000 		.4byte	.LASF11
 1318 0086 03       		.byte	0x3
 1319 0087 5B       		.byte	0x5b
 1320 0088 8C000000 		.4byte	0x8c
 1321 008c 03       		.uleb128 0x3
 1322 008d 08       		.byte	0x8
 1323 008e 07       		.byte	0x7
 1324 008f 3A000000 		.4byte	.LASF12
 1325 0093 04       		.uleb128 0x4
 1326 0094 6A030000 		.4byte	.LASF13
 1327 0098 04       		.byte	0x4
 1328 0099 15       		.byte	0x15
 1329 009a 36000000 		.4byte	0x36
 1330 009e 04       		.uleb128 0x4
 1331 009f 3E020000 		.4byte	.LASF14
 1332 00a3 04       		.byte	0x4
 1333 00a4 2C       		.byte	0x2c
 1334 00a5 56000000 		.4byte	0x56
 1335 00a9 04       		.uleb128 0x4
 1336 00aa B4020000 		.4byte	.LASF15
 1337 00ae 04       		.byte	0x4
 1338 00af 2D       		.byte	0x2d
 1339 00b0 68000000 		.4byte	0x68
 1340 00b4 04       		.uleb128 0x4
 1341 00b5 27000000 		.4byte	.LASF16
 1342 00b9 04       		.byte	0x4
 1343 00ba 39       		.byte	0x39
 1344 00bb 81000000 		.4byte	0x81
 1345 00bf 03       		.uleb128 0x3
 1346 00c0 01       		.byte	0x1
 1347 00c1 02       		.byte	0x2
 1348 00c2 38020000 		.4byte	.LASF17
 1349 00c6 04       		.uleb128 0x4
 1350 00c7 73010000 		.4byte	.LASF18
ARM GAS  /tmp/ccJCaAwF.s 			page 26


 1351 00cb 05       		.byte	0x5
 1352 00cc 2C       		.byte	0x2c
 1353 00cd 93000000 		.4byte	0x93
 1354 00d1 04       		.uleb128 0x4
 1355 00d2 B6000000 		.4byte	.LASF19
 1356 00d6 05       		.byte	0x5
 1357 00d7 2D       		.byte	0x2d
 1358 00d8 93000000 		.4byte	0x93
 1359 00dc 04       		.uleb128 0x4
 1360 00dd 21020000 		.4byte	.LASF20
 1361 00e1 05       		.byte	0x5
 1362 00e2 2E       		.byte	0x2e
 1363 00e3 93000000 		.4byte	0x93
 1364 00e7 04       		.uleb128 0x4
 1365 00e8 A3000000 		.4byte	.LASF21
 1366 00ec 05       		.byte	0x5
 1367 00ed 2F       		.byte	0x2f
 1368 00ee 93000000 		.4byte	0x93
 1369 00f2 04       		.uleb128 0x4
 1370 00f3 30020000 		.4byte	.LASF22
 1371 00f7 05       		.byte	0x5
 1372 00f8 30       		.byte	0x30
 1373 00f9 A9000000 		.4byte	0xa9
 1374 00fd 04       		.uleb128 0x4
 1375 00fe 65010000 		.4byte	.LASF23
 1376 0102 05       		.byte	0x5
 1377 0103 31       		.byte	0x31
 1378 0104 9E000000 		.4byte	0x9e
 1379 0108 04       		.uleb128 0x4
 1380 0109 87010000 		.4byte	.LASF24
 1381 010d 05       		.byte	0x5
 1382 010e 33       		.byte	0x33
 1383 010f A9000000 		.4byte	0xa9
 1384 0113 04       		.uleb128 0x4
 1385 0114 EF020000 		.4byte	.LASF25
 1386 0118 05       		.byte	0x5
 1387 0119 35       		.byte	0x35
 1388 011a A9000000 		.4byte	0xa9
 1389 011e 04       		.uleb128 0x4
 1390 011f EC000000 		.4byte	.LASF26
 1391 0123 05       		.byte	0x5
 1392 0124 36       		.byte	0x36
 1393 0125 9E000000 		.4byte	0x9e
 1394 0129 04       		.uleb128 0x4
 1395 012a A2020000 		.4byte	.LASF27
 1396 012e 06       		.byte	0x6
 1397 012f 2A       		.byte	0x2a
 1398 0130 34010000 		.4byte	0x134
 1399 0134 05       		.uleb128 0x5
 1400 0135 A2020000 		.4byte	.LASF27
 1401 0139 4C       		.byte	0x4c
 1402 013a 07       		.byte	0x7
 1403 013b 5E       		.byte	0x5e
 1404 013c 3D020000 		.4byte	0x23d
 1405 0140 06       		.uleb128 0x6
 1406 0141 88020000 		.4byte	.LASF28
 1407 0145 07       		.byte	0x7
ARM GAS  /tmp/ccJCaAwF.s 			page 27


 1408 0146 5F       		.byte	0x5f
 1409 0147 5E020000 		.4byte	0x25e
 1410 014b 00       		.byte	0
 1411 014c 06       		.uleb128 0x6
 1412 014d 29020000 		.4byte	.LASF29
 1413 0151 07       		.byte	0x7
 1414 0152 61       		.byte	0x61
 1415 0153 5E020000 		.4byte	0x25e
 1416 0157 04       		.byte	0x4
 1417 0158 06       		.uleb128 0x6
 1418 0159 62000000 		.4byte	.LASF30
 1419 015d 07       		.byte	0x7
 1420 015e 63       		.byte	0x63
 1421 015f F2000000 		.4byte	0xf2
 1422 0163 08       		.byte	0x8
 1423 0164 06       		.uleb128 0x6
 1424 0165 A1040000 		.4byte	.LASF31
 1425 0169 07       		.byte	0x7
 1426 016a 64       		.byte	0x64
 1427 016b F3030000 		.4byte	0x3f3
 1428 016f 0C       		.byte	0xc
 1429 0170 06       		.uleb128 0x6
 1430 0171 BF000000 		.4byte	.LASF32
 1431 0175 07       		.byte	0x7
 1432 0176 66       		.byte	0x66
 1433 0177 5E020000 		.4byte	0x25e
 1434 017b 10       		.byte	0x10
 1435 017c 06       		.uleb128 0x6
 1436 017d E4010000 		.4byte	.LASF33
 1437 0181 07       		.byte	0x7
 1438 0182 67       		.byte	0x67
 1439 0183 5E020000 		.4byte	0x25e
 1440 0187 14       		.byte	0x14
 1441 0188 06       		.uleb128 0x6
 1442 0189 79030000 		.4byte	.LASF34
 1443 018d 07       		.byte	0x7
 1444 018e 6E       		.byte	0x6e
 1445 018f 23050000 		.4byte	0x523
 1446 0193 18       		.byte	0x18
 1447 0194 06       		.uleb128 0x6
 1448 0195 F2000000 		.4byte	.LASF35
 1449 0199 07       		.byte	0x7
 1450 019a 74       		.byte	0x74
 1451 019b 35050000 		.4byte	0x535
 1452 019f 1C       		.byte	0x1c
 1453 01a0 06       		.uleb128 0x6
 1454 01a1 68020000 		.4byte	.LASF36
 1455 01a5 07       		.byte	0x7
 1456 01a6 79       		.byte	0x79
 1457 01a7 D1000000 		.4byte	0xd1
 1458 01ab 20       		.byte	0x20
 1459 01ac 06       		.uleb128 0x6
 1460 01ad 8F020000 		.4byte	.LASF37
 1461 01b1 07       		.byte	0x7
 1462 01b2 7D       		.byte	0x7d
 1463 01b3 C6000000 		.4byte	0xc6
 1464 01b7 21       		.byte	0x21
ARM GAS  /tmp/ccJCaAwF.s 			page 28


 1465 01b8 06       		.uleb128 0x6
 1466 01b9 47030000 		.4byte	.LASF38
 1467 01bd 07       		.byte	0x7
 1468 01be 82       		.byte	0x82
 1469 01bf DC000000 		.4byte	0xdc
 1470 01c3 22       		.byte	0x22
 1471 01c4 06       		.uleb128 0x6
 1472 01c5 70020000 		.4byte	.LASF39
 1473 01c9 07       		.byte	0x7
 1474 01ca 88       		.byte	0x88
 1475 01cb E7000000 		.4byte	0xe7
 1476 01cf 23       		.byte	0x23
 1477 01d0 06       		.uleb128 0x6
 1478 01d1 18030000 		.4byte	.LASF40
 1479 01d5 07       		.byte	0x7
 1480 01d6 8F       		.byte	0x8f
 1481 01d7 1B040000 		.4byte	0x41b
 1482 01db 24       		.byte	0x24
 1483 01dc 07       		.uleb128 0x7
 1484 01dd 705F7500 		.ascii	"p_u\000"
 1485 01e1 07       		.byte	0x7
 1486 01e2 B4       		.byte	0xb4
 1487 01e3 EE040000 		.4byte	0x4ee
 1488 01e7 28       		.byte	0x28
 1489 01e8 06       		.uleb128 0x6
 1490 01e9 A7040000 		.4byte	.LASF41
 1491 01ed 07       		.byte	0x7
 1492 01ee B9       		.byte	0xb9
 1493 01ef 84020000 		.4byte	0x284
 1494 01f3 2C       		.byte	0x2c
 1495 01f4 06       		.uleb128 0x6
 1496 01f5 32030000 		.4byte	.LASF42
 1497 01f9 07       		.byte	0x7
 1498 01fa BF       		.byte	0xbf
 1499 01fb 64020000 		.4byte	0x264
 1500 01ff 30       		.byte	0x30
 1501 0200 06       		.uleb128 0x6
 1502 0201 00000000 		.4byte	.LASF43
 1503 0205 07       		.byte	0x7
 1504 0206 C3       		.byte	0xc3
 1505 0207 FD000000 		.4byte	0xfd
 1506 020b 38       		.byte	0x38
 1507 020c 06       		.uleb128 0x6
 1508 020d A9020000 		.4byte	.LASF44
 1509 0211 07       		.byte	0x7
 1510 0212 C9       		.byte	0xc9
 1511 0213 08010000 		.4byte	0x108
 1512 0217 3C       		.byte	0x3c
 1513 0218 06       		.uleb128 0x6
 1514 0219 54020000 		.4byte	.LASF45
 1515 021d 07       		.byte	0x7
 1516 021e D0       		.byte	0xd0
 1517 021f 3B050000 		.4byte	0x53b
 1518 0223 40       		.byte	0x40
 1519 0224 06       		.uleb128 0x6
 1520 0225 F9020000 		.4byte	.LASF46
 1521 0229 07       		.byte	0x7
ARM GAS  /tmp/ccJCaAwF.s 			page 29


 1522 022a D4       		.byte	0xd4
 1523 022b F2000000 		.4byte	0xf2
 1524 022f 44       		.byte	0x44
 1525 0230 06       		.uleb128 0x6
 1526 0231 93000000 		.4byte	.LASF47
 1527 0235 07       		.byte	0x7
 1528 0236 DA       		.byte	0xda
 1529 0237 9A020000 		.4byte	0x29a
 1530 023b 48       		.byte	0x48
 1531 023c 00       		.byte	0
 1532 023d 08       		.uleb128 0x8
 1533 023e 08       		.byte	0x8
 1534 023f 06       		.byte	0x6
 1535 0240 61       		.byte	0x61
 1536 0241 5E020000 		.4byte	0x25e
 1537 0245 06       		.uleb128 0x6
 1538 0246 88020000 		.4byte	.LASF28
 1539 024a 06       		.byte	0x6
 1540 024b 62       		.byte	0x62
 1541 024c 5E020000 		.4byte	0x25e
 1542 0250 00       		.byte	0
 1543 0251 06       		.uleb128 0x6
 1544 0252 29020000 		.4byte	.LASF29
 1545 0256 06       		.byte	0x6
 1546 0257 64       		.byte	0x64
 1547 0258 5E020000 		.4byte	0x25e
 1548 025c 04       		.byte	0x4
 1549 025d 00       		.byte	0
 1550 025e 09       		.uleb128 0x9
 1551 025f 04       		.byte	0x4
 1552 0260 29010000 		.4byte	0x129
 1553 0264 04       		.uleb128 0x4
 1554 0265 F2010000 		.4byte	.LASF48
 1555 0269 06       		.byte	0x6
 1556 026a 66       		.byte	0x66
 1557 026b 3D020000 		.4byte	0x23d
 1558 026f 08       		.uleb128 0x8
 1559 0270 04       		.byte	0x4
 1560 0271 06       		.byte	0x6
 1561 0272 6B       		.byte	0x6b
 1562 0273 84020000 		.4byte	0x284
 1563 0277 06       		.uleb128 0x6
 1564 0278 88020000 		.4byte	.LASF28
 1565 027c 06       		.byte	0x6
 1566 027d 6D       		.byte	0x6d
 1567 027e 5E020000 		.4byte	0x25e
 1568 0282 00       		.byte	0
 1569 0283 00       		.byte	0
 1570 0284 04       		.uleb128 0x4
 1571 0285 7B010000 		.4byte	.LASF49
 1572 0289 06       		.byte	0x6
 1573 028a 70       		.byte	0x70
 1574 028b 6F020000 		.4byte	0x26f
 1575 028f 04       		.uleb128 0x4
 1576 0290 E3000000 		.4byte	.LASF50
 1577 0294 08       		.byte	0x8
 1578 0295 E5       		.byte	0xe5
ARM GAS  /tmp/ccJCaAwF.s 			page 30


 1579 0296 9A020000 		.4byte	0x29a
 1580 029a 0A       		.uleb128 0xa
 1581 029b 04       		.byte	0x4
 1582 029c 04       		.uleb128 0x4
 1583 029d 99010000 		.4byte	.LASF51
 1584 02a1 08       		.byte	0x8
 1585 02a2 EB       		.byte	0xeb
 1586 02a3 B4000000 		.4byte	0xb4
 1587 02a7 0B       		.uleb128 0xb
 1588 02a8 2B030000 		.4byte	.LASF52
 1589 02ac 64       		.byte	0x64
 1590 02ad 08       		.byte	0x8
 1591 02ae 0C01     		.2byte	0x10c
 1592 02b0 F3030000 		.4byte	0x3f3
 1593 02b4 0C       		.uleb128 0xc
 1594 02b5 73313600 		.ascii	"s16\000"
 1595 02b9 08       		.byte	0x8
 1596 02ba 0E01     		.2byte	0x10e
 1597 02bc 8F020000 		.4byte	0x28f
 1598 02c0 00       		.byte	0
 1599 02c1 0C       		.uleb128 0xc
 1600 02c2 73313700 		.ascii	"s17\000"
 1601 02c6 08       		.byte	0x8
 1602 02c7 0F01     		.2byte	0x10f
 1603 02c9 8F020000 		.4byte	0x28f
 1604 02cd 04       		.byte	0x4
 1605 02ce 0C       		.uleb128 0xc
 1606 02cf 73313800 		.ascii	"s18\000"
 1607 02d3 08       		.byte	0x8
 1608 02d4 1001     		.2byte	0x110
 1609 02d6 8F020000 		.4byte	0x28f
 1610 02da 08       		.byte	0x8
 1611 02db 0C       		.uleb128 0xc
 1612 02dc 73313900 		.ascii	"s19\000"
 1613 02e0 08       		.byte	0x8
 1614 02e1 1101     		.2byte	0x111
 1615 02e3 8F020000 		.4byte	0x28f
 1616 02e7 0C       		.byte	0xc
 1617 02e8 0C       		.uleb128 0xc
 1618 02e9 73323000 		.ascii	"s20\000"
 1619 02ed 08       		.byte	0x8
 1620 02ee 1201     		.2byte	0x112
 1621 02f0 8F020000 		.4byte	0x28f
 1622 02f4 10       		.byte	0x10
 1623 02f5 0C       		.uleb128 0xc
 1624 02f6 73323100 		.ascii	"s21\000"
 1625 02fa 08       		.byte	0x8
 1626 02fb 1301     		.2byte	0x113
 1627 02fd 8F020000 		.4byte	0x28f
 1628 0301 14       		.byte	0x14
 1629 0302 0C       		.uleb128 0xc
 1630 0303 73323200 		.ascii	"s22\000"
 1631 0307 08       		.byte	0x8
 1632 0308 1401     		.2byte	0x114
 1633 030a 8F020000 		.4byte	0x28f
 1634 030e 18       		.byte	0x18
 1635 030f 0C       		.uleb128 0xc
ARM GAS  /tmp/ccJCaAwF.s 			page 31


 1636 0310 73323300 		.ascii	"s23\000"
 1637 0314 08       		.byte	0x8
 1638 0315 1501     		.2byte	0x115
 1639 0317 8F020000 		.4byte	0x28f
 1640 031b 1C       		.byte	0x1c
 1641 031c 0C       		.uleb128 0xc
 1642 031d 73323400 		.ascii	"s24\000"
 1643 0321 08       		.byte	0x8
 1644 0322 1601     		.2byte	0x116
 1645 0324 8F020000 		.4byte	0x28f
 1646 0328 20       		.byte	0x20
 1647 0329 0C       		.uleb128 0xc
 1648 032a 73323500 		.ascii	"s25\000"
 1649 032e 08       		.byte	0x8
 1650 032f 1701     		.2byte	0x117
 1651 0331 8F020000 		.4byte	0x28f
 1652 0335 24       		.byte	0x24
 1653 0336 0C       		.uleb128 0xc
 1654 0337 73323600 		.ascii	"s26\000"
 1655 033b 08       		.byte	0x8
 1656 033c 1801     		.2byte	0x118
 1657 033e 8F020000 		.4byte	0x28f
 1658 0342 28       		.byte	0x28
 1659 0343 0C       		.uleb128 0xc
 1660 0344 73323700 		.ascii	"s27\000"
 1661 0348 08       		.byte	0x8
 1662 0349 1901     		.2byte	0x119
 1663 034b 8F020000 		.4byte	0x28f
 1664 034f 2C       		.byte	0x2c
 1665 0350 0C       		.uleb128 0xc
 1666 0351 73323800 		.ascii	"s28\000"
 1667 0355 08       		.byte	0x8
 1668 0356 1A01     		.2byte	0x11a
 1669 0358 8F020000 		.4byte	0x28f
 1670 035c 30       		.byte	0x30
 1671 035d 0C       		.uleb128 0xc
 1672 035e 73323900 		.ascii	"s29\000"
 1673 0362 08       		.byte	0x8
 1674 0363 1B01     		.2byte	0x11b
 1675 0365 8F020000 		.4byte	0x28f
 1676 0369 34       		.byte	0x34
 1677 036a 0C       		.uleb128 0xc
 1678 036b 73333000 		.ascii	"s30\000"
 1679 036f 08       		.byte	0x8
 1680 0370 1C01     		.2byte	0x11c
 1681 0372 8F020000 		.4byte	0x28f
 1682 0376 38       		.byte	0x38
 1683 0377 0C       		.uleb128 0xc
 1684 0378 73333100 		.ascii	"s31\000"
 1685 037c 08       		.byte	0x8
 1686 037d 1D01     		.2byte	0x11d
 1687 037f 8F020000 		.4byte	0x28f
 1688 0383 3C       		.byte	0x3c
 1689 0384 0C       		.uleb128 0xc
 1690 0385 723400   		.ascii	"r4\000"
 1691 0388 08       		.byte	0x8
 1692 0389 1F01     		.2byte	0x11f
ARM GAS  /tmp/ccJCaAwF.s 			page 32


 1693 038b 8F020000 		.4byte	0x28f
 1694 038f 40       		.byte	0x40
 1695 0390 0C       		.uleb128 0xc
 1696 0391 723500   		.ascii	"r5\000"
 1697 0394 08       		.byte	0x8
 1698 0395 2001     		.2byte	0x120
 1699 0397 8F020000 		.4byte	0x28f
 1700 039b 44       		.byte	0x44
 1701 039c 0C       		.uleb128 0xc
 1702 039d 723600   		.ascii	"r6\000"
 1703 03a0 08       		.byte	0x8
 1704 03a1 2101     		.2byte	0x121
 1705 03a3 8F020000 		.4byte	0x28f
 1706 03a7 48       		.byte	0x48
 1707 03a8 0C       		.uleb128 0xc
 1708 03a9 723700   		.ascii	"r7\000"
 1709 03ac 08       		.byte	0x8
 1710 03ad 2201     		.2byte	0x122
 1711 03af 8F020000 		.4byte	0x28f
 1712 03b3 4C       		.byte	0x4c
 1713 03b4 0C       		.uleb128 0xc
 1714 03b5 723800   		.ascii	"r8\000"
 1715 03b8 08       		.byte	0x8
 1716 03b9 2301     		.2byte	0x123
 1717 03bb 8F020000 		.4byte	0x28f
 1718 03bf 50       		.byte	0x50
 1719 03c0 0C       		.uleb128 0xc
 1720 03c1 723900   		.ascii	"r9\000"
 1721 03c4 08       		.byte	0x8
 1722 03c5 2401     		.2byte	0x124
 1723 03c7 8F020000 		.4byte	0x28f
 1724 03cb 54       		.byte	0x54
 1725 03cc 0C       		.uleb128 0xc
 1726 03cd 72313000 		.ascii	"r10\000"
 1727 03d1 08       		.byte	0x8
 1728 03d2 2501     		.2byte	0x125
 1729 03d4 8F020000 		.4byte	0x28f
 1730 03d8 58       		.byte	0x58
 1731 03d9 0C       		.uleb128 0xc
 1732 03da 72313100 		.ascii	"r11\000"
 1733 03de 08       		.byte	0x8
 1734 03df 2601     		.2byte	0x126
 1735 03e1 8F020000 		.4byte	0x28f
 1736 03e5 5C       		.byte	0x5c
 1737 03e6 0C       		.uleb128 0xc
 1738 03e7 6C7200   		.ascii	"lr\000"
 1739 03ea 08       		.byte	0x8
 1740 03eb 2701     		.2byte	0x127
 1741 03ed 8F020000 		.4byte	0x28f
 1742 03f1 60       		.byte	0x60
 1743 03f2 00       		.byte	0
 1744 03f3 0B       		.uleb128 0xb
 1745 03f4 3F010000 		.4byte	.LASF53
 1746 03f8 04       		.byte	0x4
 1747 03f9 08       		.byte	0x8
 1748 03fa 3101     		.2byte	0x131
 1749 03fc 0E040000 		.4byte	0x40e
ARM GAS  /tmp/ccJCaAwF.s 			page 33


 1750 0400 0C       		.uleb128 0xc
 1751 0401 72313300 		.ascii	"r13\000"
 1752 0405 08       		.byte	0x8
 1753 0406 3201     		.2byte	0x132
 1754 0408 0E040000 		.4byte	0x40e
 1755 040c 00       		.byte	0
 1756 040d 00       		.byte	0
 1757 040e 09       		.uleb128 0x9
 1758 040f 04       		.byte	0x4
 1759 0410 A7020000 		.4byte	0x2a7
 1760 0414 03       		.uleb128 0x3
 1761 0415 04       		.byte	0x4
 1762 0416 07       		.byte	0x7
 1763 0417 DB010000 		.4byte	.LASF54
 1764 041b 0D       		.uleb128 0xd
 1765 041c 13010000 		.4byte	0x113
 1766 0420 08       		.uleb128 0x8
 1767 0421 1C       		.byte	0x1c
 1768 0422 09       		.byte	0x9
 1769 0423 5E       		.byte	0x5e
 1770 0424 71040000 		.4byte	0x471
 1771 0428 06       		.uleb128 0x6
 1772 0429 BD020000 		.4byte	.LASF55
 1773 042d 09       		.byte	0x9
 1774 042e 5F       		.byte	0x5f
 1775 042f 64020000 		.4byte	0x264
 1776 0433 00       		.byte	0
 1777 0434 06       		.uleb128 0x6
 1778 0435 7A020000 		.4byte	.LASF56
 1779 0439 09       		.byte	0x9
 1780 043a 60       		.byte	0x60
 1781 043b F2000000 		.4byte	0xf2
 1782 043f 08       		.byte	0x8
 1783 0440 06       		.uleb128 0x6
 1784 0441 EC010000 		.4byte	.LASF57
 1785 0445 09       		.byte	0x9
 1786 0446 62       		.byte	0x62
 1787 0447 F3030000 		.4byte	0x3f3
 1788 044b 0C       		.byte	0xc
 1789 044c 06       		.uleb128 0x6
 1790 044d 6B010000 		.4byte	.LASF58
 1791 0451 09       		.byte	0x9
 1792 0452 65       		.byte	0x65
 1793 0453 5E020000 		.4byte	0x25e
 1794 0457 10       		.byte	0x10
 1795 0458 06       		.uleb128 0x6
 1796 0459 0E020000 		.4byte	.LASF59
 1797 045d 09       		.byte	0x9
 1798 045e 66       		.byte	0x66
 1799 045f 5E020000 		.4byte	0x25e
 1800 0463 14       		.byte	0x14
 1801 0464 06       		.uleb128 0x6
 1802 0465 04020000 		.4byte	.LASF60
 1803 0469 09       		.byte	0x9
 1804 046a 69       		.byte	0x69
 1805 046b 5E020000 		.4byte	0x25e
 1806 046f 18       		.byte	0x18
ARM GAS  /tmp/ccJCaAwF.s 			page 34


 1807 0470 00       		.byte	0
 1808 0471 04       		.uleb128 0x4
 1809 0472 4E030000 		.4byte	.LASF61
 1810 0476 09       		.byte	0x9
 1811 0477 6B       		.byte	0x6b
 1812 0478 20040000 		.4byte	0x420
 1813 047c 05       		.uleb128 0x5
 1814 047d 3D030000 		.4byte	.LASF62
 1815 0481 0C       		.byte	0xc
 1816 0482 0A       		.byte	0xa
 1817 0483 2C       		.byte	0x2c
 1818 0484 A1040000 		.4byte	0x4a1
 1819 0488 06       		.uleb128 0x6
 1820 0489 C7000000 		.4byte	.LASF63
 1821 048d 0A       		.byte	0xa
 1822 048e 2D       		.byte	0x2d
 1823 048f 64020000 		.4byte	0x264
 1824 0493 00       		.byte	0
 1825 0494 06       		.uleb128 0x6
 1826 0495 39010000 		.4byte	.LASF64
 1827 0499 0A       		.byte	0xa
 1828 049a 2F       		.byte	0x2f
 1829 049b 1E010000 		.4byte	0x11e
 1830 049f 08       		.byte	0x8
 1831 04a0 00       		.byte	0
 1832 04a1 04       		.uleb128 0x4
 1833 04a2 3D030000 		.4byte	.LASF62
 1834 04a6 0A       		.byte	0xa
 1835 04a7 30       		.byte	0x30
 1836 04a8 7C040000 		.4byte	0x47c
 1837 04ac 05       		.uleb128 0x5
 1838 04ad 93010000 		.4byte	.LASF65
 1839 04b1 10       		.byte	0x10
 1840 04b2 0B       		.byte	0xb
 1841 04b3 2C       		.byte	0x2c
 1842 04b4 DD040000 		.4byte	0x4dd
 1843 04b8 06       		.uleb128 0x6
 1844 04b9 9B000000 		.4byte	.LASF66
 1845 04bd 0B       		.byte	0xb
 1846 04be 2D       		.byte	0x2d
 1847 04bf 64020000 		.4byte	0x264
 1848 04c3 00       		.byte	0
 1849 04c4 06       		.uleb128 0x6
 1850 04c5 80030000 		.4byte	.LASF67
 1851 04c9 0B       		.byte	0xb
 1852 04ca 2F       		.byte	0x2f
 1853 04cb 5E020000 		.4byte	0x25e
 1854 04cf 08       		.byte	0x8
 1855 04d0 06       		.uleb128 0x6
 1856 04d1 E8020000 		.4byte	.LASF68
 1857 04d5 0B       		.byte	0xb
 1858 04d6 31       		.byte	0x31
 1859 04d7 DD040000 		.4byte	0x4dd
 1860 04db 0C       		.byte	0xc
 1861 04dc 00       		.byte	0
 1862 04dd 09       		.uleb128 0x9
 1863 04de 04       		.byte	0x4
ARM GAS  /tmp/ccJCaAwF.s 			page 35


 1864 04df AC040000 		.4byte	0x4ac
 1865 04e3 04       		.uleb128 0x4
 1866 04e4 93010000 		.4byte	.LASF65
 1867 04e8 0B       		.byte	0xb
 1868 04e9 33       		.byte	0x33
 1869 04ea AC040000 		.4byte	0x4ac
 1870 04ee 0E       		.uleb128 0xe
 1871 04ef 04       		.byte	0x4
 1872 04f0 07       		.byte	0x7
 1873 04f1 96       		.byte	0x96
 1874 04f2 23050000 		.4byte	0x523
 1875 04f6 0F       		.uleb128 0xf
 1876 04f7 20000000 		.4byte	.LASF69
 1877 04fb 07       		.byte	0x7
 1878 04fc 9D       		.byte	0x9d
 1879 04fd FD000000 		.4byte	0xfd
 1880 0501 0F       		.uleb128 0xf
 1881 0502 CF000000 		.4byte	.LASF70
 1882 0506 07       		.byte	0x7
 1883 0507 A4       		.byte	0xa4
 1884 0508 FD000000 		.4byte	0xfd
 1885 050c 0F       		.uleb128 0xf
 1886 050d 72030000 		.4byte	.LASF71
 1887 0511 07       		.byte	0x7
 1888 0512 AB       		.byte	0xab
 1889 0513 9A020000 		.4byte	0x29a
 1890 0517 0F       		.uleb128 0xf
 1891 0518 81020000 		.4byte	.LASF72
 1892 051c 07       		.byte	0x7
 1893 051d B2       		.byte	0xb2
 1894 051e 08010000 		.4byte	0x108
 1895 0522 00       		.byte	0
 1896 0523 09       		.uleb128 0x9
 1897 0524 04       		.byte	0x4
 1898 0525 29050000 		.4byte	0x529
 1899 0529 10       		.uleb128 0x10
 1900 052a 2E050000 		.4byte	0x52e
 1901 052e 03       		.uleb128 0x3
 1902 052f 01       		.byte	0x1
 1903 0530 08       		.byte	0x8
 1904 0531 C5020000 		.4byte	.LASF73
 1905 0535 09       		.uleb128 0x9
 1906 0536 04       		.byte	0x4
 1907 0537 9C020000 		.4byte	0x29c
 1908 053b 09       		.uleb128 0x9
 1909 053c 04       		.byte	0x4
 1910 053d E3040000 		.4byte	0x4e3
 1911 0541 11       		.uleb128 0x11
 1912 0542 06000000 		.4byte	.LASF90
 1913 0546 01       		.byte	0x1
 1914 0547 34       		.byte	0x34
 1915 0548 00000000 		.4byte	.LFB1
 1916 054c 28000000 		.4byte	.LFE1-.LFB1
 1917 0550 01       		.uleb128 0x1
 1918 0551 9C       		.byte	0x9c
 1919 0552 72050000 		.4byte	0x572
 1920 0556 12       		.uleb128 0x12
ARM GAS  /tmp/ccJCaAwF.s 			page 36


 1921 0557 747000   		.ascii	"tp\000"
 1922 055a 01       		.byte	0x1
 1923 055b 34       		.byte	0x34
 1924 055c 5E020000 		.4byte	0x25e
 1925 0560 02       		.uleb128 0x2
 1926 0561 91       		.byte	0x91
 1927 0562 7C       		.sleb128 -4
 1928 0563 12       		.uleb128 0x12
 1929 0564 74717000 		.ascii	"tqp\000"
 1930 0568 01       		.byte	0x1
 1931 0569 34       		.byte	0x34
 1932 056a 72050000 		.4byte	0x572
 1933 056e 02       		.uleb128 0x2
 1934 056f 91       		.byte	0x91
 1935 0570 78       		.sleb128 -8
 1936 0571 00       		.byte	0
 1937 0572 09       		.uleb128 0x9
 1938 0573 04       		.byte	0x4
 1939 0574 64020000 		.4byte	0x264
 1940 0578 13       		.uleb128 0x13
 1941 0579 CA020000 		.4byte	.LASF74
 1942 057d 01       		.byte	0x1
 1943 057e 3B       		.byte	0x3b
 1944 057f 5E020000 		.4byte	0x25e
 1945 0583 00000000 		.4byte	.LFB2
 1946 0587 22000000 		.4byte	.LFE2-.LFB2
 1947 058b 01       		.uleb128 0x1
 1948 058c 9C       		.byte	0x9c
 1949 058d AD050000 		.4byte	0x5ad
 1950 0591 12       		.uleb128 0x12
 1951 0592 74717000 		.ascii	"tqp\000"
 1952 0596 01       		.byte	0x1
 1953 0597 3B       		.byte	0x3b
 1954 0598 72050000 		.4byte	0x572
 1955 059c 02       		.uleb128 0x2
 1956 059d 91       		.byte	0x91
 1957 059e 74       		.sleb128 -12
 1958 059f 14       		.uleb128 0x14
 1959 05a0 747000   		.ascii	"tp\000"
 1960 05a3 01       		.byte	0x1
 1961 05a4 3C       		.byte	0x3c
 1962 05a5 5E020000 		.4byte	0x25e
 1963 05a9 02       		.uleb128 0x2
 1964 05aa 91       		.byte	0x91
 1965 05ab 7C       		.sleb128 -4
 1966 05ac 00       		.byte	0
 1967 05ad 13       		.uleb128 0x13
 1968 05ae 1F030000 		.4byte	.LASF75
 1969 05b2 01       		.byte	0x1
 1970 05b3 42       		.byte	0x42
 1971 05b4 5E020000 		.4byte	0x25e
 1972 05b8 00000000 		.4byte	.LFB3
 1973 05bc 22000000 		.4byte	.LFE3-.LFB3
 1974 05c0 01       		.uleb128 0x1
 1975 05c1 9C       		.byte	0x9c
 1976 05c2 E2050000 		.4byte	0x5e2
 1977 05c6 12       		.uleb128 0x12
ARM GAS  /tmp/ccJCaAwF.s 			page 37


 1978 05c7 74717000 		.ascii	"tqp\000"
 1979 05cb 01       		.byte	0x1
 1980 05cc 42       		.byte	0x42
 1981 05cd 72050000 		.4byte	0x572
 1982 05d1 02       		.uleb128 0x2
 1983 05d2 91       		.byte	0x91
 1984 05d3 74       		.sleb128 -12
 1985 05d4 14       		.uleb128 0x14
 1986 05d5 747000   		.ascii	"tp\000"
 1987 05d8 01       		.byte	0x1
 1988 05d9 43       		.byte	0x43
 1989 05da 5E020000 		.4byte	0x25e
 1990 05de 02       		.uleb128 0x2
 1991 05df 91       		.byte	0x91
 1992 05e0 7C       		.sleb128 -4
 1993 05e1 00       		.byte	0
 1994 05e2 15       		.uleb128 0x15
 1995 05e3 B1040000 		.4byte	.LASF76
 1996 05e7 02       		.byte	0x2
 1997 05e8 56       		.byte	0x56
 1998 05e9 00000000 		.4byte	.LFB7
 1999 05ed 38000000 		.4byte	.LFE7-.LFB7
 2000 05f1 01       		.uleb128 0x1
 2001 05f2 9C       		.byte	0x9c
 2002 05f3 11060000 		.4byte	0x611
 2003 05f7 12       		.uleb128 0x12
 2004 05f8 737000   		.ascii	"sp\000"
 2005 05fb 02       		.byte	0x2
 2006 05fc 56       		.byte	0x56
 2007 05fd 11060000 		.4byte	0x611
 2008 0601 02       		.uleb128 0x2
 2009 0602 91       		.byte	0x91
 2010 0603 74       		.sleb128 -12
 2011 0604 12       		.uleb128 0x12
 2012 0605 6E00     		.ascii	"n\000"
 2013 0607 02       		.byte	0x2
 2014 0608 56       		.byte	0x56
 2015 0609 1E010000 		.4byte	0x11e
 2016 060d 02       		.uleb128 0x2
 2017 060e 91       		.byte	0x91
 2018 060f 70       		.sleb128 -16
 2019 0610 00       		.byte	0
 2020 0611 09       		.uleb128 0x9
 2021 0612 04       		.byte	0x4
 2022 0613 A1040000 		.4byte	0x4a1
 2023 0617 15       		.uleb128 0x15
 2024 0618 5A010000 		.4byte	.LASF77
 2025 061c 02       		.byte	0x2
 2026 061d 6D       		.byte	0x6d
 2027 061e 00000000 		.4byte	.LFB8
 2028 0622 2E000000 		.4byte	.LFE8-.LFB8
 2029 0626 01       		.uleb128 0x1
 2030 0627 9C       		.byte	0x9c
 2031 0628 78060000 		.4byte	0x678
 2032 062c 12       		.uleb128 0x12
 2033 062d 737000   		.ascii	"sp\000"
 2034 0630 02       		.byte	0x2
ARM GAS  /tmp/ccJCaAwF.s 			page 38


 2035 0631 6D       		.byte	0x6d
 2036 0632 11060000 		.4byte	0x611
 2037 0636 02       		.uleb128 0x2
 2038 0637 91       		.byte	0x91
 2039 0638 74       		.sleb128 -12
 2040 0639 12       		.uleb128 0x12
 2041 063a 6E00     		.ascii	"n\000"
 2042 063c 02       		.byte	0x2
 2043 063d 6D       		.byte	0x6d
 2044 063e 1E010000 		.4byte	0x11e
 2045 0642 02       		.uleb128 0x2
 2046 0643 91       		.byte	0x91
 2047 0644 70       		.sleb128 -16
 2048 0645 16       		.uleb128 0x16
 2049 0646 08000000 		.4byte	.LBB2
 2050 064a 06000000 		.4byte	.LBE2-.LBB2
 2051 064e 60060000 		.4byte	0x660
 2052 0652 14       		.uleb128 0x14
 2053 0653 746D7000 		.ascii	"tmp\000"
 2054 0657 02       		.byte	0x2
 2055 0658 6F       		.byte	0x6f
 2056 0659 A9000000 		.4byte	0xa9
 2057 065d 01       		.uleb128 0x1
 2058 065e 53       		.byte	0x53
 2059 065f 00       		.byte	0
 2060 0660 17       		.uleb128 0x17
 2061 0661 22000000 		.4byte	.LBB3
 2062 0665 06000000 		.4byte	.LBE3-.LBB3
 2063 0669 14       		.uleb128 0x14
 2064 066a 746D7000 		.ascii	"tmp\000"
 2065 066e 02       		.byte	0x2
 2066 066f 72       		.byte	0x72
 2067 0670 A9000000 		.4byte	0xa9
 2068 0674 01       		.uleb128 0x1
 2069 0675 53       		.byte	0x53
 2070 0676 00       		.byte	0
 2071 0677 00       		.byte	0
 2072 0678 15       		.uleb128 0x15
 2073 0679 58030000 		.4byte	.LASF78
 2074 067d 02       		.byte	0x2
 2075 067e 88       		.byte	0x88
 2076 067f 00000000 		.4byte	.LFB9
 2077 0683 88000000 		.4byte	.LFE9-.LFB9
 2078 0687 01       		.uleb128 0x1
 2079 0688 9C       		.byte	0x9c
 2080 0689 B5060000 		.4byte	0x6b5
 2081 068d 12       		.uleb128 0x12
 2082 068e 737000   		.ascii	"sp\000"
 2083 0691 02       		.byte	0x2
 2084 0692 88       		.byte	0x88
 2085 0693 11060000 		.4byte	0x611
 2086 0697 02       		.uleb128 0x2
 2087 0698 91       		.byte	0x91
 2088 0699 6C       		.sleb128 -20
 2089 069a 12       		.uleb128 0x12
 2090 069b 6E00     		.ascii	"n\000"
 2091 069d 02       		.byte	0x2
ARM GAS  /tmp/ccJCaAwF.s 			page 39


 2092 069e 88       		.byte	0x88
 2093 069f 1E010000 		.4byte	0x11e
 2094 06a3 02       		.uleb128 0x2
 2095 06a4 91       		.byte	0x91
 2096 06a5 68       		.sleb128 -24
 2097 06a6 14       		.uleb128 0x14
 2098 06a7 636E7400 		.ascii	"cnt\000"
 2099 06ab 02       		.byte	0x2
 2100 06ac 89       		.byte	0x89
 2101 06ad 1E010000 		.4byte	0x11e
 2102 06b1 02       		.uleb128 0x2
 2103 06b2 91       		.byte	0x91
 2104 06b3 74       		.sleb128 -12
 2105 06b4 00       		.byte	0
 2106 06b5 18       		.uleb128 0x18
 2107 06b6 0E030000 		.4byte	.LASF79
 2108 06ba 02       		.byte	0x2
 2109 06bb A4       		.byte	0xa4
 2110 06bc FD000000 		.4byte	0xfd
 2111 06c0 00000000 		.4byte	.LFB10
 2112 06c4 2C000000 		.4byte	.LFE10-.LFB10
 2113 06c8 01       		.uleb128 0x1
 2114 06c9 9C       		.byte	0x9c
 2115 06ca 1C070000 		.4byte	0x71c
 2116 06ce 12       		.uleb128 0x12
 2117 06cf 737000   		.ascii	"sp\000"
 2118 06d2 02       		.byte	0x2
 2119 06d3 A4       		.byte	0xa4
 2120 06d4 11060000 		.4byte	0x611
 2121 06d8 02       		.uleb128 0x2
 2122 06d9 91       		.byte	0x91
 2123 06da 6C       		.sleb128 -20
 2124 06db 14       		.uleb128 0x14
 2125 06dc 6D736700 		.ascii	"msg\000"
 2126 06e0 02       		.byte	0x2
 2127 06e1 A5       		.byte	0xa5
 2128 06e2 FD000000 		.4byte	0xfd
 2129 06e6 02       		.uleb128 0x2
 2130 06e7 91       		.byte	0x91
 2131 06e8 74       		.sleb128 -12
 2132 06e9 16       		.uleb128 0x16
 2133 06ea 06000000 		.4byte	.LBB4
 2134 06ee 06000000 		.4byte	.LBE4-.LBB4
 2135 06f2 04070000 		.4byte	0x704
 2136 06f6 14       		.uleb128 0x14
 2137 06f7 746D7000 		.ascii	"tmp\000"
 2138 06fb 02       		.byte	0x2
 2139 06fc A7       		.byte	0xa7
 2140 06fd A9000000 		.4byte	0xa9
 2141 0701 01       		.uleb128 0x1
 2142 0702 53       		.byte	0x53
 2143 0703 00       		.byte	0
 2144 0704 17       		.uleb128 0x17
 2145 0705 1C000000 		.4byte	.LBB5
 2146 0709 06000000 		.4byte	.LBE5-.LBB5
 2147 070d 14       		.uleb128 0x14
 2148 070e 746D7000 		.ascii	"tmp\000"
ARM GAS  /tmp/ccJCaAwF.s 			page 40


 2149 0712 02       		.byte	0x2
 2150 0713 A9       		.byte	0xa9
 2151 0714 A9000000 		.4byte	0xa9
 2152 0718 01       		.uleb128 0x1
 2153 0719 53       		.byte	0x53
 2154 071a 00       		.byte	0
 2155 071b 00       		.byte	0
 2156 071c 18       		.uleb128 0x18
 2157 071d 97020000 		.4byte	.LASF80
 2158 0721 02       		.byte	0x2
 2159 0722 B9       		.byte	0xb9
 2160 0723 FD000000 		.4byte	0xfd
 2161 0727 00000000 		.4byte	.LFB11
 2162 072b 8C000000 		.4byte	.LFE11-.LFB11
 2163 072f 01       		.uleb128 0x1
 2164 0730 9C       		.byte	0x9c
 2165 0731 43070000 		.4byte	0x743
 2166 0735 12       		.uleb128 0x12
 2167 0736 737000   		.ascii	"sp\000"
 2168 0739 02       		.byte	0x2
 2169 073a B9       		.byte	0xb9
 2170 073b 11060000 		.4byte	0x611
 2171 073f 02       		.uleb128 0x2
 2172 0740 91       		.byte	0x91
 2173 0741 74       		.sleb128 -12
 2174 0742 00       		.byte	0
 2175 0743 18       		.uleb128 0x18
 2176 0744 0A010000 		.4byte	.LASF81
 2177 0748 02       		.byte	0x2
 2178 0749 DE       		.byte	0xde
 2179 074a FD000000 		.4byte	0xfd
 2180 074e 00000000 		.4byte	.LFB12
 2181 0752 30000000 		.4byte	.LFE12-.LFB12
 2182 0756 01       		.uleb128 0x1
 2183 0757 9C       		.byte	0x9c
 2184 0758 B8070000 		.4byte	0x7b8
 2185 075c 12       		.uleb128 0x12
 2186 075d 737000   		.ascii	"sp\000"
 2187 0760 02       		.byte	0x2
 2188 0761 DE       		.byte	0xde
 2189 0762 11060000 		.4byte	0x611
 2190 0766 02       		.uleb128 0x2
 2191 0767 91       		.byte	0x91
 2192 0768 6C       		.sleb128 -20
 2193 0769 19       		.uleb128 0x19
 2194 076a FF010000 		.4byte	.LASF82
 2195 076e 02       		.byte	0x2
 2196 076f DE       		.byte	0xde
 2197 0770 13010000 		.4byte	0x113
 2198 0774 02       		.uleb128 0x2
 2199 0775 91       		.byte	0x91
 2200 0776 68       		.sleb128 -24
 2201 0777 14       		.uleb128 0x14
 2202 0778 6D736700 		.ascii	"msg\000"
 2203 077c 02       		.byte	0x2
 2204 077d DF       		.byte	0xdf
 2205 077e FD000000 		.4byte	0xfd
ARM GAS  /tmp/ccJCaAwF.s 			page 41


 2206 0782 02       		.uleb128 0x2
 2207 0783 91       		.byte	0x91
 2208 0784 74       		.sleb128 -12
 2209 0785 16       		.uleb128 0x16
 2210 0786 08000000 		.4byte	.LBB6
 2211 078a 06000000 		.4byte	.LBE6-.LBB6
 2212 078e A0070000 		.4byte	0x7a0
 2213 0792 14       		.uleb128 0x14
 2214 0793 746D7000 		.ascii	"tmp\000"
 2215 0797 02       		.byte	0x2
 2216 0798 E1       		.byte	0xe1
 2217 0799 A9000000 		.4byte	0xa9
 2218 079d 01       		.uleb128 0x1
 2219 079e 53       		.byte	0x53
 2220 079f 00       		.byte	0
 2221 07a0 17       		.uleb128 0x17
 2222 07a1 20000000 		.4byte	.LBB7
 2223 07a5 06000000 		.4byte	.LBE7-.LBB7
 2224 07a9 14       		.uleb128 0x14
 2225 07aa 746D7000 		.ascii	"tmp\000"
 2226 07ae 02       		.byte	0x2
 2227 07af E3       		.byte	0xe3
 2228 07b0 A9000000 		.4byte	0xa9
 2229 07b4 01       		.uleb128 0x1
 2230 07b5 53       		.byte	0x53
 2231 07b6 00       		.byte	0
 2232 07b7 00       		.byte	0
 2233 07b8 18       		.uleb128 0x18
 2234 07b9 D6020000 		.4byte	.LASF83
 2235 07bd 02       		.byte	0x2
 2236 07be FA       		.byte	0xfa
 2237 07bf FD000000 		.4byte	0xfd
 2238 07c3 00000000 		.4byte	.LFB13
 2239 07c7 A4000000 		.4byte	.LFE13-.LFB13
 2240 07cb 01       		.uleb128 0x1
 2241 07cc 9C       		.byte	0x9c
 2242 07cd ED070000 		.4byte	0x7ed
 2243 07d1 12       		.uleb128 0x12
 2244 07d2 737000   		.ascii	"sp\000"
 2245 07d5 02       		.byte	0x2
 2246 07d6 FA       		.byte	0xfa
 2247 07d7 11060000 		.4byte	0x611
 2248 07db 02       		.uleb128 0x2
 2249 07dc 91       		.byte	0x91
 2250 07dd 74       		.sleb128 -12
 2251 07de 19       		.uleb128 0x19
 2252 07df FF010000 		.4byte	.LASF82
 2253 07e3 02       		.byte	0x2
 2254 07e4 FA       		.byte	0xfa
 2255 07e5 13010000 		.4byte	0x113
 2256 07e9 02       		.uleb128 0x2
 2257 07ea 91       		.byte	0x91
 2258 07eb 70       		.sleb128 -16
 2259 07ec 00       		.byte	0
 2260 07ed 1A       		.uleb128 0x1a
 2261 07ee 2D010000 		.4byte	.LASF84
 2262 07f2 02       		.byte	0x2
ARM GAS  /tmp/ccJCaAwF.s 			page 42


 2263 07f3 1601     		.2byte	0x116
 2264 07f5 00000000 		.4byte	.LFB14
 2265 07f9 84000000 		.4byte	.LFE14-.LFB14
 2266 07fd 01       		.uleb128 0x1
 2267 07fe 9C       		.byte	0x9c
 2268 07ff 46080000 		.4byte	0x846
 2269 0803 1B       		.uleb128 0x1b
 2270 0804 737000   		.ascii	"sp\000"
 2271 0807 02       		.byte	0x2
 2272 0808 1601     		.2byte	0x116
 2273 080a 11060000 		.4byte	0x611
 2274 080e 02       		.uleb128 0x2
 2275 080f 91       		.byte	0x91
 2276 0810 74       		.sleb128 -12
 2277 0811 16       		.uleb128 0x16
 2278 0812 3C000000 		.4byte	.LBB8
 2279 0816 06000000 		.4byte	.LBE8-.LBB8
 2280 081a 2D080000 		.4byte	0x82d
 2281 081e 1C       		.uleb128 0x1c
 2282 081f 746D7000 		.ascii	"tmp\000"
 2283 0823 02       		.byte	0x2
 2284 0824 1E01     		.2byte	0x11e
 2285 0826 A9000000 		.4byte	0xa9
 2286 082a 01       		.uleb128 0x1
 2287 082b 53       		.byte	0x53
 2288 082c 00       		.byte	0
 2289 082d 17       		.uleb128 0x17
 2290 082e 6E000000 		.4byte	.LBB9
 2291 0832 06000000 		.4byte	.LBE9-.LBB9
 2292 0836 1C       		.uleb128 0x1c
 2293 0837 746D7000 		.ascii	"tmp\000"
 2294 083b 02       		.byte	0x2
 2295 083c 2101     		.2byte	0x121
 2296 083e A9000000 		.4byte	0xa9
 2297 0842 01       		.uleb128 0x1
 2298 0843 53       		.byte	0x53
 2299 0844 00       		.byte	0
 2300 0845 00       		.byte	0
 2301 0846 1A       		.uleb128 0x1a
 2302 0847 13000000 		.4byte	.LASF85
 2303 084b 02       		.byte	0x2
 2304 084c 2F01     		.2byte	0x12f
 2305 084e 00000000 		.4byte	.LFB15
 2306 0852 78000000 		.4byte	.LFE15-.LFB15
 2307 0856 01       		.uleb128 0x1
 2308 0857 9C       		.byte	0x9c
 2309 0858 83080000 		.4byte	0x883
 2310 085c 1B       		.uleb128 0x1b
 2311 085d 737000   		.ascii	"sp\000"
 2312 0860 02       		.byte	0x2
 2313 0861 2F01     		.2byte	0x12f
 2314 0863 11060000 		.4byte	0x611
 2315 0867 02       		.uleb128 0x2
 2316 0868 91       		.byte	0x91
 2317 0869 6C       		.sleb128 -20
 2318 086a 17       		.uleb128 0x17
 2319 086b 52000000 		.4byte	.LBB10
ARM GAS  /tmp/ccJCaAwF.s 			page 43


 2320 086f 16000000 		.4byte	.LBE10-.LBB10
 2321 0873 1C       		.uleb128 0x1c
 2322 0874 747000   		.ascii	"tp\000"
 2323 0877 02       		.byte	0x2
 2324 0878 3B01     		.2byte	0x13b
 2325 087a 5E020000 		.4byte	0x25e
 2326 087e 02       		.uleb128 0x2
 2327 087f 91       		.byte	0x91
 2328 0880 74       		.sleb128 -12
 2329 0881 00       		.byte	0
 2330 0882 00       		.byte	0
 2331 0883 1A       		.uleb128 0x1a
 2332 0884 51000000 		.4byte	.LASF86
 2333 0888 02       		.byte	0x2
 2334 0889 4E01     		.2byte	0x14e
 2335 088b 00000000 		.4byte	.LFB16
 2336 088f 8C000000 		.4byte	.LFE16-.LFB16
 2337 0893 01       		.uleb128 0x1
 2338 0894 9C       		.byte	0x9c
 2339 0895 B5080000 		.4byte	0x8b5
 2340 0899 1B       		.uleb128 0x1b
 2341 089a 737000   		.ascii	"sp\000"
 2342 089d 02       		.byte	0x2
 2343 089e 4E01     		.2byte	0x14e
 2344 08a0 11060000 		.4byte	0x611
 2345 08a4 02       		.uleb128 0x2
 2346 08a5 91       		.byte	0x91
 2347 08a6 74       		.sleb128 -12
 2348 08a7 1B       		.uleb128 0x1b
 2349 08a8 6E00     		.ascii	"n\000"
 2350 08aa 02       		.byte	0x2
 2351 08ab 4E01     		.2byte	0x14e
 2352 08ad 1E010000 		.4byte	0x11e
 2353 08b1 02       		.uleb128 0x2
 2354 08b2 91       		.byte	0x91
 2355 08b3 70       		.sleb128 -16
 2356 08b4 00       		.byte	0
 2357 08b5 1D       		.uleb128 0x1d
 2358 08b6 83000000 		.4byte	.LASF87
 2359 08ba 02       		.byte	0x2
 2360 08bb 6E01     		.2byte	0x16e
 2361 08bd FD000000 		.4byte	0xfd
 2362 08c1 00000000 		.4byte	.LFB17
 2363 08c5 04010000 		.4byte	.LFE17-.LFB17
 2364 08c9 01       		.uleb128 0x1
 2365 08ca 9C       		.byte	0x9c
 2366 08cb 4E090000 		.4byte	0x94e
 2367 08cf 1B       		.uleb128 0x1b
 2368 08d0 73707300 		.ascii	"sps\000"
 2369 08d4 02       		.byte	0x2
 2370 08d5 6E01     		.2byte	0x16e
 2371 08d7 11060000 		.4byte	0x611
 2372 08db 02       		.uleb128 0x2
 2373 08dc 91       		.byte	0x91
 2374 08dd 6C       		.sleb128 -20
 2375 08de 1B       		.uleb128 0x1b
 2376 08df 73707700 		.ascii	"spw\000"
ARM GAS  /tmp/ccJCaAwF.s 			page 44


 2377 08e3 02       		.byte	0x2
 2378 08e4 6E01     		.2byte	0x16e
 2379 08e6 11060000 		.4byte	0x611
 2380 08ea 02       		.uleb128 0x2
 2381 08eb 91       		.byte	0x91
 2382 08ec 68       		.sleb128 -24
 2383 08ed 1C       		.uleb128 0x1c
 2384 08ee 6D736700 		.ascii	"msg\000"
 2385 08f2 02       		.byte	0x2
 2386 08f3 6F01     		.2byte	0x16f
 2387 08f5 FD000000 		.4byte	0xfd
 2388 08f9 02       		.uleb128 0x2
 2389 08fa 91       		.byte	0x91
 2390 08fb 74       		.sleb128 -12
 2391 08fc 16       		.uleb128 0x16
 2392 08fd 6E000000 		.4byte	.LBB11
 2393 0901 06000000 		.4byte	.LBE11-.LBB11
 2394 0905 18090000 		.4byte	0x918
 2395 0909 1C       		.uleb128 0x1c
 2396 090a 746D7000 		.ascii	"tmp\000"
 2397 090e 02       		.byte	0x2
 2398 090f 7B01     		.2byte	0x17b
 2399 0911 A9000000 		.4byte	0xa9
 2400 0915 01       		.uleb128 0x1
 2401 0916 53       		.byte	0x53
 2402 0917 00       		.byte	0
 2403 0918 16       		.uleb128 0x16
 2404 0919 B2000000 		.4byte	.LBB12
 2405 091d 22000000 		.4byte	.LBE12-.LBB12
 2406 0921 35090000 		.4byte	0x935
 2407 0925 1C       		.uleb128 0x1c
 2408 0926 63747000 		.ascii	"ctp\000"
 2409 092a 02       		.byte	0x2
 2410 092b 7F01     		.2byte	0x17f
 2411 092d 5E020000 		.4byte	0x25e
 2412 0931 02       		.uleb128 0x2
 2413 0932 91       		.byte	0x91
 2414 0933 70       		.sleb128 -16
 2415 0934 00       		.byte	0
 2416 0935 17       		.uleb128 0x17
 2417 0936 E2000000 		.4byte	.LBB13
 2418 093a 06000000 		.4byte	.LBE13-.LBB13
 2419 093e 1C       		.uleb128 0x1c
 2420 093f 746D7000 		.ascii	"tmp\000"
 2421 0943 02       		.byte	0x2
 2422 0944 8901     		.2byte	0x189
 2423 0946 A9000000 		.4byte	0xa9
 2424 094a 01       		.uleb128 0x1
 2425 094b 53       		.byte	0x53
 2426 094c 00       		.byte	0
 2427 094d 00       		.byte	0
 2428 094e 1E       		.uleb128 0x1e
 2429 094f 64030000 		.4byte	.LASF91
 2430 0953 09       		.byte	0x9
 2431 0954 6F       		.byte	0x6f
 2432 0955 71040000 		.4byte	0x471
 2433 0959 00       		.byte	0
ARM GAS  /tmp/ccJCaAwF.s 			page 45


 2434              		.section	.debug_abbrev,"",%progbits
 2435              	.Ldebug_abbrev0:
 2436 0000 01       		.uleb128 0x1
 2437 0001 11       		.uleb128 0x11
 2438 0002 01       		.byte	0x1
 2439 0003 25       		.uleb128 0x25
 2440 0004 0E       		.uleb128 0xe
 2441 0005 13       		.uleb128 0x13
 2442 0006 0B       		.uleb128 0xb
 2443 0007 03       		.uleb128 0x3
 2444 0008 0E       		.uleb128 0xe
 2445 0009 55       		.uleb128 0x55
 2446 000a 17       		.uleb128 0x17
 2447 000b 11       		.uleb128 0x11
 2448 000c 01       		.uleb128 0x1
 2449 000d 10       		.uleb128 0x10
 2450 000e 17       		.uleb128 0x17
 2451 000f 00       		.byte	0
 2452 0010 00       		.byte	0
 2453 0011 02       		.uleb128 0x2
 2454 0012 24       		.uleb128 0x24
 2455 0013 00       		.byte	0
 2456 0014 0B       		.uleb128 0xb
 2457 0015 0B       		.uleb128 0xb
 2458 0016 3E       		.uleb128 0x3e
 2459 0017 0B       		.uleb128 0xb
 2460 0018 03       		.uleb128 0x3
 2461 0019 08       		.uleb128 0x8
 2462 001a 00       		.byte	0
 2463 001b 00       		.byte	0
 2464 001c 03       		.uleb128 0x3
 2465 001d 24       		.uleb128 0x24
 2466 001e 00       		.byte	0
 2467 001f 0B       		.uleb128 0xb
 2468 0020 0B       		.uleb128 0xb
 2469 0021 3E       		.uleb128 0x3e
 2470 0022 0B       		.uleb128 0xb
 2471 0023 03       		.uleb128 0x3
 2472 0024 0E       		.uleb128 0xe
 2473 0025 00       		.byte	0
 2474 0026 00       		.byte	0
 2475 0027 04       		.uleb128 0x4
 2476 0028 16       		.uleb128 0x16
 2477 0029 00       		.byte	0
 2478 002a 03       		.uleb128 0x3
 2479 002b 0E       		.uleb128 0xe
 2480 002c 3A       		.uleb128 0x3a
 2481 002d 0B       		.uleb128 0xb
 2482 002e 3B       		.uleb128 0x3b
 2483 002f 0B       		.uleb128 0xb
 2484 0030 49       		.uleb128 0x49
 2485 0031 13       		.uleb128 0x13
 2486 0032 00       		.byte	0
 2487 0033 00       		.byte	0
 2488 0034 05       		.uleb128 0x5
 2489 0035 13       		.uleb128 0x13
 2490 0036 01       		.byte	0x1
ARM GAS  /tmp/ccJCaAwF.s 			page 46


 2491 0037 03       		.uleb128 0x3
 2492 0038 0E       		.uleb128 0xe
 2493 0039 0B       		.uleb128 0xb
 2494 003a 0B       		.uleb128 0xb
 2495 003b 3A       		.uleb128 0x3a
 2496 003c 0B       		.uleb128 0xb
 2497 003d 3B       		.uleb128 0x3b
 2498 003e 0B       		.uleb128 0xb
 2499 003f 01       		.uleb128 0x1
 2500 0040 13       		.uleb128 0x13
 2501 0041 00       		.byte	0
 2502 0042 00       		.byte	0
 2503 0043 06       		.uleb128 0x6
 2504 0044 0D       		.uleb128 0xd
 2505 0045 00       		.byte	0
 2506 0046 03       		.uleb128 0x3
 2507 0047 0E       		.uleb128 0xe
 2508 0048 3A       		.uleb128 0x3a
 2509 0049 0B       		.uleb128 0xb
 2510 004a 3B       		.uleb128 0x3b
 2511 004b 0B       		.uleb128 0xb
 2512 004c 49       		.uleb128 0x49
 2513 004d 13       		.uleb128 0x13
 2514 004e 38       		.uleb128 0x38
 2515 004f 0B       		.uleb128 0xb
 2516 0050 00       		.byte	0
 2517 0051 00       		.byte	0
 2518 0052 07       		.uleb128 0x7
 2519 0053 0D       		.uleb128 0xd
 2520 0054 00       		.byte	0
 2521 0055 03       		.uleb128 0x3
 2522 0056 08       		.uleb128 0x8
 2523 0057 3A       		.uleb128 0x3a
 2524 0058 0B       		.uleb128 0xb
 2525 0059 3B       		.uleb128 0x3b
 2526 005a 0B       		.uleb128 0xb
 2527 005b 49       		.uleb128 0x49
 2528 005c 13       		.uleb128 0x13
 2529 005d 38       		.uleb128 0x38
 2530 005e 0B       		.uleb128 0xb
 2531 005f 00       		.byte	0
 2532 0060 00       		.byte	0
 2533 0061 08       		.uleb128 0x8
 2534 0062 13       		.uleb128 0x13
 2535 0063 01       		.byte	0x1
 2536 0064 0B       		.uleb128 0xb
 2537 0065 0B       		.uleb128 0xb
 2538 0066 3A       		.uleb128 0x3a
 2539 0067 0B       		.uleb128 0xb
 2540 0068 3B       		.uleb128 0x3b
 2541 0069 0B       		.uleb128 0xb
 2542 006a 01       		.uleb128 0x1
 2543 006b 13       		.uleb128 0x13
 2544 006c 00       		.byte	0
 2545 006d 00       		.byte	0
 2546 006e 09       		.uleb128 0x9
 2547 006f 0F       		.uleb128 0xf
ARM GAS  /tmp/ccJCaAwF.s 			page 47


 2548 0070 00       		.byte	0
 2549 0071 0B       		.uleb128 0xb
 2550 0072 0B       		.uleb128 0xb
 2551 0073 49       		.uleb128 0x49
 2552 0074 13       		.uleb128 0x13
 2553 0075 00       		.byte	0
 2554 0076 00       		.byte	0
 2555 0077 0A       		.uleb128 0xa
 2556 0078 0F       		.uleb128 0xf
 2557 0079 00       		.byte	0
 2558 007a 0B       		.uleb128 0xb
 2559 007b 0B       		.uleb128 0xb
 2560 007c 00       		.byte	0
 2561 007d 00       		.byte	0
 2562 007e 0B       		.uleb128 0xb
 2563 007f 13       		.uleb128 0x13
 2564 0080 01       		.byte	0x1
 2565 0081 03       		.uleb128 0x3
 2566 0082 0E       		.uleb128 0xe
 2567 0083 0B       		.uleb128 0xb
 2568 0084 0B       		.uleb128 0xb
 2569 0085 3A       		.uleb128 0x3a
 2570 0086 0B       		.uleb128 0xb
 2571 0087 3B       		.uleb128 0x3b
 2572 0088 05       		.uleb128 0x5
 2573 0089 01       		.uleb128 0x1
 2574 008a 13       		.uleb128 0x13
 2575 008b 00       		.byte	0
 2576 008c 00       		.byte	0
 2577 008d 0C       		.uleb128 0xc
 2578 008e 0D       		.uleb128 0xd
 2579 008f 00       		.byte	0
 2580 0090 03       		.uleb128 0x3
 2581 0091 08       		.uleb128 0x8
 2582 0092 3A       		.uleb128 0x3a
 2583 0093 0B       		.uleb128 0xb
 2584 0094 3B       		.uleb128 0x3b
 2585 0095 05       		.uleb128 0x5
 2586 0096 49       		.uleb128 0x49
 2587 0097 13       		.uleb128 0x13
 2588 0098 38       		.uleb128 0x38
 2589 0099 0B       		.uleb128 0xb
 2590 009a 00       		.byte	0
 2591 009b 00       		.byte	0
 2592 009c 0D       		.uleb128 0xd
 2593 009d 35       		.uleb128 0x35
 2594 009e 00       		.byte	0
 2595 009f 49       		.uleb128 0x49
 2596 00a0 13       		.uleb128 0x13
 2597 00a1 00       		.byte	0
 2598 00a2 00       		.byte	0
 2599 00a3 0E       		.uleb128 0xe
 2600 00a4 17       		.uleb128 0x17
 2601 00a5 01       		.byte	0x1
 2602 00a6 0B       		.uleb128 0xb
 2603 00a7 0B       		.uleb128 0xb
 2604 00a8 3A       		.uleb128 0x3a
ARM GAS  /tmp/ccJCaAwF.s 			page 48


 2605 00a9 0B       		.uleb128 0xb
 2606 00aa 3B       		.uleb128 0x3b
 2607 00ab 0B       		.uleb128 0xb
 2608 00ac 01       		.uleb128 0x1
 2609 00ad 13       		.uleb128 0x13
 2610 00ae 00       		.byte	0
 2611 00af 00       		.byte	0
 2612 00b0 0F       		.uleb128 0xf
 2613 00b1 0D       		.uleb128 0xd
 2614 00b2 00       		.byte	0
 2615 00b3 03       		.uleb128 0x3
 2616 00b4 0E       		.uleb128 0xe
 2617 00b5 3A       		.uleb128 0x3a
 2618 00b6 0B       		.uleb128 0xb
 2619 00b7 3B       		.uleb128 0x3b
 2620 00b8 0B       		.uleb128 0xb
 2621 00b9 49       		.uleb128 0x49
 2622 00ba 13       		.uleb128 0x13
 2623 00bb 00       		.byte	0
 2624 00bc 00       		.byte	0
 2625 00bd 10       		.uleb128 0x10
 2626 00be 26       		.uleb128 0x26
 2627 00bf 00       		.byte	0
 2628 00c0 49       		.uleb128 0x49
 2629 00c1 13       		.uleb128 0x13
 2630 00c2 00       		.byte	0
 2631 00c3 00       		.byte	0
 2632 00c4 11       		.uleb128 0x11
 2633 00c5 2E       		.uleb128 0x2e
 2634 00c6 01       		.byte	0x1
 2635 00c7 03       		.uleb128 0x3
 2636 00c8 0E       		.uleb128 0xe
 2637 00c9 3A       		.uleb128 0x3a
 2638 00ca 0B       		.uleb128 0xb
 2639 00cb 3B       		.uleb128 0x3b
 2640 00cc 0B       		.uleb128 0xb
 2641 00cd 27       		.uleb128 0x27
 2642 00ce 19       		.uleb128 0x19
 2643 00cf 11       		.uleb128 0x11
 2644 00d0 01       		.uleb128 0x1
 2645 00d1 12       		.uleb128 0x12
 2646 00d2 06       		.uleb128 0x6
 2647 00d3 40       		.uleb128 0x40
 2648 00d4 18       		.uleb128 0x18
 2649 00d5 9742     		.uleb128 0x2117
 2650 00d7 19       		.uleb128 0x19
 2651 00d8 01       		.uleb128 0x1
 2652 00d9 13       		.uleb128 0x13
 2653 00da 00       		.byte	0
 2654 00db 00       		.byte	0
 2655 00dc 12       		.uleb128 0x12
 2656 00dd 05       		.uleb128 0x5
 2657 00de 00       		.byte	0
 2658 00df 03       		.uleb128 0x3
 2659 00e0 08       		.uleb128 0x8
 2660 00e1 3A       		.uleb128 0x3a
 2661 00e2 0B       		.uleb128 0xb
ARM GAS  /tmp/ccJCaAwF.s 			page 49


 2662 00e3 3B       		.uleb128 0x3b
 2663 00e4 0B       		.uleb128 0xb
 2664 00e5 49       		.uleb128 0x49
 2665 00e6 13       		.uleb128 0x13
 2666 00e7 02       		.uleb128 0x2
 2667 00e8 18       		.uleb128 0x18
 2668 00e9 00       		.byte	0
 2669 00ea 00       		.byte	0
 2670 00eb 13       		.uleb128 0x13
 2671 00ec 2E       		.uleb128 0x2e
 2672 00ed 01       		.byte	0x1
 2673 00ee 03       		.uleb128 0x3
 2674 00ef 0E       		.uleb128 0xe
 2675 00f0 3A       		.uleb128 0x3a
 2676 00f1 0B       		.uleb128 0xb
 2677 00f2 3B       		.uleb128 0x3b
 2678 00f3 0B       		.uleb128 0xb
 2679 00f4 27       		.uleb128 0x27
 2680 00f5 19       		.uleb128 0x19
 2681 00f6 49       		.uleb128 0x49
 2682 00f7 13       		.uleb128 0x13
 2683 00f8 11       		.uleb128 0x11
 2684 00f9 01       		.uleb128 0x1
 2685 00fa 12       		.uleb128 0x12
 2686 00fb 06       		.uleb128 0x6
 2687 00fc 40       		.uleb128 0x40
 2688 00fd 18       		.uleb128 0x18
 2689 00fe 9742     		.uleb128 0x2117
 2690 0100 19       		.uleb128 0x19
 2691 0101 01       		.uleb128 0x1
 2692 0102 13       		.uleb128 0x13
 2693 0103 00       		.byte	0
 2694 0104 00       		.byte	0
 2695 0105 14       		.uleb128 0x14
 2696 0106 34       		.uleb128 0x34
 2697 0107 00       		.byte	0
 2698 0108 03       		.uleb128 0x3
 2699 0109 08       		.uleb128 0x8
 2700 010a 3A       		.uleb128 0x3a
 2701 010b 0B       		.uleb128 0xb
 2702 010c 3B       		.uleb128 0x3b
 2703 010d 0B       		.uleb128 0xb
 2704 010e 49       		.uleb128 0x49
 2705 010f 13       		.uleb128 0x13
 2706 0110 02       		.uleb128 0x2
 2707 0111 18       		.uleb128 0x18
 2708 0112 00       		.byte	0
 2709 0113 00       		.byte	0
 2710 0114 15       		.uleb128 0x15
 2711 0115 2E       		.uleb128 0x2e
 2712 0116 01       		.byte	0x1
 2713 0117 3F       		.uleb128 0x3f
 2714 0118 19       		.uleb128 0x19
 2715 0119 03       		.uleb128 0x3
 2716 011a 0E       		.uleb128 0xe
 2717 011b 3A       		.uleb128 0x3a
 2718 011c 0B       		.uleb128 0xb
ARM GAS  /tmp/ccJCaAwF.s 			page 50


 2719 011d 3B       		.uleb128 0x3b
 2720 011e 0B       		.uleb128 0xb
 2721 011f 27       		.uleb128 0x27
 2722 0120 19       		.uleb128 0x19
 2723 0121 11       		.uleb128 0x11
 2724 0122 01       		.uleb128 0x1
 2725 0123 12       		.uleb128 0x12
 2726 0124 06       		.uleb128 0x6
 2727 0125 40       		.uleb128 0x40
 2728 0126 18       		.uleb128 0x18
 2729 0127 9642     		.uleb128 0x2116
 2730 0129 19       		.uleb128 0x19
 2731 012a 01       		.uleb128 0x1
 2732 012b 13       		.uleb128 0x13
 2733 012c 00       		.byte	0
 2734 012d 00       		.byte	0
 2735 012e 16       		.uleb128 0x16
 2736 012f 0B       		.uleb128 0xb
 2737 0130 01       		.byte	0x1
 2738 0131 11       		.uleb128 0x11
 2739 0132 01       		.uleb128 0x1
 2740 0133 12       		.uleb128 0x12
 2741 0134 06       		.uleb128 0x6
 2742 0135 01       		.uleb128 0x1
 2743 0136 13       		.uleb128 0x13
 2744 0137 00       		.byte	0
 2745 0138 00       		.byte	0
 2746 0139 17       		.uleb128 0x17
 2747 013a 0B       		.uleb128 0xb
 2748 013b 01       		.byte	0x1
 2749 013c 11       		.uleb128 0x11
 2750 013d 01       		.uleb128 0x1
 2751 013e 12       		.uleb128 0x12
 2752 013f 06       		.uleb128 0x6
 2753 0140 00       		.byte	0
 2754 0141 00       		.byte	0
 2755 0142 18       		.uleb128 0x18
 2756 0143 2E       		.uleb128 0x2e
 2757 0144 01       		.byte	0x1
 2758 0145 3F       		.uleb128 0x3f
 2759 0146 19       		.uleb128 0x19
 2760 0147 03       		.uleb128 0x3
 2761 0148 0E       		.uleb128 0xe
 2762 0149 3A       		.uleb128 0x3a
 2763 014a 0B       		.uleb128 0xb
 2764 014b 3B       		.uleb128 0x3b
 2765 014c 0B       		.uleb128 0xb
 2766 014d 27       		.uleb128 0x27
 2767 014e 19       		.uleb128 0x19
 2768 014f 49       		.uleb128 0x49
 2769 0150 13       		.uleb128 0x13
 2770 0151 11       		.uleb128 0x11
 2771 0152 01       		.uleb128 0x1
 2772 0153 12       		.uleb128 0x12
 2773 0154 06       		.uleb128 0x6
 2774 0155 40       		.uleb128 0x40
 2775 0156 18       		.uleb128 0x18
ARM GAS  /tmp/ccJCaAwF.s 			page 51


 2776 0157 9642     		.uleb128 0x2116
 2777 0159 19       		.uleb128 0x19
 2778 015a 01       		.uleb128 0x1
 2779 015b 13       		.uleb128 0x13
 2780 015c 00       		.byte	0
 2781 015d 00       		.byte	0
 2782 015e 19       		.uleb128 0x19
 2783 015f 05       		.uleb128 0x5
 2784 0160 00       		.byte	0
 2785 0161 03       		.uleb128 0x3
 2786 0162 0E       		.uleb128 0xe
 2787 0163 3A       		.uleb128 0x3a
 2788 0164 0B       		.uleb128 0xb
 2789 0165 3B       		.uleb128 0x3b
 2790 0166 0B       		.uleb128 0xb
 2791 0167 49       		.uleb128 0x49
 2792 0168 13       		.uleb128 0x13
 2793 0169 02       		.uleb128 0x2
 2794 016a 18       		.uleb128 0x18
 2795 016b 00       		.byte	0
 2796 016c 00       		.byte	0
 2797 016d 1A       		.uleb128 0x1a
 2798 016e 2E       		.uleb128 0x2e
 2799 016f 01       		.byte	0x1
 2800 0170 3F       		.uleb128 0x3f
 2801 0171 19       		.uleb128 0x19
 2802 0172 03       		.uleb128 0x3
 2803 0173 0E       		.uleb128 0xe
 2804 0174 3A       		.uleb128 0x3a
 2805 0175 0B       		.uleb128 0xb
 2806 0176 3B       		.uleb128 0x3b
 2807 0177 05       		.uleb128 0x5
 2808 0178 27       		.uleb128 0x27
 2809 0179 19       		.uleb128 0x19
 2810 017a 11       		.uleb128 0x11
 2811 017b 01       		.uleb128 0x1
 2812 017c 12       		.uleb128 0x12
 2813 017d 06       		.uleb128 0x6
 2814 017e 40       		.uleb128 0x40
 2815 017f 18       		.uleb128 0x18
 2816 0180 9642     		.uleb128 0x2116
 2817 0182 19       		.uleb128 0x19
 2818 0183 01       		.uleb128 0x1
 2819 0184 13       		.uleb128 0x13
 2820 0185 00       		.byte	0
 2821 0186 00       		.byte	0
 2822 0187 1B       		.uleb128 0x1b
 2823 0188 05       		.uleb128 0x5
 2824 0189 00       		.byte	0
 2825 018a 03       		.uleb128 0x3
 2826 018b 08       		.uleb128 0x8
 2827 018c 3A       		.uleb128 0x3a
 2828 018d 0B       		.uleb128 0xb
 2829 018e 3B       		.uleb128 0x3b
 2830 018f 05       		.uleb128 0x5
 2831 0190 49       		.uleb128 0x49
 2832 0191 13       		.uleb128 0x13
ARM GAS  /tmp/ccJCaAwF.s 			page 52


 2833 0192 02       		.uleb128 0x2
 2834 0193 18       		.uleb128 0x18
 2835 0194 00       		.byte	0
 2836 0195 00       		.byte	0
 2837 0196 1C       		.uleb128 0x1c
 2838 0197 34       		.uleb128 0x34
 2839 0198 00       		.byte	0
 2840 0199 03       		.uleb128 0x3
 2841 019a 08       		.uleb128 0x8
 2842 019b 3A       		.uleb128 0x3a
 2843 019c 0B       		.uleb128 0xb
 2844 019d 3B       		.uleb128 0x3b
 2845 019e 05       		.uleb128 0x5
 2846 019f 49       		.uleb128 0x49
 2847 01a0 13       		.uleb128 0x13
 2848 01a1 02       		.uleb128 0x2
 2849 01a2 18       		.uleb128 0x18
 2850 01a3 00       		.byte	0
 2851 01a4 00       		.byte	0
 2852 01a5 1D       		.uleb128 0x1d
 2853 01a6 2E       		.uleb128 0x2e
 2854 01a7 01       		.byte	0x1
 2855 01a8 3F       		.uleb128 0x3f
 2856 01a9 19       		.uleb128 0x19
 2857 01aa 03       		.uleb128 0x3
 2858 01ab 0E       		.uleb128 0xe
 2859 01ac 3A       		.uleb128 0x3a
 2860 01ad 0B       		.uleb128 0xb
 2861 01ae 3B       		.uleb128 0x3b
 2862 01af 05       		.uleb128 0x5
 2863 01b0 27       		.uleb128 0x27
 2864 01b1 19       		.uleb128 0x19
 2865 01b2 49       		.uleb128 0x49
 2866 01b3 13       		.uleb128 0x13
 2867 01b4 11       		.uleb128 0x11
 2868 01b5 01       		.uleb128 0x1
 2869 01b6 12       		.uleb128 0x12
 2870 01b7 06       		.uleb128 0x6
 2871 01b8 40       		.uleb128 0x40
 2872 01b9 18       		.uleb128 0x18
 2873 01ba 9642     		.uleb128 0x2116
 2874 01bc 19       		.uleb128 0x19
 2875 01bd 01       		.uleb128 0x1
 2876 01be 13       		.uleb128 0x13
 2877 01bf 00       		.byte	0
 2878 01c0 00       		.byte	0
 2879 01c1 1E       		.uleb128 0x1e
 2880 01c2 34       		.uleb128 0x34
 2881 01c3 00       		.byte	0
 2882 01c4 03       		.uleb128 0x3
 2883 01c5 0E       		.uleb128 0xe
 2884 01c6 3A       		.uleb128 0x3a
 2885 01c7 0B       		.uleb128 0xb
 2886 01c8 3B       		.uleb128 0x3b
 2887 01c9 0B       		.uleb128 0xb
 2888 01ca 49       		.uleb128 0x49
 2889 01cb 13       		.uleb128 0x13
ARM GAS  /tmp/ccJCaAwF.s 			page 53


 2890 01cc 3F       		.uleb128 0x3f
 2891 01cd 19       		.uleb128 0x19
 2892 01ce 3C       		.uleb128 0x3c
 2893 01cf 19       		.uleb128 0x19
 2894 01d0 00       		.byte	0
 2895 01d1 00       		.byte	0
 2896 01d2 00       		.byte	0
 2897              		.section	.debug_aranges,"",%progbits
 2898 0000 84000000 		.4byte	0x84
 2899 0004 0200     		.2byte	0x2
 2900 0006 00000000 		.4byte	.Ldebug_info0
 2901 000a 04       		.byte	0x4
 2902 000b 00       		.byte	0
 2903 000c 0000     		.2byte	0
 2904 000e 0000     		.2byte	0
 2905 0010 00000000 		.4byte	.LFB1
 2906 0014 28000000 		.4byte	.LFE1-.LFB1
 2907 0018 00000000 		.4byte	.LFB2
 2908 001c 22000000 		.4byte	.LFE2-.LFB2
 2909 0020 00000000 		.4byte	.LFB3
 2910 0024 22000000 		.4byte	.LFE3-.LFB3
 2911 0028 00000000 		.4byte	.LFB7
 2912 002c 38000000 		.4byte	.LFE7-.LFB7
 2913 0030 00000000 		.4byte	.LFB8
 2914 0034 2E000000 		.4byte	.LFE8-.LFB8
 2915 0038 00000000 		.4byte	.LFB9
 2916 003c 88000000 		.4byte	.LFE9-.LFB9
 2917 0040 00000000 		.4byte	.LFB10
 2918 0044 2C000000 		.4byte	.LFE10-.LFB10
 2919 0048 00000000 		.4byte	.LFB11
 2920 004c 8C000000 		.4byte	.LFE11-.LFB11
 2921 0050 00000000 		.4byte	.LFB12
 2922 0054 30000000 		.4byte	.LFE12-.LFB12
 2923 0058 00000000 		.4byte	.LFB13
 2924 005c A4000000 		.4byte	.LFE13-.LFB13
 2925 0060 00000000 		.4byte	.LFB14
 2926 0064 84000000 		.4byte	.LFE14-.LFB14
 2927 0068 00000000 		.4byte	.LFB15
 2928 006c 78000000 		.4byte	.LFE15-.LFB15
 2929 0070 00000000 		.4byte	.LFB16
 2930 0074 8C000000 		.4byte	.LFE16-.LFB16
 2931 0078 00000000 		.4byte	.LFB17
 2932 007c 04010000 		.4byte	.LFE17-.LFB17
 2933 0080 00000000 		.4byte	0
 2934 0084 00000000 		.4byte	0
 2935              		.section	.debug_ranges,"",%progbits
 2936              	.Ldebug_ranges0:
 2937 0000 00000000 		.4byte	.LFB1
 2938 0004 28000000 		.4byte	.LFE1
 2939 0008 00000000 		.4byte	.LFB2
 2940 000c 22000000 		.4byte	.LFE2
 2941 0010 00000000 		.4byte	.LFB3
 2942 0014 22000000 		.4byte	.LFE3
 2943 0018 00000000 		.4byte	.LFB7
 2944 001c 38000000 		.4byte	.LFE7
 2945 0020 00000000 		.4byte	.LFB8
 2946 0024 2E000000 		.4byte	.LFE8
ARM GAS  /tmp/ccJCaAwF.s 			page 54


 2947 0028 00000000 		.4byte	.LFB9
 2948 002c 88000000 		.4byte	.LFE9
 2949 0030 00000000 		.4byte	.LFB10
 2950 0034 2C000000 		.4byte	.LFE10
 2951 0038 00000000 		.4byte	.LFB11
 2952 003c 8C000000 		.4byte	.LFE11
 2953 0040 00000000 		.4byte	.LFB12
 2954 0044 30000000 		.4byte	.LFE12
 2955 0048 00000000 		.4byte	.LFB13
 2956 004c A4000000 		.4byte	.LFE13
 2957 0050 00000000 		.4byte	.LFB14
 2958 0054 84000000 		.4byte	.LFE14
 2959 0058 00000000 		.4byte	.LFB15
 2960 005c 78000000 		.4byte	.LFE15
 2961 0060 00000000 		.4byte	.LFB16
 2962 0064 8C000000 		.4byte	.LFE16
 2963 0068 00000000 		.4byte	.LFB17
 2964 006c 04010000 		.4byte	.LFE17
 2965 0070 00000000 		.4byte	0
 2966 0074 00000000 		.4byte	0
 2967              		.section	.debug_line,"",%progbits
 2968              	.Ldebug_line0:
 2969 0000 3D040000 		.section	.debug_str,"MS",%progbits,1
 2969      0200E001 
 2969      00000201 
 2969      FB0E0D00 
 2969      01010101 
 2970              	.LASF43:
 2971 0000 705F6D73 		.ascii	"p_msg\000"
 2971      6700
 2972              	.LASF90:
 2973 0006 71756575 		.ascii	"queue_insert\000"
 2973      655F696E 
 2973      73657274 
 2973      00
 2974              	.LASF85:
 2975 0013 63685365 		.ascii	"chSemSignalI\000"
 2975      6D536967 
 2975      6E616C49 
 2975      00
 2976              	.LASF69:
 2977 0020 7264796D 		.ascii	"rdymsg\000"
 2977      736700
 2978              	.LASF16:
 2979 0027 75696E74 		.ascii	"uint64_t\000"
 2979      36345F74 
 2979      00
 2980              	.LASF5:
 2981 0030 5F5F7569 		.ascii	"__uint8_t\000"
 2981      6E74385F 
 2981      7400
 2982              	.LASF12:
 2983 003a 6C6F6E67 		.ascii	"long long unsigned int\000"
 2983      206C6F6E 
 2983      6720756E 
 2983      7369676E 
 2983      65642069 
ARM GAS  /tmp/ccJCaAwF.s 			page 55


 2984              	.LASF86:
 2985 0051 63685365 		.ascii	"chSemAddCounterI\000"
 2985      6D416464 
 2985      436F756E 
 2985      74657249 
 2985      00
 2986              	.LASF30:
 2987 0062 705F7072 		.ascii	"p_prio\000"
 2987      696F00
 2988              	.LASF10:
 2989 0069 6C6F6E67 		.ascii	"long long int\000"
 2989      206C6F6E 
 2989      6720696E 
 2989      7400
 2990              	.LASF1:
 2991 0077 7369676E 		.ascii	"signed char\000"
 2991      65642063 
 2991      68617200 
 2992              	.LASF87:
 2993 0083 63685365 		.ascii	"chSemSignalWait\000"
 2993      6D536967 
 2993      6E616C57 
 2993      61697400 
 2994              	.LASF47:
 2995 0093 705F6D70 		.ascii	"p_mpool\000"
 2995      6F6F6C00 
 2996              	.LASF66:
 2997 009b 6D5F7175 		.ascii	"m_queue\000"
 2997      65756500 
 2998              	.LASF21:
 2999 00a3 74736C69 		.ascii	"tslices_t\000"
 2999      6365735F 
 2999      7400
 3000              	.LASF7:
 3001 00ad 6C6F6E67 		.ascii	"long int\000"
 3001      20696E74 
 3001      00
 3002              	.LASF19:
 3003 00b6 74737461 		.ascii	"tstate_t\000"
 3003      74655F74 
 3003      00
 3004              	.LASF32:
 3005 00bf 705F6E65 		.ascii	"p_newer\000"
 3005      77657200 
 3006              	.LASF63:
 3007 00c7 735F7175 		.ascii	"s_queue\000"
 3007      65756500 
 3008              	.LASF70:
 3009 00cf 65786974 		.ascii	"exitcode\000"
 3009      636F6465 
 3009      00
 3010              	.LASF8:
 3011 00d8 5F5F7569 		.ascii	"__uint32_t\000"
 3011      6E743332 
 3011      5F7400
 3012              	.LASF50:
 3013 00e3 72656761 		.ascii	"regarm_t\000"
ARM GAS  /tmp/ccJCaAwF.s 			page 56


 3013      726D5F74 
 3013      00
 3014              	.LASF26:
 3015 00ec 636E745F 		.ascii	"cnt_t\000"
 3015      7400
 3016              	.LASF35:
 3017 00f2 705F7374 		.ascii	"p_stklimit\000"
 3017      6B6C696D 
 3017      697400
 3018              	.LASF0:
 3019 00fd 756E7369 		.ascii	"unsigned int\000"
 3019      676E6564 
 3019      20696E74 
 3019      00
 3020              	.LASF81:
 3021 010a 63685365 		.ascii	"chSemWaitTimeout\000"
 3021      6D576169 
 3021      7454696D 
 3021      656F7574 
 3021      00
 3022              	.LASF9:
 3023 011b 6C6F6E67 		.ascii	"long unsigned int\000"
 3023      20756E73 
 3023      69676E65 
 3023      6420696E 
 3023      7400
 3024              	.LASF84:
 3025 012d 63685365 		.ascii	"chSemSignal\000"
 3025      6D536967 
 3025      6E616C00 
 3026              	.LASF64:
 3027 0139 735F636E 		.ascii	"s_cnt\000"
 3027      7400
 3028              	.LASF53:
 3029 013f 636F6E74 		.ascii	"context\000"
 3029      65787400 
 3030              	.LASF4:
 3031 0147 73686F72 		.ascii	"short unsigned int\000"
 3031      7420756E 
 3031      7369676E 
 3031      65642069 
 3031      6E7400
 3032              	.LASF77:
 3033 015a 63685365 		.ascii	"chSemReset\000"
 3033      6D526573 
 3033      657400
 3034              	.LASF23:
 3035 0165 6D73675F 		.ascii	"msg_t\000"
 3035      7400
 3036              	.LASF58:
 3037 016b 725F6E65 		.ascii	"r_newer\000"
 3037      77657200 
 3038              	.LASF18:
 3039 0173 746D6F64 		.ascii	"tmode_t\000"
 3039      655F7400 
 3040              	.LASF49:
 3041 017b 54687265 		.ascii	"ThreadsList\000"
ARM GAS  /tmp/ccJCaAwF.s 			page 57


 3041      6164734C 
 3041      69737400 
 3042              	.LASF24:
 3043 0187 6576656E 		.ascii	"eventmask_t\000"
 3043      746D6173 
 3043      6B5F7400 
 3044              	.LASF65:
 3045 0193 4D757465 		.ascii	"Mutex\000"
 3045      7800
 3046              	.LASF51:
 3047 0199 73746B61 		.ascii	"stkalign_t\000"
 3047      6C69676E 
 3047      5F7400
 3048              	.LASF89:
 3049 01a4 2F686F6D 		.ascii	"/home/ergae/r2p-sdk/core/ChibiOS/os/kernel/src/chse"
 3049      652F6572 
 3049      6761652F 
 3049      7232702D 
 3049      73646B2F 
 3050 01d7 6D2E6300 		.ascii	"m.c\000"
 3051              	.LASF54:
 3052 01db 73697A65 		.ascii	"sizetype\000"
 3052      74797065 
 3052      00
 3053              	.LASF33:
 3054 01e4 705F6F6C 		.ascii	"p_older\000"
 3054      64657200 
 3055              	.LASF57:
 3056 01ec 725F6374 		.ascii	"r_ctx\000"
 3056      7800
 3057              	.LASF48:
 3058 01f2 54687265 		.ascii	"ThreadsQueue\000"
 3058      61647351 
 3058      75657565 
 3058      00
 3059              	.LASF82:
 3060 01ff 74696D65 		.ascii	"time\000"
 3060      00
 3061              	.LASF60:
 3062 0204 725F6375 		.ascii	"r_current\000"
 3062      7272656E 
 3062      7400
 3063              	.LASF59:
 3064 020e 725F6F6C 		.ascii	"r_older\000"
 3064      64657200 
 3065              	.LASF11:
 3066 0216 5F5F7569 		.ascii	"__uint64_t\000"
 3066      6E743634 
 3066      5F7400
 3067              	.LASF20:
 3068 0221 74726566 		.ascii	"trefs_t\000"
 3068      735F7400 
 3069              	.LASF29:
 3070 0229 705F7072 		.ascii	"p_prev\000"
 3070      657600
 3071              	.LASF22:
 3072 0230 74707269 		.ascii	"tprio_t\000"
ARM GAS  /tmp/ccJCaAwF.s 			page 58


 3072      6F5F7400 
 3073              	.LASF17:
 3074 0238 5F426F6F 		.ascii	"_Bool\000"
 3074      6C00
 3075              	.LASF14:
 3076 023e 696E7433 		.ascii	"int32_t\000"
 3076      325F7400 
 3077              	.LASF2:
 3078 0246 756E7369 		.ascii	"unsigned char\000"
 3078      676E6564 
 3078      20636861 
 3078      7200
 3079              	.LASF45:
 3080 0254 705F6D74 		.ascii	"p_mtxlist\000"
 3080      786C6973 
 3080      7400
 3081              	.LASF3:
 3082 025e 73686F72 		.ascii	"short int\000"
 3082      7420696E 
 3082      7400
 3083              	.LASF36:
 3084 0268 705F7374 		.ascii	"p_state\000"
 3084      61746500 
 3085              	.LASF39:
 3086 0270 705F7072 		.ascii	"p_preempt\000"
 3086      65656D70 
 3086      7400
 3087              	.LASF56:
 3088 027a 725F7072 		.ascii	"r_prio\000"
 3088      696F00
 3089              	.LASF72:
 3090 0281 65776D61 		.ascii	"ewmask\000"
 3090      736B00
 3091              	.LASF28:
 3092 0288 705F6E65 		.ascii	"p_next\000"
 3092      787400
 3093              	.LASF37:
 3094 028f 705F666C 		.ascii	"p_flags\000"
 3094      61677300 
 3095              	.LASF80:
 3096 0297 63685365 		.ascii	"chSemWaitS\000"
 3096      6D576169 
 3096      745300
 3097              	.LASF27:
 3098 02a2 54687265 		.ascii	"Thread\000"
 3098      616400
 3099              	.LASF44:
 3100 02a9 705F6570 		.ascii	"p_epending\000"
 3100      656E6469 
 3100      6E6700
 3101              	.LASF15:
 3102 02b4 75696E74 		.ascii	"uint32_t\000"
 3102      33325F74 
 3102      00
 3103              	.LASF55:
 3104 02bd 725F7175 		.ascii	"r_queue\000"
 3104      65756500 
ARM GAS  /tmp/ccJCaAwF.s 			page 59


 3105              	.LASF73:
 3106 02c5 63686172 		.ascii	"char\000"
 3106      00
 3107              	.LASF74:
 3108 02ca 6669666F 		.ascii	"fifo_remove\000"
 3108      5F72656D 
 3108      6F766500 
 3109              	.LASF83:
 3110 02d6 63685365 		.ascii	"chSemWaitTimeoutS\000"
 3110      6D576169 
 3110      7454696D 
 3110      656F7574 
 3110      5300
 3111              	.LASF68:
 3112 02e8 6D5F6E65 		.ascii	"m_next\000"
 3112      787400
 3113              	.LASF25:
 3114 02ef 73797374 		.ascii	"systime_t\000"
 3114      696D655F 
 3114      7400
 3115              	.LASF46:
 3116 02f9 705F7265 		.ascii	"p_realprio\000"
 3116      616C7072 
 3116      696F00
 3117              	.LASF6:
 3118 0304 5F5F696E 		.ascii	"__int32_t\000"
 3118      7433325F 
 3118      7400
 3119              	.LASF79:
 3120 030e 63685365 		.ascii	"chSemWait\000"
 3120      6D576169 
 3120      7400
 3121              	.LASF40:
 3122 0318 705F7469 		.ascii	"p_time\000"
 3122      6D6500
 3123              	.LASF75:
 3124 031f 6C69666F 		.ascii	"lifo_remove\000"
 3124      5F72656D 
 3124      6F766500 
 3125              	.LASF52:
 3126 032b 696E7463 		.ascii	"intctx\000"
 3126      747800
 3127              	.LASF42:
 3128 0332 705F6D73 		.ascii	"p_msgqueue\000"
 3128      67717565 
 3128      756500
 3129              	.LASF62:
 3130 033d 53656D61 		.ascii	"Semaphore\000"
 3130      70686F72 
 3130      6500
 3131              	.LASF38:
 3132 0347 705F7265 		.ascii	"p_refs\000"
 3132      667300
 3133              	.LASF61:
 3134 034e 52656164 		.ascii	"ReadyList\000"
 3134      794C6973 
 3134      7400
ARM GAS  /tmp/ccJCaAwF.s 			page 60


 3135              	.LASF78:
 3136 0358 63685365 		.ascii	"chSemResetI\000"
 3136      6D526573 
 3136      65744900 
 3137              	.LASF91:
 3138 0364 726C6973 		.ascii	"rlist\000"
 3138      7400
 3139              	.LASF13:
 3140 036a 75696E74 		.ascii	"uint8_t\000"
 3140      385F7400 
 3141              	.LASF71:
 3142 0372 77746F62 		.ascii	"wtobjp\000"
 3142      6A7000
 3143              	.LASF34:
 3144 0379 705F6E61 		.ascii	"p_name\000"
 3144      6D6500
 3145              	.LASF67:
 3146 0380 6D5F6F77 		.ascii	"m_owner\000"
 3146      6E657200 
 3147              	.LASF88:
 3148 0388 474E5520 		.ascii	"GNU C 4.9.3 20141119 (release) [ARM/embedded-4_9-br"
 3148      4320342E 
 3148      392E3320 
 3148      32303134 
 3148      31313139 
 3149 03bb 616E6368 		.ascii	"anch revision 218278] -mcpu=cortex-m4 -mfloat-abi=h"
 3149      20726576 
 3149      6973696F 
 3149      6E203231 
 3149      38323738 
 3150 03ee 61726420 		.ascii	"ard -mfpu=fpv4-sp-d16 -mno-thumb-interwork -mthumb "
 3150      2D6D6670 
 3150      753D6670 
 3150      76342D73 
 3150      702D6431 
 3151 0421 2D676764 		.ascii	"-ggdb -O0 -fomit-frame-pointer -falign-functions=16"
 3151      62202D4F 
 3151      30202D66 
 3151      6F6D6974 
 3151      2D667261 
 3152 0454 202D6666 		.ascii	" -ffunction-sections -fdata-sections -fno-common -f"
 3152      756E6374 
 3152      696F6E2D 
 3152      73656374 
 3152      696F6E73 
 3153 0487 73696E67 		.ascii	"single-precision-constant\000"
 3153      6C652D70 
 3153      72656369 
 3153      73696F6E 
 3153      2D636F6E 
 3154              	.LASF31:
 3155 04a1 705F6374 		.ascii	"p_ctx\000"
 3155      7800
 3156              	.LASF41:
 3157 04a7 705F7761 		.ascii	"p_waiting\000"
 3157      6974696E 
 3157      6700
ARM GAS  /tmp/ccJCaAwF.s 			page 61


 3158              	.LASF76:
 3159 04b1 63685365 		.ascii	"chSemInit\000"
 3159      6D496E69 
 3159      7400
 3160              		.ident	"GCC: (GNU Tools for ARM Embedded Processors) 4.9.3 20141119 (release) [ARM/embedded-4_9-br
ARM GAS  /tmp/ccJCaAwF.s 			page 62


DEFINED SYMBOLS
                            *ABS*:00000000 chsem.c
     /tmp/ccJCaAwF.s:21     .text.queue_insert:00000000 $t
     /tmp/ccJCaAwF.s:26     .text.queue_insert:00000000 queue_insert
     /tmp/ccJCaAwF.s:65     .text.fifo_remove:00000000 $t
     /tmp/ccJCaAwF.s:70     .text.fifo_remove:00000000 fifo_remove
     /tmp/ccJCaAwF.s:105    .text.lifo_remove:00000000 $t
     /tmp/ccJCaAwF.s:110    .text.lifo_remove:00000000 lifo_remove
     /tmp/ccJCaAwF.s:145    .rodata:00000000 $d
     /tmp/ccJCaAwF.s:149    .text.chSemInit:00000000 $t
     /tmp/ccJCaAwF.s:155    .text.chSemInit:00000000 chSemInit
     /tmp/ccJCaAwF.s:202    .text.chSemInit:00000034 $d
     /tmp/ccJCaAwF.s:207    .text.chSemReset:00000000 $t
     /tmp/ccJCaAwF.s:213    .text.chSemReset:00000000 chSemReset
     /tmp/ccJCaAwF.s:272    .text.chSemResetI:00000000 chSemResetI
     /tmp/ccJCaAwF.s:266    .text.chSemResetI:00000000 $t
     /tmp/ccJCaAwF.s:365    .text.chSemResetI:00000080 $d
     /tmp/ccJCaAwF.s:371    .text.chSemWait:00000000 $t
     /tmp/ccJCaAwF.s:377    .text.chSemWait:00000000 chSemWait
     /tmp/ccJCaAwF.s:436    .text.chSemWaitS:00000000 chSemWaitS
     /tmp/ccJCaAwF.s:430    .text.chSemWaitS:00000000 $t
     /tmp/ccJCaAwF.s:529    .text.chSemWaitS:00000080 $d
     /tmp/ccJCaAwF.s:536    .text.chSemWaitTimeout:00000000 $t
     /tmp/ccJCaAwF.s:542    .text.chSemWaitTimeout:00000000 chSemWaitTimeout
     /tmp/ccJCaAwF.s:603    .text.chSemWaitTimeoutS:00000000 chSemWaitTimeoutS
     /tmp/ccJCaAwF.s:597    .text.chSemWaitTimeoutS:00000000 $t
     /tmp/ccJCaAwF.s:709    .text.chSemWaitTimeoutS:00000098 $d
     /tmp/ccJCaAwF.s:723    .text.chSemSignal:00000000 $t
     /tmp/ccJCaAwF.s:729    .text.chSemSignal:00000000 chSemSignal
     /tmp/ccJCaAwF.s:822    .text.chSemSignal:0000007c $d
     /tmp/ccJCaAwF.s:835    .text.chSemSignalI:00000000 $t
     /tmp/ccJCaAwF.s:841    .text.chSemSignalI:00000000 chSemSignalI
     /tmp/ccJCaAwF.s:924    .text.chSemSignalI:00000070 $d
     /tmp/ccJCaAwF.s:937    .text.chSemAddCounterI:00000000 $t
     /tmp/ccJCaAwF.s:943    .text.chSemAddCounterI:00000000 chSemAddCounterI
     /tmp/ccJCaAwF.s:1040   .text.chSemAddCounterI:00000084 $d
     /tmp/ccJCaAwF.s:1056   .text.chSemSignalWait:00000000 $t
     /tmp/ccJCaAwF.s:1062   .text.chSemSignalWait:00000000 chSemSignalWait
     /tmp/ccJCaAwF.s:1234   .text.chSemSignalWait:000000f4 $d
                     .debug_frame:00000010 $d
     /tmp/ccJCaAwF.s:206    .text.chSemInit:00000038 $t
     /tmp/ccJCaAwF.s:3160   .text.chSemResetI:00000088 $t
     /tmp/ccJCaAwF.s:535    .text.chSemWaitS:0000008c $t
     /tmp/ccJCaAwF.s:715    .text.chSemWaitTimeoutS:000000a4 $t
     /tmp/ccJCaAwF.s:827    .text.chSemSignal:00000084 $t
     /tmp/ccJCaAwF.s:929    .text.chSemSignalI:00000078 $t
     /tmp/ccJCaAwF.s:1045   .text.chSemAddCounterI:0000008c $t
     /tmp/ccJCaAwF.s:1241   .text.chSemSignalWait:00000104 $t

UNDEFINED SYMBOLS
chDbgPanic
dbg_check_lock
chSchRescheduleS
dbg_check_unlock
chDbgCheckClassI
chSchReadyI
chDbgCheckClassS
ARM GAS  /tmp/ccJCaAwF.s 			page 63


chSchGoSleepS
rlist
chSchGoSleepTimeoutS
chSchWakeupS
