ARM GAS  /tmp/ccJCaAwF.s 			page 1


   1              		.syntax unified
   2              		.cpu cortex-m4
   3              		.eabi_attribute 27, 3
   4              		.eabi_attribute 28, 1
   5              		.fpu fpv4-sp-d16
   6              		.eabi_attribute 20, 1
   7              		.eabi_attribute 21, 1
   8              		.eabi_attribute 23, 3
   9              		.eabi_attribute 24, 1
  10              		.eabi_attribute 25, 1
  11              		.eabi_attribute 26, 1
  12              		.eabi_attribute 30, 6
  13              		.eabi_attribute 34, 1
  14              		.eabi_attribute 18, 4
  15              		.thumb
  16              		.file	"chsem.c"
  17              		.text
  18              	.Ltext0:
  19              		.cfi_sections	.debug_frame
  20              		.section	.text.queue_insert,"ax",%progbits
  21              		.align	2
  22              		.p2align 4,,15
  23              		.thumb
  24              		.thumb_func
  25              		.type	queue_insert, %function
  26              	queue_insert:
  27              	.LFB1:
  28              		.file 1 "/home/ergae/r2p-sdk/core/ChibiOS/os/kernel/include/chinline.h"
  29              		.loc 1 52 0
  30              		.cfi_startproc
  31              		@ args = 0, pretend = 0, frame = 8
  32              		@ frame_needed = 0, uses_anonymous_args = 0
  33              		@ link register save eliminated.
  34 0000 82B0     		sub	sp, sp, #8
  35              		.cfi_def_cfa_offset 8
  36 0002 0190     		str	r0, [sp, #4]
  37 0004 0091     		str	r1, [sp]
  38              		.loc 1 54 0
  39 0006 019B     		ldr	r3, [sp, #4]
  40 0008 009A     		ldr	r2, [sp]
  41 000a 1A60     		str	r2, [r3]
  42              		.loc 1 55 0
  43 000c 009B     		ldr	r3, [sp]
  44 000e 5A68     		ldr	r2, [r3, #4]
  45 0010 019B     		ldr	r3, [sp, #4]
  46 0012 5A60     		str	r2, [r3, #4]
  47              		.loc 1 56 0
  48 0014 019B     		ldr	r3, [sp, #4]
  49 0016 5B68     		ldr	r3, [r3, #4]
  50 0018 009A     		ldr	r2, [sp]
  51 001a 0199     		ldr	r1, [sp, #4]
  52 001c 5160     		str	r1, [r2, #4]
  53 001e 009A     		ldr	r2, [sp]
  54 0020 5268     		ldr	r2, [r2, #4]
  55 0022 1A60     		str	r2, [r3]
  56              		.loc 1 57 0
  57 0024 02B0     		add	sp, sp, #8
ARM GAS  /tmp/ccJCaAwF.s 			page 2


  58              		.cfi_def_cfa_offset 0
  59              		@ sp needed
  60 0026 7047     		bx	lr
  61              		.cfi_endproc
  62              	.LFE1:
  63              		.size	queue_insert, .-queue_insert
  64 0028 AFF30080 		.section	.text.fifo_remove,"ax",%progbits
  64      AFF30080 
  65              		.align	2
  66              		.p2align 4,,15
  67              		.thumb
  68              		.thumb_func
  69              		.type	fifo_remove, %function
  70              	fifo_remove:
  71              	.LFB2:
  72              		.loc 1 59 0
  73              		.cfi_startproc
  74              		@ args = 0, pretend = 0, frame = 16
  75              		@ frame_needed = 0, uses_anonymous_args = 0
  76              		@ link register save eliminated.
  77 0000 84B0     		sub	sp, sp, #16
  78              		.cfi_def_cfa_offset 16
  79 0002 0190     		str	r0, [sp, #4]
  80              		.loc 1 60 0
  81 0004 019B     		ldr	r3, [sp, #4]
  82 0006 1B68     		ldr	r3, [r3]
  83 0008 0393     		str	r3, [sp, #12]
  84              		.loc 1 62 0
  85 000a 039B     		ldr	r3, [sp, #12]
  86 000c 1A68     		ldr	r2, [r3]
  87 000e 019B     		ldr	r3, [sp, #4]
  88 0010 1A60     		str	r2, [r3]
  89 0012 019B     		ldr	r3, [sp, #4]
  90 0014 1B68     		ldr	r3, [r3]
  91 0016 019A     		ldr	r2, [sp, #4]
  92 0018 5A60     		str	r2, [r3, #4]
  93              		.loc 1 63 0
  94 001a 039B     		ldr	r3, [sp, #12]
  95              		.loc 1 64 0
  96 001c 1846     		mov	r0, r3
  97 001e 04B0     		add	sp, sp, #16
  98              		.cfi_def_cfa_offset 0
  99              		@ sp needed
 100 0020 7047     		bx	lr
 101              		.cfi_endproc
 102              	.LFE2:
 103              		.size	fifo_remove, .-fifo_remove
 104 0022 00BFAFF3 		.section	.text.lifo_remove,"ax",%progbits
 104      0080AFF3 
 104      0080AFF3 
 104      0080
 105              		.align	2
 106              		.p2align 4,,15
 107              		.thumb
 108              		.thumb_func
 109              		.type	lifo_remove, %function
 110              	lifo_remove:
ARM GAS  /tmp/ccJCaAwF.s 			page 3


 111              	.LFB3:
 112              		.loc 1 66 0
 113              		.cfi_startproc
 114              		@ args = 0, pretend = 0, frame = 16
 115              		@ frame_needed = 0, uses_anonymous_args = 0
 116              		@ link register save eliminated.
 117 0000 84B0     		sub	sp, sp, #16
 118              		.cfi_def_cfa_offset 16
 119 0002 0190     		str	r0, [sp, #4]
 120              		.loc 1 67 0
 121 0004 019B     		ldr	r3, [sp, #4]
 122 0006 5B68     		ldr	r3, [r3, #4]
 123 0008 0393     		str	r3, [sp, #12]
 124              		.loc 1 69 0
 125 000a 039B     		ldr	r3, [sp, #12]
 126 000c 5A68     		ldr	r2, [r3, #4]
 127 000e 019B     		ldr	r3, [sp, #4]
 128 0010 5A60     		str	r2, [r3, #4]
 129 0012 019B     		ldr	r3, [sp, #4]
 130 0014 5B68     		ldr	r3, [r3, #4]
 131 0016 019A     		ldr	r2, [sp, #4]
 132 0018 1A60     		str	r2, [r3]
 133              		.loc 1 70 0
 134 001a 039B     		ldr	r3, [sp, #12]
 135              		.loc 1 71 0
 136 001c 1846     		mov	r0, r3
 137 001e 04B0     		add	sp, sp, #16
 138              		.cfi_def_cfa_offset 0
 139              		@ sp needed
 140 0020 7047     		bx	lr
 141              		.cfi_endproc
 142              	.LFE3:
 143              		.size	lifo_remove, .-lifo_remove
 144 0022 00BFAFF3 		.section	.rodata
 144      0080AFF3 
 144      0080AFF3 
 144      0080
 145              		.align	2
 146              	.LC0:
 147 0000 22636853 		.ascii	"\"chSemInit\"()\000"
 147      656D496E 
 147      69742228 
 147      2900
 148              		.section	.text.chSemInit,"ax",%progbits
 149              		.align	2
 150              		.p2align 4,,15
 151              		.global	chSemInit
 152              		.thumb
 153              		.thumb_func
 154              		.type	chSemInit, %function
 155              	chSemInit:
 156              	.LFB7:
 157              		.file 2 "/home/ergae/r2p-sdk/core/ChibiOS/os/kernel/src/chsem.c"
 158              		.loc 2 86 0
 159              		.cfi_startproc
 160              		@ args = 0, pretend = 0, frame = 8
 161              		@ frame_needed = 0, uses_anonymous_args = 0
ARM GAS  /tmp/ccJCaAwF.s 			page 4


 162 0000 00B5     		push	{lr}
 163              		.cfi_def_cfa_offset 4
 164              		.cfi_offset 14, -4
 165 0002 83B0     		sub	sp, sp, #12
 166              		.cfi_def_cfa_offset 16
 167 0004 0190     		str	r0, [sp, #4]
 168 0006 0091     		str	r1, [sp]
 169              		.loc 2 88 0
 170 0008 019B     		ldr	r3, [sp, #4]
 171 000a 002B     		cmp	r3, #0
 172 000c 02D0     		beq	.L7
 173              		.loc 2 88 0 is_stmt 0 discriminator 2
 174 000e 009B     		ldr	r3, [sp]
 175 0010 002B     		cmp	r3, #0
 176 0012 02DA     		bge	.L8
 177              	.L7:
 178              		.loc 2 88 0 discriminator 3
 179 0014 0748     		ldr	r0, .L9
 180 0016 FFF7FEFF 		bl	chDbgPanic
 181              	.L8:
 182              		.loc 2 90 0 is_stmt 1
 183 001a 019A     		ldr	r2, [sp, #4]
 184 001c 019B     		ldr	r3, [sp, #4]
 185 001e 5A60     		str	r2, [r3, #4]
 186 0020 019B     		ldr	r3, [sp, #4]
 187 0022 5A68     		ldr	r2, [r3, #4]
 188 0024 019B     		ldr	r3, [sp, #4]
 189 0026 1A60     		str	r2, [r3]
 190              		.loc 2 91 0
 191 0028 019B     		ldr	r3, [sp, #4]
 192 002a 009A     		ldr	r2, [sp]
 193 002c 9A60     		str	r2, [r3, #8]
 194              		.loc 2 92 0
 195 002e 03B0     		add	sp, sp, #12
 196              		.cfi_def_cfa_offset 4
 197              		@ sp needed
 198 0030 5DF804FB 		ldr	pc, [sp], #4
 199              	.L10:
 200              		.align	2
 201              	.L9:
 202 0034 00000000 		.word	.LC0
 203              		.cfi_endproc
 204              	.LFE7:
 205              		.size	chSemInit, .-chSemInit
 206 0038 AFF30080 		.section	.text.chSemReset,"ax",%progbits
 206      AFF30080 
 207              		.align	2
 208              		.p2align 4,,15
 209              		.global	chSemReset
 210              		.thumb
 211              		.thumb_func
 212              		.type	chSemReset, %function
 213              	chSemReset:
 214              	.LFB8:
 215              		.loc 2 109 0
 216              		.cfi_startproc
 217              		@ args = 0, pretend = 0, frame = 8
ARM GAS  /tmp/ccJCaAwF.s 			page 5


 218              		@ frame_needed = 0, uses_anonymous_args = 0
 219 0000 00B5     		push	{lr}
 220              		.cfi_def_cfa_offset 4
 221              		.cfi_offset 14, -4
 222 0002 83B0     		sub	sp, sp, #12
 223              		.cfi_def_cfa_offset 16
 224 0004 0190     		str	r0, [sp, #4]
 225 0006 0091     		str	r1, [sp]
 226              	.LBB2:
 227              		.loc 2 111 0
 228 0008 2023     		movs	r3, #32
 229              	@ 111 "/home/ergae/r2p-sdk/core/ChibiOS/os/kernel/src/chsem.c" 1
 230 000a 83F31188 		msr     BASEPRI, r3
 231              	@ 0 "" 2
 232              		.thumb
 233              	.LBE2:
 234 000e FFF7FEFF 		bl	dbg_check_lock
 235              		.loc 2 112 0
 236 0012 0198     		ldr	r0, [sp, #4]
 237 0014 0099     		ldr	r1, [sp]
 238 0016 FFF7FEFF 		bl	chSemResetI
 239              		.loc 2 113 0
 240 001a FFF7FEFF 		bl	chSchRescheduleS
 241              		.loc 2 114 0
 242 001e FFF7FEFF 		bl	dbg_check_unlock
 243              	.LBB3:
 244 0022 0023     		movs	r3, #0
 245              	@ 114 "/home/ergae/r2p-sdk/core/ChibiOS/os/kernel/src/chsem.c" 1
 246 0024 83F31188 		msr     BASEPRI, r3
 247              	@ 0 "" 2
 248              		.thumb
 249              	.LBE3:
 250              		.loc 2 115 0
 251 0028 03B0     		add	sp, sp, #12
 252              		.cfi_def_cfa_offset 4
 253              		@ sp needed
 254 002a 5DF804FB 		ldr	pc, [sp], #4
 255              		.cfi_endproc
 256              	.LFE8:
 257              		.size	chSemReset, .-chSemReset
 258 002e 00BF     		.section	.rodata
 259 000e 0000     		.align	2
 260              	.LC1:
 261 0010 22636853 		.ascii	"\"chSemResetI\"()\000"
 261      656D5265 
 261      73657449 
 261      22282900 
 262              		.align	2
 263              	.LC2:
 264 0020 63685365 		.ascii	"chSemResetI(), #1\000"
 264      6D526573 
 264      65744928 
 264      292C2023 
 264      3100
 265              		.section	.text.chSemResetI,"ax",%progbits
 266              		.align	2
 267              		.p2align 4,,15
ARM GAS  /tmp/ccJCaAwF.s 			page 6


 268              		.global	chSemResetI
 269              		.thumb
 270              		.thumb_func
 271              		.type	chSemResetI, %function
 272              	chSemResetI:
 273              	.LFB9:
 274              		.loc 2 136 0
 275              		.cfi_startproc
 276              		@ args = 0, pretend = 0, frame = 16
 277              		@ frame_needed = 0, uses_anonymous_args = 0
 278 0000 00B5     		push	{lr}
 279              		.cfi_def_cfa_offset 4
 280              		.cfi_offset 14, -4
 281 0002 85B0     		sub	sp, sp, #20
 282              		.cfi_def_cfa_offset 24
 283 0004 0190     		str	r0, [sp, #4]
 284 0006 0091     		str	r1, [sp]
 285              		.loc 2 139 0
 286 0008 FFF7FEFF 		bl	chDbgCheckClassI
 287              		.loc 2 140 0
 288 000c 019B     		ldr	r3, [sp, #4]
 289 000e 002B     		cmp	r3, #0
 290 0010 02D0     		beq	.L13
 291              		.loc 2 140 0 is_stmt 0 discriminator 2
 292 0012 009B     		ldr	r3, [sp]
 293 0014 002B     		cmp	r3, #0
 294 0016 02DA     		bge	.L14
 295              	.L13:
 296              		.loc 2 140 0 discriminator 3
 297 0018 1948     		ldr	r0, .L20
 298 001a FFF7FEFF 		bl	chDbgPanic
 299              	.L14:
 300              		.loc 2 141 0 is_stmt 1
 301 001e 019B     		ldr	r3, [sp, #4]
 302 0020 9B68     		ldr	r3, [r3, #8]
 303 0022 002B     		cmp	r3, #0
 304 0024 04DB     		blt	.L15
 305              		.loc 2 141 0 is_stmt 0 discriminator 2
 306 0026 019B     		ldr	r3, [sp, #4]
 307 0028 1A68     		ldr	r2, [r3]
 308 002a 019B     		ldr	r3, [sp, #4]
 309 002c 9A42     		cmp	r2, r3
 310 002e 0BD0     		beq	.L16
 311              	.L15:
 312              		.loc 2 141 0 discriminator 3
 313 0030 019B     		ldr	r3, [sp, #4]
 314 0032 9B68     		ldr	r3, [r3, #8]
 315 0034 002B     		cmp	r3, #0
 316 0036 04DA     		bge	.L17
 317              		.loc 2 141 0 discriminator 5
 318 0038 019B     		ldr	r3, [sp, #4]
 319 003a 1A68     		ldr	r2, [r3]
 320 003c 019B     		ldr	r3, [sp, #4]
 321 003e 9A42     		cmp	r2, r3
 322 0040 02D1     		bne	.L16
 323              	.L17:
 324              		.loc 2 141 0 discriminator 6
ARM GAS  /tmp/ccJCaAwF.s 			page 7


 325 0042 1048     		ldr	r0, .L20+4
 326 0044 FFF7FEFF 		bl	chDbgPanic
 327              	.L16:
 328              		.loc 2 146 0 is_stmt 1
 329 0048 019B     		ldr	r3, [sp, #4]
 330 004a 9B68     		ldr	r3, [r3, #8]
 331 004c 0393     		str	r3, [sp, #12]
 332              		.loc 2 147 0
 333 004e 019B     		ldr	r3, [sp, #4]
 334 0050 009A     		ldr	r2, [sp]
 335 0052 9A60     		str	r2, [r3, #8]
 336              		.loc 2 148 0
 337 0054 0BE0     		b	.L18
 338              	.L19:
 339              		.loc 2 149 0
 340 0056 019B     		ldr	r3, [sp, #4]
 341 0058 1846     		mov	r0, r3
 342 005a FFF7FEFF 		bl	lifo_remove
 343 005e 0346     		mov	r3, r0
 344 0060 1846     		mov	r0, r3
 345 0062 FFF7FEFF 		bl	chSchReadyI
 346 0066 0246     		mov	r2, r0
 347 0068 6FF00103 		mvn	r3, #1
 348 006c 9362     		str	r3, [r2, #40]
 349              	.L18:
 350              		.loc 2 148 0
 351 006e 039B     		ldr	r3, [sp, #12]
 352 0070 0133     		adds	r3, r3, #1
 353 0072 0393     		str	r3, [sp, #12]
 354 0074 039B     		ldr	r3, [sp, #12]
 355 0076 002B     		cmp	r3, #0
 356 0078 EDDD     		ble	.L19
 357              		.loc 2 150 0
 358 007a 05B0     		add	sp, sp, #20
 359              		.cfi_def_cfa_offset 4
 360              		@ sp needed
 361 007c 5DF804FB 		ldr	pc, [sp], #4
 362              	.L21:
 363              		.align	2
 364              	.L20:
 365 0080 10000000 		.word	.LC1
 366 0084 20000000 		.word	.LC2
 367              		.cfi_endproc
 368              	.LFE9:
 369              		.size	chSemResetI, .-chSemResetI
 370              		.section	.text.chSemWait,"ax",%progbits
 371              		.align	2
 372              		.p2align 4,,15
 373              		.global	chSemWait
 374              		.thumb
 375              		.thumb_func
 376              		.type	chSemWait, %function
 377              	chSemWait:
 378              	.LFB10:
 379              		.loc 2 164 0
 380              		.cfi_startproc
 381              		@ args = 0, pretend = 0, frame = 16
ARM GAS  /tmp/ccJCaAwF.s 			page 8


 382              		@ frame_needed = 0, uses_anonymous_args = 0
 383 0000 00B5     		push	{lr}
 384              		.cfi_def_cfa_offset 4
 385              		.cfi_offset 14, -4
 386 0002 85B0     		sub	sp, sp, #20
 387              		.cfi_def_cfa_offset 24
 388 0004 0190     		str	r0, [sp, #4]
 389              	.LBB4:
 390              		.loc 2 167 0
 391 0006 2023     		movs	r3, #32
 392              	@ 167 "/home/ergae/r2p-sdk/core/ChibiOS/os/kernel/src/chsem.c" 1
 393 0008 83F31188 		msr     BASEPRI, r3
 394              	@ 0 "" 2
 395              		.thumb
 396              	.LBE4:
 397 000c FFF7FEFF 		bl	dbg_check_lock
 398              		.loc 2 168 0
 399 0010 0198     		ldr	r0, [sp, #4]
 400 0012 FFF7FEFF 		bl	chSemWaitS
 401 0016 0390     		str	r0, [sp, #12]
 402              		.loc 2 169 0
 403 0018 FFF7FEFF 		bl	dbg_check_unlock
 404              	.LBB5:
 405 001c 0023     		movs	r3, #0
 406              	@ 169 "/home/ergae/r2p-sdk/core/ChibiOS/os/kernel/src/chsem.c" 1
 407 001e 83F31188 		msr     BASEPRI, r3
 408              	@ 0 "" 2
 409              		.thumb
 410              	.LBE5:
 411              		.loc 2 170 0
 412 0022 039B     		ldr	r3, [sp, #12]
 413              		.loc 2 171 0
 414 0024 1846     		mov	r0, r3
 415 0026 05B0     		add	sp, sp, #20
 416              		.cfi_def_cfa_offset 4
 417              		@ sp needed
 418 0028 5DF804FB 		ldr	pc, [sp], #4
 419              		.cfi_endproc
 420              	.LFE10:
 421              		.size	chSemWait, .-chSemWait
 422 002c AFF30080 		.section	.rodata
 423 0032 0000     		.align	2
 424              	.LC3:
 425 0034 22636853 		.ascii	"\"chSemWaitS\"()\000"
 425      656D5761 
 425      69745322 
 425      282900
 426 0043 00       		.align	2
 427              	.LC4:
 428 0044 63685365 		.ascii	"chSemWaitS(), #1\000"
 428      6D576169 
 428      74532829 
 428      2C202331 
 428      00
 429              		.section	.text.chSemWaitS,"ax",%progbits
 430              		.align	2
 431              		.p2align 4,,15
ARM GAS  /tmp/ccJCaAwF.s 			page 9


 432              		.global	chSemWaitS
 433              		.thumb
 434              		.thumb_func
 435              		.type	chSemWaitS, %function
 436              	chSemWaitS:
 437              	.LFB11:
 438              		.loc 2 185 0
 439              		.cfi_startproc
 440              		@ args = 0, pretend = 0, frame = 8
 441              		@ frame_needed = 0, uses_anonymous_args = 0
 442 0000 00B5     		push	{lr}
 443              		.cfi_def_cfa_offset 4
 444              		.cfi_offset 14, -4
 445 0002 83B0     		sub	sp, sp, #12
 446              		.cfi_def_cfa_offset 16
 447 0004 0190     		str	r0, [sp, #4]
 448              		.loc 2 187 0
 449 0006 FFF7FEFF 		bl	chDbgCheckClassS
 450              		.loc 2 188 0
 451 000a 019B     		ldr	r3, [sp, #4]
 452 000c 002B     		cmp	r3, #0
 453 000e 02D1     		bne	.L25
 454              		.loc 2 188 0 is_stmt 0 discriminator 1
 455 0010 1B48     		ldr	r0, .L31
 456 0012 FFF7FEFF 		bl	chDbgPanic
 457              	.L25:
 458              		.loc 2 189 0 is_stmt 1
 459 0016 019B     		ldr	r3, [sp, #4]
 460 0018 9B68     		ldr	r3, [r3, #8]
 461 001a 002B     		cmp	r3, #0
 462 001c 04DB     		blt	.L26
 463              		.loc 2 189 0 is_stmt 0 discriminator 2
 464 001e 019B     		ldr	r3, [sp, #4]
 465 0020 1A68     		ldr	r2, [r3]
 466 0022 019B     		ldr	r3, [sp, #4]
 467 0024 9A42     		cmp	r2, r3
 468 0026 0BD0     		beq	.L27
 469              	.L26:
 470              		.loc 2 189 0 discriminator 3
 471 0028 019B     		ldr	r3, [sp, #4]
 472 002a 9B68     		ldr	r3, [r3, #8]
 473 002c 002B     		cmp	r3, #0
 474 002e 04DA     		bge	.L28
 475              		.loc 2 189 0 discriminator 5
 476 0030 019B     		ldr	r3, [sp, #4]
 477 0032 1A68     		ldr	r2, [r3]
 478 0034 019B     		ldr	r3, [sp, #4]
 479 0036 9A42     		cmp	r2, r3
 480 0038 02D1     		bne	.L27
 481              	.L28:
 482              		.loc 2 189 0 discriminator 6
 483 003a 1248     		ldr	r0, .L31+4
 484 003c FFF7FEFF 		bl	chDbgPanic
 485              	.L27:
 486              		.loc 2 194 0 is_stmt 1
 487 0040 019B     		ldr	r3, [sp, #4]
 488 0042 9B68     		ldr	r3, [r3, #8]
ARM GAS  /tmp/ccJCaAwF.s 			page 10


 489 0044 5A1E     		subs	r2, r3, #1
 490 0046 019B     		ldr	r3, [sp, #4]
 491 0048 9A60     		str	r2, [r3, #8]
 492 004a 019B     		ldr	r3, [sp, #4]
 493 004c 9B68     		ldr	r3, [r3, #8]
 494 004e 002B     		cmp	r3, #0
 495 0050 11DA     		bge	.L29
 496              		.loc 2 195 0
 497 0052 0D4B     		ldr	r3, .L31+8
 498 0054 9B69     		ldr	r3, [r3, #24]
 499 0056 019A     		ldr	r2, [sp, #4]
 500 0058 9A62     		str	r2, [r3, #40]
 501              		.loc 2 196 0
 502 005a 0B4B     		ldr	r3, .L31+8
 503 005c 9A69     		ldr	r2, [r3, #24]
 504 005e 019B     		ldr	r3, [sp, #4]
 505 0060 1046     		mov	r0, r2
 506 0062 1946     		mov	r1, r3
 507 0064 FFF7FEFF 		bl	queue_insert
 508              		.loc 2 197 0
 509 0068 0320     		movs	r0, #3
 510 006a FFF7FEFF 		bl	chSchGoSleepS
 511              		.loc 2 198 0
 512 006e 064B     		ldr	r3, .L31+8
 513 0070 9B69     		ldr	r3, [r3, #24]
 514 0072 9B6A     		ldr	r3, [r3, #40]
 515 0074 00E0     		b	.L30
 516              	.L29:
 517              		.loc 2 200 0
 518 0076 0023     		movs	r3, #0
 519              	.L30:
 520              		.loc 2 201 0
 521 0078 1846     		mov	r0, r3
 522 007a 03B0     		add	sp, sp, #12
 523              		.cfi_def_cfa_offset 4
 524              		@ sp needed
 525 007c 5DF804FB 		ldr	pc, [sp], #4
 526              	.L32:
 527              		.align	2
 528              	.L31:
 529 0080 34000000 		.word	.LC3
 530 0084 44000000 		.word	.LC4
 531 0088 00000000 		.word	rlist
 532              		.cfi_endproc
 533              	.LFE11:
 534              		.size	chSemWaitS, .-chSemWaitS
 535 008c AFF30080 		.section	.text.chSemWaitTimeout,"ax",%progbits
 536              		.align	2
 537              		.p2align 4,,15
 538              		.global	chSemWaitTimeout
 539              		.thumb
 540              		.thumb_func
 541              		.type	chSemWaitTimeout, %function
 542              	chSemWaitTimeout:
 543              	.LFB12:
 544              		.loc 2 222 0
 545              		.cfi_startproc
ARM GAS  /tmp/ccJCaAwF.s 			page 11


 546              		@ args = 0, pretend = 0, frame = 16
 547              		@ frame_needed = 0, uses_anonymous_args = 0
 548 0000 00B5     		push	{lr}
 549              		.cfi_def_cfa_offset 4
 550              		.cfi_offset 14, -4
 551 0002 85B0     		sub	sp, sp, #20
 552              		.cfi_def_cfa_offset 24
 553 0004 0190     		str	r0, [sp, #4]
 554 0006 0091     		str	r1, [sp]
 555              	.LBB6:
 556              		.loc 2 225 0
 557 0008 2023     		movs	r3, #32
 558              	@ 225 "/home/ergae/r2p-sdk/core/ChibiOS/os/kernel/src/chsem.c" 1
 559 000a 83F31188 		msr     BASEPRI, r3
 560              	@ 0 "" 2
 561              		.thumb
 562              	.LBE6:
 563 000e FFF7FEFF 		bl	dbg_check_lock
 564              		.loc 2 226 0
 565 0012 0198     		ldr	r0, [sp, #4]
 566 0014 0099     		ldr	r1, [sp]
 567 0016 FFF7FEFF 		bl	chSemWaitTimeoutS
 568 001a 0390     		str	r0, [sp, #12]
 569              		.loc 2 227 0
 570 001c FFF7FEFF 		bl	dbg_check_unlock
 571              	.LBB7:
 572 0020 0023     		movs	r3, #0
 573              	@ 227 "/home/ergae/r2p-sdk/core/ChibiOS/os/kernel/src/chsem.c" 1
 574 0022 83F31188 		msr     BASEPRI, r3
 575              	@ 0 "" 2
 576              		.thumb
 577              	.LBE7:
 578              		.loc 2 228 0
 579 0026 039B     		ldr	r3, [sp, #12]
 580              		.loc 2 229 0
 581 0028 1846     		mov	r0, r3
 582 002a 05B0     		add	sp, sp, #20
 583              		.cfi_def_cfa_offset 4
 584              		@ sp needed
 585 002c 5DF804FB 		ldr	pc, [sp], #4
 586              		.cfi_endproc
 587              	.LFE12:
 588              		.size	chSemWaitTimeout, .-chSemWaitTimeout
 589              		.section	.rodata
 590 0055 000000   		.align	2
 591              	.LC5:
 592 0058 22636853 		.ascii	"\"chSemWaitTimeoutS\"()\000"
 592      656D5761 
 592      69745469 
 592      6D656F75 
 592      74532228 
 593 006e 0000     		.align	2
 594              	.LC6:
 595 0070 63685365 		.ascii	"chSemWaitTimeoutS(), #1\000"
 595      6D576169 
 595      7454696D 
 595      656F7574 
ARM GAS  /tmp/ccJCaAwF.s 			page 12


 595      5328292C 
 596              		.section	.text.chSemWaitTimeoutS,"ax",%progbits
 597              		.align	2
 598              		.p2align 4,,15
 599              		.global	chSemWaitTimeoutS
 600              		.thumb
 601              		.thumb_func
 602              		.type	chSemWaitTimeoutS, %function
 603              	chSemWaitTimeoutS:
 604              	.LFB13:
 605              		.loc 2 250 0
 606              		.cfi_startproc
 607              		@ args = 0, pretend = 0, frame = 8
 608              		@ frame_needed = 0, uses_anonymous_args = 0
 609 0000 00B5     		push	{lr}
 610              		.cfi_def_cfa_offset 4
 611              		.cfi_offset 14, -4
 612 0002 83B0     		sub	sp, sp, #12
 613              		.cfi_def_cfa_offset 16
 614 0004 0190     		str	r0, [sp, #4]
 615 0006 0091     		str	r1, [sp]
 616              		.loc 2 252 0
 617 0008 FFF7FEFF 		bl	chDbgCheckClassS
 618              		.loc 2 253 0
 619 000c 019B     		ldr	r3, [sp, #4]
 620 000e 002B     		cmp	r3, #0
 621 0010 02D1     		bne	.L36
 622              		.loc 2 253 0 is_stmt 0 discriminator 1
 623 0012 2148     		ldr	r0, .L43
 624 0014 FFF7FEFF 		bl	chDbgPanic
 625              	.L36:
 626              		.loc 2 254 0 is_stmt 1
 627 0018 019B     		ldr	r3, [sp, #4]
 628 001a 9B68     		ldr	r3, [r3, #8]
 629 001c 002B     		cmp	r3, #0
 630 001e 04DB     		blt	.L37
 631              		.loc 2 254 0 is_stmt 0 discriminator 2
 632 0020 019B     		ldr	r3, [sp, #4]
 633 0022 1A68     		ldr	r2, [r3]
 634 0024 019B     		ldr	r3, [sp, #4]
 635 0026 9A42     		cmp	r2, r3
 636 0028 0BD0     		beq	.L38
 637              	.L37:
 638              		.loc 2 254 0 discriminator 3
 639 002a 019B     		ldr	r3, [sp, #4]
 640 002c 9B68     		ldr	r3, [r3, #8]
 641 002e 002B     		cmp	r3, #0
 642 0030 04DA     		bge	.L39
 643              		.loc 2 254 0 discriminator 5
 644 0032 019B     		ldr	r3, [sp, #4]
 645 0034 1A68     		ldr	r2, [r3]
 646 0036 019B     		ldr	r3, [sp, #4]
 647 0038 9A42     		cmp	r2, r3
 648 003a 02D1     		bne	.L38
 649              	.L39:
 650              		.loc 2 254 0 discriminator 6
 651 003c 1748     		ldr	r0, .L43+4
ARM GAS  /tmp/ccJCaAwF.s 			page 13


 652 003e FFF7FEFF 		bl	chDbgPanic
 653              	.L38:
 654              		.loc 2 259 0 is_stmt 1
 655 0042 019B     		ldr	r3, [sp, #4]
 656 0044 9B68     		ldr	r3, [r3, #8]
 657 0046 5A1E     		subs	r2, r3, #1
 658 0048 019B     		ldr	r3, [sp, #4]
 659 004a 9A60     		str	r2, [r3, #8]
 660 004c 019B     		ldr	r3, [sp, #4]
 661 004e 9B68     		ldr	r3, [r3, #8]
 662 0050 002B     		cmp	r3, #0
 663 0052 1BDA     		bge	.L40
 664              		.loc 2 260 0
 665 0054 009B     		ldr	r3, [sp]
 666 0056 002B     		cmp	r3, #0
 667 0058 07D1     		bne	.L41
 668              		.loc 2 261 0
 669 005a 019B     		ldr	r3, [sp, #4]
 670 005c 9B68     		ldr	r3, [r3, #8]
 671 005e 5A1C     		adds	r2, r3, #1
 672 0060 019B     		ldr	r3, [sp, #4]
 673 0062 9A60     		str	r2, [r3, #8]
 674              		.loc 2 262 0
 675 0064 4FF0FF33 		mov	r3, #-1
 676 0068 11E0     		b	.L42
 677              	.L41:
 678              		.loc 2 264 0
 679 006a 0D4B     		ldr	r3, .L43+8
 680 006c 9B69     		ldr	r3, [r3, #24]
 681 006e 019A     		ldr	r2, [sp, #4]
 682 0070 9A62     		str	r2, [r3, #40]
 683              		.loc 2 265 0
 684 0072 0B4B     		ldr	r3, .L43+8
 685 0074 9A69     		ldr	r2, [r3, #24]
 686 0076 019B     		ldr	r3, [sp, #4]
 687 0078 1046     		mov	r0, r2
 688 007a 1946     		mov	r1, r3
 689 007c FFF7FEFF 		bl	queue_insert
 690              		.loc 2 266 0
 691 0080 0320     		movs	r0, #3
 692 0082 0099     		ldr	r1, [sp]
 693 0084 FFF7FEFF 		bl	chSchGoSleepTimeoutS
 694 0088 0346     		mov	r3, r0
 695 008a 00E0     		b	.L42
 696              	.L40:
 697              		.loc 2 268 0
 698 008c 0023     		movs	r3, #0
 699              	.L42:
 700              		.loc 2 269 0
 701 008e 1846     		mov	r0, r3
 702 0090 03B0     		add	sp, sp, #12
 703              		.cfi_def_cfa_offset 4
 704              		@ sp needed
 705 0092 5DF804FB 		ldr	pc, [sp], #4
 706              	.L44:
 707 0096 00BF     		.align	2
 708              	.L43:
ARM GAS  /tmp/ccJCaAwF.s 			page 14


 709 0098 58000000 		.word	.LC5
 710 009c 70000000 		.word	.LC6
 711 00a0 00000000 		.word	rlist
 712              		.cfi_endproc
 713              	.LFE13:
 714              		.size	chSemWaitTimeoutS, .-chSemWaitTimeoutS
 715 00a4 AFF30080 		.section	.rodata
 715      AFF30080 
 715      AFF30080 
 716              		.align	2
 717              	.LC7:
 718 0088 22636853 		.ascii	"\"chSemSignal\"()\000"
 718      656D5369 
 718      676E616C 
 718      22282900 
 719              		.align	2
 720              	.LC8:
 721 0098 63685365 		.ascii	"chSemSignal(), #1\000"
 721      6D536967 
 721      6E616C28 
 721      292C2023 
 721      3100
 722              		.section	.text.chSemSignal,"ax",%progbits
 723              		.align	2
 724              		.p2align 4,,15
 725              		.global	chSemSignal
 726              		.thumb
 727              		.thumb_func
 728              		.type	chSemSignal, %function
 729              	chSemSignal:
 730              	.LFB14:
 731              		.loc 2 278 0
 732              		.cfi_startproc
 733              		@ args = 0, pretend = 0, frame = 8
 734              		@ frame_needed = 0, uses_anonymous_args = 0
 735 0000 00B5     		push	{lr}
 736              		.cfi_def_cfa_offset 4
 737              		.cfi_offset 14, -4
 738 0002 83B0     		sub	sp, sp, #12
 739              		.cfi_def_cfa_offset 16
 740 0004 0190     		str	r0, [sp, #4]
 741              		.loc 2 280 0
 742 0006 019B     		ldr	r3, [sp, #4]
 743 0008 002B     		cmp	r3, #0
 744 000a 02D1     		bne	.L46
 745              		.loc 2 280 0 is_stmt 0 discriminator 1
 746 000c 1B48     		ldr	r0, .L51
 747 000e FFF7FEFF 		bl	chDbgPanic
 748              	.L46:
 749              		.loc 2 281 0 is_stmt 1
 750 0012 019B     		ldr	r3, [sp, #4]
 751 0014 9B68     		ldr	r3, [r3, #8]
 752 0016 002B     		cmp	r3, #0
 753 0018 04DB     		blt	.L47
 754              		.loc 2 281 0 is_stmt 0 discriminator 2
 755 001a 019B     		ldr	r3, [sp, #4]
 756 001c 1A68     		ldr	r2, [r3]
ARM GAS  /tmp/ccJCaAwF.s 			page 15


 757 001e 019B     		ldr	r3, [sp, #4]
 758 0020 9A42     		cmp	r2, r3
 759 0022 0BD0     		beq	.L48
 760              	.L47:
 761              		.loc 2 281 0 discriminator 3
 762 0024 019B     		ldr	r3, [sp, #4]
 763 0026 9B68     		ldr	r3, [r3, #8]
 764 0028 002B     		cmp	r3, #0
 765 002a 04DA     		bge	.L49
 766              		.loc 2 281 0 discriminator 5
 767 002c 019B     		ldr	r3, [sp, #4]
 768 002e 1A68     		ldr	r2, [r3]
 769 0030 019B     		ldr	r3, [sp, #4]
 770 0032 9A42     		cmp	r2, r3
 771 0034 02D1     		bne	.L48
 772              	.L49:
 773              		.loc 2 281 0 discriminator 6
 774 0036 1248     		ldr	r0, .L51+4
 775 0038 FFF7FEFF 		bl	chDbgPanic
 776              	.L48:
 777              	.LBB8:
 778              		.loc 2 286 0 is_stmt 1
 779 003c 2023     		movs	r3, #32
 780              	@ 286 "/home/ergae/r2p-sdk/core/ChibiOS/os/kernel/src/chsem.c" 1
 781 003e 83F31188 		msr     BASEPRI, r3
 782              	@ 0 "" 2
 783              		.thumb
 784              	.LBE8:
 785 0042 FFF7FEFF 		bl	dbg_check_lock
 786              		.loc 2 287 0
 787 0046 019B     		ldr	r3, [sp, #4]
 788 0048 9B68     		ldr	r3, [r3, #8]
 789 004a 5A1C     		adds	r2, r3, #1
 790 004c 019B     		ldr	r3, [sp, #4]
 791 004e 9A60     		str	r2, [r3, #8]
 792 0050 019B     		ldr	r3, [sp, #4]
 793 0052 9B68     		ldr	r3, [r3, #8]
 794 0054 002B     		cmp	r3, #0
 795 0056 08DC     		bgt	.L50
 796              		.loc 2 288 0
 797 0058 019B     		ldr	r3, [sp, #4]
 798 005a 1846     		mov	r0, r3
 799 005c FFF7FEFF 		bl	fifo_remove
 800 0060 0346     		mov	r3, r0
 801 0062 1846     		mov	r0, r3
 802 0064 0021     		movs	r1, #0
 803 0066 FFF7FEFF 		bl	chSchWakeupS
 804              	.L50:
 805              		.loc 2 289 0
 806 006a FFF7FEFF 		bl	dbg_check_unlock
 807              	.LBB9:
 808 006e 0023     		movs	r3, #0
 809              	@ 289 "/home/ergae/r2p-sdk/core/ChibiOS/os/kernel/src/chsem.c" 1
 810 0070 83F31188 		msr     BASEPRI, r3
 811              	@ 0 "" 2
 812              		.thumb
 813              	.LBE9:
ARM GAS  /tmp/ccJCaAwF.s 			page 16


 814              		.loc 2 290 0
 815 0074 03B0     		add	sp, sp, #12
 816              		.cfi_def_cfa_offset 4
 817              		@ sp needed
 818 0076 5DF804FB 		ldr	pc, [sp], #4
 819              	.L52:
 820 007a 00BF     		.align	2
 821              	.L51:
 822 007c 88000000 		.word	.LC7
 823 0080 98000000 		.word	.LC8
 824              		.cfi_endproc
 825              	.LFE14:
 826              		.size	chSemSignal, .-chSemSignal
 827 0084 AFF30080 		.section	.rodata
 827      AFF30080 
 827      AFF30080 
 828 00aa 0000     		.align	2
 829              	.LC9:
 830 00ac 22636853 		.ascii	"\"chSemSignalI\"()\000"
 830      656D5369 
 830      676E616C 
 830      49222829 
 830      00
 831 00bd 000000   		.align	2
 832              	.LC10:
 833 00c0 63685365 		.ascii	"chSemSignalI(), #1\000"
 833      6D536967 
 833      6E616C49 
 833      28292C20 
 833      233100
 834              		.section	.text.chSemSignalI,"ax",%progbits
 835              		.align	2
 836              		.p2align 4,,15
 837              		.global	chSemSignalI
 838              		.thumb
 839              		.thumb_func
 840              		.type	chSemSignalI, %function
 841              	chSemSignalI:
 842              	.LFB15:
 843              		.loc 2 303 0
 844              		.cfi_startproc
 845              		@ args = 0, pretend = 0, frame = 16
 846              		@ frame_needed = 0, uses_anonymous_args = 0
 847 0000 00B5     		push	{lr}
 848              		.cfi_def_cfa_offset 4
 849              		.cfi_offset 14, -4
 850 0002 85B0     		sub	sp, sp, #20
 851              		.cfi_def_cfa_offset 24
 852 0004 0190     		str	r0, [sp, #4]
 853              		.loc 2 305 0
 854 0006 FFF7FEFF 		bl	chDbgCheckClassI
 855              		.loc 2 306 0
 856 000a 019B     		ldr	r3, [sp, #4]
 857 000c 002B     		cmp	r3, #0
 858 000e 02D1     		bne	.L54
 859              		.loc 2 306 0 is_stmt 0 discriminator 1
 860 0010 1748     		ldr	r0, .L59
ARM GAS  /tmp/ccJCaAwF.s 			page 17


 861 0012 FFF7FEFF 		bl	chDbgPanic
 862              	.L54:
 863              		.loc 2 307 0 is_stmt 1
 864 0016 019B     		ldr	r3, [sp, #4]
 865 0018 9B68     		ldr	r3, [r3, #8]
 866 001a 002B     		cmp	r3, #0
 867 001c 04DB     		blt	.L55
 868              		.loc 2 307 0 is_stmt 0 discriminator 2
 869 001e 019B     		ldr	r3, [sp, #4]
 870 0020 1A68     		ldr	r2, [r3]
 871 0022 019B     		ldr	r3, [sp, #4]
 872 0024 9A42     		cmp	r2, r3
 873 0026 0BD0     		beq	.L56
 874              	.L55:
 875              		.loc 2 307 0 discriminator 3
 876 0028 019B     		ldr	r3, [sp, #4]
 877 002a 9B68     		ldr	r3, [r3, #8]
 878 002c 002B     		cmp	r3, #0
 879 002e 04DA     		bge	.L57
 880              		.loc 2 307 0 discriminator 5
 881 0030 019B     		ldr	r3, [sp, #4]
 882 0032 1A68     		ldr	r2, [r3]
 883 0034 019B     		ldr	r3, [sp, #4]
 884 0036 9A42     		cmp	r2, r3
 885 0038 02D1     		bne	.L56
 886              	.L57:
 887              		.loc 2 307 0 discriminator 6
 888 003a 0E48     		ldr	r0, .L59+4
 889 003c FFF7FEFF 		bl	chDbgPanic
 890              	.L56:
 891              		.loc 2 312 0 is_stmt 1
 892 0040 019B     		ldr	r3, [sp, #4]
 893 0042 9B68     		ldr	r3, [r3, #8]
 894 0044 5A1C     		adds	r2, r3, #1
 895 0046 019B     		ldr	r3, [sp, #4]
 896 0048 9A60     		str	r2, [r3, #8]
 897 004a 019B     		ldr	r3, [sp, #4]
 898 004c 9B68     		ldr	r3, [r3, #8]
 899 004e 002B     		cmp	r3, #0
 900 0050 0ADC     		bgt	.L53
 901              	.LBB10:
 902              		.loc 2 315 0
 903 0052 019B     		ldr	r3, [sp, #4]
 904 0054 1846     		mov	r0, r3
 905 0056 FFF7FEFF 		bl	fifo_remove
 906 005a 0390     		str	r0, [sp, #12]
 907              		.loc 2 316 0
 908 005c 039B     		ldr	r3, [sp, #12]
 909 005e 0022     		movs	r2, #0
 910 0060 9A62     		str	r2, [r3, #40]
 911              		.loc 2 317 0
 912 0062 0398     		ldr	r0, [sp, #12]
 913 0064 FFF7FEFF 		bl	chSchReadyI
 914              	.L53:
 915              	.LBE10:
 916              		.loc 2 319 0
 917 0068 05B0     		add	sp, sp, #20
ARM GAS  /tmp/ccJCaAwF.s 			page 18


 918              		.cfi_def_cfa_offset 4
 919              		@ sp needed
 920 006a 5DF804FB 		ldr	pc, [sp], #4
 921              	.L60:
 922 006e 00BF     		.align	2
 923              	.L59:
 924 0070 AC000000 		.word	.LC9
 925 0074 C0000000 		.word	.LC10
 926              		.cfi_endproc
 927              	.LFE15:
 928              		.size	chSemSignalI, .-chSemSignalI
 929 0078 AFF30080 		.section	.rodata
 929      AFF30080 
 930 00d3 00       		.align	2
 931              	.LC11:
 932 00d4 22636853 		.ascii	"\"chSemAddCounterI\"()\000"
 932      656D4164 
 932      64436F75 
 932      6E746572 
 932      49222829 
 933 00e9 000000   		.align	2
 934              	.LC12:
 935 00ec 63685365 		.ascii	"chSemAddCounterI(), #1\000"
 935      6D416464 
 935      436F756E 
 935      74657249 
 935      28292C20 
 936              		.section	.text.chSemAddCounterI,"ax",%progbits
 937              		.align	2
 938              		.p2align 4,,15
 939              		.global	chSemAddCounterI
 940              		.thumb
 941              		.thumb_func
 942              		.type	chSemAddCounterI, %function
 943              	chSemAddCounterI:
 944              	.LFB16:
 945              		.loc 2 334 0
 946              		.cfi_startproc
 947              		@ args = 0, pretend = 0, frame = 8
 948              		@ frame_needed = 0, uses_anonymous_args = 0
 949 0000 00B5     		push	{lr}
 950              		.cfi_def_cfa_offset 4
 951              		.cfi_offset 14, -4
 952 0002 83B0     		sub	sp, sp, #12
 953              		.cfi_def_cfa_offset 16
 954 0004 0190     		str	r0, [sp, #4]
 955 0006 0091     		str	r1, [sp]
 956              		.loc 2 336 0
 957 0008 FFF7FEFF 		bl	chDbgCheckClassI
 958              		.loc 2 337 0
 959 000c 019B     		ldr	r3, [sp, #4]
 960 000e 002B     		cmp	r3, #0
 961 0010 02D0     		beq	.L62
 962              		.loc 2 337 0 is_stmt 0 discriminator 2
 963 0012 009B     		ldr	r3, [sp]
 964 0014 002B     		cmp	r3, #0
 965 0016 02DC     		bgt	.L63
ARM GAS  /tmp/ccJCaAwF.s 			page 19


 966              	.L62:
 967              		.loc 2 337 0 discriminator 3
 968 0018 1A48     		ldr	r0, .L70
 969 001a FFF7FEFF 		bl	chDbgPanic
 970              	.L63:
 971              		.loc 2 338 0 is_stmt 1
 972 001e 019B     		ldr	r3, [sp, #4]
 973 0020 9B68     		ldr	r3, [r3, #8]
 974 0022 002B     		cmp	r3, #0
 975 0024 04DB     		blt	.L64
 976              		.loc 2 338 0 is_stmt 0 discriminator 2
 977 0026 019B     		ldr	r3, [sp, #4]
 978 0028 1A68     		ldr	r2, [r3]
 979 002a 019B     		ldr	r3, [sp, #4]
 980 002c 9A42     		cmp	r2, r3
 981 002e 0BD0     		beq	.L65
 982              	.L64:
 983              		.loc 2 338 0 discriminator 3
 984 0030 019B     		ldr	r3, [sp, #4]
 985 0032 9B68     		ldr	r3, [r3, #8]
 986 0034 002B     		cmp	r3, #0
 987 0036 04DA     		bge	.L66
 988              		.loc 2 338 0 discriminator 5
 989 0038 019B     		ldr	r3, [sp, #4]
 990 003a 1A68     		ldr	r2, [r3]
 991 003c 019B     		ldr	r3, [sp, #4]
 992 003e 9A42     		cmp	r2, r3
 993 0040 02D1     		bne	.L65
 994              	.L66:
 995              		.loc 2 338 0 discriminator 6
 996 0042 1148     		ldr	r0, .L70+4
 997 0044 FFF7FEFF 		bl	chDbgPanic
 998              	.L65:
 999              		.loc 2 343 0 is_stmt 1
 1000 0048 16E0     		b	.L67
 1001              	.L69:
 1002              		.loc 2 344 0
 1003 004a 019B     		ldr	r3, [sp, #4]
 1004 004c 9B68     		ldr	r3, [r3, #8]
 1005 004e 5A1C     		adds	r2, r3, #1
 1006 0050 019B     		ldr	r3, [sp, #4]
 1007 0052 9A60     		str	r2, [r3, #8]
 1008 0054 019B     		ldr	r3, [sp, #4]
 1009 0056 9B68     		ldr	r3, [r3, #8]
 1010 0058 002B     		cmp	r3, #0
 1011 005a 0ADC     		bgt	.L68
 1012              		.loc 2 345 0
 1013 005c 019B     		ldr	r3, [sp, #4]
 1014 005e 1846     		mov	r0, r3
 1015 0060 FFF7FEFF 		bl	fifo_remove
 1016 0064 0346     		mov	r3, r0
 1017 0066 1846     		mov	r0, r3
 1018 0068 FFF7FEFF 		bl	chSchReadyI
 1019 006c 0246     		mov	r2, r0
 1020 006e 0023     		movs	r3, #0
 1021 0070 9362     		str	r3, [r2, #40]
 1022              	.L68:
ARM GAS  /tmp/ccJCaAwF.s 			page 20


 1023              		.loc 2 346 0
 1024 0072 009B     		ldr	r3, [sp]
 1025 0074 013B     		subs	r3, r3, #1
 1026 0076 0093     		str	r3, [sp]
 1027              	.L67:
 1028              		.loc 2 343 0
 1029 0078 009B     		ldr	r3, [sp]
 1030 007a 002B     		cmp	r3, #0
 1031 007c E5DC     		bgt	.L69
 1032              		.loc 2 348 0
 1033 007e 03B0     		add	sp, sp, #12
 1034              		.cfi_def_cfa_offset 4
 1035              		@ sp needed
 1036 0080 5DF804FB 		ldr	pc, [sp], #4
 1037              	.L71:
 1038              		.align	2
 1039              	.L70:
 1040 0084 D4000000 		.word	.LC11
 1041 0088 EC000000 		.word	.LC12
 1042              		.cfi_endproc
 1043              	.LFE16:
 1044              		.size	chSemAddCounterI, .-chSemAddCounterI
 1045 008c AFF30080 		.section	.rodata
 1046 0103 00       		.align	2
 1047              	.LC13:
 1048 0104 22636853 		.ascii	"\"chSemSignalWait\"()\000"
 1048      656D5369 
 1048      676E616C 
 1048      57616974 
 1048      22282900 
 1049              		.align	2
 1050              	.LC14:
 1051 0118 63685365 		.ascii	"chSemSignalWait(), #1\000"
 1051      6D536967 
 1051      6E616C57 
 1051      61697428 
 1051      292C2023 
 1052 012e 0000     		.align	2
 1053              	.LC15:
 1054 0130 63685365 		.ascii	"chSemSignalWait(), #2\000"
 1054      6D536967 
 1054      6E616C57 
 1054      61697428 
 1054      292C2023 
 1055 0146 0000     		.section	.text.chSemSignalWait,"ax",%progbits
 1056              		.align	2
 1057              		.p2align 4,,15
 1058              		.global	chSemSignalWait
 1059              		.thumb
 1060              		.thumb_func
 1061              		.type	chSemSignalWait, %function
 1062              	chSemSignalWait:
 1063              	.LFB17:
 1064              		.loc 2 366 0
 1065              		.cfi_startproc
 1066              		@ args = 0, pretend = 0, frame = 16
 1067              		@ frame_needed = 0, uses_anonymous_args = 0
ARM GAS  /tmp/ccJCaAwF.s 			page 21


 1068 0000 00B5     		push	{lr}
 1069              		.cfi_def_cfa_offset 4
 1070              		.cfi_offset 14, -4
 1071 0002 85B0     		sub	sp, sp, #20
 1072              		.cfi_def_cfa_offset 24
 1073 0004 0190     		str	r0, [sp, #4]
 1074 0006 0091     		str	r1, [sp]
 1075              		.loc 2 369 0
 1076 0008 019B     		ldr	r3, [sp, #4]
 1077 000a 002B     		cmp	r3, #0
 1078 000c 02D0     		beq	.L73
 1079              		.loc 2 369 0 is_stmt 0 discriminator 2
 1080 000e 009B     		ldr	r3, [sp]
 1081 0010 002B     		cmp	r3, #0
 1082 0012 02D1     		bne	.L74
 1083              	.L73:
 1084              		.loc 2 369 0 discriminator 3
 1085 0014 3748     		ldr	r0, .L85
 1086 0016 FFF7FEFF 		bl	chDbgPanic
 1087              	.L74:
 1088              		.loc 2 370 0 is_stmt 1
 1089 001a 019B     		ldr	r3, [sp, #4]
 1090 001c 9B68     		ldr	r3, [r3, #8]
 1091 001e 002B     		cmp	r3, #0
 1092 0020 04DB     		blt	.L75
 1093              		.loc 2 370 0 is_stmt 0 discriminator 2
 1094 0022 019B     		ldr	r3, [sp, #4]
 1095 0024 1A68     		ldr	r2, [r3]
 1096 0026 019B     		ldr	r3, [sp, #4]
 1097 0028 9A42     		cmp	r2, r3
 1098 002a 0BD0     		beq	.L76
 1099              	.L75:
 1100              		.loc 2 370 0 discriminator 3
 1101 002c 019B     		ldr	r3, [sp, #4]
 1102 002e 9B68     		ldr	r3, [r3, #8]
 1103 0030 002B     		cmp	r3, #0
 1104 0032 04DA     		bge	.L77
 1105              		.loc 2 370 0 discriminator 5
 1106 0034 019B     		ldr	r3, [sp, #4]
 1107 0036 1A68     		ldr	r2, [r3]
 1108 0038 019B     		ldr	r3, [sp, #4]
 1109 003a 9A42     		cmp	r2, r3
 1110 003c 02D1     		bne	.L76
 1111              	.L77:
 1112              		.loc 2 370 0 discriminator 6
 1113 003e 2E48     		ldr	r0, .L85+4
 1114 0040 FFF7FEFF 		bl	chDbgPanic
 1115              	.L76:
 1116              		.loc 2 374 0 is_stmt 1
 1117 0044 009B     		ldr	r3, [sp]
 1118 0046 9B68     		ldr	r3, [r3, #8]
 1119 0048 002B     		cmp	r3, #0
 1120 004a 04DB     		blt	.L78
 1121              		.loc 2 374 0 is_stmt 0 discriminator 2
 1122 004c 009B     		ldr	r3, [sp]
 1123 004e 1A68     		ldr	r2, [r3]
 1124 0050 009B     		ldr	r3, [sp]
ARM GAS  /tmp/ccJCaAwF.s 			page 22


 1125 0052 9A42     		cmp	r2, r3
 1126 0054 0BD0     		beq	.L79
 1127              	.L78:
 1128              		.loc 2 374 0 discriminator 3
 1129 0056 009B     		ldr	r3, [sp]
 1130 0058 9B68     		ldr	r3, [r3, #8]
 1131 005a 002B     		cmp	r3, #0
 1132 005c 04DA     		bge	.L80
 1133              		.loc 2 374 0 discriminator 5
 1134 005e 009B     		ldr	r3, [sp]
 1135 0060 1A68     		ldr	r2, [r3]
 1136 0062 009B     		ldr	r3, [sp]
 1137 0064 9A42     		cmp	r2, r3
 1138 0066 02D1     		bne	.L79
 1139              	.L80:
 1140              		.loc 2 374 0 discriminator 6
 1141 0068 2448     		ldr	r0, .L85+8
 1142 006a FFF7FEFF 		bl	chDbgPanic
 1143              	.L79:
 1144              	.LBB11:
 1145              		.loc 2 379 0 is_stmt 1
 1146 006e 2023     		movs	r3, #32
 1147              	@ 379 "/home/ergae/r2p-sdk/core/ChibiOS/os/kernel/src/chsem.c" 1
 1148 0070 83F31188 		msr     BASEPRI, r3
 1149              	@ 0 "" 2
 1150              		.thumb
 1151              	.LBE11:
 1152 0074 FFF7FEFF 		bl	dbg_check_lock
 1153              		.loc 2 380 0
 1154 0078 019B     		ldr	r3, [sp, #4]
 1155 007a 9B68     		ldr	r3, [r3, #8]
 1156 007c 5A1C     		adds	r2, r3, #1
 1157 007e 019B     		ldr	r3, [sp, #4]
 1158 0080 9A60     		str	r2, [r3, #8]
 1159 0082 019B     		ldr	r3, [sp, #4]
 1160 0084 9B68     		ldr	r3, [r3, #8]
 1161 0086 002B     		cmp	r3, #0
 1162 0088 0ADC     		bgt	.L81
 1163              		.loc 2 381 0
 1164 008a 019B     		ldr	r3, [sp, #4]
 1165 008c 1846     		mov	r0, r3
 1166 008e FFF7FEFF 		bl	fifo_remove
 1167 0092 0346     		mov	r3, r0
 1168 0094 1846     		mov	r0, r3
 1169 0096 FFF7FEFF 		bl	chSchReadyI
 1170 009a 0246     		mov	r2, r0
 1171 009c 0023     		movs	r3, #0
 1172 009e 9362     		str	r3, [r2, #40]
 1173              	.L81:
 1174              		.loc 2 382 0
 1175 00a0 009B     		ldr	r3, [sp]
 1176 00a2 9B68     		ldr	r3, [r3, #8]
 1177 00a4 5A1E     		subs	r2, r3, #1
 1178 00a6 009B     		ldr	r3, [sp]
 1179 00a8 9A60     		str	r2, [r3, #8]
 1180 00aa 009B     		ldr	r3, [sp]
 1181 00ac 9B68     		ldr	r3, [r3, #8]
ARM GAS  /tmp/ccJCaAwF.s 			page 23


 1182 00ae 002B     		cmp	r3, #0
 1183 00b0 11DA     		bge	.L82
 1184              	.LBB12:
 1185              		.loc 2 383 0
 1186 00b2 134B     		ldr	r3, .L85+12
 1187 00b4 9B69     		ldr	r3, [r3, #24]
 1188 00b6 0293     		str	r3, [sp, #8]
 1189              		.loc 2 384 0
 1190 00b8 009B     		ldr	r3, [sp]
 1191 00ba 0298     		ldr	r0, [sp, #8]
 1192 00bc 1946     		mov	r1, r3
 1193 00be FFF7FEFF 		bl	queue_insert
 1194              		.loc 2 385 0
 1195 00c2 029B     		ldr	r3, [sp, #8]
 1196 00c4 009A     		ldr	r2, [sp]
 1197 00c6 9A62     		str	r2, [r3, #40]
 1198              		.loc 2 386 0
 1199 00c8 0320     		movs	r0, #3
 1200 00ca FFF7FEFF 		bl	chSchGoSleepS
 1201              		.loc 2 387 0
 1202 00ce 029B     		ldr	r3, [sp, #8]
 1203 00d0 9B6A     		ldr	r3, [r3, #40]
 1204 00d2 0393     		str	r3, [sp, #12]
 1205              	.LBE12:
 1206 00d4 03E0     		b	.L83
 1207              	.L82:
 1208              		.loc 2 390 0
 1209 00d6 FFF7FEFF 		bl	chSchRescheduleS
 1210              		.loc 2 391 0
 1211 00da 0023     		movs	r3, #0
 1212 00dc 0393     		str	r3, [sp, #12]
 1213              	.L83:
 1214              		.loc 2 393 0
 1215 00de FFF7FEFF 		bl	dbg_check_unlock
 1216              	.LBB13:
 1217 00e2 0023     		movs	r3, #0
 1218              	@ 393 "/home/ergae/r2p-sdk/core/ChibiOS/os/kernel/src/chsem.c" 1
 1219 00e4 83F31188 		msr     BASEPRI, r3
 1220              	@ 0 "" 2
 1221              		.thumb
 1222              	.LBE13:
 1223              		.loc 2 394 0
 1224 00e8 039B     		ldr	r3, [sp, #12]
 1225              		.loc 2 395 0
 1226 00ea 1846     		mov	r0, r3
 1227 00ec 05B0     		add	sp, sp, #20
 1228              		.cfi_def_cfa_offset 4
 1229              		@ sp needed
 1230 00ee 5DF804FB 		ldr	pc, [sp], #4
 1231              	.L86:
 1232 00f2 00BF     		.align	2
 1233              	.L85:
 1234 00f4 04010000 		.word	.LC13
 1235 00f8 18010000 		.word	.LC14
 1236 00fc 30010000 		.word	.LC15
 1237 0100 00000000 		.word	rlist
 1238              		.cfi_endproc
ARM GAS  /tmp/ccJCaAwF.s 			page 24


 1239              	.LFE17:
 1240              		.size	chSemSignalWait, .-chSemSignalWait
 1241 0104 AFF30080 		.text
 1241      AFF30080 
 1241      AFF30080 
 1242              	.Letext0:
 1243              		.file 3 "/home/ergae/r2p-sdk/tools/gcc-arm-none-eabi-4_9-2014q4/arm-none-eabi/include/machine/_def
 1244              		.file 4 "/home/ergae/r2p-sdk/tools/gcc-arm-none-eabi-4_9-2014q4/arm-none-eabi/include/stdint.h"
 1245              		.file 5 "/home/ergae/r2p-sdk/core/ChibiOS/os/ports/GCC/ARMCMx/chtypes.h"
 1246              		.file 6 "/home/ergae/r2p-sdk/core/ChibiOS/os/kernel/include/chlists.h"
 1247              		.file 7 "/home/ergae/r2p-sdk/core/ChibiOS/os/kernel/include/chthreads.h"
 1248              		.file 8 "/home/ergae/r2p-sdk/core/ChibiOS/os/ports/GCC/ARMCMx/chcore_v7m.h"
 1249              		.file 9 "/home/ergae/r2p-sdk/core/ChibiOS/os/kernel/include/chschd.h"
 1250              		.file 10 "/home/ergae/r2p-sdk/core/ChibiOS/os/kernel/include/chsem.h"
 1251              		.file 11 "/home/ergae/r2p-sdk/core/ChibiOS/os/kernel/include/chmtx.h"