ARM GAS  /tmp/ccmRrK3u.s 			page 1


   1              		.syntax unified
   2              		.cpu cortex-m4
   3              		.eabi_attribute 27, 3
   4              		.eabi_attribute 28, 1
   5              		.fpu fpv4-sp-d16
   6              		.eabi_attribute 20, 1
   7              		.eabi_attribute 21, 1
   8              		.eabi_attribute 23, 3
   9              		.eabi_attribute 24, 1
  10              		.eabi_attribute 25, 1
  11              		.eabi_attribute 26, 1
  12              		.eabi_attribute 30, 6
  13              		.eabi_attribute 34, 1
  14              		.eabi_attribute 18, 4
  15              		.thumb
  16              		.file	"chthreads.c"
  17              		.text
  18              	.Ltext0:
  19              		.cfi_sections	.debug_frame
  20              		.section	.text.list_insert,"ax",%progbits
  21              		.align	2
  22              		.p2align 4,,15
  23              		.thumb
  24              		.thumb_func
  25              		.type	list_insert, %function
  26              	list_insert:
  27              	.LFB5:
  28              		.file 1 "/home/ergae/r2p-sdk/core/ChibiOS/os/kernel/include/chinline.h"
  29              		.loc 1 80 0
  30              		.cfi_startproc
  31              		@ args = 0, pretend = 0, frame = 8
  32              		@ frame_needed = 0, uses_anonymous_args = 0
  33              		@ link register save eliminated.
  34 0000 82B0     		sub	sp, sp, #8
  35              		.cfi_def_cfa_offset 8
  36 0002 0190     		str	r0, [sp, #4]
  37 0004 0091     		str	r1, [sp]
  38              		.loc 1 82 0
  39 0006 009B     		ldr	r3, [sp]
  40 0008 1A68     		ldr	r2, [r3]
  41 000a 019B     		ldr	r3, [sp, #4]
  42 000c 1A60     		str	r2, [r3]
  43              		.loc 1 83 0
  44 000e 009B     		ldr	r3, [sp]
  45 0010 019A     		ldr	r2, [sp, #4]
  46 0012 1A60     		str	r2, [r3]
  47              		.loc 1 84 0
  48 0014 02B0     		add	sp, sp, #8
  49              		.cfi_def_cfa_offset 0
  50              		@ sp needed
  51 0016 7047     		bx	lr
  52              		.cfi_endproc
  53              	.LFE5:
  54              		.size	list_insert, .-list_insert
  55 0018 AFF30080 		.section	.text.list_remove,"ax",%progbits
  55      AFF30080 
  56              		.align	2
ARM GAS  /tmp/ccmRrK3u.s 			page 2


  57              		.p2align 4,,15
  58              		.thumb
  59              		.thumb_func
  60              		.type	list_remove, %function
  61              	list_remove:
  62              	.LFB6:
  63              		.loc 1 86 0
  64              		.cfi_startproc
  65              		@ args = 0, pretend = 0, frame = 16
  66              		@ frame_needed = 0, uses_anonymous_args = 0
  67              		@ link register save eliminated.
  68 0000 84B0     		sub	sp, sp, #16
  69              		.cfi_def_cfa_offset 16
  70 0002 0190     		str	r0, [sp, #4]
  71              		.loc 1 88 0
  72 0004 019B     		ldr	r3, [sp, #4]
  73 0006 1B68     		ldr	r3, [r3]
  74 0008 0393     		str	r3, [sp, #12]
  75              		.loc 1 89 0
  76 000a 039B     		ldr	r3, [sp, #12]
  77 000c 1A68     		ldr	r2, [r3]
  78 000e 019B     		ldr	r3, [sp, #4]
  79 0010 1A60     		str	r2, [r3]
  80              		.loc 1 90 0
  81 0012 039B     		ldr	r3, [sp, #12]
  82              		.loc 1 91 0
  83 0014 1846     		mov	r0, r3
  84 0016 04B0     		add	sp, sp, #16
  85              		.cfi_def_cfa_offset 0
  86              		@ sp needed
  87 0018 7047     		bx	lr
  88              		.cfi_endproc
  89              	.LFE6:
  90              		.size	list_remove, .-list_remove
  91 001a 00BFAFF3 		.section	.text._thread_init,"ax",%progbits
  91      0080
  92              		.align	2
  93              		.p2align 4,,15
  94              		.global	_thread_init
  95              		.thumb
  96              		.thumb_func
  97              		.type	_thread_init, %function
  98              	_thread_init:
  99              	.LFB7:
 100              		.file 2 "/home/ergae/r2p-sdk/core/ChibiOS/os/kernel/src/chthreads.c"
 101              		.loc 2 76 0
 102              		.cfi_startproc
 103              		@ args = 0, pretend = 0, frame = 8
 104              		@ frame_needed = 0, uses_anonymous_args = 0
 105              		@ link register save eliminated.
 106 0000 82B0     		sub	sp, sp, #8
 107              		.cfi_def_cfa_offset 8
 108 0002 0190     		str	r0, [sp, #4]
 109 0004 0091     		str	r1, [sp]
 110              		.loc 2 78 0
 111 0006 019B     		ldr	r3, [sp, #4]
 112 0008 009A     		ldr	r2, [sp]
ARM GAS  /tmp/ccmRrK3u.s 			page 3


 113 000a 9A60     		str	r2, [r3, #8]
 114              		.loc 2 79 0
 115 000c 019B     		ldr	r3, [sp, #4]
 116 000e 0222     		movs	r2, #2
 117 0010 83F82020 		strb	r2, [r3, #32]
 118              		.loc 2 80 0
 119 0014 019B     		ldr	r3, [sp, #4]
 120 0016 0022     		movs	r2, #0
 121 0018 83F82120 		strb	r2, [r3, #33]
 122              		.loc 2 82 0
 123 001c 019B     		ldr	r3, [sp, #4]
 124 001e 1422     		movs	r2, #20
 125 0020 83F82320 		strb	r2, [r3, #35]
 126              		.loc 2 85 0
 127 0024 019B     		ldr	r3, [sp, #4]
 128 0026 009A     		ldr	r2, [sp]
 129 0028 5A64     		str	r2, [r3, #68]
 130              		.loc 2 86 0
 131 002a 019B     		ldr	r3, [sp, #4]
 132 002c 0022     		movs	r2, #0
 133 002e 1A64     		str	r2, [r3, #64]
 134              		.loc 2 89 0
 135 0030 019B     		ldr	r3, [sp, #4]
 136 0032 0022     		movs	r2, #0
 137 0034 DA63     		str	r2, [r3, #60]
 138              		.loc 2 92 0
 139 0036 019B     		ldr	r3, [sp, #4]
 140 0038 0022     		movs	r2, #0
 141 003a 5A62     		str	r2, [r3, #36]
 142              		.loc 2 95 0
 143 003c 019B     		ldr	r3, [sp, #4]
 144 003e 0122     		movs	r2, #1
 145 0040 83F82220 		strb	r2, [r3, #34]
 146              		.loc 2 98 0
 147 0044 019B     		ldr	r3, [sp, #4]
 148 0046 0022     		movs	r2, #0
 149 0048 9A61     		str	r2, [r3, #24]
 150              		.loc 2 99 0
 151 004a 019B     		ldr	r3, [sp, #4]
 152 004c 124A     		ldr	r2, .L6
 153 004e 1A61     		str	r2, [r3, #16]
 154 0050 114B     		ldr	r3, .L6
 155 0052 5A69     		ldr	r2, [r3, #20]
 156 0054 019B     		ldr	r3, [sp, #4]
 157 0056 5A61     		str	r2, [r3, #20]
 158 0058 019B     		ldr	r3, [sp, #4]
 159 005a 5B69     		ldr	r3, [r3, #20]
 160 005c 0E49     		ldr	r1, .L6
 161 005e 019A     		ldr	r2, [sp, #4]
 162 0060 4A61     		str	r2, [r1, #20]
 163 0062 0D4A     		ldr	r2, .L6
 164 0064 5269     		ldr	r2, [r2, #20]
 165 0066 1A61     		str	r2, [r3, #16]
 166              		.loc 2 102 0
 167 0068 019B     		ldr	r3, [sp, #4]
 168 006a 03F12C02 		add	r2, r3, #44
 169 006e 019B     		ldr	r3, [sp, #4]
ARM GAS  /tmp/ccmRrK3u.s 			page 4


 170 0070 DA62     		str	r2, [r3, #44]
 171              		.loc 2 105 0
 172 0072 019B     		ldr	r3, [sp, #4]
 173 0074 03F13002 		add	r2, r3, #48
 174 0078 019B     		ldr	r3, [sp, #4]
 175 007a 5A63     		str	r2, [r3, #52]
 176 007c 019B     		ldr	r3, [sp, #4]
 177 007e 5A6B     		ldr	r2, [r3, #52]
 178 0080 019B     		ldr	r3, [sp, #4]
 179 0082 1A63     		str	r2, [r3, #48]
 180              		.loc 2 108 0
 181 0084 019B     		ldr	r3, [sp, #4]
 182 0086 03F14C02 		add	r2, r3, #76
 183 008a 019B     		ldr	r3, [sp, #4]
 184 008c DA61     		str	r2, [r3, #28]
 185              		.loc 2 113 0
 186 008e 019B     		ldr	r3, [sp, #4]
 187              		.loc 2 114 0
 188 0090 1846     		mov	r0, r3
 189 0092 02B0     		add	sp, sp, #8
 190              		.cfi_def_cfa_offset 0
 191              		@ sp needed
 192 0094 7047     		bx	lr
 193              	.L7:
 194 0096 00BF     		.align	2
 195              	.L6:
 196 0098 00000000 		.word	rlist
 197              		.cfi_endproc
 198              	.LFE7:
 199              		.size	_thread_init, .-_thread_init
 200 009c AFF30080 		.section	.text._thread_memfill,"ax",%progbits
 201              		.align	2
 202              		.p2align 4,,15
 203              		.global	_thread_memfill
 204              		.thumb
 205              		.thumb_func
 206              		.type	_thread_memfill, %function
 207              	_thread_memfill:
 208              	.LFB8:
 209              		.loc 2 126 0
 210              		.cfi_startproc
 211              		@ args = 0, pretend = 0, frame = 16
 212              		@ frame_needed = 0, uses_anonymous_args = 0
 213              		@ link register save eliminated.
 214 0000 84B0     		sub	sp, sp, #16
 215              		.cfi_def_cfa_offset 16
 216 0002 0390     		str	r0, [sp, #12]
 217 0004 0291     		str	r1, [sp, #8]
 218 0006 1346     		mov	r3, r2
 219 0008 8DF80730 		strb	r3, [sp, #7]
 220              		.loc 2 128 0
 221 000c 05E0     		b	.L9
 222              	.L10:
 223              		.loc 2 129 0
 224 000e 039B     		ldr	r3, [sp, #12]
 225 0010 5A1C     		adds	r2, r3, #1
 226 0012 0392     		str	r2, [sp, #12]
ARM GAS  /tmp/ccmRrK3u.s 			page 5


 227 0014 9DF80720 		ldrb	r2, [sp, #7]
 228 0018 1A70     		strb	r2, [r3]
 229              	.L9:
 230              		.loc 2 128 0
 231 001a 039A     		ldr	r2, [sp, #12]
 232 001c 029B     		ldr	r3, [sp, #8]
 233 001e 9A42     		cmp	r2, r3
 234 0020 F5D3     		bcc	.L10
 235              		.loc 2 130 0
 236 0022 04B0     		add	sp, sp, #16
 237              		.cfi_def_cfa_offset 0
 238              		@ sp needed
 239 0024 7047     		bx	lr
 240              		.cfi_endproc
 241              	.LFE8:
 242              		.size	_thread_memfill, .-_thread_memfill
 243 0026 00BFAFF3 		.section	.rodata
 243      0080AFF3 
 243      0080
 244              		.align	2
 245              	.LC0:
 246 0000 22636854 		.ascii	"\"chThdCreateI\"()\000"
 246      68644372 
 246      65617465 
 246      49222829 
 246      00
 247              		.section	.text.chThdCreateI,"ax",%progbits
 248              		.align	2
 249              		.p2align 4,,15
 250              		.global	chThdCreateI
 251              		.thumb
 252              		.thumb_func
 253              		.type	chThdCreateI, %function
 254              	chThdCreateI:
 255              	.LFB9:
 256              		.loc 2 158 0
 257              		.cfi_startproc
 258              		@ args = 4, pretend = 0, frame = 24
 259              		@ frame_needed = 0, uses_anonymous_args = 0
 260 0000 00B5     		push	{lr}
 261              		.cfi_def_cfa_offset 4
 262              		.cfi_offset 14, -4
 263 0002 87B0     		sub	sp, sp, #28
 264              		.cfi_def_cfa_offset 32
 265 0004 0390     		str	r0, [sp, #12]
 266 0006 0291     		str	r1, [sp, #8]
 267 0008 0192     		str	r2, [sp, #4]
 268 000a 0093     		str	r3, [sp]
 269              		.loc 2 160 0
 270 000c 039B     		ldr	r3, [sp, #12]
 271 000e 0593     		str	r3, [sp, #20]
 272              		.loc 2 162 0
 273 0010 FFF7FEFF 		bl	chDbgCheckClassI
 274              		.loc 2 164 0
 275 0014 039B     		ldr	r3, [sp, #12]
 276 0016 002B     		cmp	r3, #0
 277 0018 09D0     		beq	.L12
ARM GAS  /tmp/ccmRrK3u.s 			page 6


 278              		.loc 2 164 0 is_stmt 0 discriminator 2
 279 001a 029B     		ldr	r3, [sp, #8]
 280 001c B3F5AC7F 		cmp	r3, #344
 281 0020 05D3     		bcc	.L12
 282              		.loc 2 164 0 discriminator 4
 283 0022 019B     		ldr	r3, [sp, #4]
 284 0024 7F2B     		cmp	r3, #127
 285 0026 02D8     		bhi	.L12
 286              		.loc 2 164 0 discriminator 6
 287 0028 009B     		ldr	r3, [sp]
 288 002a 002B     		cmp	r3, #0
 289 002c 02D1     		bne	.L13
 290              	.L12:
 291              		.loc 2 164 0 discriminator 7
 292 002e 0F48     		ldr	r0, .L15
 293 0030 FFF7FEFF 		bl	chDbgPanic
 294              	.L13:
 295              		.loc 2 167 0 is_stmt 1
 296 0034 029B     		ldr	r3, [sp, #8]
 297 0036 643B     		subs	r3, r3, #100
 298 0038 039A     		ldr	r2, [sp, #12]
 299 003a 1A44     		add	r2, r2, r3
 300 003c 059B     		ldr	r3, [sp, #20]
 301 003e DA60     		str	r2, [r3, #12]
 302 0040 059B     		ldr	r3, [sp, #20]
 303 0042 DB68     		ldr	r3, [r3, #12]
 304 0044 009A     		ldr	r2, [sp]
 305 0046 1A64     		str	r2, [r3, #64]
 306 0048 059B     		ldr	r3, [sp, #20]
 307 004a DB68     		ldr	r3, [r3, #12]
 308 004c 089A     		ldr	r2, [sp, #32]
 309 004e 5A64     		str	r2, [r3, #68]
 310 0050 059B     		ldr	r3, [sp, #20]
 311 0052 DB68     		ldr	r3, [r3, #12]
 312 0054 064A     		ldr	r2, .L15+4
 313 0056 1A66     		str	r2, [r3, #96]
 314              		.loc 2 168 0
 315 0058 0598     		ldr	r0, [sp, #20]
 316 005a 0199     		ldr	r1, [sp, #4]
 317 005c FFF7FEFF 		bl	_thread_init
 318 0060 0346     		mov	r3, r0
 319              		.loc 2 169 0
 320 0062 1846     		mov	r0, r3
 321 0064 07B0     		add	sp, sp, #28
 322              		.cfi_def_cfa_offset 4
 323              		@ sp needed
 324 0066 5DF804FB 		ldr	pc, [sp], #4
 325              	.L16:
 326 006a 00BF     		.align	2
 327              	.L15:
 328 006c 00000000 		.word	.LC0
 329 0070 00000000 		.word	_port_thread_start
 330              		.cfi_endproc
 331              	.LFE9:
 332              		.size	chThdCreateI, .-chThdCreateI
 333 0074 AFF30080 		.section	.text.chThdCreateStatic,"ax",%progbits
 333      AFF30080 
ARM GAS  /tmp/ccmRrK3u.s 			page 7


 333      AFF30080 
 334              		.align	2
 335              		.p2align 4,,15
 336              		.global	chThdCreateStatic
 337              		.thumb
 338              		.thumb_func
 339              		.type	chThdCreateStatic, %function
 340              	chThdCreateStatic:
 341              	.LFB10:
 342              		.loc 2 188 0
 343              		.cfi_startproc
 344              		@ args = 4, pretend = 0, frame = 24
 345              		@ frame_needed = 0, uses_anonymous_args = 0
 346 0000 00B5     		push	{lr}
 347              		.cfi_def_cfa_offset 4
 348              		.cfi_offset 14, -4
 349 0002 89B0     		sub	sp, sp, #36
 350              		.cfi_def_cfa_offset 40
 351 0004 0590     		str	r0, [sp, #20]
 352 0006 0491     		str	r1, [sp, #16]
 353 0008 0392     		str	r2, [sp, #12]
 354 000a 0293     		str	r3, [sp, #8]
 355              		.loc 2 192 0
 356 000c 059B     		ldr	r3, [sp, #20]
 357 000e 4C33     		adds	r3, r3, #76
 358 0010 0598     		ldr	r0, [sp, #20]
 359 0012 1946     		mov	r1, r3
 360 0014 FF22     		movs	r2, #255
 361 0016 FFF7FEFF 		bl	_thread_memfill
 362              		.loc 2 195 0
 363 001a 059B     		ldr	r3, [sp, #20]
 364 001c 03F14C01 		add	r1, r3, #76
 365 0020 059A     		ldr	r2, [sp, #20]
 366 0022 049B     		ldr	r3, [sp, #16]
 367 0024 1344     		add	r3, r3, r2
 368 0026 0846     		mov	r0, r1
 369 0028 1946     		mov	r1, r3
 370 002a 5522     		movs	r2, #85
 371 002c FFF7FEFF 		bl	_thread_memfill
 372              	.LBB2:
 373              		.loc 2 199 0
 374 0030 2023     		movs	r3, #32
 375              	@ 199 "/home/ergae/r2p-sdk/core/ChibiOS/os/kernel/src/chthreads.c" 1
 376 0032 83F31188 		msr     BASEPRI, r3
 377              	@ 0 "" 2
 378              		.thumb
 379              	.LBE2:
 380 0036 FFF7FEFF 		bl	dbg_check_lock
 381              		.loc 2 200 0
 382 003a 0A9B     		ldr	r3, [sp, #40]
 383 003c 0093     		str	r3, [sp]
 384 003e 0598     		ldr	r0, [sp, #20]
 385 0040 0499     		ldr	r1, [sp, #16]
 386 0042 039A     		ldr	r2, [sp, #12]
 387 0044 029B     		ldr	r3, [sp, #8]
 388 0046 FFF7FEFF 		bl	chThdCreateI
 389 004a 0790     		str	r0, [sp, #28]
ARM GAS  /tmp/ccmRrK3u.s 			page 8


 390 004c 0798     		ldr	r0, [sp, #28]
 391 004e 0021     		movs	r1, #0
 392 0050 FFF7FEFF 		bl	chSchWakeupS
 393              		.loc 2 201 0
 394 0054 FFF7FEFF 		bl	dbg_check_unlock
 395              	.LBB3:
 396 0058 0023     		movs	r3, #0
 397              	@ 201 "/home/ergae/r2p-sdk/core/ChibiOS/os/kernel/src/chthreads.c" 1
 398 005a 83F31188 		msr     BASEPRI, r3
 399              	@ 0 "" 2
 400              		.thumb
 401              	.LBE3:
 402              		.loc 2 202 0
 403 005e 079B     		ldr	r3, [sp, #28]
 404              		.loc 2 203 0
 405 0060 1846     		mov	r0, r3
 406 0062 09B0     		add	sp, sp, #36
 407              		.cfi_def_cfa_offset 4
 408              		@ sp needed
 409 0064 5DF804FB 		ldr	pc, [sp], #4
 410              		.cfi_endproc
 411              	.LFE10:
 412              		.size	chThdCreateStatic, .-chThdCreateStatic
 413 0068 AFF30080 		.section	.rodata
 413      AFF30080 
 414 0011 000000   		.align	2
 415              	.LC1:
 416 0014 22636854 		.ascii	"\"chThdSetPriority\"()\000"
 416      68645365 
 416      74507269 
 416      6F726974 
 416      79222829 
 417              		.section	.text.chThdSetPriority,"ax",%progbits
 418              		.align	2
 419              		.p2align 4,,15
 420              		.global	chThdSetPriority
 421              		.thumb
 422              		.thumb_func
 423              		.type	chThdSetPriority, %function
 424              	chThdSetPriority:
 425              	.LFB11:
 426              		.loc 2 217 0
 427              		.cfi_startproc
 428              		@ args = 0, pretend = 0, frame = 16
 429              		@ frame_needed = 0, uses_anonymous_args = 0
 430 0000 00B5     		push	{lr}
 431              		.cfi_def_cfa_offset 4
 432              		.cfi_offset 14, -4
 433 0002 85B0     		sub	sp, sp, #20
 434              		.cfi_def_cfa_offset 24
 435 0004 0190     		str	r0, [sp, #4]
 436              		.loc 2 220 0
 437 0006 019B     		ldr	r3, [sp, #4]
 438 0008 7F2B     		cmp	r3, #127
 439 000a 02D9     		bls	.L20
 440              		.loc 2 220 0 is_stmt 0 discriminator 1
 441 000c 1648     		ldr	r0, .L24
ARM GAS  /tmp/ccmRrK3u.s 			page 9


 442 000e FFF7FEFF 		bl	chDbgPanic
 443              	.L20:
 444              	.LBB4:
 445              		.loc 2 222 0 is_stmt 1
 446 0012 2023     		movs	r3, #32
 447              	@ 222 "/home/ergae/r2p-sdk/core/ChibiOS/os/kernel/src/chthreads.c" 1
 448 0014 83F31188 		msr     BASEPRI, r3
 449              	@ 0 "" 2
 450              		.thumb
 451              	.LBE4:
 452 0018 FFF7FEFF 		bl	dbg_check_lock
 453              		.loc 2 224 0
 454 001c 134B     		ldr	r3, .L24+4
 455 001e 9B69     		ldr	r3, [r3, #24]
 456 0020 5B6C     		ldr	r3, [r3, #68]
 457 0022 0393     		str	r3, [sp, #12]
 458              		.loc 2 225 0
 459 0024 114B     		ldr	r3, .L24+4
 460 0026 9B69     		ldr	r3, [r3, #24]
 461 0028 9A68     		ldr	r2, [r3, #8]
 462 002a 104B     		ldr	r3, .L24+4
 463 002c 9B69     		ldr	r3, [r3, #24]
 464 002e 5B6C     		ldr	r3, [r3, #68]
 465 0030 9A42     		cmp	r2, r3
 466 0032 05D0     		beq	.L21
 467              		.loc 2 225 0 is_stmt 0 discriminator 1
 468 0034 0D4B     		ldr	r3, .L24+4
 469 0036 9B69     		ldr	r3, [r3, #24]
 470 0038 9A68     		ldr	r2, [r3, #8]
 471 003a 019B     		ldr	r3, [sp, #4]
 472 003c 9A42     		cmp	r2, r3
 473 003e 03D2     		bcs	.L22
 474              	.L21:
 475              		.loc 2 226 0 is_stmt 1
 476 0040 0A4B     		ldr	r3, .L24+4
 477 0042 9B69     		ldr	r3, [r3, #24]
 478 0044 019A     		ldr	r2, [sp, #4]
 479 0046 9A60     		str	r2, [r3, #8]
 480              	.L22:
 481              		.loc 2 227 0
 482 0048 084B     		ldr	r3, .L24+4
 483 004a 9B69     		ldr	r3, [r3, #24]
 484 004c 019A     		ldr	r2, [sp, #4]
 485 004e 5A64     		str	r2, [r3, #68]
 486              		.loc 2 232 0
 487 0050 FFF7FEFF 		bl	chSchRescheduleS
 488              		.loc 2 233 0
 489 0054 FFF7FEFF 		bl	dbg_check_unlock
 490              	.LBB5:
 491 0058 0023     		movs	r3, #0
 492              	@ 233 "/home/ergae/r2p-sdk/core/ChibiOS/os/kernel/src/chthreads.c" 1
 493 005a 83F31188 		msr     BASEPRI, r3
 494              	@ 0 "" 2
 495              		.thumb
 496              	.LBE5:
 497              		.loc 2 234 0
 498 005e 039B     		ldr	r3, [sp, #12]
ARM GAS  /tmp/ccmRrK3u.s 			page 10


 499              		.loc 2 235 0
 500 0060 1846     		mov	r0, r3
 501 0062 05B0     		add	sp, sp, #20
 502              		.cfi_def_cfa_offset 4
 503              		@ sp needed
 504 0064 5DF804FB 		ldr	pc, [sp], #4
 505              	.L25:
 506              		.align	2
 507              	.L24:
 508 0068 14000000 		.word	.LC1
 509 006c 00000000 		.word	rlist
 510              		.cfi_endproc
 511              	.LFE11:
 512              		.size	chThdSetPriority, .-chThdSetPriority
 513              		.section	.rodata
 514 0029 000000   		.align	2
 515              	.LC2:
 516 002c 63685468 		.ascii	"chThdResume(), #1\000"
 516      64526573 
 516      756D6528 
 516      292C2023 
 516      3100
 517              		.section	.text.chThdResume,"ax",%progbits
 518              		.align	2
 519              		.p2align 4,,15
 520              		.global	chThdResume
 521              		.thumb
 522              		.thumb_func
 523              		.type	chThdResume, %function
 524              	chThdResume:
 525              	.LFB12:
 526              		.loc 2 250 0
 527              		.cfi_startproc
 528              		@ args = 0, pretend = 0, frame = 8
 529              		@ frame_needed = 0, uses_anonymous_args = 0
 530 0000 00B5     		push	{lr}
 531              		.cfi_def_cfa_offset 4
 532              		.cfi_offset 14, -4
 533 0002 83B0     		sub	sp, sp, #12
 534              		.cfi_def_cfa_offset 16
 535 0004 0190     		str	r0, [sp, #4]
 536              	.LBB6:
 537              		.loc 2 252 0
 538 0006 2023     		movs	r3, #32
 539              	@ 252 "/home/ergae/r2p-sdk/core/ChibiOS/os/kernel/src/chthreads.c" 1
 540 0008 83F31188 		msr     BASEPRI, r3
 541              	@ 0 "" 2
 542              		.thumb
 543              	.LBE6:
 544 000c FFF7FEFF 		bl	dbg_check_lock
 545              		.loc 2 253 0
 546 0010 019B     		ldr	r3, [sp, #4]
 547 0012 93F82030 		ldrb	r3, [r3, #32]	@ zero_extendqisi2
 548 0016 022B     		cmp	r3, #2
 549 0018 02D0     		beq	.L27
 550              		.loc 2 253 0 is_stmt 0 discriminator 1
 551 001a 0848     		ldr	r0, .L29
ARM GAS  /tmp/ccmRrK3u.s 			page 11


 552 001c FFF7FEFF 		bl	chDbgPanic
 553              	.L27:
 554              		.loc 2 256 0 is_stmt 1
 555 0020 0198     		ldr	r0, [sp, #4]
 556 0022 0021     		movs	r1, #0
 557 0024 FFF7FEFF 		bl	chSchWakeupS
 558              		.loc 2 257 0
 559 0028 FFF7FEFF 		bl	dbg_check_unlock
 560              	.LBB7:
 561 002c 0023     		movs	r3, #0
 562              	@ 257 "/home/ergae/r2p-sdk/core/ChibiOS/os/kernel/src/chthreads.c" 1
 563 002e 83F31188 		msr     BASEPRI, r3
 564              	@ 0 "" 2
 565              		.thumb
 566              	.LBE7:
 567              		.loc 2 258 0
 568 0032 019B     		ldr	r3, [sp, #4]
 569              		.loc 2 259 0
 570 0034 1846     		mov	r0, r3
 571 0036 03B0     		add	sp, sp, #12
 572              		.cfi_def_cfa_offset 4
 573              		@ sp needed
 574 0038 5DF804FB 		ldr	pc, [sp], #4
 575              	.L30:
 576              		.align	2
 577              	.L29:
 578 003c 2C000000 		.word	.LC2
 579              		.cfi_endproc
 580              	.LFE12:
 581              		.size	chThdResume, .-chThdResume
 582              		.section	.text.chThdTerminate,"ax",%progbits
 583              		.align	2
 584              		.p2align 4,,15
 585              		.global	chThdTerminate
 586              		.thumb
 587              		.thumb_func
 588              		.type	chThdTerminate, %function
 589              	chThdTerminate:
 590              	.LFB13:
 591              		.loc 2 273 0
 592              		.cfi_startproc
 593              		@ args = 0, pretend = 0, frame = 8
 594              		@ frame_needed = 0, uses_anonymous_args = 0
 595 0000 00B5     		push	{lr}
 596              		.cfi_def_cfa_offset 4
 597              		.cfi_offset 14, -4
 598 0002 83B0     		sub	sp, sp, #12
 599              		.cfi_def_cfa_offset 16
 600 0004 0190     		str	r0, [sp, #4]
 601              	.LBB8:
 602              		.loc 2 275 0
 603 0006 2023     		movs	r3, #32
 604              	@ 275 "/home/ergae/r2p-sdk/core/ChibiOS/os/kernel/src/chthreads.c" 1
 605 0008 83F31188 		msr     BASEPRI, r3
 606              	@ 0 "" 2
 607              		.thumb
 608              	.LBE8:
ARM GAS  /tmp/ccmRrK3u.s 			page 12


 609 000c FFF7FEFF 		bl	dbg_check_lock
 610              		.loc 2 276 0
 611 0010 019B     		ldr	r3, [sp, #4]
 612 0012 93F82130 		ldrb	r3, [r3, #33]	@ zero_extendqisi2
 613 0016 43F00403 		orr	r3, r3, #4
 614 001a DAB2     		uxtb	r2, r3
 615 001c 019B     		ldr	r3, [sp, #4]
 616 001e 83F82120 		strb	r2, [r3, #33]
 617              		.loc 2 277 0
 618 0022 FFF7FEFF 		bl	dbg_check_unlock
 619              	.LBB9:
 620 0026 0023     		movs	r3, #0
 621              	@ 277 "/home/ergae/r2p-sdk/core/ChibiOS/os/kernel/src/chthreads.c" 1
 622 0028 83F31188 		msr     BASEPRI, r3
 623              	@ 0 "" 2
 624              		.thumb
 625              	.LBE9:
 626              		.loc 2 278 0
 627 002c 03B0     		add	sp, sp, #12
 628              		.cfi_def_cfa_offset 4
 629              		@ sp needed
 630 002e 5DF804FB 		ldr	pc, [sp], #4
 631              		.cfi_endproc
 632              	.LFE13:
 633              		.size	chThdTerminate, .-chThdTerminate
 634 0032 00BFAFF3 		.section	.rodata
 634      0080AFF3 
 634      0080AFF3 
 634      0080
 635 003e 0000     		.align	2
 636              	.LC3:
 637 0040 22636854 		.ascii	"\"chThdSleep\"()\000"
 637      6864536C 
 637      65657022 
 637      282900
 638              		.section	.text.chThdSleep,"ax",%progbits
 639              		.align	2
 640              		.p2align 4,,15
 641              		.global	chThdSleep
 642              		.thumb
 643              		.thumb_func
 644              		.type	chThdSleep, %function
 645              	chThdSleep:
 646              	.LFB14:
 647              		.loc 2 292 0
 648              		.cfi_startproc
 649              		@ args = 0, pretend = 0, frame = 8
 650              		@ frame_needed = 0, uses_anonymous_args = 0
 651 0000 00B5     		push	{lr}
 652              		.cfi_def_cfa_offset 4
 653              		.cfi_offset 14, -4
 654 0002 83B0     		sub	sp, sp, #12
 655              		.cfi_def_cfa_offset 16
 656 0004 0190     		str	r0, [sp, #4]
 657              		.loc 2 294 0
 658 0006 019B     		ldr	r3, [sp, #4]
 659 0008 002B     		cmp	r3, #0
ARM GAS  /tmp/ccmRrK3u.s 			page 13


 660 000a 02D1     		bne	.L33
 661              		.loc 2 294 0 is_stmt 0 discriminator 1
 662 000c 0948     		ldr	r0, .L34
 663 000e FFF7FEFF 		bl	chDbgPanic
 664              	.L33:
 665              	.LBB10:
 666              		.loc 2 296 0 is_stmt 1
 667 0012 2023     		movs	r3, #32
 668              	@ 296 "/home/ergae/r2p-sdk/core/ChibiOS/os/kernel/src/chthreads.c" 1
 669 0014 83F31188 		msr     BASEPRI, r3
 670              	@ 0 "" 2
 671              		.thumb
 672              	.LBE10:
 673 0018 FFF7FEFF 		bl	dbg_check_lock
 674              		.loc 2 297 0
 675 001c 0620     		movs	r0, #6
 676 001e 0199     		ldr	r1, [sp, #4]
 677 0020 FFF7FEFF 		bl	chSchGoSleepTimeoutS
 678              		.loc 2 298 0
 679 0024 FFF7FEFF 		bl	dbg_check_unlock
 680              	.LBB11:
 681 0028 0023     		movs	r3, #0
 682              	@ 298 "/home/ergae/r2p-sdk/core/ChibiOS/os/kernel/src/chthreads.c" 1
 683 002a 83F31188 		msr     BASEPRI, r3
 684              	@ 0 "" 2
 685              		.thumb
 686              	.LBE11:
 687              		.loc 2 299 0
 688 002e 03B0     		add	sp, sp, #12
 689              		.cfi_def_cfa_offset 4
 690              		@ sp needed
 691 0030 5DF804FB 		ldr	pc, [sp], #4
 692              	.L35:
 693              		.align	2
 694              	.L34:
 695 0034 40000000 		.word	.LC3
 696              		.cfi_endproc
 697              	.LFE14:
 698              		.size	chThdSleep, .-chThdSleep
 699 0038 AFF30080 		.section	.text.chThdSleepUntil,"ax",%progbits
 699      AFF30080 
 700              		.align	2
 701              		.p2align 4,,15
 702              		.global	chThdSleepUntil
 703              		.thumb
 704              		.thumb_func
 705              		.type	chThdSleepUntil, %function
 706              	chThdSleepUntil:
 707              	.LFB15:
 708              		.loc 2 309 0
 709              		.cfi_startproc
 710              		@ args = 0, pretend = 0, frame = 8
 711              		@ frame_needed = 0, uses_anonymous_args = 0
 712 0000 00B5     		push	{lr}
 713              		.cfi_def_cfa_offset 4
 714              		.cfi_offset 14, -4
 715 0002 83B0     		sub	sp, sp, #12
ARM GAS  /tmp/ccmRrK3u.s 			page 14


 716              		.cfi_def_cfa_offset 16
 717 0004 0190     		str	r0, [sp, #4]
 718              	.LBB12:
 719              		.loc 2 311 0
 720 0006 2023     		movs	r3, #32
 721              	@ 311 "/home/ergae/r2p-sdk/core/ChibiOS/os/kernel/src/chthreads.c" 1
 722 0008 83F31188 		msr     BASEPRI, r3
 723              	@ 0 "" 2
 724              		.thumb
 725              	.LBE12:
 726 000c FFF7FEFF 		bl	dbg_check_lock
 727              		.loc 2 312 0
 728 0010 094B     		ldr	r3, .L38
 729 0012 DB68     		ldr	r3, [r3, #12]
 730 0014 019A     		ldr	r2, [sp, #4]
 731 0016 D31A     		subs	r3, r2, r3
 732 0018 0193     		str	r3, [sp, #4]
 733 001a 019B     		ldr	r3, [sp, #4]
 734 001c 002B     		cmp	r3, #0
 735 001e 03D0     		beq	.L37
 736              		.loc 2 313 0
 737 0020 0620     		movs	r0, #6
 738 0022 0199     		ldr	r1, [sp, #4]
 739 0024 FFF7FEFF 		bl	chSchGoSleepTimeoutS
 740              	.L37:
 741              		.loc 2 314 0
 742 0028 FFF7FEFF 		bl	dbg_check_unlock
 743              	.LBB13:
 744 002c 0023     		movs	r3, #0
 745              	@ 314 "/home/ergae/r2p-sdk/core/ChibiOS/os/kernel/src/chthreads.c" 1
 746 002e 83F31188 		msr     BASEPRI, r3
 747              	@ 0 "" 2
 748              		.thumb
 749              	.LBE13:
 750              		.loc 2 315 0
 751 0032 03B0     		add	sp, sp, #12
 752              		.cfi_def_cfa_offset 4
 753              		@ sp needed
 754 0034 5DF804FB 		ldr	pc, [sp], #4
 755              	.L39:
 756              		.align	2
 757              	.L38:
 758 0038 00000000 		.word	vtlist
 759              		.cfi_endproc
 760              	.LFE15:
 761              		.size	chThdSleepUntil, .-chThdSleepUntil
 762 003c AFF30080 		.section	.text.chThdYield,"ax",%progbits
 763              		.align	2
 764              		.p2align 4,,15
 765              		.global	chThdYield
 766              		.thumb
 767              		.thumb_func
 768              		.type	chThdYield, %function
 769              	chThdYield:
 770              	.LFB16:
 771              		.loc 2 324 0
 772              		.cfi_startproc
ARM GAS  /tmp/ccmRrK3u.s 			page 15


 773              		@ args = 0, pretend = 0, frame = 0
 774              		@ frame_needed = 0, uses_anonymous_args = 0
 775 0000 08B5     		push	{r3, lr}
 776              		.cfi_def_cfa_offset 8
 777              		.cfi_offset 3, -8
 778              		.cfi_offset 14, -4
 779              	.LBB14:
 780              		.loc 2 326 0
 781 0002 2023     		movs	r3, #32
 782              	@ 326 "/home/ergae/r2p-sdk/core/ChibiOS/os/kernel/src/chthreads.c" 1
 783 0004 83F31188 		msr     BASEPRI, r3
 784              	@ 0 "" 2
 785              		.thumb
 786              	.LBE14:
 787 0008 FFF7FEFF 		bl	dbg_check_lock
 788              		.loc 2 327 0
 789 000c 074B     		ldr	r3, .L42
 790 000e 1B68     		ldr	r3, [r3]
 791 0010 9A68     		ldr	r2, [r3, #8]
 792 0012 064B     		ldr	r3, .L42
 793 0014 9B69     		ldr	r3, [r3, #24]
 794 0016 9B68     		ldr	r3, [r3, #8]
 795 0018 9A42     		cmp	r2, r3
 796 001a 01D3     		bcc	.L41
 797              		.loc 2 327 0 is_stmt 0 discriminator 1
 798 001c FFF7FEFF 		bl	chSchDoRescheduleBehind
 799              	.L41:
 800              		.loc 2 328 0 is_stmt 1
 801 0020 FFF7FEFF 		bl	dbg_check_unlock
 802              	.LBB15:
 803 0024 0023     		movs	r3, #0
 804              	@ 328 "/home/ergae/r2p-sdk/core/ChibiOS/os/kernel/src/chthreads.c" 1
 805 0026 83F31188 		msr     BASEPRI, r3
 806              	@ 0 "" 2
 807              		.thumb
 808              	.LBE15:
 809              		.loc 2 329 0
 810 002a 08BD     		pop	{r3, pc}
 811              	.L43:
 812              		.align	2
 813              	.L42:
 814 002c 00000000 		.word	rlist
 815              		.cfi_endproc
 816              	.LFE16:
 817              		.size	chThdYield, .-chThdYield
 818              		.section	.text.chThdExit,"ax",%progbits
 819              		.align	2
 820              		.p2align 4,,15
 821              		.global	chThdExit
 822              		.thumb
 823              		.thumb_func
 824              		.type	chThdExit, %function
 825              	chThdExit:
 826              	.LFB17:
 827              		.loc 2 345 0
 828              		.cfi_startproc
 829              		@ args = 0, pretend = 0, frame = 8
ARM GAS  /tmp/ccmRrK3u.s 			page 16


 830              		@ frame_needed = 0, uses_anonymous_args = 0
 831 0000 00B5     		push	{lr}
 832              		.cfi_def_cfa_offset 4
 833              		.cfi_offset 14, -4
 834 0002 83B0     		sub	sp, sp, #12
 835              		.cfi_def_cfa_offset 16
 836 0004 0190     		str	r0, [sp, #4]
 837              	.LBB16:
 838              		.loc 2 347 0
 839 0006 2023     		movs	r3, #32
 840              	@ 347 "/home/ergae/r2p-sdk/core/ChibiOS/os/kernel/src/chthreads.c" 1
 841 0008 83F31188 		msr     BASEPRI, r3
 842              	@ 0 "" 2
 843              		.thumb
 844              	.LBE16:
 845 000c FFF7FEFF 		bl	dbg_check_lock
 846              		.loc 2 348 0
 847 0010 0198     		ldr	r0, [sp, #4]
 848 0012 FFF7FEFF 		bl	chThdExitS
 849              		.loc 2 350 0
 850 0016 03B0     		add	sp, sp, #12
 851              		.cfi_def_cfa_offset 4
 852              		@ sp needed
 853 0018 5DF804FB 		ldr	pc, [sp], #4
 854              		.cfi_endproc
 855              	.LFE17:
 856              		.size	chThdExit, .-chThdExit
 857 001c AFF30080 		.section	.rodata
 858 004f 00       		.align	2
 859              	.LC4:
 860 0050 63685468 		.ascii	"chThdExitS(), #1\000"
 860      64457869 
 860      74532829 
 860      2C202331 
 860      00
 861              		.section	.text.chThdExitS,"ax",%progbits
 862              		.align	2
 863              		.p2align 4,,15
 864              		.global	chThdExitS
 865              		.thumb
 866              		.thumb_func
 867              		.type	chThdExitS, %function
 868              	chThdExitS:
 869              	.LFB18:
 870              		.loc 2 366 0
 871              		.cfi_startproc
 872              		@ args = 0, pretend = 0, frame = 16
 873              		@ frame_needed = 0, uses_anonymous_args = 0
 874 0000 00B5     		push	{lr}
 875              		.cfi_def_cfa_offset 4
 876              		.cfi_offset 14, -4
 877 0002 85B0     		sub	sp, sp, #20
 878              		.cfi_def_cfa_offset 24
 879 0004 0190     		str	r0, [sp, #4]
 880              		.loc 2 367 0
 881 0006 184B     		ldr	r3, .L49
 882 0008 9B69     		ldr	r3, [r3, #24]
ARM GAS  /tmp/ccmRrK3u.s 			page 17


 883 000a 0393     		str	r3, [sp, #12]
 884              		.loc 2 369 0
 885 000c 039B     		ldr	r3, [sp, #12]
 886 000e 019A     		ldr	r2, [sp, #4]
 887 0010 9A62     		str	r2, [r3, #40]
 888              		.loc 2 374 0
 889 0012 08E0     		b	.L46
 890              	.L47:
 891              		.loc 2 375 0
 892 0014 039B     		ldr	r3, [sp, #12]
 893 0016 2C33     		adds	r3, r3, #44
 894 0018 1846     		mov	r0, r3
 895 001a FFF7FEFF 		bl	list_remove
 896 001e 0346     		mov	r3, r0
 897 0020 1846     		mov	r0, r3
 898 0022 FFF7FEFF 		bl	chSchReadyI
 899              	.L46:
 900              		.loc 2 374 0
 901 0026 039B     		ldr	r3, [sp, #12]
 902 0028 DA6A     		ldr	r2, [r3, #44]
 903 002a 039B     		ldr	r3, [sp, #12]
 904 002c 2C33     		adds	r3, r3, #44
 905 002e 9A42     		cmp	r2, r3
 906 0030 F0D1     		bne	.L47
 907              		.loc 2 380 0
 908 0032 039B     		ldr	r3, [sp, #12]
 909 0034 93F82130 		ldrb	r3, [r3, #33]	@ zero_extendqisi2
 910 0038 03F00303 		and	r3, r3, #3
 911 003c 002B     		cmp	r3, #0
 912 003e 09D1     		bne	.L48
 913              		.loc 2 381 0
 914 0040 039B     		ldr	r3, [sp, #12]
 915 0042 5B69     		ldr	r3, [r3, #20]
 916 0044 039A     		ldr	r2, [sp, #12]
 917 0046 1269     		ldr	r2, [r2, #16]
 918 0048 1A61     		str	r2, [r3, #16]
 919 004a 039B     		ldr	r3, [sp, #12]
 920 004c 1B69     		ldr	r3, [r3, #16]
 921 004e 039A     		ldr	r2, [sp, #12]
 922 0050 5269     		ldr	r2, [r2, #20]
 923 0052 5A61     		str	r2, [r3, #20]
 924              	.L48:
 925              		.loc 2 383 0
 926 0054 0E20     		movs	r0, #14
 927 0056 FFF7FEFF 		bl	chSchGoSleepS
 928              		.loc 2 385 0
 929 005a 0448     		ldr	r0, .L49+4
 930 005c FFF7FEFF 		bl	chDbgPanic
 931              		.loc 2 386 0
 932 0060 05B0     		add	sp, sp, #20
 933              		.cfi_def_cfa_offset 4
 934              		@ sp needed
 935 0062 5DF804FB 		ldr	pc, [sp], #4
 936              	.L50:
 937 0066 00BF     		.align	2
 938              	.L49:
 939 0068 00000000 		.word	rlist
ARM GAS  /tmp/ccmRrK3u.s 			page 18


 940 006c 50000000 		.word	.LC4
 941              		.cfi_endproc
 942              	.LFE18:
 943              		.size	chThdExitS, .-chThdExitS
 944              		.section	.rodata
 945 0061 000000   		.align	2
 946              	.LC5:
 947 0064 22636854 		.ascii	"\"chThdWait\"()\000"
 947      68645761 
 947      69742228 
 947      2900
 948 0072 0000     		.align	2
 949              	.LC6:
 950 0074 63685468 		.ascii	"chThdWait(), #1\000"
 950      64576169 
 950      7428292C 
 950      20233100 
 951              		.align	2
 952              	.LC7:
 953 0084 63685468 		.ascii	"chThdWait(), #2\000"
 953      64576169 
 953      7428292C 
 953      20233200 
 954              		.section	.text.chThdWait,"ax",%progbits
 955              		.align	2
 956              		.p2align 4,,15
 957              		.global	chThdWait
 958              		.thumb
 959              		.thumb_func
 960              		.type	chThdWait, %function
 961              	chThdWait:
 962              	.LFB19:
 963              		.loc 2 420 0
 964              		.cfi_startproc
 965              		@ args = 0, pretend = 0, frame = 16
 966              		@ frame_needed = 0, uses_anonymous_args = 0
 967 0000 00B5     		push	{lr}
 968              		.cfi_def_cfa_offset 4
 969              		.cfi_offset 14, -4
 970 0002 85B0     		sub	sp, sp, #20
 971              		.cfi_def_cfa_offset 24
 972 0004 0190     		str	r0, [sp, #4]
 973              		.loc 2 423 0
 974 0006 019B     		ldr	r3, [sp, #4]
 975 0008 002B     		cmp	r3, #0
 976 000a 02D1     		bne	.L52
 977              		.loc 2 423 0 is_stmt 0 discriminator 1
 978 000c 1B48     		ldr	r0, .L57
 979 000e FFF7FEFF 		bl	chDbgPanic
 980              	.L52:
 981              	.LBB17:
 982              		.loc 2 425 0 is_stmt 1
 983 0012 2023     		movs	r3, #32
 984              	@ 425 "/home/ergae/r2p-sdk/core/ChibiOS/os/kernel/src/chthreads.c" 1
 985 0014 83F31188 		msr     BASEPRI, r3
 986              	@ 0 "" 2
 987              		.thumb
ARM GAS  /tmp/ccmRrK3u.s 			page 19


 988              	.LBE17:
 989 0018 FFF7FEFF 		bl	dbg_check_lock
 990              		.loc 2 426 0
 991 001c 184B     		ldr	r3, .L57+4
 992 001e 9A69     		ldr	r2, [r3, #24]
 993 0020 019B     		ldr	r3, [sp, #4]
 994 0022 9A42     		cmp	r2, r3
 995 0024 02D1     		bne	.L53
 996              		.loc 2 426 0 is_stmt 0 discriminator 1
 997 0026 1748     		ldr	r0, .L57+8
 998 0028 FFF7FEFF 		bl	chDbgPanic
 999              	.L53:
 1000              		.loc 2 428 0 is_stmt 1
 1001 002c 019B     		ldr	r3, [sp, #4]
 1002 002e 93F82230 		ldrb	r3, [r3, #34]	@ zero_extendqisi2
 1003 0032 002B     		cmp	r3, #0
 1004 0034 02D1     		bne	.L54
 1005              		.loc 2 428 0 is_stmt 0 discriminator 1
 1006 0036 1448     		ldr	r0, .L57+12
 1007 0038 FFF7FEFF 		bl	chDbgPanic
 1008              	.L54:
 1009              		.loc 2 430 0 is_stmt 1
 1010 003c 019B     		ldr	r3, [sp, #4]
 1011 003e 93F82030 		ldrb	r3, [r3, #32]	@ zero_extendqisi2
 1012 0042 0E2B     		cmp	r3, #14
 1013 0044 0AD0     		beq	.L55
 1014              		.loc 2 431 0
 1015 0046 0E4B     		ldr	r3, .L57+4
 1016 0048 9A69     		ldr	r2, [r3, #24]
 1017 004a 019B     		ldr	r3, [sp, #4]
 1018 004c 2C33     		adds	r3, r3, #44
 1019 004e 1046     		mov	r0, r2
 1020 0050 1946     		mov	r1, r3
 1021 0052 FFF7FEFF 		bl	list_insert
 1022              		.loc 2 432 0
 1023 0056 0720     		movs	r0, #7
 1024 0058 FFF7FEFF 		bl	chSchGoSleepS
 1025              	.L55:
 1026              		.loc 2 434 0
 1027 005c 019B     		ldr	r3, [sp, #4]
 1028 005e 9B6A     		ldr	r3, [r3, #40]
 1029 0060 0393     		str	r3, [sp, #12]
 1030              		.loc 2 435 0
 1031 0062 FFF7FEFF 		bl	dbg_check_unlock
 1032              	.LBB18:
 1033 0066 0023     		movs	r3, #0
 1034              	@ 435 "/home/ergae/r2p-sdk/core/ChibiOS/os/kernel/src/chthreads.c" 1
 1035 0068 83F31188 		msr     BASEPRI, r3
 1036              	@ 0 "" 2
 1037              		.thumb
 1038              	.LBE18:
 1039              		.loc 2 437 0
 1040 006c 0198     		ldr	r0, [sp, #4]
 1041 006e FFF7FEFF 		bl	chThdRelease
 1042              		.loc 2 439 0
 1043 0072 039B     		ldr	r3, [sp, #12]
 1044              		.loc 2 440 0
ARM GAS  /tmp/ccmRrK3u.s 			page 20


 1045 0074 1846     		mov	r0, r3
 1046 0076 05B0     		add	sp, sp, #20
 1047              		.cfi_def_cfa_offset 4
 1048              		@ sp needed
 1049 0078 5DF804FB 		ldr	pc, [sp], #4
 1050              	.L58:
 1051              		.align	2
 1052              	.L57:
 1053 007c 64000000 		.word	.LC5
 1054 0080 00000000 		.word	rlist
 1055 0084 74000000 		.word	.LC6
 1056 0088 84000000 		.word	.LC7
 1057              		.cfi_endproc
 1058              	.LFE19:
 1059              		.size	chThdWait, .-chThdWait
 1060 008c AFF30080 		.text
 1061              	.Letext0:
 1062              		.file 3 "/home/ergae/r2p-sdk/tools/gcc-arm-none-eabi-4_9-2014q4/lib/gcc/arm-none-eabi/4.9.3/includ
 1063              		.file 4 "/home/ergae/r2p-sdk/tools/gcc-arm-none-eabi-4_9-2014q4/arm-none-eabi/include/machine/_def
 1064              		.file 5 "/home/ergae/r2p-sdk/tools/gcc-arm-none-eabi-4_9-2014q4/arm-none-eabi/include/stdint.h"
 1065              		.file 6 "/home/ergae/r2p-sdk/core/ChibiOS/os/ports/GCC/ARMCMx/chtypes.h"
 1066              		.file 7 "/home/ergae/r2p-sdk/core/ChibiOS/os/kernel/include/chlists.h"
 1067              		.file 8 "/home/ergae/r2p-sdk/core/ChibiOS/os/kernel/include/chthreads.h"
 1068              		.file 9 "/home/ergae/r2p-sdk/core/ChibiOS/os/ports/GCC/ARMCMx/chcore_v7m.h"
 1069              		.file 10 "/home/ergae/r2p-sdk/core/ChibiOS/os/kernel/include/chvt.h"
 1070              		.file 11 "/home/ergae/r2p-sdk/core/ChibiOS/os/kernel/include/chschd.h"
 1071              		.file 12 "/home/ergae/r2p-sdk/core/ChibiOS/os/kernel/include/chmtx.h"
 1072              		.section	.debug_info,"",%progbits
 1073              	.Ldebug_info0:
 1074 0000 E50A0000 		.4byte	0xae5
 1075 0004 0400     		.2byte	0x4
 1076 0006 00000000 		.4byte	.Ldebug_abbrev0
 1077 000a 04       		.byte	0x4
 1078 000b 01       		.uleb128 0x1
 1079 000c 10040000 		.4byte	.LASF103
 1080 0010 01       		.byte	0x1
 1081 0011 C9000000 		.4byte	.LASF104
 1082 0015 00000000 		.4byte	.Ldebug_ranges0+0
 1083 0019 00000000 		.4byte	0
 1084 001d 00000000 		.4byte	.Ldebug_line0
 1085 0021 02       		.uleb128 0x2
 1086 0022 04       		.byte	0x4
 1087 0023 05       		.byte	0x5
 1088 0024 696E7400 		.ascii	"int\000"
 1089 0028 03       		.uleb128 0x3
 1090 0029 0E000000 		.4byte	.LASF2
 1091 002d 03       		.byte	0x3
 1092 002e D4       		.byte	0xd4
 1093 002f 33000000 		.4byte	0x33
 1094 0033 04       		.uleb128 0x4
 1095 0034 04       		.byte	0x4
 1096 0035 07       		.byte	0x7
 1097 0036 45010000 		.4byte	.LASF0
 1098 003a 04       		.uleb128 0x4
 1099 003b 01       		.byte	0x1
 1100 003c 06       		.byte	0x6
 1101 003d 72000000 		.4byte	.LASF1
ARM GAS  /tmp/ccmRrK3u.s 			page 21


 1102 0041 03       		.uleb128 0x3
 1103 0042 2A000000 		.4byte	.LASF3
 1104 0046 04       		.byte	0x4
 1105 0047 1D       		.byte	0x1d
 1106 0048 4C000000 		.4byte	0x4c
 1107 004c 04       		.uleb128 0x4
 1108 004d 01       		.byte	0x1
 1109 004e 08       		.byte	0x8
 1110 004f C8020000 		.4byte	.LASF4
 1111 0053 04       		.uleb128 0x4
 1112 0054 02       		.byte	0x2
 1113 0055 05       		.byte	0x5
 1114 0056 E0020000 		.4byte	.LASF5
 1115 005a 04       		.uleb128 0x4
 1116 005b 02       		.byte	0x2
 1117 005c 07       		.byte	0x7
 1118 005d 8F010000 		.4byte	.LASF6
 1119 0061 03       		.uleb128 0x3
 1120 0062 7A030000 		.4byte	.LASF7
 1121 0066 04       		.byte	0x4
 1122 0067 3F       		.byte	0x3f
 1123 0068 6C000000 		.4byte	0x6c
 1124 006c 04       		.uleb128 0x4
 1125 006d 04       		.byte	0x4
 1126 006e 05       		.byte	0x5
 1127 006f AF000000 		.4byte	.LASF8
 1128 0073 03       		.uleb128 0x3
 1129 0074 0D010000 		.4byte	.LASF9
 1130 0078 04       		.byte	0x4
 1131 0079 41       		.byte	0x41
 1132 007a 7E000000 		.4byte	0x7e
 1133 007e 04       		.uleb128 0x4
 1134 007f 04       		.byte	0x4
 1135 0080 07       		.byte	0x7
 1136 0081 5A010000 		.4byte	.LASF10
 1137 0085 04       		.uleb128 0x4
 1138 0086 08       		.byte	0x8
 1139 0087 05       		.byte	0x5
 1140 0088 64000000 		.4byte	.LASF11
 1141 008c 03       		.uleb128 0x3
 1142 008d 8C020000 		.4byte	.LASF12
 1143 0091 04       		.byte	0x4
 1144 0092 5B       		.byte	0x5b
 1145 0093 97000000 		.4byte	0x97
 1146 0097 04       		.uleb128 0x4
 1147 0098 08       		.byte	0x8
 1148 0099 07       		.byte	0x7
 1149 009a 46000000 		.4byte	.LASF13
 1150 009e 03       		.uleb128 0x3
 1151 009f D5030000 		.4byte	.LASF14
 1152 00a3 05       		.byte	0x5
 1153 00a4 15       		.byte	0x15
 1154 00a5 41000000 		.4byte	0x41
 1155 00a9 03       		.uleb128 0x3
 1156 00aa C0020000 		.4byte	.LASF15
 1157 00ae 05       		.byte	0x5
 1158 00af 2C       		.byte	0x2c
ARM GAS  /tmp/ccmRrK3u.s 			page 22


 1159 00b0 61000000 		.4byte	0x61
 1160 00b4 03       		.uleb128 0x3
 1161 00b5 3B030000 		.4byte	.LASF16
 1162 00b9 05       		.byte	0x5
 1163 00ba 2D       		.byte	0x2d
 1164 00bb 73000000 		.4byte	0x73
 1165 00bf 03       		.uleb128 0x3
 1166 00c0 21000000 		.4byte	.LASF17
 1167 00c4 05       		.byte	0x5
 1168 00c5 39       		.byte	0x39
 1169 00c6 8C000000 		.4byte	0x8c
 1170 00ca 04       		.uleb128 0x4
 1171 00cb 01       		.byte	0x1
 1172 00cc 02       		.byte	0x2
 1173 00cd BA020000 		.4byte	.LASF18
 1174 00d1 03       		.uleb128 0x3
 1175 00d2 B8010000 		.4byte	.LASF19
 1176 00d6 06       		.byte	0x6
 1177 00d7 2C       		.byte	0x2c
 1178 00d8 9E000000 		.4byte	0x9e
 1179 00dc 03       		.uleb128 0x3
 1180 00dd B8000000 		.4byte	.LASF20
 1181 00e1 06       		.byte	0x6
 1182 00e2 2D       		.byte	0x2d
 1183 00e3 9E000000 		.4byte	0x9e
 1184 00e7 03       		.uleb128 0x3
 1185 00e8 A3020000 		.4byte	.LASF21
 1186 00ec 06       		.byte	0x6
 1187 00ed 2E       		.byte	0x2e
 1188 00ee 9E000000 		.4byte	0x9e
 1189 00f2 03       		.uleb128 0x3
 1190 00f3 98000000 		.4byte	.LASF22
 1191 00f7 06       		.byte	0x6
 1192 00f8 2F       		.byte	0x2f
 1193 00f9 9E000000 		.4byte	0x9e
 1194 00fd 03       		.uleb128 0x3
 1195 00fe B2020000 		.4byte	.LASF23
 1196 0102 06       		.byte	0x6
 1197 0103 30       		.byte	0x30
 1198 0104 B4000000 		.4byte	0xb4
 1199 0108 03       		.uleb128 0x3
 1200 0109 A2010000 		.4byte	.LASF24
 1201 010d 06       		.byte	0x6
 1202 010e 31       		.byte	0x31
 1203 010f A9000000 		.4byte	0xa9
 1204 0113 03       		.uleb128 0x3
 1205 0114 DB010000 		.4byte	.LASF25
 1206 0118 06       		.byte	0x6
 1207 0119 33       		.byte	0x33
 1208 011a B4000000 		.4byte	0xb4
 1209 011e 03       		.uleb128 0x3
 1210 011f 65030000 		.4byte	.LASF26
 1211 0123 06       		.byte	0x6
 1212 0124 35       		.byte	0x35
 1213 0125 B4000000 		.4byte	0xb4
 1214 0129 03       		.uleb128 0x3
 1215 012a 29030000 		.4byte	.LASF27
ARM GAS  /tmp/ccmRrK3u.s 			page 23


 1216 012e 07       		.byte	0x7
 1217 012f 2A       		.byte	0x2a
 1218 0130 34010000 		.4byte	0x134
 1219 0134 05       		.uleb128 0x5
 1220 0135 29030000 		.4byte	.LASF27
 1221 0139 4C       		.byte	0x4c
 1222 013a 08       		.byte	0x8
 1223 013b 5E       		.byte	0x5e
 1224 013c 3D020000 		.4byte	0x23d
 1225 0140 06       		.uleb128 0x6
 1226 0141 0A030000 		.4byte	.LASF28
 1227 0145 08       		.byte	0x8
 1228 0146 5F       		.byte	0x5f
 1229 0147 5E020000 		.4byte	0x25e
 1230 014b 00       		.byte	0
 1231 014c 06       		.uleb128 0x6
 1232 014d AB020000 		.4byte	.LASF29
 1233 0151 08       		.byte	0x8
 1234 0152 61       		.byte	0x61
 1235 0153 5E020000 		.4byte	0x25e
 1236 0157 04       		.byte	0x4
 1237 0158 06       		.uleb128 0x6
 1238 0159 5D000000 		.4byte	.LASF30
 1239 015d 08       		.byte	0x8
 1240 015e 63       		.byte	0x63
 1241 015f FD000000 		.4byte	0xfd
 1242 0163 08       		.byte	0x8
 1243 0164 06       		.uleb128 0x6
 1244 0165 29050000 		.4byte	.LASF31
 1245 0169 08       		.byte	0x8
 1246 016a 64       		.byte	0x64
 1247 016b F3030000 		.4byte	0x3f3
 1248 016f 0C       		.byte	0xc
 1249 0170 06       		.uleb128 0x6
 1250 0171 C1000000 		.4byte	.LASF32
 1251 0175 08       		.byte	0x8
 1252 0176 66       		.byte	0x66
 1253 0177 5E020000 		.4byte	0x25e
 1254 017b 10       		.byte	0x10
 1255 017c 06       		.uleb128 0x6
 1256 017d 3E020000 		.4byte	.LASF33
 1257 0181 08       		.byte	0x8
 1258 0182 67       		.byte	0x67
 1259 0183 5E020000 		.4byte	0x25e
 1260 0187 14       		.byte	0x14
 1261 0188 06       		.uleb128 0x6
 1262 0189 EF030000 		.4byte	.LASF34
 1263 018d 08       		.byte	0x8
 1264 018e 6E       		.byte	0x6e
 1265 018f AD050000 		.4byte	0x5ad
 1266 0193 18       		.byte	0x18
 1267 0194 06       		.uleb128 0x6
 1268 0195 3A010000 		.4byte	.LASF35
 1269 0199 08       		.byte	0x8
 1270 019a 74       		.byte	0x74
 1271 019b BF050000 		.4byte	0x5bf
 1272 019f 1C       		.byte	0x1c
ARM GAS  /tmp/ccmRrK3u.s 			page 24


 1273 01a0 06       		.uleb128 0x6
 1274 01a1 EA020000 		.4byte	.LASF36
 1275 01a5 08       		.byte	0x8
 1276 01a6 79       		.byte	0x79
 1277 01a7 DC000000 		.4byte	0xdc
 1278 01ab 20       		.byte	0x20
 1279 01ac 06       		.uleb128 0x6
 1280 01ad 11030000 		.4byte	.LASF37
 1281 01b1 08       		.byte	0x8
 1282 01b2 7D       		.byte	0x7d
 1283 01b3 D1000000 		.4byte	0xd1
 1284 01b7 21       		.byte	0x21
 1285 01b8 06       		.uleb128 0x6
 1286 01b9 BE030000 		.4byte	.LASF38
 1287 01bd 08       		.byte	0x8
 1288 01be 82       		.byte	0x82
 1289 01bf E7000000 		.4byte	0xe7
 1290 01c3 22       		.byte	0x22
 1291 01c4 06       		.uleb128 0x6
 1292 01c5 F2020000 		.4byte	.LASF39
 1293 01c9 08       		.byte	0x8
 1294 01ca 88       		.byte	0x88
 1295 01cb F2000000 		.4byte	0xf2
 1296 01cf 23       		.byte	0x23
 1297 01d0 06       		.uleb128 0x6
 1298 01d1 84030000 		.4byte	.LASF40
 1299 01d5 08       		.byte	0x8
 1300 01d6 8F       		.byte	0x8f
 1301 01d7 CA040000 		.4byte	0x4ca
 1302 01db 24       		.byte	0x24
 1303 01dc 07       		.uleb128 0x7
 1304 01dd 705F7500 		.ascii	"p_u\000"
 1305 01e1 08       		.byte	0x8
 1306 01e2 B4       		.byte	0xb4
 1307 01e3 78050000 		.4byte	0x578
 1308 01e7 28       		.byte	0x28
 1309 01e8 06       		.uleb128 0x6
 1310 01e9 2F050000 		.4byte	.LASF41
 1311 01ed 08       		.byte	0x8
 1312 01ee B9       		.byte	0xb9
 1313 01ef 84020000 		.4byte	0x284
 1314 01f3 2C       		.byte	0x2c
 1315 01f4 06       		.uleb128 0x6
 1316 01f5 92030000 		.4byte	.LASF42
 1317 01f9 08       		.byte	0x8
 1318 01fa BF       		.byte	0xbf
 1319 01fb 64020000 		.4byte	0x264
 1320 01ff 30       		.byte	0x30
 1321 0200 06       		.uleb128 0x6
 1322 0201 08000000 		.4byte	.LASF43
 1323 0205 08       		.byte	0x8
 1324 0206 C3       		.byte	0xc3
 1325 0207 08010000 		.4byte	0x108
 1326 020b 38       		.byte	0x38
 1327 020c 06       		.uleb128 0x6
 1328 020d 30030000 		.4byte	.LASF44
 1329 0211 08       		.byte	0x8
ARM GAS  /tmp/ccmRrK3u.s 			page 25


 1330 0212 C9       		.byte	0xc9
 1331 0213 13010000 		.4byte	0x113
 1332 0217 3C       		.byte	0x3c
 1333 0218 06       		.uleb128 0x6
 1334 0219 D6020000 		.4byte	.LASF45
 1335 021d 08       		.byte	0x8
 1336 021e D0       		.byte	0xd0
 1337 021f C5050000 		.4byte	0x5c5
 1338 0223 40       		.byte	0x40
 1339 0224 06       		.uleb128 0x6
 1340 0225 6F030000 		.4byte	.LASF46
 1341 0229 08       		.byte	0x8
 1342 022a D4       		.byte	0xd4
 1343 022b FD000000 		.4byte	0xfd
 1344 022f 44       		.byte	0x44
 1345 0230 06       		.uleb128 0x6
 1346 0231 88000000 		.4byte	.LASF47
 1347 0235 08       		.byte	0x8
 1348 0236 DA       		.byte	0xda
 1349 0237 9A020000 		.4byte	0x29a
 1350 023b 48       		.byte	0x48
 1351 023c 00       		.byte	0
 1352 023d 08       		.uleb128 0x8
 1353 023e 08       		.byte	0x8
 1354 023f 07       		.byte	0x7
 1355 0240 61       		.byte	0x61
 1356 0241 5E020000 		.4byte	0x25e
 1357 0245 06       		.uleb128 0x6
 1358 0246 0A030000 		.4byte	.LASF28
 1359 024a 07       		.byte	0x7
 1360 024b 62       		.byte	0x62
 1361 024c 5E020000 		.4byte	0x25e
 1362 0250 00       		.byte	0
 1363 0251 06       		.uleb128 0x6
 1364 0252 AB020000 		.4byte	.LASF29
 1365 0256 07       		.byte	0x7
 1366 0257 64       		.byte	0x64
 1367 0258 5E020000 		.4byte	0x25e
 1368 025c 04       		.byte	0x4
 1369 025d 00       		.byte	0
 1370 025e 09       		.uleb128 0x9
 1371 025f 04       		.byte	0x4
 1372 0260 29010000 		.4byte	0x129
 1373 0264 03       		.uleb128 0x3
 1374 0265 4C020000 		.4byte	.LASF48
 1375 0269 07       		.byte	0x7
 1376 026a 66       		.byte	0x66
 1377 026b 3D020000 		.4byte	0x23d
 1378 026f 08       		.uleb128 0x8
 1379 0270 04       		.byte	0x4
 1380 0271 07       		.byte	0x7
 1381 0272 6B       		.byte	0x6b
 1382 0273 84020000 		.4byte	0x284
 1383 0277 06       		.uleb128 0x6
 1384 0278 0A030000 		.4byte	.LASF28
 1385 027c 07       		.byte	0x7
 1386 027d 6D       		.byte	0x6d
ARM GAS  /tmp/ccmRrK3u.s 			page 26


 1387 027e 5E020000 		.4byte	0x25e
 1388 0282 00       		.byte	0
 1389 0283 00       		.byte	0
 1390 0284 03       		.uleb128 0x3
 1391 0285 CF010000 		.4byte	.LASF49
 1392 0289 07       		.byte	0x7
 1393 028a 70       		.byte	0x70
 1394 028b 6F020000 		.4byte	0x26f
 1395 028f 03       		.uleb128 0x3
 1396 0290 18010000 		.4byte	.LASF50
 1397 0294 09       		.byte	0x9
 1398 0295 E5       		.byte	0xe5
 1399 0296 9A020000 		.4byte	0x29a
 1400 029a 0A       		.uleb128 0xa
 1401 029b 04       		.byte	0x4
 1402 029c 03       		.uleb128 0x3
 1403 029d F5010000 		.4byte	.LASF51
 1404 02a1 09       		.byte	0x9
 1405 02a2 EB       		.byte	0xeb
 1406 02a3 BF000000 		.4byte	0xbf
 1407 02a7 0B       		.uleb128 0xb
 1408 02a8 8B030000 		.4byte	.LASF52
 1409 02ac 64       		.byte	0x64
 1410 02ad 09       		.byte	0x9
 1411 02ae 0C01     		.2byte	0x10c
 1412 02b0 F3030000 		.4byte	0x3f3
 1413 02b4 0C       		.uleb128 0xc
 1414 02b5 73313600 		.ascii	"s16\000"
 1415 02b9 09       		.byte	0x9
 1416 02ba 0E01     		.2byte	0x10e
 1417 02bc 8F020000 		.4byte	0x28f
 1418 02c0 00       		.byte	0
 1419 02c1 0C       		.uleb128 0xc
 1420 02c2 73313700 		.ascii	"s17\000"
 1421 02c6 09       		.byte	0x9
 1422 02c7 0F01     		.2byte	0x10f
 1423 02c9 8F020000 		.4byte	0x28f
 1424 02cd 04       		.byte	0x4
 1425 02ce 0C       		.uleb128 0xc
 1426 02cf 73313800 		.ascii	"s18\000"
 1427 02d3 09       		.byte	0x9
 1428 02d4 1001     		.2byte	0x110
 1429 02d6 8F020000 		.4byte	0x28f
 1430 02da 08       		.byte	0x8
 1431 02db 0C       		.uleb128 0xc
 1432 02dc 73313900 		.ascii	"s19\000"
 1433 02e0 09       		.byte	0x9
 1434 02e1 1101     		.2byte	0x111
 1435 02e3 8F020000 		.4byte	0x28f
 1436 02e7 0C       		.byte	0xc
 1437 02e8 0C       		.uleb128 0xc
 1438 02e9 73323000 		.ascii	"s20\000"
 1439 02ed 09       		.byte	0x9
 1440 02ee 1201     		.2byte	0x112
 1441 02f0 8F020000 		.4byte	0x28f
 1442 02f4 10       		.byte	0x10
 1443 02f5 0C       		.uleb128 0xc
ARM GAS  /tmp/ccmRrK3u.s 			page 27


 1444 02f6 73323100 		.ascii	"s21\000"
 1445 02fa 09       		.byte	0x9
 1446 02fb 1301     		.2byte	0x113
 1447 02fd 8F020000 		.4byte	0x28f
 1448 0301 14       		.byte	0x14
 1449 0302 0C       		.uleb128 0xc
 1450 0303 73323200 		.ascii	"s22\000"
 1451 0307 09       		.byte	0x9
 1452 0308 1401     		.2byte	0x114
 1453 030a 8F020000 		.4byte	0x28f
 1454 030e 18       		.byte	0x18
 1455 030f 0C       		.uleb128 0xc
 1456 0310 73323300 		.ascii	"s23\000"
 1457 0314 09       		.byte	0x9
 1458 0315 1501     		.2byte	0x115
 1459 0317 8F020000 		.4byte	0x28f
 1460 031b 1C       		.byte	0x1c
 1461 031c 0C       		.uleb128 0xc
 1462 031d 73323400 		.ascii	"s24\000"
 1463 0321 09       		.byte	0x9
 1464 0322 1601     		.2byte	0x116
 1465 0324 8F020000 		.4byte	0x28f
 1466 0328 20       		.byte	0x20
 1467 0329 0C       		.uleb128 0xc
 1468 032a 73323500 		.ascii	"s25\000"
 1469 032e 09       		.byte	0x9
 1470 032f 1701     		.2byte	0x117
 1471 0331 8F020000 		.4byte	0x28f
 1472 0335 24       		.byte	0x24
 1473 0336 0C       		.uleb128 0xc
 1474 0337 73323600 		.ascii	"s26\000"
 1475 033b 09       		.byte	0x9
 1476 033c 1801     		.2byte	0x118
 1477 033e 8F020000 		.4byte	0x28f
 1478 0342 28       		.byte	0x28
 1479 0343 0C       		.uleb128 0xc
 1480 0344 73323700 		.ascii	"s27\000"
 1481 0348 09       		.byte	0x9
 1482 0349 1901     		.2byte	0x119
 1483 034b 8F020000 		.4byte	0x28f
 1484 034f 2C       		.byte	0x2c
 1485 0350 0C       		.uleb128 0xc
 1486 0351 73323800 		.ascii	"s28\000"
 1487 0355 09       		.byte	0x9
 1488 0356 1A01     		.2byte	0x11a
 1489 0358 8F020000 		.4byte	0x28f
 1490 035c 30       		.byte	0x30
 1491 035d 0C       		.uleb128 0xc
 1492 035e 73323900 		.ascii	"s29\000"
 1493 0362 09       		.byte	0x9
 1494 0363 1B01     		.2byte	0x11b
 1495 0365 8F020000 		.4byte	0x28f
 1496 0369 34       		.byte	0x34
 1497 036a 0C       		.uleb128 0xc
 1498 036b 73333000 		.ascii	"s30\000"
 1499 036f 09       		.byte	0x9
 1500 0370 1C01     		.2byte	0x11c
ARM GAS  /tmp/ccmRrK3u.s 			page 28


 1501 0372 8F020000 		.4byte	0x28f
 1502 0376 38       		.byte	0x38
 1503 0377 0C       		.uleb128 0xc
 1504 0378 73333100 		.ascii	"s31\000"
 1505 037c 09       		.byte	0x9
 1506 037d 1D01     		.2byte	0x11d
 1507 037f 8F020000 		.4byte	0x28f
 1508 0383 3C       		.byte	0x3c
 1509 0384 0C       		.uleb128 0xc
 1510 0385 723400   		.ascii	"r4\000"
 1511 0388 09       		.byte	0x9
 1512 0389 1F01     		.2byte	0x11f
 1513 038b 8F020000 		.4byte	0x28f
 1514 038f 40       		.byte	0x40
 1515 0390 0C       		.uleb128 0xc
 1516 0391 723500   		.ascii	"r5\000"
 1517 0394 09       		.byte	0x9
 1518 0395 2001     		.2byte	0x120
 1519 0397 8F020000 		.4byte	0x28f
 1520 039b 44       		.byte	0x44
 1521 039c 0C       		.uleb128 0xc
 1522 039d 723600   		.ascii	"r6\000"
 1523 03a0 09       		.byte	0x9
 1524 03a1 2101     		.2byte	0x121
 1525 03a3 8F020000 		.4byte	0x28f
 1526 03a7 48       		.byte	0x48
 1527 03a8 0C       		.uleb128 0xc
 1528 03a9 723700   		.ascii	"r7\000"
 1529 03ac 09       		.byte	0x9
 1530 03ad 2201     		.2byte	0x122
 1531 03af 8F020000 		.4byte	0x28f
 1532 03b3 4C       		.byte	0x4c
 1533 03b4 0C       		.uleb128 0xc
 1534 03b5 723800   		.ascii	"r8\000"
 1535 03b8 09       		.byte	0x9
 1536 03b9 2301     		.2byte	0x123
 1537 03bb 8F020000 		.4byte	0x28f
 1538 03bf 50       		.byte	0x50
 1539 03c0 0C       		.uleb128 0xc
 1540 03c1 723900   		.ascii	"r9\000"
 1541 03c4 09       		.byte	0x9
 1542 03c5 2401     		.2byte	0x124
 1543 03c7 8F020000 		.4byte	0x28f
 1544 03cb 54       		.byte	0x54
 1545 03cc 0C       		.uleb128 0xc
 1546 03cd 72313000 		.ascii	"r10\000"
 1547 03d1 09       		.byte	0x9
 1548 03d2 2501     		.2byte	0x125
 1549 03d4 8F020000 		.4byte	0x28f
 1550 03d8 58       		.byte	0x58
 1551 03d9 0C       		.uleb128 0xc
 1552 03da 72313100 		.ascii	"r11\000"
 1553 03de 09       		.byte	0x9
 1554 03df 2601     		.2byte	0x126
 1555 03e1 8F020000 		.4byte	0x28f
 1556 03e5 5C       		.byte	0x5c
 1557 03e6 0C       		.uleb128 0xc
ARM GAS  /tmp/ccmRrK3u.s 			page 29


 1558 03e7 6C7200   		.ascii	"lr\000"
 1559 03ea 09       		.byte	0x9
 1560 03eb 2701     		.2byte	0x127
 1561 03ed 8F020000 		.4byte	0x28f
 1562 03f1 60       		.byte	0x60
 1563 03f2 00       		.byte	0
 1564 03f3 0B       		.uleb128 0xb
 1565 03f4 82010000 		.4byte	.LASF53
 1566 03f8 04       		.byte	0x4
 1567 03f9 09       		.byte	0x9
 1568 03fa 3101     		.2byte	0x131
 1569 03fc 0E040000 		.4byte	0x40e
 1570 0400 0C       		.uleb128 0xc
 1571 0401 72313300 		.ascii	"r13\000"
 1572 0405 09       		.byte	0x9
 1573 0406 3201     		.2byte	0x132
 1574 0408 0E040000 		.4byte	0x40e
 1575 040c 00       		.byte	0
 1576 040d 00       		.byte	0
 1577 040e 09       		.uleb128 0x9
 1578 040f 04       		.byte	0x4
 1579 0410 A7020000 		.4byte	0x2a7
 1580 0414 04       		.uleb128 0x4
 1581 0415 04       		.byte	0x4
 1582 0416 07       		.byte	0x7
 1583 0417 1A020000 		.4byte	.LASF54
 1584 041b 03       		.uleb128 0x3
 1585 041c 6C010000 		.4byte	.LASF55
 1586 0420 0A       		.byte	0xa
 1587 0421 58       		.byte	0x58
 1588 0422 26040000 		.4byte	0x426
 1589 0426 09       		.uleb128 0x9
 1590 0427 04       		.byte	0x4
 1591 0428 2C040000 		.4byte	0x42c
 1592 042c 0D       		.uleb128 0xd
 1593 042d 37040000 		.4byte	0x437
 1594 0431 0E       		.uleb128 0xe
 1595 0432 9A020000 		.4byte	0x29a
 1596 0436 00       		.byte	0
 1597 0437 03       		.uleb128 0x3
 1598 0438 75010000 		.4byte	.LASF56
 1599 043c 0A       		.byte	0xa
 1600 043d 5D       		.byte	0x5d
 1601 043e 42040000 		.4byte	0x442
 1602 0442 05       		.uleb128 0x5
 1603 0443 75010000 		.4byte	.LASF56
 1604 0447 14       		.byte	0x14
 1605 0448 0A       		.byte	0xa
 1606 0449 64       		.byte	0x64
 1607 044a 8B040000 		.4byte	0x48b
 1608 044e 06       		.uleb128 0x6
 1609 044f 52010000 		.4byte	.LASF57
 1610 0453 0A       		.byte	0xa
 1611 0454 65       		.byte	0x65
 1612 0455 8B040000 		.4byte	0x48b
 1613 0459 00       		.byte	0
 1614 045a 06       		.uleb128 0x6
ARM GAS  /tmp/ccmRrK3u.s 			page 30


 1615 045b 21010000 		.4byte	.LASF58
 1616 045f 0A       		.byte	0xa
 1617 0460 67       		.byte	0x67
 1618 0461 8B040000 		.4byte	0x48b
 1619 0465 04       		.byte	0x4
 1620 0466 06       		.uleb128 0x6
 1621 0467 12020000 		.4byte	.LASF59
 1622 046b 0A       		.byte	0xa
 1623 046c 69       		.byte	0x69
 1624 046d 1E010000 		.4byte	0x11e
 1625 0471 08       		.byte	0x8
 1626 0472 06       		.uleb128 0x6
 1627 0473 23020000 		.4byte	.LASF60
 1628 0477 0A       		.byte	0xa
 1629 0478 6A       		.byte	0x6a
 1630 0479 1B040000 		.4byte	0x41b
 1631 047d 0C       		.byte	0xc
 1632 047e 06       		.uleb128 0x6
 1633 047f AC030000 		.4byte	.LASF61
 1634 0483 0A       		.byte	0xa
 1635 0484 6C       		.byte	0x6c
 1636 0485 9A020000 		.4byte	0x29a
 1637 0489 10       		.byte	0x10
 1638 048a 00       		.byte	0
 1639 048b 09       		.uleb128 0x9
 1640 048c 04       		.byte	0x4
 1641 048d 37040000 		.4byte	0x437
 1642 0491 08       		.uleb128 0x8
 1643 0492 10       		.byte	0x10
 1644 0493 0A       		.byte	0xa
 1645 0494 76       		.byte	0x76
 1646 0495 CA040000 		.4byte	0x4ca
 1647 0499 06       		.uleb128 0x6
 1648 049a 52010000 		.4byte	.LASF57
 1649 049e 0A       		.byte	0xa
 1650 049f 77       		.byte	0x77
 1651 04a0 8B040000 		.4byte	0x48b
 1652 04a4 00       		.byte	0
 1653 04a5 06       		.uleb128 0x6
 1654 04a6 21010000 		.4byte	.LASF58
 1655 04aa 0A       		.byte	0xa
 1656 04ab 79       		.byte	0x79
 1657 04ac 8B040000 		.4byte	0x48b
 1658 04b0 04       		.byte	0x4
 1659 04b1 06       		.uleb128 0x6
 1660 04b2 12020000 		.4byte	.LASF59
 1661 04b6 0A       		.byte	0xa
 1662 04b7 7B       		.byte	0x7b
 1663 04b8 1E010000 		.4byte	0x11e
 1664 04bc 08       		.byte	0x8
 1665 04bd 06       		.uleb128 0x6
 1666 04be F6030000 		.4byte	.LASF62
 1667 04c2 0A       		.byte	0xa
 1668 04c3 7C       		.byte	0x7c
 1669 04c4 CA040000 		.4byte	0x4ca
 1670 04c8 0C       		.byte	0xc
 1671 04c9 00       		.byte	0
ARM GAS  /tmp/ccmRrK3u.s 			page 31


 1672 04ca 0F       		.uleb128 0xf
 1673 04cb 1E010000 		.4byte	0x11e
 1674 04cf 03       		.uleb128 0x3
 1675 04d0 01040000 		.4byte	.LASF63
 1676 04d4 0A       		.byte	0xa
 1677 04d5 7D       		.byte	0x7d
 1678 04d6 91040000 		.4byte	0x491
 1679 04da 08       		.uleb128 0x8
 1680 04db 1C       		.byte	0x1c
 1681 04dc 0B       		.byte	0xb
 1682 04dd 5E       		.byte	0x5e
 1683 04de 2B050000 		.4byte	0x52b
 1684 04e2 06       		.uleb128 0x6
 1685 04e3 51030000 		.4byte	.LASF64
 1686 04e7 0B       		.byte	0xb
 1687 04e8 5F       		.byte	0x5f
 1688 04e9 64020000 		.4byte	0x264
 1689 04ed 00       		.byte	0
 1690 04ee 06       		.uleb128 0x6
 1691 04ef FC020000 		.4byte	.LASF65
 1692 04f3 0B       		.byte	0xb
 1693 04f4 60       		.byte	0x60
 1694 04f5 FD000000 		.4byte	0xfd
 1695 04f9 08       		.byte	0x8
 1696 04fa 06       		.uleb128 0x6
 1697 04fb 46020000 		.4byte	.LASF66
 1698 04ff 0B       		.byte	0xb
 1699 0500 62       		.byte	0x62
 1700 0501 F3030000 		.4byte	0x3f3
 1701 0505 0C       		.byte	0xc
 1702 0506 06       		.uleb128 0x6
 1703 0507 A8010000 		.4byte	.LASF67
 1704 050b 0B       		.byte	0xb
 1705 050c 65       		.byte	0x65
 1706 050d 5E020000 		.4byte	0x25e
 1707 0511 10       		.byte	0x10
 1708 0512 06       		.uleb128 0x6
 1709 0513 74020000 		.4byte	.LASF68
 1710 0517 0B       		.byte	0xb
 1711 0518 66       		.byte	0x66
 1712 0519 5E020000 		.4byte	0x25e
 1713 051d 14       		.byte	0x14
 1714 051e 06       		.uleb128 0x6
 1715 051f 6A020000 		.4byte	.LASF69
 1716 0523 0B       		.byte	0xb
 1717 0524 69       		.byte	0x69
 1718 0525 5E020000 		.4byte	0x25e
 1719 0529 18       		.byte	0x18
 1720 052a 00       		.byte	0
 1721 052b 03       		.uleb128 0x3
 1722 052c C5030000 		.4byte	.LASF70
 1723 0530 0B       		.byte	0xb
 1724 0531 6B       		.byte	0x6b
 1725 0532 DA040000 		.4byte	0x4da
 1726 0536 05       		.uleb128 0x5
 1727 0537 E7010000 		.4byte	.LASF71
 1728 053b 10       		.byte	0x10
ARM GAS  /tmp/ccmRrK3u.s 			page 32


 1729 053c 0C       		.byte	0xc
 1730 053d 2C       		.byte	0x2c
 1731 053e 67050000 		.4byte	0x567
 1732 0542 06       		.uleb128 0x6
 1733 0543 90000000 		.4byte	.LASF72
 1734 0547 0C       		.byte	0xc
 1735 0548 2D       		.byte	0x2d
 1736 0549 64020000 		.4byte	0x264
 1737 054d 00       		.byte	0
 1738 054e 06       		.uleb128 0x6
 1739 054f 08040000 		.4byte	.LASF73
 1740 0553 0C       		.byte	0xc
 1741 0554 2F       		.byte	0x2f
 1742 0555 5E020000 		.4byte	0x25e
 1743 0559 08       		.byte	0x8
 1744 055a 06       		.uleb128 0x6
 1745 055b 5E030000 		.4byte	.LASF74
 1746 055f 0C       		.byte	0xc
 1747 0560 31       		.byte	0x31
 1748 0561 67050000 		.4byte	0x567
 1749 0565 0C       		.byte	0xc
 1750 0566 00       		.byte	0
 1751 0567 09       		.uleb128 0x9
 1752 0568 04       		.byte	0x4
 1753 0569 36050000 		.4byte	0x536
 1754 056d 03       		.uleb128 0x3
 1755 056e E7010000 		.4byte	.LASF71
 1756 0572 0C       		.byte	0xc
 1757 0573 33       		.byte	0x33
 1758 0574 36050000 		.4byte	0x536
 1759 0578 10       		.uleb128 0x10
 1760 0579 04       		.byte	0x4
 1761 057a 08       		.byte	0x8
 1762 057b 96       		.byte	0x96
 1763 057c AD050000 		.4byte	0x5ad
 1764 0580 11       		.uleb128 0x11
 1765 0581 1A000000 		.4byte	.LASF75
 1766 0585 08       		.byte	0x8
 1767 0586 9D       		.byte	0x9d
 1768 0587 08010000 		.4byte	0x108
 1769 058b 11       		.uleb128 0x11
 1770 058c 04010000 		.4byte	.LASF76
 1771 0590 08       		.byte	0x8
 1772 0591 A4       		.byte	0xa4
 1773 0592 08010000 		.4byte	0x108
 1774 0596 11       		.uleb128 0x11
 1775 0597 E8030000 		.4byte	.LASF77
 1776 059b 08       		.byte	0x8
 1777 059c AB       		.byte	0xab
 1778 059d 9A020000 		.4byte	0x29a
 1779 05a1 11       		.uleb128 0x11
 1780 05a2 03030000 		.4byte	.LASF78
 1781 05a6 08       		.byte	0x8
 1782 05a7 B2       		.byte	0xb2
 1783 05a8 13010000 		.4byte	0x113
 1784 05ac 00       		.byte	0
 1785 05ad 09       		.uleb128 0x9
ARM GAS  /tmp/ccmRrK3u.s 			page 33


 1786 05ae 04       		.byte	0x4
 1787 05af B3050000 		.4byte	0x5b3
 1788 05b3 12       		.uleb128 0x12
 1789 05b4 B8050000 		.4byte	0x5b8
 1790 05b8 04       		.uleb128 0x4
 1791 05b9 01       		.byte	0x1
 1792 05ba 08       		.byte	0x8
 1793 05bb 59030000 		.4byte	.LASF79
 1794 05bf 09       		.uleb128 0x9
 1795 05c0 04       		.byte	0x4
 1796 05c1 9C020000 		.4byte	0x29c
 1797 05c5 09       		.uleb128 0x9
 1798 05c6 04       		.byte	0x4
 1799 05c7 6D050000 		.4byte	0x56d
 1800 05cb 03       		.uleb128 0x3
 1801 05cc 00000000 		.4byte	.LASF80
 1802 05d0 08       		.byte	0x8
 1803 05d1 E5       		.byte	0xe5
 1804 05d2 D6050000 		.4byte	0x5d6
 1805 05d6 09       		.uleb128 0x9
 1806 05d7 04       		.byte	0x4
 1807 05d8 DC050000 		.4byte	0x5dc
 1808 05dc 13       		.uleb128 0x13
 1809 05dd 08010000 		.4byte	0x108
 1810 05e1 EB050000 		.4byte	0x5eb
 1811 05e5 0E       		.uleb128 0xe
 1812 05e6 9A020000 		.4byte	0x29a
 1813 05ea 00       		.byte	0
 1814 05eb 09       		.uleb128 0x9
 1815 05ec 04       		.byte	0x4
 1816 05ed 9E000000 		.4byte	0x9e
 1817 05f1 14       		.uleb128 0x14
 1818 05f2 5E020000 		.4byte	.LASF105
 1819 05f6 01       		.byte	0x1
 1820 05f7 50       		.byte	0x50
 1821 05f8 00000000 		.4byte	.LFB5
 1822 05fc 18000000 		.4byte	.LFE5-.LFB5
 1823 0600 01       		.uleb128 0x1
 1824 0601 9C       		.byte	0x9c
 1825 0602 22060000 		.4byte	0x622
 1826 0606 15       		.uleb128 0x15
 1827 0607 747000   		.ascii	"tp\000"
 1828 060a 01       		.byte	0x1
 1829 060b 50       		.byte	0x50
 1830 060c 5E020000 		.4byte	0x25e
 1831 0610 02       		.uleb128 0x2
 1832 0611 91       		.byte	0x91
 1833 0612 7C       		.sleb128 -4
 1834 0613 15       		.uleb128 0x15
 1835 0614 746C7000 		.ascii	"tlp\000"
 1836 0618 01       		.byte	0x1
 1837 0619 50       		.byte	0x50
 1838 061a 22060000 		.4byte	0x622
 1839 061e 02       		.uleb128 0x2
 1840 061f 91       		.byte	0x91
 1841 0620 78       		.sleb128 -8
 1842 0621 00       		.byte	0
ARM GAS  /tmp/ccmRrK3u.s 			page 34


 1843 0622 09       		.uleb128 0x9
 1844 0623 04       		.byte	0x4
 1845 0624 84020000 		.4byte	0x284
 1846 0628 16       		.uleb128 0x16
 1847 0629 97020000 		.4byte	.LASF106
 1848 062d 01       		.byte	0x1
 1849 062e 56       		.byte	0x56
 1850 062f 5E020000 		.4byte	0x25e
 1851 0633 00000000 		.4byte	.LFB6
 1852 0637 1A000000 		.4byte	.LFE6-.LFB6
 1853 063b 01       		.uleb128 0x1
 1854 063c 9C       		.byte	0x9c
 1855 063d 5D060000 		.4byte	0x65d
 1856 0641 15       		.uleb128 0x15
 1857 0642 746C7000 		.ascii	"tlp\000"
 1858 0646 01       		.byte	0x1
 1859 0647 56       		.byte	0x56
 1860 0648 22060000 		.4byte	0x622
 1861 064c 02       		.uleb128 0x2
 1862 064d 91       		.byte	0x91
 1863 064e 74       		.sleb128 -12
 1864 064f 17       		.uleb128 0x17
 1865 0650 747000   		.ascii	"tp\000"
 1866 0653 01       		.byte	0x1
 1867 0654 58       		.byte	0x58
 1868 0655 5E020000 		.4byte	0x25e
 1869 0659 02       		.uleb128 0x2
 1870 065a 91       		.byte	0x91
 1871 065b 7C       		.sleb128 -4
 1872 065c 00       		.byte	0
 1873 065d 18       		.uleb128 0x18
 1874 065e 44030000 		.4byte	.LASF84
 1875 0662 02       		.byte	0x2
 1876 0663 4C       		.byte	0x4c
 1877 0664 5E020000 		.4byte	0x25e
 1878 0668 00000000 		.4byte	.LFB7
 1879 066c 9C000000 		.4byte	.LFE7-.LFB7
 1880 0670 01       		.uleb128 0x1
 1881 0671 9C       		.byte	0x9c
 1882 0672 92060000 		.4byte	0x692
 1883 0676 15       		.uleb128 0x15
 1884 0677 747000   		.ascii	"tp\000"
 1885 067a 02       		.byte	0x2
 1886 067b 4C       		.byte	0x4c
 1887 067c 5E020000 		.4byte	0x25e
 1888 0680 02       		.uleb128 0x2
 1889 0681 91       		.byte	0x91
 1890 0682 7C       		.sleb128 -4
 1891 0683 19       		.uleb128 0x19
 1892 0684 15000000 		.4byte	.LASF81
 1893 0688 02       		.byte	0x2
 1894 0689 4C       		.byte	0x4c
 1895 068a FD000000 		.4byte	0xfd
 1896 068e 02       		.uleb128 0x2
 1897 068f 91       		.byte	0x91
 1898 0690 78       		.sleb128 -8
 1899 0691 00       		.byte	0
ARM GAS  /tmp/ccmRrK3u.s 			page 35


 1900 0692 1A       		.uleb128 0x1a
 1901 0693 19030000 		.4byte	.LASF92
 1902 0697 02       		.byte	0x2
 1903 0698 7E       		.byte	0x7e
 1904 0699 00000000 		.4byte	.LFB8
 1905 069d 26000000 		.4byte	.LFE8-.LFB8
 1906 06a1 01       		.uleb128 0x1
 1907 06a2 9C       		.byte	0x9c
 1908 06a3 D0060000 		.4byte	0x6d0
 1909 06a7 19       		.uleb128 0x19
 1910 06a8 37020000 		.4byte	.LASF82
 1911 06ac 02       		.byte	0x2
 1912 06ad 7E       		.byte	0x7e
 1913 06ae EB050000 		.4byte	0x5eb
 1914 06b2 02       		.uleb128 0x2
 1915 06b3 91       		.byte	0x91
 1916 06b4 7C       		.sleb128 -4
 1917 06b5 19       		.uleb128 0x19
 1918 06b6 9D030000 		.4byte	.LASF83
 1919 06ba 02       		.byte	0x2
 1920 06bb 7E       		.byte	0x7e
 1921 06bc EB050000 		.4byte	0x5eb
 1922 06c0 02       		.uleb128 0x2
 1923 06c1 91       		.byte	0x91
 1924 06c2 78       		.sleb128 -8
 1925 06c3 15       		.uleb128 0x15
 1926 06c4 7600     		.ascii	"v\000"
 1927 06c6 02       		.byte	0x2
 1928 06c7 7E       		.byte	0x7e
 1929 06c8 9E000000 		.4byte	0x9e
 1930 06cc 02       		.uleb128 0x2
 1931 06cd 91       		.byte	0x91
 1932 06ce 77       		.sleb128 -9
 1933 06cf 00       		.byte	0
 1934 06d0 1B       		.uleb128 0x1b
 1935 06d1 A2000000 		.4byte	.LASF85
 1936 06d5 02       		.byte	0x2
 1937 06d6 9D       		.byte	0x9d
 1938 06d7 5E020000 		.4byte	0x25e
 1939 06db 00000000 		.4byte	.LFB9
 1940 06df 74000000 		.4byte	.LFE9-.LFB9
 1941 06e3 01       		.uleb128 0x1
 1942 06e4 9C       		.byte	0x9c
 1943 06e5 3C070000 		.4byte	0x73c
 1944 06e9 15       		.uleb128 0x15
 1945 06ea 77737000 		.ascii	"wsp\000"
 1946 06ee 02       		.byte	0x2
 1947 06ef 9D       		.byte	0x9d
 1948 06f0 9A020000 		.4byte	0x29a
 1949 06f4 02       		.uleb128 0x2
 1950 06f5 91       		.byte	0x91
 1951 06f6 6C       		.sleb128 -20
 1952 06f7 19       		.uleb128 0x19
 1953 06f8 8A010000 		.4byte	.LASF86
 1954 06fc 02       		.byte	0x2
 1955 06fd 9D       		.byte	0x9d
 1956 06fe 28000000 		.4byte	0x28
ARM GAS  /tmp/ccmRrK3u.s 			page 36


 1957 0702 02       		.uleb128 0x2
 1958 0703 91       		.byte	0x91
 1959 0704 68       		.sleb128 -24
 1960 0705 19       		.uleb128 0x19
 1961 0706 15000000 		.4byte	.LASF81
 1962 070a 02       		.byte	0x2
 1963 070b 9E       		.byte	0x9e
 1964 070c FD000000 		.4byte	0xfd
 1965 0710 02       		.uleb128 0x2
 1966 0711 91       		.byte	0x91
 1967 0712 64       		.sleb128 -28
 1968 0713 15       		.uleb128 0x15
 1969 0714 706600   		.ascii	"pf\000"
 1970 0717 02       		.byte	0x2
 1971 0718 9E       		.byte	0x9e
 1972 0719 CB050000 		.4byte	0x5cb
 1973 071d 02       		.uleb128 0x2
 1974 071e 91       		.byte	0x91
 1975 071f 60       		.sleb128 -32
 1976 0720 15       		.uleb128 0x15
 1977 0721 61726700 		.ascii	"arg\000"
 1978 0725 02       		.byte	0x2
 1979 0726 9E       		.byte	0x9e
 1980 0727 9A020000 		.4byte	0x29a
 1981 072b 02       		.uleb128 0x2
 1982 072c 91       		.byte	0x91
 1983 072d 00       		.sleb128 0
 1984 072e 17       		.uleb128 0x17
 1985 072f 747000   		.ascii	"tp\000"
 1986 0732 02       		.byte	0x2
 1987 0733 A0       		.byte	0xa0
 1988 0734 5E020000 		.4byte	0x25e
 1989 0738 02       		.uleb128 0x2
 1990 0739 91       		.byte	0x91
 1991 073a 74       		.sleb128 -12
 1992 073b 00       		.byte	0
 1993 073c 1B       		.uleb128 0x1b
 1994 073d 00020000 		.4byte	.LASF87
 1995 0741 02       		.byte	0x2
 1996 0742 BB       		.byte	0xbb
 1997 0743 5E020000 		.4byte	0x25e
 1998 0747 00000000 		.4byte	.LFB10
 1999 074b 68000000 		.4byte	.LFE10-.LFB10
 2000 074f 01       		.uleb128 0x1
 2001 0750 9C       		.byte	0x9c
 2002 0751 DA070000 		.4byte	0x7da
 2003 0755 15       		.uleb128 0x15
 2004 0756 77737000 		.ascii	"wsp\000"
 2005 075a 02       		.byte	0x2
 2006 075b BB       		.byte	0xbb
 2007 075c 9A020000 		.4byte	0x29a
 2008 0760 02       		.uleb128 0x2
 2009 0761 91       		.byte	0x91
 2010 0762 6C       		.sleb128 -20
 2011 0763 19       		.uleb128 0x19
 2012 0764 8A010000 		.4byte	.LASF86
 2013 0768 02       		.byte	0x2
ARM GAS  /tmp/ccmRrK3u.s 			page 37


 2014 0769 BB       		.byte	0xbb
 2015 076a 28000000 		.4byte	0x28
 2016 076e 02       		.uleb128 0x2
 2017 076f 91       		.byte	0x91
 2018 0770 68       		.sleb128 -24
 2019 0771 19       		.uleb128 0x19
 2020 0772 15000000 		.4byte	.LASF81
 2021 0776 02       		.byte	0x2
 2022 0777 BC       		.byte	0xbc
 2023 0778 FD000000 		.4byte	0xfd
 2024 077c 02       		.uleb128 0x2
 2025 077d 91       		.byte	0x91
 2026 077e 64       		.sleb128 -28
 2027 077f 15       		.uleb128 0x15
 2028 0780 706600   		.ascii	"pf\000"
 2029 0783 02       		.byte	0x2
 2030 0784 BC       		.byte	0xbc
 2031 0785 CB050000 		.4byte	0x5cb
 2032 0789 02       		.uleb128 0x2
 2033 078a 91       		.byte	0x91
 2034 078b 60       		.sleb128 -32
 2035 078c 15       		.uleb128 0x15
 2036 078d 61726700 		.ascii	"arg\000"
 2037 0791 02       		.byte	0x2
 2038 0792 BC       		.byte	0xbc
 2039 0793 9A020000 		.4byte	0x29a
 2040 0797 02       		.uleb128 0x2
 2041 0798 91       		.byte	0x91
 2042 0799 00       		.sleb128 0
 2043 079a 17       		.uleb128 0x17
 2044 079b 747000   		.ascii	"tp\000"
 2045 079e 02       		.byte	0x2
 2046 079f BD       		.byte	0xbd
 2047 07a0 5E020000 		.4byte	0x25e
 2048 07a4 02       		.uleb128 0x2
 2049 07a5 91       		.byte	0x91
 2050 07a6 74       		.sleb128 -12
 2051 07a7 1C       		.uleb128 0x1c
 2052 07a8 30000000 		.4byte	.LBB2
 2053 07ac 06000000 		.4byte	.LBE2-.LBB2
 2054 07b0 C2070000 		.4byte	0x7c2
 2055 07b4 17       		.uleb128 0x17
 2056 07b5 746D7000 		.ascii	"tmp\000"
 2057 07b9 02       		.byte	0x2
 2058 07ba C7       		.byte	0xc7
 2059 07bb B4000000 		.4byte	0xb4
 2060 07bf 01       		.uleb128 0x1
 2061 07c0 53       		.byte	0x53
 2062 07c1 00       		.byte	0
 2063 07c2 1D       		.uleb128 0x1d
 2064 07c3 58000000 		.4byte	.LBB3
 2065 07c7 06000000 		.4byte	.LBE3-.LBB3
 2066 07cb 17       		.uleb128 0x17
 2067 07cc 746D7000 		.ascii	"tmp\000"
 2068 07d0 02       		.byte	0x2
 2069 07d1 C9       		.byte	0xc9
 2070 07d2 B4000000 		.4byte	0xb4
ARM GAS  /tmp/ccmRrK3u.s 			page 38


 2071 07d6 01       		.uleb128 0x1
 2072 07d7 53       		.byte	0x53
 2073 07d8 00       		.byte	0
 2074 07d9 00       		.byte	0
 2075 07da 1B       		.uleb128 0x1b
 2076 07db 29010000 		.4byte	.LASF88
 2077 07df 02       		.byte	0x2
 2078 07e0 D9       		.byte	0xd9
 2079 07e1 FD000000 		.4byte	0xfd
 2080 07e5 00000000 		.4byte	.LFB11
 2081 07e9 70000000 		.4byte	.LFE11-.LFB11
 2082 07ed 01       		.uleb128 0x1
 2083 07ee 9C       		.byte	0x9c
 2084 07ef 42080000 		.4byte	0x842
 2085 07f3 19       		.uleb128 0x19
 2086 07f4 B0010000 		.4byte	.LASF89
 2087 07f8 02       		.byte	0x2
 2088 07f9 D9       		.byte	0xd9
 2089 07fa FD000000 		.4byte	0xfd
 2090 07fe 02       		.uleb128 0x2
 2091 07ff 91       		.byte	0x91
 2092 0800 6C       		.sleb128 -20
 2093 0801 1E       		.uleb128 0x1e
 2094 0802 ED010000 		.4byte	.LASF90
 2095 0806 02       		.byte	0x2
 2096 0807 DA       		.byte	0xda
 2097 0808 FD000000 		.4byte	0xfd
 2098 080c 02       		.uleb128 0x2
 2099 080d 91       		.byte	0x91
 2100 080e 74       		.sleb128 -12
 2101 080f 1C       		.uleb128 0x1c
 2102 0810 12000000 		.4byte	.LBB4
 2103 0814 06000000 		.4byte	.LBE4-.LBB4
 2104 0818 2A080000 		.4byte	0x82a
 2105 081c 17       		.uleb128 0x17
 2106 081d 746D7000 		.ascii	"tmp\000"
 2107 0821 02       		.byte	0x2
 2108 0822 DE       		.byte	0xde
 2109 0823 B4000000 		.4byte	0xb4
 2110 0827 01       		.uleb128 0x1
 2111 0828 53       		.byte	0x53
 2112 0829 00       		.byte	0
 2113 082a 1D       		.uleb128 0x1d
 2114 082b 58000000 		.4byte	.LBB5
 2115 082f 06000000 		.4byte	.LBE5-.LBB5
 2116 0833 17       		.uleb128 0x17
 2117 0834 746D7000 		.ascii	"tmp\000"
 2118 0838 02       		.byte	0x2
 2119 0839 E9       		.byte	0xe9
 2120 083a B4000000 		.4byte	0xb4
 2121 083e 01       		.uleb128 0x1
 2122 083f 53       		.byte	0x53
 2123 0840 00       		.byte	0
 2124 0841 00       		.byte	0
 2125 0842 1B       		.uleb128 0x1b
 2126 0843 2B020000 		.4byte	.LASF91
 2127 0847 02       		.byte	0x2
ARM GAS  /tmp/ccmRrK3u.s 			page 39


 2128 0848 FA       		.byte	0xfa
 2129 0849 5E020000 		.4byte	0x25e
 2130 084d 00000000 		.4byte	.LFB12
 2131 0851 40000000 		.4byte	.LFE12-.LFB12
 2132 0855 01       		.uleb128 0x1
 2133 0856 9C       		.byte	0x9c
 2134 0857 9C080000 		.4byte	0x89c
 2135 085b 15       		.uleb128 0x15
 2136 085c 747000   		.ascii	"tp\000"
 2137 085f 02       		.byte	0x2
 2138 0860 FA       		.byte	0xfa
 2139 0861 5E020000 		.4byte	0x25e
 2140 0865 02       		.uleb128 0x2
 2141 0866 91       		.byte	0x91
 2142 0867 74       		.sleb128 -12
 2143 0868 1C       		.uleb128 0x1c
 2144 0869 06000000 		.4byte	.LBB6
 2145 086d 06000000 		.4byte	.LBE6-.LBB6
 2146 0871 83080000 		.4byte	0x883
 2147 0875 17       		.uleb128 0x17
 2148 0876 746D7000 		.ascii	"tmp\000"
 2149 087a 02       		.byte	0x2
 2150 087b FC       		.byte	0xfc
 2151 087c B4000000 		.4byte	0xb4
 2152 0880 01       		.uleb128 0x1
 2153 0881 53       		.byte	0x53
 2154 0882 00       		.byte	0
 2155 0883 1D       		.uleb128 0x1d
 2156 0884 2C000000 		.4byte	.LBB7
 2157 0888 06000000 		.4byte	.LBE7-.LBB7
 2158 088c 1F       		.uleb128 0x1f
 2159 088d 746D7000 		.ascii	"tmp\000"
 2160 0891 02       		.byte	0x2
 2161 0892 0101     		.2byte	0x101
 2162 0894 B4000000 		.4byte	0xb4
 2163 0898 01       		.uleb128 0x1
 2164 0899 53       		.byte	0x53
 2165 089a 00       		.byte	0
 2166 089b 00       		.byte	0
 2167 089c 20       		.uleb128 0x20
 2168 089d C0010000 		.4byte	.LASF93
 2169 08a1 02       		.byte	0x2
 2170 08a2 1101     		.2byte	0x111
 2171 08a4 00000000 		.4byte	.LFB13
 2172 08a8 32000000 		.4byte	.LFE13-.LFB13
 2173 08ac 01       		.uleb128 0x1
 2174 08ad 9C       		.byte	0x9c
 2175 08ae F5080000 		.4byte	0x8f5
 2176 08b2 21       		.uleb128 0x21
 2177 08b3 747000   		.ascii	"tp\000"
 2178 08b6 02       		.byte	0x2
 2179 08b7 1101     		.2byte	0x111
 2180 08b9 5E020000 		.4byte	0x25e
 2181 08bd 02       		.uleb128 0x2
 2182 08be 91       		.byte	0x91
 2183 08bf 74       		.sleb128 -12
 2184 08c0 1C       		.uleb128 0x1c
ARM GAS  /tmp/ccmRrK3u.s 			page 40


 2185 08c1 06000000 		.4byte	.LBB8
 2186 08c5 06000000 		.4byte	.LBE8-.LBB8
 2187 08c9 DC080000 		.4byte	0x8dc
 2188 08cd 1F       		.uleb128 0x1f
 2189 08ce 746D7000 		.ascii	"tmp\000"
 2190 08d2 02       		.byte	0x2
 2191 08d3 1301     		.2byte	0x113
 2192 08d5 B4000000 		.4byte	0xb4
 2193 08d9 01       		.uleb128 0x1
 2194 08da 53       		.byte	0x53
 2195 08db 00       		.byte	0
 2196 08dc 1D       		.uleb128 0x1d
 2197 08dd 26000000 		.4byte	.LBB9
 2198 08e1 06000000 		.4byte	.LBE9-.LBB9
 2199 08e5 1F       		.uleb128 0x1f
 2200 08e6 746D7000 		.ascii	"tmp\000"
 2201 08ea 02       		.byte	0x2
 2202 08eb 1501     		.2byte	0x115
 2203 08ed B4000000 		.4byte	0xb4
 2204 08f1 01       		.uleb128 0x1
 2205 08f2 53       		.byte	0x53
 2206 08f3 00       		.byte	0
 2207 08f4 00       		.byte	0
 2208 08f5 20       		.uleb128 0x20
 2209 08f6 B3030000 		.4byte	.LASF94
 2210 08fa 02       		.byte	0x2
 2211 08fb 2401     		.2byte	0x124
 2212 08fd 00000000 		.4byte	.LFB14
 2213 0901 38000000 		.4byte	.LFE14-.LFB14
 2214 0905 01       		.uleb128 0x1
 2215 0906 9C       		.byte	0x9c
 2216 0907 4F090000 		.4byte	0x94f
 2217 090b 22       		.uleb128 0x22
 2218 090c 59020000 		.4byte	.LASF95
 2219 0910 02       		.byte	0x2
 2220 0911 2401     		.2byte	0x124
 2221 0913 1E010000 		.4byte	0x11e
 2222 0917 02       		.uleb128 0x2
 2223 0918 91       		.byte	0x91
 2224 0919 74       		.sleb128 -12
 2225 091a 1C       		.uleb128 0x1c
 2226 091b 12000000 		.4byte	.LBB10
 2227 091f 06000000 		.4byte	.LBE10-.LBB10
 2228 0923 36090000 		.4byte	0x936
 2229 0927 1F       		.uleb128 0x1f
 2230 0928 746D7000 		.ascii	"tmp\000"
 2231 092c 02       		.byte	0x2
 2232 092d 2801     		.2byte	0x128
 2233 092f B4000000 		.4byte	0xb4
 2234 0933 01       		.uleb128 0x1
 2235 0934 53       		.byte	0x53
 2236 0935 00       		.byte	0
 2237 0936 1D       		.uleb128 0x1d
 2238 0937 28000000 		.4byte	.LBB11
 2239 093b 06000000 		.4byte	.LBE11-.LBB11
 2240 093f 1F       		.uleb128 0x1f
 2241 0940 746D7000 		.ascii	"tmp\000"
ARM GAS  /tmp/ccmRrK3u.s 			page 41


 2242 0944 02       		.byte	0x2
 2243 0945 2A01     		.2byte	0x12a
 2244 0947 B4000000 		.4byte	0xb4
 2245 094b 01       		.uleb128 0x1
 2246 094c 53       		.byte	0x53
 2247 094d 00       		.byte	0
 2248 094e 00       		.byte	0
 2249 094f 20       		.uleb128 0x20
 2250 0950 7C020000 		.4byte	.LASF96
 2251 0954 02       		.byte	0x2
 2252 0955 3501     		.2byte	0x135
 2253 0957 00000000 		.4byte	.LFB15
 2254 095b 3C000000 		.4byte	.LFE15-.LFB15
 2255 095f 01       		.uleb128 0x1
 2256 0960 9C       		.byte	0x9c
 2257 0961 A9090000 		.4byte	0x9a9
 2258 0965 22       		.uleb128 0x22
 2259 0966 59020000 		.4byte	.LASF95
 2260 096a 02       		.byte	0x2
 2261 096b 3501     		.2byte	0x135
 2262 096d 1E010000 		.4byte	0x11e
 2263 0971 02       		.uleb128 0x2
 2264 0972 91       		.byte	0x91
 2265 0973 74       		.sleb128 -12
 2266 0974 1C       		.uleb128 0x1c
 2267 0975 06000000 		.4byte	.LBB12
 2268 0979 06000000 		.4byte	.LBE12-.LBB12
 2269 097d 90090000 		.4byte	0x990
 2270 0981 1F       		.uleb128 0x1f
 2271 0982 746D7000 		.ascii	"tmp\000"
 2272 0986 02       		.byte	0x2
 2273 0987 3701     		.2byte	0x137
 2274 0989 B4000000 		.4byte	0xb4
 2275 098d 01       		.uleb128 0x1
 2276 098e 53       		.byte	0x53
 2277 098f 00       		.byte	0
 2278 0990 1D       		.uleb128 0x1d
 2279 0991 2C000000 		.4byte	.LBB13
 2280 0995 06000000 		.4byte	.LBE13-.LBB13
 2281 0999 1F       		.uleb128 0x1f
 2282 099a 746D7000 		.ascii	"tmp\000"
 2283 099e 02       		.byte	0x2
 2284 099f 3A01     		.2byte	0x13a
 2285 09a1 B4000000 		.4byte	0xb4
 2286 09a5 01       		.uleb128 0x1
 2287 09a6 53       		.byte	0x53
 2288 09a7 00       		.byte	0
 2289 09a8 00       		.byte	0
 2290 09a9 20       		.uleb128 0x20
 2291 09aa DD030000 		.4byte	.LASF97
 2292 09ae 02       		.byte	0x2
 2293 09af 4401     		.2byte	0x144
 2294 09b1 00000000 		.4byte	.LFB16
 2295 09b5 30000000 		.4byte	.LFE16-.LFB16
 2296 09b9 01       		.uleb128 0x1
 2297 09ba 9C       		.byte	0x9c
 2298 09bb F4090000 		.4byte	0x9f4
ARM GAS  /tmp/ccmRrK3u.s 			page 42


 2299 09bf 1C       		.uleb128 0x1c
 2300 09c0 02000000 		.4byte	.LBB14
 2301 09c4 06000000 		.4byte	.LBE14-.LBB14
 2302 09c8 DB090000 		.4byte	0x9db
 2303 09cc 1F       		.uleb128 0x1f
 2304 09cd 746D7000 		.ascii	"tmp\000"
 2305 09d1 02       		.byte	0x2
 2306 09d2 4601     		.2byte	0x146
 2307 09d4 B4000000 		.4byte	0xb4
 2308 09d8 01       		.uleb128 0x1
 2309 09d9 53       		.byte	0x53
 2310 09da 00       		.byte	0
 2311 09db 1D       		.uleb128 0x1d
 2312 09dc 24000000 		.4byte	.LBB15
 2313 09e0 06000000 		.4byte	.LBE15-.LBB15
 2314 09e4 1F       		.uleb128 0x1f
 2315 09e5 746D7000 		.ascii	"tmp\000"
 2316 09e9 02       		.byte	0x2
 2317 09ea 4801     		.2byte	0x148
 2318 09ec B4000000 		.4byte	0xb4
 2319 09f0 01       		.uleb128 0x1
 2320 09f1 53       		.byte	0x53
 2321 09f2 00       		.byte	0
 2322 09f3 00       		.byte	0
 2323 09f4 20       		.uleb128 0x20
 2324 09f5 7E000000 		.4byte	.LASF98
 2325 09f9 02       		.byte	0x2
 2326 09fa 5901     		.2byte	0x159
 2327 09fc 00000000 		.4byte	.LFB17
 2328 0a00 1C000000 		.4byte	.LFE17-.LFB17
 2329 0a04 01       		.uleb128 0x1
 2330 0a05 9C       		.byte	0x9c
 2331 0a06 320A0000 		.4byte	0xa32
 2332 0a0a 21       		.uleb128 0x21
 2333 0a0b 6D736700 		.ascii	"msg\000"
 2334 0a0f 02       		.byte	0x2
 2335 0a10 5901     		.2byte	0x159
 2336 0a12 08010000 		.4byte	0x108
 2337 0a16 02       		.uleb128 0x2
 2338 0a17 91       		.byte	0x91
 2339 0a18 74       		.sleb128 -12
 2340 0a19 1D       		.uleb128 0x1d
 2341 0a1a 06000000 		.4byte	.LBB16
 2342 0a1e 06000000 		.4byte	.LBE16-.LBB16
 2343 0a22 1F       		.uleb128 0x1f
 2344 0a23 746D7000 		.ascii	"tmp\000"
 2345 0a27 02       		.byte	0x2
 2346 0a28 5B01     		.2byte	0x15b
 2347 0a2a B4000000 		.4byte	0xb4
 2348 0a2e 01       		.uleb128 0x1
 2349 0a2f 53       		.byte	0x53
 2350 0a30 00       		.byte	0
 2351 0a31 00       		.byte	0
 2352 0a32 20       		.uleb128 0x20
 2353 0a33 3B000000 		.4byte	.LASF99
 2354 0a37 02       		.byte	0x2
 2355 0a38 6E01     		.2byte	0x16e
ARM GAS  /tmp/ccmRrK3u.s 			page 43


 2356 0a3a 00000000 		.4byte	.LFB18
 2357 0a3e 70000000 		.4byte	.LFE18-.LFB18
 2358 0a42 01       		.uleb128 0x1
 2359 0a43 9C       		.byte	0x9c
 2360 0a44 660A0000 		.4byte	0xa66
 2361 0a48 21       		.uleb128 0x21
 2362 0a49 6D736700 		.ascii	"msg\000"
 2363 0a4d 02       		.byte	0x2
 2364 0a4e 6E01     		.2byte	0x16e
 2365 0a50 08010000 		.4byte	0x108
 2366 0a54 02       		.uleb128 0x2
 2367 0a55 91       		.byte	0x91
 2368 0a56 6C       		.sleb128 -20
 2369 0a57 1F       		.uleb128 0x1f
 2370 0a58 747000   		.ascii	"tp\000"
 2371 0a5b 02       		.byte	0x2
 2372 0a5c 6F01     		.2byte	0x16f
 2373 0a5e 5E020000 		.4byte	0x25e
 2374 0a62 02       		.uleb128 0x2
 2375 0a63 91       		.byte	0x91
 2376 0a64 74       		.sleb128 -12
 2377 0a65 00       		.byte	0
 2378 0a66 23       		.uleb128 0x23
 2379 0a67 A2030000 		.4byte	.LASF100
 2380 0a6b 02       		.byte	0x2
 2381 0a6c A401     		.2byte	0x1a4
 2382 0a6e 08010000 		.4byte	0x108
 2383 0a72 00000000 		.4byte	.LFB19
 2384 0a76 8C000000 		.4byte	.LFE19-.LFB19
 2385 0a7a 01       		.uleb128 0x1
 2386 0a7b 9C       		.byte	0x9c
 2387 0a7c D20A0000 		.4byte	0xad2
 2388 0a80 21       		.uleb128 0x21
 2389 0a81 747000   		.ascii	"tp\000"
 2390 0a84 02       		.byte	0x2
 2391 0a85 A401     		.2byte	0x1a4
 2392 0a87 5E020000 		.4byte	0x25e
 2393 0a8b 02       		.uleb128 0x2
 2394 0a8c 91       		.byte	0x91
 2395 0a8d 6C       		.sleb128 -20
 2396 0a8e 1F       		.uleb128 0x1f
 2397 0a8f 6D736700 		.ascii	"msg\000"
 2398 0a93 02       		.byte	0x2
 2399 0a94 A501     		.2byte	0x1a5
 2400 0a96 08010000 		.4byte	0x108
 2401 0a9a 02       		.uleb128 0x2
 2402 0a9b 91       		.byte	0x91
 2403 0a9c 74       		.sleb128 -12
 2404 0a9d 1C       		.uleb128 0x1c
 2405 0a9e 12000000 		.4byte	.LBB17
 2406 0aa2 06000000 		.4byte	.LBE17-.LBB17
 2407 0aa6 B90A0000 		.4byte	0xab9
 2408 0aaa 1F       		.uleb128 0x1f
 2409 0aab 746D7000 		.ascii	"tmp\000"
 2410 0aaf 02       		.byte	0x2
 2411 0ab0 A901     		.2byte	0x1a9
 2412 0ab2 B4000000 		.4byte	0xb4
ARM GAS  /tmp/ccmRrK3u.s 			page 44


 2413 0ab6 01       		.uleb128 0x1
 2414 0ab7 53       		.byte	0x53
 2415 0ab8 00       		.byte	0
 2416 0ab9 1D       		.uleb128 0x1d
 2417 0aba 66000000 		.4byte	.LBB18
 2418 0abe 06000000 		.4byte	.LBE18-.LBB18
 2419 0ac2 1F       		.uleb128 0x1f
 2420 0ac3 746D7000 		.ascii	"tmp\000"
 2421 0ac7 02       		.byte	0x2
 2422 0ac8 B301     		.2byte	0x1b3
 2423 0aca B4000000 		.4byte	0xb4
 2424 0ace 01       		.uleb128 0x1
 2425 0acf 53       		.byte	0x53
 2426 0ad0 00       		.byte	0
 2427 0ad1 00       		.byte	0
 2428 0ad2 24       		.uleb128 0x24
 2429 0ad3 34000000 		.4byte	.LASF101
 2430 0ad7 0A       		.byte	0xa
 2431 0ad8 F5       		.byte	0xf5
 2432 0ad9 CF040000 		.4byte	0x4cf
 2433 0add 24       		.uleb128 0x24
 2434 0ade CF030000 		.4byte	.LASF102
 2435 0ae2 0B       		.byte	0xb
 2436 0ae3 6F       		.byte	0x6f
 2437 0ae4 2B050000 		.4byte	0x52b
 2438 0ae8 00       		.byte	0
 2439              		.section	.debug_abbrev,"",%progbits
 2440              	.Ldebug_abbrev0:
 2441 0000 01       		.uleb128 0x1
 2442 0001 11       		.uleb128 0x11
 2443 0002 01       		.byte	0x1
 2444 0003 25       		.uleb128 0x25
 2445 0004 0E       		.uleb128 0xe
 2446 0005 13       		.uleb128 0x13
 2447 0006 0B       		.uleb128 0xb
 2448 0007 03       		.uleb128 0x3
 2449 0008 0E       		.uleb128 0xe
 2450 0009 55       		.uleb128 0x55
 2451 000a 17       		.uleb128 0x17
 2452 000b 11       		.uleb128 0x11
 2453 000c 01       		.uleb128 0x1
 2454 000d 10       		.uleb128 0x10
 2455 000e 17       		.uleb128 0x17
 2456 000f 00       		.byte	0
 2457 0010 00       		.byte	0
 2458 0011 02       		.uleb128 0x2
 2459 0012 24       		.uleb128 0x24
 2460 0013 00       		.byte	0
 2461 0014 0B       		.uleb128 0xb
 2462 0015 0B       		.uleb128 0xb
 2463 0016 3E       		.uleb128 0x3e
 2464 0017 0B       		.uleb128 0xb
 2465 0018 03       		.uleb128 0x3
 2466 0019 08       		.uleb128 0x8
 2467 001a 00       		.byte	0
 2468 001b 00       		.byte	0
 2469 001c 03       		.uleb128 0x3
ARM GAS  /tmp/ccmRrK3u.s 			page 45


 2470 001d 16       		.uleb128 0x16
 2471 001e 00       		.byte	0
 2472 001f 03       		.uleb128 0x3
 2473 0020 0E       		.uleb128 0xe
 2474 0021 3A       		.uleb128 0x3a
 2475 0022 0B       		.uleb128 0xb
 2476 0023 3B       		.uleb128 0x3b
 2477 0024 0B       		.uleb128 0xb
 2478 0025 49       		.uleb128 0x49
 2479 0026 13       		.uleb128 0x13
 2480 0027 00       		.byte	0
 2481 0028 00       		.byte	0
 2482 0029 04       		.uleb128 0x4
 2483 002a 24       		.uleb128 0x24
 2484 002b 00       		.byte	0
 2485 002c 0B       		.uleb128 0xb
 2486 002d 0B       		.uleb128 0xb
 2487 002e 3E       		.uleb128 0x3e
 2488 002f 0B       		.uleb128 0xb
 2489 0030 03       		.uleb128 0x3
 2490 0031 0E       		.uleb128 0xe
 2491 0032 00       		.byte	0
 2492 0033 00       		.byte	0
 2493 0034 05       		.uleb128 0x5
 2494 0035 13       		.uleb128 0x13
 2495 0036 01       		.byte	0x1
 2496 0037 03       		.uleb128 0x3
 2497 0038 0E       		.uleb128 0xe
 2498 0039 0B       		.uleb128 0xb
 2499 003a 0B       		.uleb128 0xb
 2500 003b 3A       		.uleb128 0x3a
 2501 003c 0B       		.uleb128 0xb
 2502 003d 3B       		.uleb128 0x3b
 2503 003e 0B       		.uleb128 0xb
 2504 003f 01       		.uleb128 0x1
 2505 0040 13       		.uleb128 0x13
 2506 0041 00       		.byte	0
 2507 0042 00       		.byte	0
 2508 0043 06       		.uleb128 0x6
 2509 0044 0D       		.uleb128 0xd
 2510 0045 00       		.byte	0
 2511 0046 03       		.uleb128 0x3
 2512 0047 0E       		.uleb128 0xe
 2513 0048 3A       		.uleb128 0x3a
 2514 0049 0B       		.uleb128 0xb
 2515 004a 3B       		.uleb128 0x3b
 2516 004b 0B       		.uleb128 0xb
 2517 004c 49       		.uleb128 0x49
 2518 004d 13       		.uleb128 0x13
 2519 004e 38       		.uleb128 0x38
 2520 004f 0B       		.uleb128 0xb
 2521 0050 00       		.byte	0
 2522 0051 00       		.byte	0
 2523 0052 07       		.uleb128 0x7
 2524 0053 0D       		.uleb128 0xd
 2525 0054 00       		.byte	0
 2526 0055 03       		.uleb128 0x3
ARM GAS  /tmp/ccmRrK3u.s 			page 46


 2527 0056 08       		.uleb128 0x8
 2528 0057 3A       		.uleb128 0x3a
 2529 0058 0B       		.uleb128 0xb
 2530 0059 3B       		.uleb128 0x3b
 2531 005a 0B       		.uleb128 0xb
 2532 005b 49       		.uleb128 0x49
 2533 005c 13       		.uleb128 0x13
 2534 005d 38       		.uleb128 0x38
 2535 005e 0B       		.uleb128 0xb
 2536 005f 00       		.byte	0
 2537 0060 00       		.byte	0
 2538 0061 08       		.uleb128 0x8
 2539 0062 13       		.uleb128 0x13
 2540 0063 01       		.byte	0x1
 2541 0064 0B       		.uleb128 0xb
 2542 0065 0B       		.uleb128 0xb
 2543 0066 3A       		.uleb128 0x3a
 2544 0067 0B       		.uleb128 0xb
 2545 0068 3B       		.uleb128 0x3b
 2546 0069 0B       		.uleb128 0xb
 2547 006a 01       		.uleb128 0x1
 2548 006b 13       		.uleb128 0x13
 2549 006c 00       		.byte	0
 2550 006d 00       		.byte	0
 2551 006e 09       		.uleb128 0x9
 2552 006f 0F       		.uleb128 0xf
 2553 0070 00       		.byte	0
 2554 0071 0B       		.uleb128 0xb
 2555 0072 0B       		.uleb128 0xb
 2556 0073 49       		.uleb128 0x49
 2557 0074 13       		.uleb128 0x13
 2558 0075 00       		.byte	0
 2559 0076 00       		.byte	0
 2560 0077 0A       		.uleb128 0xa
 2561 0078 0F       		.uleb128 0xf
 2562 0079 00       		.byte	0
 2563 007a 0B       		.uleb128 0xb
 2564 007b 0B       		.uleb128 0xb
 2565 007c 00       		.byte	0
 2566 007d 00       		.byte	0
 2567 007e 0B       		.uleb128 0xb
 2568 007f 13       		.uleb128 0x13
 2569 0080 01       		.byte	0x1
 2570 0081 03       		.uleb128 0x3
 2571 0082 0E       		.uleb128 0xe
 2572 0083 0B       		.uleb128 0xb
 2573 0084 0B       		.uleb128 0xb
 2574 0085 3A       		.uleb128 0x3a
 2575 0086 0B       		.uleb128 0xb
 2576 0087 3B       		.uleb128 0x3b
 2577 0088 05       		.uleb128 0x5
 2578 0089 01       		.uleb128 0x1
 2579 008a 13       		.uleb128 0x13
 2580 008b 00       		.byte	0
 2581 008c 00       		.byte	0
 2582 008d 0C       		.uleb128 0xc
 2583 008e 0D       		.uleb128 0xd
ARM GAS  /tmp/ccmRrK3u.s 			page 47


 2584 008f 00       		.byte	0
 2585 0090 03       		.uleb128 0x3
 2586 0091 08       		.uleb128 0x8
 2587 0092 3A       		.uleb128 0x3a
 2588 0093 0B       		.uleb128 0xb
 2589 0094 3B       		.uleb128 0x3b
 2590 0095 05       		.uleb128 0x5
 2591 0096 49       		.uleb128 0x49
 2592 0097 13       		.uleb128 0x13
 2593 0098 38       		.uleb128 0x38
 2594 0099 0B       		.uleb128 0xb
 2595 009a 00       		.byte	0
 2596 009b 00       		.byte	0
 2597 009c 0D       		.uleb128 0xd
 2598 009d 15       		.uleb128 0x15
 2599 009e 01       		.byte	0x1
 2600 009f 27       		.uleb128 0x27
 2601 00a0 19       		.uleb128 0x19
 2602 00a1 01       		.uleb128 0x1
 2603 00a2 13       		.uleb128 0x13
 2604 00a3 00       		.byte	0
 2605 00a4 00       		.byte	0
 2606 00a5 0E       		.uleb128 0xe
 2607 00a6 05       		.uleb128 0x5
 2608 00a7 00       		.byte	0
 2609 00a8 49       		.uleb128 0x49
 2610 00a9 13       		.uleb128 0x13
 2611 00aa 00       		.byte	0
 2612 00ab 00       		.byte	0
 2613 00ac 0F       		.uleb128 0xf
 2614 00ad 35       		.uleb128 0x35
 2615 00ae 00       		.byte	0
 2616 00af 49       		.uleb128 0x49
 2617 00b0 13       		.uleb128 0x13
 2618 00b1 00       		.byte	0
 2619 00b2 00       		.byte	0
 2620 00b3 10       		.uleb128 0x10
 2621 00b4 17       		.uleb128 0x17
 2622 00b5 01       		.byte	0x1
 2623 00b6 0B       		.uleb128 0xb
 2624 00b7 0B       		.uleb128 0xb
 2625 00b8 3A       		.uleb128 0x3a
 2626 00b9 0B       		.uleb128 0xb
 2627 00ba 3B       		.uleb128 0x3b
 2628 00bb 0B       		.uleb128 0xb
 2629 00bc 01       		.uleb128 0x1
 2630 00bd 13       		.uleb128 0x13
 2631 00be 00       		.byte	0
 2632 00bf 00       		.byte	0
 2633 00c0 11       		.uleb128 0x11
 2634 00c1 0D       		.uleb128 0xd
 2635 00c2 00       		.byte	0
 2636 00c3 03       		.uleb128 0x3
 2637 00c4 0E       		.uleb128 0xe
 2638 00c5 3A       		.uleb128 0x3a
 2639 00c6 0B       		.uleb128 0xb
 2640 00c7 3B       		.uleb128 0x3b
ARM GAS  /tmp/ccmRrK3u.s 			page 48


 2641 00c8 0B       		.uleb128 0xb
 2642 00c9 49       		.uleb128 0x49
 2643 00ca 13       		.uleb128 0x13
 2644 00cb 00       		.byte	0
 2645 00cc 00       		.byte	0
 2646 00cd 12       		.uleb128 0x12
 2647 00ce 26       		.uleb128 0x26
 2648 00cf 00       		.byte	0
 2649 00d0 49       		.uleb128 0x49
 2650 00d1 13       		.uleb128 0x13
 2651 00d2 00       		.byte	0
 2652 00d3 00       		.byte	0
 2653 00d4 13       		.uleb128 0x13
 2654 00d5 15       		.uleb128 0x15
 2655 00d6 01       		.byte	0x1
 2656 00d7 27       		.uleb128 0x27
 2657 00d8 19       		.uleb128 0x19
 2658 00d9 49       		.uleb128 0x49
 2659 00da 13       		.uleb128 0x13
 2660 00db 01       		.uleb128 0x1
 2661 00dc 13       		.uleb128 0x13
 2662 00dd 00       		.byte	0
 2663 00de 00       		.byte	0
 2664 00df 14       		.uleb128 0x14
 2665 00e0 2E       		.uleb128 0x2e
 2666 00e1 01       		.byte	0x1
 2667 00e2 03       		.uleb128 0x3
 2668 00e3 0E       		.uleb128 0xe
 2669 00e4 3A       		.uleb128 0x3a
 2670 00e5 0B       		.uleb128 0xb
 2671 00e6 3B       		.uleb128 0x3b
 2672 00e7 0B       		.uleb128 0xb
 2673 00e8 27       		.uleb128 0x27
 2674 00e9 19       		.uleb128 0x19
 2675 00ea 11       		.uleb128 0x11
 2676 00eb 01       		.uleb128 0x1
 2677 00ec 12       		.uleb128 0x12
 2678 00ed 06       		.uleb128 0x6
 2679 00ee 40       		.uleb128 0x40
 2680 00ef 18       		.uleb128 0x18
 2681 00f0 9742     		.uleb128 0x2117
 2682 00f2 19       		.uleb128 0x19
 2683 00f3 01       		.uleb128 0x1
 2684 00f4 13       		.uleb128 0x13
 2685 00f5 00       		.byte	0
 2686 00f6 00       		.byte	0
 2687 00f7 15       		.uleb128 0x15
 2688 00f8 05       		.uleb128 0x5
 2689 00f9 00       		.byte	0
 2690 00fa 03       		.uleb128 0x3
 2691 00fb 08       		.uleb128 0x8
 2692 00fc 3A       		.uleb128 0x3a
 2693 00fd 0B       		.uleb128 0xb
 2694 00fe 3B       		.uleb128 0x3b
 2695 00ff 0B       		.uleb128 0xb
 2696 0100 49       		.uleb128 0x49
 2697 0101 13       		.uleb128 0x13
ARM GAS  /tmp/ccmRrK3u.s 			page 49


 2698 0102 02       		.uleb128 0x2
 2699 0103 18       		.uleb128 0x18
 2700 0104 00       		.byte	0
 2701 0105 00       		.byte	0
 2702 0106 16       		.uleb128 0x16
 2703 0107 2E       		.uleb128 0x2e
 2704 0108 01       		.byte	0x1
 2705 0109 03       		.uleb128 0x3
 2706 010a 0E       		.uleb128 0xe
 2707 010b 3A       		.uleb128 0x3a
 2708 010c 0B       		.uleb128 0xb
 2709 010d 3B       		.uleb128 0x3b
 2710 010e 0B       		.uleb128 0xb
 2711 010f 27       		.uleb128 0x27
 2712 0110 19       		.uleb128 0x19
 2713 0111 49       		.uleb128 0x49
 2714 0112 13       		.uleb128 0x13
 2715 0113 11       		.uleb128 0x11
 2716 0114 01       		.uleb128 0x1
 2717 0115 12       		.uleb128 0x12
 2718 0116 06       		.uleb128 0x6
 2719 0117 40       		.uleb128 0x40
 2720 0118 18       		.uleb128 0x18
 2721 0119 9742     		.uleb128 0x2117
 2722 011b 19       		.uleb128 0x19
 2723 011c 01       		.uleb128 0x1
 2724 011d 13       		.uleb128 0x13
 2725 011e 00       		.byte	0
 2726 011f 00       		.byte	0
 2727 0120 17       		.uleb128 0x17
 2728 0121 34       		.uleb128 0x34
 2729 0122 00       		.byte	0
 2730 0123 03       		.uleb128 0x3
 2731 0124 08       		.uleb128 0x8
 2732 0125 3A       		.uleb128 0x3a
 2733 0126 0B       		.uleb128 0xb
 2734 0127 3B       		.uleb128 0x3b
 2735 0128 0B       		.uleb128 0xb
 2736 0129 49       		.uleb128 0x49
 2737 012a 13       		.uleb128 0x13
 2738 012b 02       		.uleb128 0x2
 2739 012c 18       		.uleb128 0x18
 2740 012d 00       		.byte	0
 2741 012e 00       		.byte	0
 2742 012f 18       		.uleb128 0x18
 2743 0130 2E       		.uleb128 0x2e
 2744 0131 01       		.byte	0x1
 2745 0132 3F       		.uleb128 0x3f
 2746 0133 19       		.uleb128 0x19
 2747 0134 03       		.uleb128 0x3
 2748 0135 0E       		.uleb128 0xe
 2749 0136 3A       		.uleb128 0x3a
 2750 0137 0B       		.uleb128 0xb
 2751 0138 3B       		.uleb128 0x3b
 2752 0139 0B       		.uleb128 0xb
 2753 013a 27       		.uleb128 0x27
 2754 013b 19       		.uleb128 0x19
ARM GAS  /tmp/ccmRrK3u.s 			page 50


 2755 013c 49       		.uleb128 0x49
 2756 013d 13       		.uleb128 0x13
 2757 013e 11       		.uleb128 0x11
 2758 013f 01       		.uleb128 0x1
 2759 0140 12       		.uleb128 0x12
 2760 0141 06       		.uleb128 0x6
 2761 0142 40       		.uleb128 0x40
 2762 0143 18       		.uleb128 0x18
 2763 0144 9742     		.uleb128 0x2117
 2764 0146 19       		.uleb128 0x19
 2765 0147 01       		.uleb128 0x1
 2766 0148 13       		.uleb128 0x13
 2767 0149 00       		.byte	0
 2768 014a 00       		.byte	0
 2769 014b 19       		.uleb128 0x19
 2770 014c 05       		.uleb128 0x5
 2771 014d 00       		.byte	0
 2772 014e 03       		.uleb128 0x3
 2773 014f 0E       		.uleb128 0xe
 2774 0150 3A       		.uleb128 0x3a
 2775 0151 0B       		.uleb128 0xb
 2776 0152 3B       		.uleb128 0x3b
 2777 0153 0B       		.uleb128 0xb
 2778 0154 49       		.uleb128 0x49
 2779 0155 13       		.uleb128 0x13
 2780 0156 02       		.uleb128 0x2
 2781 0157 18       		.uleb128 0x18
 2782 0158 00       		.byte	0
 2783 0159 00       		.byte	0
 2784 015a 1A       		.uleb128 0x1a
 2785 015b 2E       		.uleb128 0x2e
 2786 015c 01       		.byte	0x1
 2787 015d 3F       		.uleb128 0x3f
 2788 015e 19       		.uleb128 0x19
 2789 015f 03       		.uleb128 0x3
 2790 0160 0E       		.uleb128 0xe
 2791 0161 3A       		.uleb128 0x3a
 2792 0162 0B       		.uleb128 0xb
 2793 0163 3B       		.uleb128 0x3b
 2794 0164 0B       		.uleb128 0xb
 2795 0165 27       		.uleb128 0x27
 2796 0166 19       		.uleb128 0x19
 2797 0167 11       		.uleb128 0x11
 2798 0168 01       		.uleb128 0x1
 2799 0169 12       		.uleb128 0x12
 2800 016a 06       		.uleb128 0x6
 2801 016b 40       		.uleb128 0x40
 2802 016c 18       		.uleb128 0x18
 2803 016d 9742     		.uleb128 0x2117
 2804 016f 19       		.uleb128 0x19
 2805 0170 01       		.uleb128 0x1
 2806 0171 13       		.uleb128 0x13
 2807 0172 00       		.byte	0
 2808 0173 00       		.byte	0
 2809 0174 1B       		.uleb128 0x1b
 2810 0175 2E       		.uleb128 0x2e
 2811 0176 01       		.byte	0x1
ARM GAS  /tmp/ccmRrK3u.s 			page 51


 2812 0177 3F       		.uleb128 0x3f
 2813 0178 19       		.uleb128 0x19
 2814 0179 03       		.uleb128 0x3
 2815 017a 0E       		.uleb128 0xe
 2816 017b 3A       		.uleb128 0x3a
 2817 017c 0B       		.uleb128 0xb
 2818 017d 3B       		.uleb128 0x3b
 2819 017e 0B       		.uleb128 0xb
 2820 017f 27       		.uleb128 0x27
 2821 0180 19       		.uleb128 0x19
 2822 0181 49       		.uleb128 0x49
 2823 0182 13       		.uleb128 0x13
 2824 0183 11       		.uleb128 0x11
 2825 0184 01       		.uleb128 0x1
 2826 0185 12       		.uleb128 0x12
 2827 0186 06       		.uleb128 0x6
 2828 0187 40       		.uleb128 0x40
 2829 0188 18       		.uleb128 0x18
 2830 0189 9642     		.uleb128 0x2116
 2831 018b 19       		.uleb128 0x19
 2832 018c 01       		.uleb128 0x1
 2833 018d 13       		.uleb128 0x13
 2834 018e 00       		.byte	0
 2835 018f 00       		.byte	0
 2836 0190 1C       		.uleb128 0x1c
 2837 0191 0B       		.uleb128 0xb
 2838 0192 01       		.byte	0x1
 2839 0193 11       		.uleb128 0x11
 2840 0194 01       		.uleb128 0x1
 2841 0195 12       		.uleb128 0x12
 2842 0196 06       		.uleb128 0x6
 2843 0197 01       		.uleb128 0x1
 2844 0198 13       		.uleb128 0x13
 2845 0199 00       		.byte	0
 2846 019a 00       		.byte	0
 2847 019b 1D       		.uleb128 0x1d
 2848 019c 0B       		.uleb128 0xb
 2849 019d 01       		.byte	0x1
 2850 019e 11       		.uleb128 0x11
 2851 019f 01       		.uleb128 0x1
 2852 01a0 12       		.uleb128 0x12
 2853 01a1 06       		.uleb128 0x6
 2854 01a2 00       		.byte	0
 2855 01a3 00       		.byte	0
 2856 01a4 1E       		.uleb128 0x1e
 2857 01a5 34       		.uleb128 0x34
 2858 01a6 00       		.byte	0
 2859 01a7 03       		.uleb128 0x3
 2860 01a8 0E       		.uleb128 0xe
 2861 01a9 3A       		.uleb128 0x3a
 2862 01aa 0B       		.uleb128 0xb
 2863 01ab 3B       		.uleb128 0x3b
 2864 01ac 0B       		.uleb128 0xb
 2865 01ad 49       		.uleb128 0x49
 2866 01ae 13       		.uleb128 0x13
 2867 01af 02       		.uleb128 0x2
 2868 01b0 18       		.uleb128 0x18
ARM GAS  /tmp/ccmRrK3u.s 			page 52


 2869 01b1 00       		.byte	0
 2870 01b2 00       		.byte	0
 2871 01b3 1F       		.uleb128 0x1f
 2872 01b4 34       		.uleb128 0x34
 2873 01b5 00       		.byte	0
 2874 01b6 03       		.uleb128 0x3
 2875 01b7 08       		.uleb128 0x8
 2876 01b8 3A       		.uleb128 0x3a
 2877 01b9 0B       		.uleb128 0xb
 2878 01ba 3B       		.uleb128 0x3b
 2879 01bb 05       		.uleb128 0x5
 2880 01bc 49       		.uleb128 0x49
 2881 01bd 13       		.uleb128 0x13
 2882 01be 02       		.uleb128 0x2
 2883 01bf 18       		.uleb128 0x18
 2884 01c0 00       		.byte	0
 2885 01c1 00       		.byte	0
 2886 01c2 20       		.uleb128 0x20
 2887 01c3 2E       		.uleb128 0x2e
 2888 01c4 01       		.byte	0x1
 2889 01c5 3F       		.uleb128 0x3f
 2890 01c6 19       		.uleb128 0x19
 2891 01c7 03       		.uleb128 0x3
 2892 01c8 0E       		.uleb128 0xe
 2893 01c9 3A       		.uleb128 0x3a
 2894 01ca 0B       		.uleb128 0xb
 2895 01cb 3B       		.uleb128 0x3b
 2896 01cc 05       		.uleb128 0x5
 2897 01cd 27       		.uleb128 0x27
 2898 01ce 19       		.uleb128 0x19
 2899 01cf 11       		.uleb128 0x11
 2900 01d0 01       		.uleb128 0x1
 2901 01d1 12       		.uleb128 0x12
 2902 01d2 06       		.uleb128 0x6
 2903 01d3 40       		.uleb128 0x40
 2904 01d4 18       		.uleb128 0x18
 2905 01d5 9642     		.uleb128 0x2116
 2906 01d7 19       		.uleb128 0x19
 2907 01d8 01       		.uleb128 0x1
 2908 01d9 13       		.uleb128 0x13
 2909 01da 00       		.byte	0
 2910 01db 00       		.byte	0
 2911 01dc 21       		.uleb128 0x21
 2912 01dd 05       		.uleb128 0x5
 2913 01de 00       		.byte	0
 2914 01df 03       		.uleb128 0x3
 2915 01e0 08       		.uleb128 0x8
 2916 01e1 3A       		.uleb128 0x3a
 2917 01e2 0B       		.uleb128 0xb
 2918 01e3 3B       		.uleb128 0x3b
 2919 01e4 05       		.uleb128 0x5
 2920 01e5 49       		.uleb128 0x49
 2921 01e6 13       		.uleb128 0x13
 2922 01e7 02       		.uleb128 0x2
 2923 01e8 18       		.uleb128 0x18
 2924 01e9 00       		.byte	0
 2925 01ea 00       		.byte	0
ARM GAS  /tmp/ccmRrK3u.s 			page 53


 2926 01eb 22       		.uleb128 0x22
 2927 01ec 05       		.uleb128 0x5
 2928 01ed 00       		.byte	0
 2929 01ee 03       		.uleb128 0x3
 2930 01ef 0E       		.uleb128 0xe
 2931 01f0 3A       		.uleb128 0x3a
 2932 01f1 0B       		.uleb128 0xb
 2933 01f2 3B       		.uleb128 0x3b
 2934 01f3 05       		.uleb128 0x5
 2935 01f4 49       		.uleb128 0x49
 2936 01f5 13       		.uleb128 0x13
 2937 01f6 02       		.uleb128 0x2
 2938 01f7 18       		.uleb128 0x18
 2939 01f8 00       		.byte	0
 2940 01f9 00       		.byte	0
 2941 01fa 23       		.uleb128 0x23
 2942 01fb 2E       		.uleb128 0x2e
 2943 01fc 01       		.byte	0x1
 2944 01fd 3F       		.uleb128 0x3f
 2945 01fe 19       		.uleb128 0x19
 2946 01ff 03       		.uleb128 0x3
 2947 0200 0E       		.uleb128 0xe
 2948 0201 3A       		.uleb128 0x3a
 2949 0202 0B       		.uleb128 0xb
 2950 0203 3B       		.uleb128 0x3b
 2951 0204 05       		.uleb128 0x5
 2952 0205 27       		.uleb128 0x27
 2953 0206 19       		.uleb128 0x19
 2954 0207 49       		.uleb128 0x49
 2955 0208 13       		.uleb128 0x13
 2956 0209 11       		.uleb128 0x11
 2957 020a 01       		.uleb128 0x1
 2958 020b 12       		.uleb128 0x12
 2959 020c 06       		.uleb128 0x6
 2960 020d 40       		.uleb128 0x40
 2961 020e 18       		.uleb128 0x18
 2962 020f 9642     		.uleb128 0x2116
 2963 0211 19       		.uleb128 0x19
 2964 0212 01       		.uleb128 0x1
 2965 0213 13       		.uleb128 0x13
 2966 0214 00       		.byte	0
 2967 0215 00       		.byte	0
 2968 0216 24       		.uleb128 0x24
 2969 0217 34       		.uleb128 0x34
 2970 0218 00       		.byte	0
 2971 0219 03       		.uleb128 0x3
 2972 021a 0E       		.uleb128 0xe
 2973 021b 3A       		.uleb128 0x3a
 2974 021c 0B       		.uleb128 0xb
 2975 021d 3B       		.uleb128 0x3b
 2976 021e 0B       		.uleb128 0xb
 2977 021f 49       		.uleb128 0x49
 2978 0220 13       		.uleb128 0x13
 2979 0221 3F       		.uleb128 0x3f
 2980 0222 19       		.uleb128 0x19
 2981 0223 3C       		.uleb128 0x3c
 2982 0224 19       		.uleb128 0x19
ARM GAS  /tmp/ccmRrK3u.s 			page 54


 2983 0225 00       		.byte	0
 2984 0226 00       		.byte	0
 2985 0227 00       		.byte	0
 2986              		.section	.debug_aranges,"",%progbits
 2987 0000 8C000000 		.4byte	0x8c
 2988 0004 0200     		.2byte	0x2
 2989 0006 00000000 		.4byte	.Ldebug_info0
 2990 000a 04       		.byte	0x4
 2991 000b 00       		.byte	0
 2992 000c 0000     		.2byte	0
 2993 000e 0000     		.2byte	0
 2994 0010 00000000 		.4byte	.LFB5
 2995 0014 18000000 		.4byte	.LFE5-.LFB5
 2996 0018 00000000 		.4byte	.LFB6
 2997 001c 1A000000 		.4byte	.LFE6-.LFB6
 2998 0020 00000000 		.4byte	.LFB7
 2999 0024 9C000000 		.4byte	.LFE7-.LFB7
 3000 0028 00000000 		.4byte	.LFB8
 3001 002c 26000000 		.4byte	.LFE8-.LFB8
 3002 0030 00000000 		.4byte	.LFB9
 3003 0034 74000000 		.4byte	.LFE9-.LFB9
 3004 0038 00000000 		.4byte	.LFB10
 3005 003c 68000000 		.4byte	.LFE10-.LFB10
 3006 0040 00000000 		.4byte	.LFB11
 3007 0044 70000000 		.4byte	.LFE11-.LFB11
 3008 0048 00000000 		.4byte	.LFB12
 3009 004c 40000000 		.4byte	.LFE12-.LFB12
 3010 0050 00000000 		.4byte	.LFB13
 3011 0054 32000000 		.4byte	.LFE13-.LFB13
 3012 0058 00000000 		.4byte	.LFB14
 3013 005c 38000000 		.4byte	.LFE14-.LFB14
 3014 0060 00000000 		.4byte	.LFB15
 3015 0064 3C000000 		.4byte	.LFE15-.LFB15
 3016 0068 00000000 		.4byte	.LFB16
 3017 006c 30000000 		.4byte	.LFE16-.LFB16
 3018 0070 00000000 		.4byte	.LFB17
 3019 0074 1C000000 		.4byte	.LFE17-.LFB17
 3020 0078 00000000 		.4byte	.LFB18
 3021 007c 70000000 		.4byte	.LFE18-.LFB18
 3022 0080 00000000 		.4byte	.LFB19
 3023 0084 8C000000 		.4byte	.LFE19-.LFB19
 3024 0088 00000000 		.4byte	0
 3025 008c 00000000 		.4byte	0
 3026              		.section	.debug_ranges,"",%progbits
 3027              	.Ldebug_ranges0:
 3028 0000 00000000 		.4byte	.LFB5
 3029 0004 18000000 		.4byte	.LFE5
 3030 0008 00000000 		.4byte	.LFB6
 3031 000c 1A000000 		.4byte	.LFE6
 3032 0010 00000000 		.4byte	.LFB7
 3033 0014 9C000000 		.4byte	.LFE7
 3034 0018 00000000 		.4byte	.LFB8
 3035 001c 26000000 		.4byte	.LFE8
 3036 0020 00000000 		.4byte	.LFB9
 3037 0024 74000000 		.4byte	.LFE9
 3038 0028 00000000 		.4byte	.LFB10
 3039 002c 68000000 		.4byte	.LFE10
ARM GAS  /tmp/ccmRrK3u.s 			page 55


 3040 0030 00000000 		.4byte	.LFB11
 3041 0034 70000000 		.4byte	.LFE11
 3042 0038 00000000 		.4byte	.LFB12
 3043 003c 40000000 		.4byte	.LFE12
 3044 0040 00000000 		.4byte	.LFB13
 3045 0044 32000000 		.4byte	.LFE13
 3046 0048 00000000 		.4byte	.LFB14
 3047 004c 38000000 		.4byte	.LFE14
 3048 0050 00000000 		.4byte	.LFB15
 3049 0054 3C000000 		.4byte	.LFE15
 3050 0058 00000000 		.4byte	.LFB16
 3051 005c 30000000 		.4byte	.LFE16
 3052 0060 00000000 		.4byte	.LFB17
 3053 0064 1C000000 		.4byte	.LFE17
 3054 0068 00000000 		.4byte	.LFB18
 3055 006c 70000000 		.4byte	.LFE18
 3056 0070 00000000 		.4byte	.LFB19
 3057 0074 8C000000 		.4byte	.LFE19
 3058 0078 00000000 		.4byte	0
 3059 007c 00000000 		.4byte	0
 3060              		.section	.debug_line,"",%progbits
 3061              	.Ldebug_line0:
 3062 0000 0C040000 		.section	.debug_str,"MS",%progbits,1
 3062      02004A02 
 3062      00000201 
 3062      FB0E0D00 
 3062      01010101 
 3063              	.LASF80:
 3064 0000 7466756E 		.ascii	"tfunc_t\000"
 3064      635F7400 
 3065              	.LASF43:
 3066 0008 705F6D73 		.ascii	"p_msg\000"
 3066      6700
 3067              	.LASF2:
 3068 000e 73697A65 		.ascii	"size_t\000"
 3068      5F7400
 3069              	.LASF81:
 3070 0015 7072696F 		.ascii	"prio\000"
 3070      00
 3071              	.LASF75:
 3072 001a 7264796D 		.ascii	"rdymsg\000"
 3072      736700
 3073              	.LASF17:
 3074 0021 75696E74 		.ascii	"uint64_t\000"
 3074      36345F74 
 3074      00
 3075              	.LASF3:
 3076 002a 5F5F7569 		.ascii	"__uint8_t\000"
 3076      6E74385F 
 3076      7400
 3077              	.LASF101:
 3078 0034 76746C69 		.ascii	"vtlist\000"
 3078      737400
 3079              	.LASF99:
 3080 003b 63685468 		.ascii	"chThdExitS\000"
 3080      64457869 
 3080      745300
ARM GAS  /tmp/ccmRrK3u.s 			page 56


 3081              	.LASF13:
 3082 0046 6C6F6E67 		.ascii	"long long unsigned int\000"
 3082      206C6F6E 
 3082      6720756E 
 3082      7369676E 
 3082      65642069 
 3083              	.LASF30:
 3084 005d 705F7072 		.ascii	"p_prio\000"
 3084      696F00
 3085              	.LASF11:
 3086 0064 6C6F6E67 		.ascii	"long long int\000"
 3086      206C6F6E 
 3086      6720696E 
 3086      7400
 3087              	.LASF1:
 3088 0072 7369676E 		.ascii	"signed char\000"
 3088      65642063 
 3088      68617200 
 3089              	.LASF98:
 3090 007e 63685468 		.ascii	"chThdExit\000"
 3090      64457869 
 3090      7400
 3091              	.LASF47:
 3092 0088 705F6D70 		.ascii	"p_mpool\000"
 3092      6F6F6C00 
 3093              	.LASF72:
 3094 0090 6D5F7175 		.ascii	"m_queue\000"
 3094      65756500 
 3095              	.LASF22:
 3096 0098 74736C69 		.ascii	"tslices_t\000"
 3096      6365735F 
 3096      7400
 3097              	.LASF85:
 3098 00a2 63685468 		.ascii	"chThdCreateI\000"
 3098      64437265 
 3098      61746549 
 3098      00
 3099              	.LASF8:
 3100 00af 6C6F6E67 		.ascii	"long int\000"
 3100      20696E74 
 3100      00
 3101              	.LASF20:
 3102 00b8 74737461 		.ascii	"tstate_t\000"
 3102      74655F74 
 3102      00
 3103              	.LASF32:
 3104 00c1 705F6E65 		.ascii	"p_newer\000"
 3104      77657200 
 3105              	.LASF104:
 3106 00c9 2F686F6D 		.ascii	"/home/ergae/r2p-sdk/core/ChibiOS/os/kernel/src/chth"
 3106      652F6572 
 3106      6761652F 
 3106      7232702D 
 3106      73646B2F 
 3107 00fc 72656164 		.ascii	"reads.c\000"
 3107      732E6300 
 3108              	.LASF76:
ARM GAS  /tmp/ccmRrK3u.s 			page 57


 3109 0104 65786974 		.ascii	"exitcode\000"
 3109      636F6465 
 3109      00
 3110              	.LASF9:
 3111 010d 5F5F7569 		.ascii	"__uint32_t\000"
 3111      6E743332 
 3111      5F7400
 3112              	.LASF50:
 3113 0118 72656761 		.ascii	"regarm_t\000"
 3113      726D5F74 
 3113      00
 3114              	.LASF58:
 3115 0121 76745F70 		.ascii	"vt_prev\000"
 3115      72657600 
 3116              	.LASF88:
 3117 0129 63685468 		.ascii	"chThdSetPriority\000"
 3117      64536574 
 3117      5072696F 
 3117      72697479 
 3117      00
 3118              	.LASF35:
 3119 013a 705F7374 		.ascii	"p_stklimit\000"
 3119      6B6C696D 
 3119      697400
 3120              	.LASF0:
 3121 0145 756E7369 		.ascii	"unsigned int\000"
 3121      676E6564 
 3121      20696E74 
 3121      00
 3122              	.LASF57:
 3123 0152 76745F6E 		.ascii	"vt_next\000"
 3123      65787400 
 3124              	.LASF10:
 3125 015a 6C6F6E67 		.ascii	"long unsigned int\000"
 3125      20756E73 
 3125      69676E65 
 3125      6420696E 
 3125      7400
 3126              	.LASF55:
 3127 016c 76746675 		.ascii	"vtfunc_t\000"
 3127      6E635F74 
 3127      00
 3128              	.LASF56:
 3129 0175 56697274 		.ascii	"VirtualTimer\000"
 3129      75616C54 
 3129      696D6572 
 3129      00
 3130              	.LASF53:
 3131 0182 636F6E74 		.ascii	"context\000"
 3131      65787400 
 3132              	.LASF86:
 3133 018a 73697A65 		.ascii	"size\000"
 3133      00
 3134              	.LASF6:
 3135 018f 73686F72 		.ascii	"short unsigned int\000"
 3135      7420756E 
 3135      7369676E 
ARM GAS  /tmp/ccmRrK3u.s 			page 58


 3135      65642069 
 3135      6E7400
 3136              	.LASF24:
 3137 01a2 6D73675F 		.ascii	"msg_t\000"
 3137      7400
 3138              	.LASF67:
 3139 01a8 725F6E65 		.ascii	"r_newer\000"
 3139      77657200 
 3140              	.LASF89:
 3141 01b0 6E657770 		.ascii	"newprio\000"
 3141      72696F00 
 3142              	.LASF19:
 3143 01b8 746D6F64 		.ascii	"tmode_t\000"
 3143      655F7400 
 3144              	.LASF93:
 3145 01c0 63685468 		.ascii	"chThdTerminate\000"
 3145      64546572 
 3145      6D696E61 
 3145      746500
 3146              	.LASF49:
 3147 01cf 54687265 		.ascii	"ThreadsList\000"
 3147      6164734C 
 3147      69737400 
 3148              	.LASF25:
 3149 01db 6576656E 		.ascii	"eventmask_t\000"
 3149      746D6173 
 3149      6B5F7400 
 3150              	.LASF71:
 3151 01e7 4D757465 		.ascii	"Mutex\000"
 3151      7800
 3152              	.LASF90:
 3153 01ed 6F6C6470 		.ascii	"oldprio\000"
 3153      72696F00 
 3154              	.LASF51:
 3155 01f5 73746B61 		.ascii	"stkalign_t\000"
 3155      6C69676E 
 3155      5F7400
 3156              	.LASF87:
 3157 0200 63685468 		.ascii	"chThdCreateStatic\000"
 3157      64437265 
 3157      61746553 
 3157      74617469 
 3157      6300
 3158              	.LASF59:
 3159 0212 76745F74 		.ascii	"vt_time\000"
 3159      696D6500 
 3160              	.LASF54:
 3161 021a 73697A65 		.ascii	"sizetype\000"
 3161      74797065 
 3161      00
 3162              	.LASF60:
 3163 0223 76745F66 		.ascii	"vt_func\000"
 3163      756E6300 
 3164              	.LASF91:
 3165 022b 63685468 		.ascii	"chThdResume\000"
 3165      64526573 
 3165      756D6500 
ARM GAS  /tmp/ccmRrK3u.s 			page 59


 3166              	.LASF82:
 3167 0237 73746172 		.ascii	"startp\000"
 3167      747000
 3168              	.LASF33:
 3169 023e 705F6F6C 		.ascii	"p_older\000"
 3169      64657200 
 3170              	.LASF66:
 3171 0246 725F6374 		.ascii	"r_ctx\000"
 3171      7800
 3172              	.LASF48:
 3173 024c 54687265 		.ascii	"ThreadsQueue\000"
 3173      61647351 
 3173      75657565 
 3173      00
 3174              	.LASF95:
 3175 0259 74696D65 		.ascii	"time\000"
 3175      00
 3176              	.LASF105:
 3177 025e 6C697374 		.ascii	"list_insert\000"
 3177      5F696E73 
 3177      65727400 
 3178              	.LASF69:
 3179 026a 725F6375 		.ascii	"r_current\000"
 3179      7272656E 
 3179      7400
 3180              	.LASF68:
 3181 0274 725F6F6C 		.ascii	"r_older\000"
 3181      64657200 
 3182              	.LASF96:
 3183 027c 63685468 		.ascii	"chThdSleepUntil\000"
 3183      64536C65 
 3183      6570556E 
 3183      74696C00 
 3184              	.LASF12:
 3185 028c 5F5F7569 		.ascii	"__uint64_t\000"
 3185      6E743634 
 3185      5F7400
 3186              	.LASF106:
 3187 0297 6C697374 		.ascii	"list_remove\000"
 3187      5F72656D 
 3187      6F766500 
 3188              	.LASF21:
 3189 02a3 74726566 		.ascii	"trefs_t\000"
 3189      735F7400 
 3190              	.LASF29:
 3191 02ab 705F7072 		.ascii	"p_prev\000"
 3191      657600
 3192              	.LASF23:
 3193 02b2 74707269 		.ascii	"tprio_t\000"
 3193      6F5F7400 
 3194              	.LASF18:
 3195 02ba 5F426F6F 		.ascii	"_Bool\000"
 3195      6C00
 3196              	.LASF15:
 3197 02c0 696E7433 		.ascii	"int32_t\000"
 3197      325F7400 
 3198              	.LASF4:
ARM GAS  /tmp/ccmRrK3u.s 			page 60


 3199 02c8 756E7369 		.ascii	"unsigned char\000"
 3199      676E6564 
 3199      20636861 
 3199      7200
 3200              	.LASF45:
 3201 02d6 705F6D74 		.ascii	"p_mtxlist\000"
 3201      786C6973 
 3201      7400
 3202              	.LASF5:
 3203 02e0 73686F72 		.ascii	"short int\000"
 3203      7420696E 
 3203      7400
 3204              	.LASF36:
 3205 02ea 705F7374 		.ascii	"p_state\000"
 3205      61746500 
 3206              	.LASF39:
 3207 02f2 705F7072 		.ascii	"p_preempt\000"
 3207      65656D70 
 3207      7400
 3208              	.LASF65:
 3209 02fc 725F7072 		.ascii	"r_prio\000"
 3209      696F00
 3210              	.LASF78:
 3211 0303 65776D61 		.ascii	"ewmask\000"
 3211      736B00
 3212              	.LASF28:
 3213 030a 705F6E65 		.ascii	"p_next\000"
 3213      787400
 3214              	.LASF37:
 3215 0311 705F666C 		.ascii	"p_flags\000"
 3215      61677300 
 3216              	.LASF92:
 3217 0319 5F746872 		.ascii	"_thread_memfill\000"
 3217      6561645F 
 3217      6D656D66 
 3217      696C6C00 
 3218              	.LASF27:
 3219 0329 54687265 		.ascii	"Thread\000"
 3219      616400
 3220              	.LASF44:
 3221 0330 705F6570 		.ascii	"p_epending\000"
 3221      656E6469 
 3221      6E6700
 3222              	.LASF16:
 3223 033b 75696E74 		.ascii	"uint32_t\000"
 3223      33325F74 
 3223      00
 3224              	.LASF84:
 3225 0344 5F746872 		.ascii	"_thread_init\000"
 3225      6561645F 
 3225      696E6974 
 3225      00
 3226              	.LASF64:
 3227 0351 725F7175 		.ascii	"r_queue\000"
 3227      65756500 
 3228              	.LASF79:
 3229 0359 63686172 		.ascii	"char\000"
ARM GAS  /tmp/ccmRrK3u.s 			page 61


 3229      00
 3230              	.LASF74:
 3231 035e 6D5F6E65 		.ascii	"m_next\000"
 3231      787400
 3232              	.LASF26:
 3233 0365 73797374 		.ascii	"systime_t\000"
 3233      696D655F 
 3233      7400
 3234              	.LASF46:
 3235 036f 705F7265 		.ascii	"p_realprio\000"
 3235      616C7072 
 3235      696F00
 3236              	.LASF7:
 3237 037a 5F5F696E 		.ascii	"__int32_t\000"
 3237      7433325F 
 3237      7400
 3238              	.LASF40:
 3239 0384 705F7469 		.ascii	"p_time\000"
 3239      6D6500
 3240              	.LASF52:
 3241 038b 696E7463 		.ascii	"intctx\000"
 3241      747800
 3242              	.LASF42:
 3243 0392 705F6D73 		.ascii	"p_msgqueue\000"
 3243      67717565 
 3243      756500
 3244              	.LASF83:
 3245 039d 656E6470 		.ascii	"endp\000"
 3245      00
 3246              	.LASF100:
 3247 03a2 63685468 		.ascii	"chThdWait\000"
 3247      64576169 
 3247      7400
 3248              	.LASF61:
 3249 03ac 76745F70 		.ascii	"vt_par\000"
 3249      617200
 3250              	.LASF94:
 3251 03b3 63685468 		.ascii	"chThdSleep\000"
 3251      64536C65 
 3251      657000
 3252              	.LASF38:
 3253 03be 705F7265 		.ascii	"p_refs\000"
 3253      667300
 3254              	.LASF70:
 3255 03c5 52656164 		.ascii	"ReadyList\000"
 3255      794C6973 
 3255      7400
 3256              	.LASF102:
 3257 03cf 726C6973 		.ascii	"rlist\000"
 3257      7400
 3258              	.LASF14:
 3259 03d5 75696E74 		.ascii	"uint8_t\000"
 3259      385F7400 
 3260              	.LASF97:
 3261 03dd 63685468 		.ascii	"chThdYield\000"
 3261      64596965 
 3261      6C6400
ARM GAS  /tmp/ccmRrK3u.s 			page 62


 3262              	.LASF77:
 3263 03e8 77746F62 		.ascii	"wtobjp\000"
 3263      6A7000
 3264              	.LASF34:
 3265 03ef 705F6E61 		.ascii	"p_name\000"
 3265      6D6500
 3266              	.LASF62:
 3267 03f6 76745F73 		.ascii	"vt_systime\000"
 3267      79737469 
 3267      6D6500
 3268              	.LASF63:
 3269 0401 56544C69 		.ascii	"VTList\000"
 3269      737400
 3270              	.LASF73:
 3271 0408 6D5F6F77 		.ascii	"m_owner\000"
 3271      6E657200 
 3272              	.LASF103:
 3273 0410 474E5520 		.ascii	"GNU C 4.9.3 20141119 (release) [ARM/embedded-4_9-br"
 3273      4320342E 
 3273      392E3320 
 3273      32303134 
 3273      31313139 
 3274 0443 616E6368 		.ascii	"anch revision 218278] -mcpu=cortex-m4 -mfloat-abi=h"
 3274      20726576 
 3274      6973696F 
 3274      6E203231 
 3274      38323738 
 3275 0476 61726420 		.ascii	"ard -mfpu=fpv4-sp-d16 -mno-thumb-interwork -mthumb "
 3275      2D6D6670 
 3275      753D6670 
 3275      76342D73 
 3275      702D6431 
 3276 04a9 2D676764 		.ascii	"-ggdb -O0 -fomit-frame-pointer -falign-functions=16"
 3276      62202D4F 
 3276      30202D66 
 3276      6F6D6974 
 3276      2D667261 
 3277 04dc 202D6666 		.ascii	" -ffunction-sections -fdata-sections -fno-common -f"
 3277      756E6374 
 3277      696F6E2D 
 3277      73656374 
 3277      696F6E73 
 3278 050f 73696E67 		.ascii	"single-precision-constant\000"
 3278      6C652D70 
 3278      72656369 
 3278      73696F6E 
 3278      2D636F6E 
 3279              	.LASF31:
 3280 0529 705F6374 		.ascii	"p_ctx\000"
 3280      7800
 3281              	.LASF41:
 3282 052f 705F7761 		.ascii	"p_waiting\000"
 3282      6974696E 
 3282      6700
 3283              		.ident	"GCC: (GNU Tools for ARM Embedded Processors) 4.9.3 20141119 (release) [ARM/embedded-4_9-br
ARM GAS  /tmp/ccmRrK3u.s 			page 63


DEFINED SYMBOLS
                            *ABS*:00000000 chthreads.c
     /tmp/ccmRrK3u.s:21     .text.list_insert:00000000 $t
     /tmp/ccmRrK3u.s:26     .text.list_insert:00000000 list_insert
     /tmp/ccmRrK3u.s:56     .text.list_remove:00000000 $t
     /tmp/ccmRrK3u.s:61     .text.list_remove:00000000 list_remove
     /tmp/ccmRrK3u.s:92     .text._thread_init:00000000 $t
     /tmp/ccmRrK3u.s:98     .text._thread_init:00000000 _thread_init
     /tmp/ccmRrK3u.s:196    .text._thread_init:00000098 $d
     /tmp/ccmRrK3u.s:201    .text._thread_memfill:00000000 $t
     /tmp/ccmRrK3u.s:207    .text._thread_memfill:00000000 _thread_memfill
     /tmp/ccmRrK3u.s:244    .rodata:00000000 $d
     /tmp/ccmRrK3u.s:248    .text.chThdCreateI:00000000 $t
     /tmp/ccmRrK3u.s:254    .text.chThdCreateI:00000000 chThdCreateI
     /tmp/ccmRrK3u.s:328    .text.chThdCreateI:0000006c $d
     /tmp/ccmRrK3u.s:334    .text.chThdCreateStatic:00000000 $t
     /tmp/ccmRrK3u.s:340    .text.chThdCreateStatic:00000000 chThdCreateStatic
     /tmp/ccmRrK3u.s:418    .text.chThdSetPriority:00000000 $t
     /tmp/ccmRrK3u.s:424    .text.chThdSetPriority:00000000 chThdSetPriority
     /tmp/ccmRrK3u.s:508    .text.chThdSetPriority:00000068 $d
     /tmp/ccmRrK3u.s:518    .text.chThdResume:00000000 $t
     /tmp/ccmRrK3u.s:524    .text.chThdResume:00000000 chThdResume
     /tmp/ccmRrK3u.s:578    .text.chThdResume:0000003c $d
     /tmp/ccmRrK3u.s:583    .text.chThdTerminate:00000000 $t
     /tmp/ccmRrK3u.s:589    .text.chThdTerminate:00000000 chThdTerminate
     /tmp/ccmRrK3u.s:639    .text.chThdSleep:00000000 $t
     /tmp/ccmRrK3u.s:645    .text.chThdSleep:00000000 chThdSleep
     /tmp/ccmRrK3u.s:695    .text.chThdSleep:00000034 $d
     /tmp/ccmRrK3u.s:700    .text.chThdSleepUntil:00000000 $t
     /tmp/ccmRrK3u.s:706    .text.chThdSleepUntil:00000000 chThdSleepUntil
     /tmp/ccmRrK3u.s:758    .text.chThdSleepUntil:00000038 $d
     /tmp/ccmRrK3u.s:763    .text.chThdYield:00000000 $t
     /tmp/ccmRrK3u.s:769    .text.chThdYield:00000000 chThdYield
     /tmp/ccmRrK3u.s:814    .text.chThdYield:0000002c $d
     /tmp/ccmRrK3u.s:819    .text.chThdExit:00000000 $t
     /tmp/ccmRrK3u.s:825    .text.chThdExit:00000000 chThdExit
     /tmp/ccmRrK3u.s:868    .text.chThdExitS:00000000 chThdExitS
     /tmp/ccmRrK3u.s:862    .text.chThdExitS:00000000 $t
     /tmp/ccmRrK3u.s:939    .text.chThdExitS:00000068 $d
     /tmp/ccmRrK3u.s:955    .text.chThdWait:00000000 $t
     /tmp/ccmRrK3u.s:961    .text.chThdWait:00000000 chThdWait
     /tmp/ccmRrK3u.s:1053   .text.chThdWait:0000007c $d
                     .debug_frame:00000010 $d
     /tmp/ccmRrK3u.s:200    .text._thread_init:0000009c $t
     /tmp/ccmRrK3u.s:333    .text.chThdCreateI:00000074 $t
     /tmp/ccmRrK3u.s:699    .text.chThdSleep:00000038 $t
     /tmp/ccmRrK3u.s:762    .text.chThdSleepUntil:0000003c $t
     /tmp/ccmRrK3u.s:1060   .text.chThdWait:0000008c $t

UNDEFINED SYMBOLS
rlist
chDbgCheckClassI
chDbgPanic
_port_thread_start
dbg_check_lock
chSchWakeupS
dbg_check_unlock
ARM GAS  /tmp/ccmRrK3u.s 			page 64


chSchRescheduleS
chSchGoSleepTimeoutS
vtlist
chSchDoRescheduleBehind
chSchReadyI
chSchGoSleepS
chThdRelease
