ARM GAS  /tmp/ccmRrK3u.s 			page 1


   1              		.syntax unified
   2              		.cpu cortex-m4
   3              		.eabi_attribute 27, 3
   4              		.eabi_attribute 28, 1
   5              		.fpu fpv4-sp-d16
   6              		.eabi_attribute 20, 1
   7              		.eabi_attribute 21, 1
   8              		.eabi_attribute 23, 3
   9              		.eabi_attribute 24, 1
  10              		.eabi_attribute 25, 1
  11              		.eabi_attribute 26, 1
  12              		.eabi_attribute 30, 6
  13              		.eabi_attribute 34, 1
  14              		.eabi_attribute 18, 4
  15              		.thumb
  16              		.file	"chthreads.c"
  17              		.text
  18              	.Ltext0:
  19              		.cfi_sections	.debug_frame
  20              		.section	.text.list_insert,"ax",%progbits
  21              		.align	2
  22              		.p2align 4,,15
  23              		.thumb
  24              		.thumb_func
  25              		.type	list_insert, %function
  26              	list_insert:
  27              	.LFB5:
  28              		.file 1 "/home/ergae/r2p-sdk/core/ChibiOS/os/kernel/include/chinline.h"
  29              		.loc 1 80 0
  30              		.cfi_startproc
  31              		@ args = 0, pretend = 0, frame = 8
  32              		@ frame_needed = 0, uses_anonymous_args = 0
  33              		@ link register save eliminated.
  34 0000 82B0     		sub	sp, sp, #8
  35              		.cfi_def_cfa_offset 8
  36 0002 0190     		str	r0, [sp, #4]
  37 0004 0091     		str	r1, [sp]
  38              		.loc 1 82 0
  39 0006 009B     		ldr	r3, [sp]
  40 0008 1A68     		ldr	r2, [r3]
  41 000a 019B     		ldr	r3, [sp, #4]
  42 000c 1A60     		str	r2, [r3]
  43              		.loc 1 83 0
  44 000e 009B     		ldr	r3, [sp]
  45 0010 019A     		ldr	r2, [sp, #4]
  46 0012 1A60     		str	r2, [r3]
  47              		.loc 1 84 0
  48 0014 02B0     		add	sp, sp, #8
  49              		.cfi_def_cfa_offset 0
  50              		@ sp needed
  51 0016 7047     		bx	lr
  52              		.cfi_endproc
  53              	.LFE5:
  54              		.size	list_insert, .-list_insert
  55 0018 AFF30080 		.section	.text.list_remove,"ax",%progbits
  55      AFF30080 
  56              		.align	2
ARM GAS  /tmp/ccmRrK3u.s 			page 2


  57              		.p2align 4,,15
  58              		.thumb
  59              		.thumb_func
  60              		.type	list_remove, %function
  61              	list_remove:
  62              	.LFB6:
  63              		.loc 1 86 0
  64              		.cfi_startproc
  65              		@ args = 0, pretend = 0, frame = 16
  66              		@ frame_needed = 0, uses_anonymous_args = 0
  67              		@ link register save eliminated.
  68 0000 84B0     		sub	sp, sp, #16
  69              		.cfi_def_cfa_offset 16
  70 0002 0190     		str	r0, [sp, #4]
  71              		.loc 1 88 0
  72 0004 019B     		ldr	r3, [sp, #4]
  73 0006 1B68     		ldr	r3, [r3]
  74 0008 0393     		str	r3, [sp, #12]
  75              		.loc 1 89 0
  76 000a 039B     		ldr	r3, [sp, #12]
  77 000c 1A68     		ldr	r2, [r3]
  78 000e 019B     		ldr	r3, [sp, #4]
  79 0010 1A60     		str	r2, [r3]
  80              		.loc 1 90 0
  81 0012 039B     		ldr	r3, [sp, #12]
  82              		.loc 1 91 0
  83 0014 1846     		mov	r0, r3
  84 0016 04B0     		add	sp, sp, #16
  85              		.cfi_def_cfa_offset 0
  86              		@ sp needed
  87 0018 7047     		bx	lr
  88              		.cfi_endproc
  89              	.LFE6:
  90              		.size	list_remove, .-list_remove
  91 001a 00BFAFF3 		.section	.text._thread_init,"ax",%progbits
  91      0080
  92              		.align	2
  93              		.p2align 4,,15
  94              		.global	_thread_init
  95              		.thumb
  96              		.thumb_func
  97              		.type	_thread_init, %function
  98              	_thread_init:
  99              	.LFB7:
 100              		.file 2 "/home/ergae/r2p-sdk/core/ChibiOS/os/kernel/src/chthreads.c"
 101              		.loc 2 76 0
 102              		.cfi_startproc
 103              		@ args = 0, pretend = 0, frame = 8
 104              		@ frame_needed = 0, uses_anonymous_args = 0
 105              		@ link register save eliminated.
 106 0000 82B0     		sub	sp, sp, #8
 107              		.cfi_def_cfa_offset 8
 108 0002 0190     		str	r0, [sp, #4]
 109 0004 0091     		str	r1, [sp]
 110              		.loc 2 78 0
 111 0006 019B     		ldr	r3, [sp, #4]
 112 0008 009A     		ldr	r2, [sp]
ARM GAS  /tmp/ccmRrK3u.s 			page 3


 113 000a 9A60     		str	r2, [r3, #8]
 114              		.loc 2 79 0
 115 000c 019B     		ldr	r3, [sp, #4]
 116 000e 0222     		movs	r2, #2
 117 0010 83F82020 		strb	r2, [r3, #32]
 118              		.loc 2 80 0
 119 0014 019B     		ldr	r3, [sp, #4]
 120 0016 0022     		movs	r2, #0
 121 0018 83F82120 		strb	r2, [r3, #33]
 122              		.loc 2 82 0
 123 001c 019B     		ldr	r3, [sp, #4]
 124 001e 1422     		movs	r2, #20
 125 0020 83F82320 		strb	r2, [r3, #35]
 126              		.loc 2 85 0
 127 0024 019B     		ldr	r3, [sp, #4]
 128 0026 009A     		ldr	r2, [sp]
 129 0028 5A64     		str	r2, [r3, #68]
 130              		.loc 2 86 0
 131 002a 019B     		ldr	r3, [sp, #4]
 132 002c 0022     		movs	r2, #0
 133 002e 1A64     		str	r2, [r3, #64]
 134              		.loc 2 89 0
 135 0030 019B     		ldr	r3, [sp, #4]
 136 0032 0022     		movs	r2, #0
 137 0034 DA63     		str	r2, [r3, #60]
 138              		.loc 2 92 0
 139 0036 019B     		ldr	r3, [sp, #4]
 140 0038 0022     		movs	r2, #0
 141 003a 5A62     		str	r2, [r3, #36]
 142              		.loc 2 95 0
 143 003c 019B     		ldr	r3, [sp, #4]
 144 003e 0122     		movs	r2, #1
 145 0040 83F82220 		strb	r2, [r3, #34]
 146              		.loc 2 98 0
 147 0044 019B     		ldr	r3, [sp, #4]
 148 0046 0022     		movs	r2, #0
 149 0048 9A61     		str	r2, [r3, #24]
 150              		.loc 2 99 0
 151 004a 019B     		ldr	r3, [sp, #4]
 152 004c 124A     		ldr	r2, .L6
 153 004e 1A61     		str	r2, [r3, #16]
 154 0050 114B     		ldr	r3, .L6
 155 0052 5A69     		ldr	r2, [r3, #20]
 156 0054 019B     		ldr	r3, [sp, #4]
 157 0056 5A61     		str	r2, [r3, #20]
 158 0058 019B     		ldr	r3, [sp, #4]
 159 005a 5B69     		ldr	r3, [r3, #20]
 160 005c 0E49     		ldr	r1, .L6
 161 005e 019A     		ldr	r2, [sp, #4]
 162 0060 4A61     		str	r2, [r1, #20]
 163 0062 0D4A     		ldr	r2, .L6
 164 0064 5269     		ldr	r2, [r2, #20]
 165 0066 1A61     		str	r2, [r3, #16]
 166              		.loc 2 102 0
 167 0068 019B     		ldr	r3, [sp, #4]
 168 006a 03F12C02 		add	r2, r3, #44
 169 006e 019B     		ldr	r3, [sp, #4]
ARM GAS  /tmp/ccmRrK3u.s 			page 4


 170 0070 DA62     		str	r2, [r3, #44]
 171              		.loc 2 105 0
 172 0072 019B     		ldr	r3, [sp, #4]
 173 0074 03F13002 		add	r2, r3, #48
 174 0078 019B     		ldr	r3, [sp, #4]
 175 007a 5A63     		str	r2, [r3, #52]
 176 007c 019B     		ldr	r3, [sp, #4]
 177 007e 5A6B     		ldr	r2, [r3, #52]
 178 0080 019B     		ldr	r3, [sp, #4]
 179 0082 1A63     		str	r2, [r3, #48]
 180              		.loc 2 108 0
 181 0084 019B     		ldr	r3, [sp, #4]
 182 0086 03F14C02 		add	r2, r3, #76
 183 008a 019B     		ldr	r3, [sp, #4]
 184 008c DA61     		str	r2, [r3, #28]
 185              		.loc 2 113 0
 186 008e 019B     		ldr	r3, [sp, #4]
 187              		.loc 2 114 0
 188 0090 1846     		mov	r0, r3
 189 0092 02B0     		add	sp, sp, #8
 190              		.cfi_def_cfa_offset 0
 191              		@ sp needed
 192 0094 7047     		bx	lr
 193              	.L7:
 194 0096 00BF     		.align	2
 195              	.L6:
 196 0098 00000000 		.word	rlist
 197              		.cfi_endproc
 198              	.LFE7:
 199              		.size	_thread_init, .-_thread_init
 200 009c AFF30080 		.section	.text._thread_memfill,"ax",%progbits
 201              		.align	2
 202              		.p2align 4,,15
 203              		.global	_thread_memfill
 204              		.thumb
 205              		.thumb_func
 206              		.type	_thread_memfill, %function
 207              	_thread_memfill:
 208              	.LFB8:
 209              		.loc 2 126 0
 210              		.cfi_startproc
 211              		@ args = 0, pretend = 0, frame = 16
 212              		@ frame_needed = 0, uses_anonymous_args = 0
 213              		@ link register save eliminated.
 214 0000 84B0     		sub	sp, sp, #16
 215              		.cfi_def_cfa_offset 16
 216 0002 0390     		str	r0, [sp, #12]
 217 0004 0291     		str	r1, [sp, #8]
 218 0006 1346     		mov	r3, r2
 219 0008 8DF80730 		strb	r3, [sp, #7]
 220              		.loc 2 128 0
 221 000c 05E0     		b	.L9
 222              	.L10:
 223              		.loc 2 129 0
 224 000e 039B     		ldr	r3, [sp, #12]
 225 0010 5A1C     		adds	r2, r3, #1
 226 0012 0392     		str	r2, [sp, #12]
ARM GAS  /tmp/ccmRrK3u.s 			page 5


 227 0014 9DF80720 		ldrb	r2, [sp, #7]
 228 0018 1A70     		strb	r2, [r3]
 229              	.L9:
 230              		.loc 2 128 0
 231 001a 039A     		ldr	r2, [sp, #12]
 232 001c 029B     		ldr	r3, [sp, #8]
 233 001e 9A42     		cmp	r2, r3
 234 0020 F5D3     		bcc	.L10
 235              		.loc 2 130 0
 236 0022 04B0     		add	sp, sp, #16
 237              		.cfi_def_cfa_offset 0
 238              		@ sp needed
 239 0024 7047     		bx	lr
 240              		.cfi_endproc
 241              	.LFE8:
 242              		.size	_thread_memfill, .-_thread_memfill
 243 0026 00BFAFF3 		.section	.rodata
 243      0080AFF3 
 243      0080
 244              		.align	2
 245              	.LC0:
 246 0000 22636854 		.ascii	"\"chThdCreateI\"()\000"
 246      68644372 
 246      65617465 
 246      49222829 
 246      00
 247              		.section	.text.chThdCreateI,"ax",%progbits
 248              		.align	2
 249              		.p2align 4,,15
 250              		.global	chThdCreateI
 251              		.thumb
 252              		.thumb_func
 253              		.type	chThdCreateI, %function
 254              	chThdCreateI:
 255              	.LFB9:
 256              		.loc 2 158 0
 257              		.cfi_startproc
 258              		@ args = 4, pretend = 0, frame = 24
 259              		@ frame_needed = 0, uses_anonymous_args = 0
 260 0000 00B5     		push	{lr}
 261              		.cfi_def_cfa_offset 4
 262              		.cfi_offset 14, -4
 263 0002 87B0     		sub	sp, sp, #28
 264              		.cfi_def_cfa_offset 32
 265 0004 0390     		str	r0, [sp, #12]
 266 0006 0291     		str	r1, [sp, #8]
 267 0008 0192     		str	r2, [sp, #4]
 268 000a 0093     		str	r3, [sp]
 269              		.loc 2 160 0
 270 000c 039B     		ldr	r3, [sp, #12]
 271 000e 0593     		str	r3, [sp, #20]
 272              		.loc 2 162 0
 273 0010 FFF7FEFF 		bl	chDbgCheckClassI
 274              		.loc 2 164 0
 275 0014 039B     		ldr	r3, [sp, #12]
 276 0016 002B     		cmp	r3, #0
 277 0018 09D0     		beq	.L12
ARM GAS  /tmp/ccmRrK3u.s 			page 6


 278              		.loc 2 164 0 is_stmt 0 discriminator 2
 279 001a 029B     		ldr	r3, [sp, #8]
 280 001c B3F5AC7F 		cmp	r3, #344
 281 0020 05D3     		bcc	.L12
 282              		.loc 2 164 0 discriminator 4
 283 0022 019B     		ldr	r3, [sp, #4]
 284 0024 7F2B     		cmp	r3, #127
 285 0026 02D8     		bhi	.L12
 286              		.loc 2 164 0 discriminator 6
 287 0028 009B     		ldr	r3, [sp]
 288 002a 002B     		cmp	r3, #0
 289 002c 02D1     		bne	.L13
 290              	.L12:
 291              		.loc 2 164 0 discriminator 7
 292 002e 0F48     		ldr	r0, .L15
 293 0030 FFF7FEFF 		bl	chDbgPanic
 294              	.L13:
 295              		.loc 2 167 0 is_stmt 1
 296 0034 029B     		ldr	r3, [sp, #8]
 297 0036 643B     		subs	r3, r3, #100
 298 0038 039A     		ldr	r2, [sp, #12]
 299 003a 1A44     		add	r2, r2, r3
 300 003c 059B     		ldr	r3, [sp, #20]
 301 003e DA60     		str	r2, [r3, #12]
 302 0040 059B     		ldr	r3, [sp, #20]
 303 0042 DB68     		ldr	r3, [r3, #12]
 304 0044 009A     		ldr	r2, [sp]
 305 0046 1A64     		str	r2, [r3, #64]
 306 0048 059B     		ldr	r3, [sp, #20]
 307 004a DB68     		ldr	r3, [r3, #12]
 308 004c 089A     		ldr	r2, [sp, #32]
 309 004e 5A64     		str	r2, [r3, #68]
 310 0050 059B     		ldr	r3, [sp, #20]
 311 0052 DB68     		ldr	r3, [r3, #12]
 312 0054 064A     		ldr	r2, .L15+4
 313 0056 1A66     		str	r2, [r3, #96]
 314              		.loc 2 168 0
 315 0058 0598     		ldr	r0, [sp, #20]
 316 005a 0199     		ldr	r1, [sp, #4]
 317 005c FFF7FEFF 		bl	_thread_init
 318 0060 0346     		mov	r3, r0
 319              		.loc 2 169 0
 320 0062 1846     		mov	r0, r3
 321 0064 07B0     		add	sp, sp, #28
 322              		.cfi_def_cfa_offset 4
 323              		@ sp needed
 324 0066 5DF804FB 		ldr	pc, [sp], #4
 325              	.L16:
 326 006a 00BF     		.align	2
 327              	.L15:
 328 006c 00000000 		.word	.LC0
 329 0070 00000000 		.word	_port_thread_start
 330              		.cfi_endproc
 331              	.LFE9:
 332              		.size	chThdCreateI, .-chThdCreateI
 333 0074 AFF30080 		.section	.text.chThdCreateStatic,"ax",%progbits
 333      AFF30080 
ARM GAS  /tmp/ccmRrK3u.s 			page 7


 333      AFF30080 
 334              		.align	2
 335              		.p2align 4,,15
 336              		.global	chThdCreateStatic
 337              		.thumb
 338              		.thumb_func
 339              		.type	chThdCreateStatic, %function
 340              	chThdCreateStatic:
 341              	.LFB10:
 342              		.loc 2 188 0
 343              		.cfi_startproc
 344              		@ args = 4, pretend = 0, frame = 24
 345              		@ frame_needed = 0, uses_anonymous_args = 0
 346 0000 00B5     		push	{lr}
 347              		.cfi_def_cfa_offset 4
 348              		.cfi_offset 14, -4
 349 0002 89B0     		sub	sp, sp, #36
 350              		.cfi_def_cfa_offset 40
 351 0004 0590     		str	r0, [sp, #20]
 352 0006 0491     		str	r1, [sp, #16]
 353 0008 0392     		str	r2, [sp, #12]
 354 000a 0293     		str	r3, [sp, #8]
 355              		.loc 2 192 0
 356 000c 059B     		ldr	r3, [sp, #20]
 357 000e 4C33     		adds	r3, r3, #76
 358 0010 0598     		ldr	r0, [sp, #20]
 359 0012 1946     		mov	r1, r3
 360 0014 FF22     		movs	r2, #255
 361 0016 FFF7FEFF 		bl	_thread_memfill
 362              		.loc 2 195 0
 363 001a 059B     		ldr	r3, [sp, #20]
 364 001c 03F14C01 		add	r1, r3, #76
 365 0020 059A     		ldr	r2, [sp, #20]
 366 0022 049B     		ldr	r3, [sp, #16]
 367 0024 1344     		add	r3, r3, r2
 368 0026 0846     		mov	r0, r1
 369 0028 1946     		mov	r1, r3
 370 002a 5522     		movs	r2, #85
 371 002c FFF7FEFF 		bl	_thread_memfill
 372              	.LBB2:
 373              		.loc 2 199 0
 374 0030 2023     		movs	r3, #32
 375              	@ 199 "/home/ergae/r2p-sdk/core/ChibiOS/os/kernel/src/chthreads.c" 1
 376 0032 83F31188 		msr     BASEPRI, r3
 377              	@ 0 "" 2
 378              		.thumb
 379              	.LBE2:
 380 0036 FFF7FEFF 		bl	dbg_check_lock
 381              		.loc 2 200 0
 382 003a 0A9B     		ldr	r3, [sp, #40]
 383 003c 0093     		str	r3, [sp]
 384 003e 0598     		ldr	r0, [sp, #20]
 385 0040 0499     		ldr	r1, [sp, #16]
 386 0042 039A     		ldr	r2, [sp, #12]
 387 0044 029B     		ldr	r3, [sp, #8]
 388 0046 FFF7FEFF 		bl	chThdCreateI
 389 004a 0790     		str	r0, [sp, #28]
ARM GAS  /tmp/ccmRrK3u.s 			page 8


 390 004c 0798     		ldr	r0, [sp, #28]
 391 004e 0021     		movs	r1, #0
 392 0050 FFF7FEFF 		bl	chSchWakeupS
 393              		.loc 2 201 0
 394 0054 FFF7FEFF 		bl	dbg_check_unlock
 395              	.LBB3:
 396 0058 0023     		movs	r3, #0
 397              	@ 201 "/home/ergae/r2p-sdk/core/ChibiOS/os/kernel/src/chthreads.c" 1
 398 005a 83F31188 		msr     BASEPRI, r3
 399              	@ 0 "" 2
 400              		.thumb
 401              	.LBE3:
 402              		.loc 2 202 0
 403 005e 079B     		ldr	r3, [sp, #28]
 404              		.loc 2 203 0
 405 0060 1846     		mov	r0, r3
 406 0062 09B0     		add	sp, sp, #36
 407              		.cfi_def_cfa_offset 4
 408              		@ sp needed
 409 0064 5DF804FB 		ldr	pc, [sp], #4
 410              		.cfi_endproc
 411              	.LFE10:
 412              		.size	chThdCreateStatic, .-chThdCreateStatic
 413 0068 AFF30080 		.section	.rodata
 413      AFF30080 
 414 0011 000000   		.align	2
 415              	.LC1:
 416 0014 22636854 		.ascii	"\"chThdSetPriority\"()\000"
 416      68645365 
 416      74507269 
 416      6F726974 
 416      79222829 
 417              		.section	.text.chThdSetPriority,"ax",%progbits
 418              		.align	2
 419              		.p2align 4,,15
 420              		.global	chThdSetPriority
 421              		.thumb
 422              		.thumb_func
 423              		.type	chThdSetPriority, %function
 424              	chThdSetPriority:
 425              	.LFB11:
 426              		.loc 2 217 0
 427              		.cfi_startproc
 428              		@ args = 0, pretend = 0, frame = 16
 429              		@ frame_needed = 0, uses_anonymous_args = 0
 430 0000 00B5     		push	{lr}
 431              		.cfi_def_cfa_offset 4
 432              		.cfi_offset 14, -4
 433 0002 85B0     		sub	sp, sp, #20
 434              		.cfi_def_cfa_offset 24
 435 0004 0190     		str	r0, [sp, #4]
 436              		.loc 2 220 0
 437 0006 019B     		ldr	r3, [sp, #4]
 438 0008 7F2B     		cmp	r3, #127
 439 000a 02D9     		bls	.L20
 440              		.loc 2 220 0 is_stmt 0 discriminator 1
 441 000c 1648     		ldr	r0, .L24
ARM GAS  /tmp/ccmRrK3u.s 			page 9


 442 000e FFF7FEFF 		bl	chDbgPanic
 443              	.L20:
 444              	.LBB4:
 445              		.loc 2 222 0 is_stmt 1
 446 0012 2023     		movs	r3, #32
 447              	@ 222 "/home/ergae/r2p-sdk/core/ChibiOS/os/kernel/src/chthreads.c" 1
 448 0014 83F31188 		msr     BASEPRI, r3
 449              	@ 0 "" 2
 450              		.thumb
 451              	.LBE4:
 452 0018 FFF7FEFF 		bl	dbg_check_lock
 453              		.loc 2 224 0
 454 001c 134B     		ldr	r3, .L24+4
 455 001e 9B69     		ldr	r3, [r3, #24]
 456 0020 5B6C     		ldr	r3, [r3, #68]
 457 0022 0393     		str	r3, [sp, #12]
 458              		.loc 2 225 0
 459 0024 114B     		ldr	r3, .L24+4
 460 0026 9B69     		ldr	r3, [r3, #24]
 461 0028 9A68     		ldr	r2, [r3, #8]
 462 002a 104B     		ldr	r3, .L24+4
 463 002c 9B69     		ldr	r3, [r3, #24]
 464 002e 5B6C     		ldr	r3, [r3, #68]
 465 0030 9A42     		cmp	r2, r3
 466 0032 05D0     		beq	.L21
 467              		.loc 2 225 0 is_stmt 0 discriminator 1
 468 0034 0D4B     		ldr	r3, .L24+4
 469 0036 9B69     		ldr	r3, [r3, #24]
 470 0038 9A68     		ldr	r2, [r3, #8]
 471 003a 019B     		ldr	r3, [sp, #4]
 472 003c 9A42     		cmp	r2, r3
 473 003e 03D2     		bcs	.L22
 474              	.L21:
 475              		.loc 2 226 0 is_stmt 1
 476 0040 0A4B     		ldr	r3, .L24+4
 477 0042 9B69     		ldr	r3, [r3, #24]
 478 0044 019A     		ldr	r2, [sp, #4]
 479 0046 9A60     		str	r2, [r3, #8]
 480              	.L22:
 481              		.loc 2 227 0
 482 0048 084B     		ldr	r3, .L24+4
 483 004a 9B69     		ldr	r3, [r3, #24]
 484 004c 019A     		ldr	r2, [sp, #4]
 485 004e 5A64     		str	r2, [r3, #68]
 486              		.loc 2 232 0
 487 0050 FFF7FEFF 		bl	chSchRescheduleS
 488              		.loc 2 233 0
 489 0054 FFF7FEFF 		bl	dbg_check_unlock
 490              	.LBB5:
 491 0058 0023     		movs	r3, #0
 492              	@ 233 "/home/ergae/r2p-sdk/core/ChibiOS/os/kernel/src/chthreads.c" 1
 493 005a 83F31188 		msr     BASEPRI, r3
 494              	@ 0 "" 2
 495              		.thumb
 496              	.LBE5:
 497              		.loc 2 234 0
 498 005e 039B     		ldr	r3, [sp, #12]
ARM GAS  /tmp/ccmRrK3u.s 			page 10


 499              		.loc 2 235 0
 500 0060 1846     		mov	r0, r3
 501 0062 05B0     		add	sp, sp, #20
 502              		.cfi_def_cfa_offset 4
 503              		@ sp needed
 504 0064 5DF804FB 		ldr	pc, [sp], #4
 505              	.L25:
 506              		.align	2
 507              	.L24:
 508 0068 14000000 		.word	.LC1
 509 006c 00000000 		.word	rlist
 510              		.cfi_endproc
 511              	.LFE11:
 512              		.size	chThdSetPriority, .-chThdSetPriority
 513              		.section	.rodata
 514 0029 000000   		.align	2
 515              	.LC2:
 516 002c 63685468 		.ascii	"chThdResume(), #1\000"
 516      64526573 
 516      756D6528 
 516      292C2023 
 516      3100
 517              		.section	.text.chThdResume,"ax",%progbits
 518              		.align	2
 519              		.p2align 4,,15
 520              		.global	chThdResume
 521              		.thumb
 522              		.thumb_func
 523              		.type	chThdResume, %function
 524              	chThdResume:
 525              	.LFB12:
 526              		.loc 2 250 0
 527              		.cfi_startproc
 528              		@ args = 0, pretend = 0, frame = 8
 529              		@ frame_needed = 0, uses_anonymous_args = 0
 530 0000 00B5     		push	{lr}
 531              		.cfi_def_cfa_offset 4
 532              		.cfi_offset 14, -4
 533 0002 83B0     		sub	sp, sp, #12
 534              		.cfi_def_cfa_offset 16
 535 0004 0190     		str	r0, [sp, #4]
 536              	.LBB6:
 537              		.loc 2 252 0
 538 0006 2023     		movs	r3, #32
 539              	@ 252 "/home/ergae/r2p-sdk/core/ChibiOS/os/kernel/src/chthreads.c" 1
 540 0008 83F31188 		msr     BASEPRI, r3
 541              	@ 0 "" 2
 542              		.thumb
 543              	.LBE6:
 544 000c FFF7FEFF 		bl	dbg_check_lock
 545              		.loc 2 253 0
 546 0010 019B     		ldr	r3, [sp, #4]
 547 0012 93F82030 		ldrb	r3, [r3, #32]	@ zero_extendqisi2
 548 0016 022B     		cmp	r3, #2
 549 0018 02D0     		beq	.L27
 550              		.loc 2 253 0 is_stmt 0 discriminator 1
 551 001a 0848     		ldr	r0, .L29
ARM GAS  /tmp/ccmRrK3u.s 			page 11


 552 001c FFF7FEFF 		bl	chDbgPanic
 553              	.L27:
 554              		.loc 2 256 0 is_stmt 1
 555 0020 0198     		ldr	r0, [sp, #4]
 556 0022 0021     		movs	r1, #0
 557 0024 FFF7FEFF 		bl	chSchWakeupS
 558              		.loc 2 257 0
 559 0028 FFF7FEFF 		bl	dbg_check_unlock
 560              	.LBB7:
 561 002c 0023     		movs	r3, #0
 562              	@ 257 "/home/ergae/r2p-sdk/core/ChibiOS/os/kernel/src/chthreads.c" 1
 563 002e 83F31188 		msr     BASEPRI, r3
 564              	@ 0 "" 2
 565              		.thumb
 566              	.LBE7:
 567              		.loc 2 258 0
 568 0032 019B     		ldr	r3, [sp, #4]
 569              		.loc 2 259 0
 570 0034 1846     		mov	r0, r3
 571 0036 03B0     		add	sp, sp, #12
 572              		.cfi_def_cfa_offset 4
 573              		@ sp needed
 574 0038 5DF804FB 		ldr	pc, [sp], #4
 575              	.L30:
 576              		.align	2
 577              	.L29:
 578 003c 2C000000 		.word	.LC2
 579              		.cfi_endproc
 580              	.LFE12:
 581              		.size	chThdResume, .-chThdResume
 582              		.section	.text.chThdTerminate,"ax",%progbits
 583              		.align	2
 584              		.p2align 4,,15
 585              		.global	chThdTerminate
 586              		.thumb
 587              		.thumb_func
 588              		.type	chThdTerminate, %function
 589              	chThdTerminate:
 590              	.LFB13:
 591              		.loc 2 273 0
 592              		.cfi_startproc
 593              		@ args = 0, pretend = 0, frame = 8
 594              		@ frame_needed = 0, uses_anonymous_args = 0
 595 0000 00B5     		push	{lr}
 596              		.cfi_def_cfa_offset 4
 597              		.cfi_offset 14, -4
 598 0002 83B0     		sub	sp, sp, #12
 599              		.cfi_def_cfa_offset 16
 600 0004 0190     		str	r0, [sp, #4]
 601              	.LBB8:
 602              		.loc 2 275 0
 603 0006 2023     		movs	r3, #32
 604              	@ 275 "/home/ergae/r2p-sdk/core/ChibiOS/os/kernel/src/chthreads.c" 1
 605 0008 83F31188 		msr     BASEPRI, r3
 606              	@ 0 "" 2
 607              		.thumb
 608              	.LBE8:
ARM GAS  /tmp/ccmRrK3u.s 			page 12


 609 000c FFF7FEFF 		bl	dbg_check_lock
 610              		.loc 2 276 0
 611 0010 019B     		ldr	r3, [sp, #4]
 612 0012 93F82130 		ldrb	r3, [r3, #33]	@ zero_extendqisi2
 613 0016 43F00403 		orr	r3, r3, #4
 614 001a DAB2     		uxtb	r2, r3
 615 001c 019B     		ldr	r3, [sp, #4]
 616 001e 83F82120 		strb	r2, [r3, #33]
 617              		.loc 2 277 0
 618 0022 FFF7FEFF 		bl	dbg_check_unlock
 619              	.LBB9:
 620 0026 0023     		movs	r3, #0
 621              	@ 277 "/home/ergae/r2p-sdk/core/ChibiOS/os/kernel/src/chthreads.c" 1
 622 0028 83F31188 		msr     BASEPRI, r3
 623              	@ 0 "" 2
 624              		.thumb
 625              	.LBE9:
 626              		.loc 2 278 0
 627 002c 03B0     		add	sp, sp, #12
 628              		.cfi_def_cfa_offset 4
 629              		@ sp needed
 630 002e 5DF804FB 		ldr	pc, [sp], #4
 631              		.cfi_endproc
 632              	.LFE13:
 633              		.size	chThdTerminate, .-chThdTerminate
 634 0032 00BFAFF3 		.section	.rodata
 634      0080AFF3 
 634      0080AFF3 
 634      0080
 635 003e 0000     		.align	2
 636              	.LC3:
 637 0040 22636854 		.ascii	"\"chThdSleep\"()\000"
 637      6864536C 
 637      65657022 
 637      282900
 638              		.section	.text.chThdSleep,"ax",%progbits
 639              		.align	2
 640              		.p2align 4,,15
 641              		.global	chThdSleep
 642              		.thumb
 643              		.thumb_func
 644              		.type	chThdSleep, %function
 645              	chThdSleep:
 646              	.LFB14:
 647              		.loc 2 292 0
 648              		.cfi_startproc
 649              		@ args = 0, pretend = 0, frame = 8
 650              		@ frame_needed = 0, uses_anonymous_args = 0
 651 0000 00B5     		push	{lr}
 652              		.cfi_def_cfa_offset 4
 653              		.cfi_offset 14, -4
 654 0002 83B0     		sub	sp, sp, #12
 655              		.cfi_def_cfa_offset 16
 656 0004 0190     		str	r0, [sp, #4]
 657              		.loc 2 294 0
 658 0006 019B     		ldr	r3, [sp, #4]
 659 0008 002B     		cmp	r3, #0
ARM GAS  /tmp/ccmRrK3u.s 			page 13


 660 000a 02D1     		bne	.L33
 661              		.loc 2 294 0 is_stmt 0 discriminator 1
 662 000c 0948     		ldr	r0, .L34
 663 000e FFF7FEFF 		bl	chDbgPanic
 664              	.L33:
 665              	.LBB10:
 666              		.loc 2 296 0 is_stmt 1
 667 0012 2023     		movs	r3, #32
 668              	@ 296 "/home/ergae/r2p-sdk/core/ChibiOS/os/kernel/src/chthreads.c" 1
 669 0014 83F31188 		msr     BASEPRI, r3
 670              	@ 0 "" 2
 671              		.thumb
 672              	.LBE10:
 673 0018 FFF7FEFF 		bl	dbg_check_lock
 674              		.loc 2 297 0
 675 001c 0620     		movs	r0, #6
 676 001e 0199     		ldr	r1, [sp, #4]
 677 0020 FFF7FEFF 		bl	chSchGoSleepTimeoutS
 678              		.loc 2 298 0
 679 0024 FFF7FEFF 		bl	dbg_check_unlock
 680              	.LBB11:
 681 0028 0023     		movs	r3, #0
 682              	@ 298 "/home/ergae/r2p-sdk/core/ChibiOS/os/kernel/src/chthreads.c" 1
 683 002a 83F31188 		msr     BASEPRI, r3
 684              	@ 0 "" 2
 685              		.thumb
 686              	.LBE11:
 687              		.loc 2 299 0
 688 002e 03B0     		add	sp, sp, #12
 689              		.cfi_def_cfa_offset 4
 690              		@ sp needed
 691 0030 5DF804FB 		ldr	pc, [sp], #4
 692              	.L35:
 693              		.align	2
 694              	.L34:
 695 0034 40000000 		.word	.LC3
 696              		.cfi_endproc
 697              	.LFE14:
 698              		.size	chThdSleep, .-chThdSleep
 699 0038 AFF30080 		.section	.text.chThdSleepUntil,"ax",%progbits
 699      AFF30080 
 700              		.align	2
 701              		.p2align 4,,15
 702              		.global	chThdSleepUntil
 703              		.thumb
 704              		.thumb_func
 705              		.type	chThdSleepUntil, %function
 706              	chThdSleepUntil:
 707              	.LFB15:
 708              		.loc 2 309 0
 709              		.cfi_startproc
 710              		@ args = 0, pretend = 0, frame = 8
 711              		@ frame_needed = 0, uses_anonymous_args = 0
 712 0000 00B5     		push	{lr}
 713              		.cfi_def_cfa_offset 4
 714              		.cfi_offset 14, -4
 715 0002 83B0     		sub	sp, sp, #12
ARM GAS  /tmp/ccmRrK3u.s 			page 14


 716              		.cfi_def_cfa_offset 16
 717 0004 0190     		str	r0, [sp, #4]
 718              	.LBB12:
 719              		.loc 2 311 0
 720 0006 2023     		movs	r3, #32
 721              	@ 311 "/home/ergae/r2p-sdk/core/ChibiOS/os/kernel/src/chthreads.c" 1
 722 0008 83F31188 		msr     BASEPRI, r3
 723              	@ 0 "" 2
 724              		.thumb
 725              	.LBE12:
 726 000c FFF7FEFF 		bl	dbg_check_lock
 727              		.loc 2 312 0
 728 0010 094B     		ldr	r3, .L38
 729 0012 DB68     		ldr	r3, [r3, #12]
 730 0014 019A     		ldr	r2, [sp, #4]
 731 0016 D31A     		subs	r3, r2, r3
 732 0018 0193     		str	r3, [sp, #4]
 733 001a 019B     		ldr	r3, [sp, #4]
 734 001c 002B     		cmp	r3, #0
 735 001e 03D0     		beq	.L37
 736              		.loc 2 313 0
 737 0020 0620     		movs	r0, #6
 738 0022 0199     		ldr	r1, [sp, #4]
 739 0024 FFF7FEFF 		bl	chSchGoSleepTimeoutS
 740              	.L37:
 741              		.loc 2 314 0
 742 0028 FFF7FEFF 		bl	dbg_check_unlock
 743              	.LBB13:
 744 002c 0023     		movs	r3, #0
 745              	@ 314 "/home/ergae/r2p-sdk/core/ChibiOS/os/kernel/src/chthreads.c" 1
 746 002e 83F31188 		msr     BASEPRI, r3
 747              	@ 0 "" 2
 748              		.thumb
 749              	.LBE13:
 750              		.loc 2 315 0
 751 0032 03B0     		add	sp, sp, #12
 752              		.cfi_def_cfa_offset 4
 753              		@ sp needed
 754 0034 5DF804FB 		ldr	pc, [sp], #4
 755              	.L39:
 756              		.align	2
 757              	.L38:
 758 0038 00000000 		.word	vtlist
 759              		.cfi_endproc
 760              	.LFE15:
 761              		.size	chThdSleepUntil, .-chThdSleepUntil
 762 003c AFF30080 		.section	.text.chThdYield,"ax",%progbits
 763              		.align	2
 764              		.p2align 4,,15
 765              		.global	chThdYield
 766              		.thumb
 767              		.thumb_func
 768              		.type	chThdYield, %function
 769              	chThdYield:
 770              	.LFB16:
 771              		.loc 2 324 0
 772              		.cfi_startproc
ARM GAS  /tmp/ccmRrK3u.s 			page 15


 773              		@ args = 0, pretend = 0, frame = 0
 774              		@ frame_needed = 0, uses_anonymous_args = 0
 775 0000 08B5     		push	{r3, lr}
 776              		.cfi_def_cfa_offset 8
 777              		.cfi_offset 3, -8
 778              		.cfi_offset 14, -4
 779              	.LBB14:
 780              		.loc 2 326 0
 781 0002 2023     		movs	r3, #32
 782              	@ 326 "/home/ergae/r2p-sdk/core/ChibiOS/os/kernel/src/chthreads.c" 1
 783 0004 83F31188 		msr     BASEPRI, r3
 784              	@ 0 "" 2
 785              		.thumb
 786              	.LBE14:
 787 0008 FFF7FEFF 		bl	dbg_check_lock
 788              		.loc 2 327 0
 789 000c 074B     		ldr	r3, .L42
 790 000e 1B68     		ldr	r3, [r3]
 791 0010 9A68     		ldr	r2, [r3, #8]
 792 0012 064B     		ldr	r3, .L42
 793 0014 9B69     		ldr	r3, [r3, #24]
 794 0016 9B68     		ldr	r3, [r3, #8]
 795 0018 9A42     		cmp	r2, r3
 796 001a 01D3     		bcc	.L41
 797              		.loc 2 327 0 is_stmt 0 discriminator 1
 798 001c FFF7FEFF 		bl	chSchDoRescheduleBehind
 799              	.L41:
 800              		.loc 2 328 0 is_stmt 1
 801 0020 FFF7FEFF 		bl	dbg_check_unlock
 802              	.LBB15:
 803 0024 0023     		movs	r3, #0
 804              	@ 328 "/home/ergae/r2p-sdk/core/ChibiOS/os/kernel/src/chthreads.c" 1
 805 0026 83F31188 		msr     BASEPRI, r3
 806              	@ 0 "" 2
 807              		.thumb
 808              	.LBE15:
 809              		.loc 2 329 0
 810 002a 08BD     		pop	{r3, pc}
 811              	.L43:
 812              		.align	2
 813              	.L42:
 814 002c 00000000 		.word	rlist
 815              		.cfi_endproc
 816              	.LFE16:
 817              		.size	chThdYield, .-chThdYield
 818              		.section	.text.chThdExit,"ax",%progbits
 819              		.align	2
 820              		.p2align 4,,15
 821              		.global	chThdExit
 822              		.thumb
 823              		.thumb_func
 824              		.type	chThdExit, %function
 825              	chThdExit:
 826              	.LFB17:
 827              		.loc 2 345 0
 828              		.cfi_startproc
 829              		@ args = 0, pretend = 0, frame = 8
ARM GAS  /tmp/ccmRrK3u.s 			page 16


 830              		@ frame_needed = 0, uses_anonymous_args = 0
 831 0000 00B5     		push	{lr}
 832              		.cfi_def_cfa_offset 4
 833              		.cfi_offset 14, -4
 834 0002 83B0     		sub	sp, sp, #12
 835              		.cfi_def_cfa_offset 16
 836 0004 0190     		str	r0, [sp, #4]
 837              	.LBB16:
 838              		.loc 2 347 0
 839 0006 2023     		movs	r3, #32
 840              	@ 347 "/home/ergae/r2p-sdk/core/ChibiOS/os/kernel/src/chthreads.c" 1
 841 0008 83F31188 		msr     BASEPRI, r3
 842              	@ 0 "" 2
 843              		.thumb
 844              	.LBE16:
 845 000c FFF7FEFF 		bl	dbg_check_lock
 846              		.loc 2 348 0
 847 0010 0198     		ldr	r0, [sp, #4]
 848 0012 FFF7FEFF 		bl	chThdExitS
 849              		.loc 2 350 0
 850 0016 03B0     		add	sp, sp, #12
 851              		.cfi_def_cfa_offset 4
 852              		@ sp needed
 853 0018 5DF804FB 		ldr	pc, [sp], #4
 854              		.cfi_endproc
 855              	.LFE17:
 856              		.size	chThdExit, .-chThdExit
 857 001c AFF30080 		.section	.rodata
 858 004f 00       		.align	2
 859              	.LC4:
 860 0050 63685468 		.ascii	"chThdExitS(), #1\000"
 860      64457869 
 860      74532829 
 860      2C202331 
 860      00
 861              		.section	.text.chThdExitS,"ax",%progbits
 862              		.align	2
 863              		.p2align 4,,15
 864              		.global	chThdExitS
 865              		.thumb
 866              		.thumb_func
 867              		.type	chThdExitS, %function
 868              	chThdExitS:
 869              	.LFB18:
 870              		.loc 2 366 0
 871              		.cfi_startproc
 872              		@ args = 0, pretend = 0, frame = 16
 873              		@ frame_needed = 0, uses_anonymous_args = 0
 874 0000 00B5     		push	{lr}
 875              		.cfi_def_cfa_offset 4
 876              		.cfi_offset 14, -4
 877 0002 85B0     		sub	sp, sp, #20
 878              		.cfi_def_cfa_offset 24
 879 0004 0190     		str	r0, [sp, #4]
 880              		.loc 2 367 0
 881 0006 184B     		ldr	r3, .L49
 882 0008 9B69     		ldr	r3, [r3, #24]
ARM GAS  /tmp/ccmRrK3u.s 			page 17


 883 000a 0393     		str	r3, [sp, #12]
 884              		.loc 2 369 0
 885 000c 039B     		ldr	r3, [sp, #12]
 886 000e 019A     		ldr	r2, [sp, #4]
 887 0010 9A62     		str	r2, [r3, #40]
 888              		.loc 2 374 0
 889 0012 08E0     		b	.L46
 890              	.L47:
 891              		.loc 2 375 0
 892 0014 039B     		ldr	r3, [sp, #12]
 893 0016 2C33     		adds	r3, r3, #44
 894 0018 1846     		mov	r0, r3
 895 001a FFF7FEFF 		bl	list_remove
 896 001e 0346     		mov	r3, r0
 897 0020 1846     		mov	r0, r3
 898 0022 FFF7FEFF 		bl	chSchReadyI
 899              	.L46:
 900              		.loc 2 374 0
 901 0026 039B     		ldr	r3, [sp, #12]
 902 0028 DA6A     		ldr	r2, [r3, #44]
 903 002a 039B     		ldr	r3, [sp, #12]
 904 002c 2C33     		adds	r3, r3, #44
 905 002e 9A42     		cmp	r2, r3
 906 0030 F0D1     		bne	.L47
 907              		.loc 2 380 0
 908 0032 039B     		ldr	r3, [sp, #12]
 909 0034 93F82130 		ldrb	r3, [r3, #33]	@ zero_extendqisi2
 910 0038 03F00303 		and	r3, r3, #3
 911 003c 002B     		cmp	r3, #0
 912 003e 09D1     		bne	.L48
 913              		.loc 2 381 0
 914 0040 039B     		ldr	r3, [sp, #12]
 915 0042 5B69     		ldr	r3, [r3, #20]
 916 0044 039A     		ldr	r2, [sp, #12]
 917 0046 1269     		ldr	r2, [r2, #16]
 918 0048 1A61     		str	r2, [r3, #16]
 919 004a 039B     		ldr	r3, [sp, #12]
 920 004c 1B69     		ldr	r3, [r3, #16]
 921 004e 039A     		ldr	r2, [sp, #12]
 922 0050 5269     		ldr	r2, [r2, #20]
 923 0052 5A61     		str	r2, [r3, #20]
 924              	.L48:
 925              		.loc 2 383 0
 926 0054 0E20     		movs	r0, #14
 927 0056 FFF7FEFF 		bl	chSchGoSleepS
 928              		.loc 2 385 0
 929 005a 0448     		ldr	r0, .L49+4
 930 005c FFF7FEFF 		bl	chDbgPanic
 931              		.loc 2 386 0
 932 0060 05B0     		add	sp, sp, #20
 933              		.cfi_def_cfa_offset 4
 934              		@ sp needed
 935 0062 5DF804FB 		ldr	pc, [sp], #4
 936              	.L50:
 937 0066 00BF     		.align	2
 938              	.L49:
 939 0068 00000000 		.word	rlist
ARM GAS  /tmp/ccmRrK3u.s 			page 18


 940 006c 50000000 		.word	.LC4
 941              		.cfi_endproc
 942              	.LFE18:
 943              		.size	chThdExitS, .-chThdExitS
 944              		.section	.rodata
 945 0061 000000   		.align	2
 946              	.LC5:
 947 0064 22636854 		.ascii	"\"chThdWait\"()\000"
 947      68645761 
 947      69742228 
 947      2900
 948 0072 0000     		.align	2
 949              	.LC6:
 950 0074 63685468 		.ascii	"chThdWait(), #1\000"
 950      64576169 
 950      7428292C 
 950      20233100 
 951              		.align	2
 952              	.LC7:
 953 0084 63685468 		.ascii	"chThdWait(), #2\000"
 953      64576169 
 953      7428292C 
 953      20233200 
 954              		.section	.text.chThdWait,"ax",%progbits
 955              		.align	2
 956              		.p2align 4,,15
 957              		.global	chThdWait
 958              		.thumb
 959              		.thumb_func
 960              		.type	chThdWait, %function
 961              	chThdWait:
 962              	.LFB19:
 963              		.loc 2 420 0
 964              		.cfi_startproc
 965              		@ args = 0, pretend = 0, frame = 16
 966              		@ frame_needed = 0, uses_anonymous_args = 0
 967 0000 00B5     		push	{lr}
 968              		.cfi_def_cfa_offset 4
 969              		.cfi_offset 14, -4
 970 0002 85B0     		sub	sp, sp, #20
 971              		.cfi_def_cfa_offset 24
 972 0004 0190     		str	r0, [sp, #4]
 973              		.loc 2 423 0
 974 0006 019B     		ldr	r3, [sp, #4]
 975 0008 002B     		cmp	r3, #0
 976 000a 02D1     		bne	.L52
 977              		.loc 2 423 0 is_stmt 0 discriminator 1
 978 000c 1B48     		ldr	r0, .L57
 979 000e FFF7FEFF 		bl	chDbgPanic
 980              	.L52:
 981              	.LBB17:
 982              		.loc 2 425 0 is_stmt 1
 983 0012 2023     		movs	r3, #32
 984              	@ 425 "/home/ergae/r2p-sdk/core/ChibiOS/os/kernel/src/chthreads.c" 1
 985 0014 83F31188 		msr     BASEPRI, r3
 986              	@ 0 "" 2
 987              		.thumb
ARM GAS  /tmp/ccmRrK3u.s 			page 19


 988              	.LBE17:
 989 0018 FFF7FEFF 		bl	dbg_check_lock
 990              		.loc 2 426 0
 991 001c 184B     		ldr	r3, .L57+4
 992 001e 9A69     		ldr	r2, [r3, #24]
 993 0020 019B     		ldr	r3, [sp, #4]
 994 0022 9A42     		cmp	r2, r3
 995 0024 02D1     		bne	.L53
 996              		.loc 2 426 0 is_stmt 0 discriminator 1
 997 0026 1748     		ldr	r0, .L57+8
 998 0028 FFF7FEFF 		bl	chDbgPanic
 999              	.L53:
 1000              		.loc 2 428 0 is_stmt 1
 1001 002c 019B     		ldr	r3, [sp, #4]
 1002 002e 93F82230 		ldrb	r3, [r3, #34]	@ zero_extendqisi2
 1003 0032 002B     		cmp	r3, #0
 1004 0034 02D1     		bne	.L54
 1005              		.loc 2 428 0 is_stmt 0 discriminator 1
 1006 0036 1448     		ldr	r0, .L57+12
 1007 0038 FFF7FEFF 		bl	chDbgPanic
 1008              	.L54:
 1009              		.loc 2 430 0 is_stmt 1
 1010 003c 019B     		ldr	r3, [sp, #4]
 1011 003e 93F82030 		ldrb	r3, [r3, #32]	@ zero_extendqisi2
 1012 0042 0E2B     		cmp	r3, #14
 1013 0044 0AD0     		beq	.L55
 1014              		.loc 2 431 0
 1015 0046 0E4B     		ldr	r3, .L57+4
 1016 0048 9A69     		ldr	r2, [r3, #24]
 1017 004a 019B     		ldr	r3, [sp, #4]
 1018 004c 2C33     		adds	r3, r3, #44
 1019 004e 1046     		mov	r0, r2
 1020 0050 1946     		mov	r1, r3
 1021 0052 FFF7FEFF 		bl	list_insert
 1022              		.loc 2 432 0
 1023 0056 0720     		movs	r0, #7
 1024 0058 FFF7FEFF 		bl	chSchGoSleepS
 1025              	.L55:
 1026              		.loc 2 434 0
 1027 005c 019B     		ldr	r3, [sp, #4]
 1028 005e 9B6A     		ldr	r3, [r3, #40]
 1029 0060 0393     		str	r3, [sp, #12]
 1030              		.loc 2 435 0
 1031 0062 FFF7FEFF 		bl	dbg_check_unlock
 1032              	.LBB18:
 1033 0066 0023     		movs	r3, #0
 1034              	@ 435 "/home/ergae/r2p-sdk/core/ChibiOS/os/kernel/src/chthreads.c" 1
 1035 0068 83F31188 		msr     BASEPRI, r3
 1036              	@ 0 "" 2
 1037              		.thumb
 1038              	.LBE18:
 1039              		.loc 2 437 0
 1040 006c 0198     		ldr	r0, [sp, #4]
 1041 006e FFF7FEFF 		bl	chThdRelease
 1042              		.loc 2 439 0
 1043 0072 039B     		ldr	r3, [sp, #12]
 1044              		.loc 2 440 0
ARM GAS  /tmp/ccmRrK3u.s 			page 20


 1045 0074 1846     		mov	r0, r3
 1046 0076 05B0     		add	sp, sp, #20
 1047              		.cfi_def_cfa_offset 4
 1048              		@ sp needed
 1049 0078 5DF804FB 		ldr	pc, [sp], #4
 1050              	.L58:
 1051              		.align	2
 1052              	.L57:
 1053 007c 64000000 		.word	.LC5
 1054 0080 00000000 		.word	rlist
 1055 0084 74000000 		.word	.LC6
 1056 0088 84000000 		.word	.LC7
 1057              		.cfi_endproc
 1058              	.LFE19:
 1059              		.size	chThdWait, .-chThdWait
 1060 008c AFF30080 		.text
 1061              	.Letext0:
 1062              		.file 3 "/home/ergae/r2p-sdk/tools/gcc-arm-none-eabi-4_9-2014q4/lib/gcc/arm-none-eabi/4.9.3/includ
 1063              		.file 4 "/home/ergae/r2p-sdk/tools/gcc-arm-none-eabi-4_9-2014q4/arm-none-eabi/include/machine/_def
 1064              		.file 5 "/home/ergae/r2p-sdk/tools/gcc-arm-none-eabi-4_9-2014q4/arm-none-eabi/include/stdint.h"
 1065              		.file 6 "/home/ergae/r2p-sdk/core/ChibiOS/os/ports/GCC/ARMCMx/chtypes.h"
 1066              		.file 7 "/home/ergae/r2p-sdk/core/ChibiOS/os/kernel/include/chlists.h"
 1067              		.file 8 "/home/ergae/r2p-sdk/core/ChibiOS/os/kernel/include/chthreads.h"
 1068              		.file 9 "/home/ergae/r2p-sdk/core/ChibiOS/os/ports/GCC/ARMCMx/chcore_v7m.h"
 1069              		.file 10 "/home/ergae/r2p-sdk/core/ChibiOS/os/kernel/include/chvt.h"
 1070              		.file 11 "/home/ergae/r2p-sdk/core/ChibiOS/os/kernel/include/chschd.h"
 1071              		.file 12 "/home/ergae/r2p-sdk/core/ChibiOS/os/kernel/include/chmtx.h"