ARM GAS  /tmp/cc0CQteT.s 			page 1


   1              		.syntax unified
   2              		.cpu cortex-m4
   3              		.eabi_attribute 27, 3
   4              		.eabi_attribute 28, 1
   5              		.fpu fpv4-sp-d16
   6              		.eabi_attribute 20, 1
   7              		.eabi_attribute 21, 1
   8              		.eabi_attribute 23, 3
   9              		.eabi_attribute 24, 1
  10              		.eabi_attribute 25, 1
  11              		.eabi_attribute 26, 1
  12              		.eabi_attribute 30, 6
  13              		.eabi_attribute 34, 1
  14              		.eabi_attribute 18, 4
  15              		.thumb
  16              		.file	"crt0.c"
  17              		.text
  18              	.Ltext0:
  19              		.cfi_sections	.debug_frame
  20              		.section	.text.__early_init,"ax",%progbits
  21              		.align	2
  22              		.p2align 4,,15
  23              		.weak	__early_init
  24              		.thumb
  25              		.thumb_func
  26              		.type	__early_init, %function
  27              	__early_init:
  28              	.LFB0:
  29              		.file 1 "/home/ergae/r2p-sdk/core/ChibiOS/os/ports/GCC/ARMCMx/crt0.c"
  30              		.loc 1 234 0
  31              		.cfi_startproc
  32              		@ args = 0, pretend = 0, frame = 0
  33              		@ frame_needed = 0, uses_anonymous_args = 0
  34              		@ link register save eliminated.
  35              		.loc 1 234 0
  36 0000 7047     		bx	lr
  37              		.cfi_endproc
  38              	.LFE0:
  39              		.size	__early_init, .-__early_init
  40 0002 00BFAFF3 		.section	.text.__late_init,"ax",%progbits
  40      0080AFF3 
  40      0080AFF3 
  40      0080
  41              		.align	2
  42              		.p2align 4,,15
  43              		.weak	__late_init
  44              		.thumb
  45              		.thumb_func
  46              		.type	__late_init, %function
  47              	__late_init:
  48              	.LFB1:
  49              		.loc 1 246 0
  50              		.cfi_startproc
  51              		@ args = 0, pretend = 0, frame = 0
  52              		@ frame_needed = 0, uses_anonymous_args = 0
  53              		@ link register save eliminated.
  54              		.loc 1 246 0
ARM GAS  /tmp/cc0CQteT.s 			page 2


  55 0000 7047     		bx	lr
  56              		.cfi_endproc
  57              	.LFE1:
  58              		.size	__late_init, .-__late_init
  59 0002 00BFAFF3 		.section	.text._default_exit,"ax",%progbits
  59      0080AFF3 
  59      0080AFF3 
  59      0080
  60              		.align	2
  61              		.p2align 4,,15
  62              		.weak	_default_exit
  63              		.thumb
  64              		.thumb_func
  65              		.type	_default_exit, %function
  66              	_default_exit:
  67              	.LFB2:
  68              		.loc 1 257 0
  69              		.cfi_startproc
  70              		@ Naked Function: prologue and epilogue provided by programmer.
  71              		@ args = 0, pretend = 0, frame = 0
  72              		@ frame_needed = 0, uses_anonymous_args = 0
  73              	.L4:
  74              		.loc 1 259 0 discriminator 1
  75 0000 FEE7     		b	.L4
  76              		.cfi_endproc
  77              	.LFE2:
  78              		.size	_default_exit, .-_default_exit
  79 0002 00BFAFF3 		.section	.text.ResetHandler,"ax",%progbits
  79      0080AFF3 
  79      0080AFF3 
  79      0080
  80              		.align	2
  81              		.p2align 4,,15
  82              		.global	ResetHandler
  83              		.thumb
  84              		.thumb_func
  85              		.type	ResetHandler, %function
  86              	ResetHandler:
  87              	.LFB3:
  88              		.loc 1 268 0
  89              		.cfi_startproc
  90              		@ Naked Function: prologue and epilogue provided by programmer.
  91              		@ args = 0, pretend = 0, frame = 0
  92              		@ frame_needed = 0, uses_anonymous_args = 0
  93              		.loc 1 274 0
  94              	@ 274 "/home/ergae/r2p-sdk/core/ChibiOS/os/ports/GCC/ARMCMx/crt0.c" 1
  95 0000 72B6     		cpsid   i
  96              	@ 0 "" 2
  97              		.loc 1 275 0
  98              		.thumb
  99 0002 2C4C     		ldr	r4, .L18
 100              		.loc 1 276 0
 101              	@ 276 "/home/ergae/r2p-sdk/core/ChibiOS/os/ports/GCC/ARMCMx/crt0.c" 1
 102 0004 84F30988 		msr     PSP, r4
 103              	@ 0 "" 2
 104              		.loc 1 280 0
 105              		.thumb
ARM GAS  /tmp/cc0CQteT.s 			page 3


 106 0008 2B4B     		ldr	r3, .L18+4
 107 000a 4FF04042 		mov	r2, #-1073741824
 108 000e 1A60     		str	r2, [r3]
 109              		.loc 1 283 0
 110 0010 2A4A     		ldr	r2, .L18+8
 111 0012 2A4B     		ldr	r3, .L18+8
 112 0014 1B68     		ldr	r3, [r3]
 113 0016 43F47003 		orr	r3, r3, #15728640
 114 001a 1360     		str	r3, [r2]
 115              		.loc 1 286 0
 116 001c 0024     		movs	r4, #0
 117              		.loc 1 287 0
 118              	@ 287 "/home/ergae/r2p-sdk/core/ChibiOS/os/ports/GCC/ARMCMx/crt0.c" 1
 119 001e E1EE104A 		vmsr    FPSCR, r4
 120              	@ 0 "" 2
 121              		.loc 1 288 0
 122              		.thumb
 123 0022 274B     		ldr	r3, .L18+12
 124 0024 1C60     		str	r4, [r3]
 125              		.loc 1 291 0
 126 0026 0624     		movs	r4, #6
 127              		.loc 1 296 0
 128              	@ 296 "/home/ergae/r2p-sdk/core/ChibiOS/os/ports/GCC/ARMCMx/crt0.c" 1
 129 0028 84F31488 		msr     CONTROL, r4
 130              	@ 0 "" 2
 131              		.loc 1 297 0
 132              	@ 297 "/home/ergae/r2p-sdk/core/ChibiOS/os/ports/GCC/ARMCMx/crt0.c" 1
 133 002c BFF36F8F 		isb
 134              	@ 0 "" 2
 135              		.thumb
 136              	.LBB2:
 137              		.loc 1 301 0
 138 0030 244C     		ldr	r4, .L18+16
 139 0032 254D     		ldr	r5, .L18+20
 140 0034 04E0     		b	.L6
 141              	.L7:
 142              		.loc 1 301 0 is_stmt 0 discriminator 3
 143 0036 2346     		mov	r3, r4
 144 0038 1C1D     		adds	r4, r3, #4
 145 003a 4FF05532 		mov	r2, #1431655765
 146 003e 1A60     		str	r2, [r3]
 147              	.L6:
 148              		.loc 1 301 0 discriminator 1
 149 0040 AC42     		cmp	r4, r5
 150 0042 F8D3     		bcc	.L7
 151              	.LBE2:
 152              	.LBB3:
 153              		.loc 1 304 0 is_stmt 1
 154 0044 214C     		ldr	r4, .L18+24
 155 0046 1B4D     		ldr	r5, .L18
 156 0048 04E0     		b	.L8
 157              	.L9:
 158              		.loc 1 304 0 is_stmt 0 discriminator 3
 159 004a 2346     		mov	r3, r4
 160 004c 1C1D     		adds	r4, r3, #4
 161 004e 4FF05532 		mov	r2, #1431655765
 162 0052 1A60     		str	r2, [r3]
ARM GAS  /tmp/cc0CQteT.s 			page 4


 163              	.L8:
 164              		.loc 1 304 0 discriminator 1
 165 0054 AC42     		cmp	r4, r5
 166 0056 F8D3     		bcc	.L9
 167              	.LBE3:
 168              		.loc 1 310 0 is_stmt 1
 169 0058 FFF7FEFF 		bl	__early_init
 170              	.LBB4:
 171              		.loc 1 317 0
 172 005c 1C4D     		ldr	r5, .L18+28
 173              		.loc 1 318 0
 174 005e 1D4C     		ldr	r4, .L18+32
 175              		.loc 1 319 0
 176 0060 05E0     		b	.L10
 177              	.L11:
 178              		.loc 1 320 0
 179 0062 2346     		mov	r3, r4
 180 0064 1C1D     		adds	r4, r3, #4
 181 0066 2A46     		mov	r2, r5
 182 0068 151D     		adds	r5, r2, #4
 183 006a 1268     		ldr	r2, [r2]
 184 006c 1A60     		str	r2, [r3]
 185              	.L10:
 186              		.loc 1 319 0
 187 006e 1A4B     		ldr	r3, .L18+36
 188 0070 9C42     		cmp	r4, r3
 189 0072 F6D3     		bcc	.L11
 190              	.LBE4:
 191              	.LBB5:
 192              		.loc 1 326 0
 193 0074 194C     		ldr	r4, .L18+40
 194 0076 1A4D     		ldr	r5, .L18+44
 195 0078 03E0     		b	.L12
 196              	.L13:
 197              		.loc 1 326 0 is_stmt 0 discriminator 3
 198 007a 2346     		mov	r3, r4
 199 007c 1C1D     		adds	r4, r3, #4
 200 007e 0022     		movs	r2, #0
 201 0080 1A60     		str	r2, [r3]
 202              	.L12:
 203              		.loc 1 326 0 discriminator 1
 204 0082 AC42     		cmp	r4, r5
 205 0084 F9D3     		bcc	.L13
 206              	.LBE5:
 207              		.loc 1 330 0 is_stmt 1
 208 0086 FFF7FEFF 		bl	__late_init
 209              	.LBB6:
 210              		.loc 1 335 0
 211 008a 164C     		ldr	r4, .L18+48
 212              		.loc 1 336 0
 213 008c 02E0     		b	.L14
 214              	.L15:
 215              		.loc 1 337 0
 216 008e 2368     		ldr	r3, [r4]
 217 0090 9847     		blx	r3
 218              		.loc 1 338 0
 219 0092 0434     		adds	r4, r4, #4
ARM GAS  /tmp/cc0CQteT.s 			page 5


 220              	.L14:
 221              		.loc 1 336 0
 222 0094 144B     		ldr	r3, .L18+52
 223 0096 9C42     		cmp	r4, r3
 224 0098 F9D3     		bcc	.L15
 225              	.LBE6:
 226              		.loc 1 344 0
 227 009a FFF7FEFF 		bl	main
 228              	.LBB7:
 229              		.loc 1 349 0
 230 009e 134C     		ldr	r4, .L18+56
 231              		.loc 1 350 0
 232 00a0 02E0     		b	.L16
 233              	.L17:
 234              		.loc 1 351 0
 235 00a2 2368     		ldr	r3, [r4]
 236 00a4 9847     		blx	r3
 237              		.loc 1 352 0
 238 00a6 0434     		adds	r4, r4, #4
 239              	.L16:
 240              		.loc 1 350 0
 241 00a8 114B     		ldr	r3, .L18+60
 242 00aa 9C42     		cmp	r4, r3
 243 00ac F9D3     		bcc	.L17
 244              	.LBE7:
 245              		.loc 1 358 0
 246 00ae FFF7FEFF 		bl	_default_exit
 247              		.loc 1 359 0
 248              	.L19:
 249 00b2 00BF     		.align	2
 250              	.L18:
 251 00b4 00000000 		.word	__process_stack_end__
 252 00b8 34EF00E0 		.word	-536809676
 253 00bc 88ED00E0 		.word	-536810104
 254 00c0 3CEF00E0 		.word	-536809668
 255 00c4 00000000 		.word	__main_stack_base__
 256 00c8 00000000 		.word	__main_stack_end__
 257 00cc 00000000 		.word	__process_stack_base__
 258 00d0 00000000 		.word	_textdata
 259 00d4 00000000 		.word	_data
 260 00d8 00000000 		.word	_edata
 261 00dc 00000000 		.word	_bss_start
 262 00e0 00000000 		.word	_bss_end
 263 00e4 00000000 		.word	__init_array_start
 264 00e8 00000000 		.word	__init_array_end
 265 00ec 00000000 		.word	__fini_array_start
 266 00f0 00000000 		.word	__fini_array_end
 267              		.cfi_endproc
 268              	.LFE3:
 269              		.size	ResetHandler, .-ResetHandler
 270 00f4 AFF30080 		.text
 270      AFF30080 
 270      AFF30080 
 271              	.Letext0:
 272              		.file 2 "/home/ergae/r2p-sdk/tools/gcc-arm-none-eabi-4_9-2014q4/arm-none-eabi/include/machine/_def
 273              		.file 3 "/home/ergae/r2p-sdk/tools/gcc-arm-none-eabi-4_9-2014q4/arm-none-eabi/include/stdint.h"