ARM GAS  /tmp/ccF7TFW9.s 			page 1


   1              		.syntax unified
   2              		.cpu cortex-m4
   3              		.eabi_attribute 27, 3
   4              		.eabi_attribute 28, 1
   5              		.fpu fpv4-sp-d16
   6              		.eabi_attribute 20, 1
   7              		.eabi_attribute 21, 1
   8              		.eabi_attribute 23, 3
   9              		.eabi_attribute 24, 1
  10              		.eabi_attribute 25, 1
  11              		.eabi_attribute 26, 1
  12              		.eabi_attribute 30, 6
  13              		.eabi_attribute 34, 1
  14              		.eabi_attribute 18, 4
  15              		.thumb
  16              		.file	"led.cpp"
  17              		.text
  18              	.Ltext0:
  19              		.cfi_sections	.debug_frame
  20              		.section	.text._ZN3r2p8SysLock_7acquireEv,"axG",%progbits,_ZN3r2p8SysLock_7acquireEv,comdat
  21              		.align	2
  22              		.p2align 4,,15
  23              		.weak	_ZN3r2p8SysLock_7acquireEv
  24              		.thumb
  25              		.thumb_func
  26              		.type	_ZN3r2p8SysLock_7acquireEv, %function
  27              	_ZN3r2p8SysLock_7acquireEv:
  28              	.LFB129:
  29              		.file 1 "/home/ergae/r2p-sdk/core/Middleware/port/chibios/include/r2p/impl/SysLock_.hpp"
  30              		.loc 1 20 0
  31              		.cfi_startproc
  32              		@ args = 0, pretend = 0, frame = 0
  33              		@ frame_needed = 0, uses_anonymous_args = 0
  34 0000 08B5     		push	{r3, lr}
  35              		.cfi_def_cfa_offset 8
  36              		.cfi_offset 3, -8
  37              		.cfi_offset 14, -4
  38              	.LBB24:
  39              	.LBB25:
  40              	.LBB26:
  41              		.loc 1 22 0
  42 0002 2023     		movs	r3, #32
  43              	@ 22 "/home/ergae/r2p-sdk/core/Middleware/port/chibios/include/r2p/impl/SysLock_.hpp" 1
  44 0004 83F31188 		msr     BASEPRI, r3
  45              	@ 0 "" 2
  46              		.thumb
  47              	.LBE26:
  48 0008 FFF7FEFF 		bl	dbg_check_lock
  49              	.LBE25:
  50              	.LBE24:
  51              		.loc 1 23 0
  52 000c 08BD     		pop	{r3, pc}
  53              		.cfi_endproc
  54              	.LFE129:
  55              		.size	_ZN3r2p8SysLock_7acquireEv, .-_ZN3r2p8SysLock_7acquireEv
  56 000e 00BF     		.section	.text._ZN3r2p8SysLock_7releaseEv,"axG",%progbits,_ZN3r2p8SysLock_7releaseEv,comdat
  57              		.align	2
ARM GAS  /tmp/ccF7TFW9.s 			page 2


  58              		.p2align 4,,15
  59              		.weak	_ZN3r2p8SysLock_7releaseEv
  60              		.thumb
  61              		.thumb_func
  62              		.type	_ZN3r2p8SysLock_7releaseEv, %function
  63              	_ZN3r2p8SysLock_7releaseEv:
  64              	.LFB130:
  65              		.loc 1 27 0
  66              		.cfi_startproc
  67              		@ args = 0, pretend = 0, frame = 0
  68              		@ frame_needed = 0, uses_anonymous_args = 0
  69 0000 08B5     		push	{r3, lr}
  70              		.cfi_def_cfa_offset 8
  71              		.cfi_offset 3, -8
  72              		.cfi_offset 14, -4
  73              	.LBB27:
  74              	.LBB28:
  75              		.loc 1 29 0
  76 0002 FFF7FEFF 		bl	dbg_check_unlock
  77              	.LBB29:
  78 0006 0023     		movs	r3, #0
  79              	@ 29 "/home/ergae/r2p-sdk/core/Middleware/port/chibios/include/r2p/impl/SysLock_.hpp" 1
  80 0008 83F31188 		msr     BASEPRI, r3
  81              	@ 0 "" 2
  82              		.thumb
  83              	.LBE29:
  84              	.LBE28:
  85              	.LBE27:
  86              		.loc 1 30 0
  87 000c 08BD     		pop	{r3, pc}
  88              		.cfi_endproc
  89              	.LFE130:
  90              		.size	_ZN3r2p8SysLock_7releaseEv, .-_ZN3r2p8SysLock_7releaseEv
  91 000e 00BF     		.section	.text._ZN3r2p7SysLock7acquireEv,"axG",%progbits,_ZN3r2p7SysLock7acquireEv,comdat
  92              		.align	2
  93              		.p2align 4,,15
  94              		.weak	_ZN3r2p7SysLock7acquireEv
  95              		.thumb
  96              		.thumb_func
  97              		.type	_ZN3r2p7SysLock7acquireEv, %function
  98              	_ZN3r2p7SysLock7acquireEv:
  99              	.LFB137:
 100              		.file 2 "/home/ergae/r2p-sdk/core/Middleware/include/r2p/SysLock.hpp"
 101              		.loc 2 27 0
 102              		.cfi_startproc
 103              		@ args = 0, pretend = 0, frame = 0
 104              		@ frame_needed = 0, uses_anonymous_args = 0
 105 0000 08B5     		push	{r3, lr}
 106              		.cfi_def_cfa_offset 8
 107              		.cfi_offset 3, -8
 108              		.cfi_offset 14, -4
 109              		.loc 2 29 0
 110 0002 FFF7FEFF 		bl	_ZN3r2p8SysLock_7acquireEv
 111              		.loc 2 30 0
 112 0006 08BD     		pop	{r3, pc}
 113              		.cfi_endproc
 114              	.LFE137:
ARM GAS  /tmp/ccF7TFW9.s 			page 3


 115              		.size	_ZN3r2p7SysLock7acquireEv, .-_ZN3r2p7SysLock7acquireEv
 116 0008 AFF30080 		.section	.text._ZN3r2p7SysLock7releaseEv,"axG",%progbits,_ZN3r2p7SysLock7releaseEv,comdat
 116      AFF30080 
 117              		.align	2
 118              		.p2align 4,,15
 119              		.weak	_ZN3r2p7SysLock7releaseEv
 120              		.thumb
 121              		.thumb_func
 122              		.type	_ZN3r2p7SysLock7releaseEv, %function
 123              	_ZN3r2p7SysLock7releaseEv:
 124              	.LFB138:
 125              		.loc 2 34 0
 126              		.cfi_startproc
 127              		@ args = 0, pretend = 0, frame = 0
 128              		@ frame_needed = 0, uses_anonymous_args = 0
 129 0000 08B5     		push	{r3, lr}
 130              		.cfi_def_cfa_offset 8
 131              		.cfi_offset 3, -8
 132              		.cfi_offset 14, -4
 133              		.loc 2 36 0
 134 0002 FFF7FEFF 		bl	_ZN3r2p8SysLock_7releaseEv
 135              		.loc 2 37 0
 136 0006 08BD     		pop	{r3, pc}
 137              		.cfi_endproc
 138              	.LFE138:
 139              		.size	_ZN3r2p7SysLock7releaseEv, .-_ZN3r2p7SysLock7releaseEv
 140              		.section	.text._ZN3r2p11MemoryPool_12alloc_unsafeEv,"axG",%progbits,_ZN3r2p11MemoryPool_12alloc_un
 141              		.align	2
 142              		.p2align 4,,15
 143              		.weak	_ZN3r2p11MemoryPool_12alloc_unsafeEv
 144              		.thumb
 145              		.thumb_func
 146              		.type	_ZN3r2p11MemoryPool_12alloc_unsafeEv, %function
 147              	_ZN3r2p11MemoryPool_12alloc_unsafeEv:
 148              	.LFB236:
 149              		.file 3 "/home/ergae/r2p-sdk/core/Middleware/port/chibios/include/r2p/impl/MemoryPool_.hpp"
 150              		.loc 3 53 0
 151              		.cfi_startproc
 152              		@ args = 0, pretend = 0, frame = 8
 153              		@ frame_needed = 0, uses_anonymous_args = 0
 154 0000 00B5     		push	{lr}
 155              		.cfi_def_cfa_offset 4
 156              		.cfi_offset 14, -4
 157 0002 83B0     		sub	sp, sp, #12
 158              		.cfi_def_cfa_offset 16
 159 0004 0190     		str	r0, [sp, #4]
 160              		.loc 3 55 0
 161 0006 019B     		ldr	r3, [sp, #4]
 162 0008 1846     		mov	r0, r3
 163 000a FFF7FEFF 		bl	chPoolAllocI
 164 000e 0346     		mov	r3, r0
 165              		.loc 3 56 0
 166 0010 1846     		mov	r0, r3
 167 0012 03B0     		add	sp, sp, #12
 168              		.cfi_def_cfa_offset 4
 169              		@ sp needed
 170 0014 5DF804FB 		ldr	pc, [sp], #4
ARM GAS  /tmp/ccF7TFW9.s 			page 4


 171              		.cfi_endproc
 172              	.LFE236:
 173              		.size	_ZN3r2p11MemoryPool_12alloc_unsafeEv, .-_ZN3r2p11MemoryPool_12alloc_unsafeEv
 174 0018 AFF30080 		.section	.text._ZN3r2p4TimeaSERKS0_,"axG",%progbits,_ZN3r2p4TimeaSERKS0_,comdat
 174      AFF30080 
 175              		.align	2
 176              		.p2align 4,,15
 177              		.weak	_ZN3r2p4TimeaSERKS0_
 178              		.thumb
 179              		.thumb_func
 180              		.type	_ZN3r2p4TimeaSERKS0_, %function
 181              	_ZN3r2p4TimeaSERKS0_:
 182              	.LFB262:
 183              		.file 4 "/home/ergae/r2p-sdk/core/Middleware/include/r2p/Time.hpp"
 184              		.loc 4 131 0
 185              		.cfi_startproc
 186              		@ args = 0, pretend = 0, frame = 8
 187              		@ frame_needed = 0, uses_anonymous_args = 0
 188              		@ link register save eliminated.
 189 0000 82B0     		sub	sp, sp, #8
 190              		.cfi_def_cfa_offset 8
 191 0002 0190     		str	r0, [sp, #4]
 192 0004 0091     		str	r1, [sp]
 193              		.loc 4 133 0
 194 0006 009B     		ldr	r3, [sp]
 195 0008 1A68     		ldr	r2, [r3]
 196 000a 019B     		ldr	r3, [sp, #4]
 197 000c 1A60     		str	r2, [r3]
 198              		.loc 4 134 0
 199 000e 019B     		ldr	r3, [sp, #4]
 200              		.loc 4 135 0
 201 0010 1846     		mov	r0, r3
 202 0012 02B0     		add	sp, sp, #8
 203              		.cfi_def_cfa_offset 0
 204              		@ sp needed
 205 0014 7047     		bx	lr
 206              		.cfi_endproc
 207              	.LFE262:
 208              		.size	_ZN3r2p4TimeaSERKS0_, .-_ZN3r2p4TimeaSERKS0_
 209 0016 00BFAFF3 		.section	.text._ZN3r2p4Time2msEl,"axG",%progbits,_ZN3r2p4Time2msEl,comdat
 209      0080AFF3 
 209      0080
 210              		.align	2
 211              		.p2align 4,,15
 212              		.weak	_ZN3r2p4Time2msEl
 213              		.thumb
 214              		.thumb_func
 215              		.type	_ZN3r2p4Time2msEl, %function
 216              	_ZN3r2p4Time2msEl:
 217              	.LFB276:
 218              		.loc 4 184 0
 219              		.cfi_startproc
 220              		@ args = 0, pretend = 0, frame = 8
 221              		@ frame_needed = 0, uses_anonymous_args = 0
 222 0000 00B5     		push	{lr}
 223              		.cfi_def_cfa_offset 4
 224              		.cfi_offset 14, -4
ARM GAS  /tmp/ccF7TFW9.s 			page 5


 225 0002 83B0     		sub	sp, sp, #12
 226              		.cfi_def_cfa_offset 16
 227 0004 0190     		str	r0, [sp, #4]
 228 0006 0091     		str	r1, [sp]
 229              		.loc 4 186 0
 230 0008 009B     		ldr	r3, [sp]
 231 000a 4FF47A72 		mov	r2, #1000
 232 000e 02FB03F3 		mul	r3, r2, r3
 233 0012 0198     		ldr	r0, [sp, #4]
 234 0014 1946     		mov	r1, r3
 235 0016 FFF7FEFF 		bl	_ZN3r2p4TimeC1IlEET_
 236              		.loc 4 187 0
 237 001a 0198     		ldr	r0, [sp, #4]
 238 001c 03B0     		add	sp, sp, #12
 239              		.cfi_def_cfa_offset 4
 240              		@ sp needed
 241 001e 5DF804FB 		ldr	pc, [sp], #4
 242              		.cfi_endproc
 243              	.LFE276:
 244              		.size	_ZN3r2p4Time2msEl, .-_ZN3r2p4Time2msEl
 245 0022 00BFAFF3 		.section	.text._ZN3r2p7Message12reset_unsafeEv,"axG",%progbits,_ZN3r2p7Message12reset_unsafeEv,com
 245      0080AFF3 
 245      0080AFF3 
 245      0080
 246              		.align	2
 247              		.p2align 4,,15
 248              		.weak	_ZN3r2p7Message12reset_unsafeEv
 249              		.thumb
 250              		.thumb_func
 251              		.type	_ZN3r2p7Message12reset_unsafeEv, %function
 252              	_ZN3r2p7Message12reset_unsafeEv:
 253              	.LFB292:
 254              		.file 5 "/home/ergae/r2p-sdk/core/Middleware/include/r2p/Message.hpp"
 255              		.loc 5 122 0
 256              		.cfi_startproc
 257              		@ args = 0, pretend = 0, frame = 8
 258              		@ frame_needed = 0, uses_anonymous_args = 0
 259              		@ link register save eliminated.
 260 0000 82B0     		sub	sp, sp, #8
 261              		.cfi_def_cfa_offset 8
 262 0002 0190     		str	r0, [sp, #4]
 263              		.loc 5 127 0
 264 0004 019B     		ldr	r3, [sp, #4]
 265 0006 0022     		movs	r2, #0
 266 0008 1A70     		strb	r2, [r3]
 267 000a 0022     		movs	r2, #0
 268 000c 5A70     		strb	r2, [r3, #1]
 269              		.loc 5 128 0
 270 000e 02B0     		add	sp, sp, #8
 271              		.cfi_def_cfa_offset 0
 272              		@ sp needed
 273 0010 7047     		bx	lr
 274              		.cfi_endproc
 275              	.LFE292:
 276              		.size	_ZN3r2p7Message12reset_unsafeEv, .-_ZN3r2p7Message12reset_unsafeEv
 277 0012 00BFAFF3 		.section	.text._ZN3r2p7MessageC2Ev,"axG",%progbits,_ZN3r2p7MessageC5Ev,comdat
 277      0080AFF3 
ARM GAS  /tmp/ccF7TFW9.s 			page 6


 277      0080AFF3 
 277      0080
 278              		.align	2
 279              		.p2align 4,,15
 280              		.weak	_ZN3r2p7MessageC2Ev
 281              		.thumb
 282              		.thumb_func
 283              		.type	_ZN3r2p7MessageC2Ev, %function
 284              	_ZN3r2p7MessageC2Ev:
 285              	.LFB294:
 286              		.loc 5 132 0
 287              		.cfi_startproc
 288              		@ args = 0, pretend = 0, frame = 8
 289              		@ frame_needed = 0, uses_anonymous_args = 0
 290              		@ link register save eliminated.
 291 0000 82B0     		sub	sp, sp, #8
 292              		.cfi_def_cfa_offset 8
 293 0002 0190     		str	r0, [sp, #4]
 294              	.LBB30:
 295              		.loc 5 137 0
 296 0004 019B     		ldr	r3, [sp, #4]
 297 0006 0022     		movs	r2, #0
 298 0008 1A70     		strb	r2, [r3]
 299 000a 0022     		movs	r2, #0
 300 000c 5A70     		strb	r2, [r3, #1]
 301              	.LBE30:
 302              		.loc 5 138 0
 303 000e 019B     		ldr	r3, [sp, #4]
 304 0010 1846     		mov	r0, r3
 305 0012 02B0     		add	sp, sp, #8
 306              		.cfi_def_cfa_offset 0
 307              		@ sp needed
 308 0014 7047     		bx	lr
 309              		.cfi_endproc
 310              	.LFE294:
 311              		.size	_ZN3r2p7MessageC2Ev, .-_ZN3r2p7MessageC2Ev
 312              		.weak	_ZN3r2p7MessageC1Ev
 313              		.thumb_set _ZN3r2p7MessageC1Ev,_ZN3r2p7MessageC2Ev
 314 0016 00BFAFF3 		.section	.rodata
 314      0080AFF3 
 314      0080
 315              		.align	2
 316              	.LC0:
 317 0000 5232505F 		.ascii	"R2P_ASSERT()\000"
 317      41535345 
 317      52542829 
 317      00
 318              		.section	.text._ZN3r2p13BasePublisher12alloc_unsafeERPNS_7MessageE,"axG",%progbits,_ZN3r2p13BasePu
 319              		.align	2
 320              		.p2align 4,,15
 321              		.weak	_ZN3r2p13BasePublisher12alloc_unsafeERPNS_7MessageE
 322              		.thumb
 323              		.thumb_func
 324              		.type	_ZN3r2p13BasePublisher12alloc_unsafeERPNS_7MessageE, %function
 325              	_ZN3r2p13BasePublisher12alloc_unsafeERPNS_7MessageE:
 326              	.LFB303:
 327              		.file 6 "/home/ergae/r2p-sdk/core/Middleware/include/r2p/BasePublisher.hpp"
ARM GAS  /tmp/ccF7TFW9.s 			page 7


 328              		.loc 6 64 0
 329              		.cfi_startproc
 330              		@ args = 0, pretend = 0, frame = 8
 331              		@ frame_needed = 0, uses_anonymous_args = 0
 332 0000 00B5     		push	{lr}
 333              		.cfi_def_cfa_offset 4
 334              		.cfi_offset 14, -4
 335 0002 83B0     		sub	sp, sp, #12
 336              		.cfi_def_cfa_offset 16
 337 0004 0190     		str	r0, [sp, #4]
 338 0006 0091     		str	r1, [sp]
 339              		.loc 6 66 0
 340 0008 019B     		ldr	r3, [sp, #4]
 341 000a 5B68     		ldr	r3, [r3, #4]
 342 000c 002B     		cmp	r3, #0
 343 000e 02D1     		bne	.L16
 344              		.loc 6 66 0 is_stmt 0 discriminator 1
 345 0010 0A48     		ldr	r0, .L18
 346 0012 FFF7FEFF 		bl	chDbgPanic
 347              	.L16:
 348              		.loc 6 68 0 is_stmt 1
 349 0016 019B     		ldr	r3, [sp, #4]
 350 0018 5B68     		ldr	r3, [r3, #4]
 351 001a 1846     		mov	r0, r3
 352 001c FFF7FEFF 		bl	_ZN3r2p5Topic12alloc_unsafeEv
 353 0020 0246     		mov	r2, r0
 354 0022 009B     		ldr	r3, [sp]
 355 0024 1A60     		str	r2, [r3]
 356              		.loc 6 69 0
 357 0026 009B     		ldr	r3, [sp]
 358 0028 1B68     		ldr	r3, [r3]
 359 002a 002B     		cmp	r3, #0
 360 002c 14BF     		ite	ne
 361 002e 0123     		movne	r3, #1
 362 0030 0023     		moveq	r3, #0
 363 0032 DBB2     		uxtb	r3, r3
 364              		.loc 6 70 0
 365 0034 1846     		mov	r0, r3
 366 0036 03B0     		add	sp, sp, #12
 367              		.cfi_def_cfa_offset 4
 368              		@ sp needed
 369 0038 5DF804FB 		ldr	pc, [sp], #4
 370              	.L19:
 371              		.align	2
 372              	.L18:
 373 003c 00000000 		.word	.LC0
 374              		.cfi_endproc
 375              	.LFE303:
 376              		.size	_ZN3r2p13BasePublisher12alloc_unsafeERPNS_7MessageE, .-_ZN3r2p13BasePublisher12alloc_unsafeE
 377              		.section	.text._ZN3r2p13BasePublisher5allocERPNS_7MessageE,"axG",%progbits,_ZN3r2p13BasePublisher5
 378              		.align	2
 379              		.p2align 4,,15
 380              		.weak	_ZN3r2p13BasePublisher5allocERPNS_7MessageE
 381              		.thumb
 382              		.thumb_func
 383              		.type	_ZN3r2p13BasePublisher5allocERPNS_7MessageE, %function
 384              	_ZN3r2p13BasePublisher5allocERPNS_7MessageE:
ARM GAS  /tmp/ccF7TFW9.s 			page 8


 385              	.LFB304:
 386              		.loc 6 74 0
 387              		.cfi_startproc
 388              		@ args = 0, pretend = 0, frame = 16
 389              		@ frame_needed = 0, uses_anonymous_args = 0
 390 0000 00B5     		push	{lr}
 391              		.cfi_def_cfa_offset 4
 392              		.cfi_offset 14, -4
 393 0002 85B0     		sub	sp, sp, #20
 394              		.cfi_def_cfa_offset 24
 395 0004 0190     		str	r0, [sp, #4]
 396 0006 0091     		str	r1, [sp]
 397              	.LBB31:
 398              		.loc 6 76 0
 399 0008 FFF7FEFF 		bl	_ZN3r2p7SysLock7acquireEv
 400              		.loc 6 77 0
 401 000c 0198     		ldr	r0, [sp, #4]
 402 000e 0099     		ldr	r1, [sp]
 403 0010 FFF7FEFF 		bl	_ZN3r2p13BasePublisher12alloc_unsafeERPNS_7MessageE
 404 0014 0346     		mov	r3, r0
 405 0016 8DF80F30 		strb	r3, [sp, #15]
 406              		.loc 6 78 0
 407 001a FFF7FEFF 		bl	_ZN3r2p7SysLock7releaseEv
 408              		.loc 6 79 0
 409 001e 9DF80F30 		ldrb	r3, [sp, #15]	@ zero_extendqisi2
 410              	.LBE31:
 411              		.loc 6 80 0
 412 0022 1846     		mov	r0, r3
 413 0024 05B0     		add	sp, sp, #20
 414              		.cfi_def_cfa_offset 4
 415              		@ sp needed
 416 0026 5DF804FB 		ldr	pc, [sp], #4
 417              		.cfi_endproc
 418              	.LFE304:
 419              		.size	_ZN3r2p13BasePublisher5allocERPNS_7MessageE, .-_ZN3r2p13BasePublisher5allocERPNS_7MessageE
 420 002a 00BFAFF3 		.section	.text._ZNK3r2p10SpinEvent_10get_threadEv,"axG",%progbits,_ZNK3r2p10SpinEvent_10get_thread
 420      0080
 421              		.align	2
 422              		.p2align 4,,15
 423              		.weak	_ZNK3r2p10SpinEvent_10get_threadEv
 424              		.thumb
 425              		.thumb_func
 426              		.type	_ZNK3r2p10SpinEvent_10get_threadEv, %function
 427              	_ZNK3r2p10SpinEvent_10get_threadEv:
 428              	.LFB353:
 429              		.file 7 "/home/ergae/r2p-sdk/core/Middleware/port/chibios/include/r2p/impl/SpinEvent_.hpp"
 430              		.loc 7 36 0
 431              		.cfi_startproc
 432              		@ args = 0, pretend = 0, frame = 8
 433              		@ frame_needed = 0, uses_anonymous_args = 0
 434              		@ link register save eliminated.
 435 0000 82B0     		sub	sp, sp, #8
 436              		.cfi_def_cfa_offset 8
 437 0002 0190     		str	r0, [sp, #4]
 438              		.loc 7 38 0
 439 0004 019B     		ldr	r3, [sp, #4]
 440 0006 1B68     		ldr	r3, [r3]
ARM GAS  /tmp/ccF7TFW9.s 			page 9


 441              		.loc 7 39 0
 442 0008 1846     		mov	r0, r3
 443 000a 02B0     		add	sp, sp, #8
 444              		.cfi_def_cfa_offset 0
 445              		@ sp needed
 446 000c 7047     		bx	lr
 447              		.cfi_endproc
 448              	.LFE353:
 449              		.size	_ZNK3r2p10SpinEvent_10get_threadEv, .-_ZNK3r2p10SpinEvent_10get_threadEv
 450 000e 00BF     		.section	.text._ZN3r2p10SpinEvent_13signal_unsafeEj,"axG",%progbits,_ZN3r2p10SpinEvent_13signal_un
 451              		.align	2
 452              		.p2align 4,,15
 453              		.weak	_ZN3r2p10SpinEvent_13signal_unsafeEj
 454              		.thumb
 455              		.thumb_func
 456              		.type	_ZN3r2p10SpinEvent_13signal_unsafeEj, %function
 457              	_ZN3r2p10SpinEvent_13signal_unsafeEj:
 458              	.LFB355:
 459              		.loc 7 50 0
 460              		.cfi_startproc
 461              		@ args = 0, pretend = 0, frame = 8
 462              		@ frame_needed = 0, uses_anonymous_args = 0
 463 0000 00B5     		push	{lr}
 464              		.cfi_def_cfa_offset 4
 465              		.cfi_offset 14, -4
 466 0002 83B0     		sub	sp, sp, #12
 467              		.cfi_def_cfa_offset 16
 468 0004 0190     		str	r0, [sp, #4]
 469 0006 0091     		str	r1, [sp]
 470              		.loc 7 52 0
 471 0008 019B     		ldr	r3, [sp, #4]
 472 000a 1B68     		ldr	r3, [r3]
 473 000c 002B     		cmp	r3, #0
 474 000e 10D0     		beq	.L24
 475              		.loc 7 53 0
 476 0010 2022     		movs	r2, #32
 477 0012 009B     		ldr	r3, [sp]
 478 0014 9A42     		cmp	r2, r3
 479 0016 02D8     		bhi	.L26
 480              		.loc 7 53 0 is_stmt 0 discriminator 1
 481 0018 0748     		ldr	r0, .L27
 482 001a FFF7FEFF 		bl	chDbgPanic
 483              	.L26:
 484              		.loc 7 54 0 is_stmt 1
 485 001e 019B     		ldr	r3, [sp, #4]
 486 0020 1968     		ldr	r1, [r3]
 487 0022 009B     		ldr	r3, [sp]
 488 0024 0122     		movs	r2, #1
 489 0026 02FA03F3 		lsl	r3, r2, r3
 490 002a 0846     		mov	r0, r1
 491 002c 1946     		mov	r1, r3
 492 002e FFF7FEFF 		bl	chEvtSignalI
 493              	.L24:
 494              		.loc 7 56 0
 495 0032 03B0     		add	sp, sp, #12
 496              		.cfi_def_cfa_offset 4
 497              		@ sp needed
ARM GAS  /tmp/ccF7TFW9.s 			page 10


 498 0034 5DF804FB 		ldr	pc, [sp], #4
 499              	.L28:
 500              		.align	2
 501              	.L27:
 502 0038 00000000 		.word	.LC0
 503              		.cfi_endproc
 504              	.LFE355:
 505              		.size	_ZN3r2p10SpinEvent_13signal_unsafeEj, .-_ZN3r2p10SpinEvent_13signal_unsafeEj
 506 003c AFF30080 		.section	.text._ZNK3r2p9SpinEvent10get_threadEv,"axG",%progbits,_ZNK3r2p9SpinEvent10get_threadEv,c
 507              		.align	2
 508              		.p2align 4,,15
 509              		.weak	_ZNK3r2p9SpinEvent10get_threadEv
 510              		.thumb
 511              		.thumb_func
 512              		.type	_ZNK3r2p9SpinEvent10get_threadEv, %function
 513              	_ZNK3r2p9SpinEvent10get_threadEv:
 514              	.LFB361:
 515              		.file 8 "/home/ergae/r2p-sdk/core/Middleware/include/r2p/SpinEvent.hpp"
 516              		.loc 8 35 0
 517              		.cfi_startproc
 518              		@ args = 0, pretend = 0, frame = 8
 519              		@ frame_needed = 0, uses_anonymous_args = 0
 520 0000 00B5     		push	{lr}
 521              		.cfi_def_cfa_offset 4
 522              		.cfi_offset 14, -4
 523 0002 83B0     		sub	sp, sp, #12
 524              		.cfi_def_cfa_offset 16
 525 0004 0190     		str	r0, [sp, #4]
 526              		.loc 8 37 0
 527 0006 019B     		ldr	r3, [sp, #4]
 528 0008 1846     		mov	r0, r3
 529 000a FFF7FEFF 		bl	_ZNK3r2p10SpinEvent_10get_threadEv
 530 000e 0346     		mov	r3, r0
 531              		.loc 8 38 0
 532 0010 1846     		mov	r0, r3
 533 0012 03B0     		add	sp, sp, #12
 534              		.cfi_def_cfa_offset 4
 535              		@ sp needed
 536 0014 5DF804FB 		ldr	pc, [sp], #4
 537              		.cfi_endproc
 538              	.LFE361:
 539              		.size	_ZNK3r2p9SpinEvent10get_threadEv, .-_ZNK3r2p9SpinEvent10get_threadEv
 540 0018 AFF30080 		.section	.text._ZN3r2p9SpinEvent13signal_unsafeEj,"axG",%progbits,_ZN3r2p9SpinEvent13signal_unsafe
 540      AFF30080 
 541              		.align	2
 542              		.p2align 4,,15
 543              		.weak	_ZN3r2p9SpinEvent13signal_unsafeEj
 544              		.thumb
 545              		.thumb_func
 546              		.type	_ZN3r2p9SpinEvent13signal_unsafeEj, %function
 547              	_ZN3r2p9SpinEvent13signal_unsafeEj:
 548              	.LFB363:
 549              		.loc 8 49 0
 550              		.cfi_startproc
 551              		@ args = 0, pretend = 0, frame = 8
 552              		@ frame_needed = 0, uses_anonymous_args = 0
 553 0000 00B5     		push	{lr}
ARM GAS  /tmp/ccF7TFW9.s 			page 11


 554              		.cfi_def_cfa_offset 4
 555              		.cfi_offset 14, -4
 556 0002 83B0     		sub	sp, sp, #12
 557              		.cfi_def_cfa_offset 16
 558 0004 0190     		str	r0, [sp, #4]
 559 0006 0091     		str	r1, [sp]
 560              		.loc 8 51 0
 561 0008 019B     		ldr	r3, [sp, #4]
 562 000a 1846     		mov	r0, r3
 563 000c 0099     		ldr	r1, [sp]
 564 000e FFF7FEFF 		bl	_ZN3r2p10SpinEvent_13signal_unsafeEj
 565              		.loc 8 52 0
 566 0012 03B0     		add	sp, sp, #12
 567              		.cfi_def_cfa_offset 4
 568              		@ sp needed
 569 0014 5DF804FB 		ldr	pc, [sp], #4
 570              		.cfi_endproc
 571              	.LFE363:
 572              		.size	_ZN3r2p9SpinEvent13signal_unsafeEj, .-_ZN3r2p9SpinEvent13signal_unsafeEj
 573 0018 AFF30080 		.section	.text._ZNK3r2p4Node11get_enabledEv,"axG",%progbits,_ZNK3r2p4Node11get_enabledEv,comdat
 573      AFF30080 
 574              		.align	2
 575              		.p2align 4,,15
 576              		.weak	_ZNK3r2p4Node11get_enabledEv
 577              		.thumb
 578              		.thumb_func
 579              		.type	_ZNK3r2p4Node11get_enabledEv, %function
 580              	_ZNK3r2p4Node11get_enabledEv:
 581              	.LFB380:
 582              		.file 9 "/home/ergae/r2p-sdk/core/Middleware/include/r2p/Node.hpp"
 583              		.loc 9 103 0
 584              		.cfi_startproc
 585              		@ args = 0, pretend = 0, frame = 8
 586              		@ frame_needed = 0, uses_anonymous_args = 0
 587 0000 00B5     		push	{lr}
 588              		.cfi_def_cfa_offset 4
 589              		.cfi_offset 14, -4
 590 0002 83B0     		sub	sp, sp, #12
 591              		.cfi_def_cfa_offset 16
 592 0004 0190     		str	r0, [sp, #4]
 593              		.loc 9 105 0
 594 0006 019B     		ldr	r3, [sp, #4]
 595 0008 0C33     		adds	r3, r3, #12
 596 000a 1846     		mov	r0, r3
 597 000c FFF7FEFF 		bl	_ZNK3r2p9SpinEvent10get_threadEv
 598 0010 0346     		mov	r3, r0
 599 0012 002B     		cmp	r3, #0
 600 0014 14BF     		ite	ne
 601 0016 0123     		movne	r3, #1
 602 0018 0023     		moveq	r3, #0
 603 001a DBB2     		uxtb	r3, r3
 604              		.loc 9 106 0
 605 001c 1846     		mov	r0, r3
 606 001e 03B0     		add	sp, sp, #12
 607              		.cfi_def_cfa_offset 4
 608              		@ sp needed
 609 0020 5DF804FB 		ldr	pc, [sp], #4
ARM GAS  /tmp/ccF7TFW9.s 			page 12


 610              		.cfi_endproc
 611              	.LFE380:
 612              		.size	_ZNK3r2p4Node11get_enabledEv, .-_ZNK3r2p4Node11get_enabledEv
 613 0024 AFF30080 		.section	.text._ZN3r2p4Node13notify_unsafeEj,"axG",%progbits,_ZN3r2p4Node13notify_unsafeEj,comdat
 613      AFF30080 
 613      AFF30080 
 614              		.align	2
 615              		.p2align 4,,15
 616              		.weak	_ZN3r2p4Node13notify_unsafeEj
 617              		.thumb
 618              		.thumb_func
 619              		.type	_ZN3r2p4Node13notify_unsafeEj, %function
 620              	_ZN3r2p4Node13notify_unsafeEj:
 621              	.LFB385:
 622              		.loc 9 140 0
 623              		.cfi_startproc
 624              		@ args = 0, pretend = 0, frame = 8
 625              		@ frame_needed = 0, uses_anonymous_args = 0
 626 0000 00B5     		push	{lr}
 627              		.cfi_def_cfa_offset 4
 628              		.cfi_offset 14, -4
 629 0002 83B0     		sub	sp, sp, #12
 630              		.cfi_def_cfa_offset 16
 631 0004 0190     		str	r0, [sp, #4]
 632 0006 0091     		str	r1, [sp]
 633              		.loc 9 142 0
 634 0008 019B     		ldr	r3, [sp, #4]
 635 000a 0C33     		adds	r3, r3, #12
 636 000c 1846     		mov	r0, r3
 637 000e 0099     		ldr	r1, [sp]
 638 0010 FFF7FEFF 		bl	_ZN3r2p9SpinEvent13signal_unsafeEj
 639              		.loc 9 143 0
 640 0014 03B0     		add	sp, sp, #12
 641              		.cfi_def_cfa_offset 4
 642              		@ sp needed
 643 0016 5DF804FB 		ldr	pc, [sp], #4
 644              		.cfi_endproc
 645              	.LFE385:
 646              		.size	_ZN3r2p4Node13notify_unsafeEj, .-_ZN3r2p4Node13notify_unsafeEj
 647 001a 00BFAFF3 		.section	.text._ZNK3r2p15LocalSubscriber16get_queue_lengthEv,"axG",%progbits,_ZNK3r2p15LocalSubscr
 647      0080
 648              		.align	2
 649              		.p2align 4,,15
 650              		.weak	_ZNK3r2p15LocalSubscriber16get_queue_lengthEv
 651              		.thumb
 652              		.thumb_func
 653              		.type	_ZNK3r2p15LocalSubscriber16get_queue_lengthEv, %function
 654              	_ZNK3r2p15LocalSubscriber16get_queue_lengthEv:
 655              	.LFB391:
 656              		.file 10 "/home/ergae/r2p-sdk/core/Middleware/include/r2p/LocalSubscriber.hpp"
 657              		.loc 10 64 0
 658              		.cfi_startproc
 659              		@ args = 0, pretend = 0, frame = 8
 660              		@ frame_needed = 0, uses_anonymous_args = 0
 661 0000 00B5     		push	{lr}
 662              		.cfi_def_cfa_offset 4
 663              		.cfi_offset 14, -4
ARM GAS  /tmp/ccF7TFW9.s 			page 13


 664 0002 83B0     		sub	sp, sp, #12
 665              		.cfi_def_cfa_offset 16
 666 0004 0190     		str	r0, [sp, #4]
 667              		.loc 10 66 0
 668 0006 019B     		ldr	r3, [sp, #4]
 669 0008 1033     		adds	r3, r3, #16
 670 000a 1846     		mov	r0, r3
 671 000c FFF7FEFF 		bl	_ZNK3r2p10ArrayQueueIPNS_7MessageEE10get_lengthEv
 672 0010 0346     		mov	r3, r0
 673              		.loc 10 67 0
 674 0012 1846     		mov	r0, r3
 675 0014 03B0     		add	sp, sp, #12
 676              		.cfi_def_cfa_offset 4
 677              		@ sp needed
 678 0016 5DF804FB 		ldr	pc, [sp], #4
 679              		.cfi_endproc
 680              	.LFE391:
 681              		.size	_ZNK3r2p15LocalSubscriber16get_queue_lengthEv, .-_ZNK3r2p15LocalSubscriber16get_queue_length
 682 001a 00BFAFF3 		.section	.text._ZN3r2p15LocalSubscriber12fetch_unsafeERPNS_7MessageERNS_4TimeE,"axG",%progbits,_ZN
 682      0080
 683              		.align	2
 684              		.p2align 4,,15
 685              		.weak	_ZN3r2p15LocalSubscriber12fetch_unsafeERPNS_7MessageERNS_4TimeE
 686              		.thumb
 687              		.thumb_func
 688              		.type	_ZN3r2p15LocalSubscriber12fetch_unsafeERPNS_7MessageERNS_4TimeE, %function
 689              	_ZN3r2p15LocalSubscriber12fetch_unsafeERPNS_7MessageERNS_4TimeE:
 690              	.LFB392:
 691              		.loc 10 71 0
 692              		.cfi_startproc
 693              		@ args = 0, pretend = 0, frame = 24
 694              		@ frame_needed = 0, uses_anonymous_args = 0
 695 0000 00B5     		push	{lr}
 696              		.cfi_def_cfa_offset 4
 697              		.cfi_offset 14, -4
 698 0002 87B0     		sub	sp, sp, #28
 699              		.cfi_def_cfa_offset 32
 700 0004 0390     		str	r0, [sp, #12]
 701 0006 0291     		str	r1, [sp, #8]
 702 0008 0192     		str	r2, [sp, #4]
 703              		.loc 10 73 0
 704 000a 039B     		ldr	r3, [sp, #12]
 705 000c 1033     		adds	r3, r3, #16
 706 000e 1846     		mov	r0, r3
 707 0010 0299     		ldr	r1, [sp, #8]
 708 0012 FFF7FEFF 		bl	_ZN3r2p10ArrayQueueIPNS_7MessageEE12fetch_unsafeERS2_
 709 0016 0346     		mov	r3, r0
 710 0018 002B     		cmp	r3, #0
 711 001a 0AD0     		beq	.L38
 712              		.loc 10 74 0
 713 001c 05AB     		add	r3, sp, #20
 714 001e 1846     		mov	r0, r3
 715 0020 FFF7FEFF 		bl	_ZN3r2p4Time3nowEv
 716 0024 05AB     		add	r3, sp, #20
 717 0026 0198     		ldr	r0, [sp, #4]
 718 0028 1946     		mov	r1, r3
 719 002a FFF7FEFF 		bl	_ZN3r2p4TimeaSERKS0_
ARM GAS  /tmp/ccF7TFW9.s 			page 14


 720              		.loc 10 75 0
 721 002e 0123     		movs	r3, #1
 722 0030 00E0     		b	.L39
 723              	.L38:
 724              		.loc 10 77 0
 725 0032 0023     		movs	r3, #0
 726              	.L39:
 727              		.loc 10 78 0
 728 0034 1846     		mov	r0, r3
 729 0036 07B0     		add	sp, sp, #28
 730              		.cfi_def_cfa_offset 4
 731              		@ sp needed
 732 0038 5DF804FB 		ldr	pc, [sp], #4
 733              		.cfi_endproc
 734              	.LFE392:
 735              		.size	_ZN3r2p15LocalSubscriber12fetch_unsafeERPNS_7MessageERNS_4TimeE, .-_ZN3r2p15LocalSubscriber1
 736 003c AFF30080 		.section	.text._ZN3r2p15LocalSubscriber13notify_unsafeERNS_7MessageERKNS_4TimeE,"axG",%progbits,_Z
 737              		.align	2
 738              		.p2align 4,,15
 739              		.weak	_ZN3r2p15LocalSubscriber13notify_unsafeERNS_7MessageERKNS_4TimeE
 740              		.thumb
 741              		.thumb_func
 742              		.type	_ZN3r2p15LocalSubscriber13notify_unsafeERNS_7MessageERKNS_4TimeE, %function
 743              	_ZN3r2p15LocalSubscriber13notify_unsafeERNS_7MessageERKNS_4TimeE:
 744              	.LFB393:
 745              		.loc 10 82 0
 746              		.cfi_startproc
 747              		@ args = 0, pretend = 0, frame = 16
 748              		@ frame_needed = 0, uses_anonymous_args = 0
 749 0000 00B5     		push	{lr}
 750              		.cfi_def_cfa_offset 4
 751              		.cfi_offset 14, -4
 752 0002 85B0     		sub	sp, sp, #20
 753              		.cfi_def_cfa_offset 24
 754 0004 0390     		str	r0, [sp, #12]
 755 0006 0291     		str	r1, [sp, #8]
 756 0008 0192     		str	r2, [sp, #4]
 757              		.loc 10 86 0
 758 000a 039B     		ldr	r3, [sp, #12]
 759 000c 9B68     		ldr	r3, [r3, #8]
 760 000e 1846     		mov	r0, r3
 761 0010 FFF7FEFF 		bl	_ZNK3r2p4Node11get_enabledEv
 762 0014 0346     		mov	r3, r0
 763 0016 002B     		cmp	r3, #0
 764 0018 0AD0     		beq	.L41
 765              		.loc 10 86 0 is_stmt 0 discriminator 1
 766 001a 039B     		ldr	r3, [sp, #12]
 767 001c 1033     		adds	r3, r3, #16
 768 001e 1846     		mov	r0, r3
 769 0020 0299     		ldr	r1, [sp, #8]
 770 0022 FFF7FEFF 		bl	_ZN3r2p10ArrayQueueIPNS_7MessageEE11post_unsafeES2_
 771 0026 0346     		mov	r3, r0
 772 0028 002B     		cmp	r3, #0
 773 002a 01D0     		beq	.L41
 774              		.loc 10 86 0 discriminator 3
 775 002c 0123     		movs	r3, #1
 776 002e 00E0     		b	.L42
ARM GAS  /tmp/ccF7TFW9.s 			page 15


 777              	.L41:
 778              		.loc 10 86 0 discriminator 4
 779 0030 0023     		movs	r3, #0
 780              	.L42:
 781              		.loc 10 86 0 discriminator 6
 782 0032 002B     		cmp	r3, #0
 783 0034 0AD0     		beq	.L43
 784              		.loc 10 87 0 is_stmt 1
 785 0036 039B     		ldr	r3, [sp, #12]
 786 0038 9A68     		ldr	r2, [r3, #8]
 787 003a 039B     		ldr	r3, [sp, #12]
 788 003c 93F82430 		ldrb	r3, [r3, #36]	@ zero_extendqisi2
 789 0040 1046     		mov	r0, r2
 790 0042 1946     		mov	r1, r3
 791 0044 FFF7FEFF 		bl	_ZN3r2p4Node13notify_unsafeEj
 792              		.loc 10 88 0
 793 0048 0123     		movs	r3, #1
 794 004a 00E0     		b	.L44
 795              	.L43:
 796              		.loc 10 90 0
 797 004c 0023     		movs	r3, #0
 798              	.L44:
 799              		.loc 10 91 0
 800 004e 1846     		mov	r0, r3
 801 0050 05B0     		add	sp, sp, #20
 802              		.cfi_def_cfa_offset 4
 803              		@ sp needed
 804 0052 5DF804FB 		ldr	pc, [sp], #4
 805              		.cfi_endproc
 806              	.LFE393:
 807              		.size	_ZN3r2p15LocalSubscriber13notify_unsafeERNS_7MessageERKNS_4TimeE, .-_ZN3r2p15LocalSubscriber
 808 0056 00BFAFF3 		.section	.text._ZN3r2p5Topic12alloc_unsafeEv,"axG",%progbits,_ZN3r2p5Topic12alloc_unsafeEv,comdat
 808      0080AFF3 
 808      0080
 809              		.align	2
 810              		.p2align 4,,15
 811              		.weak	_ZN3r2p5Topic12alloc_unsafeEv
 812              		.thumb
 813              		.thumb_func
 814              		.type	_ZN3r2p5Topic12alloc_unsafeEv, %function
 815              	_ZN3r2p5Topic12alloc_unsafeEv:
 816              	.LFB412:
 817              		.file 11 "/home/ergae/r2p-sdk/core/Middleware/include/r2p/Topic.hpp"
 818              		.loc 11 250 0
 819              		.cfi_startproc
 820              		@ args = 0, pretend = 0, frame = 8
 821              		@ frame_needed = 0, uses_anonymous_args = 0
 822 0000 10B5     		push	{r4, lr}
 823              		.cfi_def_cfa_offset 8
 824              		.cfi_offset 4, -8
 825              		.cfi_offset 14, -4
 826 0002 82B0     		sub	sp, sp, #8
 827              		.cfi_def_cfa_offset 16
 828 0004 0190     		str	r0, [sp, #4]
 829              	.LBB32:
 830              		.loc 11 252 0
 831 0006 019B     		ldr	r3, [sp, #4]
ARM GAS  /tmp/ccF7TFW9.s 			page 16


 832 0008 0833     		adds	r3, r3, #8
 833 000a 1846     		mov	r0, r3
 834 000c FFF7FEFF 		bl	_ZN3r2p11MemoryPool_12alloc_unsafeEv
 835 0010 0446     		mov	r4, r0
 836              		.loc 11 253 0
 837 0012 002C     		cmp	r4, #0
 838 0014 04D0     		beq	.L46
 839              		.loc 11 254 0
 840 0016 2046     		mov	r0, r4
 841 0018 FFF7FEFF 		bl	_ZN3r2p7Message12reset_unsafeEv
 842              		.loc 11 255 0
 843 001c 2346     		mov	r3, r4
 844 001e 00E0     		b	.L47
 845              	.L46:
 846              		.loc 11 257 0
 847 0020 0023     		movs	r3, #0
 848              	.L47:
 849              	.LBE32:
 850              		.loc 11 258 0
 851 0022 1846     		mov	r0, r3
 852 0024 02B0     		add	sp, sp, #8
 853              		.cfi_def_cfa_offset 8
 854              		@ sp needed
 855 0026 10BD     		pop	{r4, pc}
 856              		.cfi_endproc
 857              	.LFE412:
 858              		.size	_ZN3r2p5Topic12alloc_unsafeEv, .-_ZN3r2p5Topic12alloc_unsafeEv
 859              		.global	_ZN3r2p19default_ledpub_confE
 860 0028 AFF30080 		.section	.rodata
 860      AFF30080 
 861 000d 000000   		.align	2
 862              	.LC1:
 863 0010 6C656432 		.ascii	"led2\000"
 863      00
 864              		.section	.data._ZN3r2p19default_ledpub_confE,"aw",%progbits
 865              		.align	2
 866              		.type	_ZN3r2p19default_ledpub_confE, %object
 867              		.size	_ZN3r2p19default_ledpub_confE, 8
 868              	_ZN3r2p19default_ledpub_confE:
 869 0000 10000000 		.word	.LC1
 870 0004 02       		.byte	2
 871 0005 000000   		.space	3
 872              		.global	_ZN3r2p19default_ledsub_confE
 873              		.section	.data._ZN3r2p19default_ledsub_confE,"aw",%progbits
 874              		.align	2
 875              		.type	_ZN3r2p19default_ledsub_confE, %object
 876              		.size	_ZN3r2p19default_ledsub_confE, 4
 877              	_ZN3r2p19default_ledsub_confE:
 878 0000 10000000 		.word	.LC1
 879              		.section	.rodata
 880 0015 000000   		.align	2
 881              	.LC2:
 882 0018 6C656470 		.ascii	"ledpub\000"
 882      756200
 883              		.section	.text._ZN3r2p11ledpub_nodeEPv,"ax",%progbits
 884              		.align	2
 885              		.p2align 4,,15
ARM GAS  /tmp/ccF7TFW9.s 			page 17


 886              		.global	_ZN3r2p11ledpub_nodeEPv
 887              		.thumb
 888              		.thumb_func
 889              		.type	_ZN3r2p11ledpub_nodeEPv, %function
 890              	_ZN3r2p11ledpub_nodeEPv:
 891              	.LFB596:
 892              		.file 12 "/home/ergae/r2p-sdk/packages/led/nodes/led.cpp"
 893              		.loc 12 21 0
 894              		.cfi_startproc
 895              		@ args = 0, pretend = 0, frame = 72
 896              		@ frame_needed = 0, uses_anonymous_args = 0
 897 0000 00B5     		push	{lr}
 898              		.cfi_def_cfa_offset 4
 899              		.cfi_offset 14, -4
 900 0002 93B0     		sub	sp, sp, #76
 901              		.cfi_def_cfa_offset 80
 902 0004 0190     		str	r0, [sp, #4]
 903              	.LBB33:
 904              		.loc 12 22 0
 905 0006 019B     		ldr	r3, [sp, #4]
 906 0008 1193     		str	r3, [sp, #68]
 907              		.loc 12 23 0
 908 000a 08AB     		add	r3, sp, #32
 909 000c 1846     		mov	r0, r3
 910 000e 2349     		ldr	r1, .L52
 911 0010 0122     		movs	r2, #1
 912 0012 FFF7FEFF 		bl	_ZN3r2p4NodeC1EPKcb
 913              		.loc 12 24 0
 914 0016 04AB     		add	r3, sp, #16
 915 0018 1846     		mov	r0, r3
 916 001a FFF7FEFF 		bl	_ZN3r2p9PublisherINS_6LedMsgEEC1Ev
 917              		.loc 12 26 0
 918 001e 0023     		movs	r3, #0
 919 0020 1093     		str	r3, [sp, #64]
 920              		.loc 12 28 0
 921 0022 119B     		ldr	r3, [sp, #68]
 922 0024 002B     		cmp	r3, #0
 923 0026 01D1     		bne	.L49
 924              		.loc 12 28 0 is_stmt 0 discriminator 1
 925 0028 1D4B     		ldr	r3, .L52+4
 926 002a 1193     		str	r3, [sp, #68]
 927              	.L49:
 928              		.loc 12 30 0 is_stmt 1
 929 002c 119B     		ldr	r3, [sp, #68]
 930 002e 1B79     		ldrb	r3, [r3, #4]
 931 0030 8DF83F30 		strb	r3, [sp, #63]
 932              		.loc 12 32 0
 933 0034 119B     		ldr	r3, [sp, #68]
 934 0036 1B68     		ldr	r3, [r3]
 935 0038 08A9     		add	r1, sp, #32
 936 003a 04AA     		add	r2, sp, #16
 937 003c 0846     		mov	r0, r1
 938 003e 1146     		mov	r1, r2
 939 0040 1A46     		mov	r2, r3
 940 0042 184B     		ldr	r3, .L52+8
 941 0044 FFF7FEFF 		bl	_ZN3r2p4Node9advertiseINS_6LedMsgEEEbRNS_9PublisherIT_EEPKcRKNS_4TimeE
 942              	.L51:
ARM GAS  /tmp/ccF7TFW9.s 			page 18


 943              	.LBB34:
 944              	.LBB35:
 945              		.loc 12 36 0
 946 0048 04AA     		add	r2, sp, #16
 947 004a 03AB     		add	r3, sp, #12
 948 004c 1046     		mov	r0, r2
 949 004e 1946     		mov	r1, r3
 950 0050 FFF7FEFF 		bl	_ZN3r2p9PublisherINS_6LedMsgEE5allocERPS1_
 951 0054 0346     		mov	r3, r0
 952 0056 002B     		cmp	r3, #0
 953 0058 1BD0     		beq	.L50
 954              		.loc 12 37 0
 955 005a 039B     		ldr	r3, [sp, #12]
 956 005c 9DF83F20 		ldrb	r2, [sp, #63]	@ zero_extendqisi2
 957 0060 C3F80220 		str	r2, [r3, #2]	@ unaligned
 958              		.loc 12 38 0
 959 0064 039B     		ldr	r3, [sp, #12]
 960 0066 109A     		ldr	r2, [sp, #64]
 961 0068 D2B2     		uxtb	r2, r2
 962 006a 9A71     		strb	r2, [r3, #6]
 963              		.loc 12 39 0
 964 006c 109B     		ldr	r3, [sp, #64]
 965 006e 83F00103 		eor	r3, r3, #1
 966 0072 1093     		str	r3, [sp, #64]
 967              		.loc 12 40 0
 968 0074 039B     		ldr	r3, [sp, #12]
 969 0076 04AA     		add	r2, sp, #16
 970 0078 1046     		mov	r0, r2
 971 007a 1946     		mov	r1, r3
 972 007c FFF7FEFF 		bl	_ZN3r2p9PublisherINS_6LedMsgEE7publishERS1_
 973 0080 0346     		mov	r3, r0
 974 0082 83F00103 		eor	r3, r3, #1
 975 0086 DBB2     		uxtb	r3, r3
 976 0088 002B     		cmp	r3, #0
 977 008a 02D0     		beq	.L50
 978              		.loc 12 41 0
 979 008c 0648     		ldr	r0, .L52+12
 980 008e FFF7FEFF 		bl	chDbgPanic
 981              	.L50:
 982              		.loc 12 46 0 discriminator 1
 983 0092 4FF4FA70 		mov	r0, #500
 984 0096 FFF7FEFF 		bl	chThdSleep
 985              	.LBE35:
 986              		.loc 12 47 0 discriminator 1
 987 009a D5E7     		b	.L51
 988              	.L53:
 989              		.align	2
 990              	.L52:
 991 009c 18000000 		.word	.LC2
 992 00a0 00000000 		.word	_ZN3r2p19default_ledpub_confE
 993 00a4 00000000 		.word	_ZN3r2p4Time8INFINITEE
 994 00a8 00000000 		.word	.LC0
 995              	.LBE34:
 996              	.LBE33:
 997              		.cfi_endproc
 998              	.LFE596:
 999              		.size	_ZN3r2p11ledpub_nodeEPv, .-_ZN3r2p11ledpub_nodeEPv
ARM GAS  /tmp/ccF7TFW9.s 			page 19


 1000 00ac AFF30080 		.section	.text._ZN3r2p8callbackERKNS_6LedMsgE,"ax",%progbits
 1001              		.align	2
 1002              		.p2align 4,,15
 1003              		.global	_ZN3r2p8callbackERKNS_6LedMsgE
 1004              		.thumb
 1005              		.thumb_func
 1006              		.type	_ZN3r2p8callbackERKNS_6LedMsgE, %function
 1007              	_ZN3r2p8callbackERKNS_6LedMsgE:
 1008              	.LFB597:
 1009              		.loc 12 55 0
 1010              		.cfi_startproc
 1011              		@ args = 0, pretend = 0, frame = 8
 1012              		@ frame_needed = 0, uses_anonymous_args = 0
 1013              		@ link register save eliminated.
 1014 0000 82B0     		sub	sp, sp, #8
 1015              		.cfi_def_cfa_offset 8
 1016 0002 0190     		str	r0, [sp, #4]
 1017              		.loc 12 57 0
 1018 0004 0A49     		ldr	r1, .L58
 1019 0006 019B     		ldr	r3, [sp, #4]
 1020 0008 9B79     		ldrb	r3, [r3, #6]	@ zero_extendqisi2
 1021 000a 03F00103 		and	r3, r3, #1
 1022 000e 002B     		cmp	r3, #0
 1023 0010 02D1     		bne	.L55
 1024              		.loc 12 57 0 is_stmt 0 discriminator 1
 1025 0012 4FF00052 		mov	r2, #536870912
 1026 0016 00E0     		b	.L56
 1027              	.L55:
 1028              		.loc 12 57 0 discriminator 2
 1029 0018 0022     		movs	r2, #0
 1030              	.L56:
 1031              		.loc 12 57 0 discriminator 4
 1032 001a 019B     		ldr	r3, [sp, #4]
 1033 001c 9B79     		ldrb	r3, [r3, #6]	@ zero_extendqisi2
 1034 001e 03F00103 		and	r3, r3, #1
 1035 0022 5B03     		lsls	r3, r3, #13
 1036 0024 1343     		orrs	r3, r3, r2
 1037 0026 8B61     		str	r3, [r1, #24]
 1038              		.loc 12 59 0 is_stmt 1 discriminator 4
 1039 0028 0123     		movs	r3, #1
 1040              		.loc 12 60 0 discriminator 4
 1041 002a 1846     		mov	r0, r3
 1042 002c 02B0     		add	sp, sp, #8
 1043              		.cfi_def_cfa_offset 0
 1044              		@ sp needed
 1045 002e 7047     		bx	lr
 1046              	.L59:
 1047              		.align	2
 1048              	.L58:
 1049 0030 00080048 		.word	1207961600
 1050              		.cfi_endproc
 1051              	.LFE597:
 1052              		.size	_ZN3r2p8callbackERKNS_6LedMsgE, .-_ZN3r2p8callbackERKNS_6LedMsgE
 1053 0034 AFF30080 		.section	.rodata
 1053      AFF30080 
 1053      AFF30080 
 1054 001f 00       		.align	2
ARM GAS  /tmp/ccF7TFW9.s 			page 20


 1055              	.LC3:
 1056 0020 6C656473 		.ascii	"ledsub\000"
 1056      756200
 1057 0027 00       		.section	.text._ZN3r2p11ledsub_nodeEPv,"ax",%progbits
 1058              		.align	2
 1059              		.p2align 4,,15
 1060              		.global	_ZN3r2p11ledsub_nodeEPv
 1061              		.thumb
 1062              		.thumb_func
 1063              		.type	_ZN3r2p11ledsub_nodeEPv, %function
 1064              	_ZN3r2p11ledsub_nodeEPv:
 1065              	.LFB598:
 1066              		.loc 12 62 0
 1067              		.cfi_startproc
 1068              		@ args = 0, pretend = 0, frame = 160
 1069              		@ frame_needed = 0, uses_anonymous_args = 0
 1070 0000 00B5     		push	{lr}
 1071              		.cfi_def_cfa_offset 4
 1072              		.cfi_offset 14, -4
 1073 0002 A9B0     		sub	sp, sp, #164
 1074              		.cfi_def_cfa_offset 168
 1075 0004 0190     		str	r0, [sp, #4]
 1076              	.LBB36:
 1077              		.loc 12 63 0
 1078 0006 019B     		ldr	r3, [sp, #4]
 1079 0008 2793     		str	r3, [sp, #156]
 1080              		.loc 12 64 0
 1081 000a 1FAB     		add	r3, sp, #124
 1082 000c 1846     		mov	r0, r3
 1083 000e 1849     		ldr	r1, .L63
 1084 0010 0122     		movs	r2, #1
 1085 0012 FFF7FEFF 		bl	_ZN3r2p4NodeC1EPKcb
 1086              		.loc 12 65 0
 1087 0016 03AB     		add	r3, sp, #12
 1088 0018 1846     		mov	r0, r3
 1089 001a 1649     		ldr	r1, .L63+4
 1090 001c FFF7FEFF 		bl	_ZN3r2p10SubscriberINS_6LedMsgELj5EEC1EPFbRKS1_E
 1091              		.loc 12 67 0
 1092 0020 279B     		ldr	r3, [sp, #156]
 1093 0022 002B     		cmp	r3, #0
 1094 0024 01D1     		bne	.L61
 1095              		.loc 12 67 0 is_stmt 0 discriminator 1
 1096 0026 144B     		ldr	r3, .L63+8
 1097 0028 2793     		str	r3, [sp, #156]
 1098              	.L61:
 1099              		.loc 12 69 0 is_stmt 1
 1100 002a 279B     		ldr	r3, [sp, #156]
 1101 002c 1B68     		ldr	r3, [r3]
 1102 002e 1FA9     		add	r1, sp, #124
 1103 0030 03AA     		add	r2, sp, #12
 1104 0032 0846     		mov	r0, r1
 1105 0034 1146     		mov	r1, r2
 1106 0036 1A46     		mov	r2, r3
 1107 0038 FFF7FEFF 		bl	_ZN3r2p4Node9subscribeINS_6LedMsgELj5EEEbRNS_10SubscriberIT_XT0_EEEPKc
 1108              	.L62:
 1109              		.loc 12 72 0
 1110 003c 26AB     		add	r3, sp, #152
ARM GAS  /tmp/ccF7TFW9.s 			page 21


 1111 003e 1846     		mov	r0, r3
 1112 0040 4FF4FA61 		mov	r1, #2000
 1113 0044 FFF7FEFF 		bl	_ZN3r2p4Time2msEl
 1114 0048 1FAA     		add	r2, sp, #124
 1115 004a 26AB     		add	r3, sp, #152
 1116 004c 1046     		mov	r0, r2
 1117 004e 1946     		mov	r1, r3
 1118 0050 FFF7FEFF 		bl	_ZN3r2p4Node4spinERKNS_4TimeE
 1119 0054 0346     		mov	r3, r0
 1120 0056 83F00103 		eor	r3, r3, #1
 1121 005a DBB2     		uxtb	r3, r3
 1122 005c 002B     		cmp	r3, #0
 1123 005e EDD0     		beq	.L62
 1124              		.loc 12 73 0
 1125 0060 064A     		ldr	r2, .L63+12
 1126 0062 064B     		ldr	r3, .L63+12
 1127 0064 5B69     		ldr	r3, [r3, #20]
 1128 0066 83F40053 		eor	r3, r3, #8192
 1129 006a 5361     		str	r3, [r2, #20]
 1130 006c E6E7     		b	.L62
 1131              	.L64:
 1132 006e 00BF     		.align	2
 1133              	.L63:
 1134 0070 20000000 		.word	.LC3
 1135 0074 00000000 		.word	_ZN3r2p8callbackERKNS_6LedMsgE
 1136 0078 00000000 		.word	_ZN3r2p19default_ledsub_confE
 1137 007c 00080048 		.word	1207961600
 1138              	.LBE36:
 1139              		.cfi_endproc
 1140              	.LFE598:
 1141              		.size	_ZN3r2p11ledsub_nodeEPv, .-_ZN3r2p11ledsub_nodeEPv
 1142              		.section	.text._ZN3r2p4TimeC2IlEET_,"axG",%progbits,_ZN3r2p4TimeC5IlEET_,comdat
 1143              		.align	2
 1144              		.p2align 4,,15
 1145              		.weak	_ZN3r2p4TimeC2IlEET_
 1146              		.thumb
 1147              		.thumb_func
 1148              		.type	_ZN3r2p4TimeC2IlEET_, %function
 1149              	_ZN3r2p4TimeC2IlEET_:
 1150              	.LFB600:
 1151              		.loc 4 159 0
 1152              		.cfi_startproc
 1153              		@ args = 0, pretend = 0, frame = 8
 1154              		@ frame_needed = 0, uses_anonymous_args = 0
 1155              		@ link register save eliminated.
 1156 0000 82B0     		sub	sp, sp, #8
 1157              		.cfi_def_cfa_offset 8
 1158 0002 0190     		str	r0, [sp, #4]
 1159 0004 0091     		str	r1, [sp]
 1160              	.LBB37:
 1161              		.loc 4 161 0
 1162 0006 019B     		ldr	r3, [sp, #4]
 1163 0008 009A     		ldr	r2, [sp]
 1164 000a 1A60     		str	r2, [r3]
 1165              	.LBE37:
 1166              		.loc 4 162 0
 1167 000c 019B     		ldr	r3, [sp, #4]
ARM GAS  /tmp/ccF7TFW9.s 			page 22


 1168 000e 1846     		mov	r0, r3
 1169 0010 02B0     		add	sp, sp, #8
 1170              		.cfi_def_cfa_offset 0
 1171              		@ sp needed
 1172 0012 7047     		bx	lr
 1173              		.cfi_endproc
 1174              	.LFE600:
 1175              		.size	_ZN3r2p4TimeC2IlEET_, .-_ZN3r2p4TimeC2IlEET_
 1176              		.weak	_ZN3r2p4TimeC1IlEET_
 1177              		.thumb_set _ZN3r2p4TimeC1IlEET_,_ZN3r2p4TimeC2IlEET_
 1178 0014 AFF30080 		.section	.text._ZNK3r2p10ArrayQueueIPNS_7MessageEE10get_lengthEv,"axG",%progbits,_ZNK3r2p10ArrayQu
 1178      AFF30080 
 1178      AFF30080 
 1179              		.align	2
 1180              		.p2align 4,,15
 1181              		.weak	_ZNK3r2p10ArrayQueueIPNS_7MessageEE10get_lengthEv
 1182              		.thumb
 1183              		.thumb_func
 1184              		.type	_ZNK3r2p10ArrayQueueIPNS_7MessageEE10get_lengthEv, %function
 1185              	_ZNK3r2p10ArrayQueueIPNS_7MessageEE10get_lengthEv:
 1186              	.LFB608:
 1187              		.file 13 "/home/ergae/r2p-sdk/core/Middleware/include/r2p/ArrayQueue.hpp"
 1188              		.loc 13 81 0
 1189              		.cfi_startproc
 1190              		@ args = 0, pretend = 0, frame = 8
 1191              		@ frame_needed = 0, uses_anonymous_args = 0
 1192              		@ link register save eliminated.
 1193 0000 82B0     		sub	sp, sp, #8
 1194              		.cfi_def_cfa_offset 8
 1195 0002 0190     		str	r0, [sp, #4]
 1196              		.loc 13 83 0
 1197 0004 019B     		ldr	r3, [sp, #4]
 1198 0006 5B68     		ldr	r3, [r3, #4]
 1199              		.loc 13 84 0
 1200 0008 1846     		mov	r0, r3
 1201 000a 02B0     		add	sp, sp, #8
 1202              		.cfi_def_cfa_offset 0
 1203              		@ sp needed
 1204 000c 7047     		bx	lr
 1205              		.cfi_endproc
 1206              	.LFE608:
 1207              		.size	_ZNK3r2p10ArrayQueueIPNS_7MessageEE10get_lengthEv, .-_ZNK3r2p10ArrayQueueIPNS_7MessageEE10ge
 1208 000e 00BF     		.section	.text._ZN3r2p10ArrayQueueIPNS_7MessageEE12fetch_unsafeERS2_,"axG",%progbits,_ZN3r2p10Arra
 1209              		.align	2
 1210              		.p2align 4,,15
 1211              		.weak	_ZN3r2p10ArrayQueueIPNS_7MessageEE12fetch_unsafeERS2_
 1212              		.thumb
 1213              		.thumb_func
 1214              		.type	_ZN3r2p10ArrayQueueIPNS_7MessageEE12fetch_unsafeERS2_, %function
 1215              	_ZN3r2p10ArrayQueueIPNS_7MessageEE12fetch_unsafeERS2_:
 1216              	.LFB609:
 1217              		.loc 13 52 0
 1218              		.cfi_startproc
 1219              		@ args = 0, pretend = 0, frame = 8
 1220              		@ frame_needed = 0, uses_anonymous_args = 0
 1221              		@ link register save eliminated.
 1222 0000 82B0     		sub	sp, sp, #8
ARM GAS  /tmp/ccF7TFW9.s 			page 23


 1223              		.cfi_def_cfa_offset 8
 1224 0002 0190     		str	r0, [sp, #4]
 1225 0004 0091     		str	r1, [sp]
 1226              		.loc 13 54 0
 1227 0006 019B     		ldr	r3, [sp, #4]
 1228 0008 9B68     		ldr	r3, [r3, #8]
 1229 000a 002B     		cmp	r3, #0
 1230 000c 23D0     		beq	.L71
 1231              		.loc 13 55 0
 1232 000e 019B     		ldr	r3, [sp, #4]
 1233 0010 9B68     		ldr	r3, [r3, #8]
 1234 0012 5A1E     		subs	r2, r3, #1
 1235 0014 019B     		ldr	r3, [sp, #4]
 1236 0016 9A60     		str	r2, [r3, #8]
 1237              		.loc 13 56 0
 1238 0018 019B     		ldr	r3, [sp, #4]
 1239 001a DB68     		ldr	r3, [r3, #12]
 1240 001c 1A68     		ldr	r2, [r3]
 1241 001e 009B     		ldr	r3, [sp]
 1242 0020 1A60     		str	r2, [r3]
 1243              		.loc 13 57 0
 1244 0022 019B     		ldr	r3, [sp, #4]
 1245 0024 DB68     		ldr	r3, [r3, #12]
 1246 0026 1A1D     		adds	r2, r3, #4
 1247 0028 019B     		ldr	r3, [sp, #4]
 1248 002a DA60     		str	r2, [r3, #12]
 1249 002c 019B     		ldr	r3, [sp, #4]
 1250 002e DA68     		ldr	r2, [r3, #12]
 1251 0030 019B     		ldr	r3, [sp, #4]
 1252 0032 1968     		ldr	r1, [r3]
 1253 0034 019B     		ldr	r3, [sp, #4]
 1254 0036 5B68     		ldr	r3, [r3, #4]
 1255 0038 9B00     		lsls	r3, r3, #2
 1256 003a 0B44     		add	r3, r3, r1
 1257 003c 9A42     		cmp	r2, r3
 1258 003e 2CBF     		ite	cs
 1259 0040 0123     		movcs	r3, #1
 1260 0042 0023     		movcc	r3, #0
 1261 0044 DBB2     		uxtb	r3, r3
 1262 0046 002B     		cmp	r3, #0
 1263 0048 03D0     		beq	.L72
 1264              		.loc 13 58 0
 1265 004a 019B     		ldr	r3, [sp, #4]
 1266 004c 1A68     		ldr	r2, [r3]
 1267 004e 019B     		ldr	r3, [sp, #4]
 1268 0050 DA60     		str	r2, [r3, #12]
 1269              	.L72:
 1270              		.loc 13 60 0
 1271 0052 0123     		movs	r3, #1
 1272 0054 00E0     		b	.L73
 1273              	.L71:
 1274              		.loc 13 62 0
 1275 0056 0023     		movs	r3, #0
 1276              	.L73:
 1277              		.loc 13 63 0
 1278 0058 1846     		mov	r0, r3
 1279 005a 02B0     		add	sp, sp, #8
ARM GAS  /tmp/ccF7TFW9.s 			page 24


 1280              		.cfi_def_cfa_offset 0
 1281              		@ sp needed
 1282 005c 7047     		bx	lr
 1283              		.cfi_endproc
 1284              	.LFE609:
 1285              		.size	_ZN3r2p10ArrayQueueIPNS_7MessageEE12fetch_unsafeERS2_, .-_ZN3r2p10ArrayQueueIPNS_7MessageEE1
 1286 005e 00BF     		.section	.text._ZN3r2p10ArrayQueueIPNS_7MessageEE11post_unsafeES2_,"axG",%progbits,_ZN3r2p10ArrayQ
 1287              		.align	2
 1288              		.p2align 4,,15
 1289              		.weak	_ZN3r2p10ArrayQueueIPNS_7MessageEE11post_unsafeES2_
 1290              		.thumb
 1291              		.thumb_func
 1292              		.type	_ZN3r2p10ArrayQueueIPNS_7MessageEE11post_unsafeES2_, %function
 1293              	_ZN3r2p10ArrayQueueIPNS_7MessageEE11post_unsafeES2_:
 1294              	.LFB610:
 1295              		.loc 13 37 0
 1296              		.cfi_startproc
 1297              		@ args = 0, pretend = 0, frame = 8
 1298              		@ frame_needed = 0, uses_anonymous_args = 0
 1299              		@ link register save eliminated.
 1300 0000 82B0     		sub	sp, sp, #8
 1301              		.cfi_def_cfa_offset 8
 1302 0002 0190     		str	r0, [sp, #4]
 1303 0004 0091     		str	r1, [sp]
 1304              		.loc 13 39 0
 1305 0006 019B     		ldr	r3, [sp, #4]
 1306 0008 9A68     		ldr	r2, [r3, #8]
 1307 000a 019B     		ldr	r3, [sp, #4]
 1308 000c 5B68     		ldr	r3, [r3, #4]
 1309 000e 9A42     		cmp	r2, r3
 1310 0010 22D2     		bcs	.L75
 1311              		.loc 13 40 0
 1312 0012 019B     		ldr	r3, [sp, #4]
 1313 0014 9B68     		ldr	r3, [r3, #8]
 1314 0016 5A1C     		adds	r2, r3, #1
 1315 0018 019B     		ldr	r3, [sp, #4]
 1316 001a 9A60     		str	r2, [r3, #8]
 1317              		.loc 13 41 0
 1318 001c 019B     		ldr	r3, [sp, #4]
 1319 001e 1B69     		ldr	r3, [r3, #16]
 1320 0020 009A     		ldr	r2, [sp]
 1321 0022 1A60     		str	r2, [r3]
 1322              		.loc 13 42 0
 1323 0024 019B     		ldr	r3, [sp, #4]
 1324 0026 1B69     		ldr	r3, [r3, #16]
 1325 0028 1A1D     		adds	r2, r3, #4
 1326 002a 019B     		ldr	r3, [sp, #4]
 1327 002c 1A61     		str	r2, [r3, #16]
 1328 002e 019B     		ldr	r3, [sp, #4]
 1329 0030 1A69     		ldr	r2, [r3, #16]
 1330 0032 019B     		ldr	r3, [sp, #4]
 1331 0034 1968     		ldr	r1, [r3]
 1332 0036 019B     		ldr	r3, [sp, #4]
 1333 0038 5B68     		ldr	r3, [r3, #4]
 1334 003a 9B00     		lsls	r3, r3, #2
 1335 003c 0B44     		add	r3, r3, r1
 1336 003e 9A42     		cmp	r2, r3
ARM GAS  /tmp/ccF7TFW9.s 			page 25


 1337 0040 2CBF     		ite	cs
 1338 0042 0123     		movcs	r3, #1
 1339 0044 0023     		movcc	r3, #0
 1340 0046 DBB2     		uxtb	r3, r3
 1341 0048 002B     		cmp	r3, #0
 1342 004a 03D0     		beq	.L76
 1343              		.loc 13 43 0
 1344 004c 019B     		ldr	r3, [sp, #4]
 1345 004e 1A68     		ldr	r2, [r3]
 1346 0050 019B     		ldr	r3, [sp, #4]
 1347 0052 1A61     		str	r2, [r3, #16]
 1348              	.L76:
 1349              		.loc 13 45 0
 1350 0054 0123     		movs	r3, #1
 1351 0056 00E0     		b	.L77
 1352              	.L75:
 1353              		.loc 13 47 0
 1354 0058 0023     		movs	r3, #0
 1355              	.L77:
 1356              		.loc 13 48 0
 1357 005a 1846     		mov	r0, r3
 1358 005c 02B0     		add	sp, sp, #8
 1359              		.cfi_def_cfa_offset 0
 1360              		@ sp needed
 1361 005e 7047     		bx	lr
 1362              		.cfi_endproc
 1363              	.LFE610:
 1364              		.size	_ZN3r2p10ArrayQueueIPNS_7MessageEE11post_unsafeES2_, .-_ZN3r2p10ArrayQueueIPNS_7MessageEE11p
 1365              		.section	.text._ZN3r2p9PublisherINS_6LedMsgEEC2Ev,"axG",%progbits,_ZN3r2p9PublisherINS_6LedMsgEEC5
 1366              		.align	2
 1367              		.p2align 4,,15
 1368              		.weak	_ZN3r2p9PublisherINS_6LedMsgEEC2Ev
 1369              		.thumb
 1370              		.thumb_func
 1371              		.type	_ZN3r2p9PublisherINS_6LedMsgEEC2Ev, %function
 1372              	_ZN3r2p9PublisherINS_6LedMsgEEC2Ev:
 1373              	.LFB621:
 1374              		.file 14 "/home/ergae/r2p-sdk/core/Middleware/include/r2p/Publisher.hpp"
 1375              		.loc 14 47 0
 1376              		.cfi_startproc
 1377              		@ args = 0, pretend = 0, frame = 8
 1378              		@ frame_needed = 0, uses_anonymous_args = 0
 1379 0000 00B5     		push	{lr}
 1380              		.cfi_def_cfa_offset 4
 1381              		.cfi_offset 14, -4
 1382 0002 83B0     		sub	sp, sp, #12
 1383              		.cfi_def_cfa_offset 16
 1384 0004 0190     		str	r0, [sp, #4]
 1385              	.LBB38:
 1386              		.loc 14 47 0
 1387 0006 019B     		ldr	r3, [sp, #4]
 1388 0008 1846     		mov	r0, r3
 1389 000a FFF7FEFF 		bl	_ZN3r2p14LocalPublisherC2Ev
 1390 000e 019B     		ldr	r3, [sp, #4]
 1391 0010 034A     		ldr	r2, .L81
 1392 0012 1A60     		str	r2, [r3]
 1393              	.LBE38:
ARM GAS  /tmp/ccF7TFW9.s 			page 26


 1394              		.loc 14 50 0
 1395 0014 019B     		ldr	r3, [sp, #4]
 1396 0016 1846     		mov	r0, r3
 1397 0018 03B0     		add	sp, sp, #12
 1398              		.cfi_def_cfa_offset 4
 1399              		@ sp needed
 1400 001a 5DF804FB 		ldr	pc, [sp], #4
 1401              	.L82:
 1402 001e 00BF     		.align	2
 1403              	.L81:
 1404 0020 08000000 		.word	_ZTVN3r2p9PublisherINS_6LedMsgEEE+8
 1405              		.cfi_endproc
 1406              	.LFE621:
 1407              		.size	_ZN3r2p9PublisherINS_6LedMsgEEC2Ev, .-_ZN3r2p9PublisherINS_6LedMsgEEC2Ev
 1408              		.weak	_ZN3r2p9PublisherINS_6LedMsgEEC1Ev
 1409              		.thumb_set _ZN3r2p9PublisherINS_6LedMsgEEC1Ev,_ZN3r2p9PublisherINS_6LedMsgEEC2Ev
 1410 0024 AFF30080 		.section	.text._ZN3r2p9PublisherINS_6LedMsgEED2Ev,"axG",%progbits,_ZN3r2p9PublisherINS_6LedMsgEED5
 1410      AFF30080 
 1410      AFF30080 
 1411              		.align	2
 1412              		.p2align 4,,15
 1413              		.weak	_ZN3r2p9PublisherINS_6LedMsgEED2Ev
 1414              		.thumb
 1415              		.thumb_func
 1416              		.type	_ZN3r2p9PublisherINS_6LedMsgEED2Ev, %function
 1417              	_ZN3r2p9PublisherINS_6LedMsgEED2Ev:
 1418              	.LFB624:
 1419              		.loc 14 54 0
 1420              		.cfi_startproc
 1421              		@ args = 0, pretend = 0, frame = 8
 1422              		@ frame_needed = 0, uses_anonymous_args = 0
 1423 0000 00B5     		push	{lr}
 1424              		.cfi_def_cfa_offset 4
 1425              		.cfi_offset 14, -4
 1426 0002 83B0     		sub	sp, sp, #12
 1427              		.cfi_def_cfa_offset 16
 1428 0004 0190     		str	r0, [sp, #4]
 1429              	.LBB39:
 1430              		.loc 14 57 0
 1431 0006 019B     		ldr	r3, [sp, #4]
 1432 0008 084A     		ldr	r2, .L87
 1433 000a 1A60     		str	r2, [r3]
 1434 000c 019B     		ldr	r3, [sp, #4]
 1435 000e 1846     		mov	r0, r3
 1436 0010 FFF7FEFF 		bl	_ZN3r2p14LocalPublisherD2Ev
 1437              	.LBE39:
 1438 0014 0023     		movs	r3, #0
 1439 0016 002B     		cmp	r3, #0
 1440 0018 02D0     		beq	.L85
 1441              		.loc 14 57 0 is_stmt 0 discriminator 2
 1442 001a 0198     		ldr	r0, [sp, #4]
 1443 001c FFF7FEFF 		bl	_ZdlPv
 1444              	.L85:
 1445              		.loc 14 57 0 discriminator 4
 1446 0020 019B     		ldr	r3, [sp, #4]
 1447 0022 1846     		mov	r0, r3
 1448 0024 03B0     		add	sp, sp, #12
ARM GAS  /tmp/ccF7TFW9.s 			page 27


 1449              		.cfi_def_cfa_offset 4
 1450              		@ sp needed
 1451 0026 5DF804FB 		ldr	pc, [sp], #4
 1452              	.L88:
 1453 002a 00BF     		.align	2
 1454              	.L87:
 1455 002c 08000000 		.word	_ZTVN3r2p9PublisherINS_6LedMsgEEE+8
 1456              		.cfi_endproc
 1457              	.LFE624:
 1458              		.size	_ZN3r2p9PublisherINS_6LedMsgEED2Ev, .-_ZN3r2p9PublisherINS_6LedMsgEED2Ev
 1459              		.weak	_ZN3r2p9PublisherINS_6LedMsgEED1Ev
 1460              		.thumb_set _ZN3r2p9PublisherINS_6LedMsgEED1Ev,_ZN3r2p9PublisherINS_6LedMsgEED2Ev
 1461              		.section	.text._ZN3r2p9PublisherINS_6LedMsgEED0Ev,"axG",%progbits,_ZN3r2p9PublisherINS_6LedMsgEED5
 1462              		.align	2
 1463              		.p2align 4,,15
 1464              		.weak	_ZN3r2p9PublisherINS_6LedMsgEED0Ev
 1465              		.thumb
 1466              		.thumb_func
 1467              		.type	_ZN3r2p9PublisherINS_6LedMsgEED0Ev, %function
 1468              	_ZN3r2p9PublisherINS_6LedMsgEED0Ev:
 1469              	.LFB626:
 1470              		.loc 14 54 0 is_stmt 1
 1471              		.cfi_startproc
 1472              		@ args = 0, pretend = 0, frame = 8
 1473              		@ frame_needed = 0, uses_anonymous_args = 0
 1474 0000 00B5     		push	{lr}
 1475              		.cfi_def_cfa_offset 4
 1476              		.cfi_offset 14, -4
 1477 0002 83B0     		sub	sp, sp, #12
 1478              		.cfi_def_cfa_offset 16
 1479 0004 0190     		str	r0, [sp, #4]
 1480              		.loc 14 57 0
 1481 0006 0198     		ldr	r0, [sp, #4]
 1482 0008 FFF7FEFF 		bl	_ZN3r2p9PublisherINS_6LedMsgEED1Ev
 1483 000c 0198     		ldr	r0, [sp, #4]
 1484 000e FFF7FEFF 		bl	_ZdlPv
 1485 0012 019B     		ldr	r3, [sp, #4]
 1486 0014 1846     		mov	r0, r3
 1487 0016 03B0     		add	sp, sp, #12
 1488              		.cfi_def_cfa_offset 4
 1489              		@ sp needed
 1490 0018 5DF804FB 		ldr	pc, [sp], #4
 1491              		.cfi_endproc
 1492              	.LFE626:
 1493              		.size	_ZN3r2p9PublisherINS_6LedMsgEED0Ev, .-_ZN3r2p9PublisherINS_6LedMsgEED0Ev
 1494 001c AFF30080 		.section	.text._ZN3r2p4Node9advertiseINS_6LedMsgEEEbRNS_9PublisherIT_EEPKcRKNS_4TimeE,"axG",%progb
 1495              		.align	2
 1496              		.p2align 4,,15
 1497              		.weak	_ZN3r2p4Node9advertiseINS_6LedMsgEEEbRNS_9PublisherIT_EEPKcRKNS_4TimeE
 1498              		.thumb
 1499              		.thumb_func
 1500              		.type	_ZN3r2p4Node9advertiseINS_6LedMsgEEEbRNS_9PublisherIT_EEPKcRKNS_4TimeE, %function
 1501              	_ZN3r2p4Node9advertiseINS_6LedMsgEEEbRNS_9PublisherIT_EEPKcRKNS_4TimeE:
 1502              	.LFB627:
 1503              		.loc 9 117 0
 1504              		.cfi_startproc
 1505              		@ args = 0, pretend = 0, frame = 16
ARM GAS  /tmp/ccF7TFW9.s 			page 28


 1506              		@ frame_needed = 0, uses_anonymous_args = 0
 1507 0000 00B5     		push	{lr}
 1508              		.cfi_def_cfa_offset 4
 1509              		.cfi_offset 14, -4
 1510 0002 87B0     		sub	sp, sp, #28
 1511              		.cfi_def_cfa_offset 32
 1512 0004 0590     		str	r0, [sp, #20]
 1513 0006 0491     		str	r1, [sp, #16]
 1514 0008 0392     		str	r2, [sp, #12]
 1515 000a 0293     		str	r3, [sp, #8]
 1516              		.loc 9 120 0
 1517 000c 049A     		ldr	r2, [sp, #16]
 1518 000e 0723     		movs	r3, #7
 1519 0010 0093     		str	r3, [sp]
 1520 0012 0598     		ldr	r0, [sp, #20]
 1521 0014 1146     		mov	r1, r2
 1522 0016 039A     		ldr	r2, [sp, #12]
 1523 0018 029B     		ldr	r3, [sp, #8]
 1524 001a FFF7FEFF 		bl	_ZN3r2p4Node9advertiseERNS_14LocalPublisherEPKcRKNS_4TimeEj
 1525 001e 0346     		mov	r3, r0
 1526              		.loc 9 121 0
 1527 0020 1846     		mov	r0, r3
 1528 0022 07B0     		add	sp, sp, #28
 1529              		.cfi_def_cfa_offset 4
 1530              		@ sp needed
 1531 0024 5DF804FB 		ldr	pc, [sp], #4
 1532              		.cfi_endproc
 1533              	.LFE627:
 1534              		.size	_ZN3r2p4Node9advertiseINS_6LedMsgEEEbRNS_9PublisherIT_EEPKcRKNS_4TimeE, .-_ZN3r2p4Node9adver
 1535 0028 AFF30080 		.section	.text._ZN3r2p9PublisherINS_6LedMsgEE5allocERPS1_,"axG",%progbits,_ZN3r2p9PublisherINS_6Le
 1535      AFF30080 
 1536              		.align	2
 1537              		.p2align 4,,15
 1538              		.weak	_ZN3r2p9PublisherINS_6LedMsgEE5allocERPS1_
 1539              		.thumb
 1540              		.thumb_func
 1541              		.type	_ZN3r2p9PublisherINS_6LedMsgEE5allocERPS1_, %function
 1542              	_ZN3r2p9PublisherINS_6LedMsgEE5allocERPS1_:
 1543              	.LFB628:
 1544              		.loc 14 25 0
 1545              		.cfi_startproc
 1546              		@ args = 0, pretend = 0, frame = 8
 1547              		@ frame_needed = 0, uses_anonymous_args = 0
 1548 0000 00B5     		push	{lr}
 1549              		.cfi_def_cfa_offset 4
 1550              		.cfi_offset 14, -4
 1551 0002 83B0     		sub	sp, sp, #12
 1552              		.cfi_def_cfa_offset 16
 1553 0004 0190     		str	r0, [sp, #4]
 1554 0006 0091     		str	r1, [sp]
 1555              		.loc 14 28 0
 1556 0008 019B     		ldr	r3, [sp, #4]
 1557 000a 1846     		mov	r0, r3
 1558 000c 0099     		ldr	r1, [sp]
 1559 000e FFF7FEFF 		bl	_ZN3r2p13BasePublisher5allocERPNS_7MessageE
 1560 0012 0346     		mov	r3, r0
 1561              		.loc 14 29 0
ARM GAS  /tmp/ccF7TFW9.s 			page 29


 1562 0014 1846     		mov	r0, r3
 1563 0016 03B0     		add	sp, sp, #12
 1564              		.cfi_def_cfa_offset 4
 1565              		@ sp needed
 1566 0018 5DF804FB 		ldr	pc, [sp], #4
 1567              		.cfi_endproc
 1568              	.LFE628:
 1569              		.size	_ZN3r2p9PublisherINS_6LedMsgEE5allocERPS1_, .-_ZN3r2p9PublisherINS_6LedMsgEE5allocERPS1_
 1570 001c AFF30080 		.section	.text._ZN3r2p9PublisherINS_6LedMsgEE7publishERS1_,"axG",%progbits,_ZN3r2p9PublisherINS_6L
 1571              		.align	2
 1572              		.p2align 4,,15
 1573              		.weak	_ZN3r2p9PublisherINS_6LedMsgEE7publishERS1_
 1574              		.thumb
 1575              		.thumb_func
 1576              		.type	_ZN3r2p9PublisherINS_6LedMsgEE7publishERS1_, %function
 1577              	_ZN3r2p9PublisherINS_6LedMsgEE7publishERS1_:
 1578              	.LFB629:
 1579              		.loc 14 33 0
 1580              		.cfi_startproc
 1581              		@ args = 0, pretend = 0, frame = 8
 1582              		@ frame_needed = 0, uses_anonymous_args = 0
 1583 0000 00B5     		push	{lr}
 1584              		.cfi_def_cfa_offset 4
 1585              		.cfi_offset 14, -4
 1586 0002 83B0     		sub	sp, sp, #12
 1587              		.cfi_def_cfa_offset 16
 1588 0004 0190     		str	r0, [sp, #4]
 1589 0006 0091     		str	r1, [sp]
 1590              		.loc 14 36 0
 1591 0008 019A     		ldr	r2, [sp, #4]
 1592 000a 009B     		ldr	r3, [sp]
 1593 000c 1046     		mov	r0, r2
 1594 000e 1946     		mov	r1, r3
 1595 0010 FFF7FEFF 		bl	_ZN3r2p13BasePublisher7publishERNS_7MessageE
 1596 0014 0346     		mov	r3, r0
 1597              		.loc 14 37 0
 1598 0016 1846     		mov	r0, r3
 1599 0018 03B0     		add	sp, sp, #12
 1600              		.cfi_def_cfa_offset 4
 1601              		@ sp needed
 1602 001a 5DF804FB 		ldr	pc, [sp], #4
 1603              		.cfi_endproc
 1604              	.LFE629:
 1605              		.size	_ZN3r2p9PublisherINS_6LedMsgEE7publishERS1_, .-_ZN3r2p9PublisherINS_6LedMsgEE7publishERS1_
 1606 001e 00BF     		.section	.text._ZN3r2p6LedMsgC2Ev,"axG",%progbits,_ZN3r2p6LedMsgC5Ev,comdat
 1607              		.align	2
 1608              		.p2align 4,,15
 1609              		.weak	_ZN3r2p6LedMsgC2Ev
 1610              		.thumb
 1611              		.thumb_func
 1612              		.type	_ZN3r2p6LedMsgC2Ev, %function
 1613              	_ZN3r2p6LedMsgC2Ev:
 1614              	.LFB632:
 1615              		.file 15 "/home/ergae/r2p-sdk/core/Middleware/include/r2p/msg/led.hpp"
 1616              		.loc 15 5 0
 1617              		.cfi_startproc
 1618              		@ args = 0, pretend = 0, frame = 8
ARM GAS  /tmp/ccF7TFW9.s 			page 30


 1619              		@ frame_needed = 0, uses_anonymous_args = 0
 1620 0000 00B5     		push	{lr}
 1621              		.cfi_def_cfa_offset 4
 1622              		.cfi_offset 14, -4
 1623 0002 83B0     		sub	sp, sp, #12
 1624              		.cfi_def_cfa_offset 16
 1625 0004 0190     		str	r0, [sp, #4]
 1626              	.LBB40:
 1627              		.loc 15 5 0
 1628 0006 019B     		ldr	r3, [sp, #4]
 1629 0008 1846     		mov	r0, r3
 1630 000a FFF7FEFF 		bl	_ZN3r2p7MessageC2Ev
 1631              	.LBE40:
 1632 000e 019B     		ldr	r3, [sp, #4]
 1633 0010 1846     		mov	r0, r3
 1634 0012 03B0     		add	sp, sp, #12
 1635              		.cfi_def_cfa_offset 4
 1636              		@ sp needed
 1637 0014 5DF804FB 		ldr	pc, [sp], #4
 1638              		.cfi_endproc
 1639              	.LFE632:
 1640              		.size	_ZN3r2p6LedMsgC2Ev, .-_ZN3r2p6LedMsgC2Ev
 1641              		.weak	_ZN3r2p6LedMsgC1Ev
 1642              		.thumb_set _ZN3r2p6LedMsgC1Ev,_ZN3r2p6LedMsgC2Ev
 1643 0018 AFF30080 		.section	.text._ZN3r2p10SubscriberINS_6LedMsgELj5EEC2EPFbRKS1_E,"axG",%progbits,_ZN3r2p10Subscribe
 1643      AFF30080 
 1644              		.align	2
 1645              		.p2align 4,,15
 1646              		.weak	_ZN3r2p10SubscriberINS_6LedMsgELj5EEC2EPFbRKS1_E
 1647              		.thumb
 1648              		.thumb_func
 1649              		.type	_ZN3r2p10SubscriberINS_6LedMsgELj5EEC2EPFbRKS1_E, %function
 1650              	_ZN3r2p10SubscriberINS_6LedMsgELj5EEC2EPFbRKS1_E:
 1651              	.LFB634:
 1652              		.file 16 "/home/ergae/r2p-sdk/core/Middleware/include/r2p/Subscriber.hpp"
 1653              		.loc 16 31 0
 1654              		.cfi_startproc
 1655              		@ args = 0, pretend = 0, frame = 8
 1656              		@ frame_needed = 0, uses_anonymous_args = 0
 1657 0000 30B5     		push	{r4, r5, lr}
 1658              		.cfi_def_cfa_offset 12
 1659              		.cfi_offset 4, -12
 1660              		.cfi_offset 5, -8
 1661              		.cfi_offset 14, -4
 1662 0002 83B0     		sub	sp, sp, #12
 1663              		.cfi_def_cfa_offset 24
 1664 0004 0190     		str	r0, [sp, #4]
 1665 0006 0091     		str	r1, [sp]
 1666              	.LBB41:
 1667              		.loc 16 33 0
 1668 0008 019A     		ldr	r2, [sp, #4]
 1669 000a 019B     		ldr	r3, [sp, #4]
 1670 000c 5C33     		adds	r3, r3, #92
 1671 000e 1046     		mov	r0, r2
 1672 0010 1946     		mov	r1, r3
 1673 0012 0522     		movs	r2, #5
 1674 0014 009B     		ldr	r3, [sp]
ARM GAS  /tmp/ccF7TFW9.s 			page 31


 1675 0016 FFF7FEFF 		bl	_ZN3r2p16SubscriberExtBufINS_6LedMsgEEC2EPPS1_jPFbRKS1_E
 1676 001a 019B     		ldr	r3, [sp, #4]
 1677 001c 094A     		ldr	r2, .L106
 1678 001e 1A60     		str	r2, [r3]
 1679 0020 019B     		ldr	r3, [sp, #4]
 1680 0022 3833     		adds	r3, r3, #56
 1681 0024 0424     		movs	r4, #4
 1682 0026 1D46     		mov	r5, r3
 1683 0028 04E0     		b	.L102
 1684              	.L103:
 1685              		.loc 16 33 0 is_stmt 0 discriminator 3
 1686 002a 2846     		mov	r0, r5
 1687 002c FFF7FEFF 		bl	_ZN3r2p6LedMsgC1Ev
 1688 0030 0735     		adds	r5, r5, #7
 1689 0032 013C     		subs	r4, r4, #1
 1690              	.L102:
 1691              		.loc 16 33 0 discriminator 1
 1692 0034 B4F1FF3F 		cmp	r4, #-1
 1693 0038 F7D1     		bne	.L103
 1694              	.LBE41:
 1695              		.loc 16 34 0 is_stmt 1 discriminator 4
 1696 003a 019B     		ldr	r3, [sp, #4]
 1697 003c 1846     		mov	r0, r3
 1698 003e 03B0     		add	sp, sp, #12
 1699              		.cfi_def_cfa_offset 12
 1700              		@ sp needed
 1701 0040 30BD     		pop	{r4, r5, pc}
 1702              	.L107:
 1703 0042 00BF     		.align	2
 1704              	.L106:
 1705 0044 08000000 		.word	_ZTVN3r2p10SubscriberINS_6LedMsgELj5EEE+8
 1706              		.cfi_endproc
 1707              	.LFE634:
 1708              		.size	_ZN3r2p10SubscriberINS_6LedMsgELj5EEC2EPFbRKS1_E, .-_ZN3r2p10SubscriberINS_6LedMsgELj5EEC2EP
 1709              		.weak	_ZN3r2p10SubscriberINS_6LedMsgELj5EEC1EPFbRKS1_E
 1710              		.thumb_set _ZN3r2p10SubscriberINS_6LedMsgELj5EEC1EPFbRKS1_E,_ZN3r2p10SubscriberINS_6LedMsgELj5EEC2
 1711 0048 AFF30080 		.section	.text._ZN3r2p10SubscriberINS_6LedMsgELj5EED2Ev,"axG",%progbits,_ZN3r2p10SubscriberINS_6Le
 1711      AFF30080 
 1712              		.align	2
 1713              		.p2align 4,,15
 1714              		.weak	_ZN3r2p10SubscriberINS_6LedMsgELj5EED2Ev
 1715              		.thumb
 1716              		.thumb_func
 1717              		.type	_ZN3r2p10SubscriberINS_6LedMsgELj5EED2Ev, %function
 1718              	_ZN3r2p10SubscriberINS_6LedMsgELj5EED2Ev:
 1719              	.LFB637:
 1720              		.loc 16 38 0
 1721              		.cfi_startproc
 1722              		@ args = 0, pretend = 0, frame = 8
 1723              		@ frame_needed = 0, uses_anonymous_args = 0
 1724 0000 00B5     		push	{lr}
 1725              		.cfi_def_cfa_offset 4
 1726              		.cfi_offset 14, -4
 1727 0002 83B0     		sub	sp, sp, #12
 1728              		.cfi_def_cfa_offset 16
 1729 0004 0190     		str	r0, [sp, #4]
 1730              	.LBB42:
ARM GAS  /tmp/ccF7TFW9.s 			page 32


 1731              		.loc 16 38 0
 1732 0006 019B     		ldr	r3, [sp, #4]
 1733 0008 084A     		ldr	r2, .L112
 1734 000a 1A60     		str	r2, [r3]
 1735 000c 019B     		ldr	r3, [sp, #4]
 1736 000e 1846     		mov	r0, r3
 1737 0010 FFF7FEFF 		bl	_ZN3r2p16SubscriberExtBufINS_6LedMsgEED2Ev
 1738              	.LBE42:
 1739 0014 0023     		movs	r3, #0
 1740 0016 002B     		cmp	r3, #0
 1741 0018 02D0     		beq	.L110
 1742              		.loc 16 38 0 is_stmt 0 discriminator 2
 1743 001a 0198     		ldr	r0, [sp, #4]
 1744 001c FFF7FEFF 		bl	_ZdlPv
 1745              	.L110:
 1746              		.loc 16 38 0 discriminator 4
 1747 0020 019B     		ldr	r3, [sp, #4]
 1748 0022 1846     		mov	r0, r3
 1749 0024 03B0     		add	sp, sp, #12
 1750              		.cfi_def_cfa_offset 4
 1751              		@ sp needed
 1752 0026 5DF804FB 		ldr	pc, [sp], #4
 1753              	.L113:
 1754 002a 00BF     		.align	2
 1755              	.L112:
 1756 002c 08000000 		.word	_ZTVN3r2p10SubscriberINS_6LedMsgELj5EEE+8
 1757              		.cfi_endproc
 1758              	.LFE637:
 1759              		.size	_ZN3r2p10SubscriberINS_6LedMsgELj5EED2Ev, .-_ZN3r2p10SubscriberINS_6LedMsgELj5EED2Ev
 1760              		.weak	_ZN3r2p10SubscriberINS_6LedMsgELj5EED1Ev
 1761              		.thumb_set _ZN3r2p10SubscriberINS_6LedMsgELj5EED1Ev,_ZN3r2p10SubscriberINS_6LedMsgELj5EED2Ev
 1762              		.section	.text._ZN3r2p10SubscriberINS_6LedMsgELj5EED0Ev,"axG",%progbits,_ZN3r2p10SubscriberINS_6Le
 1763              		.align	2
 1764              		.p2align 4,,15
 1765              		.weak	_ZN3r2p10SubscriberINS_6LedMsgELj5EED0Ev
 1766              		.thumb
 1767              		.thumb_func
 1768              		.type	_ZN3r2p10SubscriberINS_6LedMsgELj5EED0Ev, %function
 1769              	_ZN3r2p10SubscriberINS_6LedMsgELj5EED0Ev:
 1770              	.LFB639:
 1771              		.loc 16 38 0 is_stmt 1
 1772              		.cfi_startproc
 1773              		@ args = 0, pretend = 0, frame = 8
 1774              		@ frame_needed = 0, uses_anonymous_args = 0
 1775 0000 00B5     		push	{lr}
 1776              		.cfi_def_cfa_offset 4
 1777              		.cfi_offset 14, -4
 1778 0002 83B0     		sub	sp, sp, #12
 1779              		.cfi_def_cfa_offset 16
 1780 0004 0190     		str	r0, [sp, #4]
 1781              		.loc 16 38 0
 1782 0006 0198     		ldr	r0, [sp, #4]
 1783 0008 FFF7FEFF 		bl	_ZN3r2p10SubscriberINS_6LedMsgELj5EED1Ev
 1784 000c 0198     		ldr	r0, [sp, #4]
 1785 000e FFF7FEFF 		bl	_ZdlPv
 1786 0012 019B     		ldr	r3, [sp, #4]
 1787 0014 1846     		mov	r0, r3
ARM GAS  /tmp/ccF7TFW9.s 			page 33


 1788 0016 03B0     		add	sp, sp, #12
 1789              		.cfi_def_cfa_offset 4
 1790              		@ sp needed
 1791 0018 5DF804FB 		ldr	pc, [sp], #4
 1792              		.cfi_endproc
 1793              	.LFE639:
 1794              		.size	_ZN3r2p10SubscriberINS_6LedMsgELj5EED0Ev, .-_ZN3r2p10SubscriberINS_6LedMsgELj5EED0Ev
 1795 001c AFF30080 		.section	.text._ZN3r2p4Node9subscribeINS_6LedMsgELj5EEEbRNS_10SubscriberIT_XT0_EEEPKc,"axG",%progb
 1796              		.align	2
 1797              		.p2align 4,,15
 1798              		.weak	_ZN3r2p4Node9subscribeINS_6LedMsgELj5EEEbRNS_10SubscriberIT_XT0_EEEPKc
 1799              		.thumb
 1800              		.thumb_func
 1801              		.type	_ZN3r2p4Node9subscribeINS_6LedMsgELj5EEEbRNS_10SubscriberIT_XT0_EEEPKc, %function
 1802              	_ZN3r2p4Node9subscribeINS_6LedMsgELj5EEEbRNS_10SubscriberIT_XT0_EEEPKc:
 1803              	.LFB640:
 1804              		.loc 9 133 0
 1805              		.cfi_startproc
 1806              		@ args = 0, pretend = 0, frame = 16
 1807              		@ frame_needed = 0, uses_anonymous_args = 0
 1808 0000 10B5     		push	{r4, lr}
 1809              		.cfi_def_cfa_offset 8
 1810              		.cfi_offset 4, -8
 1811              		.cfi_offset 14, -4
 1812 0002 86B0     		sub	sp, sp, #24
 1813              		.cfi_def_cfa_offset 32
 1814 0004 0590     		str	r0, [sp, #20]
 1815 0006 0491     		str	r1, [sp, #16]
 1816 0008 0392     		str	r2, [sp, #12]
 1817              		.loc 9 135 0
 1818 000a 049A     		ldr	r2, [sp, #16]
 1819 000c 049B     		ldr	r3, [sp, #16]
 1820 000e 03F13804 		add	r4, r3, #56
 1821 0012 0723     		movs	r3, #7
 1822 0014 0093     		str	r3, [sp]
 1823 0016 0598     		ldr	r0, [sp, #20]
 1824 0018 1146     		mov	r1, r2
 1825 001a 039A     		ldr	r2, [sp, #12]
 1826 001c 2346     		mov	r3, r4
 1827 001e FFF7FEFF 		bl	_ZN3r2p4Node9subscribeERNS_15LocalSubscriberEPKcPNS_7MessageEj
 1828 0022 0346     		mov	r3, r0
 1829              		.loc 9 136 0
 1830 0024 1846     		mov	r0, r3
 1831 0026 06B0     		add	sp, sp, #24
 1832              		.cfi_def_cfa_offset 8
 1833              		@ sp needed
 1834 0028 10BD     		pop	{r4, pc}
 1835              		.cfi_endproc
 1836              	.LFE640:
 1837              		.size	_ZN3r2p4Node9subscribeINS_6LedMsgELj5EEEbRNS_10SubscriberIT_XT0_EEEPKc, .-_ZN3r2p4Node9subsc
 1838 002a 00BFAFF3 		.section	.text._ZN3r2p16SubscriberExtBufINS_6LedMsgEEC2EPPS1_jPFbRKS1_E,"axG",%progbits,_ZN3r2p16S
 1838      0080
 1839              		.align	2
 1840              		.p2align 4,,15
 1841              		.weak	_ZN3r2p16SubscriberExtBufINS_6LedMsgEEC2EPPS1_jPFbRKS1_E
 1842              		.thumb
 1843              		.thumb_func
ARM GAS  /tmp/ccF7TFW9.s 			page 34


 1844              		.type	_ZN3r2p16SubscriberExtBufINS_6LedMsgEEC2EPPS1_jPFbRKS1_E, %function
 1845              	_ZN3r2p16SubscriberExtBufINS_6LedMsgEEC2EPPS1_jPFbRKS1_E:
 1846              	.LFB643:
 1847              		.file 17 "/home/ergae/r2p-sdk/core/Middleware/include/r2p/SubscriberExtBuf.hpp"
 1848              		.loc 17 65 0
 1849              		.cfi_startproc
 1850              		@ args = 0, pretend = 0, frame = 16
 1851              		@ frame_needed = 0, uses_anonymous_args = 0
 1852 0000 00B5     		push	{lr}
 1853              		.cfi_def_cfa_offset 4
 1854              		.cfi_offset 14, -4
 1855 0002 85B0     		sub	sp, sp, #20
 1856              		.cfi_def_cfa_offset 24
 1857 0004 0390     		str	r0, [sp, #12]
 1858 0006 0291     		str	r1, [sp, #8]
 1859 0008 0192     		str	r2, [sp, #4]
 1860 000a 0093     		str	r3, [sp]
 1861              	.LBB43:
 1862              		.loc 17 69 0
 1863 000c 039B     		ldr	r3, [sp, #12]
 1864 000e 1846     		mov	r0, r3
 1865 0010 0299     		ldr	r1, [sp, #8]
 1866 0012 019A     		ldr	r2, [sp, #4]
 1867 0014 009B     		ldr	r3, [sp]
 1868 0016 FFF7FEFF 		bl	_ZN3r2p15LocalSubscriberC2EPPNS_7MessageEjPFbRKS1_E
 1869 001a 039B     		ldr	r3, [sp, #12]
 1870 001c 034A     		ldr	r2, .L122
 1871 001e 1A60     		str	r2, [r3]
 1872              	.LBE43:
 1873              		.loc 17 72 0
 1874 0020 039B     		ldr	r3, [sp, #12]
 1875 0022 1846     		mov	r0, r3
 1876 0024 05B0     		add	sp, sp, #20
 1877              		.cfi_def_cfa_offset 4
 1878              		@ sp needed
 1879 0026 5DF804FB 		ldr	pc, [sp], #4
 1880              	.L123:
 1881 002a 00BF     		.align	2
 1882              	.L122:
 1883 002c 08000000 		.word	_ZTVN3r2p16SubscriberExtBufINS_6LedMsgEEE+8
 1884              		.cfi_endproc
 1885              	.LFE643:
 1886              		.size	_ZN3r2p16SubscriberExtBufINS_6LedMsgEEC2EPPS1_jPFbRKS1_E, .-_ZN3r2p16SubscriberExtBufINS_6Le
 1887              		.weak	_ZN3r2p16SubscriberExtBufINS_6LedMsgEEC1EPPS1_jPFbRKS1_E
 1888              		.thumb_set _ZN3r2p16SubscriberExtBufINS_6LedMsgEEC1EPPS1_jPFbRKS1_E,_ZN3r2p16SubscriberExtBufINS_6
 1889              		.section	.text._ZN3r2p16SubscriberExtBufINS_6LedMsgEED2Ev,"axG",%progbits,_ZN3r2p16SubscriberExtBu
 1890              		.align	2
 1891              		.p2align 4,,15
 1892              		.weak	_ZN3r2p16SubscriberExtBufINS_6LedMsgEED2Ev
 1893              		.thumb
 1894              		.thumb_func
 1895              		.type	_ZN3r2p16SubscriberExtBufINS_6LedMsgEED2Ev, %function
 1896              	_ZN3r2p16SubscriberExtBufINS_6LedMsgEED2Ev:
 1897              	.LFB646:
 1898              		.loc 17 76 0
 1899              		.cfi_startproc
 1900              		@ args = 0, pretend = 0, frame = 8
ARM GAS  /tmp/ccF7TFW9.s 			page 35


 1901              		@ frame_needed = 0, uses_anonymous_args = 0
 1902 0000 00B5     		push	{lr}
 1903              		.cfi_def_cfa_offset 4
 1904              		.cfi_offset 14, -4
 1905 0002 83B0     		sub	sp, sp, #12
 1906              		.cfi_def_cfa_offset 16
 1907 0004 0190     		str	r0, [sp, #4]
 1908              	.LBB44:
 1909              		.loc 17 79 0
 1910 0006 019B     		ldr	r3, [sp, #4]
 1911 0008 084A     		ldr	r2, .L128
 1912 000a 1A60     		str	r2, [r3]
 1913 000c 019B     		ldr	r3, [sp, #4]
 1914 000e 1846     		mov	r0, r3
 1915 0010 FFF7FEFF 		bl	_ZN3r2p15LocalSubscriberD2Ev
 1916              	.LBE44:
 1917 0014 0023     		movs	r3, #0
 1918 0016 002B     		cmp	r3, #0
 1919 0018 02D0     		beq	.L126
 1920              		.loc 17 79 0 is_stmt 0 discriminator 2
 1921 001a 0198     		ldr	r0, [sp, #4]
 1922 001c FFF7FEFF 		bl	_ZdlPv
 1923              	.L126:
 1924              		.loc 17 79 0 discriminator 4
 1925 0020 019B     		ldr	r3, [sp, #4]
 1926 0022 1846     		mov	r0, r3
 1927 0024 03B0     		add	sp, sp, #12
 1928              		.cfi_def_cfa_offset 4
 1929              		@ sp needed
 1930 0026 5DF804FB 		ldr	pc, [sp], #4
 1931              	.L129:
 1932 002a 00BF     		.align	2
 1933              	.L128:
 1934 002c 08000000 		.word	_ZTVN3r2p16SubscriberExtBufINS_6LedMsgEEE+8
 1935              		.cfi_endproc
 1936              	.LFE646:
 1937              		.size	_ZN3r2p16SubscriberExtBufINS_6LedMsgEED2Ev, .-_ZN3r2p16SubscriberExtBufINS_6LedMsgEED2Ev
 1938              		.weak	_ZN3r2p16SubscriberExtBufINS_6LedMsgEED1Ev
 1939              		.thumb_set _ZN3r2p16SubscriberExtBufINS_6LedMsgEED1Ev,_ZN3r2p16SubscriberExtBufINS_6LedMsgEED2Ev
 1940              		.section	.text._ZN3r2p16SubscriberExtBufINS_6LedMsgEED0Ev,"axG",%progbits,_ZN3r2p16SubscriberExtBu
 1941              		.align	2
 1942              		.p2align 4,,15
 1943              		.weak	_ZN3r2p16SubscriberExtBufINS_6LedMsgEED0Ev
 1944              		.thumb
 1945              		.thumb_func
 1946              		.type	_ZN3r2p16SubscriberExtBufINS_6LedMsgEED0Ev, %function
 1947              	_ZN3r2p16SubscriberExtBufINS_6LedMsgEED0Ev:
 1948              	.LFB648:
 1949              		.loc 17 76 0 is_stmt 1
 1950              		.cfi_startproc
 1951              		@ args = 0, pretend = 0, frame = 8
 1952              		@ frame_needed = 0, uses_anonymous_args = 0
 1953 0000 00B5     		push	{lr}
 1954              		.cfi_def_cfa_offset 4
 1955              		.cfi_offset 14, -4
 1956 0002 83B0     		sub	sp, sp, #12
 1957              		.cfi_def_cfa_offset 16
ARM GAS  /tmp/ccF7TFW9.s 			page 36


 1958 0004 0190     		str	r0, [sp, #4]
 1959              		.loc 17 79 0
 1960 0006 0198     		ldr	r0, [sp, #4]
 1961 0008 FFF7FEFF 		bl	_ZN3r2p16SubscriberExtBufINS_6LedMsgEED1Ev
 1962 000c 0198     		ldr	r0, [sp, #4]
 1963 000e FFF7FEFF 		bl	_ZdlPv
 1964 0012 019B     		ldr	r3, [sp, #4]
 1965 0014 1846     		mov	r0, r3
 1966 0016 03B0     		add	sp, sp, #12
 1967              		.cfi_def_cfa_offset 4
 1968              		@ sp needed
 1969 0018 5DF804FB 		ldr	pc, [sp], #4
 1970              		.cfi_endproc
 1971              	.LFE648:
 1972              		.size	_ZN3r2p16SubscriberExtBufINS_6LedMsgEED0Ev, .-_ZN3r2p16SubscriberExtBufINS_6LedMsgEED0Ev
 1973              		.weak	_ZTVN3r2p10SubscriberINS_6LedMsgELj5EEE
 1974 001c AFF30080 		.section	.rodata._ZTVN3r2p10SubscriberINS_6LedMsgELj5EEE,"aG",%progbits,_ZTVN3r2p10SubscriberINS_6
 1975              		.align	3
 1976              		.type	_ZTVN3r2p10SubscriberINS_6LedMsgELj5EEE, %object
 1977              		.size	_ZTVN3r2p10SubscriberINS_6LedMsgELj5EEE, 36
 1978              	_ZTVN3r2p10SubscriberINS_6LedMsgELj5EEE:
 1979 0000 00000000 		.word	0
 1980 0004 00000000 		.word	0
 1981 0008 00000000 		.word	_ZNK3r2p15LocalSubscriber16get_queue_lengthEv
 1982 000c 00000000 		.word	_ZN3r2p15LocalSubscriber13notify_unsafeERNS_7MessageERKNS_4TimeE
 1983 0010 00000000 		.word	_ZN3r2p15LocalSubscriber12fetch_unsafeERPNS_7MessageERNS_4TimeE
 1984 0014 00000000 		.word	_ZN3r2p15LocalSubscriber6notifyERNS_7MessageERKNS_4TimeE
 1985 0018 00000000 		.word	_ZN3r2p15LocalSubscriber5fetchERPNS_7MessageERNS_4TimeE
 1986 001c 00000000 		.word	_ZN3r2p10SubscriberINS_6LedMsgELj5EED1Ev
 1987 0020 00000000 		.word	_ZN3r2p10SubscriberINS_6LedMsgELj5EED0Ev
 1988              		.weak	_ZTVN3r2p16SubscriberExtBufINS_6LedMsgEEE
 1989 0024 00000000 		.section	.rodata._ZTVN3r2p16SubscriberExtBufINS_6LedMsgEEE,"aG",%progbits,_ZTVN3r2p16SubscriberExt
 1990              		.align	3
 1991              		.type	_ZTVN3r2p16SubscriberExtBufINS_6LedMsgEEE, %object
 1992              		.size	_ZTVN3r2p16SubscriberExtBufINS_6LedMsgEEE, 36
 1993              	_ZTVN3r2p16SubscriberExtBufINS_6LedMsgEEE:
 1994 0000 00000000 		.word	0
 1995 0004 00000000 		.word	0
 1996 0008 00000000 		.word	_ZNK3r2p15LocalSubscriber16get_queue_lengthEv
 1997 000c 00000000 		.word	_ZN3r2p15LocalSubscriber13notify_unsafeERNS_7MessageERKNS_4TimeE
 1998 0010 00000000 		.word	_ZN3r2p15LocalSubscriber12fetch_unsafeERPNS_7MessageERNS_4TimeE
 1999 0014 00000000 		.word	_ZN3r2p15LocalSubscriber6notifyERNS_7MessageERKNS_4TimeE
 2000 0018 00000000 		.word	_ZN3r2p15LocalSubscriber5fetchERPNS_7MessageERNS_4TimeE
 2001 001c 00000000 		.word	_ZN3r2p16SubscriberExtBufINS_6LedMsgEED1Ev
 2002 0020 00000000 		.word	_ZN3r2p16SubscriberExtBufINS_6LedMsgEED0Ev
 2003              		.weak	_ZTVN3r2p9PublisherINS_6LedMsgEEE
 2004 0024 00000000 		.section	.rodata._ZTVN3r2p9PublisherINS_6LedMsgEEE,"aG",%progbits,_ZTVN3r2p9PublisherINS_6LedMsgEE
 2005              		.align	3
 2006              		.type	_ZTVN3r2p9PublisherINS_6LedMsgEEE, %object
 2007              		.size	_ZTVN3r2p9PublisherINS_6LedMsgEEE, 16
 2008              	_ZTVN3r2p9PublisherINS_6LedMsgEEE:
 2009 0000 00000000 		.word	0
 2010 0004 00000000 		.word	0
 2011 0008 00000000 		.word	_ZN3r2p9PublisherINS_6LedMsgEED1Ev
 2012 000c 00000000 		.word	_ZN3r2p9PublisherINS_6LedMsgEED0Ev
 2013              		.text
 2014              	.Letext0:
ARM GAS  /tmp/ccF7TFW9.s 			page 37


 2015              		.file 18 "/home/ergae/r2p-sdk/tools/gcc-arm-none-eabi-4_9-2014q4/lib/gcc/arm-none-eabi/4.9.3/inclu
 2016              		.file 19 "/home/ergae/r2p-sdk/tools/gcc-arm-none-eabi-4_9-2014q4/arm-none-eabi/include/machine/_de
 2017              		.file 20 "/home/ergae/r2p-sdk/tools/gcc-arm-none-eabi-4_9-2014q4/arm-none-eabi/include/stdint.h"
 2018              		.file 21 "/home/ergae/r2p-sdk/core/ChibiOS/os/ports/GCC/ARMCMx/chtypes.h"
 2019              		.file 22 "/home/ergae/r2p-sdk/core/ChibiOS/os/kernel/include/chlists.h"
 2020              		.file 23 "/home/ergae/r2p-sdk/core/ChibiOS/os/kernel/include/chthreads.h"
 2021              		.file 24 "/home/ergae/r2p-sdk/core/ChibiOS/os/ports/GCC/ARMCMx/chcore_v7m.h"
 2022              		.file 25 "/home/ergae/r2p-sdk/core/ChibiOS/os/kernel/include/chschd.h"
 2023              		.file 26 "/home/ergae/r2p-sdk/core/ChibiOS/os/kernel/include/chmtx.h"
 2024              		.file 27 "/home/ergae/r2p-sdk/core/ChibiOS/os/kernel/include/chmemcore.h"
 2025              		.file 28 "/home/ergae/r2p-sdk/core/ChibiOS/os/kernel/include/chmempools.h"
 2026              		.file 29 "/home/ergae/r2p-sdk/core/ChibiOS/os/hal/platforms/STM32/GPIOv2/pal_lld.h"
 2027              		.file 30 "/home/ergae/r2p-sdk/tools/gcc-arm-none-eabi-4_9-2014q4/arm-none-eabi/include/c++/4.9.3/c
 2028              		.file 31 "/home/ergae/r2p-sdk/tools/gcc-arm-none-eabi-4_9-2014q4/arm-none-eabi/include/string.h"
 2029              		.file 32 "<built-in>"
 2030              		.file 33 "/home/ergae/r2p-sdk/core/Middleware/include/r2p/Uncopyable.hpp"
 2031              		.file 34 "/home/ergae/r2p-sdk/core/Middleware/include/r2p/StaticList.hpp"
 2032              		.file 35 "/home/ergae/r2p-sdk/core/Middleware/include/r2p/LocalPublisher.hpp"
 2033              		.file 36 "/home/ergae/r2p-sdk/core/Middleware/port/chibios/include/r2p/impl/Thread_.hpp"
 2034              		.file 37 "/home/ergae/r2p-sdk/core/Middleware/include/r2p/Thread.hpp"
 2035              		.file 38 "/home/ergae/r2p-sdk/core/Middleware/include/r2p/BaseSubscriber.hpp"
 2036              		.file 39 "/home/ergae/r2p-sdk/core/Middleware/include/r2p/node/led.hpp"
 2037              		.file 40 "/home/ergae/r2p-sdk/core/Middleware/include/r2p/common.hpp"
 2038              		.file 41 "/home/ergae/r2p-sdk/core/ChibiOS/os/ports/common/ARMCMx/CMSIS/include/core_cm4.h"