ARM GAS  /tmp/ccVR0xFf.s 			page 1


   1              		.syntax unified
   2              		.cpu cortex-m4
   3              		.eabi_attribute 27, 3
   4              		.eabi_attribute 28, 1
   5              		.fpu fpv4-sp-d16
   6              		.eabi_attribute 20, 1
   7              		.eabi_attribute 21, 1
   8              		.eabi_attribute 23, 3
   9              		.eabi_attribute 24, 1
  10              		.eabi_attribute 25, 1
  11              		.eabi_attribute 26, 1
  12              		.eabi_attribute 30, 6
  13              		.eabi_attribute 34, 1
  14              		.eabi_attribute 18, 4
  15              		.thumb
  16              		.file	"LocalSubscriber.cpp"
  17              		.text
  18              	.Ltext0:
  19              		.cfi_sections	.debug_frame
  20              		.section	.text._ZN3r2p10UncopyableD2Ev,"axG",%progbits,_ZN3r2p10UncopyableD5Ev,comdat
  21              		.align	2
  22              		.p2align 4,,15
  23              		.weak	_ZN3r2p10UncopyableD2Ev
  24              		.thumb
  25              		.thumb_func
  26              		.type	_ZN3r2p10UncopyableD2Ev, %function
  27              	_ZN3r2p10UncopyableD2Ev:
  28              	.LFB9:
  29              		.file 1 "/home/denny/r2p-sdk/core/Middleware/include/r2p/Uncopyable.hpp"
  30              		.loc 1 21 0
  31              		.cfi_startproc
  32              		@ args = 0, pretend = 0, frame = 8
  33              		@ frame_needed = 0, uses_anonymous_args = 0
  34              		@ link register save eliminated.
  35 0000 82B0     		sub	sp, sp, #8
  36              		.cfi_def_cfa_offset 8
  37 0002 0190     		str	r0, [sp, #4]
  38              		.loc 1 21 0
  39 0004 019B     		ldr	r3, [sp, #4]
  40 0006 1846     		mov	r0, r3
  41 0008 02B0     		add	sp, sp, #8
  42              		.cfi_def_cfa_offset 0
  43              		@ sp needed
  44 000a 7047     		bx	lr
  45              		.cfi_endproc
  46              	.LFE9:
  47              		.size	_ZN3r2p10UncopyableD2Ev, .-_ZN3r2p10UncopyableD2Ev
  48              		.weak	_ZN3r2p10UncopyableD1Ev
  49              		.thumb_set _ZN3r2p10UncopyableD1Ev,_ZN3r2p10UncopyableD2Ev
  50 000c AFF30080 		.section	.text._ZN3r2p8SysLock_7acquireEv,"axG",%progbits,_ZN3r2p8SysLock_7acquireEv,comdat
  51              		.align	2
  52              		.p2align 4,,15
  53              		.weak	_ZN3r2p8SysLock_7acquireEv
  54              		.thumb
  55              		.thumb_func
  56              		.type	_ZN3r2p8SysLock_7acquireEv, %function
  57              	_ZN3r2p8SysLock_7acquireEv:
ARM GAS  /tmp/ccVR0xFf.s 			page 2


  58              	.LFB18:
  59              		.file 2 "/home/denny/r2p-sdk/core/Middleware/port/chibios/include/r2p/impl/SysLock_.hpp"
  60              		.loc 2 20 0
  61              		.cfi_startproc
  62              		@ args = 0, pretend = 0, frame = 0
  63              		@ frame_needed = 0, uses_anonymous_args = 0
  64 0000 08B5     		push	{r3, lr}
  65              		.cfi_def_cfa_offset 8
  66              		.cfi_offset 3, -8
  67              		.cfi_offset 14, -4
  68              	.LBB2:
  69              	.LBB3:
  70              	.LBB4:
  71              		.loc 2 22 0
  72 0002 2023     		movs	r3, #32
  73              	@ 22 "/home/denny/r2p-sdk/core/Middleware/port/chibios/include/r2p/impl/SysLock_.hpp" 1
  74 0004 83F31188 		msr     BASEPRI, r3
  75              	@ 0 "" 2
  76              		.thumb
  77              	.LBE4:
  78 0008 FFF7FEFF 		bl	dbg_check_lock
  79              	.LBE3:
  80              	.LBE2:
  81              		.loc 2 23 0
  82 000c 08BD     		pop	{r3, pc}
  83              		.cfi_endproc
  84              	.LFE18:
  85              		.size	_ZN3r2p8SysLock_7acquireEv, .-_ZN3r2p8SysLock_7acquireEv
  86 000e 00BF     		.section	.text._ZN3r2p8SysLock_7releaseEv,"axG",%progbits,_ZN3r2p8SysLock_7releaseEv,comdat
  87              		.align	2
  88              		.p2align 4,,15
  89              		.weak	_ZN3r2p8SysLock_7releaseEv
  90              		.thumb
  91              		.thumb_func
  92              		.type	_ZN3r2p8SysLock_7releaseEv, %function
  93              	_ZN3r2p8SysLock_7releaseEv:
  94              	.LFB19:
  95              		.loc 2 27 0
  96              		.cfi_startproc
  97              		@ args = 0, pretend = 0, frame = 0
  98              		@ frame_needed = 0, uses_anonymous_args = 0
  99 0000 08B5     		push	{r3, lr}
 100              		.cfi_def_cfa_offset 8
 101              		.cfi_offset 3, -8
 102              		.cfi_offset 14, -4
 103              	.LBB5:
 104              	.LBB6:
 105              		.loc 2 29 0
 106 0002 FFF7FEFF 		bl	dbg_check_unlock
 107              	.LBB7:
 108 0006 0023     		movs	r3, #0
 109              	@ 29 "/home/denny/r2p-sdk/core/Middleware/port/chibios/include/r2p/impl/SysLock_.hpp" 1
 110 0008 83F31188 		msr     BASEPRI, r3
 111              	@ 0 "" 2
 112              		.thumb
 113              	.LBE7:
 114              	.LBE6:
ARM GAS  /tmp/ccVR0xFf.s 			page 3


 115              	.LBE5:
 116              		.loc 2 30 0
 117 000c 08BD     		pop	{r3, pc}
 118              		.cfi_endproc
 119              	.LFE19:
 120              		.size	_ZN3r2p8SysLock_7releaseEv, .-_ZN3r2p8SysLock_7releaseEv
 121 000e 00BF     		.section	.text._ZN3r2p7SysLock7acquireEv,"axG",%progbits,_ZN3r2p7SysLock7acquireEv,comdat
 122              		.align	2
 123              		.p2align 4,,15
 124              		.weak	_ZN3r2p7SysLock7acquireEv
 125              		.thumb
 126              		.thumb_func
 127              		.type	_ZN3r2p7SysLock7acquireEv, %function
 128              	_ZN3r2p7SysLock7acquireEv:
 129              	.LFB26:
 130              		.file 3 "/home/denny/r2p-sdk/core/Middleware/include/r2p/SysLock.hpp"
 131              		.loc 3 27 0
 132              		.cfi_startproc
 133              		@ args = 0, pretend = 0, frame = 0
 134              		@ frame_needed = 0, uses_anonymous_args = 0
 135 0000 08B5     		push	{r3, lr}
 136              		.cfi_def_cfa_offset 8
 137              		.cfi_offset 3, -8
 138              		.cfi_offset 14, -4
 139              		.loc 3 29 0
 140 0002 FFF7FEFF 		bl	_ZN3r2p8SysLock_7acquireEv
 141              		.loc 3 30 0
 142 0006 08BD     		pop	{r3, pc}
 143              		.cfi_endproc
 144              	.LFE26:
 145              		.size	_ZN3r2p7SysLock7acquireEv, .-_ZN3r2p7SysLock7acquireEv
 146 0008 AFF30080 		.section	.text._ZN3r2p7SysLock7releaseEv,"axG",%progbits,_ZN3r2p7SysLock7releaseEv,comdat
 146      AFF30080 
 147              		.align	2
 148              		.p2align 4,,15
 149              		.weak	_ZN3r2p7SysLock7releaseEv
 150              		.thumb
 151              		.thumb_func
 152              		.type	_ZN3r2p7SysLock7releaseEv, %function
 153              	_ZN3r2p7SysLock7releaseEv:
 154              	.LFB27:
 155              		.loc 3 34 0
 156              		.cfi_startproc
 157              		@ args = 0, pretend = 0, frame = 0
 158              		@ frame_needed = 0, uses_anonymous_args = 0
 159 0000 08B5     		push	{r3, lr}
 160              		.cfi_def_cfa_offset 8
 161              		.cfi_offset 3, -8
 162              		.cfi_offset 14, -4
 163              		.loc 3 36 0
 164 0002 FFF7FEFF 		bl	_ZN3r2p8SysLock_7releaseEv
 165              		.loc 3 37 0
 166 0006 08BD     		pop	{r3, pc}
 167              		.cfi_endproc
 168              	.LFE27:
 169              		.size	_ZN3r2p7SysLock7releaseEv, .-_ZN3r2p7SysLock7releaseEv
 170              		.section	.text._ZN3r2p4TimeaSERKS0_,"axG",%progbits,_ZN3r2p4TimeaSERKS0_,comdat
ARM GAS  /tmp/ccVR0xFf.s 			page 4


 171              		.align	2
 172              		.p2align 4,,15
 173              		.weak	_ZN3r2p4TimeaSERKS0_
 174              		.thumb
 175              		.thumb_func
 176              		.type	_ZN3r2p4TimeaSERKS0_, %function
 177              	_ZN3r2p4TimeaSERKS0_:
 178              	.LFB173:
 179              		.file 4 "/home/denny/r2p-sdk/core/Middleware/include/r2p/Time.hpp"
 180              		.loc 4 131 0
 181              		.cfi_startproc
 182              		@ args = 0, pretend = 0, frame = 8
 183              		@ frame_needed = 0, uses_anonymous_args = 0
 184              		@ link register save eliminated.
 185 0000 82B0     		sub	sp, sp, #8
 186              		.cfi_def_cfa_offset 8
 187 0002 0190     		str	r0, [sp, #4]
 188 0004 0091     		str	r1, [sp]
 189              		.loc 4 133 0
 190 0006 009B     		ldr	r3, [sp]
 191 0008 1A68     		ldr	r2, [r3]
 192 000a 019B     		ldr	r3, [sp, #4]
 193 000c 1A60     		str	r2, [r3]
 194              		.loc 4 134 0
 195 000e 019B     		ldr	r3, [sp, #4]
 196              		.loc 4 135 0
 197 0010 1846     		mov	r0, r3
 198 0012 02B0     		add	sp, sp, #8
 199              		.cfi_def_cfa_offset 0
 200              		@ sp needed
 201 0014 7047     		bx	lr
 202              		.cfi_endproc
 203              	.LFE173:
 204              		.size	_ZN3r2p4TimeaSERKS0_, .-_ZN3r2p4TimeaSERKS0_
 205 0016 00BFAFF3 		.section	.text._ZNK3r2p10SpinEvent_10get_threadEv,"axG",%progbits,_ZNK3r2p10SpinEvent_10get_thread
 205      0080AFF3 
 205      0080
 206              		.align	2
 207              		.p2align 4,,15
 208              		.weak	_ZNK3r2p10SpinEvent_10get_threadEv
 209              		.thumb
 210              		.thumb_func
 211              		.type	_ZNK3r2p10SpinEvent_10get_threadEv, %function
 212              	_ZNK3r2p10SpinEvent_10get_threadEv:
 213              	.LFB222:
 214              		.file 5 "/home/denny/r2p-sdk/core/Middleware/port/chibios/include/r2p/impl/SpinEvent_.hpp"
 215              		.loc 5 36 0
 216              		.cfi_startproc
 217              		@ args = 0, pretend = 0, frame = 8
 218              		@ frame_needed = 0, uses_anonymous_args = 0
 219              		@ link register save eliminated.
 220 0000 82B0     		sub	sp, sp, #8
 221              		.cfi_def_cfa_offset 8
 222 0002 0190     		str	r0, [sp, #4]
 223              		.loc 5 38 0
 224 0004 019B     		ldr	r3, [sp, #4]
 225 0006 1B68     		ldr	r3, [r3]
ARM GAS  /tmp/ccVR0xFf.s 			page 5


 226              		.loc 5 39 0
 227 0008 1846     		mov	r0, r3
 228 000a 02B0     		add	sp, sp, #8
 229              		.cfi_def_cfa_offset 0
 230              		@ sp needed
 231 000c 7047     		bx	lr
 232              		.cfi_endproc
 233              	.LFE222:
 234              		.size	_ZNK3r2p10SpinEvent_10get_threadEv, .-_ZNK3r2p10SpinEvent_10get_threadEv
 235 000e 00BF     		.section	.rodata
 236              		.align	2
 237              	.LC0:
 238 0000 5232505F 		.ascii	"R2P_ASSERT()\000"
 238      41535345 
 238      52542829 
 238      00
 239 000d 000000   		.section	.text._ZN3r2p10SpinEvent_13signal_unsafeEj,"axG",%progbits,_ZN3r2p10SpinEvent_13signal_un
 240              		.align	2
 241              		.p2align 4,,15
 242              		.weak	_ZN3r2p10SpinEvent_13signal_unsafeEj
 243              		.thumb
 244              		.thumb_func
 245              		.type	_ZN3r2p10SpinEvent_13signal_unsafeEj, %function
 246              	_ZN3r2p10SpinEvent_13signal_unsafeEj:
 247              	.LFB224:
 248              		.loc 5 50 0
 249              		.cfi_startproc
 250              		@ args = 0, pretend = 0, frame = 8
 251              		@ frame_needed = 0, uses_anonymous_args = 0
 252 0000 00B5     		push	{lr}
 253              		.cfi_def_cfa_offset 4
 254              		.cfi_offset 14, -4
 255 0002 83B0     		sub	sp, sp, #12
 256              		.cfi_def_cfa_offset 16
 257 0004 0190     		str	r0, [sp, #4]
 258 0006 0091     		str	r1, [sp]
 259              		.loc 5 52 0
 260 0008 019B     		ldr	r3, [sp, #4]
 261 000a 1B68     		ldr	r3, [r3]
 262 000c 002B     		cmp	r3, #0
 263 000e 10D0     		beq	.L12
 264              		.loc 5 53 0
 265 0010 2022     		movs	r2, #32
 266 0012 009B     		ldr	r3, [sp]
 267 0014 9A42     		cmp	r2, r3
 268 0016 02D8     		bhi	.L14
 269              		.loc 5 53 0 is_stmt 0 discriminator 1
 270 0018 0748     		ldr	r0, .L15
 271 001a FFF7FEFF 		bl	chDbgPanic
 272              	.L14:
 273              		.loc 5 54 0 is_stmt 1
 274 001e 019B     		ldr	r3, [sp, #4]
 275 0020 1968     		ldr	r1, [r3]
 276 0022 009B     		ldr	r3, [sp]
 277 0024 0122     		movs	r2, #1
 278 0026 02FA03F3 		lsl	r3, r2, r3
 279 002a 0846     		mov	r0, r1
ARM GAS  /tmp/ccVR0xFf.s 			page 6


 280 002c 1946     		mov	r1, r3
 281 002e FFF7FEFF 		bl	chEvtSignalI
 282              	.L12:
 283              		.loc 5 56 0
 284 0032 03B0     		add	sp, sp, #12
 285              		.cfi_def_cfa_offset 4
 286              		@ sp needed
 287 0034 5DF804FB 		ldr	pc, [sp], #4
 288              	.L16:
 289              		.align	2
 290              	.L15:
 291 0038 00000000 		.word	.LC0
 292              		.cfi_endproc
 293              	.LFE224:
 294              		.size	_ZN3r2p10SpinEvent_13signal_unsafeEj, .-_ZN3r2p10SpinEvent_13signal_unsafeEj
 295 003c AFF30080 		.section	.text._ZNK3r2p9SpinEvent10get_threadEv,"axG",%progbits,_ZNK3r2p9SpinEvent10get_threadEv,c
 296              		.align	2
 297              		.p2align 4,,15
 298              		.weak	_ZNK3r2p9SpinEvent10get_threadEv
 299              		.thumb
 300              		.thumb_func
 301              		.type	_ZNK3r2p9SpinEvent10get_threadEv, %function
 302              	_ZNK3r2p9SpinEvent10get_threadEv:
 303              	.LFB230:
 304              		.file 6 "/home/denny/r2p-sdk/core/Middleware/include/r2p/SpinEvent.hpp"
 305              		.loc 6 35 0
 306              		.cfi_startproc
 307              		@ args = 0, pretend = 0, frame = 8
 308              		@ frame_needed = 0, uses_anonymous_args = 0
 309 0000 00B5     		push	{lr}
 310              		.cfi_def_cfa_offset 4
 311              		.cfi_offset 14, -4
 312 0002 83B0     		sub	sp, sp, #12
 313              		.cfi_def_cfa_offset 16
 314 0004 0190     		str	r0, [sp, #4]
 315              		.loc 6 37 0
 316 0006 019B     		ldr	r3, [sp, #4]
 317 0008 1846     		mov	r0, r3
 318 000a FFF7FEFF 		bl	_ZNK3r2p10SpinEvent_10get_threadEv
 319 000e 0346     		mov	r3, r0
 320              		.loc 6 38 0
 321 0010 1846     		mov	r0, r3
 322 0012 03B0     		add	sp, sp, #12
 323              		.cfi_def_cfa_offset 4
 324              		@ sp needed
 325 0014 5DF804FB 		ldr	pc, [sp], #4
 326              		.cfi_endproc
 327              	.LFE230:
 328              		.size	_ZNK3r2p9SpinEvent10get_threadEv, .-_ZNK3r2p9SpinEvent10get_threadEv
 329 0018 AFF30080 		.section	.text._ZN3r2p9SpinEvent13signal_unsafeEj,"axG",%progbits,_ZN3r2p9SpinEvent13signal_unsafe
 329      AFF30080 
 330              		.align	2
 331              		.p2align 4,,15
 332              		.weak	_ZN3r2p9SpinEvent13signal_unsafeEj
 333              		.thumb
 334              		.thumb_func
 335              		.type	_ZN3r2p9SpinEvent13signal_unsafeEj, %function
ARM GAS  /tmp/ccVR0xFf.s 			page 7


 336              	_ZN3r2p9SpinEvent13signal_unsafeEj:
 337              	.LFB232:
 338              		.loc 6 49 0
 339              		.cfi_startproc
 340              		@ args = 0, pretend = 0, frame = 8
 341              		@ frame_needed = 0, uses_anonymous_args = 0
 342 0000 00B5     		push	{lr}
 343              		.cfi_def_cfa_offset 4
 344              		.cfi_offset 14, -4
 345 0002 83B0     		sub	sp, sp, #12
 346              		.cfi_def_cfa_offset 16
 347 0004 0190     		str	r0, [sp, #4]
 348 0006 0091     		str	r1, [sp]
 349              		.loc 6 51 0
 350 0008 019B     		ldr	r3, [sp, #4]
 351 000a 1846     		mov	r0, r3
 352 000c 0099     		ldr	r1, [sp]
 353 000e FFF7FEFF 		bl	_ZN3r2p10SpinEvent_13signal_unsafeEj
 354              		.loc 6 52 0
 355 0012 03B0     		add	sp, sp, #12
 356              		.cfi_def_cfa_offset 4
 357              		@ sp needed
 358 0014 5DF804FB 		ldr	pc, [sp], #4
 359              		.cfi_endproc
 360              	.LFE232:
 361              		.size	_ZN3r2p9SpinEvent13signal_unsafeEj, .-_ZN3r2p9SpinEvent13signal_unsafeEj
 362 0018 AFF30080 		.section	.text._ZNK3r2p4Node11get_enabledEv,"axG",%progbits,_ZNK3r2p4Node11get_enabledEv,comdat
 362      AFF30080 
 363              		.align	2
 364              		.p2align 4,,15
 365              		.weak	_ZNK3r2p4Node11get_enabledEv
 366              		.thumb
 367              		.thumb_func
 368              		.type	_ZNK3r2p4Node11get_enabledEv, %function
 369              	_ZNK3r2p4Node11get_enabledEv:
 370              	.LFB262:
 371              		.file 7 "/home/denny/r2p-sdk/core/Middleware/include/r2p/Node.hpp"
 372              		.loc 7 103 0
 373              		.cfi_startproc
 374              		@ args = 0, pretend = 0, frame = 8
 375              		@ frame_needed = 0, uses_anonymous_args = 0
 376 0000 00B5     		push	{lr}
 377              		.cfi_def_cfa_offset 4
 378              		.cfi_offset 14, -4
 379 0002 83B0     		sub	sp, sp, #12
 380              		.cfi_def_cfa_offset 16
 381 0004 0190     		str	r0, [sp, #4]
 382              		.loc 7 105 0
 383 0006 019B     		ldr	r3, [sp, #4]
 384 0008 0C33     		adds	r3, r3, #12
 385 000a 1846     		mov	r0, r3
 386 000c FFF7FEFF 		bl	_ZNK3r2p9SpinEvent10get_threadEv
 387 0010 0346     		mov	r3, r0
 388 0012 002B     		cmp	r3, #0
 389 0014 14BF     		ite	ne
 390 0016 0123     		movne	r3, #1
 391 0018 0023     		moveq	r3, #0
ARM GAS  /tmp/ccVR0xFf.s 			page 8


 392 001a DBB2     		uxtb	r3, r3
 393              		.loc 7 106 0
 394 001c 1846     		mov	r0, r3
 395 001e 03B0     		add	sp, sp, #12
 396              		.cfi_def_cfa_offset 4
 397              		@ sp needed
 398 0020 5DF804FB 		ldr	pc, [sp], #4
 399              		.cfi_endproc
 400              	.LFE262:
 401              		.size	_ZNK3r2p4Node11get_enabledEv, .-_ZNK3r2p4Node11get_enabledEv
 402 0024 AFF30080 		.section	.text._ZN3r2p4Node13notify_unsafeEj,"axG",%progbits,_ZN3r2p4Node13notify_unsafeEj,comdat
 402      AFF30080 
 402      AFF30080 
 403              		.align	2
 404              		.p2align 4,,15
 405              		.weak	_ZN3r2p4Node13notify_unsafeEj
 406              		.thumb
 407              		.thumb_func
 408              		.type	_ZN3r2p4Node13notify_unsafeEj, %function
 409              	_ZN3r2p4Node13notify_unsafeEj:
 410              	.LFB267:
 411              		.loc 7 140 0
 412              		.cfi_startproc
 413              		@ args = 0, pretend = 0, frame = 8
 414              		@ frame_needed = 0, uses_anonymous_args = 0
 415 0000 00B5     		push	{lr}
 416              		.cfi_def_cfa_offset 4
 417              		.cfi_offset 14, -4
 418 0002 83B0     		sub	sp, sp, #12
 419              		.cfi_def_cfa_offset 16
 420 0004 0190     		str	r0, [sp, #4]
 421 0006 0091     		str	r1, [sp]
 422              		.loc 7 142 0
 423 0008 019B     		ldr	r3, [sp, #4]
 424 000a 0C33     		adds	r3, r3, #12
 425 000c 1846     		mov	r0, r3
 426 000e 0099     		ldr	r1, [sp]
 427 0010 FFF7FEFF 		bl	_ZN3r2p9SpinEvent13signal_unsafeEj
 428              		.loc 7 143 0
 429 0014 03B0     		add	sp, sp, #12
 430              		.cfi_def_cfa_offset 4
 431              		@ sp needed
 432 0016 5DF804FB 		ldr	pc, [sp], #4
 433              		.cfi_endproc
 434              	.LFE267:
 435              		.size	_ZN3r2p4Node13notify_unsafeEj, .-_ZN3r2p4Node13notify_unsafeEj
 436 001a 00BFAFF3 		.section	.text._ZNK3r2p15LocalSubscriber16get_queue_lengthEv,"axG",%progbits,_ZNK3r2p15LocalSubscr
 436      0080
 437              		.align	2
 438              		.p2align 4,,15
 439              		.weak	_ZNK3r2p15LocalSubscriber16get_queue_lengthEv
 440              		.thumb
 441              		.thumb_func
 442              		.type	_ZNK3r2p15LocalSubscriber16get_queue_lengthEv, %function
 443              	_ZNK3r2p15LocalSubscriber16get_queue_lengthEv:
 444              	.LFB273:
 445              		.file 8 "/home/denny/r2p-sdk/core/Middleware/include/r2p/LocalSubscriber.hpp"
ARM GAS  /tmp/ccVR0xFf.s 			page 9


 446              		.loc 8 64 0
 447              		.cfi_startproc
 448              		@ args = 0, pretend = 0, frame = 8
 449              		@ frame_needed = 0, uses_anonymous_args = 0
 450 0000 00B5     		push	{lr}
 451              		.cfi_def_cfa_offset 4
 452              		.cfi_offset 14, -4
 453 0002 83B0     		sub	sp, sp, #12
 454              		.cfi_def_cfa_offset 16
 455 0004 0190     		str	r0, [sp, #4]
 456              		.loc 8 66 0
 457 0006 019B     		ldr	r3, [sp, #4]
 458 0008 1033     		adds	r3, r3, #16
 459 000a 1846     		mov	r0, r3
 460 000c FFF7FEFF 		bl	_ZNK3r2p10ArrayQueueIPNS_7MessageEE10get_lengthEv
 461 0010 0346     		mov	r3, r0
 462              		.loc 8 67 0
 463 0012 1846     		mov	r0, r3
 464 0014 03B0     		add	sp, sp, #12
 465              		.cfi_def_cfa_offset 4
 466              		@ sp needed
 467 0016 5DF804FB 		ldr	pc, [sp], #4
 468              		.cfi_endproc
 469              	.LFE273:
 470              		.size	_ZNK3r2p15LocalSubscriber16get_queue_lengthEv, .-_ZNK3r2p15LocalSubscriber16get_queue_length
 471 001a 00BFAFF3 		.section	.text._ZN3r2p15LocalSubscriber12fetch_unsafeERPNS_7MessageERNS_4TimeE,"axG",%progbits,_ZN
 471      0080
 472              		.align	2
 473              		.p2align 4,,15
 474              		.weak	_ZN3r2p15LocalSubscriber12fetch_unsafeERPNS_7MessageERNS_4TimeE
 475              		.thumb
 476              		.thumb_func
 477              		.type	_ZN3r2p15LocalSubscriber12fetch_unsafeERPNS_7MessageERNS_4TimeE, %function
 478              	_ZN3r2p15LocalSubscriber12fetch_unsafeERPNS_7MessageERNS_4TimeE:
 479              	.LFB274:
 480              		.loc 8 71 0
 481              		.cfi_startproc
 482              		@ args = 0, pretend = 0, frame = 24
 483              		@ frame_needed = 0, uses_anonymous_args = 0
 484 0000 00B5     		push	{lr}
 485              		.cfi_def_cfa_offset 4
 486              		.cfi_offset 14, -4
 487 0002 87B0     		sub	sp, sp, #28
 488              		.cfi_def_cfa_offset 32
 489 0004 0390     		str	r0, [sp, #12]
 490 0006 0291     		str	r1, [sp, #8]
 491 0008 0192     		str	r2, [sp, #4]
 492              		.loc 8 73 0
 493 000a 039B     		ldr	r3, [sp, #12]
 494 000c 1033     		adds	r3, r3, #16
 495 000e 1846     		mov	r0, r3
 496 0010 0299     		ldr	r1, [sp, #8]
 497 0012 FFF7FEFF 		bl	_ZN3r2p10ArrayQueueIPNS_7MessageEE12fetch_unsafeERS2_
 498 0016 0346     		mov	r3, r0
 499 0018 002B     		cmp	r3, #0
 500 001a 0AD0     		beq	.L26
 501              		.loc 8 74 0
ARM GAS  /tmp/ccVR0xFf.s 			page 10


 502 001c 05AB     		add	r3, sp, #20
 503 001e 1846     		mov	r0, r3
 504 0020 FFF7FEFF 		bl	_ZN3r2p4Time3nowEv
 505 0024 05AB     		add	r3, sp, #20
 506 0026 0198     		ldr	r0, [sp, #4]
 507 0028 1946     		mov	r1, r3
 508 002a FFF7FEFF 		bl	_ZN3r2p4TimeaSERKS0_
 509              		.loc 8 75 0
 510 002e 0123     		movs	r3, #1
 511 0030 00E0     		b	.L27
 512              	.L26:
 513              		.loc 8 77 0
 514 0032 0023     		movs	r3, #0
 515              	.L27:
 516              		.loc 8 78 0
 517 0034 1846     		mov	r0, r3
 518 0036 07B0     		add	sp, sp, #28
 519              		.cfi_def_cfa_offset 4
 520              		@ sp needed
 521 0038 5DF804FB 		ldr	pc, [sp], #4
 522              		.cfi_endproc
 523              	.LFE274:
 524              		.size	_ZN3r2p15LocalSubscriber12fetch_unsafeERPNS_7MessageERNS_4TimeE, .-_ZN3r2p15LocalSubscriber1
 525 003c AFF30080 		.section	.text._ZN3r2p15LocalSubscriber13notify_unsafeERNS_7MessageERKNS_4TimeE,"axG",%progbits,_Z
 526              		.align	2
 527              		.p2align 4,,15
 528              		.weak	_ZN3r2p15LocalSubscriber13notify_unsafeERNS_7MessageERKNS_4TimeE
 529              		.thumb
 530              		.thumb_func
 531              		.type	_ZN3r2p15LocalSubscriber13notify_unsafeERNS_7MessageERKNS_4TimeE, %function
 532              	_ZN3r2p15LocalSubscriber13notify_unsafeERNS_7MessageERKNS_4TimeE:
 533              	.LFB275:
 534              		.loc 8 82 0
 535              		.cfi_startproc
 536              		@ args = 0, pretend = 0, frame = 16
 537              		@ frame_needed = 0, uses_anonymous_args = 0
 538 0000 00B5     		push	{lr}
 539              		.cfi_def_cfa_offset 4
 540              		.cfi_offset 14, -4
 541 0002 85B0     		sub	sp, sp, #20
 542              		.cfi_def_cfa_offset 24
 543 0004 0390     		str	r0, [sp, #12]
 544 0006 0291     		str	r1, [sp, #8]
 545 0008 0192     		str	r2, [sp, #4]
 546              		.loc 8 86 0
 547 000a 039B     		ldr	r3, [sp, #12]
 548 000c 9B68     		ldr	r3, [r3, #8]
 549 000e 1846     		mov	r0, r3
 550 0010 FFF7FEFF 		bl	_ZNK3r2p4Node11get_enabledEv
 551 0014 0346     		mov	r3, r0
 552 0016 002B     		cmp	r3, #0
 553 0018 0AD0     		beq	.L29
 554              		.loc 8 86 0 is_stmt 0 discriminator 1
 555 001a 039B     		ldr	r3, [sp, #12]
 556 001c 1033     		adds	r3, r3, #16
 557 001e 1846     		mov	r0, r3
 558 0020 0299     		ldr	r1, [sp, #8]
ARM GAS  /tmp/ccVR0xFf.s 			page 11


 559 0022 FFF7FEFF 		bl	_ZN3r2p10ArrayQueueIPNS_7MessageEE11post_unsafeES2_
 560 0026 0346     		mov	r3, r0
 561 0028 002B     		cmp	r3, #0
 562 002a 01D0     		beq	.L29
 563              		.loc 8 86 0 discriminator 3
 564 002c 0123     		movs	r3, #1
 565 002e 00E0     		b	.L30
 566              	.L29:
 567              		.loc 8 86 0 discriminator 4
 568 0030 0023     		movs	r3, #0
 569              	.L30:
 570              		.loc 8 86 0 discriminator 6
 571 0032 002B     		cmp	r3, #0
 572 0034 0AD0     		beq	.L31
 573              		.loc 8 87 0 is_stmt 1
 574 0036 039B     		ldr	r3, [sp, #12]
 575 0038 9A68     		ldr	r2, [r3, #8]
 576 003a 039B     		ldr	r3, [sp, #12]
 577 003c 93F82430 		ldrb	r3, [r3, #36]	@ zero_extendqisi2
 578 0040 1046     		mov	r0, r2
 579 0042 1946     		mov	r1, r3
 580 0044 FFF7FEFF 		bl	_ZN3r2p4Node13notify_unsafeEj
 581              		.loc 8 88 0
 582 0048 0123     		movs	r3, #1
 583 004a 00E0     		b	.L32
 584              	.L31:
 585              		.loc 8 90 0
 586 004c 0023     		movs	r3, #0
 587              	.L32:
 588              		.loc 8 91 0
 589 004e 1846     		mov	r0, r3
 590 0050 05B0     		add	sp, sp, #20
 591              		.cfi_def_cfa_offset 4
 592              		@ sp needed
 593 0052 5DF804FB 		ldr	pc, [sp], #4
 594              		.cfi_endproc
 595              	.LFE275:
 596              		.size	_ZN3r2p15LocalSubscriber13notify_unsafeERNS_7MessageERKNS_4TimeE, .-_ZN3r2p15LocalSubscriber
 597 0056 00BFAFF3 		.section	.text._ZN3r2p15LocalSubscriber5fetchERPNS_7MessageE,"ax",%progbits
 597      0080AFF3 
 597      0080
 598              		.align	2
 599              		.p2align 4,,15
 600              		.global	_ZN3r2p15LocalSubscriber5fetchERPNS_7MessageE
 601              		.thumb
 602              		.thumb_func
 603              		.type	_ZN3r2p15LocalSubscriber5fetchERPNS_7MessageE, %function
 604              	_ZN3r2p15LocalSubscriber5fetchERPNS_7MessageE:
 605              	.LFB276:
 606              		.file 9 "/home/denny/r2p-sdk/core/Middleware/src/LocalSubscriber.cpp"
 607              		.loc 9 7 0
 608              		.cfi_startproc
 609              		@ args = 0, pretend = 0, frame = 8
 610              		@ frame_needed = 0, uses_anonymous_args = 0
 611 0000 00B5     		push	{lr}
 612              		.cfi_def_cfa_offset 4
 613              		.cfi_offset 14, -4
ARM GAS  /tmp/ccVR0xFf.s 			page 12


 614 0002 83B0     		sub	sp, sp, #12
 615              		.cfi_def_cfa_offset 16
 616 0004 0190     		str	r0, [sp, #4]
 617 0006 0091     		str	r1, [sp]
 618              		.loc 9 9 0
 619 0008 FFF7FEFF 		bl	_ZN3r2p7SysLock7acquireEv
 620              		.loc 9 10 0
 621 000c 019B     		ldr	r3, [sp, #4]
 622 000e 1033     		adds	r3, r3, #16
 623 0010 1846     		mov	r0, r3
 624 0012 0099     		ldr	r1, [sp]
 625 0014 FFF7FEFF 		bl	_ZN3r2p10ArrayQueueIPNS_7MessageEE12fetch_unsafeERS2_
 626 0018 0346     		mov	r3, r0
 627 001a 002B     		cmp	r3, #0
 628 001c 03D0     		beq	.L34
 629              		.loc 9 11 0
 630 001e FFF7FEFF 		bl	_ZN3r2p7SysLock7releaseEv
 631              		.loc 9 12 0
 632 0022 0123     		movs	r3, #1
 633 0024 02E0     		b	.L35
 634              	.L34:
 635              		.loc 9 14 0
 636 0026 FFF7FEFF 		bl	_ZN3r2p7SysLock7releaseEv
 637              		.loc 9 15 0
 638 002a 0023     		movs	r3, #0
 639              	.L35:
 640              		.loc 9 17 0
 641 002c 1846     		mov	r0, r3
 642 002e 03B0     		add	sp, sp, #12
 643              		.cfi_def_cfa_offset 4
 644              		@ sp needed
 645 0030 5DF804FB 		ldr	pc, [sp], #4
 646              		.cfi_endproc
 647              	.LFE276:
 648              		.size	_ZN3r2p15LocalSubscriber5fetchERPNS_7MessageE, .-_ZN3r2p15LocalSubscriber5fetchERPNS_7Messag
 649 0034 AFF30080 		.section	.text._ZN3r2p15LocalSubscriber5fetchERPNS_7MessageERNS_4TimeE,"ax",%progbits
 649      AFF30080 
 649      AFF30080 
 650              		.align	2
 651              		.p2align 4,,15
 652              		.global	_ZN3r2p15LocalSubscriber5fetchERPNS_7MessageERNS_4TimeE
 653              		.thumb
 654              		.thumb_func
 655              		.type	_ZN3r2p15LocalSubscriber5fetchERPNS_7MessageERNS_4TimeE, %function
 656              	_ZN3r2p15LocalSubscriber5fetchERPNS_7MessageERNS_4TimeE:
 657              	.LFB277:
 658              		.loc 9 20 0
 659              		.cfi_startproc
 660              		@ args = 0, pretend = 0, frame = 24
 661              		@ frame_needed = 0, uses_anonymous_args = 0
 662 0000 00B5     		push	{lr}
 663              		.cfi_def_cfa_offset 4
 664              		.cfi_offset 14, -4
 665 0002 87B0     		sub	sp, sp, #28
 666              		.cfi_def_cfa_offset 32
 667 0004 0390     		str	r0, [sp, #12]
 668 0006 0291     		str	r1, [sp, #8]
ARM GAS  /tmp/ccVR0xFf.s 			page 13


 669 0008 0192     		str	r2, [sp, #4]
 670              		.loc 9 22 0
 671 000a FFF7FEFF 		bl	_ZN3r2p7SysLock7acquireEv
 672              		.loc 9 23 0
 673 000e 039B     		ldr	r3, [sp, #12]
 674 0010 1033     		adds	r3, r3, #16
 675 0012 1846     		mov	r0, r3
 676 0014 0299     		ldr	r1, [sp, #8]
 677 0016 FFF7FEFF 		bl	_ZN3r2p10ArrayQueueIPNS_7MessageEE12fetch_unsafeERS2_
 678 001a 0346     		mov	r3, r0
 679 001c 002B     		cmp	r3, #0
 680 001e 0CD0     		beq	.L37
 681              		.loc 9 24 0
 682 0020 FFF7FEFF 		bl	_ZN3r2p7SysLock7releaseEv
 683              		.loc 9 25 0
 684 0024 05AB     		add	r3, sp, #20
 685 0026 1846     		mov	r0, r3
 686 0028 FFF7FEFF 		bl	_ZN3r2p4Time3nowEv
 687 002c 05AB     		add	r3, sp, #20
 688 002e 0198     		ldr	r0, [sp, #4]
 689 0030 1946     		mov	r1, r3
 690 0032 FFF7FEFF 		bl	_ZN3r2p4TimeaSERKS0_
 691              		.loc 9 26 0
 692 0036 0123     		movs	r3, #1
 693 0038 02E0     		b	.L38
 694              	.L37:
 695              		.loc 9 28 0
 696 003a FFF7FEFF 		bl	_ZN3r2p7SysLock7releaseEv
 697              		.loc 9 29 0
 698 003e 0023     		movs	r3, #0
 699              	.L38:
 700              		.loc 9 31 0
 701 0040 1846     		mov	r0, r3
 702 0042 07B0     		add	sp, sp, #28
 703              		.cfi_def_cfa_offset 4
 704              		@ sp needed
 705 0044 5DF804FB 		ldr	pc, [sp], #4
 706              		.cfi_endproc
 707              	.LFE277:
 708              		.size	_ZN3r2p15LocalSubscriber5fetchERPNS_7MessageERNS_4TimeE, .-_ZN3r2p15LocalSubscriber5fetchERP
 709 0048 AFF30080 		.section	.text._ZN3r2p15LocalSubscriber6notifyERNS_7MessageERKNS_4TimeE,"ax",%progbits
 709      AFF30080 
 710              		.align	2
 711              		.p2align 4,,15
 712              		.global	_ZN3r2p15LocalSubscriber6notifyERNS_7MessageERKNS_4TimeE
 713              		.thumb
 714              		.thumb_func
 715              		.type	_ZN3r2p15LocalSubscriber6notifyERNS_7MessageERKNS_4TimeE, %function
 716              	_ZN3r2p15LocalSubscriber6notifyERNS_7MessageERKNS_4TimeE:
 717              	.LFB278:
 718              		.loc 9 34 0
 719              		.cfi_startproc
 720              		@ args = 0, pretend = 0, frame = 16
 721              		@ frame_needed = 0, uses_anonymous_args = 0
 722 0000 00B5     		push	{lr}
 723              		.cfi_def_cfa_offset 4
 724              		.cfi_offset 14, -4
ARM GAS  /tmp/ccVR0xFf.s 			page 14


 725 0002 85B0     		sub	sp, sp, #20
 726              		.cfi_def_cfa_offset 24
 727 0004 0390     		str	r0, [sp, #12]
 728 0006 0291     		str	r1, [sp, #8]
 729 0008 0192     		str	r2, [sp, #4]
 730              		.loc 9 37 0
 731 000a FFF7FEFF 		bl	_ZN3r2p7SysLock7acquireEv
 732              		.loc 9 38 0
 733 000e 039B     		ldr	r3, [sp, #12]
 734 0010 1033     		adds	r3, r3, #16
 735 0012 1846     		mov	r0, r3
 736 0014 0299     		ldr	r1, [sp, #8]
 737 0016 FFF7FEFF 		bl	_ZN3r2p10ArrayQueueIPNS_7MessageEE11post_unsafeES2_
 738 001a 0346     		mov	r3, r0
 739 001c 002B     		cmp	r3, #0
 740 001e 0CD0     		beq	.L40
 741              		.loc 9 39 0
 742 0020 039B     		ldr	r3, [sp, #12]
 743 0022 9A68     		ldr	r2, [r3, #8]
 744 0024 039B     		ldr	r3, [sp, #12]
 745 0026 93F82430 		ldrb	r3, [r3, #36]	@ zero_extendqisi2
 746 002a 1046     		mov	r0, r2
 747 002c 1946     		mov	r1, r3
 748 002e FFF7FEFF 		bl	_ZN3r2p4Node13notify_unsafeEj
 749              		.loc 9 40 0
 750 0032 FFF7FEFF 		bl	_ZN3r2p7SysLock7releaseEv
 751              		.loc 9 41 0
 752 0036 0123     		movs	r3, #1
 753 0038 02E0     		b	.L41
 754              	.L40:
 755              		.loc 9 43 0
 756 003a FFF7FEFF 		bl	_ZN3r2p7SysLock7releaseEv
 757              		.loc 9 44 0
 758 003e 0023     		movs	r3, #0
 759              	.L41:
 760              		.loc 9 46 0
 761 0040 1846     		mov	r0, r3
 762 0042 05B0     		add	sp, sp, #20
 763              		.cfi_def_cfa_offset 4
 764              		@ sp needed
 765 0044 5DF804FB 		ldr	pc, [sp], #4
 766              		.cfi_endproc
 767              	.LFE278:
 768              		.size	_ZN3r2p15LocalSubscriber6notifyERNS_7MessageERKNS_4TimeE, .-_ZN3r2p15LocalSubscriber6notifyE
 769 0048 AFF30080 		.section	.text._ZN3r2p10ArrayQueueIPNS_7MessageEED2Ev,"axG",%progbits,_ZN3r2p10ArrayQueueIPNS_7Mes
 769      AFF30080 
 770              		.align	2
 771              		.p2align 4,,15
 772              		.weak	_ZN3r2p10ArrayQueueIPNS_7MessageEED2Ev
 773              		.thumb
 774              		.thumb_func
 775              		.type	_ZN3r2p10ArrayQueueIPNS_7MessageEED2Ev, %function
 776              	_ZN3r2p10ArrayQueueIPNS_7MessageEED2Ev:
 777              	.LFB282:
 778              		.file 10 "/home/denny/r2p-sdk/core/Middleware/include/r2p/ArrayQueue.hpp"
 779              		.loc 10 9 0
 780              		.cfi_startproc
ARM GAS  /tmp/ccVR0xFf.s 			page 15


 781              		@ args = 0, pretend = 0, frame = 8
 782              		@ frame_needed = 0, uses_anonymous_args = 0
 783 0000 00B5     		push	{lr}
 784              		.cfi_def_cfa_offset 4
 785              		.cfi_offset 14, -4
 786 0002 83B0     		sub	sp, sp, #12
 787              		.cfi_def_cfa_offset 16
 788 0004 0190     		str	r0, [sp, #4]
 789              	.LBB8:
 790              		.loc 10 9 0
 791 0006 0198     		ldr	r0, [sp, #4]
 792 0008 FFF7FEFF 		bl	_ZN3r2p10UncopyableD2Ev
 793              	.LBE8:
 794 000c 019B     		ldr	r3, [sp, #4]
 795 000e 1846     		mov	r0, r3
 796 0010 03B0     		add	sp, sp, #12
 797              		.cfi_def_cfa_offset 4
 798              		@ sp needed
 799 0012 5DF804FB 		ldr	pc, [sp], #4
 800              		.cfi_endproc
 801              	.LFE282:
 802              		.size	_ZN3r2p10ArrayQueueIPNS_7MessageEED2Ev, .-_ZN3r2p10ArrayQueueIPNS_7MessageEED2Ev
 803              		.weak	_ZN3r2p10ArrayQueueIPNS_7MessageEED1Ev
 804              		.thumb_set _ZN3r2p10ArrayQueueIPNS_7MessageEED1Ev,_ZN3r2p10ArrayQueueIPNS_7MessageEED2Ev
 805 0016 00BFAFF3 		.section	.text._ZN3r2p15MessagePtrQueueD2Ev,"axG",%progbits,_ZN3r2p15MessagePtrQueueD5Ev,comdat
 805      0080AFF3 
 805      0080
 806              		.align	2
 807              		.p2align 4,,15
 808              		.weak	_ZN3r2p15MessagePtrQueueD2Ev
 809              		.thumb
 810              		.thumb_func
 811              		.type	_ZN3r2p15MessagePtrQueueD2Ev, %function
 812              	_ZN3r2p15MessagePtrQueueD2Ev:
 813              	.LFB284:
 814              		.file 11 "/home/denny/r2p-sdk/core/Middleware/include/r2p/MessagePtrQueue.hpp"
 815              		.loc 11 11 0
 816              		.cfi_startproc
 817              		@ args = 0, pretend = 0, frame = 8
 818              		@ frame_needed = 0, uses_anonymous_args = 0
 819 0000 00B5     		push	{lr}
 820              		.cfi_def_cfa_offset 4
 821              		.cfi_offset 14, -4
 822 0002 83B0     		sub	sp, sp, #12
 823              		.cfi_def_cfa_offset 16
 824 0004 0190     		str	r0, [sp, #4]
 825              	.LBB9:
 826              		.loc 11 11 0
 827 0006 019B     		ldr	r3, [sp, #4]
 828 0008 1846     		mov	r0, r3
 829 000a FFF7FEFF 		bl	_ZN3r2p10ArrayQueueIPNS_7MessageEED2Ev
 830              	.LBE9:
 831 000e 019B     		ldr	r3, [sp, #4]
 832 0010 1846     		mov	r0, r3
 833 0012 03B0     		add	sp, sp, #12
 834              		.cfi_def_cfa_offset 4
 835              		@ sp needed
ARM GAS  /tmp/ccVR0xFf.s 			page 16


 836 0014 5DF804FB 		ldr	pc, [sp], #4
 837              		.cfi_endproc
 838              	.LFE284:
 839              		.size	_ZN3r2p15MessagePtrQueueD2Ev, .-_ZN3r2p15MessagePtrQueueD2Ev
 840              		.weak	_ZN3r2p15MessagePtrQueueD1Ev
 841              		.thumb_set _ZN3r2p15MessagePtrQueueD1Ev,_ZN3r2p15MessagePtrQueueD2Ev
 842 0018 AFF30080 		.section	.text._ZN3r2p15LocalSubscriberC2EPPNS_7MessageEjPFbRKS1_E,"ax",%progbits
 842      AFF30080 
 843              		.align	2
 844              		.p2align 4,,15
 845              		.global	_ZN3r2p15LocalSubscriberC2EPPNS_7MessageEjPFbRKS1_E
 846              		.thumb
 847              		.thumb_func
 848              		.type	_ZN3r2p15LocalSubscriberC2EPPNS_7MessageEjPFbRKS1_E, %function
 849              	_ZN3r2p15LocalSubscriberC2EPPNS_7MessageEjPFbRKS1_E:
 850              	.LFB286:
 851              		.loc 9 49 0
 852              		.cfi_startproc
 853              		@ args = 0, pretend = 0, frame = 16
 854              		@ frame_needed = 0, uses_anonymous_args = 0
 855 0000 00B5     		push	{lr}
 856              		.cfi_def_cfa_offset 4
 857              		.cfi_offset 14, -4
 858 0002 85B0     		sub	sp, sp, #20
 859              		.cfi_def_cfa_offset 24
 860 0004 0390     		str	r0, [sp, #12]
 861 0006 0291     		str	r1, [sp, #8]
 862 0008 0192     		str	r2, [sp, #4]
 863 000a 0093     		str	r3, [sp]
 864              	.LBB10:
 865              		.loc 9 58 0
 866 000c 039B     		ldr	r3, [sp, #12]
 867 000e 1846     		mov	r0, r3
 868 0010 FFF7FEFF 		bl	_ZN3r2p14BaseSubscriberC2Ev
 869 0014 039B     		ldr	r3, [sp, #12]
 870 0016 184A     		ldr	r2, .L52
 871 0018 1A60     		str	r2, [r3]
 872 001a 039B     		ldr	r3, [sp, #12]
 873 001c 0022     		movs	r2, #0
 874 001e 9A60     		str	r2, [r3, #8]
 875 0020 039B     		ldr	r3, [sp, #12]
 876 0022 009A     		ldr	r2, [sp]
 877 0024 DA60     		str	r2, [r3, #12]
 878 0026 039B     		ldr	r3, [sp, #12]
 879 0028 1033     		adds	r3, r3, #16
 880 002a 1846     		mov	r0, r3
 881 002c 0299     		ldr	r1, [sp, #8]
 882 002e 019A     		ldr	r2, [sp, #4]
 883 0030 FFF7FEFF 		bl	_ZN3r2p15MessagePtrQueueC1EPPNS_7MessageEj
 884 0034 039B     		ldr	r3, [sp, #12]
 885 0036 FF22     		movs	r2, #255
 886 0038 83F82420 		strb	r2, [r3, #36]
 887 003c 039B     		ldr	r3, [sp, #12]
 888 003e 2833     		adds	r3, r3, #40
 889 0040 1846     		mov	r0, r3
 890 0042 0399     		ldr	r1, [sp, #12]
 891 0044 FFF7FEFF 		bl	_ZN3r2p10StaticListINS_15LocalSubscriberEE4LinkC1ERS1_
ARM GAS  /tmp/ccVR0xFf.s 			page 17


 892 0048 039B     		ldr	r3, [sp, #12]
 893 004a 3033     		adds	r3, r3, #48
 894 004c 1846     		mov	r0, r3
 895 004e 0399     		ldr	r1, [sp, #12]
 896 0050 FFF7FEFF 		bl	_ZN3r2p10StaticListINS_15LocalSubscriberEE4LinkC1ERS1_
 897              		.loc 9 60 0
 898 0054 029B     		ldr	r3, [sp, #8]
 899 0056 002B     		cmp	r3, #0
 900 0058 02D1     		bne	.L49
 901              		.loc 9 60 0 is_stmt 0 discriminator 1
 902 005a 0848     		ldr	r0, .L52+4
 903 005c FFF7FEFF 		bl	chDbgPanic
 904              	.L49:
 905              		.loc 9 61 0 is_stmt 1
 906 0060 019B     		ldr	r3, [sp, #4]
 907 0062 002B     		cmp	r3, #0
 908 0064 02D1     		bne	.L50
 909              		.loc 9 61 0 is_stmt 0 discriminator 1
 910 0066 0548     		ldr	r0, .L52+4
 911 0068 FFF7FEFF 		bl	chDbgPanic
 912              	.L50:
 913              	.LBE10:
 914              		.loc 9 62 0 is_stmt 1
 915 006c 039B     		ldr	r3, [sp, #12]
 916 006e 1846     		mov	r0, r3
 917 0070 05B0     		add	sp, sp, #20
 918              		.cfi_def_cfa_offset 4
 919              		@ sp needed
 920 0072 5DF804FB 		ldr	pc, [sp], #4
 921              	.L53:
 922 0076 00BF     		.align	2
 923              	.L52:
 924 0078 08000000 		.word	_ZTVN3r2p15LocalSubscriberE+8
 925 007c 00000000 		.word	.LC0
 926              		.cfi_endproc
 927              	.LFE286:
 928              		.size	_ZN3r2p15LocalSubscriberC2EPPNS_7MessageEjPFbRKS1_E, .-_ZN3r2p15LocalSubscriberC2EPPNS_7Mess
 929              		.global	_ZN3r2p15LocalSubscriberC1EPPNS_7MessageEjPFbRKS1_E
 930              		.thumb_set _ZN3r2p15LocalSubscriberC1EPPNS_7MessageEjPFbRKS1_E,_ZN3r2p15LocalSubscriberC2EPPNS_7Me
 931              		.section	.text._ZN3r2p15LocalSubscriberD2Ev,"ax",%progbits
 932              		.align	2
 933              		.p2align 4,,15
 934              		.global	_ZN3r2p15LocalSubscriberD2Ev
 935              		.thumb
 936              		.thumb_func
 937              		.type	_ZN3r2p15LocalSubscriberD2Ev, %function
 938              	_ZN3r2p15LocalSubscriberD2Ev:
 939              	.LFB289:
 940              		.loc 9 65 0
 941              		.cfi_startproc
 942              		@ args = 0, pretend = 0, frame = 8
 943              		@ frame_needed = 0, uses_anonymous_args = 0
 944 0000 00B5     		push	{lr}
 945              		.cfi_def_cfa_offset 4
 946              		.cfi_offset 14, -4
 947 0002 83B0     		sub	sp, sp, #12
 948              		.cfi_def_cfa_offset 16
ARM GAS  /tmp/ccVR0xFf.s 			page 18


 949 0004 0190     		str	r0, [sp, #4]
 950              	.LBB11:
 951              		.loc 9 65 0
 952 0006 019B     		ldr	r3, [sp, #4]
 953 0008 0A4A     		ldr	r2, .L58
 954 000a 1A60     		str	r2, [r3]
 955 000c 019B     		ldr	r3, [sp, #4]
 956 000e 1033     		adds	r3, r3, #16
 957 0010 1846     		mov	r0, r3
 958 0012 FFF7FEFF 		bl	_ZN3r2p15MessagePtrQueueD1Ev
 959 0016 019B     		ldr	r3, [sp, #4]
 960 0018 1846     		mov	r0, r3
 961 001a FFF7FEFF 		bl	_ZN3r2p14BaseSubscriberD2Ev
 962              	.LBE11:
 963 001e 0023     		movs	r3, #0
 964 0020 002B     		cmp	r3, #0
 965 0022 02D0     		beq	.L56
 966              		.loc 9 65 0 is_stmt 0 discriminator 2
 967 0024 0198     		ldr	r0, [sp, #4]
 968 0026 FFF7FEFF 		bl	_ZdlPv
 969              	.L56:
 970              		.loc 9 65 0 discriminator 4
 971 002a 019B     		ldr	r3, [sp, #4]
 972 002c 1846     		mov	r0, r3
 973 002e 03B0     		add	sp, sp, #12
 974              		.cfi_def_cfa_offset 4
 975              		@ sp needed
 976 0030 5DF804FB 		ldr	pc, [sp], #4
 977              	.L59:
 978              		.align	2
 979              	.L58:
 980 0034 08000000 		.word	_ZTVN3r2p15LocalSubscriberE+8
 981              		.cfi_endproc
 982              	.LFE289:
 983              		.size	_ZN3r2p15LocalSubscriberD2Ev, .-_ZN3r2p15LocalSubscriberD2Ev
 984              		.global	_ZN3r2p15LocalSubscriberD1Ev
 985              		.thumb_set _ZN3r2p15LocalSubscriberD1Ev,_ZN3r2p15LocalSubscriberD2Ev
 986 0038 AFF30080 		.section	.text._ZN3r2p15LocalSubscriberD0Ev,"ax",%progbits
 986      AFF30080 
 987              		.align	2
 988              		.p2align 4,,15
 989              		.global	_ZN3r2p15LocalSubscriberD0Ev
 990              		.thumb
 991              		.thumb_func
 992              		.type	_ZN3r2p15LocalSubscriberD0Ev, %function
 993              	_ZN3r2p15LocalSubscriberD0Ev:
 994              	.LFB291:
 995              		.loc 9 65 0 is_stmt 1
 996              		.cfi_startproc
 997              		@ args = 0, pretend = 0, frame = 8
 998              		@ frame_needed = 0, uses_anonymous_args = 0
 999 0000 00B5     		push	{lr}
 1000              		.cfi_def_cfa_offset 4
 1001              		.cfi_offset 14, -4
 1002 0002 83B0     		sub	sp, sp, #12
 1003              		.cfi_def_cfa_offset 16
 1004 0004 0190     		str	r0, [sp, #4]
ARM GAS  /tmp/ccVR0xFf.s 			page 19


 1005              		.loc 9 65 0
 1006 0006 0198     		ldr	r0, [sp, #4]
 1007 0008 FFF7FEFF 		bl	_ZN3r2p15LocalSubscriberD2Ev
 1008 000c 0198     		ldr	r0, [sp, #4]
 1009 000e FFF7FEFF 		bl	_ZdlPv
 1010 0012 019B     		ldr	r3, [sp, #4]
 1011 0014 1846     		mov	r0, r3
 1012 0016 03B0     		add	sp, sp, #12
 1013              		.cfi_def_cfa_offset 4
 1014              		@ sp needed
 1015 0018 5DF804FB 		ldr	pc, [sp], #4
 1016              		.cfi_endproc
 1017              	.LFE291:
 1018              		.size	_ZN3r2p15LocalSubscriberD0Ev, .-_ZN3r2p15LocalSubscriberD0Ev
 1019 001c AFF30080 		.section	.text._ZNK3r2p10ArrayQueueIPNS_7MessageEE10get_lengthEv,"axG",%progbits,_ZNK3r2p10ArrayQu
 1020              		.align	2
 1021              		.p2align 4,,15
 1022              		.weak	_ZNK3r2p10ArrayQueueIPNS_7MessageEE10get_lengthEv
 1023              		.thumb
 1024              		.thumb_func
 1025              		.type	_ZNK3r2p10ArrayQueueIPNS_7MessageEE10get_lengthEv, %function
 1026              	_ZNK3r2p10ArrayQueueIPNS_7MessageEE10get_lengthEv:
 1027              	.LFB301:
 1028              		.loc 10 81 0
 1029              		.cfi_startproc
 1030              		@ args = 0, pretend = 0, frame = 8
 1031              		@ frame_needed = 0, uses_anonymous_args = 0
 1032              		@ link register save eliminated.
 1033 0000 82B0     		sub	sp, sp, #8
 1034              		.cfi_def_cfa_offset 8
 1035 0002 0190     		str	r0, [sp, #4]
 1036              		.loc 10 83 0
 1037 0004 019B     		ldr	r3, [sp, #4]
 1038 0006 5B68     		ldr	r3, [r3, #4]
 1039              		.loc 10 84 0
 1040 0008 1846     		mov	r0, r3
 1041 000a 02B0     		add	sp, sp, #8
 1042              		.cfi_def_cfa_offset 0
 1043              		@ sp needed
 1044 000c 7047     		bx	lr
 1045              		.cfi_endproc
 1046              	.LFE301:
 1047              		.size	_ZNK3r2p10ArrayQueueIPNS_7MessageEE10get_lengthEv, .-_ZNK3r2p10ArrayQueueIPNS_7MessageEE10ge
 1048 000e 00BF     		.section	.text._ZN3r2p10ArrayQueueIPNS_7MessageEE12fetch_unsafeERS2_,"axG",%progbits,_ZN3r2p10Arra
 1049              		.align	2
 1050              		.p2align 4,,15
 1051              		.weak	_ZN3r2p10ArrayQueueIPNS_7MessageEE12fetch_unsafeERS2_
 1052              		.thumb
 1053              		.thumb_func
 1054              		.type	_ZN3r2p10ArrayQueueIPNS_7MessageEE12fetch_unsafeERS2_, %function
 1055              	_ZN3r2p10ArrayQueueIPNS_7MessageEE12fetch_unsafeERS2_:
 1056              	.LFB302:
 1057              		.loc 10 52 0
 1058              		.cfi_startproc
 1059              		@ args = 0, pretend = 0, frame = 8
 1060              		@ frame_needed = 0, uses_anonymous_args = 0
 1061              		@ link register save eliminated.
ARM GAS  /tmp/ccVR0xFf.s 			page 20


 1062 0000 82B0     		sub	sp, sp, #8
 1063              		.cfi_def_cfa_offset 8
 1064 0002 0190     		str	r0, [sp, #4]
 1065 0004 0091     		str	r1, [sp]
 1066              		.loc 10 54 0
 1067 0006 019B     		ldr	r3, [sp, #4]
 1068 0008 9B68     		ldr	r3, [r3, #8]
 1069 000a 002B     		cmp	r3, #0
 1070 000c 23D0     		beq	.L66
 1071              		.loc 10 55 0
 1072 000e 019B     		ldr	r3, [sp, #4]
 1073 0010 9B68     		ldr	r3, [r3, #8]
 1074 0012 5A1E     		subs	r2, r3, #1
 1075 0014 019B     		ldr	r3, [sp, #4]
 1076 0016 9A60     		str	r2, [r3, #8]
 1077              		.loc 10 56 0
 1078 0018 019B     		ldr	r3, [sp, #4]
 1079 001a DB68     		ldr	r3, [r3, #12]
 1080 001c 1A68     		ldr	r2, [r3]
 1081 001e 009B     		ldr	r3, [sp]
 1082 0020 1A60     		str	r2, [r3]
 1083              		.loc 10 57 0
 1084 0022 019B     		ldr	r3, [sp, #4]
 1085 0024 DB68     		ldr	r3, [r3, #12]
 1086 0026 1A1D     		adds	r2, r3, #4
 1087 0028 019B     		ldr	r3, [sp, #4]
 1088 002a DA60     		str	r2, [r3, #12]
 1089 002c 019B     		ldr	r3, [sp, #4]
 1090 002e DA68     		ldr	r2, [r3, #12]
 1091 0030 019B     		ldr	r3, [sp, #4]
 1092 0032 1968     		ldr	r1, [r3]
 1093 0034 019B     		ldr	r3, [sp, #4]
 1094 0036 5B68     		ldr	r3, [r3, #4]
 1095 0038 9B00     		lsls	r3, r3, #2
 1096 003a 0B44     		add	r3, r3, r1
 1097 003c 9A42     		cmp	r2, r3
 1098 003e 2CBF     		ite	cs
 1099 0040 0123     		movcs	r3, #1
 1100 0042 0023     		movcc	r3, #0
 1101 0044 DBB2     		uxtb	r3, r3
 1102 0046 002B     		cmp	r3, #0
 1103 0048 03D0     		beq	.L67
 1104              		.loc 10 58 0
 1105 004a 019B     		ldr	r3, [sp, #4]
 1106 004c 1A68     		ldr	r2, [r3]
 1107 004e 019B     		ldr	r3, [sp, #4]
 1108 0050 DA60     		str	r2, [r3, #12]
 1109              	.L67:
 1110              		.loc 10 60 0
 1111 0052 0123     		movs	r3, #1
 1112 0054 00E0     		b	.L68
 1113              	.L66:
 1114              		.loc 10 62 0
 1115 0056 0023     		movs	r3, #0
 1116              	.L68:
 1117              		.loc 10 63 0
 1118 0058 1846     		mov	r0, r3
ARM GAS  /tmp/ccVR0xFf.s 			page 21


 1119 005a 02B0     		add	sp, sp, #8
 1120              		.cfi_def_cfa_offset 0
 1121              		@ sp needed
 1122 005c 7047     		bx	lr
 1123              		.cfi_endproc
 1124              	.LFE302:
 1125              		.size	_ZN3r2p10ArrayQueueIPNS_7MessageEE12fetch_unsafeERS2_, .-_ZN3r2p10ArrayQueueIPNS_7MessageEE1
 1126 005e 00BF     		.section	.text._ZN3r2p10ArrayQueueIPNS_7MessageEE11post_unsafeES2_,"axG",%progbits,_ZN3r2p10ArrayQ
 1127              		.align	2
 1128              		.p2align 4,,15
 1129              		.weak	_ZN3r2p10ArrayQueueIPNS_7MessageEE11post_unsafeES2_
 1130              		.thumb
 1131              		.thumb_func
 1132              		.type	_ZN3r2p10ArrayQueueIPNS_7MessageEE11post_unsafeES2_, %function
 1133              	_ZN3r2p10ArrayQueueIPNS_7MessageEE11post_unsafeES2_:
 1134              	.LFB303:
 1135              		.loc 10 37 0
 1136              		.cfi_startproc
 1137              		@ args = 0, pretend = 0, frame = 8
 1138              		@ frame_needed = 0, uses_anonymous_args = 0
 1139              		@ link register save eliminated.
 1140 0000 82B0     		sub	sp, sp, #8
 1141              		.cfi_def_cfa_offset 8
 1142 0002 0190     		str	r0, [sp, #4]
 1143 0004 0091     		str	r1, [sp]
 1144              		.loc 10 39 0
 1145 0006 019B     		ldr	r3, [sp, #4]
 1146 0008 9A68     		ldr	r2, [r3, #8]
 1147 000a 019B     		ldr	r3, [sp, #4]
 1148 000c 5B68     		ldr	r3, [r3, #4]
 1149 000e 9A42     		cmp	r2, r3
 1150 0010 22D2     		bcs	.L70
 1151              		.loc 10 40 0
 1152 0012 019B     		ldr	r3, [sp, #4]
 1153 0014 9B68     		ldr	r3, [r3, #8]
 1154 0016 5A1C     		adds	r2, r3, #1
 1155 0018 019B     		ldr	r3, [sp, #4]
 1156 001a 9A60     		str	r2, [r3, #8]
 1157              		.loc 10 41 0
 1158 001c 019B     		ldr	r3, [sp, #4]
 1159 001e 1B69     		ldr	r3, [r3, #16]
 1160 0020 009A     		ldr	r2, [sp]
 1161 0022 1A60     		str	r2, [r3]
 1162              		.loc 10 42 0
 1163 0024 019B     		ldr	r3, [sp, #4]
 1164 0026 1B69     		ldr	r3, [r3, #16]
 1165 0028 1A1D     		adds	r2, r3, #4
 1166 002a 019B     		ldr	r3, [sp, #4]
 1167 002c 1A61     		str	r2, [r3, #16]
 1168 002e 019B     		ldr	r3, [sp, #4]
 1169 0030 1A69     		ldr	r2, [r3, #16]
 1170 0032 019B     		ldr	r3, [sp, #4]
 1171 0034 1968     		ldr	r1, [r3]
 1172 0036 019B     		ldr	r3, [sp, #4]
 1173 0038 5B68     		ldr	r3, [r3, #4]
 1174 003a 9B00     		lsls	r3, r3, #2
 1175 003c 0B44     		add	r3, r3, r1
ARM GAS  /tmp/ccVR0xFf.s 			page 22


 1176 003e 9A42     		cmp	r2, r3
 1177 0040 2CBF     		ite	cs
 1178 0042 0123     		movcs	r3, #1
 1179 0044 0023     		movcc	r3, #0
 1180 0046 DBB2     		uxtb	r3, r3
 1181 0048 002B     		cmp	r3, #0
 1182 004a 03D0     		beq	.L71
 1183              		.loc 10 43 0
 1184 004c 019B     		ldr	r3, [sp, #4]
 1185 004e 1A68     		ldr	r2, [r3]
 1186 0050 019B     		ldr	r3, [sp, #4]
 1187 0052 1A61     		str	r2, [r3, #16]
 1188              	.L71:
 1189              		.loc 10 45 0
 1190 0054 0123     		movs	r3, #1
 1191 0056 00E0     		b	.L72
 1192              	.L70:
 1193              		.loc 10 47 0
 1194 0058 0023     		movs	r3, #0
 1195              	.L72:
 1196              		.loc 10 48 0
 1197 005a 1846     		mov	r0, r3
 1198 005c 02B0     		add	sp, sp, #8
 1199              		.cfi_def_cfa_offset 0
 1200              		@ sp needed
 1201 005e 7047     		bx	lr
 1202              		.cfi_endproc
 1203              	.LFE303:
 1204              		.size	_ZN3r2p10ArrayQueueIPNS_7MessageEE11post_unsafeES2_, .-_ZN3r2p10ArrayQueueIPNS_7MessageEE11p
 1205              		.section	.text._ZN3r2p10StaticListINS_15LocalSubscriberEE4LinkC2ERS1_,"axG",%progbits,_ZN3r2p10Sta
 1206              		.align	2
 1207              		.p2align 4,,15
 1208              		.weak	_ZN3r2p10StaticListINS_15LocalSubscriberEE4LinkC2ERS1_
 1209              		.thumb
 1210              		.thumb_func
 1211              		.type	_ZN3r2p10StaticListINS_15LocalSubscriberEE4LinkC2ERS1_, %function
 1212              	_ZN3r2p10StaticListINS_15LocalSubscriberEE4LinkC2ERS1_:
 1213              	.LFB305:
 1214              		.file 12 "/home/denny/r2p-sdk/core/Middleware/include/r2p/StaticList.hpp"
 1215              		.loc 12 21 0
 1216              		.cfi_startproc
 1217              		@ args = 0, pretend = 0, frame = 8
 1218              		@ frame_needed = 0, uses_anonymous_args = 0
 1219              		@ link register save eliminated.
 1220 0000 82B0     		sub	sp, sp, #8
 1221              		.cfi_def_cfa_offset 8
 1222 0002 0190     		str	r0, [sp, #4]
 1223 0004 0091     		str	r1, [sp]
 1224              	.LBB12:
 1225              		.loc 12 21 0
 1226 0006 019B     		ldr	r3, [sp, #4]
 1227 0008 0022     		movs	r2, #0
 1228 000a 1A60     		str	r2, [r3]
 1229 000c 019B     		ldr	r3, [sp, #4]
 1230 000e 009A     		ldr	r2, [sp]
 1231 0010 5A60     		str	r2, [r3, #4]
 1232              	.LBE12:
ARM GAS  /tmp/ccVR0xFf.s 			page 23


 1233 0012 019B     		ldr	r3, [sp, #4]
 1234 0014 1846     		mov	r0, r3
 1235 0016 02B0     		add	sp, sp, #8
 1236              		.cfi_def_cfa_offset 0
 1237              		@ sp needed
 1238 0018 7047     		bx	lr
 1239              		.cfi_endproc
 1240              	.LFE305:
 1241              		.size	_ZN3r2p10StaticListINS_15LocalSubscriberEE4LinkC2ERS1_, .-_ZN3r2p10StaticListINS_15LocalSubs
 1242              		.weak	_ZN3r2p10StaticListINS_15LocalSubscriberEE4LinkC1ERS1_
 1243              		.thumb_set _ZN3r2p10StaticListINS_15LocalSubscriberEE4LinkC1ERS1_,_ZN3r2p10StaticListINS_15LocalSu
 1244              		.global	_ZTVN3r2p15LocalSubscriberE
 1245 001a 00BFAFF3 		.section	.rodata._ZTVN3r2p15LocalSubscriberE,"a",%progbits
 1245      0080
 1246              		.align	3
 1247              		.type	_ZTVN3r2p15LocalSubscriberE, %object
 1248              		.size	_ZTVN3r2p15LocalSubscriberE, 36
 1249              	_ZTVN3r2p15LocalSubscriberE:
 1250 0000 00000000 		.word	0
 1251 0004 00000000 		.word	0
 1252 0008 00000000 		.word	_ZNK3r2p15LocalSubscriber16get_queue_lengthEv
 1253 000c 00000000 		.word	_ZN3r2p15LocalSubscriber13notify_unsafeERNS_7MessageERKNS_4TimeE
 1254 0010 00000000 		.word	_ZN3r2p15LocalSubscriber12fetch_unsafeERPNS_7MessageERNS_4TimeE
 1255 0014 00000000 		.word	_ZN3r2p15LocalSubscriber6notifyERNS_7MessageERKNS_4TimeE
 1256 0018 00000000 		.word	_ZN3r2p15LocalSubscriber5fetchERPNS_7MessageERNS_4TimeE
 1257 001c 00000000 		.word	__cxa_pure_virtual
 1258 0020 00000000 		.word	__cxa_pure_virtual
 1259 0024 00000000 		.text
 1260              	.Letext0:
 1261              		.file 13 "/home/denny/r2p-sdk/tools/gcc-arm-none-eabi-4_9-2014q4/lib/gcc/arm-none-eabi/4.9.3/inclu
 1262              		.file 14 "/home/denny/r2p-sdk/tools/gcc-arm-none-eabi-4_9-2014q4/arm-none-eabi/include/machine/_de
 1263              		.file 15 "/home/denny/r2p-sdk/tools/gcc-arm-none-eabi-4_9-2014q4/arm-none-eabi/include/c++/4.9.3/c
 1264              		.file 16 "/home/denny/r2p-sdk/tools/gcc-arm-none-eabi-4_9-2014q4/arm-none-eabi/include/string.h"
 1265              		.file 17 "<built-in>"
 1266              		.file 18 "/home/denny/r2p-sdk/core/Middleware/include/r2p/Message.hpp"
 1267              		.file 19 "/home/denny/r2p-sdk/core/Middleware/port/chibios/include/r2p/impl/MemoryPool_.hpp"
 1268              		.file 20 "/home/denny/r2p-sdk/core/Middleware/port/chibios/include/r2p/impl/Thread_.hpp"
 1269              		.file 21 "/home/denny/r2p-sdk/core/Middleware/include/r2p/Thread.hpp"
 1270              		.file 22 "/home/denny/r2p-sdk/core/Middleware/include/r2p/BaseSubscriber.hpp"
 1271              		.file 23 "/home/denny/r2p-sdk/tools/gcc-arm-none-eabi-4_9-2014q4/arm-none-eabi/include/stdint.h"
 1272              		.file 24 "/home/denny/r2p-sdk/core/ChibiOS/os/ports/GCC/ARMCMx/chtypes.h"
 1273              		.file 25 "/home/denny/r2p-sdk/core/ChibiOS/os/kernel/include/chlists.h"
 1274              		.file 26 "/home/denny/r2p-sdk/core/ChibiOS/os/kernel/include/chthreads.h"
 1275              		.file 27 "/home/denny/r2p-sdk/core/ChibiOS/os/ports/GCC/ARMCMx/chcore_v7m.h"
 1276              		.file 28 "/home/denny/r2p-sdk/core/ChibiOS/os/kernel/include/chschd.h"
 1277              		.file 29 "/home/denny/r2p-sdk/core/ChibiOS/os/kernel/include/chmtx.h"
 1278              		.file 30 "/home/denny/r2p-sdk/core/ChibiOS/os/kernel/include/chmemcore.h"
 1279              		.file 31 "/home/denny/r2p-sdk/core/ChibiOS/os/kernel/include/chmempools.h"