ARM GAS  /tmp/cc596bob.s 			page 1


   1              		.syntax unified
   2              		.cpu cortex-m4
   3              		.eabi_attribute 27, 3
   4              		.eabi_attribute 28, 1
   5              		.fpu fpv4-sp-d16
   6              		.eabi_attribute 20, 1
   7              		.eabi_attribute 21, 1
   8              		.eabi_attribute 23, 3
   9              		.eabi_attribute 24, 1
  10              		.eabi_attribute 25, 1
  11              		.eabi_attribute 26, 1
  12              		.eabi_attribute 30, 6
  13              		.eabi_attribute 34, 1
  14              		.eabi_attribute 18, 4
  15              		.thumb
  16              		.file	"main.cpp"
  17              		.text
  18              	.Ltext0:
  19              		.cfi_sections	.debug_frame
  20              		.section	.text._ZN3r2p10UncopyableD2Ev,"axG",%progbits,_ZN3r2p10UncopyableD5Ev,comdat
  21              		.align	2
  22              		.p2align 4,,15
  23              		.weak	_ZN3r2p10UncopyableD2Ev
  24              		.thumb
  25              		.thumb_func
  26              		.type	_ZN3r2p10UncopyableD2Ev, %function
  27              	_ZN3r2p10UncopyableD2Ev:
  28              	.LFB127:
  29              		.file 1 "/home/ergae/r2p-sdk/core/Middleware/include/r2p/Uncopyable.hpp"
  30              		.loc 1 21 0
  31              		.cfi_startproc
  32              		@ args = 0, pretend = 0, frame = 8
  33              		@ frame_needed = 0, uses_anonymous_args = 0
  34              		@ link register save eliminated.
  35 0000 82B0     		sub	sp, sp, #8
  36              		.cfi_def_cfa_offset 8
  37 0002 0190     		str	r0, [sp, #4]
  38              		.loc 1 21 0
  39 0004 019B     		ldr	r3, [sp, #4]
  40 0006 1846     		mov	r0, r3
  41 0008 02B0     		add	sp, sp, #8
  42              		.cfi_def_cfa_offset 0
  43              		@ sp needed
  44 000a 7047     		bx	lr
  45              		.cfi_endproc
  46              	.LFE127:
  47              		.size	_ZN3r2p10UncopyableD2Ev, .-_ZN3r2p10UncopyableD2Ev
  48              		.weak	_ZN3r2p10UncopyableD1Ev
  49              		.thumb_set _ZN3r2p10UncopyableD1Ev,_ZN3r2p10UncopyableD2Ev
  50 000c AFF30080 		.section	.text._ZNK3r2p4Time8to_s_rawEv,"axG",%progbits,_ZNK3r2p4Time8to_s_rawEv,comdat
  51              		.align	2
  52              		.p2align 4,,15
  53              		.weak	_ZNK3r2p4Time8to_s_rawEv
  54              		.thumb
  55              		.thumb_func
  56              		.type	_ZNK3r2p4Time8to_s_rawEv, %function
  57              	_ZNK3r2p4Time8to_s_rawEv:
ARM GAS  /tmp/cc596bob.s 			page 2


  58              	.LFB256:
  59              		.file 2 "/home/ergae/r2p-sdk/core/Middleware/include/r2p/Time.hpp"
  60              		.loc 2 89 0
  61              		.cfi_startproc
  62              		@ args = 0, pretend = 0, frame = 8
  63              		@ frame_needed = 0, uses_anonymous_args = 0
  64              		@ link register save eliminated.
  65 0000 82B0     		sub	sp, sp, #8
  66              		.cfi_def_cfa_offset 8
  67 0002 0190     		str	r0, [sp, #4]
  68              		.loc 2 91 0
  69 0004 019B     		ldr	r3, [sp, #4]
  70 0006 1B68     		ldr	r3, [r3]
  71 0008 044A     		ldr	r2, .L6
  72 000a 82FB0312 		smull	r1, r2, r2, r3
  73 000e 9214     		asrs	r2, r2, #18
  74 0010 DB17     		asrs	r3, r3, #31
  75 0012 D31A     		subs	r3, r2, r3
  76              		.loc 2 92 0
  77 0014 1846     		mov	r0, r3
  78 0016 02B0     		add	sp, sp, #8
  79              		.cfi_def_cfa_offset 0
  80              		@ sp needed
  81 0018 7047     		bx	lr
  82              	.L7:
  83 001a 00BF     		.align	2
  84              	.L6:
  85 001c 83DE1B43 		.word	1125899907
  86              		.cfi_endproc
  87              	.LFE256:
  88              		.size	_ZNK3r2p4Time8to_s_rawEv, .-_ZNK3r2p4Time8to_s_rawEv
  89              		.section	.text._ZN3r2p4TimeaSERKS0_,"axG",%progbits,_ZN3r2p4TimeaSERKS0_,comdat
  90              		.align	2
  91              		.p2align 4,,15
  92              		.weak	_ZN3r2p4TimeaSERKS0_
  93              		.thumb
  94              		.thumb_func
  95              		.type	_ZN3r2p4TimeaSERKS0_, %function
  96              	_ZN3r2p4TimeaSERKS0_:
  97              	.LFB262:
  98              		.loc 2 131 0
  99              		.cfi_startproc
 100              		@ args = 0, pretend = 0, frame = 8
 101              		@ frame_needed = 0, uses_anonymous_args = 0
 102              		@ link register save eliminated.
 103 0000 82B0     		sub	sp, sp, #8
 104              		.cfi_def_cfa_offset 8
 105 0002 0190     		str	r0, [sp, #4]
 106 0004 0091     		str	r1, [sp]
 107              		.loc 2 133 0
 108 0006 009B     		ldr	r3, [sp]
 109 0008 1A68     		ldr	r2, [r3]
 110 000a 019B     		ldr	r3, [sp, #4]
 111 000c 1A60     		str	r2, [r3]
 112              		.loc 2 134 0
 113 000e 019B     		ldr	r3, [sp, #4]
 114              		.loc 2 135 0
ARM GAS  /tmp/cc596bob.s 			page 3


 115 0010 1846     		mov	r0, r3
 116 0012 02B0     		add	sp, sp, #8
 117              		.cfi_def_cfa_offset 0
 118              		@ sp needed
 119 0014 7047     		bx	lr
 120              		.cfi_endproc
 121              	.LFE262:
 122              		.size	_ZN3r2p4TimeaSERKS0_, .-_ZN3r2p4TimeaSERKS0_
 123 0016 00BFAFF3 		.section	.text._ZN3r2p4Time2msEl,"axG",%progbits,_ZN3r2p4Time2msEl,comdat
 123      0080AFF3 
 123      0080
 124              		.align	2
 125              		.p2align 4,,15
 126              		.weak	_ZN3r2p4Time2msEl
 127              		.thumb
 128              		.thumb_func
 129              		.type	_ZN3r2p4Time2msEl, %function
 130              	_ZN3r2p4Time2msEl:
 131              	.LFB276:
 132              		.loc 2 184 0
 133              		.cfi_startproc
 134              		@ args = 0, pretend = 0, frame = 8
 135              		@ frame_needed = 0, uses_anonymous_args = 0
 136 0000 00B5     		push	{lr}
 137              		.cfi_def_cfa_offset 4
 138              		.cfi_offset 14, -4
 139 0002 83B0     		sub	sp, sp, #12
 140              		.cfi_def_cfa_offset 16
 141 0004 0190     		str	r0, [sp, #4]
 142 0006 0091     		str	r1, [sp]
 143              		.loc 2 186 0
 144 0008 009B     		ldr	r3, [sp]
 145 000a 4FF47A72 		mov	r2, #1000
 146 000e 02FB03F3 		mul	r3, r2, r3
 147 0012 0198     		ldr	r0, [sp, #4]
 148 0014 1946     		mov	r1, r3
 149 0016 FFF7FEFF 		bl	_ZN3r2p4TimeC1IlEET_
 150              		.loc 2 187 0
 151 001a 0198     		ldr	r0, [sp, #4]
 152 001c 03B0     		add	sp, sp, #12
 153              		.cfi_def_cfa_offset 4
 154              		@ sp needed
 155 001e 5DF804FB 		ldr	pc, [sp], #4
 156              		.cfi_endproc
 157              	.LFE276:
 158              		.size	_ZN3r2p4Time2msEl, .-_ZN3r2p4Time2msEl
 159 0022 00BFAFF3 		.section	.text._ZN3r2p7Thread_11create_heapEPvjmPFlS1_ES1_PKc,"axG",%progbits,_ZN3r2p7Thread_11cre
 159      0080AFF3 
 159      0080AFF3 
 159      0080
 160              		.align	2
 161              		.p2align 4,,15
 162              		.weak	_ZN3r2p7Thread_11create_heapEPvjmPFlS1_ES1_PKc
 163              		.thumb
 164              		.thumb_func
 165              		.type	_ZN3r2p7Thread_11create_heapEPvjmPFlS1_ES1_PKc, %function
 166              	_ZN3r2p7Thread_11create_heapEPvjmPFlS1_ES1_PKc:
ARM GAS  /tmp/cc596bob.s 			page 4


 167              	.LFB334:
 168              		.file 3 "/home/ergae/r2p-sdk/core/Middleware/port/chibios/include/r2p/impl/Thread_.hpp"
 169              		.loc 3 115 0
 170              		.cfi_startproc
 171              		@ args = 8, pretend = 0, frame = 24
 172              		@ frame_needed = 0, uses_anonymous_args = 0
 173 0000 00B5     		push	{lr}
 174              		.cfi_def_cfa_offset 4
 175              		.cfi_offset 14, -4
 176 0002 89B0     		sub	sp, sp, #36
 177              		.cfi_def_cfa_offset 40
 178 0004 0590     		str	r0, [sp, #20]
 179 0006 0491     		str	r1, [sp, #16]
 180 0008 0392     		str	r2, [sp, #12]
 181 000a 0293     		str	r3, [sp, #8]
 182              	.LBB10:
 183              		.loc 3 120 0
 184 000c 0A9B     		ldr	r3, [sp, #40]
 185 000e 0093     		str	r3, [sp]
 186 0010 0598     		ldr	r0, [sp, #20]
 187 0012 0499     		ldr	r1, [sp, #16]
 188 0014 039A     		ldr	r2, [sp, #12]
 189 0016 029B     		ldr	r3, [sp, #8]
 190 0018 FFF7FEFF 		bl	chThdCreateFromHeap
 191 001c 0790     		str	r0, [sp, #28]
 192              		.loc 3 122 0
 193 001e 079B     		ldr	r3, [sp, #28]
 194 0020 002B     		cmp	r3, #0
 195 0022 02D0     		beq	.L13
 196              		.loc 3 123 0
 197 0024 079B     		ldr	r3, [sp, #28]
 198 0026 0B9A     		ldr	r2, [sp, #44]
 199 0028 9A61     		str	r2, [r3, #24]
 200              	.L13:
 201              		.loc 3 128 0
 202 002a 079B     		ldr	r3, [sp, #28]
 203              	.LBE10:
 204              		.loc 3 129 0
 205 002c 1846     		mov	r0, r3
 206 002e 09B0     		add	sp, sp, #36
 207              		.cfi_def_cfa_offset 4
 208              		@ sp needed
 209 0030 5DF804FB 		ldr	pc, [sp], #4
 210              		.cfi_endproc
 211              	.LFE334:
 212              		.size	_ZN3r2p7Thread_11create_heapEPvjmPFlS1_ES1_PKc, .-_ZN3r2p7Thread_11create_heapEPvjmPFlS1_ES1
 213 0034 AFF30080 		.section	.text._ZN3r2p7Thread_5sleepERKNS_4TimeE,"axG",%progbits,_ZN3r2p7Thread_5sleepERKNS_4TimeE
 213      AFF30080 
 213      AFF30080 
 214              		.align	2
 215              		.p2align 4,,15
 216              		.weak	_ZN3r2p7Thread_5sleepERKNS_4TimeE
 217              		.thumb
 218              		.thumb_func
 219              		.type	_ZN3r2p7Thread_5sleepERKNS_4TimeE, %function
 220              	_ZN3r2p7Thread_5sleepERKNS_4TimeE:
 221              	.LFB340:
ARM GAS  /tmp/cc596bob.s 			page 5


 222              		.loc 3 180 0
 223              		.cfi_startproc
 224              		@ args = 0, pretend = 0, frame = 8
 225              		@ frame_needed = 0, uses_anonymous_args = 0
 226 0000 00B5     		push	{lr}
 227              		.cfi_def_cfa_offset 4
 228              		.cfi_offset 14, -4
 229 0002 83B0     		sub	sp, sp, #12
 230              		.cfi_def_cfa_offset 16
 231 0004 0190     		str	r0, [sp, #4]
 232              		.loc 3 182 0
 233 0006 019B     		ldr	r3, [sp, #4]
 234 0008 1B68     		ldr	r3, [r3]
 235 000a 002B     		cmp	r3, #0
 236 000c 21DD     		ble	.L16
 237              		.loc 3 183 0
 238 000e 019B     		ldr	r3, [sp, #4]
 239 0010 1B68     		ldr	r3, [r3]
 240 0012 124A     		ldr	r2, .L20
 241 0014 9342     		cmp	r3, r2
 242 0016 10DC     		bgt	.L17
 243              		.loc 3 184 0
 244 0018 019B     		ldr	r3, [sp, #4]
 245 001a 1B68     		ldr	r3, [r3]
 246 001c 1A46     		mov	r2, r3
 247 001e 4FF47A73 		mov	r3, #1000
 248 0022 03FB02F3 		mul	r3, r3, r2
 249 0026 013B     		subs	r3, r3, #1
 250 0028 0D4A     		ldr	r2, .L20+4
 251 002a A2FB0323 		umull	r2, r3, r2, r3
 252 002e 9B0C     		lsrs	r3, r3, #18
 253 0030 0133     		adds	r3, r3, #1
 254 0032 1846     		mov	r0, r3
 255 0034 FFF7FEFF 		bl	chThdSleep
 256 0038 0DE0     		b	.L15
 257              	.L17:
 258              		.loc 3 186 0
 259 003a 0198     		ldr	r0, [sp, #4]
 260 003c FFF7FEFF 		bl	_ZNK3r2p4Time8to_s_rawEv
 261 0040 0246     		mov	r2, r0
 262 0042 4FF47A73 		mov	r3, #1000
 263 0046 03FB02F3 		mul	r3, r3, r2
 264 004a 1846     		mov	r0, r3
 265 004c FFF7FEFF 		bl	chThdSleep
 266 0050 01E0     		b	.L15
 267              	.L16:
 268              		.loc 3 189 0
 269 0052 FFF7FEFF 		bl	chThdYield
 270              	.L15:
 271              		.loc 3 191 0
 272 0056 03B0     		add	sp, sp, #12
 273              		.cfi_def_cfa_offset 4
 274              		@ sp needed
 275 0058 5DF804FB 		ldr	pc, [sp], #4
 276              	.L21:
 277              		.align	2
 278              	.L20:
ARM GAS  /tmp/cc596bob.s 			page 6


 279 005c 3F420F00 		.word	999999
 280 0060 83DE1B43 		.word	1125899907
 281              		.cfi_endproc
 282              	.LFE340:
 283              		.size	_ZN3r2p7Thread_5sleepERKNS_4TimeE, .-_ZN3r2p7Thread_5sleepERKNS_4TimeE
 284 0064 AFF30080 		.section	.text._ZN3r2p6Thread11create_heapEPvjmPFlS1_ES1_PKc,"axG",%progbits,_ZN3r2p6Thread11creat
 284      AFF30080 
 284      AFF30080 
 285              		.align	2
 286              		.p2align 4,,15
 287              		.weak	_ZN3r2p6Thread11create_heapEPvjmPFlS1_ES1_PKc
 288              		.thumb
 289              		.thumb_func
 290              		.type	_ZN3r2p6Thread11create_heapEPvjmPFlS1_ES1_PKc, %function
 291              	_ZN3r2p6Thread11create_heapEPvjmPFlS1_ES1_PKc:
 292              	.LFB345:
 293              		.file 4 "/home/ergae/r2p-sdk/core/Middleware/include/r2p/Thread.hpp"
 294              		.loc 4 92 0
 295              		.cfi_startproc
 296              		@ args = 8, pretend = 0, frame = 16
 297              		@ frame_needed = 0, uses_anonymous_args = 0
 298 0000 00B5     		push	{lr}
 299              		.cfi_def_cfa_offset 4
 300              		.cfi_offset 14, -4
 301 0002 87B0     		sub	sp, sp, #28
 302              		.cfi_def_cfa_offset 32
 303 0004 0590     		str	r0, [sp, #20]
 304 0006 0491     		str	r1, [sp, #16]
 305 0008 0392     		str	r2, [sp, #12]
 306 000a 0293     		str	r3, [sp, #8]
 307              		.loc 4 96 0
 308 000c 089B     		ldr	r3, [sp, #32]
 309 000e 0093     		str	r3, [sp]
 310 0010 099B     		ldr	r3, [sp, #36]
 311 0012 0193     		str	r3, [sp, #4]
 312 0014 0598     		ldr	r0, [sp, #20]
 313 0016 0499     		ldr	r1, [sp, #16]
 314 0018 039A     		ldr	r2, [sp, #12]
 315 001a 029B     		ldr	r3, [sp, #8]
 316 001c FFF7FEFF 		bl	_ZN3r2p7Thread_11create_heapEPvjmPFlS1_ES1_PKc
 317 0020 0346     		mov	r3, r0
 318              		.loc 4 97 0
 319 0022 1846     		mov	r0, r3
 320 0024 07B0     		add	sp, sp, #28
 321              		.cfi_def_cfa_offset 4
 322              		@ sp needed
 323 0026 5DF804FB 		ldr	pc, [sp], #4
 324              		.cfi_endproc
 325              	.LFE345:
 326              		.size	_ZN3r2p6Thread11create_heapEPvjmPFlS1_ES1_PKc, .-_ZN3r2p6Thread11create_heapEPvjmPFlS1_ES1_P
 327 002a 00BFAFF3 		.section	.text._ZN3r2p6Thread5sleepERKNS_4TimeE,"axG",%progbits,_ZN3r2p6Thread5sleepERKNS_4TimeE,c
 327      0080
 328              		.align	2
 329              		.p2align 4,,15
 330              		.weak	_ZN3r2p6Thread5sleepERKNS_4TimeE
 331              		.thumb
 332              		.thumb_func
ARM GAS  /tmp/cc596bob.s 			page 7


 333              		.type	_ZN3r2p6Thread5sleepERKNS_4TimeE, %function
 334              	_ZN3r2p6Thread5sleepERKNS_4TimeE:
 335              	.LFB351:
 336              		.loc 4 140 0
 337              		.cfi_startproc
 338              		@ args = 0, pretend = 0, frame = 8
 339              		@ frame_needed = 0, uses_anonymous_args = 0
 340 0000 00B5     		push	{lr}
 341              		.cfi_def_cfa_offset 4
 342              		.cfi_offset 14, -4
 343 0002 83B0     		sub	sp, sp, #12
 344              		.cfi_def_cfa_offset 16
 345 0004 0190     		str	r0, [sp, #4]
 346              		.loc 4 142 0
 347 0006 0198     		ldr	r0, [sp, #4]
 348 0008 FFF7FEFF 		bl	_ZN3r2p7Thread_5sleepERKNS_4TimeE
 349              		.loc 4 143 0
 350 000c 03B0     		add	sp, sp, #12
 351              		.cfi_def_cfa_offset 4
 352              		@ sp needed
 353 000e 5DF804FB 		ldr	pc, [sp], #4
 354              		.cfi_endproc
 355              	.LFE351:
 356              		.size	_ZN3r2p6Thread5sleepERKNS_4TimeE, .-_ZN3r2p6Thread5sleepERKNS_4TimeE
 357 0012 00BFAFF3 		.section	.text._ZNK3r2p10SpinEvent_10get_threadEv,"axG",%progbits,_ZNK3r2p10SpinEvent_10get_thread
 357      0080AFF3 
 357      0080AFF3 
 357      0080
 358              		.align	2
 359              		.p2align 4,,15
 360              		.weak	_ZNK3r2p10SpinEvent_10get_threadEv
 361              		.thumb
 362              		.thumb_func
 363              		.type	_ZNK3r2p10SpinEvent_10get_threadEv, %function
 364              	_ZNK3r2p10SpinEvent_10get_threadEv:
 365              	.LFB353:
 366              		.file 5 "/home/ergae/r2p-sdk/core/Middleware/port/chibios/include/r2p/impl/SpinEvent_.hpp"
 367              		.loc 5 36 0
 368              		.cfi_startproc
 369              		@ args = 0, pretend = 0, frame = 8
 370              		@ frame_needed = 0, uses_anonymous_args = 0
 371              		@ link register save eliminated.
 372 0000 82B0     		sub	sp, sp, #8
 373              		.cfi_def_cfa_offset 8
 374 0002 0190     		str	r0, [sp, #4]
 375              		.loc 5 38 0
 376 0004 019B     		ldr	r3, [sp, #4]
 377 0006 1B68     		ldr	r3, [r3]
 378              		.loc 5 39 0
 379 0008 1846     		mov	r0, r3
 380 000a 02B0     		add	sp, sp, #8
 381              		.cfi_def_cfa_offset 0
 382              		@ sp needed
 383 000c 7047     		bx	lr
 384              		.cfi_endproc
 385              	.LFE353:
 386              		.size	_ZNK3r2p10SpinEvent_10get_threadEv, .-_ZNK3r2p10SpinEvent_10get_threadEv
ARM GAS  /tmp/cc596bob.s 			page 8


 387 000e 00BF     		.section	.rodata
 388              		.align	2
 389              	.LC2:
 390 0000 5232505F 		.ascii	"R2P_ASSERT()\000"
 390      41535345 
 390      52542829 
 390      00
 391              		.section	.text._ZN3r2p10SpinEvent_13signal_unsafeEj,"axG",%progbits,_ZN3r2p10SpinEvent_13signal_un
 392              		.align	2
 393              		.p2align 4,,15
 394              		.weak	_ZN3r2p10SpinEvent_13signal_unsafeEj
 395              		.thumb
 396              		.thumb_func
 397              		.type	_ZN3r2p10SpinEvent_13signal_unsafeEj, %function
 398              	_ZN3r2p10SpinEvent_13signal_unsafeEj:
 399              	.LFB355:
 400              		.loc 5 50 0
 401              		.cfi_startproc
 402              		@ args = 0, pretend = 0, frame = 8
 403              		@ frame_needed = 0, uses_anonymous_args = 0
 404 0000 00B5     		push	{lr}
 405              		.cfi_def_cfa_offset 4
 406              		.cfi_offset 14, -4
 407 0002 83B0     		sub	sp, sp, #12
 408              		.cfi_def_cfa_offset 16
 409 0004 0190     		str	r0, [sp, #4]
 410 0006 0091     		str	r1, [sp]
 411              		.loc 5 52 0
 412 0008 019B     		ldr	r3, [sp, #4]
 413 000a 1B68     		ldr	r3, [r3]
 414 000c 002B     		cmp	r3, #0
 415 000e 10D0     		beq	.L27
 416              		.loc 5 53 0
 417 0010 2022     		movs	r2, #32
 418 0012 009B     		ldr	r3, [sp]
 419 0014 9A42     		cmp	r2, r3
 420 0016 02D8     		bhi	.L29
 421              		.loc 5 53 0 is_stmt 0 discriminator 1
 422 0018 0748     		ldr	r0, .L30
 423 001a FFF7FEFF 		bl	chDbgPanic
 424              	.L29:
 425              		.loc 5 54 0 is_stmt 1
 426 001e 019B     		ldr	r3, [sp, #4]
 427 0020 1968     		ldr	r1, [r3]
 428 0022 009B     		ldr	r3, [sp]
 429 0024 0122     		movs	r2, #1
 430 0026 02FA03F3 		lsl	r3, r2, r3
 431 002a 0846     		mov	r0, r1
 432 002c 1946     		mov	r1, r3
 433 002e FFF7FEFF 		bl	chEvtSignalI
 434              	.L27:
 435              		.loc 5 56 0
 436 0032 03B0     		add	sp, sp, #12
 437              		.cfi_def_cfa_offset 4
 438              		@ sp needed
 439 0034 5DF804FB 		ldr	pc, [sp], #4
 440              	.L31:
ARM GAS  /tmp/cc596bob.s 			page 9


 441              		.align	2
 442              	.L30:
 443 0038 00000000 		.word	.LC2
 444              		.cfi_endproc
 445              	.LFE355:
 446              		.size	_ZN3r2p10SpinEvent_13signal_unsafeEj, .-_ZN3r2p10SpinEvent_13signal_unsafeEj
 447 003c AFF30080 		.section	.text._ZNK3r2p9SpinEvent10get_threadEv,"axG",%progbits,_ZNK3r2p9SpinEvent10get_threadEv,c
 448              		.align	2
 449              		.p2align 4,,15
 450              		.weak	_ZNK3r2p9SpinEvent10get_threadEv
 451              		.thumb
 452              		.thumb_func
 453              		.type	_ZNK3r2p9SpinEvent10get_threadEv, %function
 454              	_ZNK3r2p9SpinEvent10get_threadEv:
 455              	.LFB361:
 456              		.file 6 "/home/ergae/r2p-sdk/core/Middleware/include/r2p/SpinEvent.hpp"
 457              		.loc 6 35 0
 458              		.cfi_startproc
 459              		@ args = 0, pretend = 0, frame = 8
 460              		@ frame_needed = 0, uses_anonymous_args = 0
 461 0000 00B5     		push	{lr}
 462              		.cfi_def_cfa_offset 4
 463              		.cfi_offset 14, -4
 464 0002 83B0     		sub	sp, sp, #12
 465              		.cfi_def_cfa_offset 16
 466 0004 0190     		str	r0, [sp, #4]
 467              		.loc 6 37 0
 468 0006 019B     		ldr	r3, [sp, #4]
 469 0008 1846     		mov	r0, r3
 470 000a FFF7FEFF 		bl	_ZNK3r2p10SpinEvent_10get_threadEv
 471 000e 0346     		mov	r3, r0
 472              		.loc 6 38 0
 473 0010 1846     		mov	r0, r3
 474 0012 03B0     		add	sp, sp, #12
 475              		.cfi_def_cfa_offset 4
 476              		@ sp needed
 477 0014 5DF804FB 		ldr	pc, [sp], #4
 478              		.cfi_endproc
 479              	.LFE361:
 480              		.size	_ZNK3r2p9SpinEvent10get_threadEv, .-_ZNK3r2p9SpinEvent10get_threadEv
 481 0018 AFF30080 		.section	.text._ZN3r2p9SpinEvent13signal_unsafeEj,"axG",%progbits,_ZN3r2p9SpinEvent13signal_unsafe
 481      AFF30080 
 482              		.align	2
 483              		.p2align 4,,15
 484              		.weak	_ZN3r2p9SpinEvent13signal_unsafeEj
 485              		.thumb
 486              		.thumb_func
 487              		.type	_ZN3r2p9SpinEvent13signal_unsafeEj, %function
 488              	_ZN3r2p9SpinEvent13signal_unsafeEj:
 489              	.LFB363:
 490              		.loc 6 49 0
 491              		.cfi_startproc
 492              		@ args = 0, pretend = 0, frame = 8
 493              		@ frame_needed = 0, uses_anonymous_args = 0
 494 0000 00B5     		push	{lr}
 495              		.cfi_def_cfa_offset 4
 496              		.cfi_offset 14, -4
ARM GAS  /tmp/cc596bob.s 			page 10


 497 0002 83B0     		sub	sp, sp, #12
 498              		.cfi_def_cfa_offset 16
 499 0004 0190     		str	r0, [sp, #4]
 500 0006 0091     		str	r1, [sp]
 501              		.loc 6 51 0
 502 0008 019B     		ldr	r3, [sp, #4]
 503 000a 1846     		mov	r0, r3
 504 000c 0099     		ldr	r1, [sp]
 505 000e FFF7FEFF 		bl	_ZN3r2p10SpinEvent_13signal_unsafeEj
 506              		.loc 6 52 0
 507 0012 03B0     		add	sp, sp, #12
 508              		.cfi_def_cfa_offset 4
 509              		@ sp needed
 510 0014 5DF804FB 		ldr	pc, [sp], #4
 511              		.cfi_endproc
 512              	.LFE363:
 513              		.size	_ZN3r2p9SpinEvent13signal_unsafeEj, .-_ZN3r2p9SpinEvent13signal_unsafeEj
 514 0018 AFF30080 		.section	.text._ZNK3r2p4Node11get_enabledEv,"axG",%progbits,_ZNK3r2p4Node11get_enabledEv,comdat
 514      AFF30080 
 515              		.align	2
 516              		.p2align 4,,15
 517              		.weak	_ZNK3r2p4Node11get_enabledEv
 518              		.thumb
 519              		.thumb_func
 520              		.type	_ZNK3r2p4Node11get_enabledEv, %function
 521              	_ZNK3r2p4Node11get_enabledEv:
 522              	.LFB380:
 523              		.file 7 "/home/ergae/r2p-sdk/core/Middleware/include/r2p/Node.hpp"
 524              		.loc 7 103 0
 525              		.cfi_startproc
 526              		@ args = 0, pretend = 0, frame = 8
 527              		@ frame_needed = 0, uses_anonymous_args = 0
 528 0000 00B5     		push	{lr}
 529              		.cfi_def_cfa_offset 4
 530              		.cfi_offset 14, -4
 531 0002 83B0     		sub	sp, sp, #12
 532              		.cfi_def_cfa_offset 16
 533 0004 0190     		str	r0, [sp, #4]
 534              		.loc 7 105 0
 535 0006 019B     		ldr	r3, [sp, #4]
 536 0008 0C33     		adds	r3, r3, #12
 537 000a 1846     		mov	r0, r3
 538 000c FFF7FEFF 		bl	_ZNK3r2p9SpinEvent10get_threadEv
 539 0010 0346     		mov	r3, r0
 540 0012 002B     		cmp	r3, #0
 541 0014 14BF     		ite	ne
 542 0016 0123     		movne	r3, #1
 543 0018 0023     		moveq	r3, #0
 544 001a DBB2     		uxtb	r3, r3
 545              		.loc 7 106 0
 546 001c 1846     		mov	r0, r3
 547 001e 03B0     		add	sp, sp, #12
 548              		.cfi_def_cfa_offset 4
 549              		@ sp needed
 550 0020 5DF804FB 		ldr	pc, [sp], #4
 551              		.cfi_endproc
 552              	.LFE380:
ARM GAS  /tmp/cc596bob.s 			page 11


 553              		.size	_ZNK3r2p4Node11get_enabledEv, .-_ZNK3r2p4Node11get_enabledEv
 554 0024 AFF30080 		.section	.text._ZN3r2p4Node13notify_unsafeEj,"axG",%progbits,_ZN3r2p4Node13notify_unsafeEj,comdat
 554      AFF30080 
 554      AFF30080 
 555              		.align	2
 556              		.p2align 4,,15
 557              		.weak	_ZN3r2p4Node13notify_unsafeEj
 558              		.thumb
 559              		.thumb_func
 560              		.type	_ZN3r2p4Node13notify_unsafeEj, %function
 561              	_ZN3r2p4Node13notify_unsafeEj:
 562              	.LFB385:
 563              		.loc 7 140 0
 564              		.cfi_startproc
 565              		@ args = 0, pretend = 0, frame = 8
 566              		@ frame_needed = 0, uses_anonymous_args = 0
 567 0000 00B5     		push	{lr}
 568              		.cfi_def_cfa_offset 4
 569              		.cfi_offset 14, -4
 570 0002 83B0     		sub	sp, sp, #12
 571              		.cfi_def_cfa_offset 16
 572 0004 0190     		str	r0, [sp, #4]
 573 0006 0091     		str	r1, [sp]
 574              		.loc 7 142 0
 575 0008 019B     		ldr	r3, [sp, #4]
 576 000a 0C33     		adds	r3, r3, #12
 577 000c 1846     		mov	r0, r3
 578 000e 0099     		ldr	r1, [sp]
 579 0010 FFF7FEFF 		bl	_ZN3r2p9SpinEvent13signal_unsafeEj
 580              		.loc 7 143 0
 581 0014 03B0     		add	sp, sp, #12
 582              		.cfi_def_cfa_offset 4
 583              		@ sp needed
 584 0016 5DF804FB 		ldr	pc, [sp], #4
 585              		.cfi_endproc
 586              	.LFE385:
 587              		.size	_ZN3r2p4Node13notify_unsafeEj, .-_ZN3r2p4Node13notify_unsafeEj
 588 001a 00BFAFF3 		.section	.text._ZNK3r2p15LocalSubscriber16get_queue_lengthEv,"axG",%progbits,_ZNK3r2p15LocalSubscr
 588      0080
 589              		.align	2
 590              		.p2align 4,,15
 591              		.weak	_ZNK3r2p15LocalSubscriber16get_queue_lengthEv
 592              		.thumb
 593              		.thumb_func
 594              		.type	_ZNK3r2p15LocalSubscriber16get_queue_lengthEv, %function
 595              	_ZNK3r2p15LocalSubscriber16get_queue_lengthEv:
 596              	.LFB391:
 597              		.file 8 "/home/ergae/r2p-sdk/core/Middleware/include/r2p/LocalSubscriber.hpp"
 598              		.loc 8 64 0
 599              		.cfi_startproc
 600              		@ args = 0, pretend = 0, frame = 8
 601              		@ frame_needed = 0, uses_anonymous_args = 0
 602 0000 00B5     		push	{lr}
 603              		.cfi_def_cfa_offset 4
 604              		.cfi_offset 14, -4
 605 0002 83B0     		sub	sp, sp, #12
 606              		.cfi_def_cfa_offset 16
ARM GAS  /tmp/cc596bob.s 			page 12


 607 0004 0190     		str	r0, [sp, #4]
 608              		.loc 8 66 0
 609 0006 019B     		ldr	r3, [sp, #4]
 610 0008 1033     		adds	r3, r3, #16
 611 000a 1846     		mov	r0, r3
 612 000c FFF7FEFF 		bl	_ZNK3r2p10ArrayQueueIPNS_7MessageEE10get_lengthEv
 613 0010 0346     		mov	r3, r0
 614              		.loc 8 67 0
 615 0012 1846     		mov	r0, r3
 616 0014 03B0     		add	sp, sp, #12
 617              		.cfi_def_cfa_offset 4
 618              		@ sp needed
 619 0016 5DF804FB 		ldr	pc, [sp], #4
 620              		.cfi_endproc
 621              	.LFE391:
 622              		.size	_ZNK3r2p15LocalSubscriber16get_queue_lengthEv, .-_ZNK3r2p15LocalSubscriber16get_queue_length
 623 001a 00BFAFF3 		.section	.text._ZN3r2p15LocalSubscriber12fetch_unsafeERPNS_7MessageERNS_4TimeE,"axG",%progbits,_ZN
 623      0080
 624              		.align	2
 625              		.p2align 4,,15
 626              		.weak	_ZN3r2p15LocalSubscriber12fetch_unsafeERPNS_7MessageERNS_4TimeE
 627              		.thumb
 628              		.thumb_func
 629              		.type	_ZN3r2p15LocalSubscriber12fetch_unsafeERPNS_7MessageERNS_4TimeE, %function
 630              	_ZN3r2p15LocalSubscriber12fetch_unsafeERPNS_7MessageERNS_4TimeE:
 631              	.LFB392:
 632              		.loc 8 71 0
 633              		.cfi_startproc
 634              		@ args = 0, pretend = 0, frame = 24
 635              		@ frame_needed = 0, uses_anonymous_args = 0
 636 0000 00B5     		push	{lr}
 637              		.cfi_def_cfa_offset 4
 638              		.cfi_offset 14, -4
 639 0002 87B0     		sub	sp, sp, #28
 640              		.cfi_def_cfa_offset 32
 641 0004 0390     		str	r0, [sp, #12]
 642 0006 0291     		str	r1, [sp, #8]
 643 0008 0192     		str	r2, [sp, #4]
 644              		.loc 8 73 0
 645 000a 039B     		ldr	r3, [sp, #12]
 646 000c 1033     		adds	r3, r3, #16
 647 000e 1846     		mov	r0, r3
 648 0010 0299     		ldr	r1, [sp, #8]
 649 0012 FFF7FEFF 		bl	_ZN3r2p10ArrayQueueIPNS_7MessageEE12fetch_unsafeERS2_
 650 0016 0346     		mov	r3, r0
 651 0018 002B     		cmp	r3, #0
 652 001a 0AD0     		beq	.L41
 653              		.loc 8 74 0
 654 001c 05AB     		add	r3, sp, #20
 655 001e 1846     		mov	r0, r3
 656 0020 FFF7FEFF 		bl	_ZN3r2p4Time3nowEv
 657 0024 05AB     		add	r3, sp, #20
 658 0026 0198     		ldr	r0, [sp, #4]
 659 0028 1946     		mov	r1, r3
 660 002a FFF7FEFF 		bl	_ZN3r2p4TimeaSERKS0_
 661              		.loc 8 75 0
 662 002e 0123     		movs	r3, #1
ARM GAS  /tmp/cc596bob.s 			page 13


 663 0030 00E0     		b	.L42
 664              	.L41:
 665              		.loc 8 77 0
 666 0032 0023     		movs	r3, #0
 667              	.L42:
 668              		.loc 8 78 0
 669 0034 1846     		mov	r0, r3
 670 0036 07B0     		add	sp, sp, #28
 671              		.cfi_def_cfa_offset 4
 672              		@ sp needed
 673 0038 5DF804FB 		ldr	pc, [sp], #4
 674              		.cfi_endproc
 675              	.LFE392:
 676              		.size	_ZN3r2p15LocalSubscriber12fetch_unsafeERPNS_7MessageERNS_4TimeE, .-_ZN3r2p15LocalSubscriber1
 677 003c AFF30080 		.section	.text._ZN3r2p15LocalSubscriber13notify_unsafeERNS_7MessageERKNS_4TimeE,"axG",%progbits,_Z
 678              		.align	2
 679              		.p2align 4,,15
 680              		.weak	_ZN3r2p15LocalSubscriber13notify_unsafeERNS_7MessageERKNS_4TimeE
 681              		.thumb
 682              		.thumb_func
 683              		.type	_ZN3r2p15LocalSubscriber13notify_unsafeERNS_7MessageERKNS_4TimeE, %function
 684              	_ZN3r2p15LocalSubscriber13notify_unsafeERNS_7MessageERKNS_4TimeE:
 685              	.LFB393:
 686              		.loc 8 82 0
 687              		.cfi_startproc
 688              		@ args = 0, pretend = 0, frame = 16
 689              		@ frame_needed = 0, uses_anonymous_args = 0
 690 0000 00B5     		push	{lr}
 691              		.cfi_def_cfa_offset 4
 692              		.cfi_offset 14, -4
 693 0002 85B0     		sub	sp, sp, #20
 694              		.cfi_def_cfa_offset 24
 695 0004 0390     		str	r0, [sp, #12]
 696 0006 0291     		str	r1, [sp, #8]
 697 0008 0192     		str	r2, [sp, #4]
 698              		.loc 8 86 0
 699 000a 039B     		ldr	r3, [sp, #12]
 700 000c 9B68     		ldr	r3, [r3, #8]
 701 000e 1846     		mov	r0, r3
 702 0010 FFF7FEFF 		bl	_ZNK3r2p4Node11get_enabledEv
 703 0014 0346     		mov	r3, r0
 704 0016 002B     		cmp	r3, #0
 705 0018 0AD0     		beq	.L44
 706              		.loc 8 86 0 is_stmt 0 discriminator 1
 707 001a 039B     		ldr	r3, [sp, #12]
 708 001c 1033     		adds	r3, r3, #16
 709 001e 1846     		mov	r0, r3
 710 0020 0299     		ldr	r1, [sp, #8]
 711 0022 FFF7FEFF 		bl	_ZN3r2p10ArrayQueueIPNS_7MessageEE11post_unsafeES2_
 712 0026 0346     		mov	r3, r0
 713 0028 002B     		cmp	r3, #0
 714 002a 01D0     		beq	.L44
 715              		.loc 8 86 0 discriminator 3
 716 002c 0123     		movs	r3, #1
 717 002e 00E0     		b	.L45
 718              	.L44:
 719              		.loc 8 86 0 discriminator 4
ARM GAS  /tmp/cc596bob.s 			page 14


 720 0030 0023     		movs	r3, #0
 721              	.L45:
 722              		.loc 8 86 0 discriminator 6
 723 0032 002B     		cmp	r3, #0
 724 0034 0AD0     		beq	.L46
 725              		.loc 8 87 0 is_stmt 1
 726 0036 039B     		ldr	r3, [sp, #12]
 727 0038 9A68     		ldr	r2, [r3, #8]
 728 003a 039B     		ldr	r3, [sp, #12]
 729 003c 93F82430 		ldrb	r3, [r3, #36]	@ zero_extendqisi2
 730 0040 1046     		mov	r0, r2
 731 0042 1946     		mov	r1, r3
 732 0044 FFF7FEFF 		bl	_ZN3r2p4Node13notify_unsafeEj
 733              		.loc 8 88 0
 734 0048 0123     		movs	r3, #1
 735 004a 00E0     		b	.L47
 736              	.L46:
 737              		.loc 8 90 0
 738 004c 0023     		movs	r3, #0
 739              	.L47:
 740              		.loc 8 91 0
 741 004e 1846     		mov	r0, r3
 742 0050 05B0     		add	sp, sp, #20
 743              		.cfi_def_cfa_offset 4
 744              		@ sp needed
 745 0052 5DF804FB 		ldr	pc, [sp], #4
 746              		.cfi_endproc
 747              	.LFE393:
 748              		.size	_ZN3r2p15LocalSubscriber13notify_unsafeERNS_7MessageERKNS_4TimeE, .-_ZN3r2p15LocalSubscriber
 749 0056 00BFAFF3 		.section	.text._ZN3r2p6Mutex_D2Ev,"axG",%progbits,_ZN3r2p6Mutex_D5Ev,comdat
 749      0080AFF3 
 749      0080
 750              		.align	2
 751              		.p2align 4,,15
 752              		.weak	_ZN3r2p6Mutex_D2Ev
 753              		.thumb
 754              		.thumb_func
 755              		.type	_ZN3r2p6Mutex_D2Ev, %function
 756              	_ZN3r2p6Mutex_D2Ev:
 757              	.LFB459:
 758              		.file 9 "/home/ergae/r2p-sdk/core/Middleware/port/chibios/include/r2p/impl/Mutex_.hpp"
 759              		.loc 9 9 0
 760              		.cfi_startproc
 761              		@ args = 0, pretend = 0, frame = 8
 762              		@ frame_needed = 0, uses_anonymous_args = 0
 763 0000 00B5     		push	{lr}
 764              		.cfi_def_cfa_offset 4
 765              		.cfi_offset 14, -4
 766 0002 83B0     		sub	sp, sp, #12
 767              		.cfi_def_cfa_offset 16
 768 0004 0190     		str	r0, [sp, #4]
 769              	.LBB11:
 770              		.loc 9 9 0
 771 0006 0198     		ldr	r0, [sp, #4]
 772 0008 FFF7FEFF 		bl	_ZN3r2p10UncopyableD2Ev
 773              	.LBE11:
 774 000c 019B     		ldr	r3, [sp, #4]
ARM GAS  /tmp/cc596bob.s 			page 15


 775 000e 1846     		mov	r0, r3
 776 0010 03B0     		add	sp, sp, #12
 777              		.cfi_def_cfa_offset 4
 778              		@ sp needed
 779 0012 5DF804FB 		ldr	pc, [sp], #4
 780              		.cfi_endproc
 781              	.LFE459:
 782              		.size	_ZN3r2p6Mutex_D2Ev, .-_ZN3r2p6Mutex_D2Ev
 783              		.weak	_ZN3r2p6Mutex_D1Ev
 784              		.thumb_set _ZN3r2p6Mutex_D1Ev,_ZN3r2p6Mutex_D2Ev
 785 0016 00BFAFF3 		.section	.text._ZN3r2p5MutexD2Ev,"axG",%progbits,_ZN3r2p5MutexD5Ev,comdat
 785      0080AFF3 
 785      0080
 786              		.align	2
 787              		.p2align 4,,15
 788              		.weak	_ZN3r2p5MutexD2Ev
 789              		.thumb
 790              		.thumb_func
 791              		.type	_ZN3r2p5MutexD2Ev, %function
 792              	_ZN3r2p5MutexD2Ev:
 793              	.LFB473:
 794              		.file 10 "/home/ergae/r2p-sdk/core/Middleware/include/r2p/Mutex.hpp"
 795              		.loc 10 9 0
 796              		.cfi_startproc
 797              		@ args = 0, pretend = 0, frame = 8
 798              		@ frame_needed = 0, uses_anonymous_args = 0
 799 0000 00B5     		push	{lr}
 800              		.cfi_def_cfa_offset 4
 801              		.cfi_offset 14, -4
 802 0002 83B0     		sub	sp, sp, #12
 803              		.cfi_def_cfa_offset 16
 804 0004 0190     		str	r0, [sp, #4]
 805              	.LBB12:
 806              		.loc 10 9 0
 807 0006 019B     		ldr	r3, [sp, #4]
 808 0008 0433     		adds	r3, r3, #4
 809 000a 1846     		mov	r0, r3
 810 000c FFF7FEFF 		bl	_ZN3r2p6Mutex_D1Ev
 811 0010 0198     		ldr	r0, [sp, #4]
 812 0012 FFF7FEFF 		bl	_ZN3r2p10UncopyableD2Ev
 813              	.LBE12:
 814 0016 019B     		ldr	r3, [sp, #4]
 815 0018 1846     		mov	r0, r3
 816 001a 03B0     		add	sp, sp, #12
 817              		.cfi_def_cfa_offset 4
 818              		@ sp needed
 819 001c 5DF804FB 		ldr	pc, [sp], #4
 820              		.cfi_endproc
 821              	.LFE473:
 822              		.size	_ZN3r2p5MutexD2Ev, .-_ZN3r2p5MutexD2Ev
 823              		.weak	_ZN3r2p5MutexD1Ev
 824              		.thumb_set _ZN3r2p5MutexD1Ev,_ZN3r2p5MutexD2Ev
 825              		.section	.bss._ZL7wa_info,"aw",%nobits
 826              		.align	3
 827              		.type	_ZL7wa_info, %object
 828              		.size	_ZL7wa_info, 1368
 829              	_ZL7wa_info:
ARM GAS  /tmp/cc596bob.s 			page 16


 830 0000 00000000 		.space	1368
 830      00000000 
 830      00000000 
 830      00000000 
 830      00000000 
 831              		.section	.bss._ZL8rtcantra,"aw",%nobits
 832              		.align	2
 833              		.type	_ZL8rtcantra, %object
 834              		.size	_ZL8rtcantra, 572
 835              	_ZL8rtcantra:
 836 0000 00000000 		.space	572
 836      00000000 
 836      00000000 
 836      00000000 
 836      00000000 
 837              		.global	rtcan_config
 838              		.section	.data.rtcan_config,"aw",%progbits
 839              		.align	2
 840              		.type	rtcan_config, %object
 841              		.size	rtcan_config, 12
 842              	rtcan_config:
 843 0000 40420F00 		.word	1000000
 844 0004 64000000 		.word	100
 845 0008 3C000000 		.word	60
 846              		.global	_ZN3r2p10Middleware8instanceE
 847              		.section	.bss._ZN3r2p10Middleware8instanceE,"aw",%nobits
 848              		.align	2
 849              		.type	_ZN3r2p10Middleware8instanceE, %object
 850              		.size	_ZN3r2p10Middleware8instanceE, 608
 851              	_ZN3r2p10Middleware8instanceE:
 852 0000 00000000 		.space	608
 852      00000000 
 852      00000000 
 852      00000000 
 852      00000000 
 853              		.section	.rodata
 854 000d 000000   		.align	2
 855              	.LC0:
 856 0010 6C656400 		.ascii	"led\000"
 857              		.align	2
 858              	.LC3:
 859 0014 10000000 		.word	.LC0
 860 0018 01       		.byte	1
 861 0019 000000   		.space	3
 862              		.section	.text.main,"ax",%progbits
 863              		.align	2
 864              		.p2align 4,,15
 865              		.global	main
 866              		.thumb
 867              		.thumb_func
 868              		.type	main, %function
 869              	main:
 870              	.LFB596:
 871              		.file 11 "main.cpp"
 872              		.loc 11 27 0
 873              		.cfi_startproc
 874              		@ args = 0, pretend = 0, frame = 16
ARM GAS  /tmp/cc596bob.s 			page 17


 875              		@ frame_needed = 0, uses_anonymous_args = 0
 876 0000 00B5     		push	{lr}
 877              		.cfi_def_cfa_offset 4
 878              		.cfi_offset 14, -4
 879 0002 89B0     		sub	sp, sp, #36
 880              		.cfi_def_cfa_offset 40
 881              	.LBB13:
 882              		.loc 11 29 0
 883 0004 FFF7FEFF 		bl	halInit
 884              		.loc 11 30 0
 885 0008 FFF7FEFF 		bl	chSysInit
 886              		.loc 11 32 0
 887 000c 0023     		movs	r3, #0
 888 000e 0093     		str	r3, [sp]
 889 0010 0023     		movs	r3, #0
 890 0012 0193     		str	r3, [sp, #4]
 891 0014 0223     		movs	r3, #2
 892 0016 0293     		str	r3, [sp, #8]
 893 0018 3148     		ldr	r0, .L56
 894 001a 3249     		ldr	r1, .L56+4
 895 001c 4FF4AB62 		mov	r2, #1368
 896 0020 7E23     		movs	r3, #126
 897 0022 FFF7FEFF 		bl	_ZN3r2p10Middleware10initializeEPvjmS1_jm
 898              		.loc 11 33 0
 899 0026 3048     		ldr	r0, .L56+8
 900 0028 3049     		ldr	r1, .L56+12
 901 002a FFF7FEFF 		bl	_ZN3r2p14RTCANTransport10initializeERK11RTCANConfig
 902              		.loc 11 34 0
 903 002e 2C48     		ldr	r0, .L56
 904 0030 FFF7FEFF 		bl	_ZN3r2p10Middleware5startEv
 905              		.loc 11 36 0
 906 0034 2E4A     		ldr	r2, .L56+16
 907 0036 05AB     		add	r3, sp, #20
 908 0038 92E80300 		ldmia	r2, {r0, r1}
 909 003c 83E80300 		stmia	r3, {r0, r1}
 910              		.loc 11 37 0
 911 0040 B023     		movs	r3, #176
 912 0042 6833     		adds	r3, r3, #104
 913 0044 03F23F23 		addw	r3, r3, #575
 914 0048 0722     		movs	r2, #7
 915 004a 1343     		orrs	r3, r3, r2
 916 004c 5A1C     		adds	r2, r3, #1
 917 004e 05AB     		add	r3, sp, #20
 918 0050 0093     		str	r3, [sp]
 919 0052 0023     		movs	r3, #0
 920 0054 0193     		str	r3, [sp, #4]
 921 0056 0020     		movs	r0, #0
 922 0058 1146     		mov	r1, r2
 923 005a 4022     		movs	r2, #64
 924 005c 254B     		ldr	r3, .L56+20
 925 005e FFF7FEFF 		bl	_ZN3r2p6Thread11create_heapEPvjmPFlS1_ES1_PKc
 926              		.loc 11 38 0
 927 0062 254B     		ldr	r3, .L56+24
 928 0064 0493     		str	r3, [sp, #16]
 929              		.loc 11 39 0
 930 0066 B023     		movs	r3, #176
 931 0068 6833     		adds	r3, r3, #104
ARM GAS  /tmp/cc596bob.s 			page 18


 932 006a 03F23F23 		addw	r3, r3, #575
 933 006e 0722     		movs	r2, #7
 934 0070 1343     		orrs	r3, r3, r2
 935 0072 5A1C     		adds	r2, r3, #1
 936 0074 04AB     		add	r3, sp, #16
 937 0076 0093     		str	r3, [sp]
 938 0078 0023     		movs	r3, #0
 939 007a 0193     		str	r3, [sp, #4]
 940 007c 0020     		movs	r0, #0
 941 007e 1146     		mov	r1, r2
 942 0080 4022     		movs	r2, #64
 943 0082 1E4B     		ldr	r3, .L56+28
 944 0084 FFF7FEFF 		bl	_ZN3r2p6Thread11create_heapEPvjmPFlS1_ES1_PKc
 945              		.loc 11 41 0
 946 0088 B023     		movs	r3, #176
 947 008a 6833     		adds	r3, r3, #104
 948 008c 03F23F23 		addw	r3, r3, #575
 949 0090 0722     		movs	r2, #7
 950 0092 1343     		orrs	r3, r3, r2
 951 0094 5A1C     		adds	r2, r3, #1
 952 0096 0023     		movs	r3, #0
 953 0098 0093     		str	r3, [sp]
 954 009a 0023     		movs	r3, #0
 955 009c 0193     		str	r3, [sp, #4]
 956 009e 0020     		movs	r0, #0
 957 00a0 1146     		mov	r1, r2
 958 00a2 4022     		movs	r2, #64
 959 00a4 164B     		ldr	r3, .L56+32
 960 00a6 FFF7FEFF 		bl	_ZN3r2p6Thread11create_heapEPvjmPFlS1_ES1_PKc
 961              		.loc 11 42 0
 962 00aa B023     		movs	r3, #176
 963 00ac 6833     		adds	r3, r3, #104
 964 00ae 03F23F23 		addw	r3, r3, #575
 965 00b2 0722     		movs	r2, #7
 966 00b4 1343     		orrs	r3, r3, r2
 967 00b6 5A1C     		adds	r2, r3, #1
 968 00b8 0023     		movs	r3, #0
 969 00ba 0093     		str	r3, [sp]
 970 00bc 0023     		movs	r3, #0
 971 00be 0193     		str	r3, [sp, #4]
 972 00c0 0020     		movs	r0, #0
 973 00c2 1146     		mov	r1, r2
 974 00c4 4022     		movs	r2, #64
 975 00c6 0F4B     		ldr	r3, .L56+36
 976 00c8 FFF7FEFF 		bl	_ZN3r2p6Thread11create_heapEPvjmPFlS1_ES1_PKc
 977              	.L55:
 978              		.loc 11 45 0 discriminator 1
 979 00cc 07AB     		add	r3, sp, #28
 980 00ce 1846     		mov	r0, r3
 981 00d0 3221     		movs	r1, #50
 982 00d2 FFF7FEFF 		bl	_ZN3r2p4Time2msEl
 983 00d6 07AB     		add	r3, sp, #28
 984 00d8 1846     		mov	r0, r3
 985 00da FFF7FEFF 		bl	_ZN3r2p6Thread5sleepERKNS_4TimeE
 986              		.loc 11 49 0 discriminator 1
 987 00de F5E7     		b	.L55
 988              	.L57:
ARM GAS  /tmp/cc596bob.s 			page 19


 989              		.align	2
 990              	.L56:
 991 00e0 00000000 		.word	_ZN3r2p10Middleware8instanceE
 992 00e4 00000000 		.word	_ZL7wa_info
 993 00e8 00000000 		.word	_ZL8rtcantra
 994 00ec 00000000 		.word	rtcan_config
 995 00f0 14000000 		.word	.LC3
 996 00f4 00000000 		.word	_ZN3r2p11ledpub_nodeEPv
 997 00f8 10000000 		.word	.LC0
 998 00fc 00000000 		.word	_ZN3r2p11ledsub_nodeEPv
 999 0100 00000000 		.word	_Z10shell_nodePv
 1000 0104 00000000 		.word	_Z9pixy_nodePv
 1001              	.LBE13:
 1002              		.cfi_endproc
 1003              	.LFE596:
 1004              		.size	main, .-main
 1005 0108 AFF30080 		.section	.text._ZN3r2p4TimeC2IlEET_,"axG",%progbits,_ZN3r2p4TimeC5IlEET_,comdat
 1005      AFF30080 
 1006              		.align	2
 1007              		.p2align 4,,15
 1008              		.weak	_ZN3r2p4TimeC2IlEET_
 1009              		.thumb
 1010              		.thumb_func
 1011              		.type	_ZN3r2p4TimeC2IlEET_, %function
 1012              	_ZN3r2p4TimeC2IlEET_:
 1013              	.LFB598:
 1014              		.loc 2 159 0
 1015              		.cfi_startproc
 1016              		@ args = 0, pretend = 0, frame = 8
 1017              		@ frame_needed = 0, uses_anonymous_args = 0
 1018              		@ link register save eliminated.
 1019 0000 82B0     		sub	sp, sp, #8
 1020              		.cfi_def_cfa_offset 8
 1021 0002 0190     		str	r0, [sp, #4]
 1022 0004 0091     		str	r1, [sp]
 1023              	.LBB14:
 1024              		.loc 2 161 0
 1025 0006 019B     		ldr	r3, [sp, #4]
 1026 0008 009A     		ldr	r2, [sp]
 1027 000a 1A60     		str	r2, [r3]
 1028              	.LBE14:
 1029              		.loc 2 162 0
 1030 000c 019B     		ldr	r3, [sp, #4]
 1031 000e 1846     		mov	r0, r3
 1032 0010 02B0     		add	sp, sp, #8
 1033              		.cfi_def_cfa_offset 0
 1034              		@ sp needed
 1035 0012 7047     		bx	lr
 1036              		.cfi_endproc
 1037              	.LFE598:
 1038              		.size	_ZN3r2p4TimeC2IlEET_, .-_ZN3r2p4TimeC2IlEET_
 1039              		.weak	_ZN3r2p4TimeC1IlEET_
 1040              		.thumb_set _ZN3r2p4TimeC1IlEET_,_ZN3r2p4TimeC2IlEET_
 1041 0014 AFF30080 		.section	.text._ZNK3r2p10ArrayQueueIPNS_7MessageEE10get_lengthEv,"axG",%progbits,_ZNK3r2p10ArrayQu
 1041      AFF30080 
 1041      AFF30080 
 1042              		.align	2
ARM GAS  /tmp/cc596bob.s 			page 20


 1043              		.p2align 4,,15
 1044              		.weak	_ZNK3r2p10ArrayQueueIPNS_7MessageEE10get_lengthEv
 1045              		.thumb
 1046              		.thumb_func
 1047              		.type	_ZNK3r2p10ArrayQueueIPNS_7MessageEE10get_lengthEv, %function
 1048              	_ZNK3r2p10ArrayQueueIPNS_7MessageEE10get_lengthEv:
 1049              	.LFB606:
 1050              		.file 12 "/home/ergae/r2p-sdk/core/Middleware/include/r2p/ArrayQueue.hpp"
 1051              		.loc 12 81 0
 1052              		.cfi_startproc
 1053              		@ args = 0, pretend = 0, frame = 8
 1054              		@ frame_needed = 0, uses_anonymous_args = 0
 1055              		@ link register save eliminated.
 1056 0000 82B0     		sub	sp, sp, #8
 1057              		.cfi_def_cfa_offset 8
 1058 0002 0190     		str	r0, [sp, #4]
 1059              		.loc 12 83 0
 1060 0004 019B     		ldr	r3, [sp, #4]
 1061 0006 5B68     		ldr	r3, [r3, #4]
 1062              		.loc 12 84 0
 1063 0008 1846     		mov	r0, r3
 1064 000a 02B0     		add	sp, sp, #8
 1065              		.cfi_def_cfa_offset 0
 1066              		@ sp needed
 1067 000c 7047     		bx	lr
 1068              		.cfi_endproc
 1069              	.LFE606:
 1070              		.size	_ZNK3r2p10ArrayQueueIPNS_7MessageEE10get_lengthEv, .-_ZNK3r2p10ArrayQueueIPNS_7MessageEE10ge
 1071 000e 00BF     		.section	.text._ZN3r2p10ArrayQueueIPNS_7MessageEE12fetch_unsafeERS2_,"axG",%progbits,_ZN3r2p10Arra
 1072              		.align	2
 1073              		.p2align 4,,15
 1074              		.weak	_ZN3r2p10ArrayQueueIPNS_7MessageEE12fetch_unsafeERS2_
 1075              		.thumb
 1076              		.thumb_func
 1077              		.type	_ZN3r2p10ArrayQueueIPNS_7MessageEE12fetch_unsafeERS2_, %function
 1078              	_ZN3r2p10ArrayQueueIPNS_7MessageEE12fetch_unsafeERS2_:
 1079              	.LFB607:
 1080              		.loc 12 52 0
 1081              		.cfi_startproc
 1082              		@ args = 0, pretend = 0, frame = 8
 1083              		@ frame_needed = 0, uses_anonymous_args = 0
 1084              		@ link register save eliminated.
 1085 0000 82B0     		sub	sp, sp, #8
 1086              		.cfi_def_cfa_offset 8
 1087 0002 0190     		str	r0, [sp, #4]
 1088 0004 0091     		str	r1, [sp]
 1089              		.loc 12 54 0
 1090 0006 019B     		ldr	r3, [sp, #4]
 1091 0008 9B68     		ldr	r3, [r3, #8]
 1092 000a 002B     		cmp	r3, #0
 1093 000c 23D0     		beq	.L64
 1094              		.loc 12 55 0
 1095 000e 019B     		ldr	r3, [sp, #4]
 1096 0010 9B68     		ldr	r3, [r3, #8]
 1097 0012 5A1E     		subs	r2, r3, #1
 1098 0014 019B     		ldr	r3, [sp, #4]
 1099 0016 9A60     		str	r2, [r3, #8]
ARM GAS  /tmp/cc596bob.s 			page 21


 1100              		.loc 12 56 0
 1101 0018 019B     		ldr	r3, [sp, #4]
 1102 001a DB68     		ldr	r3, [r3, #12]
 1103 001c 1A68     		ldr	r2, [r3]
 1104 001e 009B     		ldr	r3, [sp]
 1105 0020 1A60     		str	r2, [r3]
 1106              		.loc 12 57 0
 1107 0022 019B     		ldr	r3, [sp, #4]
 1108 0024 DB68     		ldr	r3, [r3, #12]
 1109 0026 1A1D     		adds	r2, r3, #4
 1110 0028 019B     		ldr	r3, [sp, #4]
 1111 002a DA60     		str	r2, [r3, #12]
 1112 002c 019B     		ldr	r3, [sp, #4]
 1113 002e DA68     		ldr	r2, [r3, #12]
 1114 0030 019B     		ldr	r3, [sp, #4]
 1115 0032 1968     		ldr	r1, [r3]
 1116 0034 019B     		ldr	r3, [sp, #4]
 1117 0036 5B68     		ldr	r3, [r3, #4]
 1118 0038 9B00     		lsls	r3, r3, #2
 1119 003a 0B44     		add	r3, r3, r1
 1120 003c 9A42     		cmp	r2, r3
 1121 003e 2CBF     		ite	cs
 1122 0040 0123     		movcs	r3, #1
 1123 0042 0023     		movcc	r3, #0
 1124 0044 DBB2     		uxtb	r3, r3
 1125 0046 002B     		cmp	r3, #0
 1126 0048 03D0     		beq	.L65
 1127              		.loc 12 58 0
 1128 004a 019B     		ldr	r3, [sp, #4]
 1129 004c 1A68     		ldr	r2, [r3]
 1130 004e 019B     		ldr	r3, [sp, #4]
 1131 0050 DA60     		str	r2, [r3, #12]
 1132              	.L65:
 1133              		.loc 12 60 0
 1134 0052 0123     		movs	r3, #1
 1135 0054 00E0     		b	.L66
 1136              	.L64:
 1137              		.loc 12 62 0
 1138 0056 0023     		movs	r3, #0
 1139              	.L66:
 1140              		.loc 12 63 0
 1141 0058 1846     		mov	r0, r3
 1142 005a 02B0     		add	sp, sp, #8
 1143              		.cfi_def_cfa_offset 0
 1144              		@ sp needed
 1145 005c 7047     		bx	lr
 1146              		.cfi_endproc
 1147              	.LFE607:
 1148              		.size	_ZN3r2p10ArrayQueueIPNS_7MessageEE12fetch_unsafeERS2_, .-_ZN3r2p10ArrayQueueIPNS_7MessageEE1
 1149 005e 00BF     		.section	.text._ZN3r2p10ArrayQueueIPNS_7MessageEE11post_unsafeES2_,"axG",%progbits,_ZN3r2p10ArrayQ
 1150              		.align	2
 1151              		.p2align 4,,15
 1152              		.weak	_ZN3r2p10ArrayQueueIPNS_7MessageEE11post_unsafeES2_
 1153              		.thumb
 1154              		.thumb_func
 1155              		.type	_ZN3r2p10ArrayQueueIPNS_7MessageEE11post_unsafeES2_, %function
 1156              	_ZN3r2p10ArrayQueueIPNS_7MessageEE11post_unsafeES2_:
ARM GAS  /tmp/cc596bob.s 			page 22


 1157              	.LFB608:
 1158              		.loc 12 37 0
 1159              		.cfi_startproc
 1160              		@ args = 0, pretend = 0, frame = 8
 1161              		@ frame_needed = 0, uses_anonymous_args = 0
 1162              		@ link register save eliminated.
 1163 0000 82B0     		sub	sp, sp, #8
 1164              		.cfi_def_cfa_offset 8
 1165 0002 0190     		str	r0, [sp, #4]
 1166 0004 0091     		str	r1, [sp]
 1167              		.loc 12 39 0
 1168 0006 019B     		ldr	r3, [sp, #4]
 1169 0008 9A68     		ldr	r2, [r3, #8]
 1170 000a 019B     		ldr	r3, [sp, #4]
 1171 000c 5B68     		ldr	r3, [r3, #4]
 1172 000e 9A42     		cmp	r2, r3
 1173 0010 22D2     		bcs	.L68
 1174              		.loc 12 40 0
 1175 0012 019B     		ldr	r3, [sp, #4]
 1176 0014 9B68     		ldr	r3, [r3, #8]
 1177 0016 5A1C     		adds	r2, r3, #1
 1178 0018 019B     		ldr	r3, [sp, #4]
 1179 001a 9A60     		str	r2, [r3, #8]
 1180              		.loc 12 41 0
 1181 001c 019B     		ldr	r3, [sp, #4]
 1182 001e 1B69     		ldr	r3, [r3, #16]
 1183 0020 009A     		ldr	r2, [sp]
 1184 0022 1A60     		str	r2, [r3]
 1185              		.loc 12 42 0
 1186 0024 019B     		ldr	r3, [sp, #4]
 1187 0026 1B69     		ldr	r3, [r3, #16]
 1188 0028 1A1D     		adds	r2, r3, #4
 1189 002a 019B     		ldr	r3, [sp, #4]
 1190 002c 1A61     		str	r2, [r3, #16]
 1191 002e 019B     		ldr	r3, [sp, #4]
 1192 0030 1A69     		ldr	r2, [r3, #16]
 1193 0032 019B     		ldr	r3, [sp, #4]
 1194 0034 1968     		ldr	r1, [r3]
 1195 0036 019B     		ldr	r3, [sp, #4]
 1196 0038 5B68     		ldr	r3, [r3, #4]
 1197 003a 9B00     		lsls	r3, r3, #2
 1198 003c 0B44     		add	r3, r3, r1
 1199 003e 9A42     		cmp	r2, r3
 1200 0040 2CBF     		ite	cs
 1201 0042 0123     		movcs	r3, #1
 1202 0044 0023     		movcc	r3, #0
 1203 0046 DBB2     		uxtb	r3, r3
 1204 0048 002B     		cmp	r3, #0
 1205 004a 03D0     		beq	.L69
 1206              		.loc 12 43 0
 1207 004c 019B     		ldr	r3, [sp, #4]
 1208 004e 1A68     		ldr	r2, [r3]
 1209 0050 019B     		ldr	r3, [sp, #4]
 1210 0052 1A61     		str	r2, [r3, #16]
 1211              	.L69:
 1212              		.loc 12 45 0
 1213 0054 0123     		movs	r3, #1
ARM GAS  /tmp/cc596bob.s 			page 23


 1214 0056 00E0     		b	.L70
 1215              	.L68:
 1216              		.loc 12 47 0
 1217 0058 0023     		movs	r3, #0
 1218              	.L70:
 1219              		.loc 12 48 0
 1220 005a 1846     		mov	r0, r3
 1221 005c 02B0     		add	sp, sp, #8
 1222              		.cfi_def_cfa_offset 0
 1223              		@ sp needed
 1224 005e 7047     		bx	lr
 1225              		.cfi_endproc
 1226              	.LFE608:
 1227              		.size	_ZN3r2p10ArrayQueueIPNS_7MessageEE11post_unsafeES2_, .-_ZN3r2p10ArrayQueueIPNS_7MessageEE11p
 1228              		.weak	_ZTVN3r2p16SubscriberExtBufINS_7MgmtMsgEEE
 1229              		.section	.rodata._ZTVN3r2p16SubscriberExtBufINS_7MgmtMsgEEE,"aG",%progbits,_ZTVN3r2p16SubscriberEx
 1230              		.align	3
 1231              		.type	_ZTVN3r2p16SubscriberExtBufINS_7MgmtMsgEEE, %object
 1232              		.size	_ZTVN3r2p16SubscriberExtBufINS_7MgmtMsgEEE, 36
 1233              	_ZTVN3r2p16SubscriberExtBufINS_7MgmtMsgEEE:
 1234 0000 00000000 		.word	0
 1235 0004 00000000 		.word	0
 1236 0008 00000000 		.word	_ZNK3r2p15LocalSubscriber16get_queue_lengthEv
 1237 000c 00000000 		.word	_ZN3r2p15LocalSubscriber13notify_unsafeERNS_7MessageERKNS_4TimeE
 1238 0010 00000000 		.word	_ZN3r2p15LocalSubscriber12fetch_unsafeERPNS_7MessageERNS_4TimeE
 1239 0014 00000000 		.word	_ZN3r2p15LocalSubscriber6notifyERNS_7MessageERKNS_4TimeE
 1240 0018 00000000 		.word	_ZN3r2p15LocalSubscriber5fetchERPNS_7MessageERNS_4TimeE
 1241 001c 00000000 		.word	_ZN3r2p16SubscriberExtBufINS_7MgmtMsgEED1Ev
 1242 0020 00000000 		.word	_ZN3r2p16SubscriberExtBufINS_7MgmtMsgEED0Ev
 1243              		.weak	_ZTVN3r2p9PublisherINS_7MgmtMsgEEE
 1244 0024 00000000 		.section	.rodata._ZTVN3r2p9PublisherINS_7MgmtMsgEEE,"aG",%progbits,_ZTVN3r2p9PublisherINS_7MgmtMsg
 1245              		.align	3
 1246              		.type	_ZTVN3r2p9PublisherINS_7MgmtMsgEEE, %object
 1247              		.size	_ZTVN3r2p9PublisherINS_7MgmtMsgEEE, 16
 1248              	_ZTVN3r2p9PublisherINS_7MgmtMsgEEE:
 1249 0000 00000000 		.word	0
 1250 0004 00000000 		.word	0
 1251 0008 00000000 		.word	_ZN3r2p9PublisherINS_7MgmtMsgEED1Ev
 1252 000c 00000000 		.word	_ZN3r2p9PublisherINS_7MgmtMsgEED0Ev
 1253              		.section	.text._ZN3r2p10StaticListINS_4NodeEED2Ev,"axG",%progbits,_ZN3r2p10StaticListINS_4NodeEED5
 1254              		.align	2
 1255              		.p2align 4,,15
 1256              		.weak	_ZN3r2p10StaticListINS_4NodeEED2Ev
 1257              		.thumb
 1258              		.thumb_func
 1259              		.type	_ZN3r2p10StaticListINS_4NodeEED2Ev, %function
 1260              	_ZN3r2p10StaticListINS_4NodeEED2Ev:
 1261              	.LFB621:
 1262              		.file 13 "/home/ergae/r2p-sdk/core/Middleware/include/r2p/StaticList.hpp"
 1263              		.loc 13 15 0
 1264              		.cfi_startproc
 1265              		@ args = 0, pretend = 0, frame = 8
 1266              		@ frame_needed = 0, uses_anonymous_args = 0
 1267 0000 00B5     		push	{lr}
 1268              		.cfi_def_cfa_offset 4
 1269              		.cfi_offset 14, -4
 1270 0002 83B0     		sub	sp, sp, #12
ARM GAS  /tmp/cc596bob.s 			page 24


 1271              		.cfi_def_cfa_offset 16
 1272 0004 0190     		str	r0, [sp, #4]
 1273              	.LBB15:
 1274              		.loc 13 15 0
 1275 0006 0198     		ldr	r0, [sp, #4]
 1276 0008 FFF7FEFF 		bl	_ZN3r2p10UncopyableD2Ev
 1277              	.LBE15:
 1278 000c 019B     		ldr	r3, [sp, #4]
 1279 000e 1846     		mov	r0, r3
 1280 0010 03B0     		add	sp, sp, #12
 1281              		.cfi_def_cfa_offset 4
 1282              		@ sp needed
 1283 0012 5DF804FB 		ldr	pc, [sp], #4
 1284              		.cfi_endproc
 1285              	.LFE621:
 1286              		.size	_ZN3r2p10StaticListINS_4NodeEED2Ev, .-_ZN3r2p10StaticListINS_4NodeEED2Ev
 1287              		.weak	_ZN3r2p10StaticListINS_4NodeEED1Ev
 1288              		.thumb_set _ZN3r2p10StaticListINS_4NodeEED1Ev,_ZN3r2p10StaticListINS_4NodeEED2Ev
 1289 0016 00BFAFF3 		.section	.text._ZN3r2p10StaticListINS_5TopicEED2Ev,"axG",%progbits,_ZN3r2p10StaticListINS_5TopicEE
 1289      0080AFF3 
 1289      0080
 1290              		.align	2
 1291              		.p2align 4,,15
 1292              		.weak	_ZN3r2p10StaticListINS_5TopicEED2Ev
 1293              		.thumb
 1294              		.thumb_func
 1295              		.type	_ZN3r2p10StaticListINS_5TopicEED2Ev, %function
 1296              	_ZN3r2p10StaticListINS_5TopicEED2Ev:
 1297              	.LFB624:
 1298              		.loc 13 15 0
 1299              		.cfi_startproc
 1300              		@ args = 0, pretend = 0, frame = 8
 1301              		@ frame_needed = 0, uses_anonymous_args = 0
 1302 0000 00B5     		push	{lr}
 1303              		.cfi_def_cfa_offset 4
 1304              		.cfi_offset 14, -4
 1305 0002 83B0     		sub	sp, sp, #12
 1306              		.cfi_def_cfa_offset 16
 1307 0004 0190     		str	r0, [sp, #4]
 1308              	.LBB16:
 1309              		.loc 13 15 0
 1310 0006 0198     		ldr	r0, [sp, #4]
 1311 0008 FFF7FEFF 		bl	_ZN3r2p10UncopyableD2Ev
 1312              	.LBE16:
 1313 000c 019B     		ldr	r3, [sp, #4]
 1314 000e 1846     		mov	r0, r3
 1315 0010 03B0     		add	sp, sp, #12
 1316              		.cfi_def_cfa_offset 4
 1317              		@ sp needed
 1318 0012 5DF804FB 		ldr	pc, [sp], #4
 1319              		.cfi_endproc
 1320              	.LFE624:
 1321              		.size	_ZN3r2p10StaticListINS_5TopicEED2Ev, .-_ZN3r2p10StaticListINS_5TopicEED2Ev
 1322              		.weak	_ZN3r2p10StaticListINS_5TopicEED1Ev
 1323              		.thumb_set _ZN3r2p10StaticListINS_5TopicEED1Ev,_ZN3r2p10StaticListINS_5TopicEED2Ev
 1324 0016 00BFAFF3 		.section	.text._ZN3r2p10StaticListINS_9TransportEED2Ev,"axG",%progbits,_ZN3r2p10StaticListINS_9Tra
 1324      0080AFF3 
ARM GAS  /tmp/cc596bob.s 			page 25


 1324      0080
 1325              		.align	2
 1326              		.p2align 4,,15
 1327              		.weak	_ZN3r2p10StaticListINS_9TransportEED2Ev
 1328              		.thumb
 1329              		.thumb_func
 1330              		.type	_ZN3r2p10StaticListINS_9TransportEED2Ev, %function
 1331              	_ZN3r2p10StaticListINS_9TransportEED2Ev:
 1332              	.LFB627:
 1333              		.loc 13 15 0
 1334              		.cfi_startproc
 1335              		@ args = 0, pretend = 0, frame = 8
 1336              		@ frame_needed = 0, uses_anonymous_args = 0
 1337 0000 00B5     		push	{lr}
 1338              		.cfi_def_cfa_offset 4
 1339              		.cfi_offset 14, -4
 1340 0002 83B0     		sub	sp, sp, #12
 1341              		.cfi_def_cfa_offset 16
 1342 0004 0190     		str	r0, [sp, #4]
 1343              	.LBB17:
 1344              		.loc 13 15 0
 1345 0006 0198     		ldr	r0, [sp, #4]
 1346 0008 FFF7FEFF 		bl	_ZN3r2p10UncopyableD2Ev
 1347              	.LBE17:
 1348 000c 019B     		ldr	r3, [sp, #4]
 1349 000e 1846     		mov	r0, r3
 1350 0010 03B0     		add	sp, sp, #12
 1351              		.cfi_def_cfa_offset 4
 1352              		@ sp needed
 1353 0012 5DF804FB 		ldr	pc, [sp], #4
 1354              		.cfi_endproc
 1355              	.LFE627:
 1356              		.size	_ZN3r2p10StaticListINS_9TransportEED2Ev, .-_ZN3r2p10StaticListINS_9TransportEED2Ev
 1357              		.weak	_ZN3r2p10StaticListINS_9TransportEED1Ev
 1358              		.thumb_set _ZN3r2p10StaticListINS_9TransportEED1Ev,_ZN3r2p10StaticListINS_9TransportEED2Ev
 1359 0016 00BFAFF3 		.section	.text._ZN3r2p7ReMutexD2Ev,"axG",%progbits,_ZN3r2p7ReMutexD5Ev,comdat
 1359      0080AFF3 
 1359      0080
 1360              		.align	2
 1361              		.p2align 4,,15
 1362              		.weak	_ZN3r2p7ReMutexD2Ev
 1363              		.thumb
 1364              		.thumb_func
 1365              		.type	_ZN3r2p7ReMutexD2Ev, %function
 1366              	_ZN3r2p7ReMutexD2Ev:
 1367              	.LFB630:
 1368              		.file 14 "/home/ergae/r2p-sdk/core/Middleware/include/r2p/ReMutex.hpp"
 1369              		.loc 14 9 0
 1370              		.cfi_startproc
 1371              		@ args = 0, pretend = 0, frame = 8
 1372              		@ frame_needed = 0, uses_anonymous_args = 0
 1373 0000 00B5     		push	{lr}
 1374              		.cfi_def_cfa_offset 4
 1375              		.cfi_offset 14, -4
 1376 0002 83B0     		sub	sp, sp, #12
 1377              		.cfi_def_cfa_offset 16
 1378 0004 0190     		str	r0, [sp, #4]
ARM GAS  /tmp/cc596bob.s 			page 26


 1379              	.LBB18:
 1380              		.loc 14 9 0
 1381 0006 019B     		ldr	r3, [sp, #4]
 1382 0008 0433     		adds	r3, r3, #4
 1383 000a 1846     		mov	r0, r3
 1384 000c FFF7FEFF 		bl	_ZN3r2p5MutexD1Ev
 1385 0010 0198     		ldr	r0, [sp, #4]
 1386 0012 FFF7FEFF 		bl	_ZN3r2p10UncopyableD2Ev
 1387              	.LBE18:
 1388 0016 019B     		ldr	r3, [sp, #4]
 1389 0018 1846     		mov	r0, r3
 1390 001a 03B0     		add	sp, sp, #12
 1391              		.cfi_def_cfa_offset 4
 1392              		@ sp needed
 1393 001c 5DF804FB 		ldr	pc, [sp], #4
 1394              		.cfi_endproc
 1395              	.LFE630:
 1396              		.size	_ZN3r2p7ReMutexD2Ev, .-_ZN3r2p7ReMutexD2Ev
 1397              		.weak	_ZN3r2p7ReMutexD1Ev
 1398              		.thumb_set _ZN3r2p7ReMutexD1Ev,_ZN3r2p7ReMutexD2Ev
 1399              		.section	.text._ZN3r2p11MemoryPool_D2Ev,"axG",%progbits,_ZN3r2p11MemoryPool_D5Ev,comdat
 1400              		.align	2
 1401              		.p2align 4,,15
 1402              		.weak	_ZN3r2p11MemoryPool_D2Ev
 1403              		.thumb
 1404              		.thumb_func
 1405              		.type	_ZN3r2p11MemoryPool_D2Ev, %function
 1406              	_ZN3r2p11MemoryPool_D2Ev:
 1407              	.LFB634:
 1408              		.file 15 "/home/ergae/r2p-sdk/core/Middleware/port/chibios/include/r2p/impl/MemoryPool_.hpp"
 1409              		.loc 15 9 0
 1410              		.cfi_startproc
 1411              		@ args = 0, pretend = 0, frame = 8
 1412              		@ frame_needed = 0, uses_anonymous_args = 0
 1413 0000 00B5     		push	{lr}
 1414              		.cfi_def_cfa_offset 4
 1415              		.cfi_offset 14, -4
 1416 0002 83B0     		sub	sp, sp, #12
 1417              		.cfi_def_cfa_offset 16
 1418 0004 0190     		str	r0, [sp, #4]
 1419              	.LBB19:
 1420              		.loc 15 9 0
 1421 0006 0198     		ldr	r0, [sp, #4]
 1422 0008 FFF7FEFF 		bl	_ZN3r2p10UncopyableD2Ev
 1423              	.LBE19:
 1424 000c 019B     		ldr	r3, [sp, #4]
 1425 000e 1846     		mov	r0, r3
 1426 0010 03B0     		add	sp, sp, #12
 1427              		.cfi_def_cfa_offset 4
 1428              		@ sp needed
 1429 0012 5DF804FB 		ldr	pc, [sp], #4
 1430              		.cfi_endproc
 1431              	.LFE634:
 1432              		.size	_ZN3r2p11MemoryPool_D2Ev, .-_ZN3r2p11MemoryPool_D2Ev
 1433              		.weak	_ZN3r2p11MemoryPool_D1Ev
 1434              		.thumb_set _ZN3r2p11MemoryPool_D1Ev,_ZN3r2p11MemoryPool_D2Ev
 1435 0016 00BFAFF3 		.section	.text._ZN3r2p10StaticListINS_15LocalSubscriberEED2Ev,"axG",%progbits,_ZN3r2p10StaticListI
ARM GAS  /tmp/cc596bob.s 			page 27


 1435      0080AFF3 
 1435      0080
 1436              		.align	2
 1437              		.p2align 4,,15
 1438              		.weak	_ZN3r2p10StaticListINS_15LocalSubscriberEED2Ev
 1439              		.thumb
 1440              		.thumb_func
 1441              		.type	_ZN3r2p10StaticListINS_15LocalSubscriberEED2Ev, %function
 1442              	_ZN3r2p10StaticListINS_15LocalSubscriberEED2Ev:
 1443              	.LFB637:
 1444              		.loc 13 15 0
 1445              		.cfi_startproc
 1446              		@ args = 0, pretend = 0, frame = 8
 1447              		@ frame_needed = 0, uses_anonymous_args = 0
 1448 0000 00B5     		push	{lr}
 1449              		.cfi_def_cfa_offset 4
 1450              		.cfi_offset 14, -4
 1451 0002 83B0     		sub	sp, sp, #12
 1452              		.cfi_def_cfa_offset 16
 1453 0004 0190     		str	r0, [sp, #4]
 1454              	.LBB20:
 1455              		.loc 13 15 0
 1456 0006 0198     		ldr	r0, [sp, #4]
 1457 0008 FFF7FEFF 		bl	_ZN3r2p10UncopyableD2Ev
 1458              	.LBE20:
 1459 000c 019B     		ldr	r3, [sp, #4]
 1460 000e 1846     		mov	r0, r3
 1461 0010 03B0     		add	sp, sp, #12
 1462              		.cfi_def_cfa_offset 4
 1463              		@ sp needed
 1464 0012 5DF804FB 		ldr	pc, [sp], #4
 1465              		.cfi_endproc
 1466              	.LFE637:
 1467              		.size	_ZN3r2p10StaticListINS_15LocalSubscriberEED2Ev, .-_ZN3r2p10StaticListINS_15LocalSubscriberEE
 1468              		.weak	_ZN3r2p10StaticListINS_15LocalSubscriberEED1Ev
 1469              		.thumb_set _ZN3r2p10StaticListINS_15LocalSubscriberEED1Ev,_ZN3r2p10StaticListINS_15LocalSubscriber
 1470 0016 00BFAFF3 		.section	.text._ZN3r2p10StaticListINS_16RemoteSubscriberEED2Ev,"axG",%progbits,_ZN3r2p10StaticList
 1470      0080AFF3 
 1470      0080
 1471              		.align	2
 1472              		.p2align 4,,15
 1473              		.weak	_ZN3r2p10StaticListINS_16RemoteSubscriberEED2Ev
 1474              		.thumb
 1475              		.thumb_func
 1476              		.type	_ZN3r2p10StaticListINS_16RemoteSubscriberEED2Ev, %function
 1477              	_ZN3r2p10StaticListINS_16RemoteSubscriberEED2Ev:
 1478              	.LFB640:
 1479              		.loc 13 15 0
 1480              		.cfi_startproc
 1481              		@ args = 0, pretend = 0, frame = 8
 1482              		@ frame_needed = 0, uses_anonymous_args = 0
 1483 0000 00B5     		push	{lr}
 1484              		.cfi_def_cfa_offset 4
 1485              		.cfi_offset 14, -4
 1486 0002 83B0     		sub	sp, sp, #12
 1487              		.cfi_def_cfa_offset 16
 1488 0004 0190     		str	r0, [sp, #4]
ARM GAS  /tmp/cc596bob.s 			page 28


 1489              	.LBB21:
 1490              		.loc 13 15 0
 1491 0006 0198     		ldr	r0, [sp, #4]
 1492 0008 FFF7FEFF 		bl	_ZN3r2p10UncopyableD2Ev
 1493              	.LBE21:
 1494 000c 019B     		ldr	r3, [sp, #4]
 1495 000e 1846     		mov	r0, r3
 1496 0010 03B0     		add	sp, sp, #12
 1497              		.cfi_def_cfa_offset 4
 1498              		@ sp needed
 1499 0012 5DF804FB 		ldr	pc, [sp], #4
 1500              		.cfi_endproc
 1501              	.LFE640:
 1502              		.size	_ZN3r2p10StaticListINS_16RemoteSubscriberEED2Ev, .-_ZN3r2p10StaticListINS_16RemoteSubscriber
 1503              		.weak	_ZN3r2p10StaticListINS_16RemoteSubscriberEED1Ev
 1504              		.thumb_set _ZN3r2p10StaticListINS_16RemoteSubscriberEED1Ev,_ZN3r2p10StaticListINS_16RemoteSubscrib
 1505 0016 00BFAFF3 		.section	.text._ZN3r2p5TopicD2Ev,"axG",%progbits,_ZN3r2p5TopicD5Ev,comdat
 1505      0080AFF3 
 1505      0080
 1506              		.align	2
 1507              		.p2align 4,,15
 1508              		.weak	_ZN3r2p5TopicD2Ev
 1509              		.thumb
 1510              		.thumb_func
 1511              		.type	_ZN3r2p5TopicD2Ev, %function
 1512              	_ZN3r2p5TopicD2Ev:
 1513              	.LFB642:
 1514              		.file 16 "/home/ergae/r2p-sdk/core/Middleware/include/r2p/Topic.hpp"
 1515              		.loc 16 23 0
 1516              		.cfi_startproc
 1517              		@ args = 0, pretend = 0, frame = 8
 1518              		@ frame_needed = 0, uses_anonymous_args = 0
 1519 0000 00B5     		push	{lr}
 1520              		.cfi_def_cfa_offset 4
 1521              		.cfi_offset 14, -4
 1522 0002 83B0     		sub	sp, sp, #12
 1523              		.cfi_def_cfa_offset 16
 1524 0004 0190     		str	r0, [sp, #4]
 1525              	.LBB22:
 1526              		.loc 16 23 0
 1527 0006 019B     		ldr	r3, [sp, #4]
 1528 0008 2033     		adds	r3, r3, #32
 1529 000a 1846     		mov	r0, r3
 1530 000c FFF7FEFF 		bl	_ZN3r2p10StaticListINS_16RemoteSubscriberEED1Ev
 1531 0010 019B     		ldr	r3, [sp, #4]
 1532 0012 1C33     		adds	r3, r3, #28
 1533 0014 1846     		mov	r0, r3
 1534 0016 FFF7FEFF 		bl	_ZN3r2p10StaticListINS_15LocalSubscriberEED1Ev
 1535 001a 019B     		ldr	r3, [sp, #4]
 1536 001c 0833     		adds	r3, r3, #8
 1537 001e 1846     		mov	r0, r3
 1538 0020 FFF7FEFF 		bl	_ZN3r2p11MemoryPool_D1Ev
 1539 0024 0198     		ldr	r0, [sp, #4]
 1540 0026 FFF7FEFF 		bl	_ZN3r2p10UncopyableD2Ev
 1541              	.LBE22:
 1542 002a 019B     		ldr	r3, [sp, #4]
 1543 002c 1846     		mov	r0, r3
ARM GAS  /tmp/cc596bob.s 			page 29


 1544 002e 03B0     		add	sp, sp, #12
 1545              		.cfi_def_cfa_offset 4
 1546              		@ sp needed
 1547 0030 5DF804FB 		ldr	pc, [sp], #4
 1548              		.cfi_endproc
 1549              	.LFE642:
 1550              		.size	_ZN3r2p5TopicD2Ev, .-_ZN3r2p5TopicD2Ev
 1551              		.weak	_ZN3r2p5TopicD1Ev
 1552              		.thumb_set _ZN3r2p5TopicD1Ev,_ZN3r2p5TopicD2Ev
 1553 0034 AFF30080 		.section	.text._ZN3r2p10MiddlewareD2Ev,"axG",%progbits,_ZN3r2p10MiddlewareD5Ev,comdat
 1553      AFF30080 
 1553      AFF30080 
 1554              		.align	2
 1555              		.p2align 4,,15
 1556              		.weak	_ZN3r2p10MiddlewareD2Ev
 1557              		.thumb
 1558              		.thumb_func
 1559              		.type	_ZN3r2p10MiddlewareD2Ev, %function
 1560              	_ZN3r2p10MiddlewareD2Ev:
 1561              	.LFB644:
 1562              		.file 17 "/home/ergae/r2p-sdk/core/Middleware/include/r2p/Middleware.hpp"
 1563              		.loc 17 34 0
 1564              		.cfi_startproc
 1565              		@ args = 0, pretend = 0, frame = 8
 1566              		@ frame_needed = 0, uses_anonymous_args = 0
 1567 0000 00B5     		push	{lr}
 1568              		.cfi_def_cfa_offset 4
 1569              		.cfi_offset 14, -4
 1570 0002 83B0     		sub	sp, sp, #12
 1571              		.cfi_def_cfa_offset 16
 1572 0004 0190     		str	r0, [sp, #4]
 1573              	.LBB23:
 1574              		.loc 17 34 0
 1575 0006 019B     		ldr	r3, [sp, #4]
 1576 0008 9433     		adds	r3, r3, #148
 1577 000a 1846     		mov	r0, r3
 1578 000c FFF7FEFF 		bl	_ZN3r2p16SubscriberExtBufINS_7MgmtMsgEED1Ev
 1579 0010 019B     		ldr	r3, [sp, #4]
 1580 0012 8433     		adds	r3, r3, #132
 1581 0014 1846     		mov	r0, r3
 1582 0016 FFF7FEFF 		bl	_ZN3r2p9PublisherINS_7MgmtMsgEED1Ev
 1583 001a 019B     		ldr	r3, [sp, #4]
 1584 001c 6833     		adds	r3, r3, #104
 1585 001e 1846     		mov	r0, r3
 1586 0020 FFF7FEFF 		bl	_ZN3r2p4NodeD1Ev
 1587 0024 019B     		ldr	r3, [sp, #4]
 1588 0026 2833     		adds	r3, r3, #40
 1589 0028 1846     		mov	r0, r3
 1590 002a FFF7FEFF 		bl	_ZN3r2p5TopicD1Ev
 1591 002e 019B     		ldr	r3, [sp, #4]
 1592 0030 1033     		adds	r3, r3, #16
 1593 0032 1846     		mov	r0, r3
 1594 0034 FFF7FEFF 		bl	_ZN3r2p7ReMutexD1Ev
 1595 0038 019B     		ldr	r3, [sp, #4]
 1596 003a 0C33     		adds	r3, r3, #12
 1597 003c 1846     		mov	r0, r3
 1598 003e FFF7FEFF 		bl	_ZN3r2p10StaticListINS_9TransportEED1Ev
ARM GAS  /tmp/cc596bob.s 			page 30


 1599 0042 019B     		ldr	r3, [sp, #4]
 1600 0044 0833     		adds	r3, r3, #8
 1601 0046 1846     		mov	r0, r3
 1602 0048 FFF7FEFF 		bl	_ZN3r2p10StaticListINS_5TopicEED1Ev
 1603 004c 019B     		ldr	r3, [sp, #4]
 1604 004e 0433     		adds	r3, r3, #4
 1605 0050 1846     		mov	r0, r3
 1606 0052 FFF7FEFF 		bl	_ZN3r2p10StaticListINS_4NodeEED1Ev
 1607 0056 0198     		ldr	r0, [sp, #4]
 1608 0058 FFF7FEFF 		bl	_ZN3r2p10UncopyableD2Ev
 1609              	.LBE23:
 1610 005c 019B     		ldr	r3, [sp, #4]
 1611 005e 1846     		mov	r0, r3
 1612 0060 03B0     		add	sp, sp, #12
 1613              		.cfi_def_cfa_offset 4
 1614              		@ sp needed
 1615 0062 5DF804FB 		ldr	pc, [sp], #4
 1616              		.cfi_endproc
 1617              	.LFE644:
 1618              		.size	_ZN3r2p10MiddlewareD2Ev, .-_ZN3r2p10MiddlewareD2Ev
 1619              		.weak	_ZN3r2p10MiddlewareD1Ev
 1620              		.thumb_set _ZN3r2p10MiddlewareD1Ev,_ZN3r2p10MiddlewareD2Ev
 1621 0066 00BFAFF3 		.section	.rodata
 1621      0080AFF3 
 1621      0080
 1622              		.align	2
 1623              	.LC4:
 1624 001c 75736200 		.ascii	"usb\000"
 1625              		.align	2
 1626              	.LC5:
 1627 0020 424F4F54 		.ascii	"BOOT_usb\000"
 1627      5F757362 
 1627      00
 1628 0029 000000   		.section	.text._Z41__static_initialization_and_destruction_0ii,"ax",%progbits
 1629              		.align	2
 1630              		.p2align 4,,15
 1631              		.thumb
 1632              		.thumb_func
 1633              		.type	_Z41__static_initialization_and_destruction_0ii, %function
 1634              	_Z41__static_initialization_and_destruction_0ii:
 1635              	.LFB618:
 1636              		.loc 11 51 0
 1637              		.cfi_startproc
 1638              		@ args = 0, pretend = 0, frame = 8
 1639              		@ frame_needed = 0, uses_anonymous_args = 0
 1640 0000 00B5     		push	{lr}
 1641              		.cfi_def_cfa_offset 4
 1642              		.cfi_offset 14, -4
 1643 0002 85B0     		sub	sp, sp, #20
 1644              		.cfi_def_cfa_offset 24
 1645 0004 0390     		str	r0, [sp, #12]
 1646 0006 0291     		str	r1, [sp, #8]
 1647              		.loc 11 51 0
 1648 0008 039B     		ldr	r3, [sp, #12]
 1649 000a 012B     		cmp	r3, #1
 1650 000c 1AD1     		bne	.L98
 1651              		.loc 11 51 0 is_stmt 0 discriminator 1
ARM GAS  /tmp/cc596bob.s 			page 31


 1652 000e 029B     		ldr	r3, [sp, #8]
 1653 0010 4FF6FF72 		movw	r2, #65535
 1654 0014 9342     		cmp	r3, r2
 1655 0016 15D1     		bne	.L98
 1656              		.loc 11 16 0 is_stmt 1
 1657 0018 0C48     		ldr	r0, .L100
 1658 001a 0D49     		ldr	r1, .L100+4
 1659 001c FFF7FEFF 		bl	_ZN3r2p14RTCANTransportC1ER11RTCANDriver
 1660 0020 0A48     		ldr	r0, .L100
 1661 0022 0C49     		ldr	r1, .L100+8
 1662 0024 0C4A     		ldr	r2, .L100+12
 1663 0026 FFF7FEFF 		bl	__aeabi_atexit
 1664              		.loc 11 20 0
 1665 002a 0023     		movs	r3, #0
 1666 002c 0093     		str	r3, [sp]
 1667 002e 0B48     		ldr	r0, .L100+16
 1668 0030 0B49     		ldr	r1, .L100+20
 1669 0032 0C4A     		ldr	r2, .L100+24
 1670 0034 0023     		movs	r3, #0
 1671 0036 FFF7FEFF 		bl	_ZN3r2p10MiddlewareC1EPKcS2_PNS0_10PubSubStepEj
 1672 003a 0848     		ldr	r0, .L100+16
 1673 003c 0A49     		ldr	r1, .L100+28
 1674 003e 064A     		ldr	r2, .L100+12
 1675 0040 FFF7FEFF 		bl	__aeabi_atexit
 1676              	.L98:
 1677              		.loc 11 51 0
 1678 0044 05B0     		add	sp, sp, #20
 1679              		.cfi_def_cfa_offset 4
 1680              		@ sp needed
 1681 0046 5DF804FB 		ldr	pc, [sp], #4
 1682              	.L101:
 1683 004a 00BF     		.align	2
 1684              	.L100:
 1685 004c 00000000 		.word	_ZL8rtcantra
 1686 0050 00000000 		.word	RTCAND1
 1687 0054 00000000 		.word	_ZN3r2p14RTCANTransportD1Ev
 1688 0058 00000000 		.word	__dso_handle
 1689 005c 00000000 		.word	_ZN3r2p10Middleware8instanceE
 1690 0060 1C000000 		.word	.LC4
 1691 0064 20000000 		.word	.LC5
 1692 0068 00000000 		.word	_ZN3r2p10MiddlewareD1Ev
 1693              		.cfi_endproc
 1694              	.LFE618:
 1695              		.size	_Z41__static_initialization_and_destruction_0ii, .-_Z41__static_initialization_and_destructi
 1696 006c AFF30080 		.section	.text._ZN3r2p9PublisherINS_7MgmtMsgEED2Ev,"axG",%progbits,_ZN3r2p9PublisherINS_7MgmtMsgEE
 1697              		.align	2
 1698              		.p2align 4,,15
 1699              		.weak	_ZN3r2p9PublisherINS_7MgmtMsgEED2Ev
 1700              		.thumb
 1701              		.thumb_func
 1702              		.type	_ZN3r2p9PublisherINS_7MgmtMsgEED2Ev, %function
 1703              	_ZN3r2p9PublisherINS_7MgmtMsgEED2Ev:
 1704              	.LFB647:
 1705              		.file 18 "/home/ergae/r2p-sdk/core/Middleware/include/r2p/Publisher.hpp"
 1706              		.loc 18 54 0
 1707              		.cfi_startproc
 1708              		@ args = 0, pretend = 0, frame = 8
ARM GAS  /tmp/cc596bob.s 			page 32


 1709              		@ frame_needed = 0, uses_anonymous_args = 0
 1710 0000 00B5     		push	{lr}
 1711              		.cfi_def_cfa_offset 4
 1712              		.cfi_offset 14, -4
 1713 0002 83B0     		sub	sp, sp, #12
 1714              		.cfi_def_cfa_offset 16
 1715 0004 0190     		str	r0, [sp, #4]
 1716              	.LBB24:
 1717              		.loc 18 57 0
 1718 0006 019B     		ldr	r3, [sp, #4]
 1719 0008 084A     		ldr	r2, .L106
 1720 000a 1A60     		str	r2, [r3]
 1721 000c 019B     		ldr	r3, [sp, #4]
 1722 000e 1846     		mov	r0, r3
 1723 0010 FFF7FEFF 		bl	_ZN3r2p14LocalPublisherD2Ev
 1724              	.LBE24:
 1725 0014 0023     		movs	r3, #0
 1726 0016 002B     		cmp	r3, #0
 1727 0018 02D0     		beq	.L104
 1728              		.loc 18 57 0 is_stmt 0 discriminator 2
 1729 001a 0198     		ldr	r0, [sp, #4]
 1730 001c FFF7FEFF 		bl	_ZdlPv
 1731              	.L104:
 1732              		.loc 18 57 0 discriminator 4
 1733 0020 019B     		ldr	r3, [sp, #4]
 1734 0022 1846     		mov	r0, r3
 1735 0024 03B0     		add	sp, sp, #12
 1736              		.cfi_def_cfa_offset 4
 1737              		@ sp needed
 1738 0026 5DF804FB 		ldr	pc, [sp], #4
 1739              	.L107:
 1740 002a 00BF     		.align	2
 1741              	.L106:
 1742 002c 08000000 		.word	_ZTVN3r2p9PublisherINS_7MgmtMsgEEE+8
 1743              		.cfi_endproc
 1744              	.LFE647:
 1745              		.size	_ZN3r2p9PublisherINS_7MgmtMsgEED2Ev, .-_ZN3r2p9PublisherINS_7MgmtMsgEED2Ev
 1746              		.weak	_ZN3r2p9PublisherINS_7MgmtMsgEED1Ev
 1747              		.thumb_set _ZN3r2p9PublisherINS_7MgmtMsgEED1Ev,_ZN3r2p9PublisherINS_7MgmtMsgEED2Ev
 1748              		.section	.text._ZN3r2p9PublisherINS_7MgmtMsgEED0Ev,"axG",%progbits,_ZN3r2p9PublisherINS_7MgmtMsgEE
 1749              		.align	2
 1750              		.p2align 4,,15
 1751              		.weak	_ZN3r2p9PublisherINS_7MgmtMsgEED0Ev
 1752              		.thumb
 1753              		.thumb_func
 1754              		.type	_ZN3r2p9PublisherINS_7MgmtMsgEED0Ev, %function
 1755              	_ZN3r2p9PublisherINS_7MgmtMsgEED0Ev:
 1756              	.LFB649:
 1757              		.loc 18 54 0 is_stmt 1
 1758              		.cfi_startproc
 1759              		@ args = 0, pretend = 0, frame = 8
 1760              		@ frame_needed = 0, uses_anonymous_args = 0
 1761 0000 00B5     		push	{lr}
 1762              		.cfi_def_cfa_offset 4
 1763              		.cfi_offset 14, -4
 1764 0002 83B0     		sub	sp, sp, #12
 1765              		.cfi_def_cfa_offset 16
ARM GAS  /tmp/cc596bob.s 			page 33


 1766 0004 0190     		str	r0, [sp, #4]
 1767              		.loc 18 57 0
 1768 0006 0198     		ldr	r0, [sp, #4]
 1769 0008 FFF7FEFF 		bl	_ZN3r2p9PublisherINS_7MgmtMsgEED1Ev
 1770 000c 0198     		ldr	r0, [sp, #4]
 1771 000e FFF7FEFF 		bl	_ZdlPv
 1772 0012 019B     		ldr	r3, [sp, #4]
 1773 0014 1846     		mov	r0, r3
 1774 0016 03B0     		add	sp, sp, #12
 1775              		.cfi_def_cfa_offset 4
 1776              		@ sp needed
 1777 0018 5DF804FB 		ldr	pc, [sp], #4
 1778              		.cfi_endproc
 1779              	.LFE649:
 1780              		.size	_ZN3r2p9PublisherINS_7MgmtMsgEED0Ev, .-_ZN3r2p9PublisherINS_7MgmtMsgEED0Ev
 1781 001c AFF30080 		.section	.text._ZN3r2p16SubscriberExtBufINS_7MgmtMsgEED2Ev,"axG",%progbits,_ZN3r2p16SubscriberExtB
 1782              		.align	2
 1783              		.p2align 4,,15
 1784              		.weak	_ZN3r2p16SubscriberExtBufINS_7MgmtMsgEED2Ev
 1785              		.thumb
 1786              		.thumb_func
 1787              		.type	_ZN3r2p16SubscriberExtBufINS_7MgmtMsgEED2Ev, %function
 1788              	_ZN3r2p16SubscriberExtBufINS_7MgmtMsgEED2Ev:
 1789              	.LFB651:
 1790              		.file 19 "/home/ergae/r2p-sdk/core/Middleware/include/r2p/SubscriberExtBuf.hpp"
 1791              		.loc 19 76 0
 1792              		.cfi_startproc
 1793              		@ args = 0, pretend = 0, frame = 8
 1794              		@ frame_needed = 0, uses_anonymous_args = 0
 1795 0000 00B5     		push	{lr}
 1796              		.cfi_def_cfa_offset 4
 1797              		.cfi_offset 14, -4
 1798 0002 83B0     		sub	sp, sp, #12
 1799              		.cfi_def_cfa_offset 16
 1800 0004 0190     		str	r0, [sp, #4]
 1801              	.LBB25:
 1802              		.loc 19 79 0
 1803 0006 019B     		ldr	r3, [sp, #4]
 1804 0008 084A     		ldr	r2, .L115
 1805 000a 1A60     		str	r2, [r3]
 1806 000c 019B     		ldr	r3, [sp, #4]
 1807 000e 1846     		mov	r0, r3
 1808 0010 FFF7FEFF 		bl	_ZN3r2p15LocalSubscriberD2Ev
 1809              	.LBE25:
 1810 0014 0023     		movs	r3, #0
 1811 0016 002B     		cmp	r3, #0
 1812 0018 02D0     		beq	.L113
 1813              		.loc 19 79 0 is_stmt 0 discriminator 2
 1814 001a 0198     		ldr	r0, [sp, #4]
 1815 001c FFF7FEFF 		bl	_ZdlPv
 1816              	.L113:
 1817              		.loc 19 79 0 discriminator 4
 1818 0020 019B     		ldr	r3, [sp, #4]
 1819 0022 1846     		mov	r0, r3
 1820 0024 03B0     		add	sp, sp, #12
 1821              		.cfi_def_cfa_offset 4
 1822              		@ sp needed
ARM GAS  /tmp/cc596bob.s 			page 34


 1823 0026 5DF804FB 		ldr	pc, [sp], #4
 1824              	.L116:
 1825 002a 00BF     		.align	2
 1826              	.L115:
 1827 002c 08000000 		.word	_ZTVN3r2p16SubscriberExtBufINS_7MgmtMsgEEE+8
 1828              		.cfi_endproc
 1829              	.LFE651:
 1830              		.size	_ZN3r2p16SubscriberExtBufINS_7MgmtMsgEED2Ev, .-_ZN3r2p16SubscriberExtBufINS_7MgmtMsgEED2Ev
 1831              		.weak	_ZN3r2p16SubscriberExtBufINS_7MgmtMsgEED1Ev
 1832              		.thumb_set _ZN3r2p16SubscriberExtBufINS_7MgmtMsgEED1Ev,_ZN3r2p16SubscriberExtBufINS_7MgmtMsgEED2Ev
 1833              		.section	.text._ZN3r2p16SubscriberExtBufINS_7MgmtMsgEED0Ev,"axG",%progbits,_ZN3r2p16SubscriberExtB
 1834              		.align	2
 1835              		.p2align 4,,15
 1836              		.weak	_ZN3r2p16SubscriberExtBufINS_7MgmtMsgEED0Ev
 1837              		.thumb
 1838              		.thumb_func
 1839              		.type	_ZN3r2p16SubscriberExtBufINS_7MgmtMsgEED0Ev, %function
 1840              	_ZN3r2p16SubscriberExtBufINS_7MgmtMsgEED0Ev:
 1841              	.LFB653:
 1842              		.loc 19 76 0 is_stmt 1
 1843              		.cfi_startproc
 1844              		@ args = 0, pretend = 0, frame = 8
 1845              		@ frame_needed = 0, uses_anonymous_args = 0
 1846 0000 00B5     		push	{lr}
 1847              		.cfi_def_cfa_offset 4
 1848              		.cfi_offset 14, -4
 1849 0002 83B0     		sub	sp, sp, #12
 1850              		.cfi_def_cfa_offset 16
 1851 0004 0190     		str	r0, [sp, #4]
 1852              		.loc 19 79 0
 1853 0006 0198     		ldr	r0, [sp, #4]
 1854 0008 FFF7FEFF 		bl	_ZN3r2p16SubscriberExtBufINS_7MgmtMsgEED1Ev
 1855 000c 0198     		ldr	r0, [sp, #4]
 1856 000e FFF7FEFF 		bl	_ZdlPv
 1857 0012 019B     		ldr	r3, [sp, #4]
 1858 0014 1846     		mov	r0, r3
 1859 0016 03B0     		add	sp, sp, #12
 1860              		.cfi_def_cfa_offset 4
 1861              		@ sp needed
 1862 0018 5DF804FB 		ldr	pc, [sp], #4
 1863              		.cfi_endproc
 1864              	.LFE653:
 1865              		.size	_ZN3r2p16SubscriberExtBufINS_7MgmtMsgEED0Ev, .-_ZN3r2p16SubscriberExtBufINS_7MgmtMsgEED0Ev
 1866 001c AFF30080 		.section	.text._GLOBAL__sub_I_rtcan_config,"ax",%progbits
 1867              		.align	2
 1868              		.p2align 4,,15
 1869              		.thumb
 1870              		.thumb_func
 1871              		.type	_GLOBAL__sub_I_rtcan_config, %function
 1872              	_GLOBAL__sub_I_rtcan_config:
 1873              	.LFB655:
 1874              		.loc 11 51 0
 1875              		.cfi_startproc
 1876              		@ args = 0, pretend = 0, frame = 0
 1877              		@ frame_needed = 0, uses_anonymous_args = 0
 1878 0000 08B5     		push	{r3, lr}
 1879              		.cfi_def_cfa_offset 8
ARM GAS  /tmp/cc596bob.s 			page 35


 1880              		.cfi_offset 3, -8
 1881              		.cfi_offset 14, -4
 1882              		.loc 11 51 0
 1883 0002 0120     		movs	r0, #1
 1884 0004 4FF6FF71 		movw	r1, #65535
 1885 0008 FFF7FEFF 		bl	_Z41__static_initialization_and_destruction_0ii
 1886 000c 08BD     		pop	{r3, pc}
 1887              		.cfi_endproc
 1888              	.LFE655:
 1889              		.size	_GLOBAL__sub_I_rtcan_config, .-_GLOBAL__sub_I_rtcan_config
 1890 000e 00BF     		.section	.init_array,"aw",%init_array
 1891              		.align	2
 1892 0000 00000000 		.word	_GLOBAL__sub_I_rtcan_config(target1)
 1893              		.text
 1894              	.Letext0:
 1895              		.file 20 "/home/ergae/r2p-sdk/tools/gcc-arm-none-eabi-4_9-2014q4/arm-none-eabi/include/machine/_de
 1896              		.file 21 "/home/ergae/r2p-sdk/tools/gcc-arm-none-eabi-4_9-2014q4/arm-none-eabi/include/stdint.h"
 1897              		.file 22 "/home/ergae/r2p-sdk/tools/gcc-arm-none-eabi-4_9-2014q4/lib/gcc/arm-none-eabi/4.9.3/inclu
 1898              		.file 23 "/home/ergae/r2p-sdk/core/ChibiOS/os/ports/GCC/ARMCMx/chtypes.h"
 1899              		.file 24 "/home/ergae/r2p-sdk/core/ChibiOS/os/kernel/include/chlists.h"
 1900              		.file 25 "/home/ergae/r2p-sdk/core/ChibiOS/os/kernel/include/chthreads.h"
 1901              		.file 26 "/home/ergae/r2p-sdk/core/ChibiOS/os/ports/GCC/ARMCMx/chcore_v7m.h"
 1902              		.file 27 "/home/ergae/r2p-sdk/core/ChibiOS/os/kernel/include/chschd.h"
 1903              		.file 28 "/home/ergae/r2p-sdk/core/ChibiOS/os/kernel/include/chmtx.h"
 1904              		.file 29 "/home/ergae/r2p-sdk/core/ChibiOS/os/kernel/include/chmemcore.h"
 1905              		.file 30 "/home/ergae/r2p-sdk/core/ChibiOS/os/kernel/include/chheap.h"
 1906              		.file 31 "/home/ergae/r2p-sdk/core/ChibiOS/os/kernel/include/chmempools.h"
 1907              		.file 32 "/home/ergae/r2p-sdk/core/ChibiOS/os/hal/platforms/STM32F30x/stm32f30x.h"
 1908              		.file 33 "/home/ergae/r2p-sdk/tools/gcc-arm-none-eabi-4_9-2014q4/arm-none-eabi/include/c++/4.9.3/c
 1909              		.file 34 "/home/ergae/r2p-sdk/tools/gcc-arm-none-eabi-4_9-2014q4/arm-none-eabi/include/string.h"
 1910              		.file 35 "<built-in>"
 1911              		.file 36 "/home/ergae/r2p-sdk/core/Middleware/include/r2p/NamingTraits.hpp"
 1912              		.file 37 "/home/ergae/r2p-sdk/core/Middleware/include/r2p/Message.hpp"
 1913              		.file 38 "/home/ergae/r2p-sdk/core/Middleware/include/r2p/LocalPublisher.hpp"
 1914              		.file 39 "/home/ergae/r2p-sdk/core/Middleware/include/r2p/MgmtMsg.hpp"
 1915              		.file 40 "/home/ergae/r2p-sdk/core/Middleware/include/r2p/BootMsg.hpp"
 1916              		.file 41 "/home/ergae/r2p-sdk/core/Middleware/include/r2p/BaseSubscriber.hpp"
 1917              		.file 42 "/home/ergae/r2p-sdk/core/Middleware/include/r2p/transport/DebugTransport.hpp"
 1918              		.file 43 "/home/ergae/r2p-sdk/core/Middleware/include/r2p/transport/RTCANTransport.hpp"
 1919              		.file 44 "/home/ergae/r2p-sdk/core/Middleware/include/r2p/node/led.hpp"
 1920              		.file 45 "/home/ergae/r2p-sdk/core/Middleware/include/r2p/BasePublisher.hpp"
 1921              		.file 46 "/home/ergae/r2p-sdk/core/RTCAN/include/rtcan.h"
 1922              		.file 47 "/home/ergae/r2p-sdk/core/RTCAN/include/msgqueue.h"
 1923              		.file 48 "/home/ergae/r2p-sdk/core/RTCAN/include/hrt.h"
 1924              		.file 49 "/home/ergae/r2p-sdk/core/Middleware/include/r2p/common.hpp"
 1925              		.file 50 "/home/ergae/r2p-sdk/core/ChibiOS/os/ports/common/ARMCMx/CMSIS/include/core_cm4.h"
 1926              		.file 51 "/home/ergae/r2p-sdk/core/RTCAN/platforms/STM32/rtcan_lld_can.h"