ARM GAS  /tmp/cc1fXCOG.s 			page 1


   1              		.syntax unified
   2              		.cpu cortex-m4
   3              		.eabi_attribute 27, 3
   4              		.eabi_attribute 28, 1
   5              		.fpu fpv4-sp-d16
   6              		.eabi_attribute 20, 1
   7              		.eabi_attribute 21, 1
   8              		.eabi_attribute 23, 3
   9              		.eabi_attribute 24, 1
  10              		.eabi_attribute 25, 1
  11              		.eabi_attribute 26, 1
  12              		.eabi_attribute 30, 6
  13              		.eabi_attribute 34, 1
  14              		.eabi_attribute 18, 4
  15              		.thumb
  16              		.file	"MessagePtrQueue.cpp"
  17              		.text
  18              	.Ltext0:
  19              		.cfi_sections	.debug_frame
  20              		.section	.text._ZN3r2p10UncopyableC2Ev,"axG",%progbits,_ZN3r2p10UncopyableC5Ev,comdat
  21              		.align	2
  22              		.p2align 4,,15
  23              		.weak	_ZN3r2p10UncopyableC2Ev
  24              		.thumb
  25              		.thumb_func
  26              		.type	_ZN3r2p10UncopyableC2Ev, %function
  27              	_ZN3r2p10UncopyableC2Ev:
  28              	.LFB6:
  29              		.file 1 "/home/ergae/r2p-sdk/core/Middleware/include/r2p/Uncopyable.hpp"
  30              		.loc 1 20 0
  31              		.cfi_startproc
  32              		@ args = 0, pretend = 0, frame = 8
  33              		@ frame_needed = 0, uses_anonymous_args = 0
  34              		@ link register save eliminated.
  35 0000 82B0     		sub	sp, sp, #8
  36              		.cfi_def_cfa_offset 8
  37 0002 0190     		str	r0, [sp, #4]
  38              		.loc 1 20 0
  39 0004 019B     		ldr	r3, [sp, #4]
  40 0006 1846     		mov	r0, r3
  41 0008 02B0     		add	sp, sp, #8
  42              		.cfi_def_cfa_offset 0
  43              		@ sp needed
  44 000a 7047     		bx	lr
  45              		.cfi_endproc
  46              	.LFE6:
  47              		.size	_ZN3r2p10UncopyableC2Ev, .-_ZN3r2p10UncopyableC2Ev
  48              		.weak	_ZN3r2p10UncopyableC1Ev
  49              		.thumb_set _ZN3r2p10UncopyableC1Ev,_ZN3r2p10UncopyableC2Ev
  50 000c AFF30080 		.section	.text._ZN3r2p15MessagePtrQueueC2EPPNS_7MessageEj,"ax",%progbits
  51              		.align	2
  52              		.p2align 4,,15
  53              		.global	_ZN3r2p15MessagePtrQueueC2EPPNS_7MessageEj
  54              		.thumb
  55              		.thumb_func
  56              		.type	_ZN3r2p15MessagePtrQueueC2EPPNS_7MessageEj, %function
  57              	_ZN3r2p15MessagePtrQueueC2EPPNS_7MessageEj:
ARM GAS  /tmp/cc1fXCOG.s 			page 2


  58              	.LFB49:
  59              		.file 2 "/home/ergae/r2p-sdk/core/Middleware/src/MessagePtrQueue.cpp"
  60              		.loc 2 7 0
  61              		.cfi_startproc
  62              		@ args = 0, pretend = 0, frame = 16
  63              		@ frame_needed = 0, uses_anonymous_args = 0
  64 0000 00B5     		push	{lr}
  65              		.cfi_def_cfa_offset 4
  66              		.cfi_offset 14, -4
  67 0002 85B0     		sub	sp, sp, #20
  68              		.cfi_def_cfa_offset 24
  69 0004 0390     		str	r0, [sp, #12]
  70 0006 0291     		str	r1, [sp, #8]
  71 0008 0192     		str	r2, [sp, #4]
  72              	.LBB2:
  73              		.loc 2 9 0
  74 000a 039B     		ldr	r3, [sp, #12]
  75 000c 1846     		mov	r0, r3
  76 000e 0299     		ldr	r1, [sp, #8]
  77 0010 019A     		ldr	r2, [sp, #4]
  78 0012 FFF7FEFF 		bl	_ZN3r2p10ArrayQueueIPNS_7MessageEEC2EPS2_j
  79              	.LBE2:
  80              		.loc 2 10 0
  81 0016 039B     		ldr	r3, [sp, #12]
  82 0018 1846     		mov	r0, r3
  83 001a 05B0     		add	sp, sp, #20
  84              		.cfi_def_cfa_offset 4
  85              		@ sp needed
  86 001c 5DF804FB 		ldr	pc, [sp], #4
  87              		.cfi_endproc
  88              	.LFE49:
  89              		.size	_ZN3r2p15MessagePtrQueueC2EPPNS_7MessageEj, .-_ZN3r2p15MessagePtrQueueC2EPPNS_7MessageEj
  90              		.global	_ZN3r2p15MessagePtrQueueC1EPPNS_7MessageEj
  91              		.thumb_set _ZN3r2p15MessagePtrQueueC1EPPNS_7MessageEj,_ZN3r2p15MessagePtrQueueC2EPPNS_7MessageEj
  92              		.section	.rodata
  93              		.align	2
  94              	.LC0:
  95 0000 5232505F 		.ascii	"R2P_ASSERT()\000"
  95      41535345 
  95      52542829 
  95      00
  96 000d 000000   		.section	.text._ZN3r2p10ArrayQueueIPNS_7MessageEEC2EPS2_j,"axG",%progbits,_ZN3r2p10ArrayQueueIPNS_
  97              		.align	2
  98              		.p2align 4,,15
  99              		.weak	_ZN3r2p10ArrayQueueIPNS_7MessageEEC2EPS2_j
 100              		.thumb
 101              		.thumb_func
 102              		.type	_ZN3r2p10ArrayQueueIPNS_7MessageEEC2EPS2_j, %function
 103              	_ZN3r2p10ArrayQueueIPNS_7MessageEEC2EPS2_j:
 104              	.LFB52:
 105              		.file 3 "/home/ergae/r2p-sdk/core/Middleware/include/r2p/ArrayQueue.hpp"
 106              		.loc 3 125 0
 107              		.cfi_startproc
 108              		@ args = 0, pretend = 0, frame = 16
 109              		@ frame_needed = 0, uses_anonymous_args = 0
 110 0000 00B5     		push	{lr}
 111              		.cfi_def_cfa_offset 4
ARM GAS  /tmp/cc1fXCOG.s 			page 3


 112              		.cfi_offset 14, -4
 113 0002 85B0     		sub	sp, sp, #20
 114              		.cfi_def_cfa_offset 24
 115 0004 0390     		str	r0, [sp, #12]
 116 0006 0291     		str	r1, [sp, #8]
 117 0008 0192     		str	r2, [sp, #4]
 118              	.LBB3:
 119              		.loc 3 131 0
 120 000a 0398     		ldr	r0, [sp, #12]
 121 000c FFF7FEFF 		bl	_ZN3r2p10UncopyableC2Ev
 122 0010 039B     		ldr	r3, [sp, #12]
 123 0012 029A     		ldr	r2, [sp, #8]
 124 0014 1A60     		str	r2, [r3]
 125 0016 039B     		ldr	r3, [sp, #12]
 126 0018 019A     		ldr	r2, [sp, #4]
 127 001a 5A60     		str	r2, [r3, #4]
 128 001c 039B     		ldr	r3, [sp, #12]
 129 001e 0022     		movs	r2, #0
 130 0020 9A60     		str	r2, [r3, #8]
 131 0022 039B     		ldr	r3, [sp, #12]
 132 0024 029A     		ldr	r2, [sp, #8]
 133 0026 DA60     		str	r2, [r3, #12]
 134 0028 039B     		ldr	r3, [sp, #12]
 135 002a 029A     		ldr	r2, [sp, #8]
 136 002c 1A61     		str	r2, [r3, #16]
 137              		.loc 3 133 0
 138 002e 029B     		ldr	r3, [sp, #8]
 139 0030 002B     		cmp	r3, #0
 140 0032 02D1     		bne	.L8
 141              		.loc 3 133 0 is_stmt 0 discriminator 1
 142 0034 0648     		ldr	r0, .L11
 143 0036 FFF7FEFF 		bl	chDbgPanic
 144              	.L8:
 145              		.loc 3 134 0 is_stmt 1
 146 003a 019B     		ldr	r3, [sp, #4]
 147 003c 002B     		cmp	r3, #0
 148 003e 02D1     		bne	.L9
 149              		.loc 3 134 0 is_stmt 0 discriminator 1
 150 0040 0348     		ldr	r0, .L11
 151 0042 FFF7FEFF 		bl	chDbgPanic
 152              	.L9:
 153              	.LBE3:
 154              		.loc 3 135 0 is_stmt 1
 155 0046 039B     		ldr	r3, [sp, #12]
 156 0048 1846     		mov	r0, r3
 157 004a 05B0     		add	sp, sp, #20
 158              		.cfi_def_cfa_offset 4
 159              		@ sp needed
 160 004c 5DF804FB 		ldr	pc, [sp], #4
 161              	.L12:
 162              		.align	2
 163              	.L11:
 164 0050 00000000 		.word	.LC0
 165              		.cfi_endproc
 166              	.LFE52:
 167              		.size	_ZN3r2p10ArrayQueueIPNS_7MessageEEC2EPS2_j, .-_ZN3r2p10ArrayQueueIPNS_7MessageEEC2EPS2_j
 168              		.weak	_ZN3r2p10ArrayQueueIPNS_7MessageEEC1EPS2_j
ARM GAS  /tmp/cc1fXCOG.s 			page 4


 169              		.thumb_set _ZN3r2p10ArrayQueueIPNS_7MessageEEC1EPS2_j,_ZN3r2p10ArrayQueueIPNS_7MessageEEC2EPS2_j
 170 0054 AFF30080 		.text
 170      AFF30080 
 170      AFF30080 
 171              	.Letext0:
 172              		.file 4 "/home/ergae/r2p-sdk/tools/gcc-arm-none-eabi-4_9-2014q4/arm-none-eabi/include/c++/4.9.3/cs
 173              		.file 5 "/home/ergae/r2p-sdk/tools/gcc-arm-none-eabi-4_9-2014q4/arm-none-eabi/include/string.h"
 174              		.file 6 "<built-in>"
 175              		.file 7 "/home/ergae/r2p-sdk/core/Middleware/include/r2p/MessagePtrQueue.hpp"
 176              		.file 8 "/home/ergae/r2p-sdk/tools/gcc-arm-none-eabi-4_9-2014q4/lib/gcc/arm-none-eabi/4.9.3/includ