ARM GAS  /tmp/cciJHeXp.s 			page 1


   1              		.syntax unified
   2              		.cpu cortex-m4
   3              		.eabi_attribute 27, 3
   4              		.eabi_attribute 28, 1
   5              		.fpu fpv4-sp-d16
   6              		.eabi_attribute 20, 1
   7              		.eabi_attribute 21, 1
   8              		.eabi_attribute 23, 3
   9              		.eabi_attribute 24, 1
  10              		.eabi_attribute 25, 1
  11              		.eabi_attribute 26, 1
  12              		.eabi_attribute 30, 6
  13              		.eabi_attribute 34, 1
  14              		.eabi_attribute 18, 4
  15              		.thumb
  16              		.file	"Message.cpp"
  17              		.text
  18              	.Ltext0:
  19              		.cfi_sections	.debug_frame
  20              		.section	.text._ZN3r2p8SysLock_7acquireEv,"axG",%progbits,_ZN3r2p8SysLock_7acquireEv,comdat
  21              		.align	2
  22              		.p2align 4,,15
  23              		.weak	_ZN3r2p8SysLock_7acquireEv
  24              		.thumb
  25              		.thumb_func
  26              		.type	_ZN3r2p8SysLock_7acquireEv, %function
  27              	_ZN3r2p8SysLock_7acquireEv:
  28              	.LFB18:
  29              		.file 1 "/home/denny/r2p-sdk/core/Middleware/port/chibios/include/r2p/impl/SysLock_.hpp"
  30              		.loc 1 20 0
  31              		.cfi_startproc
  32              		@ args = 0, pretend = 0, frame = 0
  33              		@ frame_needed = 0, uses_anonymous_args = 0
  34 0000 08B5     		push	{r3, lr}
  35              		.cfi_def_cfa_offset 8
  36              		.cfi_offset 3, -8
  37              		.cfi_offset 14, -4
  38              	.LBB2:
  39              	.LBB3:
  40              	.LBB4:
  41              		.loc 1 22 0
  42 0002 2023     		movs	r3, #32
  43              	@ 22 "/home/denny/r2p-sdk/core/Middleware/port/chibios/include/r2p/impl/SysLock_.hpp" 1
  44 0004 83F31188 		msr     BASEPRI, r3
  45              	@ 0 "" 2
  46              		.thumb
  47              	.LBE4:
  48 0008 FFF7FEFF 		bl	dbg_check_lock
  49              	.LBE3:
  50              	.LBE2:
  51              		.loc 1 23 0
  52 000c 08BD     		pop	{r3, pc}
  53              		.cfi_endproc
  54              	.LFE18:
  55              		.size	_ZN3r2p8SysLock_7acquireEv, .-_ZN3r2p8SysLock_7acquireEv
  56 000e 00BF     		.section	.text._ZN3r2p8SysLock_7releaseEv,"axG",%progbits,_ZN3r2p8SysLock_7releaseEv,comdat
  57              		.align	2
ARM GAS  /tmp/cciJHeXp.s 			page 2


  58              		.p2align 4,,15
  59              		.weak	_ZN3r2p8SysLock_7releaseEv
  60              		.thumb
  61              		.thumb_func
  62              		.type	_ZN3r2p8SysLock_7releaseEv, %function
  63              	_ZN3r2p8SysLock_7releaseEv:
  64              	.LFB19:
  65              		.loc 1 27 0
  66              		.cfi_startproc
  67              		@ args = 0, pretend = 0, frame = 0
  68              		@ frame_needed = 0, uses_anonymous_args = 0
  69 0000 08B5     		push	{r3, lr}
  70              		.cfi_def_cfa_offset 8
  71              		.cfi_offset 3, -8
  72              		.cfi_offset 14, -4
  73              	.LBB5:
  74              	.LBB6:
  75              		.loc 1 29 0
  76 0002 FFF7FEFF 		bl	dbg_check_unlock
  77              	.LBB7:
  78 0006 0023     		movs	r3, #0
  79              	@ 29 "/home/denny/r2p-sdk/core/Middleware/port/chibios/include/r2p/impl/SysLock_.hpp" 1
  80 0008 83F31188 		msr     BASEPRI, r3
  81              	@ 0 "" 2
  82              		.thumb
  83              	.LBE7:
  84              	.LBE6:
  85              	.LBE5:
  86              		.loc 1 30 0
  87 000c 08BD     		pop	{r3, pc}
  88              		.cfi_endproc
  89              	.LFE19:
  90              		.size	_ZN3r2p8SysLock_7releaseEv, .-_ZN3r2p8SysLock_7releaseEv
  91 000e 00BF     		.section	.text._ZN3r2p7SysLock7acquireEv,"axG",%progbits,_ZN3r2p7SysLock7acquireEv,comdat
  92              		.align	2
  93              		.p2align 4,,15
  94              		.weak	_ZN3r2p7SysLock7acquireEv
  95              		.thumb
  96              		.thumb_func
  97              		.type	_ZN3r2p7SysLock7acquireEv, %function
  98              	_ZN3r2p7SysLock7acquireEv:
  99              	.LFB26:
 100              		.file 2 "/home/denny/r2p-sdk/core/Middleware/include/r2p/SysLock.hpp"
 101              		.loc 2 27 0
 102              		.cfi_startproc
 103              		@ args = 0, pretend = 0, frame = 0
 104              		@ frame_needed = 0, uses_anonymous_args = 0
 105 0000 08B5     		push	{r3, lr}
 106              		.cfi_def_cfa_offset 8
 107              		.cfi_offset 3, -8
 108              		.cfi_offset 14, -4
 109              		.loc 2 29 0
 110 0002 FFF7FEFF 		bl	_ZN3r2p8SysLock_7acquireEv
 111              		.loc 2 30 0
 112 0006 08BD     		pop	{r3, pc}
 113              		.cfi_endproc
 114              	.LFE26:
ARM GAS  /tmp/cciJHeXp.s 			page 3


 115              		.size	_ZN3r2p7SysLock7acquireEv, .-_ZN3r2p7SysLock7acquireEv
 116 0008 AFF30080 		.section	.text._ZN3r2p7SysLock7releaseEv,"axG",%progbits,_ZN3r2p7SysLock7releaseEv,comdat
 116      AFF30080 
 117              		.align	2
 118              		.p2align 4,,15
 119              		.weak	_ZN3r2p7SysLock7releaseEv
 120              		.thumb
 121              		.thumb_func
 122              		.type	_ZN3r2p7SysLock7releaseEv, %function
 123              	_ZN3r2p7SysLock7releaseEv:
 124              	.LFB27:
 125              		.loc 2 34 0
 126              		.cfi_startproc
 127              		@ args = 0, pretend = 0, frame = 0
 128              		@ frame_needed = 0, uses_anonymous_args = 0
 129 0000 08B5     		push	{r3, lr}
 130              		.cfi_def_cfa_offset 8
 131              		.cfi_offset 3, -8
 132              		.cfi_offset 14, -4
 133              		.loc 2 36 0
 134 0002 FFF7FEFF 		bl	_ZN3r2p8SysLock_7releaseEv
 135              		.loc 2 37 0
 136 0006 08BD     		pop	{r3, pc}
 137              		.cfi_endproc
 138              	.LFE27:
 139              		.size	_ZN3r2p7SysLock7releaseEv, .-_ZN3r2p7SysLock7releaseEv
 140              		.section	.rodata
 141              		.align	2
 142              	.LC0:
 143 0000 5232505F 		.ascii	"R2P_ASSERT()\000"
 143      41535345 
 143      52542829 
 143      00
 144 000d 000000   		.section	.text._ZN3r2p7Message14acquire_unsafeEv,"axG",%progbits,_ZN3r2p7Message14acquire_unsafeEv
 145              		.align	2
 146              		.p2align 4,,15
 147              		.weak	_ZN3r2p7Message14acquire_unsafeEv
 148              		.thumb
 149              		.thumb_func
 150              		.type	_ZN3r2p7Message14acquire_unsafeEv, %function
 151              	_ZN3r2p7Message14acquire_unsafeEv:
 152              	.LFB38:
 153              		.file 3 "/home/denny/r2p-sdk/core/Middleware/include/r2p/Message.hpp"
 154              		.loc 3 104 0
 155              		.cfi_startproc
 156              		@ args = 0, pretend = 0, frame = 8
 157              		@ frame_needed = 0, uses_anonymous_args = 0
 158 0000 00B5     		push	{lr}
 159              		.cfi_def_cfa_offset 4
 160              		.cfi_offset 14, -4
 161 0002 83B0     		sub	sp, sp, #12
 162              		.cfi_def_cfa_offset 16
 163 0004 0190     		str	r0, [sp, #4]
 164              		.loc 3 106 0
 165 0006 019B     		ldr	r3, [sp, #4]
 166 0008 1B88     		ldrh	r3, [r3]	@ unaligned
 167 000a 9BB2     		uxth	r3, r3
ARM GAS  /tmp/cciJHeXp.s 			page 4


 168 000c 1A46     		mov	r2, r3
 169 000e 1023     		movs	r3, #16
 170 0010 013B     		subs	r3, r3, #1
 171 0012 1946     		mov	r1, r3
 172 0014 0123     		movs	r3, #1
 173 0016 8B40     		lsls	r3, r3, r1
 174 0018 013B     		subs	r3, r3, #1
 175 001a 9A42     		cmp	r2, r3
 176 001c 02DB     		blt	.L6
 177              		.loc 3 106 0 is_stmt 0 discriminator 1
 178 001e 0648     		ldr	r0, .L7
 179 0020 FFF7FEFF 		bl	chDbgPanic
 180              	.L6:
 181              		.loc 3 108 0 is_stmt 1
 182 0024 019B     		ldr	r3, [sp, #4]
 183 0026 1B88     		ldrh	r3, [r3]	@ unaligned
 184 0028 9BB2     		uxth	r3, r3
 185 002a 0133     		adds	r3, r3, #1
 186 002c 9AB2     		uxth	r2, r3
 187 002e 019B     		ldr	r3, [sp, #4]
 188 0030 1A80     		strh	r2, [r3]	@ unaligned
 189              		.loc 3 109 0
 190 0032 03B0     		add	sp, sp, #12
 191              		.cfi_def_cfa_offset 4
 192              		@ sp needed
 193 0034 5DF804FB 		ldr	pc, [sp], #4
 194              	.L8:
 195              		.align	2
 196              	.L7:
 197 0038 00000000 		.word	.LC0
 198              		.cfi_endproc
 199              	.LFE38:
 200              		.size	_ZN3r2p7Message14acquire_unsafeEv, .-_ZN3r2p7Message14acquire_unsafeEv
 201 003c AFF30080 		.section	.text._ZN3r2p7Message14release_unsafeEv,"axG",%progbits,_ZN3r2p7Message14release_unsafeEv
 202              		.align	2
 203              		.p2align 4,,15
 204              		.weak	_ZN3r2p7Message14release_unsafeEv
 205              		.thumb
 206              		.thumb_func
 207              		.type	_ZN3r2p7Message14release_unsafeEv, %function
 208              	_ZN3r2p7Message14release_unsafeEv:
 209              	.LFB39:
 210              		.loc 3 113 0
 211              		.cfi_startproc
 212              		@ args = 0, pretend = 0, frame = 8
 213              		@ frame_needed = 0, uses_anonymous_args = 0
 214 0000 00B5     		push	{lr}
 215              		.cfi_def_cfa_offset 4
 216              		.cfi_offset 14, -4
 217 0002 83B0     		sub	sp, sp, #12
 218              		.cfi_def_cfa_offset 16
 219 0004 0190     		str	r0, [sp, #4]
 220              		.loc 3 115 0
 221 0006 019B     		ldr	r3, [sp, #4]
 222 0008 1B88     		ldrh	r3, [r3]	@ unaligned
 223 000a 9BB2     		uxth	r3, r3
 224 000c 002B     		cmp	r3, #0
ARM GAS  /tmp/cciJHeXp.s 			page 5


 225 000e 02D1     		bne	.L10
 226              		.loc 3 115 0 is_stmt 0 discriminator 1
 227 0010 0A48     		ldr	r0, .L12
 228 0012 FFF7FEFF 		bl	chDbgPanic
 229              	.L10:
 230              		.loc 3 117 0 is_stmt 1
 231 0016 019B     		ldr	r3, [sp, #4]
 232 0018 1B88     		ldrh	r3, [r3]	@ unaligned
 233 001a 9BB2     		uxth	r3, r3
 234 001c 013B     		subs	r3, r3, #1
 235 001e 9AB2     		uxth	r2, r3
 236 0020 019B     		ldr	r3, [sp, #4]
 237 0022 1A80     		strh	r2, [r3]	@ unaligned
 238 0024 019B     		ldr	r3, [sp, #4]
 239 0026 1B88     		ldrh	r3, [r3]	@ unaligned
 240 0028 9BB2     		uxth	r3, r3
 241 002a 002B     		cmp	r3, #0
 242 002c 14BF     		ite	ne
 243 002e 0123     		movne	r3, #1
 244 0030 0023     		moveq	r3, #0
 245 0032 DBB2     		uxtb	r3, r3
 246              		.loc 3 118 0
 247 0034 1846     		mov	r0, r3
 248 0036 03B0     		add	sp, sp, #12
 249              		.cfi_def_cfa_offset 4
 250              		@ sp needed
 251 0038 5DF804FB 		ldr	pc, [sp], #4
 252              	.L13:
 253              		.align	2
 254              	.L12:
 255 003c 00000000 		.word	.LC0
 256              		.cfi_endproc
 257              	.LFE39:
 258              		.size	_ZN3r2p7Message14release_unsafeEv, .-_ZN3r2p7Message14release_unsafeEv
 259              		.section	.text._ZN3r2p7Message12reset_unsafeEv,"axG",%progbits,_ZN3r2p7Message12reset_unsafeEv,com
 260              		.align	2
 261              		.p2align 4,,15
 262              		.weak	_ZN3r2p7Message12reset_unsafeEv
 263              		.thumb
 264              		.thumb_func
 265              		.type	_ZN3r2p7Message12reset_unsafeEv, %function
 266              	_ZN3r2p7Message12reset_unsafeEv:
 267              	.LFB40:
 268              		.loc 3 122 0
 269              		.cfi_startproc
 270              		@ args = 0, pretend = 0, frame = 8
 271              		@ frame_needed = 0, uses_anonymous_args = 0
 272              		@ link register save eliminated.
 273 0000 82B0     		sub	sp, sp, #8
 274              		.cfi_def_cfa_offset 8
 275 0002 0190     		str	r0, [sp, #4]
 276              		.loc 3 127 0
 277 0004 019B     		ldr	r3, [sp, #4]
 278 0006 0022     		movs	r2, #0
 279 0008 1A70     		strb	r2, [r3]
 280 000a 0022     		movs	r2, #0
 281 000c 5A70     		strb	r2, [r3, #1]
ARM GAS  /tmp/cciJHeXp.s 			page 6


 282              		.loc 3 128 0
 283 000e 02B0     		add	sp, sp, #8
 284              		.cfi_def_cfa_offset 0
 285              		@ sp needed
 286 0010 7047     		bx	lr
 287              		.cfi_endproc
 288              	.LFE40:
 289              		.size	_ZN3r2p7Message12reset_unsafeEv, .-_ZN3r2p7Message12reset_unsafeEv
 290 0012 00BFAFF3 		.section	.text._ZN3r2p7Message7acquireEv,"ax",%progbits
 290      0080AFF3 
 290      0080AFF3 
 290      0080
 291              		.align	2
 292              		.p2align 4,,15
 293              		.global	_ZN3r2p7Message7acquireEv
 294              		.thumb
 295              		.thumb_func
 296              		.type	_ZN3r2p7Message7acquireEv, %function
 297              	_ZN3r2p7Message7acquireEv:
 298              	.LFB49:
 299              		.file 4 "/home/denny/r2p-sdk/core/Middleware/src/Message.cpp"
 300              		.loc 4 8 0
 301              		.cfi_startproc
 302              		@ args = 0, pretend = 0, frame = 8
 303              		@ frame_needed = 0, uses_anonymous_args = 0
 304 0000 00B5     		push	{lr}
 305              		.cfi_def_cfa_offset 4
 306              		.cfi_offset 14, -4
 307 0002 83B0     		sub	sp, sp, #12
 308              		.cfi_def_cfa_offset 16
 309 0004 0190     		str	r0, [sp, #4]
 310              		.loc 4 10 0
 311 0006 FFF7FEFF 		bl	_ZN3r2p7SysLock7acquireEv
 312              		.loc 4 11 0
 313 000a 0198     		ldr	r0, [sp, #4]
 314 000c FFF7FEFF 		bl	_ZN3r2p7Message14acquire_unsafeEv
 315              		.loc 4 12 0
 316 0010 FFF7FEFF 		bl	_ZN3r2p7SysLock7releaseEv
 317              		.loc 4 13 0
 318 0014 03B0     		add	sp, sp, #12
 319              		.cfi_def_cfa_offset 4
 320              		@ sp needed
 321 0016 5DF804FB 		ldr	pc, [sp], #4
 322              		.cfi_endproc
 323              	.LFE49:
 324              		.size	_ZN3r2p7Message7acquireEv, .-_ZN3r2p7Message7acquireEv
 325 001a 00BFAFF3 		.section	.text._ZN3r2p7Message7releaseEv,"ax",%progbits
 325      0080
 326              		.align	2
 327              		.p2align 4,,15
 328              		.global	_ZN3r2p7Message7releaseEv
 329              		.thumb
 330              		.thumb_func
 331              		.type	_ZN3r2p7Message7releaseEv, %function
 332              	_ZN3r2p7Message7releaseEv:
 333              	.LFB50:
 334              		.loc 4 16 0
ARM GAS  /tmp/cciJHeXp.s 			page 7


 335              		.cfi_startproc
 336              		@ args = 0, pretend = 0, frame = 16
 337              		@ frame_needed = 0, uses_anonymous_args = 0
 338 0000 00B5     		push	{lr}
 339              		.cfi_def_cfa_offset 4
 340              		.cfi_offset 14, -4
 341 0002 85B0     		sub	sp, sp, #20
 342              		.cfi_def_cfa_offset 24
 343 0004 0190     		str	r0, [sp, #4]
 344              	.LBB8:
 345              		.loc 4 18 0
 346 0006 FFF7FEFF 		bl	_ZN3r2p7SysLock7acquireEv
 347              		.loc 4 19 0
 348 000a 0198     		ldr	r0, [sp, #4]
 349 000c FFF7FEFF 		bl	_ZN3r2p7Message14release_unsafeEv
 350 0010 0346     		mov	r3, r0
 351 0012 8DF80F30 		strb	r3, [sp, #15]
 352              		.loc 4 20 0
 353 0016 FFF7FEFF 		bl	_ZN3r2p7SysLock7releaseEv
 354              		.loc 4 21 0
 355 001a 9DF80F30 		ldrb	r3, [sp, #15]	@ zero_extendqisi2
 356              	.LBE8:
 357              		.loc 4 22 0
 358 001e 1846     		mov	r0, r3
 359 0020 05B0     		add	sp, sp, #20
 360              		.cfi_def_cfa_offset 4
 361              		@ sp needed
 362 0022 5DF804FB 		ldr	pc, [sp], #4
 363              		.cfi_endproc
 364              	.LFE50:
 365              		.size	_ZN3r2p7Message7releaseEv, .-_ZN3r2p7Message7releaseEv
 366 0026 00BFAFF3 		.section	.text._ZN3r2p7Message5resetEv,"ax",%progbits
 366      0080AFF3 
 366      0080
 367              		.align	2
 368              		.p2align 4,,15
 369              		.global	_ZN3r2p7Message5resetEv
 370              		.thumb
 371              		.thumb_func
 372              		.type	_ZN3r2p7Message5resetEv, %function
 373              	_ZN3r2p7Message5resetEv:
 374              	.LFB51:
 375              		.loc 4 25 0
 376              		.cfi_startproc
 377              		@ args = 0, pretend = 0, frame = 8
 378              		@ frame_needed = 0, uses_anonymous_args = 0
 379 0000 00B5     		push	{lr}
 380              		.cfi_def_cfa_offset 4
 381              		.cfi_offset 14, -4
 382 0002 83B0     		sub	sp, sp, #12
 383              		.cfi_def_cfa_offset 16
 384 0004 0190     		str	r0, [sp, #4]
 385              		.loc 4 27 0
 386 0006 FFF7FEFF 		bl	_ZN3r2p7SysLock7acquireEv
 387              		.loc 4 28 0
 388 000a 0198     		ldr	r0, [sp, #4]
 389 000c FFF7FEFF 		bl	_ZN3r2p7Message12reset_unsafeEv
ARM GAS  /tmp/cciJHeXp.s 			page 8


 390              		.loc 4 29 0
 391 0010 FFF7FEFF 		bl	_ZN3r2p7SysLock7releaseEv
 392              		.loc 4 30 0
 393 0014 03B0     		add	sp, sp, #12
 394              		.cfi_def_cfa_offset 4
 395              		@ sp needed
 396 0016 5DF804FB 		ldr	pc, [sp], #4
 397              		.cfi_endproc
 398              	.LFE51:
 399              		.size	_ZN3r2p7Message5resetEv, .-_ZN3r2p7Message5resetEv
 400 001a 00BFAFF3 		.section	.text._ZN3r2p7Message4copyERS0_RKS0_j,"ax",%progbits
 400      0080
 401              		.align	2
 402              		.p2align 4,,15
 403              		.global	_ZN3r2p7Message4copyERS0_RKS0_j
 404              		.thumb
 405              		.thumb_func
 406              		.type	_ZN3r2p7Message4copyERS0_RKS0_j, %function
 407              	_ZN3r2p7Message4copyERS0_RKS0_j:
 408              	.LFB52:
 409              		.loc 4 33 0
 410              		.cfi_startproc
 411              		@ args = 0, pretend = 0, frame = 16
 412              		@ frame_needed = 0, uses_anonymous_args = 0
 413 0000 00B5     		push	{lr}
 414              		.cfi_def_cfa_offset 4
 415              		.cfi_offset 14, -4
 416 0002 85B0     		sub	sp, sp, #20
 417              		.cfi_def_cfa_offset 24
 418 0004 0390     		str	r0, [sp, #12]
 419 0006 0291     		str	r1, [sp, #8]
 420 0008 0192     		str	r2, [sp, #4]
 421              		.loc 4 35 0
 422 000a 019B     		ldr	r3, [sp, #4]
 423 000c 022B     		cmp	r3, #2
 424 000e 02D2     		bcs	.L20
 425              		.loc 4 35 0 is_stmt 0 discriminator 1
 426 0010 0848     		ldr	r0, .L21
 427 0012 FFF7FEFF 		bl	chDbgPanic
 428              	.L20:
 429              		.loc 4 44 0 is_stmt 1
 430 0016 039B     		ldr	r3, [sp, #12]
 431              		.loc 4 38 0
 432 0018 991C     		adds	r1, r3, #2
 433              		.loc 4 44 0
 434 001a 029B     		ldr	r3, [sp, #8]
 435              		.loc 4 38 0
 436 001c 9A1C     		adds	r2, r3, #2
 437              		.loc 4 44 0
 438 001e 019B     		ldr	r3, [sp, #4]
 439 0020 023B     		subs	r3, r3, #2
 440 0022 0846     		mov	r0, r1
 441 0024 1146     		mov	r1, r2
 442 0026 1A46     		mov	r2, r3
 443 0028 FFF7FEFF 		bl	memcpy
 444              		.loc 4 45 0
 445 002c 05B0     		add	sp, sp, #20
ARM GAS  /tmp/cciJHeXp.s 			page 9


 446              		.cfi_def_cfa_offset 4
 447              		@ sp needed
 448 002e 5DF804FB 		ldr	pc, [sp], #4
 449              	.L22:
 450 0032 00BF     		.align	2
 451              	.L21:
 452 0034 00000000 		.word	.LC0
 453              		.cfi_endproc
 454              	.LFE52:
 455              		.size	_ZN3r2p7Message4copyERS0_RKS0_j, .-_ZN3r2p7Message4copyERS0_RKS0_j
 456 0038 AFF30080 		.text
 456      AFF30080 
 457              	.Letext0:
 458              		.file 5 "/home/denny/r2p-sdk/tools/gcc-arm-none-eabi-4_9-2014q4/lib/gcc/arm-none-eabi/4.9.3/includ
 459              		.file 6 "/home/denny/r2p-sdk/tools/gcc-arm-none-eabi-4_9-2014q4/arm-none-eabi/include/machine/_def
 460              		.file 7 "/home/denny/r2p-sdk/tools/gcc-arm-none-eabi-4_9-2014q4/arm-none-eabi/include/c++/4.9.3/cs
 461              		.file 8 "/home/denny/r2p-sdk/tools/gcc-arm-none-eabi-4_9-2014q4/arm-none-eabi/include/string.h"
 462              		.file 9 "<built-in>"
 463              		.file 10 "/home/denny/r2p-sdk/core/Middleware/include/r2p/Uncopyable.hpp"
 464              		.file 11 "/home/denny/r2p-sdk/tools/gcc-arm-none-eabi-4_9-2014q4/arm-none-eabi/include/stdint.h"