ARM GAS  /tmp/cc5qDRak.s 			page 1


   1              		.syntax unified
   2              		.cpu cortex-m4
   3              		.eabi_attribute 27, 3
   4              		.eabi_attribute 28, 1
   5              		.fpu fpv4-sp-d16
   6              		.eabi_attribute 20, 1
   7              		.eabi_attribute 21, 1
   8              		.eabi_attribute 23, 3
   9              		.eabi_attribute 24, 1
  10              		.eabi_attribute 25, 1
  11              		.eabi_attribute 26, 1
  12              		.eabi_attribute 30, 6
  13              		.eabi_attribute 34, 1
  14              		.eabi_attribute 18, 4
  15              		.thumb
  16              		.file	"Middleware.cpp"
  17              		.text
  18              	.Ltext0:
  19              		.cfi_sections	.debug_frame
  20              		.section	.text._ZN3r2p10UncopyableC2Ev,"axG",%progbits,_ZN3r2p10UncopyableC5Ev,comdat
  21              		.align	2
  22              		.p2align 4,,15
  23              		.weak	_ZN3r2p10UncopyableC2Ev
  24              		.thumb
  25              		.thumb_func
  26              		.type	_ZN3r2p10UncopyableC2Ev, %function
  27              	_ZN3r2p10UncopyableC2Ev:
  28              	.LFB6:
  29              		.file 1 "/home/ergae/r2p-sdk/core/Middleware/include/r2p/Uncopyable.hpp"
  30              		.loc 1 20 0
  31              		.cfi_startproc
  32              		@ args = 0, pretend = 0, frame = 8
  33              		@ frame_needed = 0, uses_anonymous_args = 0
  34              		@ link register save eliminated.
  35 0000 82B0     		sub	sp, sp, #8
  36              		.cfi_def_cfa_offset 8
  37 0002 0190     		str	r0, [sp, #4]
  38              		.loc 1 20 0
  39 0004 019B     		ldr	r3, [sp, #4]
  40 0006 1846     		mov	r0, r3
  41 0008 02B0     		add	sp, sp, #8
  42              		.cfi_def_cfa_offset 0
  43              		@ sp needed
  44 000a 7047     		bx	lr
  45              		.cfi_endproc
  46              	.LFE6:
  47              		.size	_ZN3r2p10UncopyableC2Ev, .-_ZN3r2p10UncopyableC2Ev
  48              		.weak	_ZN3r2p10UncopyableC1Ev
  49              		.thumb_set _ZN3r2p10UncopyableC1Ev,_ZN3r2p10UncopyableC2Ev
  50 000c AFF30080 		.section	.text._ZN3r2p10UncopyableD2Ev,"axG",%progbits,_ZN3r2p10UncopyableD5Ev,comdat
  51              		.align	2
  52              		.p2align 4,,15
  53              		.weak	_ZN3r2p10UncopyableD2Ev
  54              		.thumb
  55              		.thumb_func
  56              		.type	_ZN3r2p10UncopyableD2Ev, %function
  57              	_ZN3r2p10UncopyableD2Ev:
ARM GAS  /tmp/cc5qDRak.s 			page 2


  58              	.LFB9:
  59              		.loc 1 21 0
  60              		.cfi_startproc
  61              		@ args = 0, pretend = 0, frame = 8
  62              		@ frame_needed = 0, uses_anonymous_args = 0
  63              		@ link register save eliminated.
  64 0000 82B0     		sub	sp, sp, #8
  65              		.cfi_def_cfa_offset 8
  66 0002 0190     		str	r0, [sp, #4]
  67              		.loc 1 21 0
  68 0004 019B     		ldr	r3, [sp, #4]
  69 0006 1846     		mov	r0, r3
  70 0008 02B0     		add	sp, sp, #8
  71              		.cfi_def_cfa_offset 0
  72              		@ sp needed
  73 000a 7047     		bx	lr
  74              		.cfi_endproc
  75              	.LFE9:
  76              		.size	_ZN3r2p10UncopyableD2Ev, .-_ZN3r2p10UncopyableD2Ev
  77              		.weak	_ZN3r2p10UncopyableD1Ev
  78              		.thumb_set _ZN3r2p10UncopyableD1Ev,_ZN3r2p10UncopyableD2Ev
  79 000c AFF30080 		.section	.text._ZN3r2p8SysLock_7acquireEv,"axG",%progbits,_ZN3r2p8SysLock_7acquireEv,comdat
  80              		.align	2
  81              		.p2align 4,,15
  82              		.weak	_ZN3r2p8SysLock_7acquireEv
  83              		.thumb
  84              		.thumb_func
  85              		.type	_ZN3r2p8SysLock_7acquireEv, %function
  86              	_ZN3r2p8SysLock_7acquireEv:
  87              	.LFB18:
  88              		.file 2 "/home/ergae/r2p-sdk/core/Middleware/port/chibios/include/r2p/impl/SysLock_.hpp"
  89              		.loc 2 20 0
  90              		.cfi_startproc
  91              		@ args = 0, pretend = 0, frame = 0
  92              		@ frame_needed = 0, uses_anonymous_args = 0
  93 0000 08B5     		push	{r3, lr}
  94              		.cfi_def_cfa_offset 8
  95              		.cfi_offset 3, -8
  96              		.cfi_offset 14, -4
  97              	.LBB33:
  98              	.LBB34:
  99              	.LBB35:
 100              		.loc 2 22 0
 101 0002 2023     		movs	r3, #32
 102              	@ 22 "/home/ergae/r2p-sdk/core/Middleware/port/chibios/include/r2p/impl/SysLock_.hpp" 1
 103 0004 83F31188 		msr     BASEPRI, r3
 104              	@ 0 "" 2
 105              		.thumb
 106              	.LBE35:
 107 0008 FFF7FEFF 		bl	dbg_check_lock
 108              	.LBE34:
 109              	.LBE33:
 110              		.loc 2 23 0
 111 000c 08BD     		pop	{r3, pc}
 112              		.cfi_endproc
 113              	.LFE18:
 114              		.size	_ZN3r2p8SysLock_7acquireEv, .-_ZN3r2p8SysLock_7acquireEv
ARM GAS  /tmp/cc5qDRak.s 			page 3


 115 000e 00BF     		.section	.text._ZN3r2p8SysLock_7releaseEv,"axG",%progbits,_ZN3r2p8SysLock_7releaseEv,comdat
 116              		.align	2
 117              		.p2align 4,,15
 118              		.weak	_ZN3r2p8SysLock_7releaseEv
 119              		.thumb
 120              		.thumb_func
 121              		.type	_ZN3r2p8SysLock_7releaseEv, %function
 122              	_ZN3r2p8SysLock_7releaseEv:
 123              	.LFB19:
 124              		.loc 2 27 0
 125              		.cfi_startproc
 126              		@ args = 0, pretend = 0, frame = 0
 127              		@ frame_needed = 0, uses_anonymous_args = 0
 128 0000 08B5     		push	{r3, lr}
 129              		.cfi_def_cfa_offset 8
 130              		.cfi_offset 3, -8
 131              		.cfi_offset 14, -4
 132              	.LBB36:
 133              	.LBB37:
 134              		.loc 2 29 0
 135 0002 FFF7FEFF 		bl	dbg_check_unlock
 136              	.LBB38:
 137 0006 0023     		movs	r3, #0
 138              	@ 29 "/home/ergae/r2p-sdk/core/Middleware/port/chibios/include/r2p/impl/SysLock_.hpp" 1
 139 0008 83F31188 		msr     BASEPRI, r3
 140              	@ 0 "" 2
 141              		.thumb
 142              	.LBE38:
 143              	.LBE37:
 144              	.LBE36:
 145              		.loc 2 30 0
 146 000c 08BD     		pop	{r3, pc}
 147              		.cfi_endproc
 148              	.LFE19:
 149              		.size	_ZN3r2p8SysLock_7releaseEv, .-_ZN3r2p8SysLock_7releaseEv
 150 000e 00BF     		.section	.text._ZN3r2p7SysLock5ScopeC2Ev,"axG",%progbits,_ZN3r2p7SysLock5ScopeC5Ev,comdat
 151              		.align	2
 152              		.p2align 4,,15
 153              		.weak	_ZN3r2p7SysLock5ScopeC2Ev
 154              		.thumb
 155              		.thumb_func
 156              		.type	_ZN3r2p7SysLock5ScopeC2Ev, %function
 157              	_ZN3r2p7SysLock5ScopeC2Ev:
 158              	.LFB21:
 159              		.file 3 "/home/ergae/r2p-sdk/core/Middleware/include/r2p/SysLock.hpp"
 160              		.loc 3 13 0
 161              		.cfi_startproc
 162              		@ args = 0, pretend = 0, frame = 8
 163              		@ frame_needed = 0, uses_anonymous_args = 0
 164 0000 00B5     		push	{lr}
 165              		.cfi_def_cfa_offset 4
 166              		.cfi_offset 14, -4
 167 0002 83B0     		sub	sp, sp, #12
 168              		.cfi_def_cfa_offset 16
 169 0004 0190     		str	r0, [sp, #4]
 170              	.LBB39:
 171              		.loc 3 13 0
ARM GAS  /tmp/cc5qDRak.s 			page 4


 172 0006 0198     		ldr	r0, [sp, #4]
 173 0008 FFF7FEFF 		bl	_ZN3r2p10UncopyableC2Ev
 174 000c FFF7FEFF 		bl	_ZN3r2p7SysLock7acquireEv
 175              	.LBE39:
 176 0010 019B     		ldr	r3, [sp, #4]
 177 0012 1846     		mov	r0, r3
 178 0014 03B0     		add	sp, sp, #12
 179              		.cfi_def_cfa_offset 4
 180              		@ sp needed
 181 0016 5DF804FB 		ldr	pc, [sp], #4
 182              		.cfi_endproc
 183              	.LFE21:
 184              		.size	_ZN3r2p7SysLock5ScopeC2Ev, .-_ZN3r2p7SysLock5ScopeC2Ev
 185              		.weak	_ZN3r2p7SysLock5ScopeC1Ev
 186              		.thumb_set _ZN3r2p7SysLock5ScopeC1Ev,_ZN3r2p7SysLock5ScopeC2Ev
 187 001a 00BFAFF3 		.section	.text._ZN3r2p7SysLock5ScopeD2Ev,"axG",%progbits,_ZN3r2p7SysLock5ScopeD5Ev,comdat
 187      0080
 188              		.align	2
 189              		.p2align 4,,15
 190              		.weak	_ZN3r2p7SysLock5ScopeD2Ev
 191              		.thumb
 192              		.thumb_func
 193              		.type	_ZN3r2p7SysLock5ScopeD2Ev, %function
 194              	_ZN3r2p7SysLock5ScopeD2Ev:
 195              	.LFB24:
 196              		.loc 3 14 0
 197              		.cfi_startproc
 198              		@ args = 0, pretend = 0, frame = 8
 199              		@ frame_needed = 0, uses_anonymous_args = 0
 200 0000 00B5     		push	{lr}
 201              		.cfi_def_cfa_offset 4
 202              		.cfi_offset 14, -4
 203 0002 83B0     		sub	sp, sp, #12
 204              		.cfi_def_cfa_offset 16
 205 0004 0190     		str	r0, [sp, #4]
 206              	.LBB40:
 207              		.loc 3 14 0
 208 0006 FFF7FEFF 		bl	_ZN3r2p7SysLock7releaseEv
 209 000a 0198     		ldr	r0, [sp, #4]
 210 000c FFF7FEFF 		bl	_ZN3r2p10UncopyableD2Ev
 211              	.LBE40:
 212 0010 019B     		ldr	r3, [sp, #4]
 213 0012 1846     		mov	r0, r3
 214 0014 03B0     		add	sp, sp, #12
 215              		.cfi_def_cfa_offset 4
 216              		@ sp needed
 217 0016 5DF804FB 		ldr	pc, [sp], #4
 218              		.cfi_endproc
 219              	.LFE24:
 220              		.size	_ZN3r2p7SysLock5ScopeD2Ev, .-_ZN3r2p7SysLock5ScopeD2Ev
 221              		.weak	_ZN3r2p7SysLock5ScopeD1Ev
 222              		.thumb_set _ZN3r2p7SysLock5ScopeD1Ev,_ZN3r2p7SysLock5ScopeD2Ev
 223 001a 00BFAFF3 		.section	.text._ZN3r2p7SysLock7acquireEv,"axG",%progbits,_ZN3r2p7SysLock7acquireEv,comdat
 223      0080
 224              		.align	2
 225              		.p2align 4,,15
 226              		.weak	_ZN3r2p7SysLock7acquireEv
ARM GAS  /tmp/cc5qDRak.s 			page 5


 227              		.thumb
 228              		.thumb_func
 229              		.type	_ZN3r2p7SysLock7acquireEv, %function
 230              	_ZN3r2p7SysLock7acquireEv:
 231              	.LFB26:
 232              		.loc 3 27 0
 233              		.cfi_startproc
 234              		@ args = 0, pretend = 0, frame = 0
 235              		@ frame_needed = 0, uses_anonymous_args = 0
 236 0000 08B5     		push	{r3, lr}
 237              		.cfi_def_cfa_offset 8
 238              		.cfi_offset 3, -8
 239              		.cfi_offset 14, -4
 240              		.loc 3 29 0
 241 0002 FFF7FEFF 		bl	_ZN3r2p8SysLock_7acquireEv
 242              		.loc 3 30 0
 243 0006 08BD     		pop	{r3, pc}
 244              		.cfi_endproc
 245              	.LFE26:
 246              		.size	_ZN3r2p7SysLock7acquireEv, .-_ZN3r2p7SysLock7acquireEv
 247              		.section	.text._ZN3r2p7SysLock7releaseEv,"axG",%progbits,_ZN3r2p7SysLock7releaseEv,comdat
 248              		.align	2
 249              		.p2align 4,,15
 250              		.weak	_ZN3r2p7SysLock7releaseEv
 251              		.thumb
 252              		.thumb_func
 253              		.type	_ZN3r2p7SysLock7releaseEv, %function
 254              	_ZN3r2p7SysLock7releaseEv:
 255              	.LFB27:
 256              		.loc 3 34 0
 257              		.cfi_startproc
 258              		@ args = 0, pretend = 0, frame = 0
 259              		@ frame_needed = 0, uses_anonymous_args = 0
 260 0000 08B5     		push	{r3, lr}
 261              		.cfi_def_cfa_offset 8
 262              		.cfi_offset 3, -8
 263              		.cfi_offset 14, -4
 264              		.loc 3 36 0
 265 0002 FFF7FEFF 		bl	_ZN3r2p8SysLock_7releaseEv
 266              		.loc 3 37 0
 267 0006 08BD     		pop	{r3, pc}
 268              		.cfi_endproc
 269              	.LFE27:
 270              		.size	_ZN3r2p7SysLock7releaseEv, .-_ZN3r2p7SysLock7releaseEv
 271              		.section	.text._ZNK3r2p11MemoryPool_13get_item_sizeEv,"axG",%progbits,_ZNK3r2p11MemoryPool_13get_i
 272              		.align	2
 273              		.p2align 4,,15
 274              		.weak	_ZNK3r2p11MemoryPool_13get_item_sizeEv
 275              		.thumb
 276              		.thumb_func
 277              		.type	_ZNK3r2p11MemoryPool_13get_item_sizeEv, %function
 278              	_ZNK3r2p11MemoryPool_13get_item_sizeEv:
 279              	.LFB123:
 280              		.file 4 "/home/ergae/r2p-sdk/core/Middleware/port/chibios/include/r2p/impl/MemoryPool_.hpp"
 281              		.loc 4 39 0
 282              		.cfi_startproc
 283              		@ args = 0, pretend = 0, frame = 8
ARM GAS  /tmp/cc5qDRak.s 			page 6


 284              		@ frame_needed = 0, uses_anonymous_args = 0
 285              		@ link register save eliminated.
 286 0000 82B0     		sub	sp, sp, #8
 287              		.cfi_def_cfa_offset 8
 288 0002 0190     		str	r0, [sp, #4]
 289              		.loc 4 41 0
 290 0004 019B     		ldr	r3, [sp, #4]
 291 0006 5B68     		ldr	r3, [r3, #4]
 292              		.loc 4 42 0
 293 0008 1846     		mov	r0, r3
 294 000a 02B0     		add	sp, sp, #8
 295              		.cfi_def_cfa_offset 0
 296              		@ sp needed
 297 000c 7047     		bx	lr
 298              		.cfi_endproc
 299              	.LFE123:
 300              		.size	_ZNK3r2p11MemoryPool_13get_item_sizeEv, .-_ZNK3r2p11MemoryPool_13get_item_sizeEv
 301 000e 00BF     		.section	.text._ZN3r2p11MemoryPool_12alloc_unsafeEv,"axG",%progbits,_ZN3r2p11MemoryPool_12alloc_un
 302              		.align	2
 303              		.p2align 4,,15
 304              		.weak	_ZN3r2p11MemoryPool_12alloc_unsafeEv
 305              		.thumb
 306              		.thumb_func
 307              		.type	_ZN3r2p11MemoryPool_12alloc_unsafeEv, %function
 308              	_ZN3r2p11MemoryPool_12alloc_unsafeEv:
 309              	.LFB125:
 310              		.loc 4 53 0
 311              		.cfi_startproc
 312              		@ args = 0, pretend = 0, frame = 8
 313              		@ frame_needed = 0, uses_anonymous_args = 0
 314 0000 00B5     		push	{lr}
 315              		.cfi_def_cfa_offset 4
 316              		.cfi_offset 14, -4
 317 0002 83B0     		sub	sp, sp, #12
 318              		.cfi_def_cfa_offset 16
 319 0004 0190     		str	r0, [sp, #4]
 320              		.loc 4 55 0
 321 0006 019B     		ldr	r3, [sp, #4]
 322 0008 1846     		mov	r0, r3
 323 000a FFF7FEFF 		bl	chPoolAllocI
 324 000e 0346     		mov	r3, r0
 325              		.loc 4 56 0
 326 0010 1846     		mov	r0, r3
 327 0012 03B0     		add	sp, sp, #12
 328              		.cfi_def_cfa_offset 4
 329              		@ sp needed
 330 0014 5DF804FB 		ldr	pc, [sp], #4
 331              		.cfi_endproc
 332              	.LFE125:
 333              		.size	_ZN3r2p11MemoryPool_12alloc_unsafeEv, .-_ZN3r2p11MemoryPool_12alloc_unsafeEv
 334 0018 AFF30080 		.section	.text._ZN3r2p11MemoryPool_6extendEPvj,"axG",%progbits,_ZN3r2p11MemoryPool_6extendEPvj,com
 334      AFF30080 
 335              		.align	2
 336              		.p2align 4,,15
 337              		.weak	_ZN3r2p11MemoryPool_6extendEPvj
 338              		.thumb
 339              		.thumb_func
ARM GAS  /tmp/cc5qDRak.s 			page 7


 340              		.type	_ZN3r2p11MemoryPool_6extendEPvj, %function
 341              	_ZN3r2p11MemoryPool_6extendEPvj:
 342              	.LFB129:
 343              		.loc 4 85 0
 344              		.cfi_startproc
 345              		@ args = 0, pretend = 0, frame = 16
 346              		@ frame_needed = 0, uses_anonymous_args = 0
 347 0000 00B5     		push	{lr}
 348              		.cfi_def_cfa_offset 4
 349              		.cfi_offset 14, -4
 350 0002 85B0     		sub	sp, sp, #20
 351              		.cfi_def_cfa_offset 24
 352 0004 0390     		str	r0, [sp, #12]
 353 0006 0291     		str	r1, [sp, #8]
 354 0008 0192     		str	r2, [sp, #4]
 355              		.loc 4 87 0
 356 000a 039B     		ldr	r3, [sp, #12]
 357 000c 1846     		mov	r0, r3
 358 000e 0299     		ldr	r1, [sp, #8]
 359 0010 019A     		ldr	r2, [sp, #4]
 360 0012 FFF7FEFF 		bl	chPoolLoadArray
 361              		.loc 4 88 0
 362 0016 05B0     		add	sp, sp, #20
 363              		.cfi_def_cfa_offset 4
 364              		@ sp needed
 365 0018 5DF804FB 		ldr	pc, [sp], #4
 366              		.cfi_endproc
 367              	.LFE129:
 368              		.size	_ZN3r2p11MemoryPool_6extendEPvj, .-_ZN3r2p11MemoryPool_6extendEPvj
 369 001c AFF30080 		.section	.text._ZNK3r2p4Time8to_s_rawEv,"axG",%progbits,_ZNK3r2p4Time8to_s_rawEv,comdat
 370              		.align	2
 371              		.p2align 4,,15
 372              		.weak	_ZNK3r2p4Time8to_s_rawEv
 373              		.thumb
 374              		.thumb_func
 375              		.type	_ZNK3r2p4Time8to_s_rawEv, %function
 376              	_ZNK3r2p4Time8to_s_rawEv:
 377              	.LFB145:
 378              		.file 5 "/home/ergae/r2p-sdk/core/Middleware/include/r2p/Time.hpp"
 379              		.loc 5 89 0
 380              		.cfi_startproc
 381              		@ args = 0, pretend = 0, frame = 8
 382              		@ frame_needed = 0, uses_anonymous_args = 0
 383              		@ link register save eliminated.
 384 0000 82B0     		sub	sp, sp, #8
 385              		.cfi_def_cfa_offset 8
 386 0002 0190     		str	r0, [sp, #4]
 387              		.loc 5 91 0
 388 0004 019B     		ldr	r3, [sp, #4]
 389 0006 1B68     		ldr	r3, [r3]
 390 0008 044A     		ldr	r2, .L24
 391 000a 82FB0312 		smull	r1, r2, r2, r3
 392 000e 9214     		asrs	r2, r2, #18
 393 0010 DB17     		asrs	r3, r3, #31
 394 0012 D31A     		subs	r3, r2, r3
 395              		.loc 5 92 0
 396 0014 1846     		mov	r0, r3
ARM GAS  /tmp/cc5qDRak.s 			page 8


 397 0016 02B0     		add	sp, sp, #8
 398              		.cfi_def_cfa_offset 0
 399              		@ sp needed
 400 0018 7047     		bx	lr
 401              	.L25:
 402 001a 00BF     		.align	2
 403              	.L24:
 404 001c 83DE1B43 		.word	1125899907
 405              		.cfi_endproc
 406              	.LFE145:
 407              		.size	_ZNK3r2p4Time8to_s_rawEv, .-_ZNK3r2p4Time8to_s_rawEv
 408              		.section	.text._ZN3r2p4TimeaSERKS0_,"axG",%progbits,_ZN3r2p4TimeaSERKS0_,comdat
 409              		.align	2
 410              		.p2align 4,,15
 411              		.weak	_ZN3r2p4TimeaSERKS0_
 412              		.thumb
 413              		.thumb_func
 414              		.type	_ZN3r2p4TimeaSERKS0_, %function
 415              	_ZN3r2p4TimeaSERKS0_:
 416              	.LFB151:
 417              		.loc 5 131 0
 418              		.cfi_startproc
 419              		@ args = 0, pretend = 0, frame = 8
 420              		@ frame_needed = 0, uses_anonymous_args = 0
 421              		@ link register save eliminated.
 422 0000 82B0     		sub	sp, sp, #8
 423              		.cfi_def_cfa_offset 8
 424 0002 0190     		str	r0, [sp, #4]
 425 0004 0091     		str	r1, [sp]
 426              		.loc 5 133 0
 427 0006 009B     		ldr	r3, [sp]
 428 0008 1A68     		ldr	r2, [r3]
 429 000a 019B     		ldr	r3, [sp, #4]
 430 000c 1A60     		str	r2, [r3]
 431              		.loc 5 134 0
 432 000e 019B     		ldr	r3, [sp, #4]
 433              		.loc 5 135 0
 434 0010 1846     		mov	r0, r3
 435 0012 02B0     		add	sp, sp, #8
 436              		.cfi_def_cfa_offset 0
 437              		@ sp needed
 438 0014 7047     		bx	lr
 439              		.cfi_endproc
 440              	.LFE151:
 441              		.size	_ZN3r2p4TimeaSERKS0_, .-_ZN3r2p4TimeaSERKS0_
 442 0016 00BFAFF3 		.section	.text._ZN3r2p4TimeC2Ev,"axG",%progbits,_ZN3r2p4TimeC5Ev,comdat
 442      0080AFF3 
 442      0080
 443              		.align	2
 444              		.p2align 4,,15
 445              		.weak	_ZN3r2p4TimeC2Ev
 446              		.thumb
 447              		.thumb_func
 448              		.type	_ZN3r2p4TimeC2Ev, %function
 449              	_ZN3r2p4TimeC2Ev:
 450              	.LFB155:
 451              		.loc 5 155 0
ARM GAS  /tmp/cc5qDRak.s 			page 9


 452              		.cfi_startproc
 453              		@ args = 0, pretend = 0, frame = 8
 454              		@ frame_needed = 0, uses_anonymous_args = 0
 455              		@ link register save eliminated.
 456 0000 82B0     		sub	sp, sp, #8
 457              		.cfi_def_cfa_offset 8
 458 0002 0190     		str	r0, [sp, #4]
 459              	.LBB41:
 460              		.loc 5 155 0
 461 0004 019B     		ldr	r3, [sp, #4]
 462 0006 0022     		movs	r2, #0
 463 0008 1A60     		str	r2, [r3]
 464              	.LBE41:
 465 000a 019B     		ldr	r3, [sp, #4]
 466 000c 1846     		mov	r0, r3
 467 000e 02B0     		add	sp, sp, #8
 468              		.cfi_def_cfa_offset 0
 469              		@ sp needed
 470 0010 7047     		bx	lr
 471              		.cfi_endproc
 472              	.LFE155:
 473              		.size	_ZN3r2p4TimeC2Ev, .-_ZN3r2p4TimeC2Ev
 474              		.weak	_ZN3r2p4TimeC1Ev
 475              		.thumb_set _ZN3r2p4TimeC1Ev,_ZN3r2p4TimeC2Ev
 476 0012 00BFAFF3 		.section	.text._ZN3r2p4TimeC2ERKS0_,"axG",%progbits,_ZN3r2p4TimeC5ERKS0_,comdat
 476      0080AFF3 
 476      0080AFF3 
 476      0080
 477              		.align	2
 478              		.p2align 4,,15
 479              		.weak	_ZN3r2p4TimeC2ERKS0_
 480              		.thumb
 481              		.thumb_func
 482              		.type	_ZN3r2p4TimeC2ERKS0_, %function
 483              	_ZN3r2p4TimeC2ERKS0_:
 484              	.LFB162:
 485              		.loc 5 173 0
 486              		.cfi_startproc
 487              		@ args = 0, pretend = 0, frame = 8
 488              		@ frame_needed = 0, uses_anonymous_args = 0
 489              		@ link register save eliminated.
 490 0000 82B0     		sub	sp, sp, #8
 491              		.cfi_def_cfa_offset 8
 492 0002 0190     		str	r0, [sp, #4]
 493 0004 0091     		str	r1, [sp]
 494              	.LBB42:
 495              		.loc 5 173 0
 496 0006 009B     		ldr	r3, [sp]
 497 0008 1A68     		ldr	r2, [r3]
 498 000a 019B     		ldr	r3, [sp, #4]
 499 000c 1A60     		str	r2, [r3]
 500              	.LBE42:
 501 000e 019B     		ldr	r3, [sp, #4]
 502 0010 1846     		mov	r0, r3
 503 0012 02B0     		add	sp, sp, #8
 504              		.cfi_def_cfa_offset 0
 505              		@ sp needed
ARM GAS  /tmp/cc5qDRak.s 			page 10


 506 0014 7047     		bx	lr
 507              		.cfi_endproc
 508              	.LFE162:
 509              		.size	_ZN3r2p4TimeC2ERKS0_, .-_ZN3r2p4TimeC2ERKS0_
 510              		.weak	_ZN3r2p4TimeC1ERKS0_
 511              		.thumb_set _ZN3r2p4TimeC1ERKS0_,_ZN3r2p4TimeC2ERKS0_
 512 0016 00BFAFF3 		.section	.text._ZN3r2p4Time2msEl,"axG",%progbits,_ZN3r2p4Time2msEl,comdat
 512      0080AFF3 
 512      0080
 513              		.align	2
 514              		.p2align 4,,15
 515              		.weak	_ZN3r2p4Time2msEl
 516              		.thumb
 517              		.thumb_func
 518              		.type	_ZN3r2p4Time2msEl, %function
 519              	_ZN3r2p4Time2msEl:
 520              	.LFB165:
 521              		.loc 5 184 0
 522              		.cfi_startproc
 523              		@ args = 0, pretend = 0, frame = 8
 524              		@ frame_needed = 0, uses_anonymous_args = 0
 525 0000 00B5     		push	{lr}
 526              		.cfi_def_cfa_offset 4
 527              		.cfi_offset 14, -4
 528 0002 83B0     		sub	sp, sp, #12
 529              		.cfi_def_cfa_offset 16
 530 0004 0190     		str	r0, [sp, #4]
 531 0006 0091     		str	r1, [sp]
 532              		.loc 5 186 0
 533 0008 009B     		ldr	r3, [sp]
 534 000a 4FF47A72 		mov	r2, #1000
 535 000e 02FB03F3 		mul	r3, r2, r3
 536 0012 0198     		ldr	r0, [sp, #4]
 537 0014 1946     		mov	r1, r3
 538 0016 FFF7FEFF 		bl	_ZN3r2p4TimeC1IlEET_
 539              		.loc 5 187 0
 540 001a 0198     		ldr	r0, [sp, #4]
 541 001c 03B0     		add	sp, sp, #12
 542              		.cfi_def_cfa_offset 4
 543              		@ sp needed
 544 001e 5DF804FB 		ldr	pc, [sp], #4
 545              		.cfi_endproc
 546              	.LFE165:
 547              		.size	_ZN3r2p4Time2msEl, .-_ZN3r2p4Time2msEl
 548 0022 00BFAFF3 		.section	.text._ZN3r2pgeERKNS_4TimeES2_,"axG",%progbits,_ZN3r2pgeERKNS_4TimeES2_,comdat
 548      0080AFF3 
 548      0080AFF3 
 548      0080
 549              		.align	2
 550              		.p2align 4,,15
 551              		.weak	_ZN3r2pgeERKNS_4TimeES2_
 552              		.thumb
 553              		.thumb_func
 554              		.type	_ZN3r2pgeERKNS_4TimeES2_, %function
 555              	_ZN3r2pgeERKNS_4TimeES2_:
 556              	.LFB172:
 557              		.loc 5 235 0
ARM GAS  /tmp/cc5qDRak.s 			page 11


 558              		.cfi_startproc
 559              		@ args = 0, pretend = 0, frame = 8
 560              		@ frame_needed = 0, uses_anonymous_args = 0
 561              		@ link register save eliminated.
 562 0000 82B0     		sub	sp, sp, #8
 563              		.cfi_def_cfa_offset 8
 564 0002 0190     		str	r0, [sp, #4]
 565 0004 0091     		str	r1, [sp]
 566              		.loc 5 237 0
 567 0006 019B     		ldr	r3, [sp, #4]
 568 0008 1A68     		ldr	r2, [r3]
 569 000a 009B     		ldr	r3, [sp]
 570 000c 1B68     		ldr	r3, [r3]
 571 000e 9A42     		cmp	r2, r3
 572 0010 ACBF     		ite	ge
 573 0012 0123     		movge	r3, #1
 574 0014 0023     		movlt	r3, #0
 575 0016 DBB2     		uxtb	r3, r3
 576              		.loc 5 238 0
 577 0018 1846     		mov	r0, r3
 578 001a 02B0     		add	sp, sp, #8
 579              		.cfi_def_cfa_offset 0
 580              		@ sp needed
 581 001c 7047     		bx	lr
 582              		.cfi_endproc
 583              	.LFE172:
 584              		.size	_ZN3r2pgeERKNS_4TimeES2_, .-_ZN3r2pgeERKNS_4TimeES2_
 585 001e 00BF     		.section	.text._ZN3r2pplERKNS_4TimeES2_,"axG",%progbits,_ZN3r2pplERKNS_4TimeES2_,comdat
 586              		.align	2
 587              		.p2align 4,,15
 588              		.weak	_ZN3r2pplERKNS_4TimeES2_
 589              		.thumb
 590              		.thumb_func
 591              		.type	_ZN3r2pplERKNS_4TimeES2_, %function
 592              	_ZN3r2pplERKNS_4TimeES2_:
 593              	.LFB175:
 594              		.loc 5 256 0
 595              		.cfi_startproc
 596              		@ args = 0, pretend = 0, frame = 16
 597              		@ frame_needed = 0, uses_anonymous_args = 0
 598 0000 00B5     		push	{lr}
 599              		.cfi_def_cfa_offset 4
 600              		.cfi_offset 14, -4
 601 0002 85B0     		sub	sp, sp, #20
 602              		.cfi_def_cfa_offset 24
 603 0004 0390     		str	r0, [sp, #12]
 604 0006 0291     		str	r1, [sp, #8]
 605 0008 0192     		str	r2, [sp, #4]
 606              		.loc 5 258 0
 607 000a 029B     		ldr	r3, [sp, #8]
 608 000c 1A68     		ldr	r2, [r3]
 609 000e 019B     		ldr	r3, [sp, #4]
 610 0010 1B68     		ldr	r3, [r3]
 611 0012 1344     		add	r3, r3, r2
 612 0014 0398     		ldr	r0, [sp, #12]
 613 0016 1946     		mov	r1, r3
 614 0018 FFF7FEFF 		bl	_ZN3r2p4TimeC1IlEET_
ARM GAS  /tmp/cc5qDRak.s 			page 12


 615              		.loc 5 259 0
 616 001c 0398     		ldr	r0, [sp, #12]
 617 001e 05B0     		add	sp, sp, #20
 618              		.cfi_def_cfa_offset 4
 619              		@ sp needed
 620 0020 5DF804FB 		ldr	pc, [sp], #4
 621              		.cfi_endproc
 622              	.LFE175:
 623              		.size	_ZN3r2pplERKNS_4TimeES2_, .-_ZN3r2pplERKNS_4TimeES2_
 624 0024 AFF30080 		.section	.text._ZN3r2pmiERKNS_4TimeES2_,"axG",%progbits,_ZN3r2pmiERKNS_4TimeES2_,comdat
 624      AFF30080 
 624      AFF30080 
 625              		.align	2
 626              		.p2align 4,,15
 627              		.weak	_ZN3r2pmiERKNS_4TimeES2_
 628              		.thumb
 629              		.thumb_func
 630              		.type	_ZN3r2pmiERKNS_4TimeES2_, %function
 631              	_ZN3r2pmiERKNS_4TimeES2_:
 632              	.LFB176:
 633              		.loc 5 263 0
 634              		.cfi_startproc
 635              		@ args = 0, pretend = 0, frame = 16
 636              		@ frame_needed = 0, uses_anonymous_args = 0
 637 0000 00B5     		push	{lr}
 638              		.cfi_def_cfa_offset 4
 639              		.cfi_offset 14, -4
 640 0002 85B0     		sub	sp, sp, #20
 641              		.cfi_def_cfa_offset 24
 642 0004 0390     		str	r0, [sp, #12]
 643 0006 0291     		str	r1, [sp, #8]
 644 0008 0192     		str	r2, [sp, #4]
 645              		.loc 5 265 0
 646 000a 029B     		ldr	r3, [sp, #8]
 647 000c 1A68     		ldr	r2, [r3]
 648 000e 019B     		ldr	r3, [sp, #4]
 649 0010 1B68     		ldr	r3, [r3]
 650 0012 D31A     		subs	r3, r2, r3
 651 0014 0398     		ldr	r0, [sp, #12]
 652 0016 1946     		mov	r1, r3
 653 0018 FFF7FEFF 		bl	_ZN3r2p4TimeC1IlEET_
 654              		.loc 5 266 0
 655 001c 0398     		ldr	r0, [sp, #12]
 656 001e 05B0     		add	sp, sp, #20
 657              		.cfi_def_cfa_offset 4
 658              		@ sp needed
 659 0020 5DF804FB 		ldr	pc, [sp], #4
 660              		.cfi_endproc
 661              	.LFE176:
 662              		.size	_ZN3r2pmiERKNS_4TimeES2_, .-_ZN3r2pmiERKNS_4TimeES2_
 663 0024 AFF30080 		.section	.text._ZN3r2p7Message12reset_unsafeEv,"axG",%progbits,_ZN3r2p7Message12reset_unsafeEv,com
 663      AFF30080 
 663      AFF30080 
 664              		.align	2
 665              		.p2align 4,,15
 666              		.weak	_ZN3r2p7Message12reset_unsafeEv
 667              		.thumb
ARM GAS  /tmp/cc5qDRak.s 			page 13


 668              		.thumb_func
 669              		.type	_ZN3r2p7Message12reset_unsafeEv, %function
 670              	_ZN3r2p7Message12reset_unsafeEv:
 671              	.LFB181:
 672              		.file 6 "/home/ergae/r2p-sdk/core/Middleware/include/r2p/Message.hpp"
 673              		.loc 6 122 0
 674              		.cfi_startproc
 675              		@ args = 0, pretend = 0, frame = 8
 676              		@ frame_needed = 0, uses_anonymous_args = 0
 677              		@ link register save eliminated.
 678 0000 82B0     		sub	sp, sp, #8
 679              		.cfi_def_cfa_offset 8
 680 0002 0190     		str	r0, [sp, #4]
 681              		.loc 6 127 0
 682 0004 019B     		ldr	r3, [sp, #4]
 683 0006 0022     		movs	r2, #0
 684 0008 1A70     		strb	r2, [r3]
 685 000a 0022     		movs	r2, #0
 686 000c 5A70     		strb	r2, [r3, #1]
 687              		.loc 6 128 0
 688 000e 02B0     		add	sp, sp, #8
 689              		.cfi_def_cfa_offset 0
 690              		@ sp needed
 691 0010 7047     		bx	lr
 692              		.cfi_endproc
 693              	.LFE181:
 694              		.size	_ZN3r2p7Message12reset_unsafeEv, .-_ZN3r2p7Message12reset_unsafeEv
 695 0012 00BFAFF3 		.section	.text._ZN3r2p7MessageC2Ev,"axG",%progbits,_ZN3r2p7MessageC5Ev,comdat
 695      0080AFF3 
 695      0080AFF3 
 695      0080
 696              		.align	2
 697              		.p2align 4,,15
 698              		.weak	_ZN3r2p7MessageC2Ev
 699              		.thumb
 700              		.thumb_func
 701              		.type	_ZN3r2p7MessageC2Ev, %function
 702              	_ZN3r2p7MessageC2Ev:
 703              	.LFB183:
 704              		.loc 6 132 0
 705              		.cfi_startproc
 706              		@ args = 0, pretend = 0, frame = 8
 707              		@ frame_needed = 0, uses_anonymous_args = 0
 708              		@ link register save eliminated.
 709 0000 82B0     		sub	sp, sp, #8
 710              		.cfi_def_cfa_offset 8
 711 0002 0190     		str	r0, [sp, #4]
 712              	.LBB43:
 713              		.loc 6 137 0
 714 0004 019B     		ldr	r3, [sp, #4]
 715 0006 0022     		movs	r2, #0
 716 0008 1A70     		strb	r2, [r3]
 717 000a 0022     		movs	r2, #0
 718 000c 5A70     		strb	r2, [r3, #1]
 719              	.LBE43:
 720              		.loc 6 138 0
 721 000e 019B     		ldr	r3, [sp, #4]
ARM GAS  /tmp/cc5qDRak.s 			page 14


 722 0010 1846     		mov	r0, r3
 723 0012 02B0     		add	sp, sp, #8
 724              		.cfi_def_cfa_offset 0
 725              		@ sp needed
 726 0014 7047     		bx	lr
 727              		.cfi_endproc
 728              	.LFE183:
 729              		.size	_ZN3r2p7MessageC2Ev, .-_ZN3r2p7MessageC2Ev
 730              		.weak	_ZN3r2p7MessageC1Ev
 731              		.thumb_set _ZN3r2p7MessageC1Ev,_ZN3r2p7MessageC2Ev
 732 0016 00BFAFF3 		.section	.text._ZN3r2p7Message16get_payload_sizeEj,"axG",%progbits,_ZN3r2p7Message16get_payload_si
 732      0080AFF3 
 732      0080
 733              		.align	2
 734              		.p2align 4,,15
 735              		.weak	_ZN3r2p7Message16get_payload_sizeEj
 736              		.thumb
 737              		.thumb_func
 738              		.type	_ZN3r2p7Message16get_payload_sizeEj, %function
 739              	_ZN3r2p7Message16get_payload_sizeEj:
 740              	.LFB185:
 741              		.loc 6 142 0
 742              		.cfi_startproc
 743              		@ args = 0, pretend = 0, frame = 8
 744              		@ frame_needed = 0, uses_anonymous_args = 0
 745              		@ link register save eliminated.
 746 0000 82B0     		sub	sp, sp, #8
 747              		.cfi_def_cfa_offset 8
 748 0002 0190     		str	r0, [sp, #4]
 749              		.loc 6 147 0
 750 0004 019B     		ldr	r3, [sp, #4]
 751 0006 023B     		subs	r3, r3, #2
 752              		.loc 6 149 0
 753 0008 1846     		mov	r0, r3
 754 000a 02B0     		add	sp, sp, #8
 755              		.cfi_def_cfa_offset 0
 756              		@ sp needed
 757 000c 7047     		bx	lr
 758              		.cfi_endproc
 759              	.LFE185:
 760              		.size	_ZN3r2p7Message16get_payload_sizeEj, .-_ZN3r2p7Message16get_payload_sizeEj
 761 000e 00BF     		.section	.text._ZNK3r2p13BasePublisher9get_topicEv,"axG",%progbits,_ZNK3r2p13BasePublisher9get_top
 762              		.align	2
 763              		.p2align 4,,15
 764              		.weak	_ZNK3r2p13BasePublisher9get_topicEv
 765              		.thumb
 766              		.thumb_func
 767              		.type	_ZNK3r2p13BasePublisher9get_topicEv, %function
 768              	_ZNK3r2p13BasePublisher9get_topicEv:
 769              	.LFB190:
 770              		.file 7 "/home/ergae/r2p-sdk/core/Middleware/include/r2p/BasePublisher.hpp"
 771              		.loc 7 48 0
 772              		.cfi_startproc
 773              		@ args = 0, pretend = 0, frame = 8
 774              		@ frame_needed = 0, uses_anonymous_args = 0
 775              		@ link register save eliminated.
 776 0000 82B0     		sub	sp, sp, #8
ARM GAS  /tmp/cc5qDRak.s 			page 15


 777              		.cfi_def_cfa_offset 8
 778 0002 0190     		str	r0, [sp, #4]
 779              		.loc 7 50 0
 780 0004 019B     		ldr	r3, [sp, #4]
 781 0006 5B68     		ldr	r3, [r3, #4]
 782              		.loc 7 51 0
 783 0008 1846     		mov	r0, r3
 784 000a 02B0     		add	sp, sp, #8
 785              		.cfi_def_cfa_offset 0
 786              		@ sp needed
 787 000c 7047     		bx	lr
 788              		.cfi_endproc
 789              	.LFE190:
 790              		.size	_ZNK3r2p13BasePublisher9get_topicEv, .-_ZNK3r2p13BasePublisher9get_topicEv
 791 000e 00BF     		.section	.rodata
 792              		.align	2
 793              	.LC0:
 794 0000 5232505F 		.ascii	"R2P_ASSERT()\000"
 794      41535345 
 794      52542829 
 794      00
 795              		.section	.text._ZN3r2p13BasePublisher17notify_advertisedERNS_5TopicE,"axG",%progbits,_ZN3r2p13Base
 796              		.align	2
 797              		.p2align 4,,15
 798              		.weak	_ZN3r2p13BasePublisher17notify_advertisedERNS_5TopicE
 799              		.thumb
 800              		.thumb_func
 801              		.type	_ZN3r2p13BasePublisher17notify_advertisedERNS_5TopicE, %function
 802              	_ZN3r2p13BasePublisher17notify_advertisedERNS_5TopicE:
 803              	.LFB191:
 804              		.loc 7 55 0
 805              		.cfi_startproc
 806              		@ args = 0, pretend = 0, frame = 8
 807              		@ frame_needed = 0, uses_anonymous_args = 0
 808 0000 00B5     		push	{lr}
 809              		.cfi_def_cfa_offset 4
 810              		.cfi_offset 14, -4
 811 0002 83B0     		sub	sp, sp, #12
 812              		.cfi_def_cfa_offset 16
 813 0004 0190     		str	r0, [sp, #4]
 814 0006 0091     		str	r1, [sp]
 815              		.loc 7 57 0
 816 0008 019B     		ldr	r3, [sp, #4]
 817 000a 5B68     		ldr	r3, [r3, #4]
 818 000c 002B     		cmp	r3, #0
 819 000e 02D0     		beq	.L51
 820              		.loc 7 57 0 is_stmt 0 discriminator 1
 821 0010 0448     		ldr	r0, .L52
 822 0012 FFF7FEFF 		bl	chDbgPanic
 823              	.L51:
 824              		.loc 7 59 0 is_stmt 1
 825 0016 019B     		ldr	r3, [sp, #4]
 826 0018 009A     		ldr	r2, [sp]
 827 001a 5A60     		str	r2, [r3, #4]
 828              		.loc 7 60 0
 829 001c 03B0     		add	sp, sp, #12
 830              		.cfi_def_cfa_offset 4
ARM GAS  /tmp/cc5qDRak.s 			page 16


 831              		@ sp needed
 832 001e 5DF804FB 		ldr	pc, [sp], #4
 833              	.L53:
 834 0022 00BF     		.align	2
 835              	.L52:
 836 0024 00000000 		.word	.LC0
 837              		.cfi_endproc
 838              	.LFE191:
 839              		.size	_ZN3r2p13BasePublisher17notify_advertisedERNS_5TopicE, .-_ZN3r2p13BasePublisher17notify_adve
 840 0028 AFF30080 		.section	.text._ZN3r2p13BasePublisher12alloc_unsafeERPNS_7MessageE,"axG",%progbits,_ZN3r2p13BasePu
 840      AFF30080 
 841              		.align	2
 842              		.p2align 4,,15
 843              		.weak	_ZN3r2p13BasePublisher12alloc_unsafeERPNS_7MessageE
 844              		.thumb
 845              		.thumb_func
 846              		.type	_ZN3r2p13BasePublisher12alloc_unsafeERPNS_7MessageE, %function
 847              	_ZN3r2p13BasePublisher12alloc_unsafeERPNS_7MessageE:
 848              	.LFB192:
 849              		.loc 7 64 0
 850              		.cfi_startproc
 851              		@ args = 0, pretend = 0, frame = 8
 852              		@ frame_needed = 0, uses_anonymous_args = 0
 853 0000 00B5     		push	{lr}
 854              		.cfi_def_cfa_offset 4
 855              		.cfi_offset 14, -4
 856 0002 83B0     		sub	sp, sp, #12
 857              		.cfi_def_cfa_offset 16
 858 0004 0190     		str	r0, [sp, #4]
 859 0006 0091     		str	r1, [sp]
 860              		.loc 7 66 0
 861 0008 019B     		ldr	r3, [sp, #4]
 862 000a 5B68     		ldr	r3, [r3, #4]
 863 000c 002B     		cmp	r3, #0
 864 000e 02D1     		bne	.L55
 865              		.loc 7 66 0 is_stmt 0 discriminator 1
 866 0010 0A48     		ldr	r0, .L57
 867 0012 FFF7FEFF 		bl	chDbgPanic
 868              	.L55:
 869              		.loc 7 68 0 is_stmt 1
 870 0016 019B     		ldr	r3, [sp, #4]
 871 0018 5B68     		ldr	r3, [r3, #4]
 872 001a 1846     		mov	r0, r3
 873 001c FFF7FEFF 		bl	_ZN3r2p5Topic12alloc_unsafeEv
 874 0020 0246     		mov	r2, r0
 875 0022 009B     		ldr	r3, [sp]
 876 0024 1A60     		str	r2, [r3]
 877              		.loc 7 69 0
 878 0026 009B     		ldr	r3, [sp]
 879 0028 1B68     		ldr	r3, [r3]
 880 002a 002B     		cmp	r3, #0
 881 002c 14BF     		ite	ne
 882 002e 0123     		movne	r3, #1
 883 0030 0023     		moveq	r3, #0
 884 0032 DBB2     		uxtb	r3, r3
 885              		.loc 7 70 0
 886 0034 1846     		mov	r0, r3
ARM GAS  /tmp/cc5qDRak.s 			page 17


 887 0036 03B0     		add	sp, sp, #12
 888              		.cfi_def_cfa_offset 4
 889              		@ sp needed
 890 0038 5DF804FB 		ldr	pc, [sp], #4
 891              	.L58:
 892              		.align	2
 893              	.L57:
 894 003c 00000000 		.word	.LC0
 895              		.cfi_endproc
 896              	.LFE192:
 897              		.size	_ZN3r2p13BasePublisher12alloc_unsafeERPNS_7MessageE, .-_ZN3r2p13BasePublisher12alloc_unsafeE
 898              		.section	.text._ZN3r2p13BasePublisher5allocERPNS_7MessageE,"axG",%progbits,_ZN3r2p13BasePublisher5
 899              		.align	2
 900              		.p2align 4,,15
 901              		.weak	_ZN3r2p13BasePublisher5allocERPNS_7MessageE
 902              		.thumb
 903              		.thumb_func
 904              		.type	_ZN3r2p13BasePublisher5allocERPNS_7MessageE, %function
 905              	_ZN3r2p13BasePublisher5allocERPNS_7MessageE:
 906              	.LFB193:
 907              		.loc 7 74 0
 908              		.cfi_startproc
 909              		@ args = 0, pretend = 0, frame = 16
 910              		@ frame_needed = 0, uses_anonymous_args = 0
 911 0000 00B5     		push	{lr}
 912              		.cfi_def_cfa_offset 4
 913              		.cfi_offset 14, -4
 914 0002 85B0     		sub	sp, sp, #20
 915              		.cfi_def_cfa_offset 24
 916 0004 0190     		str	r0, [sp, #4]
 917 0006 0091     		str	r1, [sp]
 918              	.LBB44:
 919              		.loc 7 76 0
 920 0008 FFF7FEFF 		bl	_ZN3r2p7SysLock7acquireEv
 921              		.loc 7 77 0
 922 000c 0198     		ldr	r0, [sp, #4]
 923 000e 0099     		ldr	r1, [sp]
 924 0010 FFF7FEFF 		bl	_ZN3r2p13BasePublisher12alloc_unsafeERPNS_7MessageE
 925 0014 0346     		mov	r3, r0
 926 0016 8DF80F30 		strb	r3, [sp, #15]
 927              		.loc 7 78 0
 928 001a FFF7FEFF 		bl	_ZN3r2p7SysLock7releaseEv
 929              		.loc 7 79 0
 930 001e 9DF80F30 		ldrb	r3, [sp, #15]	@ zero_extendqisi2
 931              	.LBE44:
 932              		.loc 7 80 0
 933 0022 1846     		mov	r0, r3
 934 0024 05B0     		add	sp, sp, #20
 935              		.cfi_def_cfa_offset 4
 936              		@ sp needed
 937 0026 5DF804FB 		ldr	pc, [sp], #4
 938              		.cfi_endproc
 939              	.LFE193:
 940              		.size	_ZN3r2p13BasePublisher5allocERPNS_7MessageE, .-_ZN3r2p13BasePublisher5allocERPNS_7MessageE
 941 002a 00BFAFF3 		.section	.text._ZN3r2p13BasePublisher16publish_remotelyERNS_7MessageE,"axG",%progbits,_ZN3r2p13Bas
 941      0080
 942              		.align	2
ARM GAS  /tmp/cc5qDRak.s 			page 18


 943              		.p2align 4,,15
 944              		.weak	_ZN3r2p13BasePublisher16publish_remotelyERNS_7MessageE
 945              		.thumb
 946              		.thumb_func
 947              		.type	_ZN3r2p13BasePublisher16publish_remotelyERNS_7MessageE, %function
 948              	_ZN3r2p13BasePublisher16publish_remotelyERNS_7MessageE:
 949              	.LFB195:
 950              		.loc 7 93 0
 951              		.cfi_startproc
 952              		@ args = 0, pretend = 0, frame = 16
 953              		@ frame_needed = 0, uses_anonymous_args = 0
 954 0000 10B5     		push	{r4, lr}
 955              		.cfi_def_cfa_offset 8
 956              		.cfi_offset 4, -8
 957              		.cfi_offset 14, -4
 958 0002 84B0     		sub	sp, sp, #16
 959              		.cfi_def_cfa_offset 24
 960 0004 0190     		str	r0, [sp, #4]
 961 0006 0091     		str	r1, [sp]
 962              		.loc 7 95 0
 963 0008 019B     		ldr	r3, [sp, #4]
 964 000a 5B68     		ldr	r3, [r3, #4]
 965 000c 002B     		cmp	r3, #0
 966 000e 02D1     		bne	.L62
 967              		.loc 7 95 0 is_stmt 0 discriminator 1
 968 0010 0948     		ldr	r0, .L64
 969 0012 FFF7FEFF 		bl	chDbgPanic
 970              	.L62:
 971              		.loc 7 97 0 is_stmt 1
 972 0016 019B     		ldr	r3, [sp, #4]
 973 0018 5C68     		ldr	r4, [r3, #4]
 974 001a 03AB     		add	r3, sp, #12
 975 001c 1846     		mov	r0, r3
 976 001e FFF7FEFF 		bl	_ZN3r2p4Time3nowEv
 977 0022 03AB     		add	r3, sp, #12
 978 0024 2046     		mov	r0, r4
 979 0026 0099     		ldr	r1, [sp]
 980 0028 1A46     		mov	r2, r3
 981 002a FFF7FEFF 		bl	_ZN3r2p5Topic14notify_remotesERNS_7MessageERKNS_4TimeE
 982 002e 0346     		mov	r3, r0
 983              		.loc 7 98 0
 984 0030 1846     		mov	r0, r3
 985 0032 04B0     		add	sp, sp, #16
 986              		.cfi_def_cfa_offset 8
 987              		@ sp needed
 988 0034 10BD     		pop	{r4, pc}
 989              	.L65:
 990 0036 00BF     		.align	2
 991              	.L64:
 992 0038 00000000 		.word	.LC0
 993              		.cfi_endproc
 994              	.LFE195:
 995              		.size	_ZN3r2p13BasePublisher16publish_remotelyERNS_7MessageE, .-_ZN3r2p13BasePublisher16publish_re
 996 003c AFF30080 		.section	.text._ZNK3r2p14BaseSubscriber9get_topicEv,"axG",%progbits,_ZNK3r2p14BaseSubscriber9get_t
 997              		.align	2
 998              		.p2align 4,,15
 999              		.weak	_ZNK3r2p14BaseSubscriber9get_topicEv
ARM GAS  /tmp/cc5qDRak.s 			page 19


 1000              		.thumb
 1001              		.thumb_func
 1002              		.type	_ZNK3r2p14BaseSubscriber9get_topicEv, %function
 1003              	_ZNK3r2p14BaseSubscriber9get_topicEv:
 1004              	.LFB217:
 1005              		.file 8 "/home/ergae/r2p-sdk/core/Middleware/include/r2p/BaseSubscriber.hpp"
 1006              		.loc 8 42 0
 1007              		.cfi_startproc
 1008              		@ args = 0, pretend = 0, frame = 8
 1009              		@ frame_needed = 0, uses_anonymous_args = 0
 1010              		@ link register save eliminated.
 1011 0000 82B0     		sub	sp, sp, #8
 1012              		.cfi_def_cfa_offset 8
 1013 0002 0190     		str	r0, [sp, #4]
 1014              		.loc 8 44 0
 1015 0004 019B     		ldr	r3, [sp, #4]
 1016 0006 5B68     		ldr	r3, [r3, #4]
 1017              		.loc 8 45 0
 1018 0008 1846     		mov	r0, r3
 1019 000a 02B0     		add	sp, sp, #8
 1020              		.cfi_def_cfa_offset 0
 1021              		@ sp needed
 1022 000c 7047     		bx	lr
 1023              		.cfi_endproc
 1024              	.LFE217:
 1025              		.size	_ZNK3r2p14BaseSubscriber9get_topicEv, .-_ZNK3r2p14BaseSubscriber9get_topicEv
 1026 000e 00BF     		.section	.text._ZN3r2p14BaseSubscriber17notify_subscribedERNS_5TopicE,"axG",%progbits,_ZN3r2p14Bas
 1027              		.align	2
 1028              		.p2align 4,,15
 1029              		.weak	_ZN3r2p14BaseSubscriber17notify_subscribedERNS_5TopicE
 1030              		.thumb
 1031              		.thumb_func
 1032              		.type	_ZN3r2p14BaseSubscriber17notify_subscribedERNS_5TopicE, %function
 1033              	_ZN3r2p14BaseSubscriber17notify_subscribedERNS_5TopicE:
 1034              	.LFB218:
 1035              		.loc 8 49 0
 1036              		.cfi_startproc
 1037              		@ args = 0, pretend = 0, frame = 8
 1038              		@ frame_needed = 0, uses_anonymous_args = 0
 1039 0000 00B5     		push	{lr}
 1040              		.cfi_def_cfa_offset 4
 1041              		.cfi_offset 14, -4
 1042 0002 83B0     		sub	sp, sp, #12
 1043              		.cfi_def_cfa_offset 16
 1044 0004 0190     		str	r0, [sp, #4]
 1045 0006 0091     		str	r1, [sp]
 1046              		.loc 8 51 0
 1047 0008 019B     		ldr	r3, [sp, #4]
 1048 000a 5B68     		ldr	r3, [r3, #4]
 1049 000c 002B     		cmp	r3, #0
 1050 000e 02D0     		beq	.L69
 1051              		.loc 8 51 0 is_stmt 0 discriminator 1
 1052 0010 0448     		ldr	r0, .L70
 1053 0012 FFF7FEFF 		bl	chDbgPanic
 1054              	.L69:
 1055              		.loc 8 53 0 is_stmt 1
 1056 0016 019B     		ldr	r3, [sp, #4]
ARM GAS  /tmp/cc5qDRak.s 			page 20


 1057 0018 009A     		ldr	r2, [sp]
 1058 001a 5A60     		str	r2, [r3, #4]
 1059              		.loc 8 54 0
 1060 001c 03B0     		add	sp, sp, #12
 1061              		.cfi_def_cfa_offset 4
 1062              		@ sp needed
 1063 001e 5DF804FB 		ldr	pc, [sp], #4
 1064              	.L71:
 1065 0022 00BF     		.align	2
 1066              	.L70:
 1067 0024 00000000 		.word	.LC0
 1068              		.cfi_endproc
 1069              	.LFE218:
 1070              		.size	_ZN3r2p14BaseSubscriber17notify_subscribedERNS_5TopicE, .-_ZN3r2p14BaseSubscriber17notify_su
 1071 0028 AFF30080 		.section	.text._ZN3r2p7Thread_13create_staticEPvjmPFlS1_ES1_PKc,"axG",%progbits,_ZN3r2p7Thread_13c
 1071      AFF30080 
 1072              		.align	2
 1073              		.p2align 4,,15
 1074              		.weak	_ZN3r2p7Thread_13create_staticEPvjmPFlS1_ES1_PKc
 1075              		.thumb
 1076              		.thumb_func
 1077              		.type	_ZN3r2p7Thread_13create_staticEPvjmPFlS1_ES1_PKc, %function
 1078              	_ZN3r2p7Thread_13create_staticEPvjmPFlS1_ES1_PKc:
 1079              	.LFB222:
 1080              		.file 9 "/home/ergae/r2p-sdk/core/Middleware/port/chibios/include/r2p/impl/Thread_.hpp"
 1081              		.loc 9 95 0
 1082              		.cfi_startproc
 1083              		@ args = 8, pretend = 0, frame = 24
 1084              		@ frame_needed = 0, uses_anonymous_args = 0
 1085 0000 00B5     		push	{lr}
 1086              		.cfi_def_cfa_offset 4
 1087              		.cfi_offset 14, -4
 1088 0002 89B0     		sub	sp, sp, #36
 1089              		.cfi_def_cfa_offset 40
 1090 0004 0590     		str	r0, [sp, #20]
 1091 0006 0491     		str	r1, [sp, #16]
 1092 0008 0392     		str	r2, [sp, #12]
 1093 000a 0293     		str	r3, [sp, #8]
 1094              	.LBB45:
 1095              		.loc 9 100 0
 1096 000c 0A9B     		ldr	r3, [sp, #40]
 1097 000e 0093     		str	r3, [sp]
 1098 0010 0598     		ldr	r0, [sp, #20]
 1099 0012 0499     		ldr	r1, [sp, #16]
 1100 0014 039A     		ldr	r2, [sp, #12]
 1101 0016 029B     		ldr	r3, [sp, #8]
 1102 0018 FFF7FEFF 		bl	chThdCreateStatic
 1103 001c 0790     		str	r0, [sp, #28]
 1104              		.loc 9 102 0
 1105 001e 079B     		ldr	r3, [sp, #28]
 1106 0020 002B     		cmp	r3, #0
 1107 0022 02D0     		beq	.L73
 1108              		.loc 9 103 0
 1109 0024 079B     		ldr	r3, [sp, #28]
 1110 0026 0B9A     		ldr	r2, [sp, #44]
 1111 0028 9A61     		str	r2, [r3, #24]
 1112              	.L73:
ARM GAS  /tmp/cc5qDRak.s 			page 21


 1113              		.loc 9 108 0
 1114 002a 079B     		ldr	r3, [sp, #28]
 1115              	.LBE45:
 1116              		.loc 9 109 0
 1117 002c 1846     		mov	r0, r3
 1118 002e 09B0     		add	sp, sp, #36
 1119              		.cfi_def_cfa_offset 4
 1120              		@ sp needed
 1121 0030 5DF804FB 		ldr	pc, [sp], #4
 1122              		.cfi_endproc
 1123              	.LFE222:
 1124              		.size	_ZN3r2p7Thread_13create_staticEPvjmPFlS1_ES1_PKc, .-_ZN3r2p7Thread_13create_staticEPvjmPFlS1
 1125 0034 AFF30080 		.section	.text._ZN3r2p7Thread_4selfEv,"axG",%progbits,_ZN3r2p7Thread_4selfEv,comdat
 1125      AFF30080 
 1125      AFF30080 
 1126              		.align	2
 1127              		.p2align 4,,15
 1128              		.weak	_ZN3r2p7Thread_4selfEv
 1129              		.thumb
 1130              		.thumb_func
 1131              		.type	_ZN3r2p7Thread_4selfEv, %function
 1132              	_ZN3r2p7Thread_4selfEv:
 1133              	.LFB225:
 1134              		.loc 9 152 0
 1135              		.cfi_startproc
 1136              		@ args = 0, pretend = 0, frame = 0
 1137              		@ frame_needed = 0, uses_anonymous_args = 0
 1138              		@ link register save eliminated.
 1139              		.loc 9 154 0
 1140 0000 014B     		ldr	r3, .L77
 1141 0002 9B69     		ldr	r3, [r3, #24]
 1142              		.loc 9 155 0
 1143 0004 1846     		mov	r0, r3
 1144 0006 7047     		bx	lr
 1145              	.L78:
 1146              		.align	2
 1147              	.L77:
 1148 0008 00000000 		.word	rlist
 1149              		.cfi_endproc
 1150              	.LFE225:
 1151              		.size	_ZN3r2p7Thread_4selfEv, .-_ZN3r2p7Thread_4selfEv
 1152 000c AFF30080 		.section	.text._ZN3r2p7Thread_5sleepERKNS_4TimeE,"axG",%progbits,_ZN3r2p7Thread_5sleepERKNS_4TimeE
 1153              		.align	2
 1154              		.p2align 4,,15
 1155              		.weak	_ZN3r2p7Thread_5sleepERKNS_4TimeE
 1156              		.thumb
 1157              		.thumb_func
 1158              		.type	_ZN3r2p7Thread_5sleepERKNS_4TimeE, %function
 1159              	_ZN3r2p7Thread_5sleepERKNS_4TimeE:
 1160              	.LFB229:
 1161              		.loc 9 180 0
 1162              		.cfi_startproc
 1163              		@ args = 0, pretend = 0, frame = 8
 1164              		@ frame_needed = 0, uses_anonymous_args = 0
 1165 0000 00B5     		push	{lr}
 1166              		.cfi_def_cfa_offset 4
 1167              		.cfi_offset 14, -4
ARM GAS  /tmp/cc5qDRak.s 			page 22


 1168 0002 83B0     		sub	sp, sp, #12
 1169              		.cfi_def_cfa_offset 16
 1170 0004 0190     		str	r0, [sp, #4]
 1171              		.loc 9 182 0
 1172 0006 019B     		ldr	r3, [sp, #4]
 1173 0008 1B68     		ldr	r3, [r3]
 1174 000a 002B     		cmp	r3, #0
 1175 000c 21DD     		ble	.L80
 1176              		.loc 9 183 0
 1177 000e 019B     		ldr	r3, [sp, #4]
 1178 0010 1B68     		ldr	r3, [r3]
 1179 0012 124A     		ldr	r2, .L84
 1180 0014 9342     		cmp	r3, r2
 1181 0016 10DC     		bgt	.L81
 1182              		.loc 9 184 0
 1183 0018 019B     		ldr	r3, [sp, #4]
 1184 001a 1B68     		ldr	r3, [r3]
 1185 001c 1A46     		mov	r2, r3
 1186 001e 4FF47A73 		mov	r3, #1000
 1187 0022 03FB02F3 		mul	r3, r3, r2
 1188 0026 013B     		subs	r3, r3, #1
 1189 0028 0D4A     		ldr	r2, .L84+4
 1190 002a A2FB0323 		umull	r2, r3, r2, r3
 1191 002e 9B0C     		lsrs	r3, r3, #18
 1192 0030 0133     		adds	r3, r3, #1
 1193 0032 1846     		mov	r0, r3
 1194 0034 FFF7FEFF 		bl	chThdSleep
 1195 0038 0DE0     		b	.L79
 1196              	.L81:
 1197              		.loc 9 186 0
 1198 003a 0198     		ldr	r0, [sp, #4]
 1199 003c FFF7FEFF 		bl	_ZNK3r2p4Time8to_s_rawEv
 1200 0040 0246     		mov	r2, r0
 1201 0042 4FF47A73 		mov	r3, #1000
 1202 0046 03FB02F3 		mul	r3, r3, r2
 1203 004a 1846     		mov	r0, r3
 1204 004c FFF7FEFF 		bl	chThdSleep
 1205 0050 01E0     		b	.L79
 1206              	.L80:
 1207              		.loc 9 189 0
 1208 0052 FFF7FEFF 		bl	chThdYield
 1209              	.L79:
 1210              		.loc 9 191 0
 1211 0056 03B0     		add	sp, sp, #12
 1212              		.cfi_def_cfa_offset 4
 1213              		@ sp needed
 1214 0058 5DF804FB 		ldr	pc, [sp], #4
 1215              	.L85:
 1216              		.align	2
 1217              	.L84:
 1218 005c 3F420F00 		.word	999999
 1219 0060 83DE1B43 		.word	1125899907
 1220              		.cfi_endproc
 1221              	.LFE229:
 1222              		.size	_ZN3r2p7Thread_5sleepERKNS_4TimeE, .-_ZN3r2p7Thread_5sleepERKNS_4TimeE
 1223 0064 AFF30080 		.section	.text._ZN3r2p6Thread13create_staticEPvjmPFlS1_ES1_PKc,"axG",%progbits,_ZN3r2p6Thread13cre
 1223      AFF30080 
ARM GAS  /tmp/cc5qDRak.s 			page 23


 1223      AFF30080 
 1224              		.align	2
 1225              		.p2align 4,,15
 1226              		.weak	_ZN3r2p6Thread13create_staticEPvjmPFlS1_ES1_PKc
 1227              		.thumb
 1228              		.thumb_func
 1229              		.type	_ZN3r2p6Thread13create_staticEPvjmPFlS1_ES1_PKc, %function
 1230              	_ZN3r2p6Thread13create_staticEPvjmPFlS1_ES1_PKc:
 1231              	.LFB233:
 1232              		.file 10 "/home/ergae/r2p-sdk/core/Middleware/include/r2p/Thread.hpp"
 1233              		.loc 10 81 0
 1234              		.cfi_startproc
 1235              		@ args = 8, pretend = 0, frame = 16
 1236              		@ frame_needed = 0, uses_anonymous_args = 0
 1237 0000 00B5     		push	{lr}
 1238              		.cfi_def_cfa_offset 4
 1239              		.cfi_offset 14, -4
 1240 0002 87B0     		sub	sp, sp, #28
 1241              		.cfi_def_cfa_offset 32
 1242 0004 0590     		str	r0, [sp, #20]
 1243 0006 0491     		str	r1, [sp, #16]
 1244 0008 0392     		str	r2, [sp, #12]
 1245 000a 0293     		str	r3, [sp, #8]
 1246              		.loc 10 85 0
 1247 000c 089B     		ldr	r3, [sp, #32]
 1248 000e 0093     		str	r3, [sp]
 1249 0010 099B     		ldr	r3, [sp, #36]
 1250 0012 0193     		str	r3, [sp, #4]
 1251 0014 0598     		ldr	r0, [sp, #20]
 1252 0016 0499     		ldr	r1, [sp, #16]
 1253 0018 039A     		ldr	r2, [sp, #12]
 1254 001a 029B     		ldr	r3, [sp, #8]
 1255 001c FFF7FEFF 		bl	_ZN3r2p7Thread_13create_staticEPvjmPFlS1_ES1_PKc
 1256 0020 0346     		mov	r3, r0
 1257              		.loc 10 86 0
 1258 0022 1846     		mov	r0, r3
 1259 0024 07B0     		add	sp, sp, #28
 1260              		.cfi_def_cfa_offset 4
 1261              		@ sp needed
 1262 0026 5DF804FB 		ldr	pc, [sp], #4
 1263              		.cfi_endproc
 1264              	.LFE233:
 1265              		.size	_ZN3r2p6Thread13create_staticEPvjmPFlS1_ES1_PKc, .-_ZN3r2p6Thread13create_staticEPvjmPFlS1_E
 1266 002a 00BFAFF3 		.section	.text._ZN3r2p6Thread4selfEv,"axG",%progbits,_ZN3r2p6Thread4selfEv,comdat
 1266      0080
 1267              		.align	2
 1268              		.p2align 4,,15
 1269              		.weak	_ZN3r2p6Thread4selfEv
 1270              		.thumb
 1271              		.thumb_func
 1272              		.type	_ZN3r2p6Thread4selfEv, %function
 1273              	_ZN3r2p6Thread4selfEv:
 1274              	.LFB236:
 1275              		.loc 10 112 0
 1276              		.cfi_startproc
 1277              		@ args = 0, pretend = 0, frame = 0
 1278              		@ frame_needed = 0, uses_anonymous_args = 0
ARM GAS  /tmp/cc5qDRak.s 			page 24


 1279 0000 08B5     		push	{r3, lr}
 1280              		.cfi_def_cfa_offset 8
 1281              		.cfi_offset 3, -8
 1282              		.cfi_offset 14, -4
 1283              		.loc 10 114 0
 1284 0002 FFF7FEFF 		bl	_ZN3r2p7Thread_4selfEv
 1285 0006 0346     		mov	r3, r0
 1286              		.loc 10 115 0
 1287 0008 1846     		mov	r0, r3
 1288 000a 08BD     		pop	{r3, pc}
 1289              		.cfi_endproc
 1290              	.LFE236:
 1291              		.size	_ZN3r2p6Thread4selfEv, .-_ZN3r2p6Thread4selfEv
 1292 000c AFF30080 		.section	.text._ZN3r2p6Thread5sleepERKNS_4TimeE,"axG",%progbits,_ZN3r2p6Thread5sleepERKNS_4TimeE,c
 1293              		.align	2
 1294              		.p2align 4,,15
 1295              		.weak	_ZN3r2p6Thread5sleepERKNS_4TimeE
 1296              		.thumb
 1297              		.thumb_func
 1298              		.type	_ZN3r2p6Thread5sleepERKNS_4TimeE, %function
 1299              	_ZN3r2p6Thread5sleepERKNS_4TimeE:
 1300              	.LFB240:
 1301              		.loc 10 140 0
 1302              		.cfi_startproc
 1303              		@ args = 0, pretend = 0, frame = 8
 1304              		@ frame_needed = 0, uses_anonymous_args = 0
 1305 0000 00B5     		push	{lr}
 1306              		.cfi_def_cfa_offset 4
 1307              		.cfi_offset 14, -4
 1308 0002 83B0     		sub	sp, sp, #12
 1309              		.cfi_def_cfa_offset 16
 1310 0004 0190     		str	r0, [sp, #4]
 1311              		.loc 10 142 0
 1312 0006 0198     		ldr	r0, [sp, #4]
 1313 0008 FFF7FEFF 		bl	_ZN3r2p7Thread_5sleepERKNS_4TimeE
 1314              		.loc 10 143 0
 1315 000c 03B0     		add	sp, sp, #12
 1316              		.cfi_def_cfa_offset 4
 1317              		@ sp needed
 1318 000e 5DF804FB 		ldr	pc, [sp], #4
 1319              		.cfi_endproc
 1320              	.LFE240:
 1321              		.size	_ZN3r2p6Thread5sleepERKNS_4TimeE, .-_ZN3r2p6Thread5sleepERKNS_4TimeE
 1322 0012 00BFAFF3 		.section	.text._ZNK3r2p10SpinEvent_10get_threadEv,"axG",%progbits,_ZNK3r2p10SpinEvent_10get_thread
 1322      0080AFF3 
 1322      0080AFF3 
 1322      0080
 1323              		.align	2
 1324              		.p2align 4,,15
 1325              		.weak	_ZNK3r2p10SpinEvent_10get_threadEv
 1326              		.thumb
 1327              		.thumb_func
 1328              		.type	_ZNK3r2p10SpinEvent_10get_threadEv, %function
 1329              	_ZNK3r2p10SpinEvent_10get_threadEv:
 1330              	.LFB242:
 1331              		.file 11 "/home/ergae/r2p-sdk/core/Middleware/port/chibios/include/r2p/impl/SpinEvent_.hpp"
 1332              		.loc 11 36 0
ARM GAS  /tmp/cc5qDRak.s 			page 25


 1333              		.cfi_startproc
 1334              		@ args = 0, pretend = 0, frame = 8
 1335              		@ frame_needed = 0, uses_anonymous_args = 0
 1336              		@ link register save eliminated.
 1337 0000 82B0     		sub	sp, sp, #8
 1338              		.cfi_def_cfa_offset 8
 1339 0002 0190     		str	r0, [sp, #4]
 1340              		.loc 11 38 0
 1341 0004 019B     		ldr	r3, [sp, #4]
 1342 0006 1B68     		ldr	r3, [r3]
 1343              		.loc 11 39 0
 1344 0008 1846     		mov	r0, r3
 1345 000a 02B0     		add	sp, sp, #8
 1346              		.cfi_def_cfa_offset 0
 1347              		@ sp needed
 1348 000c 7047     		bx	lr
 1349              		.cfi_endproc
 1350              	.LFE242:
 1351              		.size	_ZNK3r2p10SpinEvent_10get_threadEv, .-_ZNK3r2p10SpinEvent_10get_threadEv
 1352 000e 00BF     		.section	.text._ZN3r2p10SpinEvent_10set_threadEPNS_6ThreadE,"axG",%progbits,_ZN3r2p10SpinEvent_10s
 1353              		.align	2
 1354              		.p2align 4,,15
 1355              		.weak	_ZN3r2p10SpinEvent_10set_threadEPNS_6ThreadE
 1356              		.thumb
 1357              		.thumb_func
 1358              		.type	_ZN3r2p10SpinEvent_10set_threadEPNS_6ThreadE, %function
 1359              	_ZN3r2p10SpinEvent_10set_threadEPNS_6ThreadE:
 1360              	.LFB243:
 1361              		.loc 11 43 0
 1362              		.cfi_startproc
 1363              		@ args = 0, pretend = 0, frame = 8
 1364              		@ frame_needed = 0, uses_anonymous_args = 0
 1365              		@ link register save eliminated.
 1366 0000 82B0     		sub	sp, sp, #8
 1367              		.cfi_def_cfa_offset 8
 1368 0002 0190     		str	r0, [sp, #4]
 1369 0004 0091     		str	r1, [sp]
 1370              		.loc 11 45 0
 1371 0006 019B     		ldr	r3, [sp, #4]
 1372 0008 009A     		ldr	r2, [sp]
 1373 000a 1A60     		str	r2, [r3]
 1374              		.loc 11 46 0
 1375 000c 02B0     		add	sp, sp, #8
 1376              		.cfi_def_cfa_offset 0
 1377              		@ sp needed
 1378 000e 7047     		bx	lr
 1379              		.cfi_endproc
 1380              	.LFE243:
 1381              		.size	_ZN3r2p10SpinEvent_10set_threadEPNS_6ThreadE, .-_ZN3r2p10SpinEvent_10set_threadEPNS_6ThreadE
 1382              		.section	.text._ZN3r2p10SpinEvent_13signal_unsafeEj,"axG",%progbits,_ZN3r2p10SpinEvent_13signal_un
 1383              		.align	2
 1384              		.p2align 4,,15
 1385              		.weak	_ZN3r2p10SpinEvent_13signal_unsafeEj
 1386              		.thumb
 1387              		.thumb_func
 1388              		.type	_ZN3r2p10SpinEvent_13signal_unsafeEj, %function
 1389              	_ZN3r2p10SpinEvent_13signal_unsafeEj:
ARM GAS  /tmp/cc5qDRak.s 			page 26


 1390              	.LFB244:
 1391              		.loc 11 50 0
 1392              		.cfi_startproc
 1393              		@ args = 0, pretend = 0, frame = 8
 1394              		@ frame_needed = 0, uses_anonymous_args = 0
 1395 0000 00B5     		push	{lr}
 1396              		.cfi_def_cfa_offset 4
 1397              		.cfi_offset 14, -4
 1398 0002 83B0     		sub	sp, sp, #12
 1399              		.cfi_def_cfa_offset 16
 1400 0004 0190     		str	r0, [sp, #4]
 1401 0006 0091     		str	r1, [sp]
 1402              		.loc 11 52 0
 1403 0008 019B     		ldr	r3, [sp, #4]
 1404 000a 1B68     		ldr	r3, [r3]
 1405 000c 002B     		cmp	r3, #0
 1406 000e 10D0     		beq	.L94
 1407              		.loc 11 53 0
 1408 0010 2022     		movs	r2, #32
 1409 0012 009B     		ldr	r3, [sp]
 1410 0014 9A42     		cmp	r2, r3
 1411 0016 02D8     		bhi	.L96
 1412              		.loc 11 53 0 is_stmt 0 discriminator 1
 1413 0018 0748     		ldr	r0, .L97
 1414 001a FFF7FEFF 		bl	chDbgPanic
 1415              	.L96:
 1416              		.loc 11 54 0 is_stmt 1
 1417 001e 019B     		ldr	r3, [sp, #4]
 1418 0020 1968     		ldr	r1, [r3]
 1419 0022 009B     		ldr	r3, [sp]
 1420 0024 0122     		movs	r2, #1
 1421 0026 02FA03F3 		lsl	r3, r2, r3
 1422 002a 0846     		mov	r0, r1
 1423 002c 1946     		mov	r1, r3
 1424 002e FFF7FEFF 		bl	chEvtSignalI
 1425              	.L94:
 1426              		.loc 11 56 0
 1427 0032 03B0     		add	sp, sp, #12
 1428              		.cfi_def_cfa_offset 4
 1429              		@ sp needed
 1430 0034 5DF804FB 		ldr	pc, [sp], #4
 1431              	.L98:
 1432              		.align	2
 1433              	.L97:
 1434 0038 00000000 		.word	.LC0
 1435              		.cfi_endproc
 1436              	.LFE244:
 1437              		.size	_ZN3r2p10SpinEvent_13signal_unsafeEj, .-_ZN3r2p10SpinEvent_13signal_unsafeEj
 1438 003c AFF30080 		.section	.text._ZN3r2p10SpinEvent_6signalEj,"axG",%progbits,_ZN3r2p10SpinEvent_6signalEj,comdat
 1439              		.align	2
 1440              		.p2align 4,,15
 1441              		.weak	_ZN3r2p10SpinEvent_6signalEj
 1442              		.thumb
 1443              		.thumb_func
 1444              		.type	_ZN3r2p10SpinEvent_6signalEj, %function
 1445              	_ZN3r2p10SpinEvent_6signalEj:
 1446              	.LFB245:
ARM GAS  /tmp/cc5qDRak.s 			page 27


 1447              		.loc 11 60 0
 1448              		.cfi_startproc
 1449              		@ args = 0, pretend = 0, frame = 8
 1450              		@ frame_needed = 0, uses_anonymous_args = 0
 1451 0000 00B5     		push	{lr}
 1452              		.cfi_def_cfa_offset 4
 1453              		.cfi_offset 14, -4
 1454 0002 83B0     		sub	sp, sp, #12
 1455              		.cfi_def_cfa_offset 16
 1456 0004 0190     		str	r0, [sp, #4]
 1457 0006 0091     		str	r1, [sp]
 1458              	.LBB46:
 1459              	.LBB47:
 1460              	.LBB48:
 1461              		.loc 11 62 0
 1462 0008 2023     		movs	r3, #32
 1463              	@ 62 "/home/ergae/r2p-sdk/core/Middleware/port/chibios/include/r2p/impl/SpinEvent_.hpp" 1
 1464 000a 83F31188 		msr     BASEPRI, r3
 1465              	@ 0 "" 2
 1466              		.thumb
 1467              	.LBE48:
 1468 000e FFF7FEFF 		bl	dbg_check_lock
 1469              	.LBE47:
 1470              		.loc 11 63 0
 1471 0012 0198     		ldr	r0, [sp, #4]
 1472 0014 0099     		ldr	r1, [sp]
 1473 0016 FFF7FEFF 		bl	_ZN3r2p10SpinEvent_13signal_unsafeEj
 1474              	.LBB49:
 1475              		.loc 11 64 0
 1476 001a FFF7FEFF 		bl	dbg_check_unlock
 1477              	.LBB50:
 1478 001e 0023     		movs	r3, #0
 1479              	@ 64 "/home/ergae/r2p-sdk/core/Middleware/port/chibios/include/r2p/impl/SpinEvent_.hpp" 1
 1480 0020 83F31188 		msr     BASEPRI, r3
 1481              	@ 0 "" 2
 1482              		.thumb
 1483              	.LBE50:
 1484              	.LBE49:
 1485              	.LBE46:
 1486              		.loc 11 65 0
 1487 0024 03B0     		add	sp, sp, #12
 1488              		.cfi_def_cfa_offset 4
 1489              		@ sp needed
 1490 0026 5DF804FB 		ldr	pc, [sp], #4
 1491              		.cfi_endproc
 1492              	.LFE245:
 1493              		.size	_ZN3r2p10SpinEvent_6signalEj, .-_ZN3r2p10SpinEvent_6signalEj
 1494 002a 00BFAFF3 		.section	.text._ZNK3r2p9SpinEvent10get_threadEv,"axG",%progbits,_ZNK3r2p9SpinEvent10get_threadEv,c
 1494      0080
 1495              		.align	2
 1496              		.p2align 4,,15
 1497              		.weak	_ZNK3r2p9SpinEvent10get_threadEv
 1498              		.thumb
 1499              		.thumb_func
 1500              		.type	_ZNK3r2p9SpinEvent10get_threadEv, %function
 1501              	_ZNK3r2p9SpinEvent10get_threadEv:
 1502              	.LFB250:
ARM GAS  /tmp/cc5qDRak.s 			page 28


 1503              		.file 12 "/home/ergae/r2p-sdk/core/Middleware/include/r2p/SpinEvent.hpp"
 1504              		.loc 12 35 0
 1505              		.cfi_startproc
 1506              		@ args = 0, pretend = 0, frame = 8
 1507              		@ frame_needed = 0, uses_anonymous_args = 0
 1508 0000 00B5     		push	{lr}
 1509              		.cfi_def_cfa_offset 4
 1510              		.cfi_offset 14, -4
 1511 0002 83B0     		sub	sp, sp, #12
 1512              		.cfi_def_cfa_offset 16
 1513 0004 0190     		str	r0, [sp, #4]
 1514              		.loc 12 37 0
 1515 0006 019B     		ldr	r3, [sp, #4]
 1516 0008 1846     		mov	r0, r3
 1517 000a FFF7FEFF 		bl	_ZNK3r2p10SpinEvent_10get_threadEv
 1518 000e 0346     		mov	r3, r0
 1519              		.loc 12 38 0
 1520 0010 1846     		mov	r0, r3
 1521 0012 03B0     		add	sp, sp, #12
 1522              		.cfi_def_cfa_offset 4
 1523              		@ sp needed
 1524 0014 5DF804FB 		ldr	pc, [sp], #4
 1525              		.cfi_endproc
 1526              	.LFE250:
 1527              		.size	_ZNK3r2p9SpinEvent10get_threadEv, .-_ZNK3r2p9SpinEvent10get_threadEv
 1528 0018 AFF30080 		.section	.text._ZN3r2p9SpinEvent10set_threadEPNS_6ThreadE,"axG",%progbits,_ZN3r2p9SpinEvent10set_t
 1528      AFF30080 
 1529              		.align	2
 1530              		.p2align 4,,15
 1531              		.weak	_ZN3r2p9SpinEvent10set_threadEPNS_6ThreadE
 1532              		.thumb
 1533              		.thumb_func
 1534              		.type	_ZN3r2p9SpinEvent10set_threadEPNS_6ThreadE, %function
 1535              	_ZN3r2p9SpinEvent10set_threadEPNS_6ThreadE:
 1536              	.LFB251:
 1537              		.loc 12 42 0
 1538              		.cfi_startproc
 1539              		@ args = 0, pretend = 0, frame = 8
 1540              		@ frame_needed = 0, uses_anonymous_args = 0
 1541 0000 00B5     		push	{lr}
 1542              		.cfi_def_cfa_offset 4
 1543              		.cfi_offset 14, -4
 1544 0002 83B0     		sub	sp, sp, #12
 1545              		.cfi_def_cfa_offset 16
 1546 0004 0190     		str	r0, [sp, #4]
 1547 0006 0091     		str	r1, [sp]
 1548              		.loc 12 44 0
 1549 0008 019B     		ldr	r3, [sp, #4]
 1550 000a 1846     		mov	r0, r3
 1551 000c 0099     		ldr	r1, [sp]
 1552 000e FFF7FEFF 		bl	_ZN3r2p10SpinEvent_10set_threadEPNS_6ThreadE
 1553              		.loc 12 45 0
 1554 0012 03B0     		add	sp, sp, #12
 1555              		.cfi_def_cfa_offset 4
 1556              		@ sp needed
 1557 0014 5DF804FB 		ldr	pc, [sp], #4
 1558              		.cfi_endproc
ARM GAS  /tmp/cc5qDRak.s 			page 29


 1559              	.LFE251:
 1560              		.size	_ZN3r2p9SpinEvent10set_threadEPNS_6ThreadE, .-_ZN3r2p9SpinEvent10set_threadEPNS_6ThreadE
 1561 0018 AFF30080 		.section	.text._ZN3r2p9SpinEvent13signal_unsafeEj,"axG",%progbits,_ZN3r2p9SpinEvent13signal_unsafe
 1561      AFF30080 
 1562              		.align	2
 1563              		.p2align 4,,15
 1564              		.weak	_ZN3r2p9SpinEvent13signal_unsafeEj
 1565              		.thumb
 1566              		.thumb_func
 1567              		.type	_ZN3r2p9SpinEvent13signal_unsafeEj, %function
 1568              	_ZN3r2p9SpinEvent13signal_unsafeEj:
 1569              	.LFB252:
 1570              		.loc 12 49 0
 1571              		.cfi_startproc
 1572              		@ args = 0, pretend = 0, frame = 8
 1573              		@ frame_needed = 0, uses_anonymous_args = 0
 1574 0000 00B5     		push	{lr}
 1575              		.cfi_def_cfa_offset 4
 1576              		.cfi_offset 14, -4
 1577 0002 83B0     		sub	sp, sp, #12
 1578              		.cfi_def_cfa_offset 16
 1579 0004 0190     		str	r0, [sp, #4]
 1580 0006 0091     		str	r1, [sp]
 1581              		.loc 12 51 0
 1582 0008 019B     		ldr	r3, [sp, #4]
 1583 000a 1846     		mov	r0, r3
 1584 000c 0099     		ldr	r1, [sp]
 1585 000e FFF7FEFF 		bl	_ZN3r2p10SpinEvent_13signal_unsafeEj
 1586              		.loc 12 52 0
 1587 0012 03B0     		add	sp, sp, #12
 1588              		.cfi_def_cfa_offset 4
 1589              		@ sp needed
 1590 0014 5DF804FB 		ldr	pc, [sp], #4
 1591              		.cfi_endproc
 1592              	.LFE252:
 1593              		.size	_ZN3r2p9SpinEvent13signal_unsafeEj, .-_ZN3r2p9SpinEvent13signal_unsafeEj
 1594 0018 AFF30080 		.section	.text._ZN3r2p9SpinEvent6signalEj,"axG",%progbits,_ZN3r2p9SpinEvent6signalEj,comdat
 1594      AFF30080 
 1595              		.align	2
 1596              		.p2align 4,,15
 1597              		.weak	_ZN3r2p9SpinEvent6signalEj
 1598              		.thumb
 1599              		.thumb_func
 1600              		.type	_ZN3r2p9SpinEvent6signalEj, %function
 1601              	_ZN3r2p9SpinEvent6signalEj:
 1602              	.LFB253:
 1603              		.loc 12 56 0
 1604              		.cfi_startproc
 1605              		@ args = 0, pretend = 0, frame = 8
 1606              		@ frame_needed = 0, uses_anonymous_args = 0
 1607 0000 00B5     		push	{lr}
 1608              		.cfi_def_cfa_offset 4
 1609              		.cfi_offset 14, -4
 1610 0002 83B0     		sub	sp, sp, #12
 1611              		.cfi_def_cfa_offset 16
 1612 0004 0190     		str	r0, [sp, #4]
 1613 0006 0091     		str	r1, [sp]
ARM GAS  /tmp/cc5qDRak.s 			page 30


 1614              		.loc 12 58 0
 1615 0008 019B     		ldr	r3, [sp, #4]
 1616 000a 1846     		mov	r0, r3
 1617 000c 0099     		ldr	r1, [sp]
 1618 000e FFF7FEFF 		bl	_ZN3r2p10SpinEvent_6signalEj
 1619              		.loc 12 59 0
 1620 0012 03B0     		add	sp, sp, #12
 1621              		.cfi_def_cfa_offset 4
 1622              		@ sp needed
 1623 0014 5DF804FB 		ldr	pc, [sp], #4
 1624              		.cfi_endproc
 1625              	.LFE253:
 1626              		.size	_ZN3r2p9SpinEvent6signalEj, .-_ZN3r2p9SpinEvent6signalEj
 1627 0018 AFF30080 		.section	.text._ZNK3r2p4Node8get_nameEv,"axG",%progbits,_ZNK3r2p4Node8get_nameEv,comdat
 1627      AFF30080 
 1628              		.align	2
 1629              		.p2align 4,,15
 1630              		.weak	_ZNK3r2p4Node8get_nameEv
 1631              		.thumb
 1632              		.thumb_func
 1633              		.type	_ZNK3r2p4Node8get_nameEv, %function
 1634              	_ZNK3r2p4Node8get_nameEv:
 1635              	.LFB266:
 1636              		.file 13 "/home/ergae/r2p-sdk/core/Middleware/include/r2p/Node.hpp"
 1637              		.loc 13 82 0
 1638              		.cfi_startproc
 1639              		@ args = 0, pretend = 0, frame = 8
 1640              		@ frame_needed = 0, uses_anonymous_args = 0
 1641              		@ link register save eliminated.
 1642 0000 82B0     		sub	sp, sp, #8
 1643              		.cfi_def_cfa_offset 8
 1644 0002 0190     		str	r0, [sp, #4]
 1645              		.loc 13 84 0
 1646 0004 019B     		ldr	r3, [sp, #4]
 1647 0006 1B68     		ldr	r3, [r3]
 1648              		.loc 13 85 0
 1649 0008 1846     		mov	r0, r3
 1650 000a 02B0     		add	sp, sp, #8
 1651              		.cfi_def_cfa_offset 0
 1652              		@ sp needed
 1653 000c 7047     		bx	lr
 1654              		.cfi_endproc
 1655              	.LFE266:
 1656              		.size	_ZNK3r2p4Node8get_nameEv, .-_ZNK3r2p4Node8get_nameEv
 1657 000e 00BF     		.section	.text._ZNK3r2p4Node14get_publishersEv,"axG",%progbits,_ZNK3r2p4Node14get_publishersEv,com
 1658              		.align	2
 1659              		.p2align 4,,15
 1660              		.weak	_ZNK3r2p4Node14get_publishersEv
 1661              		.thumb
 1662              		.thumb_func
 1663              		.type	_ZNK3r2p4Node14get_publishersEv, %function
 1664              	_ZNK3r2p4Node14get_publishersEv:
 1665              	.LFB267:
 1666              		.loc 13 89 0
 1667              		.cfi_startproc
 1668              		@ args = 0, pretend = 0, frame = 8
 1669              		@ frame_needed = 0, uses_anonymous_args = 0
ARM GAS  /tmp/cc5qDRak.s 			page 31


 1670              		@ link register save eliminated.
 1671 0000 82B0     		sub	sp, sp, #8
 1672              		.cfi_def_cfa_offset 8
 1673 0002 0190     		str	r0, [sp, #4]
 1674              		.loc 13 91 0
 1675 0004 019B     		ldr	r3, [sp, #4]
 1676 0006 0433     		adds	r3, r3, #4
 1677              		.loc 13 92 0
 1678 0008 1846     		mov	r0, r3
 1679 000a 02B0     		add	sp, sp, #8
 1680              		.cfi_def_cfa_offset 0
 1681              		@ sp needed
 1682 000c 7047     		bx	lr
 1683              		.cfi_endproc
 1684              	.LFE267:
 1685              		.size	_ZNK3r2p4Node14get_publishersEv, .-_ZNK3r2p4Node14get_publishersEv
 1686 000e 00BF     		.section	.text._ZNK3r2p4Node15get_subscribersEv,"axG",%progbits,_ZNK3r2p4Node15get_subscribersEv,c
 1687              		.align	2
 1688              		.p2align 4,,15
 1689              		.weak	_ZNK3r2p4Node15get_subscribersEv
 1690              		.thumb
 1691              		.thumb_func
 1692              		.type	_ZNK3r2p4Node15get_subscribersEv, %function
 1693              	_ZNK3r2p4Node15get_subscribersEv:
 1694              	.LFB268:
 1695              		.loc 13 96 0
 1696              		.cfi_startproc
 1697              		@ args = 0, pretend = 0, frame = 8
 1698              		@ frame_needed = 0, uses_anonymous_args = 0
 1699              		@ link register save eliminated.
 1700 0000 82B0     		sub	sp, sp, #8
 1701              		.cfi_def_cfa_offset 8
 1702 0002 0190     		str	r0, [sp, #4]
 1703              		.loc 13 98 0
 1704 0004 019B     		ldr	r3, [sp, #4]
 1705 0006 0833     		adds	r3, r3, #8
 1706              		.loc 13 99 0
 1707 0008 1846     		mov	r0, r3
 1708 000a 02B0     		add	sp, sp, #8
 1709              		.cfi_def_cfa_offset 0
 1710              		@ sp needed
 1711 000c 7047     		bx	lr
 1712              		.cfi_endproc
 1713              	.LFE268:
 1714              		.size	_ZNK3r2p4Node15get_subscribersEv, .-_ZNK3r2p4Node15get_subscribersEv
 1715 000e 00BF     		.section	.text._ZNK3r2p4Node11get_enabledEv,"axG",%progbits,_ZNK3r2p4Node11get_enabledEv,comdat
 1716              		.align	2
 1717              		.p2align 4,,15
 1718              		.weak	_ZNK3r2p4Node11get_enabledEv
 1719              		.thumb
 1720              		.thumb_func
 1721              		.type	_ZNK3r2p4Node11get_enabledEv, %function
 1722              	_ZNK3r2p4Node11get_enabledEv:
 1723              	.LFB269:
 1724              		.loc 13 103 0
 1725              		.cfi_startproc
 1726              		@ args = 0, pretend = 0, frame = 8
ARM GAS  /tmp/cc5qDRak.s 			page 32


 1727              		@ frame_needed = 0, uses_anonymous_args = 0
 1728 0000 00B5     		push	{lr}
 1729              		.cfi_def_cfa_offset 4
 1730              		.cfi_offset 14, -4
 1731 0002 83B0     		sub	sp, sp, #12
 1732              		.cfi_def_cfa_offset 16
 1733 0004 0190     		str	r0, [sp, #4]
 1734              		.loc 13 105 0
 1735 0006 019B     		ldr	r3, [sp, #4]
 1736 0008 0C33     		adds	r3, r3, #12
 1737 000a 1846     		mov	r0, r3
 1738 000c FFF7FEFF 		bl	_ZNK3r2p9SpinEvent10get_threadEv
 1739 0010 0346     		mov	r3, r0
 1740 0012 002B     		cmp	r3, #0
 1741 0014 14BF     		ite	ne
 1742 0016 0123     		movne	r3, #1
 1743 0018 0023     		moveq	r3, #0
 1744 001a DBB2     		uxtb	r3, r3
 1745              		.loc 13 106 0
 1746 001c 1846     		mov	r0, r3
 1747 001e 03B0     		add	sp, sp, #12
 1748              		.cfi_def_cfa_offset 4
 1749              		@ sp needed
 1750 0020 5DF804FB 		ldr	pc, [sp], #4
 1751              		.cfi_endproc
 1752              	.LFE269:
 1753              		.size	_ZNK3r2p4Node11get_enabledEv, .-_ZNK3r2p4Node11get_enabledEv
 1754 0024 AFF30080 		.section	.text._ZN3r2p4Node11set_enabledEb,"axG",%progbits,_ZN3r2p4Node11set_enabledEb,comdat
 1754      AFF30080 
 1754      AFF30080 
 1755              		.align	2
 1756              		.p2align 4,,15
 1757              		.weak	_ZN3r2p4Node11set_enabledEb
 1758              		.thumb
 1759              		.thumb_func
 1760              		.type	_ZN3r2p4Node11set_enabledEb, %function
 1761              	_ZN3r2p4Node11set_enabledEb:
 1762              	.LFB270:
 1763              		.loc 13 110 0
 1764              		.cfi_startproc
 1765              		@ args = 0, pretend = 0, frame = 8
 1766              		@ frame_needed = 0, uses_anonymous_args = 0
 1767 0000 10B5     		push	{r4, lr}
 1768              		.cfi_def_cfa_offset 8
 1769              		.cfi_offset 4, -8
 1770              		.cfi_offset 14, -4
 1771 0002 82B0     		sub	sp, sp, #8
 1772              		.cfi_def_cfa_offset 16
 1773 0004 0190     		str	r0, [sp, #4]
 1774 0006 0B46     		mov	r3, r1
 1775 0008 8DF80330 		strb	r3, [sp, #3]
 1776              		.loc 13 112 0
 1777 000c 019B     		ldr	r3, [sp, #4]
 1778 000e 03F10C04 		add	r4, r3, #12
 1779 0012 9DF80330 		ldrb	r3, [sp, #3]	@ zero_extendqisi2
 1780 0016 002B     		cmp	r3, #0
 1781 0018 03D0     		beq	.L114
ARM GAS  /tmp/cc5qDRak.s 			page 33


 1782              		.loc 13 112 0 is_stmt 0 discriminator 1
 1783 001a FFF7FEFF 		bl	_ZN3r2p6Thread4selfEv
 1784 001e 0346     		mov	r3, r0
 1785 0020 00E0     		b	.L115
 1786              	.L114:
 1787              		.loc 13 112 0 discriminator 2
 1788 0022 0023     		movs	r3, #0
 1789              	.L115:
 1790              		.loc 13 112 0 discriminator 4
 1791 0024 2046     		mov	r0, r4
 1792 0026 1946     		mov	r1, r3
 1793 0028 FFF7FEFF 		bl	_ZN3r2p9SpinEvent10set_threadEPNS_6ThreadE
 1794              		.loc 13 113 0 is_stmt 1 discriminator 4
 1795 002c 02B0     		add	sp, sp, #8
 1796              		.cfi_def_cfa_offset 8
 1797              		@ sp needed
 1798 002e 10BD     		pop	{r4, pc}
 1799              		.cfi_endproc
 1800              	.LFE270:
 1801              		.size	_ZN3r2p4Node11set_enabledEb, .-_ZN3r2p4Node11set_enabledEb
 1802              		.section	.text._ZN3r2p4Node13notify_unsafeEj,"axG",%progbits,_ZN3r2p4Node13notify_unsafeEj,comdat
 1803              		.align	2
 1804              		.p2align 4,,15
 1805              		.weak	_ZN3r2p4Node13notify_unsafeEj
 1806              		.thumb
 1807              		.thumb_func
 1808              		.type	_ZN3r2p4Node13notify_unsafeEj, %function
 1809              	_ZN3r2p4Node13notify_unsafeEj:
 1810              	.LFB274:
 1811              		.loc 13 140 0
 1812              		.cfi_startproc
 1813              		@ args = 0, pretend = 0, frame = 8
 1814              		@ frame_needed = 0, uses_anonymous_args = 0
 1815 0000 00B5     		push	{lr}
 1816              		.cfi_def_cfa_offset 4
 1817              		.cfi_offset 14, -4
 1818 0002 83B0     		sub	sp, sp, #12
 1819              		.cfi_def_cfa_offset 16
 1820 0004 0190     		str	r0, [sp, #4]
 1821 0006 0091     		str	r1, [sp]
 1822              		.loc 13 142 0
 1823 0008 019B     		ldr	r3, [sp, #4]
 1824 000a 0C33     		adds	r3, r3, #12
 1825 000c 1846     		mov	r0, r3
 1826 000e 0099     		ldr	r1, [sp]
 1827 0010 FFF7FEFF 		bl	_ZN3r2p9SpinEvent13signal_unsafeEj
 1828              		.loc 13 143 0
 1829 0014 03B0     		add	sp, sp, #12
 1830              		.cfi_def_cfa_offset 4
 1831              		@ sp needed
 1832 0016 5DF804FB 		ldr	pc, [sp], #4
 1833              		.cfi_endproc
 1834              	.LFE274:
 1835              		.size	_ZN3r2p4Node13notify_unsafeEj, .-_ZN3r2p4Node13notify_unsafeEj
 1836 001a 00BFAFF3 		.section	.text._ZN3r2p4Node11notify_stopEv,"axG",%progbits,_ZN3r2p4Node11notify_stopEv,comdat
 1836      0080
 1837              		.align	2
ARM GAS  /tmp/cc5qDRak.s 			page 34


 1838              		.p2align 4,,15
 1839              		.weak	_ZN3r2p4Node11notify_stopEv
 1840              		.thumb
 1841              		.thumb_func
 1842              		.type	_ZN3r2p4Node11notify_stopEv, %function
 1843              	_ZN3r2p4Node11notify_stopEv:
 1844              	.LFB277:
 1845              		.loc 13 162 0
 1846              		.cfi_startproc
 1847              		@ args = 0, pretend = 0, frame = 8
 1848              		@ frame_needed = 0, uses_anonymous_args = 0
 1849 0000 00B5     		push	{lr}
 1850              		.cfi_def_cfa_offset 4
 1851              		.cfi_offset 14, -4
 1852 0002 83B0     		sub	sp, sp, #12
 1853              		.cfi_def_cfa_offset 16
 1854 0004 0190     		str	r0, [sp, #4]
 1855              		.loc 13 165 0
 1856 0006 019B     		ldr	r3, [sp, #4]
 1857 0008 0C33     		adds	r3, r3, #12
 1858 000a 1846     		mov	r0, r3
 1859 000c 1F21     		movs	r1, #31
 1860 000e FFF7FEFF 		bl	_ZN3r2p9SpinEvent6signalEj
 1861              		.loc 13 166 0
 1862 0012 03B0     		add	sp, sp, #12
 1863              		.cfi_def_cfa_offset 4
 1864              		@ sp needed
 1865 0014 5DF804FB 		ldr	pc, [sp], #4
 1866              		.cfi_endproc
 1867              	.LFE277:
 1868              		.size	_ZN3r2p4Node11notify_stopEv, .-_ZN3r2p4Node11notify_stopEv
 1869 0018 AFF30080 		.section	.text._ZN3r2p4Node8has_nameERKS0_PKc,"axG",%progbits,_ZN3r2p4Node8has_nameERKS0_PKc,comda
 1869      AFF30080 
 1870              		.align	2
 1871              		.p2align 4,,15
 1872              		.weak	_ZN3r2p4Node8has_nameERKS0_PKc
 1873              		.thumb
 1874              		.thumb_func
 1875              		.type	_ZN3r2p4Node8has_nameERKS0_PKc, %function
 1876              	_ZN3r2p4Node8has_nameERKS0_PKc:
 1877              	.LFB278:
 1878              		.loc 13 170 0
 1879              		.cfi_startproc
 1880              		@ args = 0, pretend = 0, frame = 8
 1881              		@ frame_needed = 0, uses_anonymous_args = 0
 1882 0000 00B5     		push	{lr}
 1883              		.cfi_def_cfa_offset 4
 1884              		.cfi_offset 14, -4
 1885 0002 83B0     		sub	sp, sp, #12
 1886              		.cfi_def_cfa_offset 16
 1887 0004 0190     		str	r0, [sp, #4]
 1888 0006 0091     		str	r1, [sp]
 1889              		.loc 13 172 0
 1890 0008 009B     		ldr	r3, [sp]
 1891 000a 002B     		cmp	r3, #0
 1892 000c 0DD0     		beq	.L119
 1893              		.loc 13 173 0 discriminator 1
ARM GAS  /tmp/cc5qDRak.s 			page 35


 1894 000e 0198     		ldr	r0, [sp, #4]
 1895 0010 FFF7FEFF 		bl	_ZNK3r2p4Node8get_nameEv
 1896 0014 0346     		mov	r3, r0
 1897 0016 1846     		mov	r0, r3
 1898 0018 0099     		ldr	r1, [sp]
 1899 001a 0822     		movs	r2, #8
 1900 001c FFF7FEFF 		bl	strncmp
 1901 0020 0346     		mov	r3, r0
 1902              		.loc 13 172 0 discriminator 1
 1903 0022 002B     		cmp	r3, #0
 1904 0024 01D1     		bne	.L119
 1905              		.loc 13 172 0 is_stmt 0 discriminator 3
 1906 0026 0123     		movs	r3, #1
 1907 0028 00E0     		b	.L120
 1908              	.L119:
 1909              		.loc 13 172 0 discriminator 4
 1910 002a 0023     		movs	r3, #0
 1911              	.L120:
 1912              		.loc 13 174 0 is_stmt 1
 1913 002c 1846     		mov	r0, r3
 1914 002e 03B0     		add	sp, sp, #12
 1915              		.cfi_def_cfa_offset 4
 1916              		@ sp needed
 1917 0030 5DF804FB 		ldr	pc, [sp], #4
 1918              		.cfi_endproc
 1919              	.LFE278:
 1920              		.size	_ZN3r2p4Node8has_nameERKS0_PKc, .-_ZN3r2p4Node8has_nameERKS0_PKc
 1921 0034 AFF30080 		.section	.text._ZNK3r2p15LocalSubscriber16get_queue_lengthEv,"axG",%progbits,_ZNK3r2p15LocalSubscr
 1921      AFF30080 
 1921      AFF30080 
 1922              		.align	2
 1923              		.p2align 4,,15
 1924              		.weak	_ZNK3r2p15LocalSubscriber16get_queue_lengthEv
 1925              		.thumb
 1926              		.thumb_func
 1927              		.type	_ZNK3r2p15LocalSubscriber16get_queue_lengthEv, %function
 1928              	_ZNK3r2p15LocalSubscriber16get_queue_lengthEv:
 1929              	.LFB280:
 1930              		.file 14 "/home/ergae/r2p-sdk/core/Middleware/include/r2p/LocalSubscriber.hpp"
 1931              		.loc 14 64 0
 1932              		.cfi_startproc
 1933              		@ args = 0, pretend = 0, frame = 8
 1934              		@ frame_needed = 0, uses_anonymous_args = 0
 1935 0000 00B5     		push	{lr}
 1936              		.cfi_def_cfa_offset 4
 1937              		.cfi_offset 14, -4
 1938 0002 83B0     		sub	sp, sp, #12
 1939              		.cfi_def_cfa_offset 16
 1940 0004 0190     		str	r0, [sp, #4]
 1941              		.loc 14 66 0
 1942 0006 019B     		ldr	r3, [sp, #4]
 1943 0008 1033     		adds	r3, r3, #16
 1944 000a 1846     		mov	r0, r3
 1945 000c FFF7FEFF 		bl	_ZNK3r2p10ArrayQueueIPNS_7MessageEE10get_lengthEv
 1946 0010 0346     		mov	r3, r0
 1947              		.loc 14 67 0
 1948 0012 1846     		mov	r0, r3
ARM GAS  /tmp/cc5qDRak.s 			page 36


 1949 0014 03B0     		add	sp, sp, #12
 1950              		.cfi_def_cfa_offset 4
 1951              		@ sp needed
 1952 0016 5DF804FB 		ldr	pc, [sp], #4
 1953              		.cfi_endproc
 1954              	.LFE280:
 1955              		.size	_ZNK3r2p15LocalSubscriber16get_queue_lengthEv, .-_ZNK3r2p15LocalSubscriber16get_queue_length
 1956 001a 00BFAFF3 		.section	.text._ZN3r2p15LocalSubscriber12fetch_unsafeERPNS_7MessageERNS_4TimeE,"axG",%progbits,_ZN
 1956      0080
 1957              		.align	2
 1958              		.p2align 4,,15
 1959              		.weak	_ZN3r2p15LocalSubscriber12fetch_unsafeERPNS_7MessageERNS_4TimeE
 1960              		.thumb
 1961              		.thumb_func
 1962              		.type	_ZN3r2p15LocalSubscriber12fetch_unsafeERPNS_7MessageERNS_4TimeE, %function
 1963              	_ZN3r2p15LocalSubscriber12fetch_unsafeERPNS_7MessageERNS_4TimeE:
 1964              	.LFB281:
 1965              		.loc 14 71 0
 1966              		.cfi_startproc
 1967              		@ args = 0, pretend = 0, frame = 24
 1968              		@ frame_needed = 0, uses_anonymous_args = 0
 1969 0000 00B5     		push	{lr}
 1970              		.cfi_def_cfa_offset 4
 1971              		.cfi_offset 14, -4
 1972 0002 87B0     		sub	sp, sp, #28
 1973              		.cfi_def_cfa_offset 32
 1974 0004 0390     		str	r0, [sp, #12]
 1975 0006 0291     		str	r1, [sp, #8]
 1976 0008 0192     		str	r2, [sp, #4]
 1977              		.loc 14 73 0
 1978 000a 039B     		ldr	r3, [sp, #12]
 1979 000c 1033     		adds	r3, r3, #16
 1980 000e 1846     		mov	r0, r3
 1981 0010 0299     		ldr	r1, [sp, #8]
 1982 0012 FFF7FEFF 		bl	_ZN3r2p10ArrayQueueIPNS_7MessageEE12fetch_unsafeERS2_
 1983 0016 0346     		mov	r3, r0
 1984 0018 002B     		cmp	r3, #0
 1985 001a 0AD0     		beq	.L125
 1986              		.loc 14 74 0
 1987 001c 05AB     		add	r3, sp, #20
 1988 001e 1846     		mov	r0, r3
 1989 0020 FFF7FEFF 		bl	_ZN3r2p4Time3nowEv
 1990 0024 05AB     		add	r3, sp, #20
 1991 0026 0198     		ldr	r0, [sp, #4]
 1992 0028 1946     		mov	r1, r3
 1993 002a FFF7FEFF 		bl	_ZN3r2p4TimeaSERKS0_
 1994              		.loc 14 75 0
 1995 002e 0123     		movs	r3, #1
 1996 0030 00E0     		b	.L126
 1997              	.L125:
 1998              		.loc 14 77 0
 1999 0032 0023     		movs	r3, #0
 2000              	.L126:
 2001              		.loc 14 78 0
 2002 0034 1846     		mov	r0, r3
 2003 0036 07B0     		add	sp, sp, #28
 2004              		.cfi_def_cfa_offset 4
ARM GAS  /tmp/cc5qDRak.s 			page 37


 2005              		@ sp needed
 2006 0038 5DF804FB 		ldr	pc, [sp], #4
 2007              		.cfi_endproc
 2008              	.LFE281:
 2009              		.size	_ZN3r2p15LocalSubscriber12fetch_unsafeERPNS_7MessageERNS_4TimeE, .-_ZN3r2p15LocalSubscriber1
 2010 003c AFF30080 		.section	.text._ZN3r2p15LocalSubscriber13notify_unsafeERNS_7MessageERKNS_4TimeE,"axG",%progbits,_Z
 2011              		.align	2
 2012              		.p2align 4,,15
 2013              		.weak	_ZN3r2p15LocalSubscriber13notify_unsafeERNS_7MessageERKNS_4TimeE
 2014              		.thumb
 2015              		.thumb_func
 2016              		.type	_ZN3r2p15LocalSubscriber13notify_unsafeERNS_7MessageERKNS_4TimeE, %function
 2017              	_ZN3r2p15LocalSubscriber13notify_unsafeERNS_7MessageERKNS_4TimeE:
 2018              	.LFB282:
 2019              		.loc 14 82 0
 2020              		.cfi_startproc
 2021              		@ args = 0, pretend = 0, frame = 16
 2022              		@ frame_needed = 0, uses_anonymous_args = 0
 2023 0000 00B5     		push	{lr}
 2024              		.cfi_def_cfa_offset 4
 2025              		.cfi_offset 14, -4
 2026 0002 85B0     		sub	sp, sp, #20
 2027              		.cfi_def_cfa_offset 24
 2028 0004 0390     		str	r0, [sp, #12]
 2029 0006 0291     		str	r1, [sp, #8]
 2030 0008 0192     		str	r2, [sp, #4]
 2031              		.loc 14 86 0
 2032 000a 039B     		ldr	r3, [sp, #12]
 2033 000c 9B68     		ldr	r3, [r3, #8]
 2034 000e 1846     		mov	r0, r3
 2035 0010 FFF7FEFF 		bl	_ZNK3r2p4Node11get_enabledEv
 2036 0014 0346     		mov	r3, r0
 2037 0016 002B     		cmp	r3, #0
 2038 0018 0AD0     		beq	.L128
 2039              		.loc 14 86 0 is_stmt 0 discriminator 1
 2040 001a 039B     		ldr	r3, [sp, #12]
 2041 001c 1033     		adds	r3, r3, #16
 2042 001e 1846     		mov	r0, r3
 2043 0020 0299     		ldr	r1, [sp, #8]
 2044 0022 FFF7FEFF 		bl	_ZN3r2p10ArrayQueueIPNS_7MessageEE11post_unsafeES2_
 2045 0026 0346     		mov	r3, r0
 2046 0028 002B     		cmp	r3, #0
 2047 002a 01D0     		beq	.L128
 2048              		.loc 14 86 0 discriminator 3
 2049 002c 0123     		movs	r3, #1
 2050 002e 00E0     		b	.L129
 2051              	.L128:
 2052              		.loc 14 86 0 discriminator 4
 2053 0030 0023     		movs	r3, #0
 2054              	.L129:
 2055              		.loc 14 86 0 discriminator 6
 2056 0032 002B     		cmp	r3, #0
 2057 0034 0AD0     		beq	.L130
 2058              		.loc 14 87 0 is_stmt 1
 2059 0036 039B     		ldr	r3, [sp, #12]
 2060 0038 9A68     		ldr	r2, [r3, #8]
 2061 003a 039B     		ldr	r3, [sp, #12]
ARM GAS  /tmp/cc5qDRak.s 			page 38


 2062 003c 93F82430 		ldrb	r3, [r3, #36]	@ zero_extendqisi2
 2063 0040 1046     		mov	r0, r2
 2064 0042 1946     		mov	r1, r3
 2065 0044 FFF7FEFF 		bl	_ZN3r2p4Node13notify_unsafeEj
 2066              		.loc 14 88 0
 2067 0048 0123     		movs	r3, #1
 2068 004a 00E0     		b	.L131
 2069              	.L130:
 2070              		.loc 14 90 0
 2071 004c 0023     		movs	r3, #0
 2072              	.L131:
 2073              		.loc 14 91 0
 2074 004e 1846     		mov	r0, r3
 2075 0050 05B0     		add	sp, sp, #20
 2076              		.cfi_def_cfa_offset 4
 2077              		@ sp needed
 2078 0052 5DF804FB 		ldr	pc, [sp], #4
 2079              		.cfi_endproc
 2080              	.LFE282:
 2081              		.size	_ZN3r2p15LocalSubscriber13notify_unsafeERNS_7MessageERKNS_4TimeE, .-_ZN3r2p15LocalSubscriber
 2082 0056 00BFAFF3 		.section	.text._ZNK3r2p5Topic8get_nameEv,"axG",%progbits,_ZNK3r2p5Topic8get_nameEv,comdat
 2082      0080AFF3 
 2082      0080
 2083              		.align	2
 2084              		.p2align 4,,15
 2085              		.weak	_ZNK3r2p5Topic8get_nameEv
 2086              		.thumb
 2087              		.thumb_func
 2088              		.type	_ZNK3r2p5Topic8get_nameEv, %function
 2089              	_ZNK3r2p5Topic8get_nameEv:
 2090              	.LFB285:
 2091              		.file 15 "/home/ergae/r2p-sdk/core/Middleware/include/r2p/Topic.hpp"
 2092              		.loc 15 131 0
 2093              		.cfi_startproc
 2094              		@ args = 0, pretend = 0, frame = 8
 2095              		@ frame_needed = 0, uses_anonymous_args = 0
 2096              		@ link register save eliminated.
 2097 0000 82B0     		sub	sp, sp, #8
 2098              		.cfi_def_cfa_offset 8
 2099 0002 0190     		str	r0, [sp, #4]
 2100              		.loc 15 133 0
 2101 0004 019B     		ldr	r3, [sp, #4]
 2102 0006 1B68     		ldr	r3, [r3]
 2103              		.loc 15 134 0
 2104 0008 1846     		mov	r0, r3
 2105 000a 02B0     		add	sp, sp, #8
 2106              		.cfi_def_cfa_offset 0
 2107              		@ sp needed
 2108 000c 7047     		bx	lr
 2109              		.cfi_endproc
 2110              	.LFE285:
 2111              		.size	_ZNK3r2p5Topic8get_nameEv, .-_ZNK3r2p5Topic8get_nameEv
 2112 000e 00BF     		.section	.text._ZNK3r2p5Topic16get_payload_sizeEv,"axG",%progbits,_ZNK3r2p5Topic16get_payload_size
 2113              		.align	2
 2114              		.p2align 4,,15
 2115              		.weak	_ZNK3r2p5Topic16get_payload_sizeEv
 2116              		.thumb
ARM GAS  /tmp/cc5qDRak.s 			page 39


 2117              		.thumb_func
 2118              		.type	_ZNK3r2p5Topic16get_payload_sizeEv, %function
 2119              	_ZNK3r2p5Topic16get_payload_sizeEv:
 2120              	.LFB288:
 2121              		.loc 15 152 0
 2122              		.cfi_startproc
 2123              		@ args = 0, pretend = 0, frame = 8
 2124              		@ frame_needed = 0, uses_anonymous_args = 0
 2125 0000 00B5     		push	{lr}
 2126              		.cfi_def_cfa_offset 4
 2127              		.cfi_offset 14, -4
 2128 0002 83B0     		sub	sp, sp, #12
 2129              		.cfi_def_cfa_offset 16
 2130 0004 0190     		str	r0, [sp, #4]
 2131              		.loc 15 154 0
 2132 0006 019B     		ldr	r3, [sp, #4]
 2133 0008 0833     		adds	r3, r3, #8
 2134 000a 1846     		mov	r0, r3
 2135 000c FFF7FEFF 		bl	_ZNK3r2p11MemoryPool_13get_item_sizeEv
 2136 0010 0346     		mov	r3, r0
 2137 0012 1846     		mov	r0, r3
 2138 0014 FFF7FEFF 		bl	_ZN3r2p7Message16get_payload_sizeEj
 2139 0018 0346     		mov	r3, r0
 2140              		.loc 15 155 0
 2141 001a 1846     		mov	r0, r3
 2142 001c 03B0     		add	sp, sp, #12
 2143              		.cfi_def_cfa_offset 4
 2144              		@ sp needed
 2145 001e 5DF804FB 		ldr	pc, [sp], #4
 2146              		.cfi_endproc
 2147              	.LFE288:
 2148              		.size	_ZNK3r2p5Topic16get_payload_sizeEv, .-_ZNK3r2p5Topic16get_payload_sizeEv
 2149 0022 00BFAFF3 		.section	.text._ZNK3r2p5Topic20get_max_queue_lengthEv,"axG",%progbits,_ZNK3r2p5Topic20get_max_queu
 2149      0080AFF3 
 2149      0080AFF3 
 2149      0080
 2150              		.align	2
 2151              		.p2align 4,,15
 2152              		.weak	_ZNK3r2p5Topic20get_max_queue_lengthEv
 2153              		.thumb
 2154              		.thumb_func
 2155              		.type	_ZNK3r2p5Topic20get_max_queue_lengthEv, %function
 2156              	_ZNK3r2p5Topic20get_max_queue_lengthEv:
 2157              	.LFB289:
 2158              		.loc 15 159 0
 2159              		.cfi_startproc
 2160              		@ args = 0, pretend = 0, frame = 8
 2161              		@ frame_needed = 0, uses_anonymous_args = 0
 2162              		@ link register save eliminated.
 2163 0000 82B0     		sub	sp, sp, #8
 2164              		.cfi_def_cfa_offset 8
 2165 0002 0190     		str	r0, [sp, #4]
 2166              		.loc 15 161 0
 2167 0004 019B     		ldr	r3, [sp, #4]
 2168 0006 5B6A     		ldr	r3, [r3, #36]
 2169              		.loc 15 162 0
 2170 0008 1846     		mov	r0, r3
ARM GAS  /tmp/cc5qDRak.s 			page 40


 2171 000a 02B0     		add	sp, sp, #8
 2172              		.cfi_def_cfa_offset 0
 2173              		@ sp needed
 2174 000c 7047     		bx	lr
 2175              		.cfi_endproc
 2176              	.LFE289:
 2177              		.size	_ZNK3r2p5Topic20get_max_queue_lengthEv, .-_ZNK3r2p5Topic20get_max_queue_lengthEv
 2178 000e 00BF     		.section	.text._ZNK3r2p5Topic20has_local_publishersEv,"axG",%progbits,_ZNK3r2p5Topic20has_local_pu
 2179              		.align	2
 2180              		.p2align 4,,15
 2181              		.weak	_ZNK3r2p5Topic20has_local_publishersEv
 2182              		.thumb
 2183              		.thumb_func
 2184              		.type	_ZNK3r2p5Topic20has_local_publishersEv, %function
 2185              	_ZNK3r2p5Topic20has_local_publishersEv:
 2186              	.LFB291:
 2187              		.loc 15 177 0
 2188              		.cfi_startproc
 2189              		@ args = 0, pretend = 0, frame = 8
 2190              		@ frame_needed = 0, uses_anonymous_args = 0
 2191              		@ link register save eliminated.
 2192 0000 82B0     		sub	sp, sp, #8
 2193              		.cfi_def_cfa_offset 8
 2194 0002 0190     		str	r0, [sp, #4]
 2195              		.loc 15 179 0
 2196 0004 019B     		ldr	r3, [sp, #4]
 2197 0006 5B69     		ldr	r3, [r3, #20]
 2198 0008 002B     		cmp	r3, #0
 2199 000a 14BF     		ite	ne
 2200 000c 0123     		movne	r3, #1
 2201 000e 0023     		moveq	r3, #0
 2202 0010 DBB2     		uxtb	r3, r3
 2203              		.loc 15 180 0
 2204 0012 1846     		mov	r0, r3
 2205 0014 02B0     		add	sp, sp, #8
 2206              		.cfi_def_cfa_offset 0
 2207              		@ sp needed
 2208 0016 7047     		bx	lr
 2209              		.cfi_endproc
 2210              	.LFE291:
 2211              		.size	_ZNK3r2p5Topic20has_local_publishersEv, .-_ZNK3r2p5Topic20has_local_publishersEv
 2212 0018 AFF30080 		.section	.text._ZNK3r2p5Topic21has_local_subscribersEv,"axG",%progbits,_ZNK3r2p5Topic21has_local_s
 2212      AFF30080 
 2213              		.align	2
 2214              		.p2align 4,,15
 2215              		.weak	_ZNK3r2p5Topic21has_local_subscribersEv
 2216              		.thumb
 2217              		.thumb_func
 2218              		.type	_ZNK3r2p5Topic21has_local_subscribersEv, %function
 2219              	_ZNK3r2p5Topic21has_local_subscribersEv:
 2220              	.LFB294:
 2221              		.loc 15 198 0
 2222              		.cfi_startproc
 2223              		@ args = 0, pretend = 0, frame = 8
 2224              		@ frame_needed = 0, uses_anonymous_args = 0
 2225 0000 00B5     		push	{lr}
 2226              		.cfi_def_cfa_offset 4
ARM GAS  /tmp/cc5qDRak.s 			page 41


 2227              		.cfi_offset 14, -4
 2228 0002 83B0     		sub	sp, sp, #12
 2229              		.cfi_def_cfa_offset 16
 2230 0004 0190     		str	r0, [sp, #4]
 2231              		.loc 15 200 0
 2232 0006 019B     		ldr	r3, [sp, #4]
 2233 0008 1C33     		adds	r3, r3, #28
 2234 000a 1846     		mov	r0, r3
 2235 000c FFF7FEFF 		bl	_ZNK3r2p10StaticListINS_15LocalSubscriberEE15is_empty_unsafeEv
 2236 0010 0346     		mov	r3, r0
 2237 0012 83F00103 		eor	r3, r3, #1
 2238 0016 DBB2     		uxtb	r3, r3
 2239              		.loc 15 201 0
 2240 0018 1846     		mov	r0, r3
 2241 001a 03B0     		add	sp, sp, #12
 2242              		.cfi_def_cfa_offset 4
 2243              		@ sp needed
 2244 001c 5DF804FB 		ldr	pc, [sp], #4
 2245              		.cfi_endproc
 2246              	.LFE294:
 2247              		.size	_ZNK3r2p5Topic21has_local_subscribersEv, .-_ZNK3r2p5Topic21has_local_subscribersEv
 2248              		.section	.text._ZNK3r2p5Topic23compute_deadline_unsafeERKNS_4TimeE,"axG",%progbits,_ZNK3r2p5Topic2
 2249              		.align	2
 2250              		.p2align 4,,15
 2251              		.weak	_ZNK3r2p5Topic23compute_deadline_unsafeERKNS_4TimeE
 2252              		.thumb
 2253              		.thumb_func
 2254              		.type	_ZNK3r2p5Topic23compute_deadline_unsafeERKNS_4TimeE, %function
 2255              	_ZNK3r2p5Topic23compute_deadline_unsafeERKNS_4TimeE:
 2256              	.LFB299:
 2257              		.loc 15 236 0
 2258              		.cfi_startproc
 2259              		@ args = 0, pretend = 0, frame = 16
 2260              		@ frame_needed = 0, uses_anonymous_args = 0
 2261 0000 00B5     		push	{lr}
 2262              		.cfi_def_cfa_offset 4
 2263              		.cfi_offset 14, -4
 2264 0002 85B0     		sub	sp, sp, #20
 2265              		.cfi_def_cfa_offset 24
 2266 0004 0390     		str	r0, [sp, #12]
 2267 0006 0291     		str	r1, [sp, #8]
 2268 0008 0192     		str	r2, [sp, #4]
 2269              		.loc 15 238 0
 2270 000a 029B     		ldr	r3, [sp, #8]
 2271 000c 0433     		adds	r3, r3, #4
 2272 000e 039A     		ldr	r2, [sp, #12]
 2273 0010 1046     		mov	r0, r2
 2274 0012 0199     		ldr	r1, [sp, #4]
 2275 0014 1A46     		mov	r2, r3
 2276 0016 FFF7FEFF 		bl	_ZN3r2pplERKNS_4TimeES2_
 2277              		.loc 15 239 0
 2278 001a 0398     		ldr	r0, [sp, #12]
 2279 001c 05B0     		add	sp, sp, #20
 2280              		.cfi_def_cfa_offset 4
 2281              		@ sp needed
 2282 001e 5DF804FB 		ldr	pc, [sp], #4
 2283              		.cfi_endproc
ARM GAS  /tmp/cc5qDRak.s 			page 42


 2284              	.LFE299:
 2285              		.size	_ZNK3r2p5Topic23compute_deadline_unsafeERKNS_4TimeE, .-_ZNK3r2p5Topic23compute_deadline_unsa
 2286 0022 00BFAFF3 		.section	.text._ZN3r2p5Topic12alloc_unsafeEv,"axG",%progbits,_ZN3r2p5Topic12alloc_unsafeEv,comdat
 2286      0080AFF3 
 2286      0080AFF3 
 2286      0080
 2287              		.align	2
 2288              		.p2align 4,,15
 2289              		.weak	_ZN3r2p5Topic12alloc_unsafeEv
 2290              		.thumb
 2291              		.thumb_func
 2292              		.type	_ZN3r2p5Topic12alloc_unsafeEv, %function
 2293              	_ZN3r2p5Topic12alloc_unsafeEv:
 2294              	.LFB301:
 2295              		.loc 15 250 0
 2296              		.cfi_startproc
 2297              		@ args = 0, pretend = 0, frame = 8
 2298              		@ frame_needed = 0, uses_anonymous_args = 0
 2299 0000 10B5     		push	{r4, lr}
 2300              		.cfi_def_cfa_offset 8
 2301              		.cfi_offset 4, -8
 2302              		.cfi_offset 14, -4
 2303 0002 82B0     		sub	sp, sp, #8
 2304              		.cfi_def_cfa_offset 16
 2305 0004 0190     		str	r0, [sp, #4]
 2306              	.LBB51:
 2307              		.loc 15 252 0
 2308 0006 019B     		ldr	r3, [sp, #4]
 2309 0008 0833     		adds	r3, r3, #8
 2310 000a 1846     		mov	r0, r3
 2311 000c FFF7FEFF 		bl	_ZN3r2p11MemoryPool_12alloc_unsafeEv
 2312 0010 0446     		mov	r4, r0
 2313              		.loc 15 253 0
 2314 0012 002C     		cmp	r4, #0
 2315 0014 04D0     		beq	.L145
 2316              		.loc 15 254 0
 2317 0016 2046     		mov	r0, r4
 2318 0018 FFF7FEFF 		bl	_ZN3r2p7Message12reset_unsafeEv
 2319              		.loc 15 255 0
 2320 001c 2346     		mov	r3, r4
 2321 001e 00E0     		b	.L146
 2322              	.L145:
 2323              		.loc 15 257 0
 2324 0020 0023     		movs	r3, #0
 2325              	.L146:
 2326              	.LBE51:
 2327              		.loc 15 258 0
 2328 0022 1846     		mov	r0, r3
 2329 0024 02B0     		add	sp, sp, #8
 2330              		.cfi_def_cfa_offset 8
 2331              		@ sp needed
 2332 0026 10BD     		pop	{r4, pc}
 2333              		.cfi_endproc
 2334              	.LFE301:
 2335              		.size	_ZN3r2p5Topic12alloc_unsafeEv, .-_ZN3r2p5Topic12alloc_unsafeEv
 2336 0028 AFF30080 		.section	.text._ZNK3r2p5Topic16compute_deadlineERKNS_4TimeE,"axG",%progbits,_ZNK3r2p5Topic16comput
 2336      AFF30080 
ARM GAS  /tmp/cc5qDRak.s 			page 43


 2337              		.align	2
 2338              		.p2align 4,,15
 2339              		.weak	_ZNK3r2p5Topic16compute_deadlineERKNS_4TimeE
 2340              		.thumb
 2341              		.thumb_func
 2342              		.type	_ZNK3r2p5Topic16compute_deadlineERKNS_4TimeE, %function
 2343              	_ZNK3r2p5Topic16compute_deadlineERKNS_4TimeE:
 2344              	.LFB305:
 2345              		.loc 15 288 0
 2346              		.cfi_startproc
 2347              		@ args = 0, pretend = 0, frame = 24
 2348              		@ frame_needed = 0, uses_anonymous_args = 0
 2349 0000 00B5     		push	{lr}
 2350              		.cfi_def_cfa_offset 4
 2351              		.cfi_offset 14, -4
 2352 0002 87B0     		sub	sp, sp, #28
 2353              		.cfi_def_cfa_offset 32
 2354 0004 0390     		str	r0, [sp, #12]
 2355 0006 0291     		str	r1, [sp, #8]
 2356 0008 0192     		str	r2, [sp, #4]
 2357              	.LBB52:
 2358              		.loc 15 290 0
 2359 000a FFF7FEFF 		bl	_ZN3r2p7SysLock7acquireEv
 2360              		.loc 15 291 0
 2361 000e 04AB     		add	r3, sp, #16
 2362 0010 1846     		mov	r0, r3
 2363 0012 0299     		ldr	r1, [sp, #8]
 2364 0014 019A     		ldr	r2, [sp, #4]
 2365 0016 FFF7FEFF 		bl	_ZNK3r2p5Topic23compute_deadline_unsafeERKNS_4TimeE
 2366 001a 04AB     		add	r3, sp, #16
 2367 001c 0593     		str	r3, [sp, #20]
 2368              		.loc 15 292 0
 2369 001e FFF7FEFF 		bl	_ZN3r2p7SysLock7releaseEv
 2370              		.loc 15 293 0
 2371 0022 0398     		ldr	r0, [sp, #12]
 2372 0024 0599     		ldr	r1, [sp, #20]
 2373 0026 FFF7FEFF 		bl	_ZN3r2p4TimeC1ERKS0_
 2374              	.LBE52:
 2375              		.loc 15 294 0
 2376 002a 0398     		ldr	r0, [sp, #12]
 2377 002c 07B0     		add	sp, sp, #28
 2378              		.cfi_def_cfa_offset 4
 2379              		@ sp needed
 2380 002e 5DF804FB 		ldr	pc, [sp], #4
 2381              		.cfi_endproc
 2382              	.LFE305:
 2383              		.size	_ZNK3r2p5Topic16compute_deadlineERKNS_4TimeE, .-_ZNK3r2p5Topic16compute_deadlineERKNS_4TimeE
 2384 0032 00BFAFF3 		.section	.text._ZNK3r2p5Topic16compute_deadlineEv,"axG",%progbits,_ZNK3r2p5Topic16compute_deadline
 2384      0080AFF3 
 2384      0080AFF3 
 2384      0080
 2385              		.align	2
 2386              		.p2align 4,,15
 2387              		.weak	_ZNK3r2p5Topic16compute_deadlineEv
 2388              		.thumb
 2389              		.thumb_func
 2390              		.type	_ZNK3r2p5Topic16compute_deadlineEv, %function
ARM GAS  /tmp/cc5qDRak.s 			page 44


 2391              	_ZNK3r2p5Topic16compute_deadlineEv:
 2392              	.LFB306:
 2393              		.loc 15 298 0
 2394              		.cfi_startproc
 2395              		@ args = 0, pretend = 0, frame = 16
 2396              		@ frame_needed = 0, uses_anonymous_args = 0
 2397 0000 00B5     		push	{lr}
 2398              		.cfi_def_cfa_offset 4
 2399              		.cfi_offset 14, -4
 2400 0002 85B0     		sub	sp, sp, #20
 2401              		.cfi_def_cfa_offset 24
 2402 0004 0190     		str	r0, [sp, #4]
 2403 0006 0091     		str	r1, [sp]
 2404              		.loc 15 300 0
 2405 0008 03AB     		add	r3, sp, #12
 2406 000a 1846     		mov	r0, r3
 2407 000c FFF7FEFF 		bl	_ZN3r2p4Time3nowEv
 2408 0010 019A     		ldr	r2, [sp, #4]
 2409 0012 03AB     		add	r3, sp, #12
 2410 0014 1046     		mov	r0, r2
 2411 0016 0099     		ldr	r1, [sp]
 2412 0018 1A46     		mov	r2, r3
 2413 001a FFF7FEFF 		bl	_ZNK3r2p5Topic16compute_deadlineERKNS_4TimeE
 2414              		.loc 15 301 0
 2415 001e 0198     		ldr	r0, [sp, #4]
 2416 0020 05B0     		add	sp, sp, #20
 2417              		.cfi_def_cfa_offset 4
 2418              		@ sp needed
 2419 0022 5DF804FB 		ldr	pc, [sp], #4
 2420              		.cfi_endproc
 2421              	.LFE306:
 2422              		.size	_ZNK3r2p5Topic16compute_deadlineEv, .-_ZNK3r2p5Topic16compute_deadlineEv
 2423 0026 00BFAFF3 		.section	.text._ZN3r2p5Topic11extend_poolEPNS_7MessageEj,"axG",%progbits,_ZN3r2p5Topic11extend_poo
 2423      0080AFF3 
 2423      0080
 2424              		.align	2
 2425              		.p2align 4,,15
 2426              		.weak	_ZN3r2p5Topic11extend_poolEPNS_7MessageEj
 2427              		.thumb
 2428              		.thumb_func
 2429              		.type	_ZN3r2p5Topic11extend_poolEPNS_7MessageEj, %function
 2430              	_ZN3r2p5Topic11extend_poolEPNS_7MessageEj:
 2431              	.LFB310:
 2432              		.loc 15 330 0
 2433              		.cfi_startproc
 2434              		@ args = 0, pretend = 0, frame = 16
 2435              		@ frame_needed = 0, uses_anonymous_args = 0
 2436 0000 00B5     		push	{lr}
 2437              		.cfi_def_cfa_offset 4
 2438              		.cfi_offset 14, -4
 2439 0002 85B0     		sub	sp, sp, #20
 2440              		.cfi_def_cfa_offset 24
 2441 0004 0390     		str	r0, [sp, #12]
 2442 0006 0291     		str	r1, [sp, #8]
 2443 0008 0192     		str	r2, [sp, #4]
 2444              		.loc 15 332 0
 2445 000a 039B     		ldr	r3, [sp, #12]
ARM GAS  /tmp/cc5qDRak.s 			page 45


 2446 000c 0833     		adds	r3, r3, #8
 2447 000e 1846     		mov	r0, r3
 2448 0010 0299     		ldr	r1, [sp, #8]
 2449 0012 019A     		ldr	r2, [sp, #4]
 2450 0014 FFF7FEFF 		bl	_ZN3r2p11MemoryPool_6extendEPvj
 2451              		.loc 15 333 0
 2452 0018 05B0     		add	sp, sp, #20
 2453              		.cfi_def_cfa_offset 4
 2454              		@ sp needed
 2455 001a 5DF804FB 		ldr	pc, [sp], #4
 2456              		.cfi_endproc
 2457              	.LFE310:
 2458              		.size	_ZN3r2p5Topic11extend_poolEPNS_7MessageEj, .-_ZN3r2p5Topic11extend_poolEPNS_7MessageEj
 2459 001e 00BF     		.section	.text._ZN3r2p5Topic8has_nameERKS0_PKc,"axG",%progbits,_ZN3r2p5Topic8has_nameERKS0_PKc,com
 2460              		.align	2
 2461              		.p2align 4,,15
 2462              		.weak	_ZN3r2p5Topic8has_nameERKS0_PKc
 2463              		.thumb
 2464              		.thumb_func
 2465              		.type	_ZN3r2p5Topic8has_nameERKS0_PKc, %function
 2466              	_ZN3r2p5Topic8has_nameERKS0_PKc:
 2467              	.LFB311:
 2468              		.loc 15 337 0
 2469              		.cfi_startproc
 2470              		@ args = 0, pretend = 0, frame = 8
 2471              		@ frame_needed = 0, uses_anonymous_args = 0
 2472 0000 00B5     		push	{lr}
 2473              		.cfi_def_cfa_offset 4
 2474              		.cfi_offset 14, -4
 2475 0002 83B0     		sub	sp, sp, #12
 2476              		.cfi_def_cfa_offset 16
 2477 0004 0190     		str	r0, [sp, #4]
 2478 0006 0091     		str	r1, [sp]
 2479              		.loc 15 339 0
 2480 0008 009B     		ldr	r3, [sp]
 2481 000a 002B     		cmp	r3, #0
 2482 000c 0DD0     		beq	.L153
 2483              		.loc 15 340 0 discriminator 1
 2484 000e 0198     		ldr	r0, [sp, #4]
 2485 0010 FFF7FEFF 		bl	_ZNK3r2p5Topic8get_nameEv
 2486 0014 0346     		mov	r3, r0
 2487 0016 1846     		mov	r0, r3
 2488 0018 0099     		ldr	r1, [sp]
 2489 001a 1022     		movs	r2, #16
 2490 001c FFF7FEFF 		bl	strncmp
 2491 0020 0346     		mov	r3, r0
 2492              		.loc 15 339 0 discriminator 1
 2493 0022 002B     		cmp	r3, #0
 2494 0024 01D1     		bne	.L153
 2495              		.loc 15 339 0 is_stmt 0 discriminator 3
 2496 0026 0123     		movs	r3, #1
 2497 0028 00E0     		b	.L154
 2498              	.L153:
 2499              		.loc 15 339 0 discriminator 4
 2500 002a 0023     		movs	r3, #0
 2501              	.L154:
 2502              		.loc 15 341 0 is_stmt 1
ARM GAS  /tmp/cc5qDRak.s 			page 46


 2503 002c 1846     		mov	r0, r3
 2504 002e 03B0     		add	sp, sp, #12
 2505              		.cfi_def_cfa_offset 4
 2506              		@ sp needed
 2507 0030 5DF804FB 		ldr	pc, [sp], #4
 2508              		.cfi_endproc
 2509              	.LFE311:
 2510              		.size	_ZN3r2p5Topic8has_nameERKS0_PKc, .-_ZN3r2p5Topic8has_nameERKS0_PKc
 2511 0034 AFF30080 		.section	.text._ZN3r2p6Mutex_10initializeEv,"axG",%progbits,_ZN3r2p6Mutex_10initializeEv,comdat
 2511      AFF30080 
 2511      AFF30080 
 2512              		.align	2
 2513              		.p2align 4,,15
 2514              		.weak	_ZN3r2p6Mutex_10initializeEv
 2515              		.thumb
 2516              		.thumb_func
 2517              		.type	_ZN3r2p6Mutex_10initializeEv, %function
 2518              	_ZN3r2p6Mutex_10initializeEv:
 2519              	.LFB329:
 2520              		.file 16 "/home/ergae/r2p-sdk/core/Middleware/port/chibios/include/r2p/impl/Mutex_.hpp"
 2521              		.loc 16 31 0
 2522              		.cfi_startproc
 2523              		@ args = 0, pretend = 0, frame = 8
 2524              		@ frame_needed = 0, uses_anonymous_args = 0
 2525 0000 00B5     		push	{lr}
 2526              		.cfi_def_cfa_offset 4
 2527              		.cfi_offset 14, -4
 2528 0002 83B0     		sub	sp, sp, #12
 2529              		.cfi_def_cfa_offset 16
 2530 0004 0190     		str	r0, [sp, #4]
 2531              		.loc 16 33 0
 2532 0006 019B     		ldr	r3, [sp, #4]
 2533 0008 1846     		mov	r0, r3
 2534 000a FFF7FEFF 		bl	chMtxInit
 2535              		.loc 16 34 0
 2536 000e 03B0     		add	sp, sp, #12
 2537              		.cfi_def_cfa_offset 4
 2538              		@ sp needed
 2539 0010 5DF804FB 		ldr	pc, [sp], #4
 2540              		.cfi_endproc
 2541              	.LFE329:
 2542              		.size	_ZN3r2p6Mutex_10initializeEv, .-_ZN3r2p6Mutex_10initializeEv
 2543 0014 AFF30080 		.section	.text._ZN3r2p6Mutex_14acquire_unsafeEv,"axG",%progbits,_ZN3r2p6Mutex_14acquire_unsafeEv,c
 2543      AFF30080 
 2543      AFF30080 
 2544              		.align	2
 2545              		.p2align 4,,15
 2546              		.weak	_ZN3r2p6Mutex_14acquire_unsafeEv
 2547              		.thumb
 2548              		.thumb_func
 2549              		.type	_ZN3r2p6Mutex_14acquire_unsafeEv, %function
 2550              	_ZN3r2p6Mutex_14acquire_unsafeEv:
 2551              	.LFB330:
 2552              		.loc 16 38 0
 2553              		.cfi_startproc
 2554              		@ args = 0, pretend = 0, frame = 8
 2555              		@ frame_needed = 0, uses_anonymous_args = 0
ARM GAS  /tmp/cc5qDRak.s 			page 47


 2556 0000 00B5     		push	{lr}
 2557              		.cfi_def_cfa_offset 4
 2558              		.cfi_offset 14, -4
 2559 0002 83B0     		sub	sp, sp, #12
 2560              		.cfi_def_cfa_offset 16
 2561 0004 0190     		str	r0, [sp, #4]
 2562              		.loc 16 40 0
 2563 0006 019B     		ldr	r3, [sp, #4]
 2564 0008 1846     		mov	r0, r3
 2565 000a FFF7FEFF 		bl	chMtxLockS
 2566              		.loc 16 41 0
 2567 000e 03B0     		add	sp, sp, #12
 2568              		.cfi_def_cfa_offset 4
 2569              		@ sp needed
 2570 0010 5DF804FB 		ldr	pc, [sp], #4
 2571              		.cfi_endproc
 2572              	.LFE330:
 2573              		.size	_ZN3r2p6Mutex_14acquire_unsafeEv, .-_ZN3r2p6Mutex_14acquire_unsafeEv
 2574 0014 AFF30080 		.section	.text._ZN3r2p6Mutex_14release_unsafeEv,"axG",%progbits,_ZN3r2p6Mutex_14release_unsafeEv,c
 2574      AFF30080 
 2574      AFF30080 
 2575              		.align	2
 2576              		.p2align 4,,15
 2577              		.weak	_ZN3r2p6Mutex_14release_unsafeEv
 2578              		.thumb
 2579              		.thumb_func
 2580              		.type	_ZN3r2p6Mutex_14release_unsafeEv, %function
 2581              	_ZN3r2p6Mutex_14release_unsafeEv:
 2582              	.LFB331:
 2583              		.loc 16 45 0
 2584              		.cfi_startproc
 2585              		@ args = 0, pretend = 0, frame = 8
 2586              		@ frame_needed = 0, uses_anonymous_args = 0
 2587 0000 00B5     		push	{lr}
 2588              		.cfi_def_cfa_offset 4
 2589              		.cfi_offset 14, -4
 2590 0002 83B0     		sub	sp, sp, #12
 2591              		.cfi_def_cfa_offset 16
 2592 0004 0190     		str	r0, [sp, #4]
 2593              		.loc 16 47 0
 2594 0006 FFF7FEFF 		bl	chMtxUnlockS
 2595              		.loc 16 48 0
 2596 000a 03B0     		add	sp, sp, #12
 2597              		.cfi_def_cfa_offset 4
 2598              		@ sp needed
 2599 000c 5DF804FB 		ldr	pc, [sp], #4
 2600              		.cfi_endproc
 2601              	.LFE331:
 2602              		.size	_ZN3r2p6Mutex_14release_unsafeEv, .-_ZN3r2p6Mutex_14release_unsafeEv
 2603              		.section	.text._ZN3r2p6Mutex_C2Eb,"axG",%progbits,_ZN3r2p6Mutex_C5Eb,comdat
 2604              		.align	2
 2605              		.p2align 4,,15
 2606              		.weak	_ZN3r2p6Mutex_C2Eb
 2607              		.thumb
 2608              		.thumb_func
 2609              		.type	_ZN3r2p6Mutex_C2Eb, %function
 2610              	_ZN3r2p6Mutex_C2Eb:
ARM GAS  /tmp/cc5qDRak.s 			page 48


 2611              	.LFB339:
 2612              		.loc 16 80 0
 2613              		.cfi_startproc
 2614              		@ args = 0, pretend = 0, frame = 8
 2615              		@ frame_needed = 0, uses_anonymous_args = 0
 2616 0000 00B5     		push	{lr}
 2617              		.cfi_def_cfa_offset 4
 2618              		.cfi_offset 14, -4
 2619 0002 83B0     		sub	sp, sp, #12
 2620              		.cfi_def_cfa_offset 16
 2621 0004 0190     		str	r0, [sp, #4]
 2622 0006 0B46     		mov	r3, r1
 2623 0008 8DF80330 		strb	r3, [sp, #3]
 2624              	.LBB53:
 2625              		.loc 16 80 0
 2626 000c 0198     		ldr	r0, [sp, #4]
 2627 000e FFF7FEFF 		bl	_ZN3r2p10UncopyableC2Ev
 2628              		.loc 16 82 0
 2629 0012 9DF80330 		ldrb	r3, [sp, #3]	@ zero_extendqisi2
 2630 0016 002B     		cmp	r3, #0
 2631 0018 02D0     		beq	.L160
 2632              		.loc 16 83 0
 2633 001a 0198     		ldr	r0, [sp, #4]
 2634 001c FFF7FEFF 		bl	_ZN3r2p6Mutex_10initializeEv
 2635              	.L160:
 2636              	.LBE53:
 2637              		.loc 16 85 0
 2638 0020 019B     		ldr	r3, [sp, #4]
 2639 0022 1846     		mov	r0, r3
 2640 0024 03B0     		add	sp, sp, #12
 2641              		.cfi_def_cfa_offset 4
 2642              		@ sp needed
 2643 0026 5DF804FB 		ldr	pc, [sp], #4
 2644              		.cfi_endproc
 2645              	.LFE339:
 2646              		.size	_ZN3r2p6Mutex_C2Eb, .-_ZN3r2p6Mutex_C2Eb
 2647              		.weak	_ZN3r2p6Mutex_C1Eb
 2648              		.thumb_set _ZN3r2p6Mutex_C1Eb,_ZN3r2p6Mutex_C2Eb
 2649 002a 00BFAFF3 		.section	.text._ZN3r2p5Mutex10initializeEv,"axG",%progbits,_ZN3r2p5Mutex10initializeEv,comdat
 2649      0080
 2650              		.align	2
 2651              		.p2align 4,,15
 2652              		.weak	_ZN3r2p5Mutex10initializeEv
 2653              		.thumb
 2654              		.thumb_func
 2655              		.type	_ZN3r2p5Mutex10initializeEv, %function
 2656              	_ZN3r2p5Mutex10initializeEv:
 2657              	.LFB341:
 2658              		.file 17 "/home/ergae/r2p-sdk/core/Middleware/include/r2p/Mutex.hpp"
 2659              		.loc 17 29 0
 2660              		.cfi_startproc
 2661              		@ args = 0, pretend = 0, frame = 8
 2662              		@ frame_needed = 0, uses_anonymous_args = 0
 2663 0000 00B5     		push	{lr}
 2664              		.cfi_def_cfa_offset 4
 2665              		.cfi_offset 14, -4
 2666 0002 83B0     		sub	sp, sp, #12
ARM GAS  /tmp/cc5qDRak.s 			page 49


 2667              		.cfi_def_cfa_offset 16
 2668 0004 0190     		str	r0, [sp, #4]
 2669              		.loc 17 31 0
 2670 0006 019B     		ldr	r3, [sp, #4]
 2671 0008 0433     		adds	r3, r3, #4
 2672 000a 1846     		mov	r0, r3
 2673 000c FFF7FEFF 		bl	_ZN3r2p6Mutex_10initializeEv
 2674              		.loc 17 32 0
 2675 0010 03B0     		add	sp, sp, #12
 2676              		.cfi_def_cfa_offset 4
 2677              		@ sp needed
 2678 0012 5DF804FB 		ldr	pc, [sp], #4
 2679              		.cfi_endproc
 2680              	.LFE341:
 2681              		.size	_ZN3r2p5Mutex10initializeEv, .-_ZN3r2p5Mutex10initializeEv
 2682 0016 00BFAFF3 		.section	.text._ZN3r2p5Mutex14acquire_unsafeEv,"axG",%progbits,_ZN3r2p5Mutex14acquire_unsafeEv,com
 2682      0080AFF3 
 2682      0080
 2683              		.align	2
 2684              		.p2align 4,,15
 2685              		.weak	_ZN3r2p5Mutex14acquire_unsafeEv
 2686              		.thumb
 2687              		.thumb_func
 2688              		.type	_ZN3r2p5Mutex14acquire_unsafeEv, %function
 2689              	_ZN3r2p5Mutex14acquire_unsafeEv:
 2690              	.LFB342:
 2691              		.loc 17 36 0
 2692              		.cfi_startproc
 2693              		@ args = 0, pretend = 0, frame = 8
 2694              		@ frame_needed = 0, uses_anonymous_args = 0
 2695 0000 00B5     		push	{lr}
 2696              		.cfi_def_cfa_offset 4
 2697              		.cfi_offset 14, -4
 2698 0002 83B0     		sub	sp, sp, #12
 2699              		.cfi_def_cfa_offset 16
 2700 0004 0190     		str	r0, [sp, #4]
 2701              		.loc 17 37 0
 2702 0006 019B     		ldr	r3, [sp, #4]
 2703 0008 0433     		adds	r3, r3, #4
 2704 000a 1846     		mov	r0, r3
 2705 000c FFF7FEFF 		bl	_ZN3r2p6Mutex_14acquire_unsafeEv
 2706              		.loc 17 38 0
 2707 0010 03B0     		add	sp, sp, #12
 2708              		.cfi_def_cfa_offset 4
 2709              		@ sp needed
 2710 0012 5DF804FB 		ldr	pc, [sp], #4
 2711              		.cfi_endproc
 2712              	.LFE342:
 2713              		.size	_ZN3r2p5Mutex14acquire_unsafeEv, .-_ZN3r2p5Mutex14acquire_unsafeEv
 2714 0016 00BFAFF3 		.section	.text._ZN3r2p5Mutex14release_unsafeEv,"axG",%progbits,_ZN3r2p5Mutex14release_unsafeEv,com
 2714      0080AFF3 
 2714      0080
 2715              		.align	2
 2716              		.p2align 4,,15
 2717              		.weak	_ZN3r2p5Mutex14release_unsafeEv
 2718              		.thumb
 2719              		.thumb_func
ARM GAS  /tmp/cc5qDRak.s 			page 50


 2720              		.type	_ZN3r2p5Mutex14release_unsafeEv, %function
 2721              	_ZN3r2p5Mutex14release_unsafeEv:
 2722              	.LFB343:
 2723              		.loc 17 42 0
 2724              		.cfi_startproc
 2725              		@ args = 0, pretend = 0, frame = 8
 2726              		@ frame_needed = 0, uses_anonymous_args = 0
 2727 0000 00B5     		push	{lr}
 2728              		.cfi_def_cfa_offset 4
 2729              		.cfi_offset 14, -4
 2730 0002 83B0     		sub	sp, sp, #12
 2731              		.cfi_def_cfa_offset 16
 2732 0004 0190     		str	r0, [sp, #4]
 2733              		.loc 17 43 0
 2734 0006 019B     		ldr	r3, [sp, #4]
 2735 0008 0433     		adds	r3, r3, #4
 2736 000a 1846     		mov	r0, r3
 2737 000c FFF7FEFF 		bl	_ZN3r2p6Mutex_14release_unsafeEv
 2738              		.loc 17 44 0
 2739 0010 03B0     		add	sp, sp, #12
 2740              		.cfi_def_cfa_offset 4
 2741              		@ sp needed
 2742 0012 5DF804FB 		ldr	pc, [sp], #4
 2743              		.cfi_endproc
 2744              	.LFE343:
 2745              		.size	_ZN3r2p5Mutex14release_unsafeEv, .-_ZN3r2p5Mutex14release_unsafeEv
 2746 0016 00BFAFF3 		.section	.text._ZN3r2p5MutexC2Eb,"axG",%progbits,_ZN3r2p5MutexC5Eb,comdat
 2746      0080AFF3 
 2746      0080
 2747              		.align	2
 2748              		.p2align 4,,15
 2749              		.weak	_ZN3r2p5MutexC2Eb
 2750              		.thumb
 2751              		.thumb_func
 2752              		.type	_ZN3r2p5MutexC2Eb, %function
 2753              	_ZN3r2p5MutexC2Eb:
 2754              	.LFB353:
 2755              		.loc 17 67 0
 2756              		.cfi_startproc
 2757              		@ args = 0, pretend = 0, frame = 8
 2758              		@ frame_needed = 0, uses_anonymous_args = 0
 2759 0000 00B5     		push	{lr}
 2760              		.cfi_def_cfa_offset 4
 2761              		.cfi_offset 14, -4
 2762 0002 83B0     		sub	sp, sp, #12
 2763              		.cfi_def_cfa_offset 16
 2764 0004 0190     		str	r0, [sp, #4]
 2765 0006 0B46     		mov	r3, r1
 2766 0008 8DF80330 		strb	r3, [sp, #3]
 2767              	.LBB54:
 2768              		.loc 17 69 0
 2769 000c 0198     		ldr	r0, [sp, #4]
 2770 000e FFF7FEFF 		bl	_ZN3r2p10UncopyableC2Ev
 2771 0012 019B     		ldr	r3, [sp, #4]
 2772 0014 1A1D     		adds	r2, r3, #4
 2773 0016 9DF80330 		ldrb	r3, [sp, #3]	@ zero_extendqisi2
 2774 001a 1046     		mov	r0, r2
ARM GAS  /tmp/cc5qDRak.s 			page 51


 2775 001c 1946     		mov	r1, r3
 2776 001e FFF7FEFF 		bl	_ZN3r2p6Mutex_C1Eb
 2777              	.LBE54:
 2778              		.loc 17 70 0
 2779 0022 019B     		ldr	r3, [sp, #4]
 2780 0024 1846     		mov	r0, r3
 2781 0026 03B0     		add	sp, sp, #12
 2782              		.cfi_def_cfa_offset 4
 2783              		@ sp needed
 2784 0028 5DF804FB 		ldr	pc, [sp], #4
 2785              		.cfi_endproc
 2786              	.LFE353:
 2787              		.size	_ZN3r2p5MutexC2Eb, .-_ZN3r2p5MutexC2Eb
 2788              		.weak	_ZN3r2p5MutexC1Eb
 2789              		.thumb_set _ZN3r2p5MutexC1Eb,_ZN3r2p5MutexC2Eb
 2790 002c AFF30080 		.section	.text._ZN3r2p7ReMutex10initializeEv,"axG",%progbits,_ZN3r2p7ReMutex10initializeEv,comdat
 2791              		.align	2
 2792              		.p2align 4,,15
 2793              		.weak	_ZN3r2p7ReMutex10initializeEv
 2794              		.thumb
 2795              		.thumb_func
 2796              		.type	_ZN3r2p7ReMutex10initializeEv, %function
 2797              	_ZN3r2p7ReMutex10initializeEv:
 2798              	.LFB355:
 2799              		.file 18 "/home/ergae/r2p-sdk/core/Middleware/include/r2p/ReMutex.hpp"
 2800              		.loc 18 30 0
 2801              		.cfi_startproc
 2802              		@ args = 0, pretend = 0, frame = 8
 2803              		@ frame_needed = 0, uses_anonymous_args = 0
 2804 0000 00B5     		push	{lr}
 2805              		.cfi_def_cfa_offset 4
 2806              		.cfi_offset 14, -4
 2807 0002 83B0     		sub	sp, sp, #12
 2808              		.cfi_def_cfa_offset 16
 2809 0004 0190     		str	r0, [sp, #4]
 2810              		.loc 18 32 0
 2811 0006 019B     		ldr	r3, [sp, #4]
 2812 0008 0022     		movs	r2, #0
 2813 000a 1A60     		str	r2, [r3]
 2814              		.loc 18 33 0
 2815 000c 019B     		ldr	r3, [sp, #4]
 2816 000e 0433     		adds	r3, r3, #4
 2817 0010 1846     		mov	r0, r3
 2818 0012 FFF7FEFF 		bl	_ZN3r2p5Mutex10initializeEv
 2819              		.loc 18 34 0
 2820 0016 03B0     		add	sp, sp, #12
 2821              		.cfi_def_cfa_offset 4
 2822              		@ sp needed
 2823 0018 5DF804FB 		ldr	pc, [sp], #4
 2824              		.cfi_endproc
 2825              	.LFE355:
 2826              		.size	_ZN3r2p7ReMutex10initializeEv, .-_ZN3r2p7ReMutex10initializeEv
 2827 001c AFF30080 		.section	.text._ZN3r2p7ReMutex14acquire_unsafeEv,"axG",%progbits,_ZN3r2p7ReMutex14acquire_unsafeEv
 2828              		.align	2
 2829              		.p2align 4,,15
 2830              		.weak	_ZN3r2p7ReMutex14acquire_unsafeEv
 2831              		.thumb
ARM GAS  /tmp/cc5qDRak.s 			page 52


 2832              		.thumb_func
 2833              		.type	_ZN3r2p7ReMutex14acquire_unsafeEv, %function
 2834              	_ZN3r2p7ReMutex14acquire_unsafeEv:
 2835              	.LFB356:
 2836              		.loc 18 38 0
 2837              		.cfi_startproc
 2838              		@ args = 0, pretend = 0, frame = 8
 2839              		@ frame_needed = 0, uses_anonymous_args = 0
 2840 0000 00B5     		push	{lr}
 2841              		.cfi_def_cfa_offset 4
 2842              		.cfi_offset 14, -4
 2843 0002 83B0     		sub	sp, sp, #12
 2844              		.cfi_def_cfa_offset 16
 2845 0004 0190     		str	r0, [sp, #4]
 2846              		.loc 18 40 0
 2847 0006 019B     		ldr	r3, [sp, #4]
 2848 0008 1B68     		ldr	r3, [r3]
 2849 000a 5A1C     		adds	r2, r3, #1
 2850 000c 019B     		ldr	r3, [sp, #4]
 2851 000e 1A60     		str	r2, [r3]
 2852 0010 019B     		ldr	r3, [sp, #4]
 2853 0012 1B68     		ldr	r3, [r3]
 2854 0014 012B     		cmp	r3, #1
 2855 0016 0CBF     		ite	eq
 2856 0018 0123     		moveq	r3, #1
 2857 001a 0023     		movne	r3, #0
 2858 001c DBB2     		uxtb	r3, r3
 2859 001e 002B     		cmp	r3, #0
 2860 0020 04D0     		beq	.L169
 2861              		.loc 18 41 0
 2862 0022 019B     		ldr	r3, [sp, #4]
 2863 0024 0433     		adds	r3, r3, #4
 2864 0026 1846     		mov	r0, r3
 2865 0028 FFF7FEFF 		bl	_ZN3r2p5Mutex14acquire_unsafeEv
 2866              	.L169:
 2867              		.loc 18 43 0
 2868 002c 03B0     		add	sp, sp, #12
 2869              		.cfi_def_cfa_offset 4
 2870              		@ sp needed
 2871 002e 5DF804FB 		ldr	pc, [sp], #4
 2872              		.cfi_endproc
 2873              	.LFE356:
 2874              		.size	_ZN3r2p7ReMutex14acquire_unsafeEv, .-_ZN3r2p7ReMutex14acquire_unsafeEv
 2875 0032 00BFAFF3 		.section	.text._ZN3r2p7ReMutex14release_unsafeEv,"axG",%progbits,_ZN3r2p7ReMutex14release_unsafeEv
 2875      0080AFF3 
 2875      0080AFF3 
 2875      0080
 2876              		.align	2
 2877              		.p2align 4,,15
 2878              		.weak	_ZN3r2p7ReMutex14release_unsafeEv
 2879              		.thumb
 2880              		.thumb_func
 2881              		.type	_ZN3r2p7ReMutex14release_unsafeEv, %function
 2882              	_ZN3r2p7ReMutex14release_unsafeEv:
 2883              	.LFB357:
 2884              		.loc 18 47 0
 2885              		.cfi_startproc
ARM GAS  /tmp/cc5qDRak.s 			page 53


 2886              		@ args = 0, pretend = 0, frame = 8
 2887              		@ frame_needed = 0, uses_anonymous_args = 0
 2888 0000 00B5     		push	{lr}
 2889              		.cfi_def_cfa_offset 4
 2890              		.cfi_offset 14, -4
 2891 0002 83B0     		sub	sp, sp, #12
 2892              		.cfi_def_cfa_offset 16
 2893 0004 0190     		str	r0, [sp, #4]
 2894              		.loc 18 49 0
 2895 0006 019B     		ldr	r3, [sp, #4]
 2896 0008 1B68     		ldr	r3, [r3]
 2897 000a 002B     		cmp	r3, #0
 2898 000c 02D1     		bne	.L172
 2899              		.loc 18 49 0 is_stmt 0 discriminator 1
 2900 000e 0C48     		ldr	r0, .L174
 2901 0010 FFF7FEFF 		bl	chDbgPanic
 2902              	.L172:
 2903              		.loc 18 51 0 is_stmt 1
 2904 0014 019B     		ldr	r3, [sp, #4]
 2905 0016 1B68     		ldr	r3, [r3]
 2906 0018 5A1E     		subs	r2, r3, #1
 2907 001a 019B     		ldr	r3, [sp, #4]
 2908 001c 1A60     		str	r2, [r3]
 2909 001e 019B     		ldr	r3, [sp, #4]
 2910 0020 1B68     		ldr	r3, [r3]
 2911 0022 002B     		cmp	r3, #0
 2912 0024 0CBF     		ite	eq
 2913 0026 0123     		moveq	r3, #1
 2914 0028 0023     		movne	r3, #0
 2915 002a DBB2     		uxtb	r3, r3
 2916 002c 002B     		cmp	r3, #0
 2917 002e 04D0     		beq	.L171
 2918              		.loc 18 52 0
 2919 0030 019B     		ldr	r3, [sp, #4]
 2920 0032 0433     		adds	r3, r3, #4
 2921 0034 1846     		mov	r0, r3
 2922 0036 FFF7FEFF 		bl	_ZN3r2p5Mutex14release_unsafeEv
 2923              	.L171:
 2924              		.loc 18 54 0
 2925 003a 03B0     		add	sp, sp, #12
 2926              		.cfi_def_cfa_offset 4
 2927              		@ sp needed
 2928 003c 5DF804FB 		ldr	pc, [sp], #4
 2929              	.L175:
 2930              		.align	2
 2931              	.L174:
 2932 0040 00000000 		.word	.LC0
 2933              		.cfi_endproc
 2934              	.LFE357:
 2935              		.size	_ZN3r2p7ReMutex14release_unsafeEv, .-_ZN3r2p7ReMutex14release_unsafeEv
 2936 0044 AFF30080 		.section	.text._ZN3r2p7ReMutex7acquireEv,"axG",%progbits,_ZN3r2p7ReMutex7acquireEv,comdat
 2936      AFF30080 
 2936      AFF30080 
 2937              		.align	2
 2938              		.p2align 4,,15
 2939              		.weak	_ZN3r2p7ReMutex7acquireEv
 2940              		.thumb
ARM GAS  /tmp/cc5qDRak.s 			page 54


 2941              		.thumb_func
 2942              		.type	_ZN3r2p7ReMutex7acquireEv, %function
 2943              	_ZN3r2p7ReMutex7acquireEv:
 2944              	.LFB358:
 2945              		.loc 18 58 0
 2946              		.cfi_startproc
 2947              		@ args = 0, pretend = 0, frame = 8
 2948              		@ frame_needed = 0, uses_anonymous_args = 0
 2949 0000 00B5     		push	{lr}
 2950              		.cfi_def_cfa_offset 4
 2951              		.cfi_offset 14, -4
 2952 0002 83B0     		sub	sp, sp, #12
 2953              		.cfi_def_cfa_offset 16
 2954 0004 0190     		str	r0, [sp, #4]
 2955              		.loc 18 60 0
 2956 0006 FFF7FEFF 		bl	_ZN3r2p7SysLock7acquireEv
 2957              		.loc 18 61 0
 2958 000a 0198     		ldr	r0, [sp, #4]
 2959 000c FFF7FEFF 		bl	_ZN3r2p7ReMutex14acquire_unsafeEv
 2960              		.loc 18 62 0
 2961 0010 FFF7FEFF 		bl	_ZN3r2p7SysLock7releaseEv
 2962              		.loc 18 63 0
 2963 0014 03B0     		add	sp, sp, #12
 2964              		.cfi_def_cfa_offset 4
 2965              		@ sp needed
 2966 0016 5DF804FB 		ldr	pc, [sp], #4
 2967              		.cfi_endproc
 2968              	.LFE358:
 2969              		.size	_ZN3r2p7ReMutex7acquireEv, .-_ZN3r2p7ReMutex7acquireEv
 2970 001a 00BFAFF3 		.section	.text._ZN3r2p7ReMutex7releaseEv,"axG",%progbits,_ZN3r2p7ReMutex7releaseEv,comdat
 2970      0080
 2971              		.align	2
 2972              		.p2align 4,,15
 2973              		.weak	_ZN3r2p7ReMutex7releaseEv
 2974              		.thumb
 2975              		.thumb_func
 2976              		.type	_ZN3r2p7ReMutex7releaseEv, %function
 2977              	_ZN3r2p7ReMutex7releaseEv:
 2978              	.LFB359:
 2979              		.loc 18 67 0
 2980              		.cfi_startproc
 2981              		@ args = 0, pretend = 0, frame = 8
 2982              		@ frame_needed = 0, uses_anonymous_args = 0
 2983 0000 00B5     		push	{lr}
 2984              		.cfi_def_cfa_offset 4
 2985              		.cfi_offset 14, -4
 2986 0002 83B0     		sub	sp, sp, #12
 2987              		.cfi_def_cfa_offset 16
 2988 0004 0190     		str	r0, [sp, #4]
 2989              		.loc 18 69 0
 2990 0006 FFF7FEFF 		bl	_ZN3r2p7SysLock7acquireEv
 2991              		.loc 18 70 0
 2992 000a 0198     		ldr	r0, [sp, #4]
 2993 000c FFF7FEFF 		bl	_ZN3r2p7ReMutex14release_unsafeEv
 2994              		.loc 18 71 0
 2995 0010 FFF7FEFF 		bl	_ZN3r2p7SysLock7releaseEv
 2996              		.loc 18 72 0
ARM GAS  /tmp/cc5qDRak.s 			page 55


 2997 0014 03B0     		add	sp, sp, #12
 2998              		.cfi_def_cfa_offset 4
 2999              		@ sp needed
 3000 0016 5DF804FB 		ldr	pc, [sp], #4
 3001              		.cfi_endproc
 3002              	.LFE359:
 3003              		.size	_ZN3r2p7ReMutex7releaseEv, .-_ZN3r2p7ReMutex7releaseEv
 3004 001a 00BFAFF3 		.section	.text._ZN3r2p7ReMutexC2Eb,"axG",%progbits,_ZN3r2p7ReMutexC5Eb,comdat
 3004      0080
 3005              		.align	2
 3006              		.p2align 4,,15
 3007              		.weak	_ZN3r2p7ReMutexC2Eb
 3008              		.thumb
 3009              		.thumb_func
 3010              		.type	_ZN3r2p7ReMutexC2Eb, %function
 3011              	_ZN3r2p7ReMutexC2Eb:
 3012              	.LFB367:
 3013              		.loc 18 84 0
 3014              		.cfi_startproc
 3015              		@ args = 0, pretend = 0, frame = 8
 3016              		@ frame_needed = 0, uses_anonymous_args = 0
 3017 0000 00B5     		push	{lr}
 3018              		.cfi_def_cfa_offset 4
 3019              		.cfi_offset 14, -4
 3020 0002 83B0     		sub	sp, sp, #12
 3021              		.cfi_def_cfa_offset 16
 3022 0004 0190     		str	r0, [sp, #4]
 3023 0006 0B46     		mov	r3, r1
 3024 0008 8DF80330 		strb	r3, [sp, #3]
 3025              	.LBB55:
 3026              		.loc 18 87 0
 3027 000c 0198     		ldr	r0, [sp, #4]
 3028 000e FFF7FEFF 		bl	_ZN3r2p10UncopyableC2Ev
 3029 0012 019B     		ldr	r3, [sp, #4]
 3030 0014 0022     		movs	r2, #0
 3031 0016 1A60     		str	r2, [r3]
 3032 0018 019B     		ldr	r3, [sp, #4]
 3033 001a 1A1D     		adds	r2, r3, #4
 3034 001c 9DF80330 		ldrb	r3, [sp, #3]	@ zero_extendqisi2
 3035 0020 1046     		mov	r0, r2
 3036 0022 1946     		mov	r1, r3
 3037 0024 FFF7FEFF 		bl	_ZN3r2p5MutexC1Eb
 3038              	.LBE55:
 3039              		.loc 18 88 0
 3040 0028 019B     		ldr	r3, [sp, #4]
 3041 002a 1846     		mov	r0, r3
 3042 002c 03B0     		add	sp, sp, #12
 3043              		.cfi_def_cfa_offset 4
 3044              		@ sp needed
 3045 002e 5DF804FB 		ldr	pc, [sp], #4
 3046              		.cfi_endproc
 3047              	.LFE367:
 3048              		.size	_ZN3r2p7ReMutexC2Eb, .-_ZN3r2p7ReMutexC2Eb
 3049              		.weak	_ZN3r2p7ReMutexC1Eb
 3050              		.thumb_set _ZN3r2p7ReMutexC1Eb,_ZN3r2p7ReMutexC2Eb
 3051 0032 00BFAFF3 		.section	.text._ZNK3r2p10Middleware10is_stoppedEv,"axG",%progbits,_ZNK3r2p10Middleware10is_stopped
 3051      0080AFF3 
ARM GAS  /tmp/cc5qDRak.s 			page 56


 3051      0080AFF3 
 3051      0080
 3052              		.align	2
 3053              		.p2align 4,,15
 3054              		.weak	_ZNK3r2p10Middleware10is_stoppedEv
 3055              		.thumb
 3056              		.thumb_func
 3057              		.type	_ZNK3r2p10Middleware10is_stoppedEv, %function
 3058              	_ZNK3r2p10Middleware10is_stoppedEv:
 3059              	.LFB594:
 3060              		.file 19 "/home/ergae/r2p-sdk/core/Middleware/include/r2p/Middleware.hpp"
 3061              		.loc 19 205 0
 3062              		.cfi_startproc
 3063              		@ args = 0, pretend = 0, frame = 8
 3064              		@ frame_needed = 0, uses_anonymous_args = 0
 3065              		@ link register save eliminated.
 3066 0000 82B0     		sub	sp, sp, #8
 3067              		.cfi_def_cfa_offset 8
 3068 0002 0190     		str	r0, [sp, #4]
 3069              		.loc 19 207 0
 3070 0004 019B     		ldr	r3, [sp, #4]
 3071 0006 93F85832 		ldrb	r3, [r3, #600]	@ zero_extendqisi2
 3072              		.loc 19 208 0
 3073 000a 1846     		mov	r0, r3
 3074 000c 02B0     		add	sp, sp, #8
 3075              		.cfi_def_cfa_offset 0
 3076              		@ sp needed
 3077 000e 7047     		bx	lr
 3078              		.cfi_endproc
 3079              	.LFE594:
 3080              		.size	_ZNK3r2p10Middleware10is_stoppedEv, .-_ZNK3r2p10Middleware10is_stoppedEv
 3081              		.global	_ZN3r2p10Middleware14rebooted_magicE
 3082              		.section	.noreset,"aw",%progbits
 3083              		.align	2
 3084              		.type	_ZN3r2p10Middleware14rebooted_magicE, %object
 3085              		.size	_ZN3r2p10Middleware14rebooted_magicE, 4
 3086              	_ZN3r2p10Middleware14rebooted_magicE:
 3087 0000 00000000 		.space	4
 3088              		.global	_ZN3r2p10Middleware15boot_mode_magicE
 3089              		.align	2
 3090              		.type	_ZN3r2p10Middleware15boot_mode_magicE, %object
 3091              		.size	_ZN3r2p10Middleware15boot_mode_magicE, 4
 3092              	_ZN3r2p10Middleware15boot_mode_magicE:
 3093 0004 00000000 		.space	4
 3094              		.section	.text._ZN3r2p10Middleware10initializeEPvjmS1_jm,"ax",%progbits
 3095              		.align	2
 3096              		.p2align 4,,15
 3097              		.global	_ZN3r2p10Middleware10initializeEPvjmS1_jm
 3098              		.thumb
 3099              		.thumb_func
 3100              		.type	_ZN3r2p10Middleware10initializeEPvjmS1_jm, %function
 3101              	_ZN3r2p10Middleware10initializeEPvjmS1_jm:
 3102              	.LFB598:
 3103              		.file 20 "/home/ergae/r2p-sdk/core/Middleware/src/Middleware.cpp"
 3104              		.loc 20 25 0
 3105              		.cfi_startproc
 3106              		@ args = 12, pretend = 0, frame = 16
ARM GAS  /tmp/cc5qDRak.s 			page 57


 3107              		@ frame_needed = 0, uses_anonymous_args = 0
 3108 0000 00B5     		push	{lr}
 3109              		.cfi_def_cfa_offset 4
 3110              		.cfi_offset 14, -4
 3111 0002 85B0     		sub	sp, sp, #20
 3112              		.cfi_def_cfa_offset 24
 3113 0004 0390     		str	r0, [sp, #12]
 3114 0006 0291     		str	r1, [sp, #8]
 3115 0008 0192     		str	r2, [sp, #4]
 3116 000a 0093     		str	r3, [sp]
 3117              		.loc 20 27 0
 3118 000c 029B     		ldr	r3, [sp, #8]
 3119 000e 002B     		cmp	r3, #0
 3120 0010 02D1     		bne	.L184
 3121              		.loc 20 27 0 is_stmt 0 discriminator 1
 3122 0012 1148     		ldr	r0, .L186
 3123 0014 FFF7FEFF 		bl	chDbgPanic
 3124              	.L184:
 3125              		.loc 20 28 0 is_stmt 1
 3126 0018 019B     		ldr	r3, [sp, #4]
 3127 001a 002B     		cmp	r3, #0
 3128 001c 02D1     		bne	.L185
 3129              		.loc 20 28 0 is_stmt 0 discriminator 1
 3130 001e 0E48     		ldr	r0, .L186
 3131 0020 FFF7FEFF 		bl	chDbgPanic
 3132              	.L185:
 3133              		.loc 20 30 0 is_stmt 1
 3134 0024 039B     		ldr	r3, [sp, #12]
 3135 0026 1033     		adds	r3, r3, #16
 3136 0028 1846     		mov	r0, r3
 3137 002a FFF7FEFF 		bl	_ZN3r2p7ReMutex10initializeEv
 3138              		.loc 20 32 0
 3139 002e 039B     		ldr	r3, [sp, #12]
 3140 0030 029A     		ldr	r2, [sp, #8]
 3141 0032 9A65     		str	r2, [r3, #88]
 3142              		.loc 20 33 0
 3143 0034 039B     		ldr	r3, [sp, #12]
 3144 0036 019A     		ldr	r2, [sp, #4]
 3145 0038 DA65     		str	r2, [r3, #92]
 3146              		.loc 20 34 0
 3147 003a 039B     		ldr	r3, [sp, #12]
 3148 003c 009A     		ldr	r2, [sp]
 3149 003e 5A66     		str	r2, [r3, #100]
 3150              		.loc 20 49 0
 3151 0040 039B     		ldr	r3, [sp, #12]
 3152 0042 03F10802 		add	r2, r3, #8
 3153 0046 039B     		ldr	r3, [sp, #12]
 3154 0048 5033     		adds	r3, r3, #80
 3155 004a 1046     		mov	r0, r2
 3156 004c 1946     		mov	r1, r3
 3157 004e FFF7FEFF 		bl	_ZN3r2p10StaticListINS_5TopicEE4linkERNS2_4LinkE
 3158              		.loc 20 50 0
 3159 0052 05B0     		add	sp, sp, #20
 3160              		.cfi_def_cfa_offset 4
 3161              		@ sp needed
 3162 0054 5DF804FB 		ldr	pc, [sp], #4
 3163              	.L187:
ARM GAS  /tmp/cc5qDRak.s 			page 58


 3164              		.align	2
 3165              	.L186:
 3166 0058 00000000 		.word	.LC0
 3167              		.cfi_endproc
 3168              	.LFE598:
 3169              		.size	_ZN3r2p10Middleware10initializeEPvjmS1_jm, .-_ZN3r2p10Middleware10initializeEPvjmS1_jm
 3170 005c AFF30080 		.section	.rodata
 3171 000d 000000   		.align	2
 3172              	.LC1:
 3173 0010 5232505F 		.ascii	"R2P_MGMT\000"
 3173      4D474D54 
 3173      00
 3174              		.section	.text._ZN3r2p10Middleware5startEv,"ax",%progbits
 3175              		.align	2
 3176              		.p2align 4,,15
 3177              		.global	_ZN3r2p10Middleware5startEv
 3178              		.thumb
 3179              		.thumb_func
 3180              		.type	_ZN3r2p10Middleware5startEv, %function
 3181              	_ZN3r2p10Middleware5startEv:
 3182              	.LFB599:
 3183              		.loc 20 53 0
 3184              		.cfi_startproc
 3185              		@ args = 0, pretend = 0, frame = 16
 3186              		@ frame_needed = 0, uses_anonymous_args = 0
 3187 0000 00B5     		push	{lr}
 3188              		.cfi_def_cfa_offset 4
 3189              		.cfi_offset 14, -4
 3190 0002 87B0     		sub	sp, sp, #28
 3191              		.cfi_def_cfa_offset 32
 3192 0004 0390     		str	r0, [sp, #12]
 3193              		.loc 20 70 0
 3194 0006 039B     		ldr	r3, [sp, #12]
 3195 0008 986D     		ldr	r0, [r3, #88]
 3196 000a 039B     		ldr	r3, [sp, #12]
 3197 000c D96D     		ldr	r1, [r3, #92]
 3198 000e 039B     		ldr	r3, [sp, #12]
 3199 0010 5A6E     		ldr	r2, [r3, #100]
 3200 0012 0023     		movs	r3, #0
 3201 0014 0093     		str	r3, [sp]
 3202 0016 204B     		ldr	r3, .L195
 3203 0018 0193     		str	r3, [sp, #4]
 3204 001a 204B     		ldr	r3, .L195+4
 3205 001c FFF7FEFF 		bl	_ZN3r2p6Thread13create_staticEPvjmPFlS1_ES1_PKc
 3206 0020 0246     		mov	r2, r0
 3207 0022 039B     		ldr	r3, [sp, #12]
 3208 0024 1A66     		str	r2, [r3, #96]
 3209              		.loc 20 71 0
 3210 0026 039B     		ldr	r3, [sp, #12]
 3211 0028 1B6E     		ldr	r3, [r3, #96]
 3212 002a 002B     		cmp	r3, #0
 3213 002c 02D1     		bne	.L189
 3214              		.loc 20 71 0 is_stmt 0 discriminator 1
 3215 002e 1C48     		ldr	r0, .L195+8
 3216 0030 FFF7FEFF 		bl	chDbgPanic
 3217              	.L189:
 3218              		.loc 20 74 0 is_stmt 1
ARM GAS  /tmp/cc5qDRak.s 			page 59


 3219 0034 FFF7FEFF 		bl	_ZN3r2p7SysLock7acquireEv
 3220              		.loc 20 75 0
 3221 0038 0DE0     		b	.L190
 3222              	.L194:
 3223              		.loc 20 76 0
 3224 003a FFF7FEFF 		bl	_ZN3r2p7SysLock7releaseEv
 3225              		.loc 20 77 0
 3226 003e 05AB     		add	r3, sp, #20
 3227 0040 1846     		mov	r0, r3
 3228 0042 4FF4FA71 		mov	r1, #500
 3229 0046 FFF7FEFF 		bl	_ZN3r2p4Time2msEl
 3230 004a 05AB     		add	r3, sp, #20
 3231 004c 1846     		mov	r0, r3
 3232 004e FFF7FEFF 		bl	_ZN3r2p6Thread5sleepERKNS_4TimeE
 3233              		.loc 20 78 0
 3234 0052 FFF7FEFF 		bl	_ZN3r2p7SysLock7acquireEv
 3235              	.L190:
 3236              		.loc 20 75 0
 3237 0056 039B     		ldr	r3, [sp, #12]
 3238 0058 2833     		adds	r3, r3, #40
 3239 005a 1846     		mov	r0, r3
 3240 005c FFF7FEFF 		bl	_ZNK3r2p5Topic20has_local_publishersEv
 3241 0060 0346     		mov	r3, r0
 3242 0062 83F00103 		eor	r3, r3, #1
 3243 0066 DBB2     		uxtb	r3, r3
 3244 0068 002B     		cmp	r3, #0
 3245 006a 0AD1     		bne	.L191
 3246              		.loc 20 75 0 is_stmt 0 discriminator 2
 3247 006c 039B     		ldr	r3, [sp, #12]
 3248 006e 2833     		adds	r3, r3, #40
 3249 0070 1846     		mov	r0, r3
 3250 0072 FFF7FEFF 		bl	_ZNK3r2p5Topic21has_local_subscribersEv
 3251 0076 0346     		mov	r3, r0
 3252 0078 83F00103 		eor	r3, r3, #1
 3253 007c DBB2     		uxtb	r3, r3
 3254 007e 002B     		cmp	r3, #0
 3255 0080 01D0     		beq	.L192
 3256              	.L191:
 3257              		.loc 20 75 0 discriminator 3
 3258 0082 0123     		movs	r3, #1
 3259 0084 00E0     		b	.L193
 3260              	.L192:
 3261              		.loc 20 75 0 discriminator 4
 3262 0086 0023     		movs	r3, #0
 3263              	.L193:
 3264              		.loc 20 75 0 discriminator 6
 3265 0088 002B     		cmp	r3, #0
 3266 008a D6D1     		bne	.L194
 3267              		.loc 20 80 0 is_stmt 1
 3268 008c FFF7FEFF 		bl	_ZN3r2p7SysLock7releaseEv
 3269              		.loc 20 90 0
 3270 0090 07B0     		add	sp, sp, #28
 3271              		.cfi_def_cfa_offset 4
 3272              		@ sp needed
 3273 0092 5DF804FB 		ldr	pc, [sp], #4
 3274              	.L196:
 3275 0096 00BF     		.align	2
ARM GAS  /tmp/cc5qDRak.s 			page 60


 3276              	.L195:
 3277 0098 10000000 		.word	.LC1
 3278 009c 00000000 		.word	_ZN3r2p10Middleware12mgmt_threadfEPv
 3279 00a0 00000000 		.word	.LC0
 3280              		.cfi_endproc
 3281              	.LFE599:
 3282              		.size	_ZN3r2p10Middleware5startEv, .-_ZN3r2p10Middleware5startEv
 3283 00a4 AFF30080 		.section	.text._ZN3r2p10Middleware4stopEv,"ax",%progbits
 3283      AFF30080 
 3283      AFF30080 
 3284              		.align	2
 3285              		.p2align 4,,15
 3286              		.global	_ZN3r2p10Middleware4stopEv
 3287              		.thumb
 3288              		.thumb_func
 3289              		.type	_ZN3r2p10Middleware4stopEv, %function
 3290              	_ZN3r2p10Middleware4stopEv:
 3291              	.LFB600:
 3292              		.loc 20 93 0
 3293              		.cfi_startproc
 3294              		@ args = 0, pretend = 0, frame = 32
 3295              		@ frame_needed = 0, uses_anonymous_args = 0
 3296 0000 10B5     		push	{r4, lr}
 3297              		.cfi_def_cfa_offset 8
 3298              		.cfi_offset 4, -8
 3299              		.cfi_offset 14, -4
 3300 0002 88B0     		sub	sp, sp, #32
 3301              		.cfi_def_cfa_offset 40
 3302 0004 0190     		str	r0, [sp, #4]
 3303              	.LBB56:
 3304              	.LBB57:
 3305              		.loc 20 95 0
 3306 0006 05AB     		add	r3, sp, #20
 3307 0008 1846     		mov	r0, r3
 3308 000a FFF7FEFF 		bl	_ZN3r2p7SysLock5ScopeC1Ev
 3309              		.loc 20 96 0
 3310 000e 019B     		ldr	r3, [sp, #4]
 3311 0010 93F85832 		ldrb	r3, [r3, #600]	@ zero_extendqisi2
 3312 0014 83F00103 		eor	r3, r3, #1
 3313 0018 DBB2     		uxtb	r3, r3
 3314 001a 002B     		cmp	r3, #0
 3315 001c 05D0     		beq	.L198
 3316              		.loc 20 96 0 is_stmt 0 discriminator 1
 3317 001e 019B     		ldr	r3, [sp, #4]
 3318 0020 0122     		movs	r2, #1
 3319 0022 83F85822 		strb	r2, [r3, #600]
 3320 0026 0124     		movs	r4, #1
 3321 0028 01E0     		b	.L200
 3322              	.L198:
 3323 002a 0024     		movs	r4, #0
 3324              		.loc 20 97 0 is_stmt 1
 3325 002c 00BF     		nop
 3326              	.L200:
 3327 002e 05AB     		add	r3, sp, #20
 3328 0030 1846     		mov	r0, r3
 3329 0032 FFF7FEFF 		bl	_ZN3r2p7SysLock5ScopeD1Ev
 3330 0036 012C     		cmp	r4, #1
ARM GAS  /tmp/cc5qDRak.s 			page 61


 3331 0038 42D1     		bne	.L197
 3332 003a 00BF     		nop
 3333              	.L203:
 3334              	.LBE57:
 3335              	.LBB58:
 3336              	.LBB59:
 3337              	.LBB60:
 3338              		.loc 20 101 0
 3339 003c 019B     		ldr	r3, [sp, #4]
 3340 003e 0433     		adds	r3, r3, #4
 3341 0040 04AA     		add	r2, sp, #16
 3342 0042 1046     		mov	r0, r2
 3343 0044 1946     		mov	r1, r3
 3344 0046 FFF7FEFF 		bl	_ZN3r2p10StaticListINS_4NodeEE5beginEv
 3345 004a 0BE0     		b	.L205
 3346              	.L206:
 3347              		.loc 20 102 0 discriminator 3
 3348 004c 04AB     		add	r3, sp, #16
 3349 004e 1846     		mov	r0, r3
 3350 0050 FFF7FEFF 		bl	_ZNK3r2p10StaticListINS_4NodeEE8IteratorptEv
 3351 0054 0346     		mov	r3, r0
 3352 0056 1846     		mov	r0, r3
 3353 0058 FFF7FEFF 		bl	_ZN3r2p4Node11notify_stopEv
 3354              		.loc 20 101 0 discriminator 3
 3355 005c 04AB     		add	r3, sp, #16
 3356 005e 1846     		mov	r0, r3
 3357 0060 FFF7FEFF 		bl	_ZN3r2p10StaticListINS_4NodeEE8IteratorppEv
 3358              	.L205:
 3359              		.loc 20 101 0 is_stmt 0 discriminator 1
 3360 0064 019B     		ldr	r3, [sp, #4]
 3361 0066 0433     		adds	r3, r3, #4
 3362 0068 06AA     		add	r2, sp, #24
 3363 006a 1046     		mov	r0, r2
 3364 006c 1946     		mov	r1, r3
 3365 006e FFF7FEFF 		bl	_ZN3r2p10StaticListINS_4NodeEE3endEv
 3366 0072 04AA     		add	r2, sp, #16
 3367 0074 06AB     		add	r3, sp, #24
 3368 0076 1046     		mov	r0, r2
 3369 0078 1946     		mov	r1, r3
 3370 007a FFF7FEFF 		bl	_ZNK3r2p10StaticListINS_4NodeEE8IteratorneERKS3_
 3371 007e 0346     		mov	r3, r0
 3372 0080 002B     		cmp	r3, #0
 3373 0082 E3D1     		bne	.L206
 3374              	.LBE60:
 3375              		.loc 20 104 0 is_stmt 1
 3376 0084 07AB     		add	r3, sp, #28
 3377 0086 1846     		mov	r0, r3
 3378 0088 4FF4FA71 		mov	r1, #500
 3379 008c FFF7FEFF 		bl	_ZN3r2p4Time2msEl
 3380 0090 07AB     		add	r3, sp, #28
 3381 0092 1846     		mov	r0, r3
 3382 0094 FFF7FEFF 		bl	_ZN3r2p6Thread5sleepERKNS_4TimeE
 3383              	.LBB61:
 3384              		.loc 20 105 0
 3385 0098 03AB     		add	r3, sp, #12
 3386 009a 1846     		mov	r0, r3
 3387 009c FFF7FEFF 		bl	_ZN3r2p7SysLock5ScopeC1Ev
ARM GAS  /tmp/cc5qDRak.s 			page 62


 3388              		.loc 20 106 0
 3389 00a0 019B     		ldr	r3, [sp, #4]
 3390 00a2 D3F85C32 		ldr	r3, [r3, #604]
 3391 00a6 002B     		cmp	r3, #0
 3392 00a8 01D1     		bne	.L207
 3393 00aa 0024     		movs	r4, #0
 3394 00ac 00E0     		b	.L208
 3395              	.L207:
 3396 00ae 0124     		movs	r4, #1
 3397              	.L208:
 3398 00b0 03AB     		add	r3, sp, #12
 3399 00b2 1846     		mov	r0, r3
 3400 00b4 FFF7FEFF 		bl	_ZN3r2p7SysLock5ScopeD1Ev
 3401 00b8 012C     		cmp	r4, #1
 3402 00ba 01D1     		bne	.L197
 3403 00bc 00BF     		nop
 3404              	.LBE61:
 3405              	.LBE59:
 3406              		.loc 20 107 0
 3407 00be BDE7     		b	.L203
 3408              	.L197:
 3409              	.LBE58:
 3410              	.LBE56:
 3411              		.loc 20 108 0
 3412 00c0 08B0     		add	sp, sp, #32
 3413              		.cfi_def_cfa_offset 8
 3414              		@ sp needed
 3415 00c2 10BD     		pop	{r4, pc}
 3416              		.cfi_endproc
 3417              	.LFE600:
 3418              		.size	_ZN3r2p10Middleware4stopEv, .-_ZN3r2p10Middleware4stopEv
 3419 00c4 AFF30080 		.section	.text._ZN3r2p10Middleware11stop_remoteEPKc,"ax",%progbits
 3419      AFF30080 
 3419      AFF30080 
 3420              		.align	2
 3421              		.p2align 4,,15
 3422              		.global	_ZN3r2p10Middleware11stop_remoteEPKc
 3423              		.thumb
 3424              		.thumb_func
 3425              		.type	_ZN3r2p10Middleware11stop_remoteEPKc, %function
 3426              	_ZN3r2p10Middleware11stop_remoteEPKc:
 3427              	.LFB601:
 3428              		.loc 20 111 0
 3429              		.cfi_startproc
 3430              		@ args = 0, pretend = 0, frame = 16
 3431              		@ frame_needed = 0, uses_anonymous_args = 0
 3432 0000 00B5     		push	{lr}
 3433              		.cfi_def_cfa_offset 4
 3434              		.cfi_offset 14, -4
 3435 0002 85B0     		sub	sp, sp, #20
 3436              		.cfi_def_cfa_offset 24
 3437 0004 0190     		str	r0, [sp, #4]
 3438 0006 0091     		str	r1, [sp]
 3439              	.LBB62:
 3440              		.loc 20 114 0
 3441 0008 019B     		ldr	r3, [sp, #4]
 3442 000a 03F18402 		add	r2, r3, #132
ARM GAS  /tmp/cc5qDRak.s 			page 63


 3443 000e 03AB     		add	r3, sp, #12
 3444 0010 1046     		mov	r0, r2
 3445 0012 1946     		mov	r1, r3
 3446 0014 FFF7FEFF 		bl	_ZN3r2p9PublisherINS_7MgmtMsgEE5allocERPS1_
 3447 0018 0346     		mov	r3, r0
 3448 001a 002B     		cmp	r3, #0
 3449 001c 13D0     		beq	.L214
 3450              		.loc 20 115 0
 3451 001e 039B     		ldr	r3, [sp, #12]
 3452 0020 1222     		movs	r2, #18
 3453 0022 83F82120 		strb	r2, [r3, #33]
 3454              		.loc 20 116 0
 3455 0026 039B     		ldr	r3, [sp, #12]
 3456 0028 0233     		adds	r3, r3, #2
 3457 002a 1846     		mov	r0, r3
 3458 002c 0099     		ldr	r1, [sp]
 3459 002e 0722     		movs	r2, #7
 3460 0030 FFF7FEFF 		bl	strncpy
 3461              		.loc 20 117 0
 3462 0034 019B     		ldr	r3, [sp, #4]
 3463 0036 8433     		adds	r3, r3, #132
 3464 0038 039A     		ldr	r2, [sp, #12]
 3465 003a 1846     		mov	r0, r3
 3466 003c 1146     		mov	r1, r2
 3467 003e FFF7FEFF 		bl	_ZN3r2p13BasePublisher16publish_remotelyERNS_7MessageE
 3468 0042 0346     		mov	r3, r0
 3469 0044 00E0     		b	.L216
 3470              	.L214:
 3471              		.loc 20 119 0
 3472 0046 0023     		movs	r3, #0
 3473              	.L216:
 3474              	.LBE62:
 3475              		.loc 20 120 0 discriminator 1
 3476 0048 1846     		mov	r0, r3
 3477 004a 05B0     		add	sp, sp, #20
 3478              		.cfi_def_cfa_offset 4
 3479              		@ sp needed
 3480 004c 5DF804FB 		ldr	pc, [sp], #4
 3481              		.cfi_endproc
 3482              	.LFE601:
 3483              		.size	_ZN3r2p10Middleware11stop_remoteEPKc, .-_ZN3r2p10Middleware11stop_remoteEPKc
 3484              		.section	.text._ZN3r2p10Middleware13reboot_remoteEPKcb,"ax",%progbits
 3485              		.align	2
 3486              		.p2align 4,,15
 3487              		.global	_ZN3r2p10Middleware13reboot_remoteEPKcb
 3488              		.thumb
 3489              		.thumb_func
 3490              		.type	_ZN3r2p10Middleware13reboot_remoteEPKcb, %function
 3491              	_ZN3r2p10Middleware13reboot_remoteEPKcb:
 3492              	.LFB602:
 3493              		.loc 20 123 0
 3494              		.cfi_startproc
 3495              		@ args = 0, pretend = 0, frame = 24
 3496              		@ frame_needed = 0, uses_anonymous_args = 0
 3497 0000 00B5     		push	{lr}
 3498              		.cfi_def_cfa_offset 4
 3499              		.cfi_offset 14, -4
ARM GAS  /tmp/cc5qDRak.s 			page 64


 3500 0002 87B0     		sub	sp, sp, #28
 3501              		.cfi_def_cfa_offset 32
 3502 0004 0390     		str	r0, [sp, #12]
 3503 0006 0291     		str	r1, [sp, #8]
 3504 0008 1346     		mov	r3, r2
 3505 000a 8DF80730 		strb	r3, [sp, #7]
 3506              	.LBB63:
 3507              		.loc 20 126 0
 3508 000e 039B     		ldr	r3, [sp, #12]
 3509 0010 03F18402 		add	r2, r3, #132
 3510 0014 05AB     		add	r3, sp, #20
 3511 0016 1046     		mov	r0, r2
 3512 0018 1946     		mov	r1, r3
 3513 001a FFF7FEFF 		bl	_ZN3r2p9PublisherINS_7MgmtMsgEE5allocERPS1_
 3514 001e 0346     		mov	r3, r0
 3515 0020 002B     		cmp	r3, #0
 3516 0022 19D0     		beq	.L218
 3517              		.loc 20 127 0
 3518 0024 059B     		ldr	r3, [sp, #20]
 3519 0026 9DF80720 		ldrb	r2, [sp, #7]	@ zero_extendqisi2
 3520 002a 002A     		cmp	r2, #0
 3521 002c 01D0     		beq	.L219
 3522              		.loc 20 127 0 is_stmt 0 discriminator 1
 3523 002e 1422     		movs	r2, #20
 3524 0030 00E0     		b	.L220
 3525              	.L219:
 3526              		.loc 20 127 0 discriminator 2
 3527 0032 1322     		movs	r2, #19
 3528              	.L220:
 3529              		.loc 20 127 0 discriminator 4
 3530 0034 83F82120 		strb	r2, [r3, #33]
 3531              		.loc 20 128 0 is_stmt 1 discriminator 4
 3532 0038 059B     		ldr	r3, [sp, #20]
 3533 003a 0233     		adds	r3, r3, #2
 3534 003c 1846     		mov	r0, r3
 3535 003e 0299     		ldr	r1, [sp, #8]
 3536 0040 0722     		movs	r2, #7
 3537 0042 FFF7FEFF 		bl	strncpy
 3538              		.loc 20 129 0 discriminator 4
 3539 0046 039B     		ldr	r3, [sp, #12]
 3540 0048 8433     		adds	r3, r3, #132
 3541 004a 059A     		ldr	r2, [sp, #20]
 3542 004c 1846     		mov	r0, r3
 3543 004e 1146     		mov	r1, r2
 3544 0050 FFF7FEFF 		bl	_ZN3r2p13BasePublisher16publish_remotelyERNS_7MessageE
 3545 0054 0346     		mov	r3, r0
 3546 0056 00E0     		b	.L222
 3547              	.L218:
 3548              		.loc 20 131 0
 3549 0058 0023     		movs	r3, #0
 3550              	.L222:
 3551              	.LBE63:
 3552              		.loc 20 132 0 discriminator 1
 3553 005a 1846     		mov	r0, r3
 3554 005c 07B0     		add	sp, sp, #28
 3555              		.cfi_def_cfa_offset 4
 3556              		@ sp needed
ARM GAS  /tmp/cc5qDRak.s 			page 65


 3557 005e 5DF804FB 		ldr	pc, [sp], #4
 3558              		.cfi_endproc
 3559              	.LFE602:
 3560              		.size	_ZN3r2p10Middleware13reboot_remoteEPKcb, .-_ZN3r2p10Middleware13reboot_remoteEPKcb
 3561 0062 00BFAFF3 		.section	.text._ZN3r2p10Middleware3addERNS_4NodeE,"ax",%progbits
 3561      0080AFF3 
 3561      0080AFF3 
 3561      0080
 3562              		.align	2
 3563              		.p2align 4,,15
 3564              		.global	_ZN3r2p10Middleware3addERNS_4NodeE
 3565              		.thumb
 3566              		.thumb_func
 3567              		.type	_ZN3r2p10Middleware3addERNS_4NodeE, %function
 3568              	_ZN3r2p10Middleware3addERNS_4NodeE:
 3569              	.LFB603:
 3570              		.loc 20 135 0
 3571              		.cfi_startproc
 3572              		@ args = 0, pretend = 0, frame = 8
 3573              		@ frame_needed = 0, uses_anonymous_args = 0
 3574 0000 00B5     		push	{lr}
 3575              		.cfi_def_cfa_offset 4
 3576              		.cfi_offset 14, -4
 3577 0002 83B0     		sub	sp, sp, #12
 3578              		.cfi_def_cfa_offset 16
 3579 0004 0190     		str	r0, [sp, #4]
 3580 0006 0091     		str	r1, [sp]
 3581              		.loc 20 137 0
 3582 0008 FFF7FEFF 		bl	_ZN3r2p7SysLock7acquireEv
 3583              		.loc 20 138 0
 3584 000c 019B     		ldr	r3, [sp, #4]
 3585 000e 1A1D     		adds	r2, r3, #4
 3586 0010 009B     		ldr	r3, [sp]
 3587 0012 1433     		adds	r3, r3, #20
 3588 0014 1046     		mov	r0, r2
 3589 0016 1946     		mov	r1, r3
 3590 0018 FFF7FEFF 		bl	_ZN3r2p10StaticListINS_4NodeEE11link_unsafeERNS2_4LinkE
 3591              		.loc 20 139 0
 3592 001c 019B     		ldr	r3, [sp, #4]
 3593 001e D3F85C32 		ldr	r3, [r3, #604]
 3594 0022 5A1C     		adds	r2, r3, #1
 3595 0024 019B     		ldr	r3, [sp, #4]
 3596 0026 C3F85C22 		str	r2, [r3, #604]
 3597              		.loc 20 140 0
 3598 002a FFF7FEFF 		bl	_ZN3r2p7SysLock7releaseEv
 3599              		.loc 20 141 0
 3600 002e 03B0     		add	sp, sp, #12
 3601              		.cfi_def_cfa_offset 4
 3602              		@ sp needed
 3603 0030 5DF804FB 		ldr	pc, [sp], #4
 3604              		.cfi_endproc
 3605              	.LFE603:
 3606              		.size	_ZN3r2p10Middleware3addERNS_4NodeE, .-_ZN3r2p10Middleware3addERNS_4NodeE
 3607 0034 AFF30080 		.section	.text._ZN3r2p10Middleware3addERNS_9TransportE,"ax",%progbits
 3607      AFF30080 
 3607      AFF30080 
 3608              		.align	2
ARM GAS  /tmp/cc5qDRak.s 			page 66


 3609              		.p2align 4,,15
 3610              		.global	_ZN3r2p10Middleware3addERNS_9TransportE
 3611              		.thumb
 3612              		.thumb_func
 3613              		.type	_ZN3r2p10Middleware3addERNS_9TransportE, %function
 3614              	_ZN3r2p10Middleware3addERNS_9TransportE:
 3615              	.LFB604:
 3616              		.loc 20 144 0
 3617              		.cfi_startproc
 3618              		@ args = 0, pretend = 0, frame = 8
 3619              		@ frame_needed = 0, uses_anonymous_args = 0
 3620 0000 00B5     		push	{lr}
 3621              		.cfi_def_cfa_offset 4
 3622              		.cfi_offset 14, -4
 3623 0002 83B0     		sub	sp, sp, #12
 3624              		.cfi_def_cfa_offset 16
 3625 0004 0190     		str	r0, [sp, #4]
 3626 0006 0091     		str	r1, [sp]
 3627              		.loc 20 146 0
 3628 0008 019B     		ldr	r3, [sp, #4]
 3629 000a 03F10C02 		add	r2, r3, #12
 3630 000e 009B     		ldr	r3, [sp]
 3631 0010 3833     		adds	r3, r3, #56
 3632 0012 1046     		mov	r0, r2
 3633 0014 1946     		mov	r1, r3
 3634 0016 FFF7FEFF 		bl	_ZN3r2p10StaticListINS_9TransportEE4linkERNS2_4LinkE
 3635              		.loc 20 147 0
 3636 001a 03B0     		add	sp, sp, #12
 3637              		.cfi_def_cfa_offset 4
 3638              		@ sp needed
 3639 001c 5DF804FB 		ldr	pc, [sp], #4
 3640              		.cfi_endproc
 3641              	.LFE604:
 3642              		.size	_ZN3r2p10Middleware3addERNS_9TransportE, .-_ZN3r2p10Middleware3addERNS_9TransportE
 3643              		.section	.text._ZN3r2p10Middleware3addERNS_5TopicE,"ax",%progbits
 3644              		.align	2
 3645              		.p2align 4,,15
 3646              		.global	_ZN3r2p10Middleware3addERNS_5TopicE
 3647              		.thumb
 3648              		.thumb_func
 3649              		.type	_ZN3r2p10Middleware3addERNS_5TopicE, %function
 3650              	_ZN3r2p10Middleware3addERNS_5TopicE:
 3651              	.LFB605:
 3652              		.loc 20 150 0
 3653              		.cfi_startproc
 3654              		@ args = 0, pretend = 0, frame = 8
 3655              		@ frame_needed = 0, uses_anonymous_args = 0
 3656 0000 00B5     		push	{lr}
 3657              		.cfi_def_cfa_offset 4
 3658              		.cfi_offset 14, -4
 3659 0002 83B0     		sub	sp, sp, #12
 3660              		.cfi_def_cfa_offset 16
 3661 0004 0190     		str	r0, [sp, #4]
 3662 0006 0091     		str	r1, [sp]
 3663              		.loc 20 152 0
 3664 0008 0098     		ldr	r0, [sp]
 3665 000a FFF7FEFF 		bl	_ZNK3r2p5Topic8get_nameEv
ARM GAS  /tmp/cc5qDRak.s 			page 67


 3666 000e 0346     		mov	r3, r0
 3667 0010 0198     		ldr	r0, [sp, #4]
 3668 0012 1946     		mov	r1, r3
 3669 0014 FFF7FEFF 		bl	_ZN3r2p10Middleware10find_topicEPKc
 3670 0018 0346     		mov	r3, r0
 3671 001a 002B     		cmp	r3, #0
 3672 001c 14BF     		ite	ne
 3673 001e 0123     		movne	r3, #1
 3674 0020 0023     		moveq	r3, #0
 3675 0022 DBB2     		uxtb	r3, r3
 3676 0024 002B     		cmp	r3, #0
 3677 0026 02D0     		beq	.L226
 3678              		.loc 20 152 0 is_stmt 0 discriminator 1
 3679 0028 0748     		ldr	r0, .L227
 3680 002a FFF7FEFF 		bl	chDbgPanic
 3681              	.L226:
 3682              		.loc 20 154 0 is_stmt 1
 3683 002e 019B     		ldr	r3, [sp, #4]
 3684 0030 03F10802 		add	r2, r3, #8
 3685 0034 009B     		ldr	r3, [sp]
 3686 0036 2833     		adds	r3, r3, #40
 3687 0038 1046     		mov	r0, r2
 3688 003a 1946     		mov	r1, r3
 3689 003c FFF7FEFF 		bl	_ZN3r2p10StaticListINS_5TopicEE4linkERNS2_4LinkE
 3690              		.loc 20 155 0
 3691 0040 03B0     		add	sp, sp, #12
 3692              		.cfi_def_cfa_offset 4
 3693              		@ sp needed
 3694 0042 5DF804FB 		ldr	pc, [sp], #4
 3695              	.L228:
 3696 0046 00BF     		.align	2
 3697              	.L227:
 3698 0048 00000000 		.word	.LC0
 3699              		.cfi_endproc
 3700              	.LFE605:
 3701              		.size	_ZN3r2p10Middleware3addERNS_5TopicE, .-_ZN3r2p10Middleware3addERNS_5TopicE
 3702 004c AFF30080 		.section	.text._ZN3r2p10Middleware9advertiseERNS_14LocalPublisherEPKcRKNS_4TimeEj,"ax",%progbits
 3703              		.align	2
 3704              		.p2align 4,,15
 3705              		.global	_ZN3r2p10Middleware9advertiseERNS_14LocalPublisherEPKcRKNS_4TimeEj
 3706              		.thumb
 3707              		.thumb_func
 3708              		.type	_ZN3r2p10Middleware9advertiseERNS_14LocalPublisherEPKcRKNS_4TimeEj, %function
 3709              	_ZN3r2p10Middleware9advertiseERNS_14LocalPublisherEPKcRKNS_4TimeEj:
 3710              	.LFB606:
 3711              		.loc 20 159 0
 3712              		.cfi_startproc
 3713              		@ args = 4, pretend = 0, frame = 32
 3714              		@ frame_needed = 0, uses_anonymous_args = 0
 3715 0000 30B5     		push	{r4, r5, lr}
 3716              		.cfi_def_cfa_offset 12
 3717              		.cfi_offset 4, -12
 3718              		.cfi_offset 5, -8
 3719              		.cfi_offset 14, -4
 3720 0002 89B0     		sub	sp, sp, #36
 3721              		.cfi_def_cfa_offset 48
 3722 0004 0390     		str	r0, [sp, #12]
ARM GAS  /tmp/cc5qDRak.s 			page 68


 3723 0006 0291     		str	r1, [sp, #8]
 3724 0008 0192     		str	r2, [sp, #4]
 3725 000a 0093     		str	r3, [sp]
 3726              	.LBB64:
 3727              		.loc 20 161 0
 3728 000c 039B     		ldr	r3, [sp, #12]
 3729 000e 1033     		adds	r3, r3, #16
 3730 0010 1846     		mov	r0, r3
 3731 0012 FFF7FEFF 		bl	_ZN3r2p7ReMutex7acquireEv
 3732              		.loc 20 162 0
 3733 0016 0398     		ldr	r0, [sp, #12]
 3734 0018 0199     		ldr	r1, [sp, #4]
 3735 001a 0C9A     		ldr	r2, [sp, #48]
 3736 001c FFF7FEFF 		bl	_ZN3r2p10Middleware11touch_topicEPKcj
 3737 0020 0790     		str	r0, [sp, #28]
 3738              		.loc 20 163 0
 3739 0022 079B     		ldr	r3, [sp, #28]
 3740 0024 002B     		cmp	r3, #0
 3741 0026 01D1     		bne	.L230
 3742              		.loc 20 163 0 is_stmt 0 discriminator 1
 3743 0028 0024     		movs	r4, #0
 3744 002a 5BE0     		b	.L231
 3745              	.L230:
 3746              		.loc 20 164 0 is_stmt 1
 3747 002c 029B     		ldr	r3, [sp, #8]
 3748 002e 1846     		mov	r0, r3
 3749 0030 0799     		ldr	r1, [sp, #28]
 3750 0032 FFF7FEFF 		bl	_ZN3r2p13BasePublisher17notify_advertisedERNS_5TopicE
 3751              		.loc 20 165 0
 3752 0036 0798     		ldr	r0, [sp, #28]
 3753 0038 0299     		ldr	r1, [sp, #8]
 3754 003a 009A     		ldr	r2, [sp]
 3755 003c FFF7FEFF 		bl	_ZN3r2p5Topic9advertiseERNS_14LocalPublisherERKNS_4TimeE
 3756              		.loc 20 166 0
 3757 0040 039B     		ldr	r3, [sp, #12]
 3758 0042 1033     		adds	r3, r3, #16
 3759 0044 1846     		mov	r0, r3
 3760 0046 FFF7FEFF 		bl	_ZN3r2p7ReMutex7releaseEv
 3761              	.LBB65:
 3762              		.loc 20 168 0
 3763 004a 039B     		ldr	r3, [sp, #12]
 3764 004c 03F12802 		add	r2, r3, #40
 3765 0050 079B     		ldr	r3, [sp, #28]
 3766 0052 9A42     		cmp	r2, r3
 3767 0054 45D0     		beq	.L232
 3768              	.LBB66:
 3769              	.LBB67:
 3770              		.loc 20 169 0
 3771 0056 05AB     		add	r3, sp, #20
 3772 0058 1846     		mov	r0, r3
 3773 005a FFF7FEFF 		bl	_ZN3r2p7SysLock5ScopeC1Ev
 3774              		.loc 20 170 0
 3775 005e 039B     		ldr	r3, [sp, #12]
 3776 0060 8433     		adds	r3, r3, #132
 3777 0062 1846     		mov	r0, r3
 3778 0064 FFF7FEFF 		bl	_ZNK3r2p13BasePublisher9get_topicEv
 3779 0068 0346     		mov	r3, r0
ARM GAS  /tmp/cc5qDRak.s 			page 69


 3780 006a 002B     		cmp	r3, #0
 3781 006c 0CBF     		ite	eq
 3782 006e 0123     		moveq	r3, #1
 3783 0070 0023     		movne	r3, #0
 3784 0072 DBB2     		uxtb	r3, r3
 3785 0074 002B     		cmp	r3, #0
 3786 0076 02D0     		beq	.L233
 3787              		.loc 20 170 0 is_stmt 0 discriminator 1
 3788 0078 0124     		movs	r4, #1
 3789 007a 0025     		movs	r5, #0
 3790 007c 00E0     		b	.L234
 3791              	.L233:
 3792 007e 0125     		movs	r5, #1
 3793              	.L234:
 3794 0080 05AB     		add	r3, sp, #20
 3795 0082 1846     		mov	r0, r3
 3796 0084 FFF7FEFF 		bl	_ZN3r2p7SysLock5ScopeD1Ev
 3797 0088 012D     		cmp	r5, #1
 3798 008a 00D0     		beq	.L240
 3799              	.LBE67:
 3800 008c 2AE0     		b	.L231
 3801              	.L240:
 3802              	.LBB68:
 3803              		.loc 20 170 0
 3804 008e 00BF     		nop
 3805              	.LBE68:
 3806              		.loc 20 173 0 is_stmt 1
 3807 0090 039B     		ldr	r3, [sp, #12]
 3808 0092 03F18402 		add	r2, r3, #132
 3809 0096 06AB     		add	r3, sp, #24
 3810 0098 1046     		mov	r0, r2
 3811 009a 1946     		mov	r1, r3
 3812 009c FFF7FEFF 		bl	_ZN3r2p9PublisherINS_7MgmtMsgEE5allocERPS1_
 3813 00a0 0346     		mov	r3, r0
 3814 00a2 002B     		cmp	r3, #0
 3815 00a4 00D1     		bne	.L237
 3816              	.LBE66:
 3817 00a6 1CE0     		b	.L232
 3818              	.L237:
 3819              	.LBB69:
 3820              		.loc 20 174 0
 3821 00a8 069B     		ldr	r3, [sp, #24]
 3822 00aa 2122     		movs	r2, #33
 3823 00ac 83F82120 		strb	r2, [r3, #33]
 3824              		.loc 20 176 0
 3825 00b0 069B     		ldr	r3, [sp, #24]
 3826 00b2 9C1C     		adds	r4, r3, #2
 3827 00b4 0798     		ldr	r0, [sp, #28]
 3828 00b6 FFF7FEFF 		bl	_ZNK3r2p5Topic8get_nameEv
 3829 00ba 0346     		mov	r3, r0
 3830 00bc 2046     		mov	r0, r4
 3831 00be 1946     		mov	r1, r3
 3832 00c0 1022     		movs	r2, #16
 3833 00c2 FFF7FEFF 		bl	strncpy
 3834              		.loc 20 178 0
 3835 00c6 069C     		ldr	r4, [sp, #24]
 3836 00c8 0798     		ldr	r0, [sp, #28]
ARM GAS  /tmp/cc5qDRak.s 			page 70


 3837 00ca FFF7FEFF 		bl	_ZNK3r2p5Topic16get_payload_sizeEv
 3838 00ce 0346     		mov	r3, r0
 3839 00d0 9BB2     		uxth	r3, r3
 3840 00d2 6382     		strh	r3, [r4, #18]	@ unaligned
 3841              		.loc 20 179 0
 3842 00d4 039B     		ldr	r3, [sp, #12]
 3843 00d6 8433     		adds	r3, r3, #132
 3844 00d8 069A     		ldr	r2, [sp, #24]
 3845 00da 1846     		mov	r0, r3
 3846 00dc 1146     		mov	r1, r2
 3847 00de FFF7FEFF 		bl	_ZN3r2p13BasePublisher16publish_remotelyERNS_7MessageE
 3848              	.L232:
 3849              	.LBE69:
 3850              	.LBE65:
 3851              		.loc 20 182 0
 3852 00e2 0124     		movs	r4, #1
 3853              	.L231:
 3854 00e4 2346     		mov	r3, r4
 3855              	.LBE64:
 3856              		.loc 20 183 0 discriminator 5
 3857 00e6 1846     		mov	r0, r3
 3858 00e8 09B0     		add	sp, sp, #36
 3859              		.cfi_def_cfa_offset 12
 3860              		@ sp needed
 3861 00ea 30BD     		pop	{r4, r5, pc}
 3862              		.cfi_endproc
 3863              	.LFE606:
 3864              		.size	_ZN3r2p10Middleware9advertiseERNS_14LocalPublisherEPKcRKNS_4TimeEj, .-_ZN3r2p10Middleware9ad
 3865 00ec AFF30080 		.section	.text._ZN3r2p10Middleware9advertiseERNS_15RemotePublisherEPKcRKNS_4TimeEj,"ax",%progbits
 3866              		.align	2
 3867              		.p2align 4,,15
 3868              		.global	_ZN3r2p10Middleware9advertiseERNS_15RemotePublisherEPKcRKNS_4TimeEj
 3869              		.thumb
 3870              		.thumb_func
 3871              		.type	_ZN3r2p10Middleware9advertiseERNS_15RemotePublisherEPKcRKNS_4TimeEj, %function
 3872              	_ZN3r2p10Middleware9advertiseERNS_15RemotePublisherEPKcRKNS_4TimeEj:
 3873              	.LFB607:
 3874              		.loc 20 187 0
 3875              		.cfi_startproc
 3876              		@ args = 4, pretend = 0, frame = 24
 3877              		@ frame_needed = 0, uses_anonymous_args = 0
 3878 0000 00B5     		push	{lr}
 3879              		.cfi_def_cfa_offset 4
 3880              		.cfi_offset 14, -4
 3881 0002 87B0     		sub	sp, sp, #28
 3882              		.cfi_def_cfa_offset 32
 3883 0004 0390     		str	r0, [sp, #12]
 3884 0006 0291     		str	r1, [sp, #8]
 3885 0008 0192     		str	r2, [sp, #4]
 3886 000a 0093     		str	r3, [sp]
 3887              	.LBB70:
 3888              		.loc 20 189 0
 3889 000c 039B     		ldr	r3, [sp, #12]
 3890 000e 1033     		adds	r3, r3, #16
 3891 0010 1846     		mov	r0, r3
 3892 0012 FFF7FEFF 		bl	_ZN3r2p7ReMutex7acquireEv
 3893              		.loc 20 190 0
ARM GAS  /tmp/cc5qDRak.s 			page 71


 3894 0016 0398     		ldr	r0, [sp, #12]
 3895 0018 0199     		ldr	r1, [sp, #4]
 3896 001a 089A     		ldr	r2, [sp, #32]
 3897 001c FFF7FEFF 		bl	_ZN3r2p10Middleware11touch_topicEPKcj
 3898 0020 0590     		str	r0, [sp, #20]
 3899              		.loc 20 191 0
 3900 0022 059B     		ldr	r3, [sp, #20]
 3901 0024 002B     		cmp	r3, #0
 3902 0026 01D1     		bne	.L242
 3903              		.loc 20 191 0 is_stmt 0 discriminator 1
 3904 0028 0023     		movs	r3, #0
 3905 002a 0FE0     		b	.L243
 3906              	.L242:
 3907              		.loc 20 192 0 is_stmt 1
 3908 002c 029B     		ldr	r3, [sp, #8]
 3909 002e 1846     		mov	r0, r3
 3910 0030 0599     		ldr	r1, [sp, #20]
 3911 0032 FFF7FEFF 		bl	_ZN3r2p13BasePublisher17notify_advertisedERNS_5TopicE
 3912              		.loc 20 193 0
 3913 0036 0598     		ldr	r0, [sp, #20]
 3914 0038 0299     		ldr	r1, [sp, #8]
 3915 003a 009A     		ldr	r2, [sp]
 3916 003c FFF7FEFF 		bl	_ZN3r2p5Topic9advertiseERNS_15RemotePublisherERKNS_4TimeE
 3917              		.loc 20 194 0
 3918 0040 039B     		ldr	r3, [sp, #12]
 3919 0042 1033     		adds	r3, r3, #16
 3920 0044 1846     		mov	r0, r3
 3921 0046 FFF7FEFF 		bl	_ZN3r2p7ReMutex7releaseEv
 3922              		.loc 20 196 0
 3923 004a 0123     		movs	r3, #1
 3924              	.L243:
 3925              	.LBE70:
 3926              		.loc 20 197 0
 3927 004c 1846     		mov	r0, r3
 3928 004e 07B0     		add	sp, sp, #28
 3929              		.cfi_def_cfa_offset 4
 3930              		@ sp needed
 3931 0050 5DF804FB 		ldr	pc, [sp], #4
 3932              		.cfi_endproc
 3933              	.LFE607:
 3934              		.size	_ZN3r2p10Middleware9advertiseERNS_15RemotePublisherEPKcRKNS_4TimeEj, .-_ZN3r2p10Middleware9a
 3935 0054 AFF30080 		.section	.text._ZN3r2p10Middleware9subscribeERNS_15LocalSubscriberEPKcPNS_7MessageEjj,"ax",%progbi
 3935      AFF30080 
 3935      AFF30080 
 3936              		.align	2
 3937              		.p2align 4,,15
 3938              		.global	_ZN3r2p10Middleware9subscribeERNS_15LocalSubscriberEPKcPNS_7MessageEjj
 3939              		.thumb
 3940              		.thumb_func
 3941              		.type	_ZN3r2p10Middleware9subscribeERNS_15LocalSubscriberEPKcPNS_7MessageEjj, %function
 3942              	_ZN3r2p10Middleware9subscribeERNS_15LocalSubscriberEPKcPNS_7MessageEjj:
 3943              	.LFB608:
 3944              		.loc 20 202 0
 3945              		.cfi_startproc
 3946              		@ args = 8, pretend = 0, frame = 40
 3947              		@ frame_needed = 0, uses_anonymous_args = 0
 3948 0000 30B5     		push	{r4, r5, lr}
ARM GAS  /tmp/cc5qDRak.s 			page 72


 3949              		.cfi_def_cfa_offset 12
 3950              		.cfi_offset 4, -12
 3951              		.cfi_offset 5, -8
 3952              		.cfi_offset 14, -4
 3953 0002 8BB0     		sub	sp, sp, #44
 3954              		.cfi_def_cfa_offset 56
 3955 0004 0390     		str	r0, [sp, #12]
 3956 0006 0291     		str	r1, [sp, #8]
 3957 0008 0192     		str	r2, [sp, #4]
 3958 000a 0093     		str	r3, [sp]
 3959              	.LBB71:
 3960              		.loc 20 204 0
 3961 000c 039B     		ldr	r3, [sp, #12]
 3962 000e 1033     		adds	r3, r3, #16
 3963 0010 1846     		mov	r0, r3
 3964 0012 FFF7FEFF 		bl	_ZN3r2p7ReMutex7acquireEv
 3965              		.loc 20 205 0
 3966 0016 0398     		ldr	r0, [sp, #12]
 3967 0018 0199     		ldr	r1, [sp, #4]
 3968 001a 0F9A     		ldr	r2, [sp, #60]
 3969 001c FFF7FEFF 		bl	_ZN3r2p10Middleware11touch_topicEPKcj
 3970 0020 0990     		str	r0, [sp, #36]
 3971              		.loc 20 206 0
 3972 0022 099B     		ldr	r3, [sp, #36]
 3973 0024 002B     		cmp	r3, #0
 3974 0026 01D1     		bne	.L245
 3975              		.loc 20 206 0 is_stmt 0 discriminator 1
 3976 0028 0024     		movs	r4, #0
 3977 002a 7FE0     		b	.L246
 3978              	.L245:
 3979              		.loc 20 207 0 is_stmt 1
 3980 002c 0998     		ldr	r0, [sp, #36]
 3981 002e 0099     		ldr	r1, [sp]
 3982 0030 0E9A     		ldr	r2, [sp, #56]
 3983 0032 FFF7FEFF 		bl	_ZN3r2p5Topic11extend_poolEPNS_7MessageEj
 3984              		.loc 20 208 0
 3985 0036 029B     		ldr	r3, [sp, #8]
 3986 0038 1846     		mov	r0, r3
 3987 003a 0999     		ldr	r1, [sp, #36]
 3988 003c FFF7FEFF 		bl	_ZN3r2p14BaseSubscriber17notify_subscribedERNS_5TopicE
 3989              		.loc 20 209 0
 3990 0040 0998     		ldr	r0, [sp, #36]
 3991 0042 0299     		ldr	r1, [sp, #8]
 3992 0044 0E9A     		ldr	r2, [sp, #56]
 3993 0046 FFF7FEFF 		bl	_ZN3r2p5Topic9subscribeERNS_15LocalSubscriberEj
 3994              		.loc 20 210 0
 3995 004a 039B     		ldr	r3, [sp, #12]
 3996 004c 1033     		adds	r3, r3, #16
 3997 004e 1846     		mov	r0, r3
 3998 0050 FFF7FEFF 		bl	_ZN3r2p7ReMutex7releaseEv
 3999              	.LBB72:
 4000              		.loc 20 212 0
 4001 0054 039B     		ldr	r3, [sp, #12]
 4002 0056 03F12802 		add	r2, r3, #40
 4003 005a 099B     		ldr	r3, [sp, #36]
 4004 005c 9A42     		cmp	r2, r3
 4005 005e 64D0     		beq	.L247
ARM GAS  /tmp/cc5qDRak.s 			page 73


 4006              	.LBB73:
 4007              	.LBB74:
 4008              		.loc 20 213 0
 4009 0060 039B     		ldr	r3, [sp, #12]
 4010 0062 0C33     		adds	r3, r3, #12
 4011 0064 07AA     		add	r2, sp, #28
 4012 0066 1046     		mov	r0, r2
 4013 0068 1946     		mov	r1, r3
 4014 006a FFF7FEFF 		bl	_ZN3r2p10StaticListINS_9TransportEE5beginEv
 4015 006e 4CE0     		b	.L248
 4016              	.L255:
 4017              	.LBB75:
 4018              	.LBB76:
 4019              		.loc 20 215 0
 4020 0070 05AB     		add	r3, sp, #20
 4021 0072 1846     		mov	r0, r3
 4022 0074 FFF7FEFF 		bl	_ZN3r2p7SysLock5ScopeC1Ev
 4023              		.loc 20 216 0
 4024 0078 039B     		ldr	r3, [sp, #12]
 4025 007a 8433     		adds	r3, r3, #132
 4026 007c 1846     		mov	r0, r3
 4027 007e FFF7FEFF 		bl	_ZNK3r2p13BasePublisher9get_topicEv
 4028 0082 0346     		mov	r3, r0
 4029 0084 002B     		cmp	r3, #0
 4030 0086 0CBF     		ite	eq
 4031 0088 0123     		moveq	r3, #1
 4032 008a 0023     		movne	r3, #0
 4033 008c DBB2     		uxtb	r3, r3
 4034 008e 002B     		cmp	r3, #0
 4035 0090 02D0     		beq	.L249
 4036              		.loc 20 216 0 is_stmt 0 discriminator 1
 4037 0092 0124     		movs	r4, #1
 4038 0094 0025     		movs	r5, #0
 4039 0096 00E0     		b	.L250
 4040              	.L249:
 4041 0098 0125     		movs	r5, #1
 4042              	.L250:
 4043 009a 05AB     		add	r3, sp, #20
 4044 009c 1846     		mov	r0, r3
 4045 009e FFF7FEFF 		bl	_ZN3r2p7SysLock5ScopeD1Ev
 4046 00a2 012D     		cmp	r5, #1
 4047 00a4 00D0     		beq	.L257
 4048              	.LBE76:
 4049              	.LBE75:
 4050 00a6 41E0     		b	.L246
 4051              	.L257:
 4052              	.LBB78:
 4053              	.LBB77:
 4054              		.loc 20 216 0
 4055 00a8 00BF     		nop
 4056              	.LBE77:
 4057              		.loc 20 219 0 is_stmt 1
 4058 00aa 039B     		ldr	r3, [sp, #12]
 4059 00ac 03F18402 		add	r2, r3, #132
 4060 00b0 06AB     		add	r3, sp, #24
 4061 00b2 1046     		mov	r0, r2
 4062 00b4 1946     		mov	r1, r3
ARM GAS  /tmp/cc5qDRak.s 			page 74


 4063 00b6 FFF7FEFF 		bl	_ZN3r2p9PublisherINS_7MgmtMsgEE5allocERPS1_
 4064 00ba 0346     		mov	r3, r0
 4065 00bc 002B     		cmp	r3, #0
 4066 00be 20D0     		beq	.L254
 4067              		.loc 20 220 0
 4068 00c0 069B     		ldr	r3, [sp, #24]
 4069 00c2 2222     		movs	r2, #34
 4070 00c4 83F82120 		strb	r2, [r3, #33]
 4071              		.loc 20 222 0
 4072 00c8 069B     		ldr	r3, [sp, #24]
 4073 00ca 9D1C     		adds	r5, r3, #2
 4074 00cc 0998     		ldr	r0, [sp, #36]
 4075 00ce FFF7FEFF 		bl	_ZNK3r2p5Topic8get_nameEv
 4076 00d2 0346     		mov	r3, r0
 4077 00d4 2846     		mov	r0, r5
 4078 00d6 1946     		mov	r1, r3
 4079 00d8 1022     		movs	r2, #16
 4080 00da FFF7FEFF 		bl	strncpy
 4081              		.loc 20 224 0
 4082 00de 069D     		ldr	r5, [sp, #24]
 4083 00e0 0998     		ldr	r0, [sp, #36]
 4084 00e2 FFF7FEFF 		bl	_ZNK3r2p5Topic16get_payload_sizeEv
 4085 00e6 0346     		mov	r3, r0
 4086 00e8 9BB2     		uxth	r3, r3
 4087 00ea 6B82     		strh	r3, [r5, #18]	@ unaligned
 4088              		.loc 20 226 0
 4089 00ec 069B     		ldr	r3, [sp, #24]
 4090 00ee 0E9A     		ldr	r2, [sp, #56]
 4091 00f0 92B2     		uxth	r2, r2
 4092 00f2 9A82     		strh	r2, [r3, #20]	@ unaligned
 4093              		.loc 20 227 0
 4094 00f4 039B     		ldr	r3, [sp, #12]
 4095 00f6 8433     		adds	r3, r3, #132
 4096 00f8 069A     		ldr	r2, [sp, #24]
 4097 00fa 1846     		mov	r0, r3
 4098 00fc 1146     		mov	r1, r2
 4099 00fe FFF7FEFF 		bl	_ZN3r2p13BasePublisher16publish_remotelyERNS_7MessageE
 4100              	.L254:
 4101              	.LBE78:
 4102              		.loc 20 213 0
 4103 0102 07AB     		add	r3, sp, #28
 4104 0104 1846     		mov	r0, r3
 4105 0106 FFF7FEFF 		bl	_ZN3r2p10StaticListINS_9TransportEE8IteratorppEv
 4106              	.L248:
 4107              		.loc 20 214 0 discriminator 1
 4108 010a 039B     		ldr	r3, [sp, #12]
 4109 010c 0C33     		adds	r3, r3, #12
 4110 010e 08AA     		add	r2, sp, #32
 4111 0110 1046     		mov	r0, r2
 4112 0112 1946     		mov	r1, r3
 4113 0114 FFF7FEFF 		bl	_ZN3r2p10StaticListINS_9TransportEE3endEv
 4114              		.loc 20 213 0 discriminator 1
 4115 0118 07AA     		add	r2, sp, #28
 4116 011a 08AB     		add	r3, sp, #32
 4117 011c 1046     		mov	r0, r2
 4118 011e 1946     		mov	r1, r3
 4119 0120 FFF7FEFF 		bl	_ZNK3r2p10StaticListINS_9TransportEE8IteratorneERKS3_
ARM GAS  /tmp/cc5qDRak.s 			page 75


 4120 0124 0346     		mov	r3, r0
 4121 0126 002B     		cmp	r3, #0
 4122 0128 A2D1     		bne	.L255
 4123              	.L247:
 4124              	.LBE74:
 4125              	.LBE73:
 4126              	.LBE72:
 4127              		.loc 20 231 0
 4128 012a 0124     		movs	r4, #1
 4129              	.L246:
 4130 012c 2346     		mov	r3, r4
 4131              	.LBE71:
 4132              		.loc 20 232 0 discriminator 6
 4133 012e 1846     		mov	r0, r3
 4134 0130 0BB0     		add	sp, sp, #44
 4135              		.cfi_def_cfa_offset 12
 4136              		@ sp needed
 4137 0132 30BD     		pop	{r4, r5, pc}
 4138              		.cfi_endproc
 4139              	.LFE608:
 4140              		.size	_ZN3r2p10Middleware9subscribeERNS_15LocalSubscriberEPKcPNS_7MessageEjj, .-_ZN3r2p10Middlewar
 4141 0134 AFF30080 		.section	.text._ZN3r2p10Middleware9subscribeERNS_16RemoteSubscriberEPKcPNS_7MessageEjj,"ax",%progb
 4141      AFF30080 
 4141      AFF30080 
 4142              		.align	2
 4143              		.p2align 4,,15
 4144              		.global	_ZN3r2p10Middleware9subscribeERNS_16RemoteSubscriberEPKcPNS_7MessageEjj
 4145              		.thumb
 4146              		.thumb_func
 4147              		.type	_ZN3r2p10Middleware9subscribeERNS_16RemoteSubscriberEPKcPNS_7MessageEjj, %function
 4148              	_ZN3r2p10Middleware9subscribeERNS_16RemoteSubscriberEPKcPNS_7MessageEjj:
 4149              	.LFB609:
 4150              		.loc 20 237 0
 4151              		.cfi_startproc
 4152              		@ args = 8, pretend = 0, frame = 24
 4153              		@ frame_needed = 0, uses_anonymous_args = 0
 4154 0000 00B5     		push	{lr}
 4155              		.cfi_def_cfa_offset 4
 4156              		.cfi_offset 14, -4
 4157 0002 87B0     		sub	sp, sp, #28
 4158              		.cfi_def_cfa_offset 32
 4159 0004 0390     		str	r0, [sp, #12]
 4160 0006 0291     		str	r1, [sp, #8]
 4161 0008 0192     		str	r2, [sp, #4]
 4162 000a 0093     		str	r3, [sp]
 4163              	.LBB79:
 4164              		.loc 20 241 0
 4165 000c 039B     		ldr	r3, [sp, #12]
 4166 000e 1033     		adds	r3, r3, #16
 4167 0010 1846     		mov	r0, r3
 4168 0012 FFF7FEFF 		bl	_ZN3r2p7ReMutex7acquireEv
 4169              		.loc 20 242 0
 4170 0016 0398     		ldr	r0, [sp, #12]
 4171 0018 0199     		ldr	r1, [sp, #4]
 4172 001a FFF7FEFF 		bl	_ZN3r2p10Middleware10find_topicEPKc
 4173 001e 0590     		str	r0, [sp, #20]
 4174              		.loc 20 243 0
ARM GAS  /tmp/cc5qDRak.s 			page 76


 4175 0020 059B     		ldr	r3, [sp, #20]
 4176 0022 002B     		cmp	r3, #0
 4177 0024 02D1     		bne	.L259
 4178              		.loc 20 243 0 is_stmt 0 discriminator 1
 4179 0026 0E48     		ldr	r0, .L261
 4180 0028 FFF7FEFF 		bl	chDbgPanic
 4181              	.L259:
 4182              		.loc 20 244 0 is_stmt 1
 4183 002c 0598     		ldr	r0, [sp, #20]
 4184 002e 0099     		ldr	r1, [sp]
 4185 0030 089A     		ldr	r2, [sp, #32]
 4186 0032 FFF7FEFF 		bl	_ZN3r2p5Topic11extend_poolEPNS_7MessageEj
 4187              		.loc 20 245 0
 4188 0036 029B     		ldr	r3, [sp, #8]
 4189 0038 1846     		mov	r0, r3
 4190 003a 0599     		ldr	r1, [sp, #20]
 4191 003c FFF7FEFF 		bl	_ZN3r2p14BaseSubscriber17notify_subscribedERNS_5TopicE
 4192              		.loc 20 246 0
 4193 0040 0598     		ldr	r0, [sp, #20]
 4194 0042 0299     		ldr	r1, [sp, #8]
 4195 0044 089A     		ldr	r2, [sp, #32]
 4196 0046 FFF7FEFF 		bl	_ZN3r2p5Topic9subscribeERNS_16RemoteSubscriberEj
 4197              		.loc 20 247 0
 4198 004a 039B     		ldr	r3, [sp, #12]
 4199 004c 1033     		adds	r3, r3, #16
 4200 004e 1846     		mov	r0, r3
 4201 0050 FFF7FEFF 		bl	_ZN3r2p7ReMutex7releaseEv
 4202              		.loc 20 249 0
 4203 0054 0123     		movs	r3, #1
 4204              	.LBE79:
 4205              		.loc 20 250 0
 4206 0056 1846     		mov	r0, r3
 4207 0058 07B0     		add	sp, sp, #28
 4208              		.cfi_def_cfa_offset 4
 4209              		@ sp needed
 4210 005a 5DF804FB 		ldr	pc, [sp], #4
 4211              	.L262:
 4212 005e 00BF     		.align	2
 4213              	.L261:
 4214 0060 00000000 		.word	.LC0
 4215              		.cfi_endproc
 4216              	.LFE609:
 4217              		.size	_ZN3r2p10Middleware9subscribeERNS_16RemoteSubscriberEPKcPNS_7MessageEjj, .-_ZN3r2p10Middlewa
 4218 0064 AFF30080 		.section	.text._ZN3r2p10Middleware12confirm_stopERKNS_4NodeE,"ax",%progbits
 4218      AFF30080 
 4218      AFF30080 
 4219              		.align	2
 4220              		.p2align 4,,15
 4221              		.global	_ZN3r2p10Middleware12confirm_stopERKNS_4NodeE
 4222              		.thumb
 4223              		.thumb_func
 4224              		.type	_ZN3r2p10Middleware12confirm_stopERKNS_4NodeE, %function
 4225              	_ZN3r2p10Middleware12confirm_stopERKNS_4NodeE:
 4226              	.LFB610:
 4227              		.loc 20 253 0
 4228              		.cfi_startproc
 4229              		@ args = 0, pretend = 0, frame = 8
ARM GAS  /tmp/cc5qDRak.s 			page 77


 4230              		@ frame_needed = 0, uses_anonymous_args = 0
 4231 0000 00B5     		push	{lr}
 4232              		.cfi_def_cfa_offset 4
 4233              		.cfi_offset 14, -4
 4234 0002 83B0     		sub	sp, sp, #12
 4235              		.cfi_def_cfa_offset 16
 4236 0004 0190     		str	r0, [sp, #4]
 4237 0006 0091     		str	r1, [sp]
 4238              		.loc 20 255 0
 4239 0008 FFF7FEFF 		bl	_ZN3r2p7SysLock7acquireEv
 4240              		.loc 20 256 0
 4241 000c 019B     		ldr	r3, [sp, #4]
 4242 000e D3F85C32 		ldr	r3, [r3, #604]
 4243 0012 002B     		cmp	r3, #0
 4244 0014 02D1     		bne	.L264
 4245              		.loc 20 256 0 is_stmt 0 discriminator 1
 4246 0016 1348     		ldr	r0, .L266
 4247 0018 FFF7FEFF 		bl	chDbgPanic
 4248              	.L264:
 4249              		.loc 20 257 0 is_stmt 1
 4250 001c 019B     		ldr	r3, [sp, #4]
 4251 001e 0433     		adds	r3, r3, #4
 4252 0020 1846     		mov	r0, r3
 4253 0022 0099     		ldr	r1, [sp]
 4254 0024 FFF7FEFF 		bl	_ZNK3r2p10StaticListINS_4NodeEE15contains_unsafeERKS1_
 4255 0028 0346     		mov	r3, r0
 4256 002a 83F00103 		eor	r3, r3, #1
 4257 002e DBB2     		uxtb	r3, r3
 4258 0030 002B     		cmp	r3, #0
 4259 0032 02D0     		beq	.L265
 4260              		.loc 20 257 0 is_stmt 0 discriminator 1
 4261 0034 0B48     		ldr	r0, .L266
 4262 0036 FFF7FEFF 		bl	chDbgPanic
 4263              	.L265:
 4264              		.loc 20 258 0 is_stmt 1
 4265 003a 019B     		ldr	r3, [sp, #4]
 4266 003c D3F85C32 		ldr	r3, [r3, #604]
 4267 0040 5A1E     		subs	r2, r3, #1
 4268 0042 019B     		ldr	r3, [sp, #4]
 4269 0044 C3F85C22 		str	r2, [r3, #604]
 4270              		.loc 20 259 0
 4271 0048 019B     		ldr	r3, [sp, #4]
 4272 004a 1A1D     		adds	r2, r3, #4
 4273 004c 009B     		ldr	r3, [sp]
 4274 004e 1433     		adds	r3, r3, #20
 4275 0050 1046     		mov	r0, r2
 4276 0052 1946     		mov	r1, r3
 4277 0054 FFF7FEFF 		bl	_ZN3r2p10StaticListINS_4NodeEE13unlink_unsafeERNS2_4LinkE
 4278              		.loc 20 260 0
 4279 0058 FFF7FEFF 		bl	_ZN3r2p7SysLock7releaseEv
 4280              		.loc 20 261 0
 4281 005c 03B0     		add	sp, sp, #12
 4282              		.cfi_def_cfa_offset 4
 4283              		@ sp needed
 4284 005e 5DF804FB 		ldr	pc, [sp], #4
 4285              	.L267:
 4286 0062 00BF     		.align	2
ARM GAS  /tmp/cc5qDRak.s 			page 78


 4287              	.L266:
 4288 0064 00000000 		.word	.LC0
 4289              		.cfi_endproc
 4290              	.LFE610:
 4291              		.size	_ZN3r2p10Middleware12confirm_stopERKNS_4NodeE, .-_ZN3r2p10Middleware12confirm_stopERKNS_4Nod
 4292 0068 AFF30080 		.section	.text._ZN3r2p10Middleware10find_topicEPKc,"ax",%progbits
 4292      AFF30080 
 4293              		.align	2
 4294              		.p2align 4,,15
 4295              		.global	_ZN3r2p10Middleware10find_topicEPKc
 4296              		.thumb
 4297              		.thumb_func
 4298              		.type	_ZN3r2p10Middleware10find_topicEPKc, %function
 4299              	_ZN3r2p10Middleware10find_topicEPKc:
 4300              	.LFB611:
 4301              		.loc 20 264 0
 4302              		.cfi_startproc
 4303              		@ args = 0, pretend = 0, frame = 16
 4304              		@ frame_needed = 0, uses_anonymous_args = 0
 4305 0000 00B5     		push	{lr}
 4306              		.cfi_def_cfa_offset 4
 4307              		.cfi_offset 14, -4
 4308 0002 85B0     		sub	sp, sp, #20
 4309              		.cfi_def_cfa_offset 24
 4310 0004 0190     		str	r0, [sp, #4]
 4311 0006 0091     		str	r1, [sp]
 4312              	.LBB80:
 4313              		.loc 20 266 0
 4314 0008 019B     		ldr	r3, [sp, #4]
 4315 000a 1033     		adds	r3, r3, #16
 4316 000c 1846     		mov	r0, r3
 4317 000e FFF7FEFF 		bl	_ZN3r2p7ReMutex7acquireEv
 4318              		.loc 20 267 0
 4319 0012 019B     		ldr	r3, [sp, #4]
 4320 0014 0833     		adds	r3, r3, #8
 4321 0016 1846     		mov	r0, r3
 4322 0018 0749     		ldr	r1, .L270
 4323 001a 009A     		ldr	r2, [sp]
 4324 001c FFF7FEFF 		bl	_ZNK3r2p10StaticListINS_5TopicEE10find_firstIPFbRKS1_PKcEcEEPS1_T_PKT0_
 4325 0020 0390     		str	r0, [sp, #12]
 4326              		.loc 20 268 0
 4327 0022 019B     		ldr	r3, [sp, #4]
 4328 0024 1033     		adds	r3, r3, #16
 4329 0026 1846     		mov	r0, r3
 4330 0028 FFF7FEFF 		bl	_ZN3r2p7ReMutex7releaseEv
 4331              		.loc 20 269 0
 4332 002c 039B     		ldr	r3, [sp, #12]
 4333              	.LBE80:
 4334              		.loc 20 270 0
 4335 002e 1846     		mov	r0, r3
 4336 0030 05B0     		add	sp, sp, #20
 4337              		.cfi_def_cfa_offset 4
 4338              		@ sp needed
 4339 0032 5DF804FB 		ldr	pc, [sp], #4
 4340              	.L271:
 4341 0036 00BF     		.align	2
 4342              	.L270:
ARM GAS  /tmp/cc5qDRak.s 			page 79


 4343 0038 00000000 		.word	_ZN3r2p5Topic8has_nameERKS0_PKc
 4344              		.cfi_endproc
 4345              	.LFE611:
 4346              		.size	_ZN3r2p10Middleware10find_topicEPKc, .-_ZN3r2p10Middleware10find_topicEPKc
 4347 003c AFF30080 		.section	.text._ZN3r2p10Middleware9find_nodeEPKc,"ax",%progbits
 4348              		.align	2
 4349              		.p2align 4,,15
 4350              		.global	_ZN3r2p10Middleware9find_nodeEPKc
 4351              		.thumb
 4352              		.thumb_func
 4353              		.type	_ZN3r2p10Middleware9find_nodeEPKc, %function
 4354              	_ZN3r2p10Middleware9find_nodeEPKc:
 4355              	.LFB612:
 4356              		.loc 20 273 0
 4357              		.cfi_startproc
 4358              		@ args = 0, pretend = 0, frame = 16
 4359              		@ frame_needed = 0, uses_anonymous_args = 0
 4360 0000 00B5     		push	{lr}
 4361              		.cfi_def_cfa_offset 4
 4362              		.cfi_offset 14, -4
 4363 0002 85B0     		sub	sp, sp, #20
 4364              		.cfi_def_cfa_offset 24
 4365 0004 0190     		str	r0, [sp, #4]
 4366 0006 0091     		str	r1, [sp]
 4367              	.LBB81:
 4368              		.loc 20 275 0
 4369 0008 019B     		ldr	r3, [sp, #4]
 4370 000a 1033     		adds	r3, r3, #16
 4371 000c 1846     		mov	r0, r3
 4372 000e FFF7FEFF 		bl	_ZN3r2p7ReMutex7acquireEv
 4373              		.loc 20 276 0
 4374 0012 019B     		ldr	r3, [sp, #4]
 4375 0014 0433     		adds	r3, r3, #4
 4376 0016 1846     		mov	r0, r3
 4377 0018 0749     		ldr	r1, .L274
 4378 001a 009A     		ldr	r2, [sp]
 4379 001c FFF7FEFF 		bl	_ZNK3r2p10StaticListINS_4NodeEE10find_firstIPFbRKS1_PKcEcEEPS1_T_PKT0_
 4380 0020 0390     		str	r0, [sp, #12]
 4381              		.loc 20 277 0
 4382 0022 019B     		ldr	r3, [sp, #4]
 4383 0024 1033     		adds	r3, r3, #16
 4384 0026 1846     		mov	r0, r3
 4385 0028 FFF7FEFF 		bl	_ZN3r2p7ReMutex7releaseEv
 4386              		.loc 20 278 0
 4387 002c 039B     		ldr	r3, [sp, #12]
 4388              	.LBE81:
 4389              		.loc 20 279 0
 4390 002e 1846     		mov	r0, r3
 4391 0030 05B0     		add	sp, sp, #20
 4392              		.cfi_def_cfa_offset 4
 4393              		@ sp needed
 4394 0032 5DF804FB 		ldr	pc, [sp], #4
 4395              	.L275:
 4396 0036 00BF     		.align	2
 4397              	.L274:
 4398 0038 00000000 		.word	_ZN3r2p4Node8has_nameERKS0_PKc
 4399              		.cfi_endproc
ARM GAS  /tmp/cc5qDRak.s 			page 80


 4400              	.LFE612:
 4401              		.size	_ZN3r2p10Middleware9find_nodeEPKc, .-_ZN3r2p10Middleware9find_nodeEPKc
 4402 003c AFF30080 		.section	.text._ZN3r2p10Middleware11touch_topicEPKcj,"ax",%progbits
 4403              		.align	2
 4404              		.p2align 4,,15
 4405              		.global	_ZN3r2p10Middleware11touch_topicEPKcj
 4406              		.thumb
 4407              		.thumb_func
 4408              		.type	_ZN3r2p10Middleware11touch_topicEPKcj, %function
 4409              	_ZN3r2p10Middleware11touch_topicEPKcj:
 4410              	.LFB613:
 4411              		.loc 20 282 0
 4412              		.cfi_startproc
 4413              		@ args = 0, pretend = 0, frame = 24
 4414              		@ frame_needed = 0, uses_anonymous_args = 0
 4415 0000 10B5     		push	{r4, lr}
 4416              		.cfi_def_cfa_offset 8
 4417              		.cfi_offset 4, -8
 4418              		.cfi_offset 14, -4
 4419 0002 86B0     		sub	sp, sp, #24
 4420              		.cfi_def_cfa_offset 32
 4421 0004 0390     		str	r0, [sp, #12]
 4422 0006 0291     		str	r1, [sp, #8]
 4423 0008 0192     		str	r2, [sp, #4]
 4424              	.LBB82:
 4425              		.loc 20 284 0
 4426 000a 039B     		ldr	r3, [sp, #12]
 4427 000c 1033     		adds	r3, r3, #16
 4428 000e 1846     		mov	r0, r3
 4429 0010 FFF7FEFF 		bl	_ZN3r2p7ReMutex7acquireEv
 4430              		.loc 20 287 0
 4431 0014 0398     		ldr	r0, [sp, #12]
 4432 0016 0299     		ldr	r1, [sp, #8]
 4433 0018 FFF7FEFF 		bl	_ZN3r2p10Middleware10find_topicEPKc
 4434 001c 0590     		str	r0, [sp, #20]
 4435              		.loc 20 288 0
 4436 001e 059B     		ldr	r3, [sp, #20]
 4437 0020 002B     		cmp	r3, #0
 4438 0022 16D1     		bne	.L277
 4439              		.loc 20 290 0
 4440 0024 3020     		movs	r0, #48
 4441 0026 FFF7FEFF 		bl	_Znwj
 4442 002a 0446     		mov	r4, r0
 4443 002c 2046     		mov	r0, r4
 4444 002e 0299     		ldr	r1, [sp, #8]
 4445 0030 019A     		ldr	r2, [sp, #4]
 4446 0032 0023     		movs	r3, #0
 4447 0034 FFF7FEFF 		bl	_ZN3r2p5TopicC1EPKcjb
 4448 0038 0594     		str	r4, [sp, #20]
 4449              		.loc 20 291 0
 4450 003a 059B     		ldr	r3, [sp, #20]
 4451 003c 002B     		cmp	r3, #0
 4452 003e 08D0     		beq	.L277
 4453              		.loc 20 292 0
 4454 0040 039B     		ldr	r3, [sp, #12]
 4455 0042 03F10802 		add	r2, r3, #8
 4456 0046 059B     		ldr	r3, [sp, #20]
ARM GAS  /tmp/cc5qDRak.s 			page 81


 4457 0048 2833     		adds	r3, r3, #40
 4458 004a 1046     		mov	r0, r2
 4459 004c 1946     		mov	r1, r3
 4460 004e FFF7FEFF 		bl	_ZN3r2p10StaticListINS_5TopicEE4linkERNS2_4LinkE
 4461              	.L277:
 4462              		.loc 20 296 0
 4463 0052 039B     		ldr	r3, [sp, #12]
 4464 0054 1033     		adds	r3, r3, #16
 4465 0056 1846     		mov	r0, r3
 4466 0058 FFF7FEFF 		bl	_ZN3r2p7ReMutex7releaseEv
 4467              		.loc 20 297 0
 4468 005c 059B     		ldr	r3, [sp, #20]
 4469              	.LBE82:
 4470              		.loc 20 298 0
 4471 005e 1846     		mov	r0, r3
 4472 0060 06B0     		add	sp, sp, #24
 4473              		.cfi_def_cfa_offset 8
 4474              		@ sp needed
 4475 0062 10BD     		pop	{r4, pc}
 4476              		.cfi_endproc
 4477              	.LFE613:
 4478              		.size	_ZN3r2p10Middleware11touch_topicEPKcj, .-_ZN3r2p10Middleware11touch_topicEPKcj
 4479 0064 AFF30080 		.section	.text._ZN3r2p10Middleware14do_mgmt_threadEv,"ax",%progbits
 4479      AFF30080 
 4479      AFF30080 
 4480              		.align	2
 4481              		.p2align 4,,15
 4482              		.global	_ZN3r2p10Middleware14do_mgmt_threadEv
 4483              		.thumb
 4484              		.thumb_func
 4485              		.type	_ZN3r2p10Middleware14do_mgmt_threadEv, %function
 4486              	_ZN3r2p10Middleware14do_mgmt_threadEv:
 4487              	.LFB614:
 4488              		.loc 20 301 0
 4489              		.cfi_startproc
 4490              		@ args = 0, pretend = 0, frame = 56
 4491              		@ frame_needed = 0, uses_anonymous_args = 0
 4492 0000 30B5     		push	{r4, r5, lr}
 4493              		.cfi_def_cfa_offset 12
 4494              		.cfi_offset 4, -12
 4495              		.cfi_offset 5, -8
 4496              		.cfi_offset 14, -4
 4497 0002 8FB0     		sub	sp, sp, #60
 4498              		.cfi_def_cfa_offset 72
 4499 0004 0190     		str	r0, [sp, #4]
 4500              	.LBB83:
 4501              		.loc 20 303 0
 4502 0006 FFF7FEFF 		bl	_ZN3r2p7SysLock7acquireEv
 4503              		.loc 20 304 0
 4504 000a 019B     		ldr	r3, [sp, #4]
 4505 000c 6833     		adds	r3, r3, #104
 4506 000e 1846     		mov	r0, r3
 4507 0010 0121     		movs	r1, #1
 4508 0012 FFF7FEFF 		bl	_ZN3r2p4Node11set_enabledEb
 4509              		.loc 20 305 0
 4510 0016 FFF7FEFF 		bl	_ZN3r2p7SysLock7releaseEv
 4511              		.loc 20 306 0
ARM GAS  /tmp/cc5qDRak.s 			page 82


 4512 001a 019B     		ldr	r3, [sp, #4]
 4513 001c 03F16805 		add	r5, r3, #104
 4514 0020 019B     		ldr	r3, [sp, #4]
 4515 0022 03F18404 		add	r4, r3, #132
 4516 0026 019B     		ldr	r3, [sp, #4]
 4517 0028 2833     		adds	r3, r3, #40
 4518 002a 1846     		mov	r0, r3
 4519 002c FFF7FEFF 		bl	_ZNK3r2p5Topic8get_nameEv
 4520 0030 0346     		mov	r3, r0
 4521 0032 2846     		mov	r0, r5
 4522 0034 2146     		mov	r1, r4
 4523 0036 1A46     		mov	r2, r3
 4524 0038 7F4B     		ldr	r3, .L309
 4525 003a FFF7FEFF 		bl	_ZN3r2p4Node9advertiseINS_7MgmtMsgEEEbRNS_9PublisherIT_EEPKcRKNS_4TimeE
 4526              		.loc 20 307 0
 4527 003e 019B     		ldr	r3, [sp, #4]
 4528 0040 03F16805 		add	r5, r3, #104
 4529 0044 019B     		ldr	r3, [sp, #4]
 4530 0046 03F19404 		add	r4, r3, #148
 4531 004a 019B     		ldr	r3, [sp, #4]
 4532 004c 2833     		adds	r3, r3, #40
 4533 004e 1846     		mov	r0, r3
 4534 0050 FFF7FEFF 		bl	_ZNK3r2p5Topic8get_nameEv
 4535 0054 0246     		mov	r2, r0
 4536 0056 019B     		ldr	r3, [sp, #4]
 4537 0058 F433     		adds	r3, r3, #244
 4538 005a 2846     		mov	r0, r5
 4539 005c 2146     		mov	r1, r4
 4540 005e FFF7FEFF 		bl	_ZN3r2p4Node9subscribeINS_7MgmtMsgEEEbRNS_16SubscriberExtBufIT_EEPKcPS4_
 4541              		.loc 20 311 0
 4542 0062 019B     		ldr	r3, [sp, #4]
 4543 0064 03F18402 		add	r2, r3, #132
 4544 0068 04AB     		add	r3, sp, #16
 4545 006a 1046     		mov	r0, r2
 4546 006c 1946     		mov	r1, r3
 4547 006e FFF7FEFF 		bl	_ZN3r2p9PublisherINS_7MgmtMsgEE5allocERPS1_
 4548 0072 0346     		mov	r3, r0
 4549 0074 002B     		cmp	r3, #0
 4550 0076 29D0     		beq	.L280
 4551              		.loc 20 312 0
 4552 0078 049B     		ldr	r3, [sp, #16]
 4553 007a 1846     		mov	r0, r3
 4554 007c FFF7FEFF 		bl	_ZN3r2p7Message13reset_payloadINS_7MgmtMsgEEEvRT_
 4555              		.loc 20 313 0
 4556 0080 049B     		ldr	r3, [sp, #16]
 4557 0082 1122     		movs	r2, #17
 4558 0084 83F82120 		strb	r2, [r3, #33]
 4559              		.loc 20 315 0
 4560 0088 049B     		ldr	r3, [sp, #16]
 4561 008a 9A1C     		adds	r2, r3, #2
 4562 008c 019B     		ldr	r3, [sp, #4]
 4563 008e 1B68     		ldr	r3, [r3]
 4564 0090 1046     		mov	r0, r2
 4565 0092 1946     		mov	r1, r3
 4566 0094 0722     		movs	r2, #7
 4567 0096 FFF7FEFF 		bl	strncpy
 4568              		.loc 20 316 0
ARM GAS  /tmp/cc5qDRak.s 			page 83


 4569 009a FFF7FEFF 		bl	_ZN3r2p7SysLock7acquireEv
 4570              		.loc 20 317 0
 4571 009e 049C     		ldr	r4, [sp, #16]
 4572 00a0 0198     		ldr	r0, [sp, #4]
 4573 00a2 FFF7FEFF 		bl	_ZNK3r2p10Middleware10is_stoppedEv
 4574 00a6 0346     		mov	r3, r0
 4575 00a8 002B     		cmp	r3, #0
 4576 00aa 01D0     		beq	.L281
 4577              		.loc 20 317 0 is_stmt 0 discriminator 1
 4578 00ac 0122     		movs	r2, #1
 4579 00ae 00E0     		b	.L282
 4580              	.L281:
 4581              		.loc 20 317 0 discriminator 2
 4582 00b0 0022     		movs	r2, #0
 4583              	.L282:
 4584              		.loc 20 317 0 discriminator 4
 4585 00b2 A37A     		ldrb	r3, [r4, #10]
 4586 00b4 62F30003 		bfi	r3, r2, #0, #1
 4587 00b8 A372     		strb	r3, [r4, #10]
 4588              		.loc 20 322 0 is_stmt 1 discriminator 4
 4589 00ba FFF7FEFF 		bl	_ZN3r2p7SysLock7releaseEv
 4590              		.loc 20 323 0 discriminator 4
 4591 00be 019B     		ldr	r3, [sp, #4]
 4592 00c0 8433     		adds	r3, r3, #132
 4593 00c2 049A     		ldr	r2, [sp, #16]
 4594 00c4 1846     		mov	r0, r3
 4595 00c6 1146     		mov	r1, r2
 4596 00c8 FFF7FEFF 		bl	_ZN3r2p13BasePublisher16publish_remotelyERNS_7MessageE
 4597              	.L280:
 4598              	.LBB84:
 4599              	.LBB85:
 4600              	.LBB86:
 4601              		.loc 20 328 0
 4602 00cc 019B     		ldr	r3, [sp, #4]
 4603 00ce 03F16804 		add	r4, r3, #104
 4604 00d2 05AB     		add	r3, sp, #20
 4605 00d4 1846     		mov	r0, r3
 4606 00d6 2121     		movs	r1, #33
 4607 00d8 FFF7FEFF 		bl	_ZN3r2p4Time2msEl
 4608 00dc 05AB     		add	r3, sp, #20
 4609 00de 2046     		mov	r0, r4
 4610 00e0 1946     		mov	r1, r3
 4611 00e2 FFF7FEFF 		bl	_ZN3r2p4Node4spinERKNS_4TimeE
 4612 00e6 0346     		mov	r3, r0
 4613 00e8 002B     		cmp	r3, #0
 4614 00ea 00F0A780 		beq	.L283
 4615              	.LBB87:
 4616              		.loc 20 329 0
 4617 00ee 03AB     		add	r3, sp, #12
 4618 00f0 1846     		mov	r0, r3
 4619 00f2 FFF7FEFF 		bl	_ZN3r2p4TimeC1Ev
 4620              		.loc 20 331 0
 4621 00f6 90E0     		b	.L284
 4622              	.L294:
 4623              		.loc 20 332 0
 4624 00f8 049B     		ldr	r3, [sp, #16]
 4625 00fa 93F82130 		ldrb	r3, [r3, #33]	@ zero_extendqisi2
ARM GAS  /tmp/cc5qDRak.s 			page 84


 4626 00fe 123B     		subs	r3, r3, #18
 4627 0100 112B     		cmp	r3, #17
 4628 0102 00F28180 		bhi	.L285
 4629 0106 01A2     		adr	r2, .L287
 4630 0108 52F823F0 		ldr	pc, [r2, r3, lsl #2]
 4631              		.p2align 2
 4632              	.L287:
 4633 010c A9010000 		.word	.L286+1
 4634 0110 D9010000 		.word	.L288+1
 4635 0114 09020000 		.word	.L285+1
 4636 0118 09020000 		.word	.L285+1
 4637 011c 09020000 		.word	.L285+1
 4638 0120 09020000 		.word	.L285+1
 4639 0124 09020000 		.word	.L285+1
 4640 0128 09020000 		.word	.L285+1
 4641 012c 09020000 		.word	.L285+1
 4642 0130 09020000 		.word	.L285+1
 4643 0134 09020000 		.word	.L285+1
 4644 0138 09020000 		.word	.L285+1
 4645 013c 09020000 		.word	.L285+1
 4646 0140 09020000 		.word	.L285+1
 4647 0144 09020000 		.word	.L285+1
 4648 0148 55010000 		.word	.L289+1
 4649 014c 71010000 		.word	.L290+1
 4650 0150 8D010000 		.word	.L291+1
 4651              		.p2align 1
 4652              	.L289:
 4653              		.loc 20 334 0
 4654 0154 049B     		ldr	r3, [sp, #16]
 4655 0156 0198     		ldr	r0, [sp, #4]
 4656 0158 1946     		mov	r1, r3
 4657 015a FFF7FEFF 		bl	_ZN3r2p10Middleware16do_cmd_advertiseERKNS_7MgmtMsgE
 4658              		.loc 20 338 0
 4659 015e 019B     		ldr	r3, [sp, #4]
 4660 0160 03F19402 		add	r2, r3, #148
 4661 0164 049B     		ldr	r3, [sp, #16]
 4662 0166 1046     		mov	r0, r2
 4663 0168 1946     		mov	r1, r3
 4664 016a FFF7FEFF 		bl	_ZN3r2p16SubscriberExtBufINS_7MgmtMsgEE7releaseERS1_
 4665              		.loc 20 339 0
 4666 016e 54E0     		b	.L284
 4667              	.L290:
 4668              		.loc 20 342 0
 4669 0170 049B     		ldr	r3, [sp, #16]
 4670 0172 0198     		ldr	r0, [sp, #4]
 4671 0174 1946     		mov	r1, r3
 4672 0176 FFF7FEFF 		bl	_ZN3r2p10Middleware24do_cmd_subscribe_requestERKNS_7MgmtMsgE
 4673              		.loc 20 346 0
 4674 017a 019B     		ldr	r3, [sp, #4]
 4675 017c 03F19402 		add	r2, r3, #148
 4676 0180 049B     		ldr	r3, [sp, #16]
 4677 0182 1046     		mov	r0, r2
 4678 0184 1946     		mov	r1, r3
 4679 0186 FFF7FEFF 		bl	_ZN3r2p16SubscriberExtBufINS_7MgmtMsgEE7releaseERS1_
 4680              		.loc 20 347 0
 4681 018a 46E0     		b	.L284
 4682              	.L291:
ARM GAS  /tmp/cc5qDRak.s 			page 85


 4683              		.loc 20 350 0
 4684 018c 049B     		ldr	r3, [sp, #16]
 4685 018e 0198     		ldr	r0, [sp, #4]
 4686 0190 1946     		mov	r1, r3
 4687 0192 FFF7FEFF 		bl	_ZN3r2p10Middleware25do_cmd_subscribe_responseERKNS_7MgmtMsgE
 4688              		.loc 20 354 0
 4689 0196 019B     		ldr	r3, [sp, #4]
 4690 0198 03F19402 		add	r2, r3, #148
 4691 019c 049B     		ldr	r3, [sp, #16]
 4692 019e 1046     		mov	r0, r2
 4693 01a0 1946     		mov	r1, r3
 4694 01a2 FFF7FEFF 		bl	_ZN3r2p16SubscriberExtBufINS_7MgmtMsgEE7releaseERS1_
 4695              		.loc 20 355 0
 4696 01a6 38E0     		b	.L284
 4697              	.L286:
 4698              		.loc 20 359 0
 4699 01a8 019B     		ldr	r3, [sp, #4]
 4700 01aa 1A68     		ldr	r2, [r3]
 4701 01ac 049B     		ldr	r3, [sp, #16]
 4702 01ae 0233     		adds	r3, r3, #2
 4703 01b0 1046     		mov	r0, r2
 4704 01b2 1946     		mov	r1, r3
 4705 01b4 0722     		movs	r2, #7
 4706 01b6 FFF7FEFF 		bl	strncmp
 4707 01ba 0346     		mov	r3, r0
 4708              		.loc 20 358 0
 4709 01bc 002B     		cmp	r3, #0
 4710 01be 02D1     		bne	.L292
 4711              		.loc 20 360 0
 4712 01c0 0198     		ldr	r0, [sp, #4]
 4713 01c2 FFF7FEFF 		bl	_ZN3r2p10Middleware4stopEv
 4714              	.L292:
 4715              		.loc 20 367 0
 4716 01c6 019B     		ldr	r3, [sp, #4]
 4717 01c8 03F19402 		add	r2, r3, #148
 4718 01cc 049B     		ldr	r3, [sp, #16]
 4719 01ce 1046     		mov	r0, r2
 4720 01d0 1946     		mov	r1, r3
 4721 01d2 FFF7FEFF 		bl	_ZN3r2p16SubscriberExtBufINS_7MgmtMsgEE7releaseERS1_
 4722              		.loc 20 368 0
 4723 01d6 20E0     		b	.L284
 4724              	.L288:
 4725              		.loc 20 372 0
 4726 01d8 019B     		ldr	r3, [sp, #4]
 4727 01da 1A68     		ldr	r2, [r3]
 4728 01dc 049B     		ldr	r3, [sp, #16]
 4729 01de 0233     		adds	r3, r3, #2
 4730 01e0 1046     		mov	r0, r2
 4731 01e2 1946     		mov	r1, r3
 4732 01e4 0722     		movs	r2, #7
 4733 01e6 FFF7FEFF 		bl	strncmp
 4734 01ea 0346     		mov	r3, r0
 4735              		.loc 20 371 0
 4736 01ec 002B     		cmp	r3, #0
 4737 01ee 02D1     		bne	.L293
 4738              		.loc 20 376 0
 4739 01f0 0198     		ldr	r0, [sp, #4]
ARM GAS  /tmp/cc5qDRak.s 			page 86


 4740 01f2 FFF7FEFF 		bl	_ZN3r2p10Middleware6rebootEv
 4741              	.L293:
 4742              		.loc 20 383 0
 4743 01f6 019B     		ldr	r3, [sp, #4]
 4744 01f8 03F19402 		add	r2, r3, #148
 4745 01fc 049B     		ldr	r3, [sp, #16]
 4746 01fe 1046     		mov	r0, r2
 4747 0200 1946     		mov	r1, r3
 4748 0202 FFF7FEFF 		bl	_ZN3r2p16SubscriberExtBufINS_7MgmtMsgEE7releaseERS1_
 4749              		.loc 20 384 0
 4750 0206 08E0     		b	.L284
 4751              	.L285:
 4752              		.loc 20 408 0
 4753 0208 019B     		ldr	r3, [sp, #4]
 4754 020a 03F19402 		add	r2, r3, #148
 4755 020e 049B     		ldr	r3, [sp, #16]
 4756 0210 1046     		mov	r0, r2
 4757 0212 1946     		mov	r1, r3
 4758 0214 FFF7FEFF 		bl	_ZN3r2p16SubscriberExtBufINS_7MgmtMsgEE7releaseERS1_
 4759              		.loc 20 409 0
 4760 0218 00BF     		nop
 4761              	.L284:
 4762              		.loc 20 331 0
 4763 021a 019B     		ldr	r3, [sp, #4]
 4764 021c 03F19401 		add	r1, r3, #148
 4765 0220 04AA     		add	r2, sp, #16
 4766 0222 03AB     		add	r3, sp, #12
 4767 0224 0846     		mov	r0, r1
 4768 0226 1146     		mov	r1, r2
 4769 0228 1A46     		mov	r2, r3
 4770 022a FFF7FEFF 		bl	_ZN3r2p16SubscriberExtBufINS_7MgmtMsgEE5fetchERPS1_RNS_4TimeE
 4771 022e 0346     		mov	r3, r0
 4772 0230 002B     		cmp	r3, #0
 4773 0232 7FF461AF 		bne	.L294
 4774              	.LBE87:
 4775 0236 E2E1     		b	.L295
 4776              	.L310:
 4777              		.align	2
 4778              	.L309:
 4779 0238 00000000 		.word	_ZN3r2p4Time8INFINITEE
 4780              	.L283:
 4781              	.LBB88:
 4782              	.LBB89:
 4783              		.loc 20 416 0
 4784 023c 07AB     		add	r3, sp, #28
 4785 023e 1846     		mov	r0, r3
 4786 0240 FFF7FEFF 		bl	_ZN3r2p4Time3nowEv
 4787 0244 019B     		ldr	r3, [sp, #4]
 4788 0246 03F51573 		add	r3, r3, #596
 4789 024a 06A9     		add	r1, sp, #24
 4790 024c 07AA     		add	r2, sp, #28
 4791 024e 0846     		mov	r0, r1
 4792 0250 1146     		mov	r1, r2
 4793 0252 1A46     		mov	r2, r3
 4794 0254 FFF7FEFF 		bl	_ZN3r2pmiERKNS_4TimeES2_
 4795 0258 08AB     		add	r3, sp, #32
 4796 025a 1846     		mov	r0, r3
ARM GAS  /tmp/cc5qDRak.s 			page 87


 4797 025c 4FF4FA71 		mov	r1, #500
 4798 0260 FFF7FEFF 		bl	_ZN3r2p4Time2msEl
 4799 0264 06AA     		add	r2, sp, #24
 4800 0266 08AB     		add	r3, sp, #32
 4801 0268 1046     		mov	r0, r2
 4802 026a 1946     		mov	r1, r3
 4803 026c FFF7FEFF 		bl	_ZN3r2pgeERKNS_4TimeES2_
 4804 0270 0346     		mov	r3, r0
 4805 0272 002B     		cmp	r3, #0
 4806 0274 00F0C381 		beq	.L295
 4807              	.LBB90:
 4808              		.loc 20 417 0
 4809 0278 019B     		ldr	r3, [sp, #4]
 4810 027a 03F51574 		add	r4, r3, #596
 4811 027e 09AB     		add	r3, sp, #36
 4812 0280 1846     		mov	r0, r3
 4813 0282 FFF7FEFF 		bl	_ZN3r2p4Time3nowEv
 4814 0286 09AB     		add	r3, sp, #36
 4815 0288 2046     		mov	r0, r4
 4816 028a 1946     		mov	r1, r3
 4817 028c FFF7FEFF 		bl	_ZN3r2p4TimeaSERKS0_
 4818              	.LBB91:
 4819              		.loc 20 418 0
 4820 0290 019B     		ldr	r3, [sp, #4]
 4821 0292 03F51273 		add	r3, r3, #584
 4822 0296 1846     		mov	r0, r3
 4823 0298 FFF7FEFF 		bl	_ZNK3r2p10StaticListINS_4NodeEE13ConstIterator8is_validEv
 4824 029c 0346     		mov	r3, r0
 4825 029e 83F00103 		eor	r3, r3, #1
 4826 02a2 DBB2     		uxtb	r3, r3
 4827 02a4 002B     		cmp	r3, #0
 4828 02a6 00F08380 		beq	.L296
 4829              		.loc 20 420 0
 4830 02aa 019B     		ldr	r3, [sp, #4]
 4831 02ac 1A1D     		adds	r2, r3, #4
 4832 02ae 019B     		ldr	r3, [sp, #4]
 4833 02b0 03F51273 		add	r3, r3, #584
 4834 02b4 1046     		mov	r0, r2
 4835 02b6 1946     		mov	r1, r3
 4836 02b8 FFF7FEFF 		bl	_ZNK3r2p10StaticListINS_4NodeEE7restartERNS2_13ConstIteratorE
 4837              		.loc 20 421 0
 4838 02bc 019B     		ldr	r3, [sp, #4]
 4839 02be 03F51273 		add	r3, r3, #584
 4840 02c2 1846     		mov	r0, r3
 4841 02c4 FFF7FEFF 		bl	_ZNK3r2p10StaticListINS_4NodeEE13ConstIteratordeEv
 4842 02c8 0246     		mov	r2, r0
 4843 02ca 019B     		ldr	r3, [sp, #4]
 4844 02cc 6833     		adds	r3, r3, #104
 4845 02ce 9A42     		cmp	r2, r3
 4846 02d0 0CBF     		ite	eq
 4847 02d2 0123     		moveq	r3, #1
 4848 02d4 0023     		movne	r3, #0
 4849 02d6 DBB2     		uxtb	r3, r3
 4850 02d8 002B     		cmp	r3, #0
 4851 02da 05D0     		beq	.L297
 4852              		.loc 20 421 0 is_stmt 0 discriminator 1
 4853 02dc 019B     		ldr	r3, [sp, #4]
ARM GAS  /tmp/cc5qDRak.s 			page 88


 4854 02de 03F51273 		add	r3, r3, #584
 4855 02e2 1846     		mov	r0, r3
 4856 02e4 FFF7FEFF 		bl	_ZN3r2p10StaticListINS_4NodeEE13ConstIteratorppEv
 4857              	.L297:
 4858              		.loc 20 422 0 is_stmt 1
 4859 02e8 019B     		ldr	r3, [sp, #4]
 4860 02ea 03F51273 		add	r3, r3, #584
 4861 02ee 1846     		mov	r0, r3
 4862 02f0 FFF7FEFF 		bl	_ZNK3r2p10StaticListINS_4NodeEE13ConstIterator8is_validEv
 4863 02f4 0346     		mov	r3, r0
 4864 02f6 002B     		cmp	r3, #0
 4865 02f8 23D0     		beq	.L298
 4866              		.loc 20 423 0
 4867 02fa 019B     		ldr	r3, [sp, #4]
 4868 02fc 03F51273 		add	r3, r3, #584
 4869 0300 1846     		mov	r0, r3
 4870 0302 FFF7FEFF 		bl	_ZNK3r2p10StaticListINS_4NodeEE13ConstIteratorptEv
 4871 0306 0346     		mov	r3, r0
 4872 0308 1846     		mov	r0, r3
 4873 030a FFF7FEFF 		bl	_ZNK3r2p4Node14get_publishersEv
 4874 030e 0246     		mov	r2, r0
 4875 0310 019B     		ldr	r3, [sp, #4]
 4876 0312 03F51373 		add	r3, r3, #588
 4877 0316 1046     		mov	r0, r2
 4878 0318 1946     		mov	r1, r3
 4879 031a FFF7FEFF 		bl	_ZNK3r2p10StaticListINS_14LocalPublisherEE7restartERNS2_13ConstIteratorE
 4880              		.loc 20 424 0
 4881 031e 019B     		ldr	r3, [sp, #4]
 4882 0320 03F51273 		add	r3, r3, #584
 4883 0324 1846     		mov	r0, r3
 4884 0326 FFF7FEFF 		bl	_ZNK3r2p10StaticListINS_4NodeEE13ConstIteratorptEv
 4885 032a 0346     		mov	r3, r0
 4886 032c 1846     		mov	r0, r3
 4887 032e FFF7FEFF 		bl	_ZNK3r2p4Node15get_subscribersEv
 4888 0332 0246     		mov	r2, r0
 4889 0334 019B     		ldr	r3, [sp, #4]
 4890 0336 03F51473 		add	r3, r3, #592
 4891 033a 1046     		mov	r0, r2
 4892 033c 1946     		mov	r1, r3
 4893 033e FFF7FEFF 		bl	_ZNK3r2p10StaticListINS_15LocalSubscriberEE7restartERNS2_13ConstIteratorE
 4894              	.L298:
 4895              		.loc 20 428 0
 4896 0342 019B     		ldr	r3, [sp, #4]
 4897 0344 03F18402 		add	r2, r3, #132
 4898 0348 04AB     		add	r3, sp, #16
 4899 034a 1046     		mov	r0, r2
 4900 034c 1946     		mov	r1, r3
 4901 034e FFF7FEFF 		bl	_ZN3r2p9PublisherINS_7MgmtMsgEE5allocERPS1_
 4902 0352 0346     		mov	r3, r0
 4903 0354 002B     		cmp	r3, #0
 4904 0356 00F05281 		beq	.L299
 4905              		.loc 20 429 0
 4906 035a 049B     		ldr	r3, [sp, #16]
 4907 035c 1846     		mov	r0, r3
 4908 035e FFF7FEFF 		bl	_ZN3r2p7Message13reset_payloadINS_7MgmtMsgEEEvRT_
 4909              		.loc 20 430 0
 4910 0362 049B     		ldr	r3, [sp, #16]
ARM GAS  /tmp/cc5qDRak.s 			page 89


 4911 0364 1122     		movs	r2, #17
 4912 0366 83F82120 		strb	r2, [r3, #33]
 4913              		.loc 20 432 0
 4914 036a 049B     		ldr	r3, [sp, #16]
 4915 036c 9A1C     		adds	r2, r3, #2
 4916 036e 019B     		ldr	r3, [sp, #4]
 4917 0370 1B68     		ldr	r3, [r3]
 4918 0372 1046     		mov	r0, r2
 4919 0374 1946     		mov	r1, r3
 4920 0376 0722     		movs	r2, #7
 4921 0378 FFF7FEFF 		bl	strncpy
 4922              		.loc 20 433 0
 4923 037c FFF7FEFF 		bl	_ZN3r2p7SysLock7acquireEv
 4924              		.loc 20 434 0
 4925 0380 049C     		ldr	r4, [sp, #16]
 4926 0382 0198     		ldr	r0, [sp, #4]
 4927 0384 FFF7FEFF 		bl	_ZNK3r2p10Middleware10is_stoppedEv
 4928 0388 0346     		mov	r3, r0
 4929 038a 002B     		cmp	r3, #0
 4930 038c 01D0     		beq	.L300
 4931              		.loc 20 434 0 is_stmt 0 discriminator 1
 4932 038e 0122     		movs	r2, #1
 4933 0390 00E0     		b	.L301
 4934              	.L300:
 4935              		.loc 20 434 0 discriminator 2
 4936 0392 0022     		movs	r2, #0
 4937              	.L301:
 4938              		.loc 20 434 0 discriminator 4
 4939 0394 A37A     		ldrb	r3, [r4, #10]
 4940 0396 62F30003 		bfi	r3, r2, #0, #1
 4941 039a A372     		strb	r3, [r4, #10]
 4942              		.loc 20 439 0 is_stmt 1 discriminator 4
 4943 039c FFF7FEFF 		bl	_ZN3r2p7SysLock7releaseEv
 4944              		.loc 20 440 0 discriminator 4
 4945 03a0 019B     		ldr	r3, [sp, #4]
 4946 03a2 8433     		adds	r3, r3, #132
 4947 03a4 049A     		ldr	r2, [sp, #16]
 4948 03a6 1846     		mov	r0, r3
 4949 03a8 1146     		mov	r1, r2
 4950 03aa FFF7FEFF 		bl	_ZN3r2p13BasePublisher16publish_remotelyERNS_7MessageE
 4951 03ae 26E1     		b	.L299
 4952              	.L296:
 4953              	.LBB92:
 4954              	.LBB93:
 4955              		.loc 20 443 0
 4956 03b0 019B     		ldr	r3, [sp, #4]
 4957 03b2 03F51373 		add	r3, r3, #588
 4958 03b6 1846     		mov	r0, r3
 4959 03b8 FFF7FEFF 		bl	_ZNK3r2p10StaticListINS_14LocalPublisherEE13ConstIterator8is_validEv
 4960 03bc 0346     		mov	r3, r0
 4961 03be 002B     		cmp	r3, #0
 4962 03c0 68D0     		beq	.L302
 4963              	.LBB94:
 4964              	.LBB95:
 4965              		.loc 20 445 0
 4966 03c2 019B     		ldr	r3, [sp, #4]
 4967 03c4 03F18402 		add	r2, r3, #132
ARM GAS  /tmp/cc5qDRak.s 			page 90


 4968 03c8 04AB     		add	r3, sp, #16
 4969 03ca 1046     		mov	r0, r2
 4970 03cc 1946     		mov	r1, r3
 4971 03ce FFF7FEFF 		bl	_ZN3r2p9PublisherINS_7MgmtMsgEE5allocERPS1_
 4972 03d2 0346     		mov	r3, r0
 4973 03d4 002B     		cmp	r3, #0
 4974 03d6 5CD0     		beq	.L303
 4975              	.LBB96:
 4976              		.loc 20 446 0
 4977 03d8 049B     		ldr	r3, [sp, #16]
 4978 03da 1846     		mov	r0, r3
 4979 03dc FFF7FEFF 		bl	_ZN3r2p7Message13reset_payloadINS_7MgmtMsgEEEvRT_
 4980              		.loc 20 447 0
 4981 03e0 049B     		ldr	r3, [sp, #16]
 4982 03e2 2122     		movs	r2, #33
 4983 03e4 83F82120 		strb	r2, [r3, #33]
 4984              		.loc 20 448 0
 4985 03e8 019B     		ldr	r3, [sp, #4]
 4986 03ea 1033     		adds	r3, r3, #16
 4987 03ec 1846     		mov	r0, r3
 4988 03ee FFF7FEFF 		bl	_ZN3r2p7ReMutex7acquireEv
 4989              		.loc 20 449 0
 4990 03f2 019B     		ldr	r3, [sp, #4]
 4991 03f4 03F51373 		add	r3, r3, #588
 4992 03f8 1846     		mov	r0, r3
 4993 03fa FFF7FEFF 		bl	_ZNK3r2p10StaticListINS_14LocalPublisherEE13ConstIteratorptEv
 4994 03fe 0346     		mov	r3, r0
 4995 0400 1846     		mov	r0, r3
 4996 0402 FFF7FEFF 		bl	_ZNK3r2p13BasePublisher9get_topicEv
 4997 0406 0D90     		str	r0, [sp, #52]
 4998              		.loc 20 451 0
 4999 0408 049C     		ldr	r4, [sp, #16]
 5000 040a 0D98     		ldr	r0, [sp, #52]
 5001 040c FFF7FEFF 		bl	_ZNK3r2p5Topic16get_payload_sizeEv
 5002 0410 0346     		mov	r3, r0
 5003 0412 9BB2     		uxth	r3, r3
 5004 0414 6382     		strh	r3, [r4, #18]	@ unaligned
 5005              		.loc 20 453 0
 5006 0416 049B     		ldr	r3, [sp, #16]
 5007 0418 9C1C     		adds	r4, r3, #2
 5008 041a 0D98     		ldr	r0, [sp, #52]
 5009 041c FFF7FEFF 		bl	_ZNK3r2p5Topic8get_nameEv
 5010 0420 0346     		mov	r3, r0
 5011 0422 2046     		mov	r0, r4
 5012 0424 1946     		mov	r1, r3
 5013 0426 1022     		movs	r2, #16
 5014 0428 FFF7FEFF 		bl	strncpy
 5015              		.loc 20 455 0
 5016 042c 049C     		ldr	r4, [sp, #16]
 5017 042e 0D98     		ldr	r0, [sp, #52]
 5018 0430 FFF7FEFF 		bl	_ZNK3r2p5Topic20get_max_queue_lengthEv
 5019 0434 0346     		mov	r3, r0
 5020 0436 9BB2     		uxth	r3, r3
 5021 0438 A382     		strh	r3, [r4, #20]	@ unaligned
 5022              		.loc 20 456 0
 5023 043a 019B     		ldr	r3, [sp, #4]
 5024 043c 1033     		adds	r3, r3, #16
ARM GAS  /tmp/cc5qDRak.s 			page 91


 5025 043e 1846     		mov	r0, r3
 5026 0440 FFF7FEFF 		bl	_ZN3r2p7ReMutex7releaseEv
 5027              		.loc 20 457 0
 5028 0444 049B     		ldr	r3, [sp, #16]
 5029 0446 1846     		mov	r0, r3
 5030 0448 FFF7FEFF 		bl	_ZN3r2p7Message7acquireEv
 5031              		.loc 20 458 0
 5032 044c 019B     		ldr	r3, [sp, #4]
 5033 044e 03F12804 		add	r4, r3, #40
 5034 0452 049B     		ldr	r3, [sp, #16]
 5035 0454 1D46     		mov	r5, r3
 5036 0456 019B     		ldr	r3, [sp, #4]
 5037 0458 2833     		adds	r3, r3, #40
 5038 045a 0AAA     		add	r2, sp, #40
 5039 045c 1046     		mov	r0, r2
 5040 045e 1946     		mov	r1, r3
 5041 0460 FFF7FEFF 		bl	_ZNK3r2p5Topic16compute_deadlineEv
 5042 0464 0AAB     		add	r3, sp, #40
 5043 0466 2046     		mov	r0, r4
 5044 0468 2946     		mov	r1, r5
 5045 046a 1A46     		mov	r2, r3
 5046 046c FFF7FEFF 		bl	_ZN3r2p5Topic12forward_copyERKNS_7MessageERKNS_4TimeE
 5047 0470 0346     		mov	r3, r0
 5048 0472 002B     		cmp	r3, #0
 5049 0474 05D0     		beq	.L304
 5050              		.loc 20 459 0
 5051 0476 019B     		ldr	r3, [sp, #4]
 5052 0478 03F51373 		add	r3, r3, #588
 5053 047c 1846     		mov	r0, r3
 5054 047e FFF7FEFF 		bl	_ZN3r2p10StaticListINS_14LocalPublisherEE13ConstIteratorppEv
 5055              	.L304:
 5056              		.loc 20 461 0
 5057 0482 019B     		ldr	r3, [sp, #4]
 5058 0484 03F19402 		add	r2, r3, #148
 5059 0488 049B     		ldr	r3, [sp, #16]
 5060 048a 1046     		mov	r0, r2
 5061 048c 1946     		mov	r1, r3
 5062 048e FFF7FEFF 		bl	_ZN3r2p16SubscriberExtBufINS_7MgmtMsgEE7releaseERS1_
 5063              	.L303:
 5064              	.LBE96:
 5065              	.LBE95:
 5066              	.LBE94:
 5067 0492 B4E0     		b	.L299
 5068              	.L302:
 5069              	.LBB97:
 5070              	.LBB98:
 5071              		.loc 20 464 0
 5072 0494 019B     		ldr	r3, [sp, #4]
 5073 0496 03F51473 		add	r3, r3, #592
 5074 049a 1846     		mov	r0, r3
 5075 049c FFF7FEFF 		bl	_ZNK3r2p10StaticListINS_15LocalSubscriberEE13ConstIterator8is_validEv
 5076 04a0 0346     		mov	r3, r0
 5077 04a2 002B     		cmp	r3, #0
 5078 04a4 62D0     		beq	.L305
 5079              	.LBB99:
 5080              	.LBB100:
 5081              		.loc 20 466 0
ARM GAS  /tmp/cc5qDRak.s 			page 92


 5082 04a6 019B     		ldr	r3, [sp, #4]
 5083 04a8 03F18402 		add	r2, r3, #132
 5084 04ac 04AB     		add	r3, sp, #16
 5085 04ae 1046     		mov	r0, r2
 5086 04b0 1946     		mov	r1, r3
 5087 04b2 FFF7FEFF 		bl	_ZN3r2p9PublisherINS_7MgmtMsgEE5allocERPS1_
 5088 04b6 0346     		mov	r3, r0
 5089 04b8 002B     		cmp	r3, #0
 5090 04ba 56D0     		beq	.L306
 5091              	.LBB101:
 5092              		.loc 20 467 0
 5093 04bc 049B     		ldr	r3, [sp, #16]
 5094 04be 1846     		mov	r0, r3
 5095 04c0 FFF7FEFF 		bl	_ZN3r2p7Message13reset_payloadINS_7MgmtMsgEEEvRT_
 5096              		.loc 20 468 0
 5097 04c4 049B     		ldr	r3, [sp, #16]
 5098 04c6 2222     		movs	r2, #34
 5099 04c8 83F82120 		strb	r2, [r3, #33]
 5100              		.loc 20 469 0
 5101 04cc FFF7FEFF 		bl	_ZN3r2p7SysLock7acquireEv
 5102              		.loc 20 470 0
 5103 04d0 019B     		ldr	r3, [sp, #4]
 5104 04d2 03F51473 		add	r3, r3, #592
 5105 04d6 1846     		mov	r0, r3
 5106 04d8 FFF7FEFF 		bl	_ZNK3r2p10StaticListINS_15LocalSubscriberEE13ConstIteratorptEv
 5107 04dc 0346     		mov	r3, r0
 5108 04de 1846     		mov	r0, r3
 5109 04e0 FFF7FEFF 		bl	_ZNK3r2p14BaseSubscriber9get_topicEv
 5110 04e4 0C90     		str	r0, [sp, #48]
 5111              		.loc 20 471 0
 5112 04e6 049C     		ldr	r4, [sp, #16]
 5113 04e8 0C98     		ldr	r0, [sp, #48]
 5114 04ea FFF7FEFF 		bl	_ZNK3r2p5Topic16get_payload_sizeEv
 5115 04ee 0346     		mov	r3, r0
 5116 04f0 9BB2     		uxth	r3, r3
 5117 04f2 6382     		strh	r3, [r4, #18]	@ unaligned
 5118              		.loc 20 473 0
 5119 04f4 049B     		ldr	r3, [sp, #16]
 5120 04f6 9C1C     		adds	r4, r3, #2
 5121 04f8 0C98     		ldr	r0, [sp, #48]
 5122 04fa FFF7FEFF 		bl	_ZNK3r2p5Topic8get_nameEv
 5123 04fe 0346     		mov	r3, r0
 5124 0500 2046     		mov	r0, r4
 5125 0502 1946     		mov	r1, r3
 5126 0504 1022     		movs	r2, #16
 5127 0506 FFF7FEFF 		bl	strncpy
 5128              		.loc 20 474 0
 5129 050a 049C     		ldr	r4, [sp, #16]
 5130 050c 0C98     		ldr	r0, [sp, #48]
 5131 050e FFF7FEFF 		bl	_ZNK3r2p5Topic20get_max_queue_lengthEv
 5132 0512 0346     		mov	r3, r0
 5133 0514 9BB2     		uxth	r3, r3
 5134 0516 A382     		strh	r3, [r4, #20]	@ unaligned
 5135              		.loc 20 475 0
 5136 0518 FFF7FEFF 		bl	_ZN3r2p7SysLock7releaseEv
 5137              		.loc 20 476 0
 5138 051c 049B     		ldr	r3, [sp, #16]
ARM GAS  /tmp/cc5qDRak.s 			page 93


 5139 051e 1846     		mov	r0, r3
 5140 0520 FFF7FEFF 		bl	_ZN3r2p7Message7acquireEv
 5141              		.loc 20 477 0
 5142 0524 019B     		ldr	r3, [sp, #4]
 5143 0526 03F12804 		add	r4, r3, #40
 5144 052a 049B     		ldr	r3, [sp, #16]
 5145 052c 1D46     		mov	r5, r3
 5146 052e 019B     		ldr	r3, [sp, #4]
 5147 0530 2833     		adds	r3, r3, #40
 5148 0532 0BAA     		add	r2, sp, #44
 5149 0534 1046     		mov	r0, r2
 5150 0536 1946     		mov	r1, r3
 5151 0538 FFF7FEFF 		bl	_ZNK3r2p5Topic16compute_deadlineEv
 5152 053c 0BAB     		add	r3, sp, #44
 5153 053e 2046     		mov	r0, r4
 5154 0540 2946     		mov	r1, r5
 5155 0542 1A46     		mov	r2, r3
 5156 0544 FFF7FEFF 		bl	_ZN3r2p5Topic12forward_copyERKNS_7MessageERKNS_4TimeE
 5157 0548 0346     		mov	r3, r0
 5158 054a 002B     		cmp	r3, #0
 5159 054c 05D0     		beq	.L307
 5160              		.loc 20 478 0
 5161 054e 019B     		ldr	r3, [sp, #4]
 5162 0550 03F51473 		add	r3, r3, #592
 5163 0554 1846     		mov	r0, r3
 5164 0556 FFF7FEFF 		bl	_ZN3r2p10StaticListINS_15LocalSubscriberEE13ConstIteratorppEv
 5165              	.L307:
 5166              		.loc 20 480 0
 5167 055a 019B     		ldr	r3, [sp, #4]
 5168 055c 03F19402 		add	r2, r3, #148
 5169 0560 049B     		ldr	r3, [sp, #16]
 5170 0562 1046     		mov	r0, r2
 5171 0564 1946     		mov	r1, r3
 5172 0566 FFF7FEFF 		bl	_ZN3r2p16SubscriberExtBufINS_7MgmtMsgEE7releaseERS1_
 5173              	.L306:
 5174              	.LBE101:
 5175              	.LBE100:
 5176              	.LBE99:
 5177 056a 48E0     		b	.L299
 5178              	.L305:
 5179              		.loc 20 484 0
 5180 056c 019B     		ldr	r3, [sp, #4]
 5181 056e 03F51273 		add	r3, r3, #584
 5182 0572 1846     		mov	r0, r3
 5183 0574 FFF7FEFF 		bl	_ZN3r2p10StaticListINS_4NodeEE13ConstIteratorppEv
 5184              		.loc 20 485 0
 5185 0578 019B     		ldr	r3, [sp, #4]
 5186 057a 03F51273 		add	r3, r3, #584
 5187 057e 1846     		mov	r0, r3
 5188 0580 FFF7FEFF 		bl	_ZNK3r2p10StaticListINS_4NodeEE13ConstIteratordeEv
 5189 0584 0246     		mov	r2, r0
 5190 0586 019B     		ldr	r3, [sp, #4]
 5191 0588 6833     		adds	r3, r3, #104
 5192 058a 9A42     		cmp	r2, r3
 5193 058c 0CBF     		ite	eq
 5194 058e 0123     		moveq	r3, #1
 5195 0590 0023     		movne	r3, #0
ARM GAS  /tmp/cc5qDRak.s 			page 94


 5196 0592 DBB2     		uxtb	r3, r3
 5197 0594 002B     		cmp	r3, #0
 5198 0596 05D0     		beq	.L308
 5199              		.loc 20 485 0 is_stmt 0 discriminator 1
 5200 0598 019B     		ldr	r3, [sp, #4]
 5201 059a 03F51273 		add	r3, r3, #584
 5202 059e 1846     		mov	r0, r3
 5203 05a0 FFF7FEFF 		bl	_ZN3r2p10StaticListINS_4NodeEE13ConstIteratorppEv
 5204              	.L308:
 5205              		.loc 20 486 0 is_stmt 1
 5206 05a4 019B     		ldr	r3, [sp, #4]
 5207 05a6 03F51273 		add	r3, r3, #584
 5208 05aa 1846     		mov	r0, r3
 5209 05ac FFF7FEFF 		bl	_ZNK3r2p10StaticListINS_4NodeEE13ConstIterator8is_validEv
 5210 05b0 0346     		mov	r3, r0
 5211 05b2 002B     		cmp	r3, #0
 5212 05b4 23D0     		beq	.L299
 5213              		.loc 20 487 0
 5214 05b6 019B     		ldr	r3, [sp, #4]
 5215 05b8 03F51273 		add	r3, r3, #584
 5216 05bc 1846     		mov	r0, r3
 5217 05be FFF7FEFF 		bl	_ZNK3r2p10StaticListINS_4NodeEE13ConstIteratorptEv
 5218 05c2 0346     		mov	r3, r0
 5219 05c4 1846     		mov	r0, r3
 5220 05c6 FFF7FEFF 		bl	_ZNK3r2p4Node14get_publishersEv
 5221 05ca 0246     		mov	r2, r0
 5222 05cc 019B     		ldr	r3, [sp, #4]
 5223 05ce 03F51373 		add	r3, r3, #588
 5224 05d2 1046     		mov	r0, r2
 5225 05d4 1946     		mov	r1, r3
 5226 05d6 FFF7FEFF 		bl	_ZNK3r2p10StaticListINS_14LocalPublisherEE7restartERNS2_13ConstIteratorE
 5227              		.loc 20 488 0
 5228 05da 019B     		ldr	r3, [sp, #4]
 5229 05dc 03F51273 		add	r3, r3, #584
 5230 05e0 1846     		mov	r0, r3
 5231 05e2 FFF7FEFF 		bl	_ZNK3r2p10StaticListINS_4NodeEE13ConstIteratorptEv
 5232 05e6 0346     		mov	r3, r0
 5233 05e8 1846     		mov	r0, r3
 5234 05ea FFF7FEFF 		bl	_ZNK3r2p4Node15get_subscribersEv
 5235 05ee 0246     		mov	r2, r0
 5236 05f0 019B     		ldr	r3, [sp, #4]
 5237 05f2 03F51473 		add	r3, r3, #592
 5238 05f6 1046     		mov	r0, r2
 5239 05f8 1946     		mov	r1, r3
 5240 05fa FFF7FEFF 		bl	_ZNK3r2p10StaticListINS_15LocalSubscriberEE7restartERNS2_13ConstIteratorE
 5241              	.L299:
 5242              	.L295:
 5243              	.LBE98:
 5244              	.LBE97:
 5245              	.LBE93:
 5246              	.LBE92:
 5247              	.LBE91:
 5248              	.LBE90:
 5249              	.LBE89:
 5250              	.LBE88:
 5251              	.LBE86:
 5252              	.LBE85:
ARM GAS  /tmp/cc5qDRak.s 			page 95


 5253              		.loc 20 493 0 discriminator 5
 5254 05fe 65E5     		b	.L280
 5255              	.LBE84:
 5256              	.LBE83:
 5257              		.cfi_endproc
 5258              	.LFE614:
 5259              		.size	_ZN3r2p10Middleware14do_mgmt_threadEv, .-_ZN3r2p10Middleware14do_mgmt_threadEv
 5260              		.section	.text._ZN3r2p10Middleware16do_cmd_advertiseERKNS_7MgmtMsgE,"ax",%progbits
 5261              		.align	2
 5262              		.p2align 4,,15
 5263              		.global	_ZN3r2p10Middleware16do_cmd_advertiseERKNS_7MgmtMsgE
 5264              		.thumb
 5265              		.thumb_func
 5266              		.type	_ZN3r2p10Middleware16do_cmd_advertiseERKNS_7MgmtMsgE, %function
 5267              	_ZN3r2p10Middleware16do_cmd_advertiseERKNS_7MgmtMsgE:
 5268              	.LFB615:
 5269              		.loc 20 497 0
 5270              		.cfi_startproc
 5271              		@ args = 0, pretend = 0, frame = 24
 5272              		@ frame_needed = 0, uses_anonymous_args = 0
 5273 0000 10B5     		push	{r4, lr}
 5274              		.cfi_def_cfa_offset 8
 5275              		.cfi_offset 4, -8
 5276              		.cfi_offset 14, -4
 5277 0002 86B0     		sub	sp, sp, #24
 5278              		.cfi_def_cfa_offset 32
 5279 0004 0190     		str	r0, [sp, #4]
 5280 0006 0091     		str	r1, [sp]
 5281              	.LBB102:
 5282              		.loc 20 499 0
 5283 0008 009B     		ldr	r3, [sp]
 5284 000a 0233     		adds	r3, r3, #2
 5285 000c 0198     		ldr	r0, [sp, #4]
 5286 000e 1946     		mov	r1, r3
 5287 0010 FFF7FEFF 		bl	_ZN3r2p10Middleware10find_topicEPKc
 5288 0014 0590     		str	r0, [sp, #20]
 5289              		.loc 20 504 0
 5290 0016 019B     		ldr	r3, [sp, #4]
 5291 0018 0C33     		adds	r3, r3, #12
 5292 001a 1846     		mov	r0, r3
 5293 001c FFF7FEFF 		bl	_ZNK3r2p10StaticListINS_9TransportEE5countEv
 5294 0020 0346     		mov	r3, r0
 5295 0022 012B     		cmp	r3, #1
 5296 0024 14BF     		ite	ne
 5297 0026 0123     		movne	r3, #1
 5298 0028 0023     		moveq	r3, #0
 5299 002a DBB2     		uxtb	r3, r3
 5300 002c 002B     		cmp	r3, #0
 5301 002e 02D0     		beq	.L312
 5302              		.loc 20 504 0 is_stmt 0 discriminator 1
 5303 0030 3948     		ldr	r0, .L324
 5304 0032 FFF7FEFF 		bl	chDbgPanic
 5305              	.L312:
 5306              	.LBB103:
 5307              		.loc 20 505 0 is_stmt 1
 5308 0036 059B     		ldr	r3, [sp, #20]
 5309 0038 002B     		cmp	r3, #0
ARM GAS  /tmp/cc5qDRak.s 			page 96


 5310 003a 07D0     		beq	.L313
 5311              		.loc 20 505 0 is_stmt 0 discriminator 1
 5312 003c 0598     		ldr	r0, [sp, #20]
 5313 003e FFF7FEFF 		bl	_ZNK3r2p5Topic21has_local_subscribersEv
 5314 0042 0346     		mov	r3, r0
 5315 0044 002B     		cmp	r3, #0
 5316 0046 01D0     		beq	.L313
 5317              		.loc 20 505 0 discriminator 3
 5318 0048 0123     		movs	r3, #1
 5319 004a 00E0     		b	.L314
 5320              	.L313:
 5321              		.loc 20 505 0 discriminator 4
 5322 004c 0023     		movs	r3, #0
 5323              	.L314:
 5324              		.loc 20 505 0 discriminator 6
 5325 004e 002B     		cmp	r3, #0
 5326 0050 5FD0     		beq	.L311
 5327              	.LBB104:
 5328              	.LBB105:
 5329              		.loc 20 507 0 is_stmt 1
 5330 0052 03AB     		add	r3, sp, #12
 5331 0054 1846     		mov	r0, r3
 5332 0056 FFF7FEFF 		bl	_ZN3r2p7SysLock5ScopeC1Ev
 5333              		.loc 20 508 0
 5334 005a 019B     		ldr	r3, [sp, #4]
 5335 005c 8433     		adds	r3, r3, #132
 5336 005e 1846     		mov	r0, r3
 5337 0060 FFF7FEFF 		bl	_ZNK3r2p13BasePublisher9get_topicEv
 5338 0064 0346     		mov	r3, r0
 5339 0066 002B     		cmp	r3, #0
 5340 0068 0CBF     		ite	eq
 5341 006a 0123     		moveq	r3, #1
 5342 006c 0023     		movne	r3, #0
 5343 006e DBB2     		uxtb	r3, r3
 5344 0070 002B     		cmp	r3, #0
 5345 0072 01D0     		beq	.L316
 5346 0074 0024     		movs	r4, #0
 5347 0076 00E0     		b	.L317
 5348              	.L316:
 5349 0078 0124     		movs	r4, #1
 5350              	.L317:
 5351 007a 03AB     		add	r3, sp, #12
 5352 007c 1846     		mov	r0, r3
 5353 007e FFF7FEFF 		bl	_ZN3r2p7SysLock5ScopeD1Ev
 5354 0082 012C     		cmp	r4, #1
 5355 0084 00D0     		beq	.L323
 5356              	.LBE105:
 5357 0086 44E0     		b	.L311
 5358              	.L323:
 5359              	.LBB106:
 5360 0088 00BF     		nop
 5361              	.LBE106:
 5362              		.loc 20 511 0
 5363 008a 019B     		ldr	r3, [sp, #4]
 5364 008c 03F18402 		add	r2, r3, #132
 5365 0090 04AB     		add	r3, sp, #16
 5366 0092 1046     		mov	r0, r2
ARM GAS  /tmp/cc5qDRak.s 			page 97


 5367 0094 1946     		mov	r1, r3
 5368 0096 FFF7FEFF 		bl	_ZN3r2p9PublisherINS_7MgmtMsgEE5allocERPS1_
 5369 009a 0346     		mov	r3, r0
 5370 009c 002B     		cmp	r3, #0
 5371 009e 00D1     		bne	.L320
 5372              	.LBE104:
 5373 00a0 37E0     		b	.L311
 5374              	.L320:
 5375              	.LBB107:
 5376              		.loc 20 512 0
 5377 00a2 049B     		ldr	r3, [sp, #16]
 5378 00a4 1846     		mov	r0, r3
 5379 00a6 FFF7FEFF 		bl	_ZN3r2p7Message13reset_payloadINS_7MgmtMsgEEEvRT_
 5380              		.loc 20 513 0
 5381 00aa 049B     		ldr	r3, [sp, #16]
 5382 00ac 2222     		movs	r2, #34
 5383 00ae 83F82120 		strb	r2, [r3, #33]
 5384              		.loc 20 515 0
 5385 00b2 049B     		ldr	r3, [sp, #16]
 5386 00b4 9C1C     		adds	r4, r3, #2
 5387 00b6 0598     		ldr	r0, [sp, #20]
 5388 00b8 FFF7FEFF 		bl	_ZNK3r2p5Topic8get_nameEv
 5389 00bc 0346     		mov	r3, r0
 5390 00be 2046     		mov	r0, r4
 5391 00c0 1946     		mov	r1, r3
 5392 00c2 1022     		movs	r2, #16
 5393 00c4 FFF7FEFF 		bl	strncpy
 5394              		.loc 20 517 0
 5395 00c8 049C     		ldr	r4, [sp, #16]
 5396 00ca 0598     		ldr	r0, [sp, #20]
 5397 00cc FFF7FEFF 		bl	_ZNK3r2p5Topic16get_payload_sizeEv
 5398 00d0 0346     		mov	r3, r0
 5399 00d2 9BB2     		uxth	r3, r3
 5400 00d4 6382     		strh	r3, [r4, #18]	@ unaligned
 5401              		.loc 20 518 0
 5402 00d6 FFF7FEFF 		bl	_ZN3r2p7SysLock7acquireEv
 5403              		.loc 20 520 0
 5404 00da 049C     		ldr	r4, [sp, #16]
 5405 00dc 0598     		ldr	r0, [sp, #20]
 5406 00de FFF7FEFF 		bl	_ZNK3r2p5Topic20get_max_queue_lengthEv
 5407 00e2 0346     		mov	r3, r0
 5408 00e4 9BB2     		uxth	r3, r3
 5409 00e6 A382     		strh	r3, [r4, #20]	@ unaligned
 5410              		.loc 20 521 0
 5411 00e8 FFF7FEFF 		bl	_ZN3r2p7SysLock7releaseEv
 5412              		.loc 20 522 0
 5413 00ec 049B     		ldr	r3, [sp, #16]
 5414 00ee 1846     		mov	r0, r3
 5415 00f0 FFF7FEFF 		bl	_ZN3r2p7Message7acquireEv
 5416              		.loc 20 526 0
 5417 00f4 019B     		ldr	r3, [sp, #4]
 5418 00f6 8433     		adds	r3, r3, #132
 5419 00f8 049A     		ldr	r2, [sp, #16]
 5420 00fa 1846     		mov	r0, r3
 5421 00fc 1146     		mov	r1, r2
 5422 00fe FFF7FEFF 		bl	_ZN3r2p13BasePublisher16publish_remotelyERNS_7MessageE
 5423              		.loc 20 528 0
ARM GAS  /tmp/cc5qDRak.s 			page 98


 5424 0102 019B     		ldr	r3, [sp, #4]
 5425 0104 03F19402 		add	r2, r3, #148
 5426 0108 049B     		ldr	r3, [sp, #16]
 5427 010a 1046     		mov	r0, r2
 5428 010c 1946     		mov	r1, r3
 5429 010e FFF7FEFF 		bl	_ZN3r2p16SubscriberExtBufINS_7MgmtMsgEE7releaseERS1_
 5430              	.L311:
 5431              	.LBE107:
 5432              	.LBE103:
 5433              	.LBE102:
 5434              		.loc 20 552 0
 5435 0112 06B0     		add	sp, sp, #24
 5436              		.cfi_def_cfa_offset 8
 5437              		@ sp needed
 5438 0114 10BD     		pop	{r4, pc}
 5439              	.L325:
 5440 0116 00BF     		.align	2
 5441              	.L324:
 5442 0118 00000000 		.word	.LC0
 5443              		.cfi_endproc
 5444              	.LFE615:
 5445              		.size	_ZN3r2p10Middleware16do_cmd_advertiseERKNS_7MgmtMsgE, .-_ZN3r2p10Middleware16do_cmd_advertis
 5446 011c AFF30080 		.section	.text._ZN3r2p10Middleware24do_cmd_subscribe_requestERKNS_7MgmtMsgE,"ax",%progbits
 5447              		.align	2
 5448              		.p2align 4,,15
 5449              		.global	_ZN3r2p10Middleware24do_cmd_subscribe_requestERKNS_7MgmtMsgE
 5450              		.thumb
 5451              		.thumb_func
 5452              		.type	_ZN3r2p10Middleware24do_cmd_subscribe_requestERKNS_7MgmtMsgE, %function
 5453              	_ZN3r2p10Middleware24do_cmd_subscribe_requestERKNS_7MgmtMsgE:
 5454              	.LFB616:
 5455              		.loc 20 555 0
 5456              		.cfi_startproc
 5457              		@ args = 0, pretend = 0, frame = 24
 5458              		@ frame_needed = 0, uses_anonymous_args = 0
 5459 0000 10B5     		push	{r4, lr}
 5460              		.cfi_def_cfa_offset 8
 5461              		.cfi_offset 4, -8
 5462              		.cfi_offset 14, -4
 5463 0002 86B0     		sub	sp, sp, #24
 5464              		.cfi_def_cfa_offset 32
 5465 0004 0190     		str	r0, [sp, #4]
 5466 0006 0091     		str	r1, [sp]
 5467              	.LBB108:
 5468              		.loc 20 557 0
 5469 0008 009B     		ldr	r3, [sp]
 5470 000a 0233     		adds	r3, r3, #2
 5471 000c 0198     		ldr	r0, [sp, #4]
 5472 000e 1946     		mov	r1, r3
 5473 0010 FFF7FEFF 		bl	_ZN3r2p10Middleware10find_topicEPKc
 5474 0014 0590     		str	r0, [sp, #20]
 5475              		.loc 20 562 0
 5476 0016 019B     		ldr	r3, [sp, #4]
 5477 0018 0C33     		adds	r3, r3, #12
 5478 001a 1846     		mov	r0, r3
 5479 001c FFF7FEFF 		bl	_ZNK3r2p10StaticListINS_9TransportEE5countEv
 5480 0020 0346     		mov	r3, r0
ARM GAS  /tmp/cc5qDRak.s 			page 99


 5481 0022 012B     		cmp	r3, #1
 5482 0024 14BF     		ite	ne
 5483 0026 0123     		movne	r3, #1
 5484 0028 0023     		moveq	r3, #0
 5485 002a DBB2     		uxtb	r3, r3
 5486 002c 002B     		cmp	r3, #0
 5487 002e 02D0     		beq	.L327
 5488              		.loc 20 562 0 is_stmt 0 discriminator 1
 5489 0030 4448     		ldr	r0, .L339
 5490 0032 FFF7FEFF 		bl	chDbgPanic
 5491              	.L327:
 5492              	.LBB109:
 5493              		.loc 20 563 0 is_stmt 1
 5494 0036 059B     		ldr	r3, [sp, #20]
 5495 0038 002B     		cmp	r3, #0
 5496 003a 07D0     		beq	.L328
 5497              		.loc 20 563 0 is_stmt 0 discriminator 1
 5498 003c 0598     		ldr	r0, [sp, #20]
 5499 003e FFF7FEFF 		bl	_ZNK3r2p5Topic20has_local_publishersEv
 5500 0042 0346     		mov	r3, r0
 5501 0044 002B     		cmp	r3, #0
 5502 0046 01D0     		beq	.L328
 5503              		.loc 20 563 0 discriminator 3
 5504 0048 0123     		movs	r3, #1
 5505 004a 00E0     		b	.L329
 5506              	.L328:
 5507              		.loc 20 563 0 discriminator 4
 5508 004c 0023     		movs	r3, #0
 5509              	.L329:
 5510              		.loc 20 563 0 discriminator 6
 5511 004e 002B     		cmp	r3, #0
 5512 0050 75D0     		beq	.L326
 5513              	.LBB110:
 5514              	.LBB111:
 5515              		.loc 20 565 0 is_stmt 1
 5516 0052 02AB     		add	r3, sp, #8
 5517 0054 1846     		mov	r0, r3
 5518 0056 FFF7FEFF 		bl	_ZN3r2p7SysLock5ScopeC1Ev
 5519              		.loc 20 566 0
 5520 005a 019B     		ldr	r3, [sp, #4]
 5521 005c 8433     		adds	r3, r3, #132
 5522 005e 1846     		mov	r0, r3
 5523 0060 FFF7FEFF 		bl	_ZNK3r2p13BasePublisher9get_topicEv
 5524 0064 0346     		mov	r3, r0
 5525 0066 002B     		cmp	r3, #0
 5526 0068 0CBF     		ite	eq
 5527 006a 0123     		moveq	r3, #1
 5528 006c 0023     		movne	r3, #0
 5529 006e DBB2     		uxtb	r3, r3
 5530 0070 002B     		cmp	r3, #0
 5531 0072 01D0     		beq	.L331
 5532 0074 0024     		movs	r4, #0
 5533 0076 00E0     		b	.L332
 5534              	.L331:
 5535 0078 0124     		movs	r4, #1
 5536              	.L332:
 5537 007a 02AB     		add	r3, sp, #8
ARM GAS  /tmp/cc5qDRak.s 			page 100


 5538 007c 1846     		mov	r0, r3
 5539 007e FFF7FEFF 		bl	_ZN3r2p7SysLock5ScopeD1Ev
 5540 0082 012C     		cmp	r4, #1
 5541 0084 00D0     		beq	.L338
 5542              	.LBE111:
 5543 0086 5AE0     		b	.L326
 5544              	.L338:
 5545              	.LBB112:
 5546 0088 00BF     		nop
 5547              	.LBE112:
 5548              		.loc 20 569 0
 5549 008a 019B     		ldr	r3, [sp, #4]
 5550 008c 03F18402 		add	r2, r3, #132
 5551 0090 03AB     		add	r3, sp, #12
 5552 0092 1046     		mov	r0, r2
 5553 0094 1946     		mov	r1, r3
 5554 0096 FFF7FEFF 		bl	_ZN3r2p9PublisherINS_7MgmtMsgEE5allocERPS1_
 5555 009a 0346     		mov	r3, r0
 5556 009c 002B     		cmp	r3, #0
 5557 009e 00D1     		bne	.L335
 5558              	.LBE110:
 5559 00a0 4DE0     		b	.L326
 5560              	.L335:
 5561              	.LBB113:
 5562              		.loc 20 570 0
 5563 00a2 039B     		ldr	r3, [sp, #12]
 5564 00a4 1846     		mov	r0, r3
 5565 00a6 FFF7FEFF 		bl	_ZN3r2p7Message13reset_payloadINS_7MgmtMsgEEEvRT_
 5566              		.loc 20 571 0
 5567 00aa 039B     		ldr	r3, [sp, #12]
 5568 00ac 2322     		movs	r2, #35
 5569 00ae 83F82120 		strb	r2, [r3, #33]
 5570              		.loc 20 573 0
 5571 00b2 039B     		ldr	r3, [sp, #12]
 5572 00b4 9C1C     		adds	r4, r3, #2
 5573 00b6 0598     		ldr	r0, [sp, #20]
 5574 00b8 FFF7FEFF 		bl	_ZNK3r2p5Topic8get_nameEv
 5575 00bc 0346     		mov	r3, r0
 5576 00be 2046     		mov	r0, r4
 5577 00c0 1946     		mov	r1, r3
 5578 00c2 1022     		movs	r2, #16
 5579 00c4 FFF7FEFF 		bl	strncpy
 5580              		.loc 20 575 0
 5581 00c8 039C     		ldr	r4, [sp, #12]
 5582 00ca 0598     		ldr	r0, [sp, #20]
 5583 00cc FFF7FEFF 		bl	_ZNK3r2p5Topic16get_payload_sizeEv
 5584 00d0 0346     		mov	r3, r0
 5585 00d2 9BB2     		uxth	r3, r3
 5586 00d4 6382     		strh	r3, [r4, #18]	@ unaligned
 5587              		.loc 20 576 0
 5588 00d6 FFF7FEFF 		bl	_ZN3r2p7SysLock7acquireEv
 5589              		.loc 20 578 0
 5590 00da 039C     		ldr	r4, [sp, #12]
 5591 00dc 0598     		ldr	r0, [sp, #20]
 5592 00de FFF7FEFF 		bl	_ZNK3r2p5Topic20get_max_queue_lengthEv
 5593 00e2 0346     		mov	r3, r0
 5594 00e4 9BB2     		uxth	r3, r3
ARM GAS  /tmp/cc5qDRak.s 			page 101


 5595 00e6 A382     		strh	r3, [r4, #20]	@ unaligned
 5596              		.loc 20 579 0
 5597 00e8 FFF7FEFF 		bl	_ZN3r2p7SysLock7releaseEv
 5598              		.loc 20 580 0
 5599 00ec 039B     		ldr	r3, [sp, #12]
 5600 00ee 1846     		mov	r0, r3
 5601 00f0 FFF7FEFF 		bl	_ZN3r2p7Message7acquireEv
 5602              		.loc 20 587 0
 5603 00f4 019B     		ldr	r3, [sp, #4]
 5604 00f6 0C33     		adds	r3, r3, #12
 5605 00f8 04AA     		add	r2, sp, #16
 5606 00fa 1046     		mov	r0, r2
 5607 00fc 1946     		mov	r1, r3
 5608 00fe FFF7FEFF 		bl	_ZN3r2p10StaticListINS_9TransportEE5beginEv
 5609 0102 04AB     		add	r3, sp, #16
 5610 0104 1846     		mov	r0, r3
 5611 0106 FFF7FEFF 		bl	_ZNK3r2p10StaticListINS_9TransportEE8IteratorptEv
 5612 010a 0146     		mov	r1, r0
 5613 010c 009B     		ldr	r3, [sp]
 5614 010e 9B8A     		ldrh	r3, [r3, #20]	@ unaligned
 5615 0110 9BB2     		uxth	r3, r3
 5616 0112 1A46     		mov	r2, r3
 5617 0114 039B     		ldr	r3, [sp, #12]
 5618 0116 1633     		adds	r3, r3, #22
 5619 0118 0846     		mov	r0, r1
 5620 011a 0599     		ldr	r1, [sp, #20]
 5621 011c FFF7FEFF 		bl	_ZN3r2p9Transport12subscribe_cbERNS_5TopicEjPh
 5622              		.loc 20 588 0
 5623 0120 019B     		ldr	r3, [sp, #4]
 5624 0122 8433     		adds	r3, r3, #132
 5625 0124 039A     		ldr	r2, [sp, #12]
 5626 0126 1846     		mov	r0, r3
 5627 0128 1146     		mov	r1, r2
 5628 012a FFF7FEFF 		bl	_ZN3r2p13BasePublisher16publish_remotelyERNS_7MessageE
 5629              		.loc 20 590 0
 5630 012e 019B     		ldr	r3, [sp, #4]
 5631 0130 03F19402 		add	r2, r3, #148
 5632 0134 039B     		ldr	r3, [sp, #12]
 5633 0136 1046     		mov	r0, r2
 5634 0138 1946     		mov	r1, r3
 5635 013a FFF7FEFF 		bl	_ZN3r2p16SubscriberExtBufINS_7MgmtMsgEE7releaseERS1_
 5636              	.L326:
 5637              	.LBE113:
 5638              	.LBE109:
 5639              	.LBE108:
 5640              		.loc 20 632 0
 5641 013e 06B0     		add	sp, sp, #24
 5642              		.cfi_def_cfa_offset 8
 5643              		@ sp needed
 5644 0140 10BD     		pop	{r4, pc}
 5645              	.L340:
 5646 0142 00BF     		.align	2
 5647              	.L339:
 5648 0144 00000000 		.word	.LC0
 5649              		.cfi_endproc
 5650              	.LFE616:
 5651              		.size	_ZN3r2p10Middleware24do_cmd_subscribe_requestERKNS_7MgmtMsgE, .-_ZN3r2p10Middleware24do_cmd_
ARM GAS  /tmp/cc5qDRak.s 			page 102


 5652 0148 AFF30080 		.section	.text._ZN3r2p10Middleware25do_cmd_subscribe_responseERKNS_7MgmtMsgE,"ax",%progbits
 5652      AFF30080 
 5653              		.align	2
 5654              		.p2align 4,,15
 5655              		.global	_ZN3r2p10Middleware25do_cmd_subscribe_responseERKNS_7MgmtMsgE
 5656              		.thumb
 5657              		.thumb_func
 5658              		.type	_ZN3r2p10Middleware25do_cmd_subscribe_responseERKNS_7MgmtMsgE, %function
 5659              	_ZN3r2p10Middleware25do_cmd_subscribe_responseERKNS_7MgmtMsgE:
 5660              	.LFB617:
 5661              		.loc 20 635 0
 5662              		.cfi_startproc
 5663              		@ args = 0, pretend = 0, frame = 16
 5664              		@ frame_needed = 0, uses_anonymous_args = 0
 5665 0000 00B5     		push	{lr}
 5666              		.cfi_def_cfa_offset 4
 5667              		.cfi_offset 14, -4
 5668 0002 85B0     		sub	sp, sp, #20
 5669              		.cfi_def_cfa_offset 24
 5670 0004 0190     		str	r0, [sp, #4]
 5671 0006 0091     		str	r1, [sp]
 5672              	.LBB114:
 5673              		.loc 20 666 0
 5674 0008 019B     		ldr	r3, [sp, #4]
 5675 000a 0C33     		adds	r3, r3, #12
 5676 000c 1846     		mov	r0, r3
 5677 000e FFF7FEFF 		bl	_ZNK3r2p10StaticListINS_9TransportEE5countEv
 5678 0012 0346     		mov	r3, r0
 5679 0014 012B     		cmp	r3, #1
 5680 0016 14BF     		ite	ne
 5681 0018 0123     		movne	r3, #1
 5682 001a 0023     		moveq	r3, #0
 5683 001c DBB2     		uxtb	r3, r3
 5684 001e 002B     		cmp	r3, #0
 5685 0020 02D0     		beq	.L342
 5686              		.loc 20 666 0 is_stmt 0 discriminator 1
 5687 0022 1748     		ldr	r0, .L346
 5688 0024 FFF7FEFF 		bl	chDbgPanic
 5689              	.L342:
 5690              		.loc 20 668 0 is_stmt 1
 5691 0028 009B     		ldr	r3, [sp]
 5692 002a 0233     		adds	r3, r3, #2
 5693 002c 0198     		ldr	r0, [sp, #4]
 5694 002e 1946     		mov	r1, r3
 5695 0030 FFF7FEFF 		bl	_ZN3r2p10Middleware10find_topicEPKc
 5696 0034 0390     		str	r0, [sp, #12]
 5697              		.loc 20 669 0
 5698 0036 039B     		ldr	r3, [sp, #12]
 5699 0038 002B     		cmp	r3, #0
 5700 003a 07D0     		beq	.L343
 5701              		.loc 20 669 0 is_stmt 0 discriminator 1
 5702 003c 0398     		ldr	r0, [sp, #12]
 5703 003e FFF7FEFF 		bl	_ZNK3r2p5Topic21has_local_subscribersEv
 5704 0042 0346     		mov	r3, r0
 5705 0044 002B     		cmp	r3, #0
 5706 0046 01D0     		beq	.L343
 5707              		.loc 20 669 0 discriminator 3
ARM GAS  /tmp/cc5qDRak.s 			page 103


 5708 0048 0123     		movs	r3, #1
 5709 004a 00E0     		b	.L344
 5710              	.L343:
 5711              		.loc 20 669 0 discriminator 4
 5712 004c 0023     		movs	r3, #0
 5713              	.L344:
 5714              		.loc 20 669 0 discriminator 6
 5715 004e 002B     		cmp	r3, #0
 5716 0050 12D0     		beq	.L341
 5717              		.loc 20 670 0 is_stmt 1
 5718 0052 019B     		ldr	r3, [sp, #4]
 5719 0054 0C33     		adds	r3, r3, #12
 5720 0056 02AA     		add	r2, sp, #8
 5721 0058 1046     		mov	r0, r2
 5722 005a 1946     		mov	r1, r3
 5723 005c FFF7FEFF 		bl	_ZN3r2p10StaticListINS_9TransportEE5beginEv
 5724 0060 02AB     		add	r3, sp, #8
 5725 0062 1846     		mov	r0, r3
 5726 0064 FFF7FEFF 		bl	_ZNK3r2p10StaticListINS_9TransportEE8IteratorptEv
 5727 0068 0246     		mov	r2, r0
 5728 006a 009B     		ldr	r3, [sp]
 5729 006c 1633     		adds	r3, r3, #22
 5730 006e 1046     		mov	r0, r2
 5731 0070 0399     		ldr	r1, [sp, #12]
 5732 0072 1A46     		mov	r2, r3
 5733 0074 FFF7FEFF 		bl	_ZN3r2p9Transport12advertise_cbERNS_5TopicEPKh
 5734              	.L341:
 5735              	.LBE114:
 5736              		.loc 20 673 0
 5737 0078 05B0     		add	sp, sp, #20
 5738              		.cfi_def_cfa_offset 4
 5739              		@ sp needed
 5740 007a 5DF804FB 		ldr	pc, [sp], #4
 5741              	.L347:
 5742 007e 00BF     		.align	2
 5743              	.L346:
 5744 0080 00000000 		.word	.LC0
 5745              		.cfi_endproc
 5746              	.LFE617:
 5747              		.size	_ZN3r2p10Middleware25do_cmd_subscribe_responseERKNS_7MgmtMsgE, .-_ZN3r2p10Middleware25do_cmd
 5748 0084 AFF30080 		.section	.text._ZN3r2p7MgmtMsgC2Ev,"axG",%progbits,_ZN3r2p7MgmtMsgC5Ev,comdat
 5748      AFF30080 
 5748      AFF30080 
 5749              		.align	2
 5750              		.p2align 4,,15
 5751              		.weak	_ZN3r2p7MgmtMsgC2Ev
 5752              		.thumb
 5753              		.thumb_func
 5754              		.type	_ZN3r2p7MgmtMsgC2Ev, %function
 5755              	_ZN3r2p7MgmtMsgC2Ev:
 5756              	.LFB644:
 5757              		.file 21 "/home/ergae/r2p-sdk/core/Middleware/include/r2p/MgmtMsg.hpp"
 5758              		.loc 21 12 0
 5759              		.cfi_startproc
 5760              		@ args = 0, pretend = 0, frame = 8
 5761              		@ frame_needed = 0, uses_anonymous_args = 0
 5762 0000 00B5     		push	{lr}
ARM GAS  /tmp/cc5qDRak.s 			page 104


 5763              		.cfi_def_cfa_offset 4
 5764              		.cfi_offset 14, -4
 5765 0002 83B0     		sub	sp, sp, #12
 5766              		.cfi_def_cfa_offset 16
 5767 0004 0190     		str	r0, [sp, #4]
 5768              	.LBB115:
 5769              		.loc 21 12 0
 5770 0006 019B     		ldr	r3, [sp, #4]
 5771 0008 1846     		mov	r0, r3
 5772 000a FFF7FEFF 		bl	_ZN3r2p7MessageC2Ev
 5773              	.LBE115:
 5774 000e 019B     		ldr	r3, [sp, #4]
 5775 0010 1846     		mov	r0, r3
 5776 0012 03B0     		add	sp, sp, #12
 5777              		.cfi_def_cfa_offset 4
 5778              		@ sp needed
 5779 0014 5DF804FB 		ldr	pc, [sp], #4
 5780              		.cfi_endproc
 5781              	.LFE644:
 5782              		.size	_ZN3r2p7MgmtMsgC2Ev, .-_ZN3r2p7MgmtMsgC2Ev
 5783              		.weak	_ZN3r2p7MgmtMsgC1Ev
 5784              		.thumb_set _ZN3r2p7MgmtMsgC1Ev,_ZN3r2p7MgmtMsgC2Ev
 5785 0018 AFF30080 		.section	.rodata
 5785      AFF30080 
 5786 0019 000000   		.align	2
 5787              	.LC2:
 5788 001c 52325000 		.ascii	"R2P\000"
 5789              		.section	.text._ZN3r2p10MiddlewareC2EPKcS2_PNS0_10PubSubStepEj,"ax",%progbits
 5790              		.align	2
 5791              		.p2align 4,,15
 5792              		.global	_ZN3r2p10MiddlewareC2EPKcS2_PNS0_10PubSubStepEj
 5793              		.thumb
 5794              		.thumb_func
 5795              		.type	_ZN3r2p10MiddlewareC2EPKcS2_PNS0_10PubSubStepEj, %function
 5796              	_ZN3r2p10MiddlewareC2EPKcS2_PNS0_10PubSubStepEj:
 5797              	.LFB646:
 5798              		.loc 20 708 0
 5799              		.cfi_startproc
 5800              		@ args = 4, pretend = 0, frame = 16
 5801              		@ frame_needed = 0, uses_anonymous_args = 0
 5802 0000 30B5     		push	{r4, r5, lr}
 5803              		.cfi_def_cfa_offset 12
 5804              		.cfi_offset 4, -12
 5805              		.cfi_offset 5, -8
 5806              		.cfi_offset 14, -4
 5807 0002 85B0     		sub	sp, sp, #20
 5808              		.cfi_def_cfa_offset 32
 5809 0004 0390     		str	r0, [sp, #12]
