ARM GAS  /tmp/ccxbZr1V.s 			page 1


   1              		.syntax unified
   2              		.cpu cortex-m4
   3              		.eabi_attribute 27, 3
   4              		.eabi_attribute 28, 1
   5              		.fpu fpv4-sp-d16
   6              		.eabi_attribute 20, 1
   7              		.eabi_attribute 21, 1
   8              		.eabi_attribute 23, 3
   9              		.eabi_attribute 24, 1
  10              		.eabi_attribute 25, 1
  11              		.eabi_attribute 26, 1
  12              		.eabi_attribute 30, 6
  13              		.eabi_attribute 34, 1
  14              		.eabi_attribute 18, 4
  15              		.thumb
  16              		.file	"mmc_spi.c"
  17              		.text
  18              	.Ltext0:
  19              		.cfi_sections	.debug_frame
  20              		.section	.rodata.mmc_vmt,"a",%progbits
  21              		.align	2
  22              		.type	mmc_vmt, %object
  23              		.size	mmc_vmt, 32
  24              	mmc_vmt:
  25 0000 00000000 		.word	mmc_lld_is_card_inserted
  26 0004 00000000 		.word	mmc_lld_is_write_protected
  27 0008 00000000 		.word	mmcConnect
  28 000c 00000000 		.word	mmcDisconnect
  29 0010 00000000 		.word	mmc_read
  30 0014 00000000 		.word	mmc_write
  31 0018 00000000 		.word	mmcSync
  32 001c 00000000 		.word	mmcGetInfo
  33              		.section	.rodata.crc7_lookup_table,"a",%progbits
  34              		.align	2
  35              		.type	crc7_lookup_table, %object
  36              		.size	crc7_lookup_table, 256
  37              	crc7_lookup_table:
  38 0000 00       		.byte	0
  39 0001 09       		.byte	9
  40 0002 12       		.byte	18
  41 0003 1B       		.byte	27
  42 0004 24       		.byte	36
  43 0005 2D       		.byte	45
  44 0006 36       		.byte	54
  45 0007 3F       		.byte	63
  46 0008 48       		.byte	72
  47 0009 41       		.byte	65
  48 000a 5A       		.byte	90
  49 000b 53       		.byte	83
  50 000c 6C       		.byte	108
  51 000d 65       		.byte	101
  52 000e 7E       		.byte	126
  53 000f 77       		.byte	119
  54 0010 19       		.byte	25
  55 0011 10       		.byte	16
  56 0012 0B       		.byte	11
  57 0013 02       		.byte	2
ARM GAS  /tmp/ccxbZr1V.s 			page 2


  58 0014 3D       		.byte	61
  59 0015 34       		.byte	52
  60 0016 2F       		.byte	47
  61 0017 26       		.byte	38
  62 0018 51       		.byte	81
  63 0019 58       		.byte	88
  64 001a 43       		.byte	67
  65 001b 4A       		.byte	74
  66 001c 75       		.byte	117
  67 001d 7C       		.byte	124
  68 001e 67       		.byte	103
  69 001f 6E       		.byte	110
  70 0020 32       		.byte	50
  71 0021 3B       		.byte	59
  72 0022 20       		.byte	32
  73 0023 29       		.byte	41
  74 0024 16       		.byte	22
  75 0025 1F       		.byte	31
  76 0026 04       		.byte	4
  77 0027 0D       		.byte	13
  78 0028 7A       		.byte	122
  79 0029 73       		.byte	115
  80 002a 68       		.byte	104
  81 002b 61       		.byte	97
  82 002c 5E       		.byte	94
  83 002d 57       		.byte	87
  84 002e 4C       		.byte	76
  85 002f 45       		.byte	69
  86 0030 2B       		.byte	43
  87 0031 22       		.byte	34
  88 0032 39       		.byte	57
  89 0033 30       		.byte	48
  90 0034 0F       		.byte	15
  91 0035 06       		.byte	6
  92 0036 1D       		.byte	29
  93 0037 14       		.byte	20
  94 0038 63       		.byte	99
  95 0039 6A       		.byte	106
  96 003a 71       		.byte	113
  97 003b 78       		.byte	120
  98 003c 47       		.byte	71
  99 003d 4E       		.byte	78
 100 003e 55       		.byte	85
 101 003f 5C       		.byte	92
 102 0040 64       		.byte	100
 103 0041 6D       		.byte	109
 104 0042 76       		.byte	118
 105 0043 7F       		.byte	127
 106 0044 40       		.byte	64
 107 0045 49       		.byte	73
 108 0046 52       		.byte	82
 109 0047 5B       		.byte	91
 110 0048 2C       		.byte	44
 111 0049 25       		.byte	37
 112 004a 3E       		.byte	62
 113 004b 37       		.byte	55
 114 004c 08       		.byte	8
ARM GAS  /tmp/ccxbZr1V.s 			page 3


 115 004d 01       		.byte	1
 116 004e 1A       		.byte	26
 117 004f 13       		.byte	19
 118 0050 7D       		.byte	125
 119 0051 74       		.byte	116
 120 0052 6F       		.byte	111
 121 0053 66       		.byte	102
 122 0054 59       		.byte	89
 123 0055 50       		.byte	80
 124 0056 4B       		.byte	75
 125 0057 42       		.byte	66
 126 0058 35       		.byte	53
 127 0059 3C       		.byte	60
 128 005a 27       		.byte	39
 129 005b 2E       		.byte	46
 130 005c 11       		.byte	17
 131 005d 18       		.byte	24
 132 005e 03       		.byte	3
 133 005f 0A       		.byte	10
 134 0060 56       		.byte	86
 135 0061 5F       		.byte	95
 136 0062 44       		.byte	68
 137 0063 4D       		.byte	77
 138 0064 72       		.byte	114
 139 0065 7B       		.byte	123
 140 0066 60       		.byte	96
 141 0067 69       		.byte	105
 142 0068 1E       		.byte	30
 143 0069 17       		.byte	23
 144 006a 0C       		.byte	12
 145 006b 05       		.byte	5
 146 006c 3A       		.byte	58
 147 006d 33       		.byte	51
 148 006e 28       		.byte	40
 149 006f 21       		.byte	33
 150 0070 4F       		.byte	79
 151 0071 46       		.byte	70
 152 0072 5D       		.byte	93
 153 0073 54       		.byte	84
 154 0074 6B       		.byte	107
 155 0075 62       		.byte	98
 156 0076 79       		.byte	121
 157 0077 70       		.byte	112
 158 0078 07       		.byte	7
 159 0079 0E       		.byte	14
 160 007a 15       		.byte	21
 161 007b 1C       		.byte	28
 162 007c 23       		.byte	35
 163 007d 2A       		.byte	42
 164 007e 31       		.byte	49
 165 007f 38       		.byte	56
 166 0080 41       		.byte	65
 167 0081 48       		.byte	72
 168 0082 53       		.byte	83
 169 0083 5A       		.byte	90
 170 0084 65       		.byte	101
 171 0085 6C       		.byte	108
ARM GAS  /tmp/ccxbZr1V.s 			page 4


 172 0086 77       		.byte	119
 173 0087 7E       		.byte	126
 174 0088 09       		.byte	9
 175 0089 00       		.byte	0
 176 008a 1B       		.byte	27
 177 008b 12       		.byte	18
 178 008c 2D       		.byte	45
 179 008d 24       		.byte	36
 180 008e 3F       		.byte	63
 181 008f 36       		.byte	54
 182 0090 58       		.byte	88
 183 0091 51       		.byte	81
 184 0092 4A       		.byte	74
 185 0093 43       		.byte	67
 186 0094 7C       		.byte	124
 187 0095 75       		.byte	117
 188 0096 6E       		.byte	110
 189 0097 67       		.byte	103
 190 0098 10       		.byte	16
 191 0099 19       		.byte	25
 192 009a 02       		.byte	2
 193 009b 0B       		.byte	11
 194 009c 34       		.byte	52
 195 009d 3D       		.byte	61
 196 009e 26       		.byte	38
 197 009f 2F       		.byte	47
 198 00a0 73       		.byte	115
 199 00a1 7A       		.byte	122
 200 00a2 61       		.byte	97
 201 00a3 68       		.byte	104
 202 00a4 57       		.byte	87
 203 00a5 5E       		.byte	94
 204 00a6 45       		.byte	69
 205 00a7 4C       		.byte	76
 206 00a8 3B       		.byte	59
 207 00a9 32       		.byte	50
 208 00aa 29       		.byte	41
 209 00ab 20       		.byte	32
 210 00ac 1F       		.byte	31
 211 00ad 16       		.byte	22
 212 00ae 0D       		.byte	13
 213 00af 04       		.byte	4
 214 00b0 6A       		.byte	106
 215 00b1 63       		.byte	99
 216 00b2 78       		.byte	120
 217 00b3 71       		.byte	113
 218 00b4 4E       		.byte	78
 219 00b5 47       		.byte	71
 220 00b6 5C       		.byte	92
 221 00b7 55       		.byte	85
 222 00b8 22       		.byte	34
 223 00b9 2B       		.byte	43
 224 00ba 30       		.byte	48
 225 00bb 39       		.byte	57
 226 00bc 06       		.byte	6
 227 00bd 0F       		.byte	15
 228 00be 14       		.byte	20
ARM GAS  /tmp/ccxbZr1V.s 			page 5


 229 00bf 1D       		.byte	29
 230 00c0 25       		.byte	37
 231 00c1 2C       		.byte	44
 232 00c2 37       		.byte	55
 233 00c3 3E       		.byte	62
 234 00c4 01       		.byte	1
 235 00c5 08       		.byte	8
 236 00c6 13       		.byte	19
 237 00c7 1A       		.byte	26
 238 00c8 6D       		.byte	109
 239 00c9 64       		.byte	100
 240 00ca 7F       		.byte	127
 241 00cb 76       		.byte	118
 242 00cc 49       		.byte	73
 243 00cd 40       		.byte	64
 244 00ce 5B       		.byte	91
 245 00cf 52       		.byte	82
 246 00d0 3C       		.byte	60
 247 00d1 35       		.byte	53
 248 00d2 2E       		.byte	46
 249 00d3 27       		.byte	39
 250 00d4 18       		.byte	24
 251 00d5 11       		.byte	17
 252 00d6 0A       		.byte	10
 253 00d7 03       		.byte	3
 254 00d8 74       		.byte	116
 255 00d9 7D       		.byte	125
 256 00da 66       		.byte	102
 257 00db 6F       		.byte	111
 258 00dc 50       		.byte	80
 259 00dd 59       		.byte	89
 260 00de 42       		.byte	66
 261 00df 4B       		.byte	75
 262 00e0 17       		.byte	23
 263 00e1 1E       		.byte	30
 264 00e2 05       		.byte	5
 265 00e3 0C       		.byte	12
 266 00e4 33       		.byte	51
 267 00e5 3A       		.byte	58
 268 00e6 21       		.byte	33
 269 00e7 28       		.byte	40
 270 00e8 5F       		.byte	95
 271 00e9 56       		.byte	86
 272 00ea 4D       		.byte	77
 273 00eb 44       		.byte	68
 274 00ec 7B       		.byte	123
 275 00ed 72       		.byte	114
 276 00ee 69       		.byte	105
 277 00ef 60       		.byte	96
 278 00f0 0E       		.byte	14
 279 00f1 07       		.byte	7
 280 00f2 1C       		.byte	28
 281 00f3 15       		.byte	21
 282 00f4 2A       		.byte	42
 283 00f5 23       		.byte	35
 284 00f6 38       		.byte	56
 285 00f7 31       		.byte	49
ARM GAS  /tmp/ccxbZr1V.s 			page 6


 286 00f8 46       		.byte	70
 287 00f9 4F       		.byte	79
 288 00fa 54       		.byte	84
 289 00fb 5D       		.byte	93
 290 00fc 62       		.byte	98
 291 00fd 6B       		.byte	107
 292 00fe 70       		.byte	112
 293 00ff 79       		.byte	121
 294              		.section	.text.mmc_read,"ax",%progbits
 295              		.align	2
 296              		.p2align 4,,15
 297              		.thumb
 298              		.thumb_func
 299              		.type	mmc_read, %function
 300              	mmc_read:
 301              	.LFB118:
 302              		.file 1 "/home/ergae/r2p-sdk/core/ChibiOS/os/hal/src/mmc_spi.c"
 303              		.loc 1 111 0
 304              		.cfi_startproc
 305              		@ args = 0, pretend = 0, frame = 16
 306              		@ frame_needed = 0, uses_anonymous_args = 0
 307 0000 00B5     		push	{lr}
 308              		.cfi_def_cfa_offset 4
 309              		.cfi_offset 14, -4
 310 0002 85B0     		sub	sp, sp, #20
 311              		.cfi_def_cfa_offset 24
 312 0004 0390     		str	r0, [sp, #12]
 313 0006 0291     		str	r1, [sp, #8]
 314 0008 0192     		str	r2, [sp, #4]
 315 000a 0093     		str	r3, [sp]
 316              		.loc 1 113 0
 317 000c 0398     		ldr	r0, [sp, #12]
 318 000e 0299     		ldr	r1, [sp, #8]
 319 0010 FFF7FEFF 		bl	mmcStartSequentialRead
 320 0014 0346     		mov	r3, r0
 321 0016 002B     		cmp	r3, #0
 322 0018 01D0     		beq	.L2
 323              		.loc 1 114 0
 324 001a 0123     		movs	r3, #1
 325 001c 1CE0     		b	.L3
 326              	.L2:
 327              		.loc 1 115 0
 328 001e 0FE0     		b	.L4
 329              	.L6:
 330              		.loc 1 116 0
 331 0020 0398     		ldr	r0, [sp, #12]
 332 0022 0199     		ldr	r1, [sp, #4]
 333 0024 FFF7FEFF 		bl	mmcSequentialRead
 334 0028 0346     		mov	r3, r0
 335 002a 002B     		cmp	r3, #0
 336 002c 01D0     		beq	.L5
 337              		.loc 1 117 0
 338 002e 0123     		movs	r3, #1
 339 0030 12E0     		b	.L3
 340              	.L5:
 341              		.loc 1 118 0
 342 0032 019B     		ldr	r3, [sp, #4]
ARM GAS  /tmp/ccxbZr1V.s 			page 7


 343 0034 03F50073 		add	r3, r3, #512
 344 0038 0193     		str	r3, [sp, #4]
 345              		.loc 1 119 0
 346 003a 009B     		ldr	r3, [sp]
 347 003c 013B     		subs	r3, r3, #1
 348 003e 0093     		str	r3, [sp]
 349              	.L4:
 350              		.loc 1 115 0
 351 0040 009B     		ldr	r3, [sp]
 352 0042 002B     		cmp	r3, #0
 353 0044 ECD1     		bne	.L6
 354              		.loc 1 121 0
 355 0046 0398     		ldr	r0, [sp, #12]
 356 0048 FFF7FEFF 		bl	mmcStopSequentialRead
 357 004c 0346     		mov	r3, r0
 358 004e 002B     		cmp	r3, #0
 359 0050 01D0     		beq	.L7
 360              		.loc 1 122 0
 361 0052 0123     		movs	r3, #1
 362 0054 00E0     		b	.L3
 363              	.L7:
 364              		.loc 1 123 0
 365 0056 0023     		movs	r3, #0
 366              	.L3:
 367              		.loc 1 124 0
 368 0058 1846     		mov	r0, r3
 369 005a 05B0     		add	sp, sp, #20
 370              		.cfi_def_cfa_offset 4
 371              		@ sp needed
 372 005c 5DF804FB 		ldr	pc, [sp], #4
 373              		.cfi_endproc
 374              	.LFE118:
 375              		.size	mmc_read, .-mmc_read
 376              		.section	.text.mmc_write,"ax",%progbits
 377              		.align	2
 378              		.p2align 4,,15
 379              		.thumb
 380              		.thumb_func
 381              		.type	mmc_write, %function
 382              	mmc_write:
 383              	.LFB119:
 384              		.loc 1 127 0
 385              		.cfi_startproc
 386              		@ args = 0, pretend = 0, frame = 16
 387              		@ frame_needed = 0, uses_anonymous_args = 0
 388 0000 00B5     		push	{lr}
 389              		.cfi_def_cfa_offset 4
 390              		.cfi_offset 14, -4
 391 0002 85B0     		sub	sp, sp, #20
 392              		.cfi_def_cfa_offset 24
 393 0004 0390     		str	r0, [sp, #12]
 394 0006 0291     		str	r1, [sp, #8]
 395 0008 0192     		str	r2, [sp, #4]
 396 000a 0093     		str	r3, [sp]
 397              		.loc 1 129 0
 398 000c 0398     		ldr	r0, [sp, #12]
 399 000e 0299     		ldr	r1, [sp, #8]
ARM GAS  /tmp/ccxbZr1V.s 			page 8


 400 0010 FFF7FEFF 		bl	mmcStartSequentialWrite
 401 0014 0346     		mov	r3, r0
 402 0016 002B     		cmp	r3, #0
 403 0018 01D0     		beq	.L9
 404              		.loc 1 130 0
 405 001a 0123     		movs	r3, #1
 406 001c 1CE0     		b	.L10
 407              	.L9:
 408              		.loc 1 131 0
 409 001e 0FE0     		b	.L11
 410              	.L13:
 411              		.loc 1 132 0
 412 0020 0398     		ldr	r0, [sp, #12]
 413 0022 0199     		ldr	r1, [sp, #4]
 414 0024 FFF7FEFF 		bl	mmcSequentialWrite
 415 0028 0346     		mov	r3, r0
 416 002a 002B     		cmp	r3, #0
 417 002c 01D0     		beq	.L12
 418              		.loc 1 133 0
 419 002e 0123     		movs	r3, #1
 420 0030 12E0     		b	.L10
 421              	.L12:
 422              		.loc 1 134 0
 423 0032 019B     		ldr	r3, [sp, #4]
 424 0034 03F50073 		add	r3, r3, #512
 425 0038 0193     		str	r3, [sp, #4]
 426              		.loc 1 135 0
 427 003a 009B     		ldr	r3, [sp]
 428 003c 013B     		subs	r3, r3, #1
 429 003e 0093     		str	r3, [sp]
 430              	.L11:
 431              		.loc 1 131 0
 432 0040 009B     		ldr	r3, [sp]
 433 0042 002B     		cmp	r3, #0
 434 0044 ECD1     		bne	.L13
 435              		.loc 1 137 0
 436 0046 0398     		ldr	r0, [sp, #12]
 437 0048 FFF7FEFF 		bl	mmcStopSequentialWrite
 438 004c 0346     		mov	r3, r0
 439 004e 002B     		cmp	r3, #0
 440 0050 01D0     		beq	.L14
 441              		.loc 1 138 0
 442 0052 0123     		movs	r3, #1
 443 0054 00E0     		b	.L10
 444              	.L14:
 445              		.loc 1 139 0
 446 0056 0023     		movs	r3, #0
 447              	.L10:
 448              		.loc 1 140 0
 449 0058 1846     		mov	r0, r3
 450 005a 05B0     		add	sp, sp, #20
 451              		.cfi_def_cfa_offset 4
 452              		@ sp needed
 453 005c 5DF804FB 		ldr	pc, [sp], #4
 454              		.cfi_endproc
 455              	.LFE119:
 456              		.size	mmc_write, .-mmc_write
ARM GAS  /tmp/ccxbZr1V.s 			page 9


 457              		.section	.text.crc7,"ax",%progbits
 458              		.align	2
 459              		.p2align 4,,15
 460              		.thumb
 461              		.thumb_func
 462              		.type	crc7, %function
 463              	crc7:
 464              	.LFB120:
 465              		.loc 1 150 0
 466              		.cfi_startproc
 467              		@ args = 0, pretend = 0, frame = 16
 468              		@ frame_needed = 0, uses_anonymous_args = 0
 469              		@ link register save eliminated.
 470 0000 84B0     		sub	sp, sp, #16
 471              		.cfi_def_cfa_offset 16
 472 0002 0346     		mov	r3, r0
 473 0004 0291     		str	r1, [sp, #8]
 474 0006 0192     		str	r2, [sp, #4]
 475 0008 8DF80F30 		strb	r3, [sp, #15]
 476              		.loc 1 152 0
 477 000c 0BE0     		b	.L16
 478              	.L17:
 479              		.loc 1 153 0
 480 000e 9DF80F30 		ldrb	r3, [sp, #15]	@ zero_extendqisi2
 481 0012 5A00     		lsls	r2, r3, #1
 482 0014 029B     		ldr	r3, [sp, #8]
 483 0016 591C     		adds	r1, r3, #1
 484 0018 0291     		str	r1, [sp, #8]
 485 001a 1B78     		ldrb	r3, [r3]	@ zero_extendqisi2
 486 001c 5340     		eors	r3, r3, r2
 487 001e 074A     		ldr	r2, .L19
 488 0020 D35C     		ldrb	r3, [r2, r3]
 489 0022 8DF80F30 		strb	r3, [sp, #15]
 490              	.L16:
 491              		.loc 1 152 0
 492 0026 019B     		ldr	r3, [sp, #4]
 493 0028 5A1E     		subs	r2, r3, #1
 494 002a 0192     		str	r2, [sp, #4]
 495 002c 002B     		cmp	r3, #0
 496 002e EED1     		bne	.L17
 497              		.loc 1 154 0
 498 0030 9DF80F30 		ldrb	r3, [sp, #15]	@ zero_extendqisi2
 499              		.loc 1 155 0
 500 0034 1846     		mov	r0, r3
 501 0036 04B0     		add	sp, sp, #16
 502              		.cfi_def_cfa_offset 0
 503              		@ sp needed
 504 0038 7047     		bx	lr
 505              	.L20:
 506 003a 00BF     		.align	2
 507              	.L19:
 508 003c 00000000 		.word	crc7_lookup_table
 509              		.cfi_endproc
 510              	.LFE120:
 511              		.size	crc7, .-crc7
 512              		.section	.text.wait,"ax",%progbits
 513              		.align	2
ARM GAS  /tmp/ccxbZr1V.s 			page 10


 514              		.p2align 4,,15
 515              		.thumb
 516              		.thumb_func
 517              		.type	wait, %function
 518              	wait:
 519              	.LFB121:
 520              		.loc 1 164 0
 521              		.cfi_startproc
 522              		@ args = 0, pretend = 0, frame = 16
 523              		@ frame_needed = 0, uses_anonymous_args = 0
 524 0000 00B5     		push	{lr}
 525              		.cfi_def_cfa_offset 4
 526              		.cfi_offset 14, -4
 527 0002 85B0     		sub	sp, sp, #20
 528              		.cfi_def_cfa_offset 24
 529 0004 0190     		str	r0, [sp, #4]
 530              		.loc 1 168 0
 531 0006 0023     		movs	r3, #0
 532 0008 0393     		str	r3, [sp, #12]
 533 000a 0FE0     		b	.L22
 534              	.L25:
 535              		.loc 1 169 0
 536 000c 019B     		ldr	r3, [sp, #4]
 537 000e DB6A     		ldr	r3, [r3, #44]
 538 0010 1A68     		ldr	r2, [r3]
 539 0012 02AB     		add	r3, sp, #8
 540 0014 1046     		mov	r0, r2
 541 0016 0121     		movs	r1, #1
 542 0018 1A46     		mov	r2, r3
 543 001a FFF7FEFF 		bl	spiReceive
 544              		.loc 1 170 0
 545 001e 9DF80830 		ldrb	r3, [sp, #8]	@ zero_extendqisi2
 546 0022 FF2B     		cmp	r3, #255
 547 0024 18D0     		beq	.L21
 548              		.loc 1 168 0 discriminator 2
 549 0026 039B     		ldr	r3, [sp, #12]
 550 0028 0133     		adds	r3, r3, #1
 551 002a 0393     		str	r3, [sp, #12]
 552              	.L22:
 553              		.loc 1 168 0 is_stmt 0 discriminator 1
 554 002c 039B     		ldr	r3, [sp, #12]
 555 002e 0F2B     		cmp	r3, #15
 556 0030 ECDD     		ble	.L25
 557              	.L28:
 558              		.loc 1 175 0 is_stmt 1
 559 0032 019B     		ldr	r3, [sp, #4]
 560 0034 DB6A     		ldr	r3, [r3, #44]
 561 0036 1A68     		ldr	r2, [r3]
 562 0038 02AB     		add	r3, sp, #8
 563 003a 1046     		mov	r0, r2
 564 003c 0121     		movs	r1, #1
 565 003e 1A46     		mov	r2, r3
 566 0040 FFF7FEFF 		bl	spiReceive
 567              		.loc 1 176 0
 568 0044 9DF80830 		ldrb	r3, [sp, #8]	@ zero_extendqisi2
 569 0048 FF2B     		cmp	r3, #255
 570 004a 01D1     		bne	.L26
ARM GAS  /tmp/ccxbZr1V.s 			page 11


 571              		.loc 1 177 0
 572 004c 00BF     		nop
 573 004e 03E0     		b	.L21
 574              	.L26:
 575              		.loc 1 180 0
 576 0050 0120     		movs	r0, #1
 577 0052 FFF7FEFF 		bl	chThdSleep
 578              		.loc 1 182 0
 579 0056 ECE7     		b	.L28
 580              	.L21:
 581              		.loc 1 183 0
 582 0058 05B0     		add	sp, sp, #20
 583              		.cfi_def_cfa_offset 4
 584              		@ sp needed
 585 005a 5DF804FB 		ldr	pc, [sp], #4
 586              		.cfi_endproc
 587              	.LFE121:
 588              		.size	wait, .-wait
 589 005e 00BF     		.section	.text.send_hdr,"ax",%progbits
 590              		.align	2
 591              		.p2align 4,,15
 592              		.thumb
 593              		.thumb_func
 594              		.type	send_hdr, %function
 595              	send_hdr:
 596              	.LFB122:
 597              		.loc 1 194 0
 598              		.cfi_startproc
 599              		@ args = 0, pretend = 0, frame = 24
 600              		@ frame_needed = 0, uses_anonymous_args = 0
 601 0000 00B5     		push	{lr}
 602              		.cfi_def_cfa_offset 4
 603              		.cfi_offset 14, -4
 604 0002 87B0     		sub	sp, sp, #28
 605              		.cfi_def_cfa_offset 32
 606 0004 0390     		str	r0, [sp, #12]
 607 0006 0B46     		mov	r3, r1
 608 0008 0192     		str	r2, [sp, #4]
 609 000a 8DF80B30 		strb	r3, [sp, #11]
 610              		.loc 1 198 0
 611 000e 0398     		ldr	r0, [sp, #12]
 612 0010 FFF7FEFF 		bl	wait
 613              		.loc 1 200 0
 614 0014 9DF80B30 		ldrb	r3, [sp, #11]
 615 0018 43F04003 		orr	r3, r3, #64
 616 001c DBB2     		uxtb	r3, r3
 617 001e 8DF81030 		strb	r3, [sp, #16]
 618              		.loc 1 201 0
 619 0022 019B     		ldr	r3, [sp, #4]
 620 0024 1B0E     		lsrs	r3, r3, #24
 621 0026 DBB2     		uxtb	r3, r3
 622 0028 8DF81130 		strb	r3, [sp, #17]
 623              		.loc 1 202 0
 624 002c 019B     		ldr	r3, [sp, #4]
 625 002e 1B0C     		lsrs	r3, r3, #16
 626 0030 DBB2     		uxtb	r3, r3
 627 0032 8DF81230 		strb	r3, [sp, #18]
ARM GAS  /tmp/ccxbZr1V.s 			page 12


 628              		.loc 1 203 0
 629 0036 019B     		ldr	r3, [sp, #4]
 630 0038 1B0A     		lsrs	r3, r3, #8
 631 003a DBB2     		uxtb	r3, r3
 632 003c 8DF81330 		strb	r3, [sp, #19]
 633              		.loc 1 204 0
 634 0040 019B     		ldr	r3, [sp, #4]
 635 0042 DBB2     		uxtb	r3, r3
 636 0044 8DF81430 		strb	r3, [sp, #20]
 637              		.loc 1 206 0
 638 0048 04AB     		add	r3, sp, #16
 639 004a 0020     		movs	r0, #0
 640 004c 1946     		mov	r1, r3
 641 004e 0522     		movs	r2, #5
 642 0050 FFF7FEFF 		bl	crc7
 643 0054 0346     		mov	r3, r0
 644 0056 5B00     		lsls	r3, r3, #1
 645 0058 DBB2     		uxtb	r3, r3
 646 005a 43F00103 		orr	r3, r3, #1
 647 005e DBB2     		uxtb	r3, r3
 648 0060 DBB2     		uxtb	r3, r3
 649 0062 8DF81530 		strb	r3, [sp, #21]
 650              		.loc 1 208 0
 651 0066 039B     		ldr	r3, [sp, #12]
 652 0068 DB6A     		ldr	r3, [r3, #44]
 653 006a 1A68     		ldr	r2, [r3]
 654 006c 04AB     		add	r3, sp, #16
 655 006e 1046     		mov	r0, r2
 656 0070 0621     		movs	r1, #6
 657 0072 1A46     		mov	r2, r3
 658 0074 FFF7FEFF 		bl	spiSend
 659              		.loc 1 209 0
 660 0078 07B0     		add	sp, sp, #28
 661              		.cfi_def_cfa_offset 4
 662              		@ sp needed
 663 007a 5DF804FB 		ldr	pc, [sp], #4
 664              		.cfi_endproc
 665              	.LFE122:
 666              		.size	send_hdr, .-send_hdr
 667 007e 00BF     		.section	.text.recvr1,"ax",%progbits
 668              		.align	2
 669              		.p2align 4,,15
 670              		.thumb
 671              		.thumb_func
 672              		.type	recvr1, %function
 673              	recvr1:
 674              	.LFB123:
 675              		.loc 1 220 0
 676              		.cfi_startproc
 677              		@ args = 0, pretend = 0, frame = 16
 678              		@ frame_needed = 0, uses_anonymous_args = 0
 679 0000 00B5     		push	{lr}
 680              		.cfi_def_cfa_offset 4
 681              		.cfi_offset 14, -4
 682 0002 85B0     		sub	sp, sp, #20
 683              		.cfi_def_cfa_offset 24
 684 0004 0190     		str	r0, [sp, #4]
ARM GAS  /tmp/ccxbZr1V.s 			page 13


 685              		.loc 1 224 0
 686 0006 0023     		movs	r3, #0
 687 0008 0393     		str	r3, [sp, #12]
 688 000a 12E0     		b	.L31
 689              	.L34:
 690              		.loc 1 225 0
 691 000c 019B     		ldr	r3, [sp, #4]
 692 000e DB6A     		ldr	r3, [r3, #44]
 693 0010 1A68     		ldr	r2, [r3]
 694 0012 02AB     		add	r3, sp, #8
 695 0014 1046     		mov	r0, r2
 696 0016 0121     		movs	r1, #1
 697 0018 1A46     		mov	r2, r3
 698 001a FFF7FEFF 		bl	spiReceive
 699              		.loc 1 226 0
 700 001e 9DF80830 		ldrb	r3, [sp, #8]	@ zero_extendqisi2
 701 0022 FF2B     		cmp	r3, #255
 702 0024 02D0     		beq	.L32
 703              		.loc 1 227 0
 704 0026 9DF80830 		ldrb	r3, [sp, #8]	@ zero_extendqisi2
 705 002a 06E0     		b	.L35
 706              	.L32:
 707              		.loc 1 224 0 discriminator 2
 708 002c 039B     		ldr	r3, [sp, #12]
 709 002e 0133     		adds	r3, r3, #1
 710 0030 0393     		str	r3, [sp, #12]
 711              	.L31:
 712              		.loc 1 224 0 is_stmt 0 discriminator 1
 713 0032 039B     		ldr	r3, [sp, #12]
 714 0034 082B     		cmp	r3, #8
 715 0036 E9DD     		ble	.L34
 716              		.loc 1 229 0 is_stmt 1
 717 0038 FF23     		movs	r3, #255
 718              	.L35:
 719              		.loc 1 230 0 discriminator 1
 720 003a 1846     		mov	r0, r3
 721 003c 05B0     		add	sp, sp, #20
 722              		.cfi_def_cfa_offset 4
 723              		@ sp needed
 724 003e 5DF804FB 		ldr	pc, [sp], #4
 725              		.cfi_endproc
 726              	.LFE123:
 727              		.size	recvr1, .-recvr1
 728 0042 00BFAFF3 		.section	.text.recvr3,"ax",%progbits
 728      0080AFF3 
 728      0080AFF3 
 728      0080
 729              		.align	2
 730              		.p2align 4,,15
 731              		.thumb
 732              		.thumb_func
 733              		.type	recvr3, %function
 734              	recvr3:
 735              	.LFB124:
 736              		.loc 1 242 0
 737              		.cfi_startproc
 738              		@ args = 0, pretend = 0, frame = 16
ARM GAS  /tmp/ccxbZr1V.s 			page 14


 739              		@ frame_needed = 0, uses_anonymous_args = 0
 740 0000 00B5     		push	{lr}
 741              		.cfi_def_cfa_offset 4
 742              		.cfi_offset 14, -4
 743 0002 85B0     		sub	sp, sp, #20
 744              		.cfi_def_cfa_offset 24
 745 0004 0190     		str	r0, [sp, #4]
 746 0006 0091     		str	r1, [sp]
 747              		.loc 1 245 0
 748 0008 0198     		ldr	r0, [sp, #4]
 749 000a FFF7FEFF 		bl	recvr1
 750 000e 0346     		mov	r3, r0
 751 0010 8DF80F30 		strb	r3, [sp, #15]
 752              		.loc 1 246 0
 753 0014 019B     		ldr	r3, [sp, #4]
 754 0016 DB6A     		ldr	r3, [r3, #44]
 755 0018 1B68     		ldr	r3, [r3]
 756 001a 1846     		mov	r0, r3
 757 001c 0421     		movs	r1, #4
 758 001e 009A     		ldr	r2, [sp]
 759 0020 FFF7FEFF 		bl	spiReceive
 760              		.loc 1 248 0
 761 0024 9DF80F30 		ldrb	r3, [sp, #15]	@ zero_extendqisi2
 762              		.loc 1 249 0
 763 0028 1846     		mov	r0, r3
 764 002a 05B0     		add	sp, sp, #20
 765              		.cfi_def_cfa_offset 4
 766              		@ sp needed
 767 002c 5DF804FB 		ldr	pc, [sp], #4
 768              		.cfi_endproc
 769              	.LFE124:
 770              		.size	recvr3, .-recvr3
 771              		.section	.text.send_command_R1,"ax",%progbits
 772              		.align	2
 773              		.p2align 4,,15
 774              		.thumb
 775              		.thumb_func
 776              		.type	send_command_R1, %function
 777              	send_command_R1:
 778              	.LFB125:
 779              		.loc 1 262 0
 780              		.cfi_startproc
 781              		@ args = 0, pretend = 0, frame = 24
 782              		@ frame_needed = 0, uses_anonymous_args = 0
 783 0000 00B5     		push	{lr}
 784              		.cfi_def_cfa_offset 4
 785              		.cfi_offset 14, -4
 786 0002 87B0     		sub	sp, sp, #28
 787              		.cfi_def_cfa_offset 32
 788 0004 0390     		str	r0, [sp, #12]
 789 0006 0B46     		mov	r3, r1
 790 0008 0192     		str	r2, [sp, #4]
 791 000a 8DF80B30 		strb	r3, [sp, #11]
 792              		.loc 1 265 0
 793 000e 039B     		ldr	r3, [sp, #12]
 794 0010 DB6A     		ldr	r3, [r3, #44]
 795 0012 1B68     		ldr	r3, [r3]
ARM GAS  /tmp/ccxbZr1V.s 			page 15


 796 0014 1846     		mov	r0, r3
 797 0016 FFF7FEFF 		bl	spiSelect
 798              		.loc 1 266 0
 799 001a 9DF80B30 		ldrb	r3, [sp, #11]	@ zero_extendqisi2
 800 001e 0398     		ldr	r0, [sp, #12]
 801 0020 1946     		mov	r1, r3
 802 0022 019A     		ldr	r2, [sp, #4]
 803 0024 FFF7FEFF 		bl	send_hdr
 804              		.loc 1 267 0
 805 0028 0398     		ldr	r0, [sp, #12]
 806 002a FFF7FEFF 		bl	recvr1
 807 002e 0346     		mov	r3, r0
 808 0030 8DF81730 		strb	r3, [sp, #23]
 809              		.loc 1 268 0
 810 0034 039B     		ldr	r3, [sp, #12]
 811 0036 DB6A     		ldr	r3, [r3, #44]
 812 0038 1B68     		ldr	r3, [r3]
 813 003a 1846     		mov	r0, r3
 814 003c FFF7FEFF 		bl	spiUnselect
 815              		.loc 1 269 0
 816 0040 9DF81730 		ldrb	r3, [sp, #23]	@ zero_extendqisi2
 817              		.loc 1 270 0
 818 0044 1846     		mov	r0, r3
 819 0046 07B0     		add	sp, sp, #28
 820              		.cfi_def_cfa_offset 4
 821              		@ sp needed
 822 0048 5DF804FB 		ldr	pc, [sp], #4
 823              		.cfi_endproc
 824              	.LFE125:
 825              		.size	send_command_R1, .-send_command_R1
 826 004c AFF30080 		.section	.text.send_command_R3,"ax",%progbits
 827              		.align	2
 828              		.p2align 4,,15
 829              		.thumb
 830              		.thumb_func
 831              		.type	send_command_R3, %function
 832              	send_command_R3:
 833              	.LFB126:
 834              		.loc 1 286 0
 835              		.cfi_startproc
 836              		@ args = 0, pretend = 0, frame = 24
 837              		@ frame_needed = 0, uses_anonymous_args = 0
 838 0000 00B5     		push	{lr}
 839              		.cfi_def_cfa_offset 4
 840              		.cfi_offset 14, -4
 841 0002 87B0     		sub	sp, sp, #28
 842              		.cfi_def_cfa_offset 32
 843 0004 0390     		str	r0, [sp, #12]
 844 0006 0192     		str	r2, [sp, #4]
 845 0008 0093     		str	r3, [sp]
 846 000a 0B46     		mov	r3, r1
 847 000c 8DF80B30 		strb	r3, [sp, #11]
 848              		.loc 1 289 0
 849 0010 039B     		ldr	r3, [sp, #12]
 850 0012 DB6A     		ldr	r3, [r3, #44]
 851 0014 1B68     		ldr	r3, [r3]
 852 0016 1846     		mov	r0, r3
ARM GAS  /tmp/ccxbZr1V.s 			page 16


 853 0018 FFF7FEFF 		bl	spiSelect
 854              		.loc 1 290 0
 855 001c 9DF80B30 		ldrb	r3, [sp, #11]	@ zero_extendqisi2
 856 0020 0398     		ldr	r0, [sp, #12]
 857 0022 1946     		mov	r1, r3
 858 0024 019A     		ldr	r2, [sp, #4]
 859 0026 FFF7FEFF 		bl	send_hdr
 860              		.loc 1 291 0
 861 002a 0398     		ldr	r0, [sp, #12]
 862 002c 0099     		ldr	r1, [sp]
 863 002e FFF7FEFF 		bl	recvr3
 864 0032 0346     		mov	r3, r0
 865 0034 8DF81730 		strb	r3, [sp, #23]
 866              		.loc 1 292 0
 867 0038 039B     		ldr	r3, [sp, #12]
 868 003a DB6A     		ldr	r3, [r3, #44]
 869 003c 1B68     		ldr	r3, [r3]
 870 003e 1846     		mov	r0, r3
 871 0040 FFF7FEFF 		bl	spiUnselect
 872              		.loc 1 293 0
 873 0044 9DF81730 		ldrb	r3, [sp, #23]	@ zero_extendqisi2
 874              		.loc 1 294 0
 875 0048 1846     		mov	r0, r3
 876 004a 07B0     		add	sp, sp, #28
 877              		.cfi_def_cfa_offset 4
 878              		@ sp needed
 879 004c 5DF804FB 		ldr	pc, [sp], #4
 880              		.cfi_endproc
 881              	.LFE126:
 882              		.size	send_command_R3, .-send_command_R3
 883              		.section	.text.read_CxD,"ax",%progbits
 884              		.align	2
 885              		.p2align 4,,15
 886              		.thumb
 887              		.thumb_func
 888              		.type	read_CxD, %function
 889              	read_CxD:
 890              	.LFB127:
 891              		.loc 1 308 0
 892              		.cfi_startproc
 893              		@ args = 0, pretend = 0, frame = 48
 894              		@ frame_needed = 0, uses_anonymous_args = 0
 895 0000 00B5     		push	{lr}
 896              		.cfi_def_cfa_offset 4
 897              		.cfi_offset 14, -4
 898 0002 8DB0     		sub	sp, sp, #52
 899              		.cfi_def_cfa_offset 56
 900 0004 0390     		str	r0, [sp, #12]
 901 0006 0B46     		mov	r3, r1
 902 0008 0192     		str	r2, [sp, #4]
 903 000a 8DF80B30 		strb	r3, [sp, #11]
 904              		.loc 1 312 0
 905 000e 039B     		ldr	r3, [sp, #12]
 906 0010 DB6A     		ldr	r3, [r3, #44]
 907 0012 1B68     		ldr	r3, [r3]
 908 0014 1846     		mov	r0, r3
 909 0016 FFF7FEFF 		bl	spiSelect
ARM GAS  /tmp/ccxbZr1V.s 			page 17


 910              		.loc 1 313 0
 911 001a 9DF80B30 		ldrb	r3, [sp, #11]	@ zero_extendqisi2
 912 001e 0398     		ldr	r0, [sp, #12]
 913 0020 1946     		mov	r1, r3
 914 0022 0022     		movs	r2, #0
 915 0024 FFF7FEFF 		bl	send_hdr
 916              		.loc 1 314 0
 917 0028 0398     		ldr	r0, [sp, #12]
 918 002a FFF7FEFF 		bl	recvr1
 919 002e 0346     		mov	r3, r0
 920 0030 002B     		cmp	r3, #0
 921 0032 07D0     		beq	.L43
 922              		.loc 1 315 0
 923 0034 039B     		ldr	r3, [sp, #12]
 924 0036 DB6A     		ldr	r3, [r3, #44]
 925 0038 1B68     		ldr	r3, [r3]
 926 003a 1846     		mov	r0, r3
 927 003c FFF7FEFF 		bl	spiUnselect
 928              		.loc 1 316 0
 929 0040 0123     		movs	r3, #1
 930 0042 53E0     		b	.L50
 931              	.L43:
 932              		.loc 1 320 0
 933 0044 0023     		movs	r3, #0
 934 0046 0B93     		str	r3, [sp, #44]
 935 0048 4AE0     		b	.L45
 936              	.L49:
 937              		.loc 1 321 0
 938 004a 039B     		ldr	r3, [sp, #12]
 939 004c DB6A     		ldr	r3, [r3, #44]
 940 004e 1A68     		ldr	r2, [r3]
 941 0050 05AB     		add	r3, sp, #20
 942 0052 1046     		mov	r0, r2
 943 0054 0121     		movs	r1, #1
 944 0056 1A46     		mov	r2, r3
 945 0058 FFF7FEFF 		bl	spiReceive
 946              		.loc 1 322 0
 947 005c 9DF81430 		ldrb	r3, [sp, #20]	@ zero_extendqisi2
 948 0060 FE2B     		cmp	r3, #254
 949 0062 3AD1     		bne	.L46
 950              	.LBB2:
 951              		.loc 1 325 0
 952 0064 039B     		ldr	r3, [sp, #12]
 953 0066 DB6A     		ldr	r3, [r3, #44]
 954 0068 1A68     		ldr	r2, [r3]
 955 006a 05AB     		add	r3, sp, #20
 956 006c 1046     		mov	r0, r2
 957 006e 1021     		movs	r1, #16
 958 0070 1A46     		mov	r2, r3
 959 0072 FFF7FEFF 		bl	spiReceive
 960              		.loc 1 326 0
 961 0076 05AB     		add	r3, sp, #20
 962 0078 0A93     		str	r3, [sp, #40]
 963              		.loc 1 327 0
 964 007a 019B     		ldr	r3, [sp, #4]
 965 007c 0C33     		adds	r3, r3, #12
 966 007e 0993     		str	r3, [sp, #36]
ARM GAS  /tmp/ccxbZr1V.s 			page 18


 967 0080 18E0     		b	.L47
 968              	.L48:
 969              		.loc 1 328 0 discriminator 3
 970 0082 0A9B     		ldr	r3, [sp, #40]
 971 0084 1B78     		ldrb	r3, [r3]	@ zero_extendqisi2
 972 0086 1A06     		lsls	r2, r3, #24
 973 0088 0A9B     		ldr	r3, [sp, #40]
 974 008a 0133     		adds	r3, r3, #1
 975 008c 1B78     		ldrb	r3, [r3]	@ zero_extendqisi2
 976 008e 1B04     		lsls	r3, r3, #16
 977 0090 1A43     		orrs	r2, r2, r3
 978              		.loc 1 329 0 discriminator 3
 979 0092 0A9B     		ldr	r3, [sp, #40]
 980 0094 0233     		adds	r3, r3, #2
 981 0096 1B78     		ldrb	r3, [r3]	@ zero_extendqisi2
 982 0098 1B02     		lsls	r3, r3, #8
 983              		.loc 1 328 0 discriminator 3
 984 009a 1343     		orrs	r3, r3, r2
 985              		.loc 1 329 0 discriminator 3
 986 009c 0A9A     		ldr	r2, [sp, #40]
 987 009e 0332     		adds	r2, r2, #3
 988 00a0 1278     		ldrb	r2, [r2]	@ zero_extendqisi2
 989 00a2 1A43     		orrs	r2, r2, r3
 990              		.loc 1 328 0 discriminator 3
 991 00a4 099B     		ldr	r3, [sp, #36]
 992 00a6 1A60     		str	r2, [r3]
 993              		.loc 1 330 0 discriminator 3
 994 00a8 0A9B     		ldr	r3, [sp, #40]
 995 00aa 0433     		adds	r3, r3, #4
 996 00ac 0A93     		str	r3, [sp, #40]
 997              		.loc 1 327 0 discriminator 3
 998 00ae 099B     		ldr	r3, [sp, #36]
 999 00b0 043B     		subs	r3, r3, #4
 1000 00b2 0993     		str	r3, [sp, #36]
 1001              	.L47:
 1002              		.loc 1 327 0 is_stmt 0 discriminator 1
 1003 00b4 099A     		ldr	r2, [sp, #36]
 1004 00b6 019B     		ldr	r3, [sp, #4]
 1005 00b8 9A42     		cmp	r2, r3
 1006 00ba E2D2     		bcs	.L48
 1007              		.loc 1 334 0 is_stmt 1
 1008 00bc 039B     		ldr	r3, [sp, #12]
 1009 00be DB6A     		ldr	r3, [r3, #44]
 1010 00c0 1B68     		ldr	r3, [r3]
 1011 00c2 1846     		mov	r0, r3
 1012 00c4 0221     		movs	r1, #2
 1013 00c6 FFF7FEFF 		bl	spiIgnore
 1014              		.loc 1 335 0
 1015 00ca 039B     		ldr	r3, [sp, #12]
 1016 00cc DB6A     		ldr	r3, [r3, #44]
 1017 00ce 1B68     		ldr	r3, [r3]
 1018 00d0 1846     		mov	r0, r3
 1019 00d2 FFF7FEFF 		bl	spiUnselect
 1020              		.loc 1 337 0
 1021 00d6 0023     		movs	r3, #0
 1022 00d8 08E0     		b	.L50
 1023              	.L46:
ARM GAS  /tmp/ccxbZr1V.s 			page 19


 1024              	.LBE2:
 1025              		.loc 1 320 0 discriminator 2
 1026 00da 0B9B     		ldr	r3, [sp, #44]
 1027 00dc 0133     		adds	r3, r3, #1
 1028 00de 0B93     		str	r3, [sp, #44]
 1029              	.L45:
 1030              		.loc 1 320 0 is_stmt 0 discriminator 1
 1031 00e0 0B9B     		ldr	r3, [sp, #44]
 1032 00e2 42F20F72 		movw	r2, #9999
 1033 00e6 9342     		cmp	r3, r2
 1034 00e8 AFD9     		bls	.L49
 1035              		.loc 1 340 0 is_stmt 1
 1036 00ea 0123     		movs	r3, #1
 1037              	.L50:
 1038              		.loc 1 341 0 discriminator 1
 1039 00ec 1846     		mov	r0, r3
 1040 00ee 0DB0     		add	sp, sp, #52
 1041              		.cfi_def_cfa_offset 4
 1042              		@ sp needed
 1043 00f0 5DF804FB 		ldr	pc, [sp], #4
 1044              		.cfi_endproc
 1045              	.LFE127:
 1046              		.size	read_CxD, .-read_CxD
 1047 00f4 AFF30080 		.section	.text.sync,"ax",%progbits
 1047      AFF30080 
 1047      AFF30080 
 1048              		.align	2
 1049              		.p2align 4,,15
 1050              		.thumb
 1051              		.thumb_func
 1052              		.type	sync, %function
 1053              	sync:
 1054              	.LFB128:
 1055              		.loc 1 350 0
 1056              		.cfi_startproc
 1057              		@ args = 0, pretend = 0, frame = 16
 1058              		@ frame_needed = 0, uses_anonymous_args = 0
 1059 0000 00B5     		push	{lr}
 1060              		.cfi_def_cfa_offset 4
 1061              		.cfi_offset 14, -4
 1062 0002 85B0     		sub	sp, sp, #20
 1063              		.cfi_def_cfa_offset 24
 1064 0004 0190     		str	r0, [sp, #4]
 1065              		.loc 1 353 0
 1066 0006 019B     		ldr	r3, [sp, #4]
 1067 0008 DB6A     		ldr	r3, [r3, #44]
 1068 000a 1B68     		ldr	r3, [r3]
 1069 000c 1846     		mov	r0, r3
 1070 000e FFF7FEFF 		bl	spiSelect
 1071              	.L54:
 1072              		.loc 1 355 0
 1073 0012 019B     		ldr	r3, [sp, #4]
 1074 0014 DB6A     		ldr	r3, [r3, #44]
 1075 0016 1A68     		ldr	r2, [r3]
 1076 0018 03AB     		add	r3, sp, #12
 1077 001a 1046     		mov	r0, r2
 1078 001c 0121     		movs	r1, #1
ARM GAS  /tmp/ccxbZr1V.s 			page 20


 1079 001e 1A46     		mov	r2, r3
 1080 0020 FFF7FEFF 		bl	spiReceive
 1081              		.loc 1 356 0
 1082 0024 9DF80C30 		ldrb	r3, [sp, #12]	@ zero_extendqisi2
 1083 0028 FF2B     		cmp	r3, #255
 1084 002a 00D1     		bne	.L52
 1085              		.loc 1 357 0
 1086 002c 03E0     		b	.L55
 1087              	.L52:
 1088              		.loc 1 359 0
 1089 002e 0120     		movs	r0, #1
 1090 0030 FFF7FEFF 		bl	chThdSleep
 1091              		.loc 1 361 0
 1092 0034 EDE7     		b	.L54
 1093              	.L55:
 1094              		.loc 1 362 0
 1095 0036 019B     		ldr	r3, [sp, #4]
 1096 0038 DB6A     		ldr	r3, [r3, #44]
 1097 003a 1B68     		ldr	r3, [r3]
 1098 003c 1846     		mov	r0, r3
 1099 003e FFF7FEFF 		bl	spiUnselect
 1100              		.loc 1 363 0
 1101 0042 05B0     		add	sp, sp, #20
 1102              		.cfi_def_cfa_offset 4
 1103              		@ sp needed
 1104 0044 5DF804FB 		ldr	pc, [sp], #4
 1105              		.cfi_endproc
 1106              	.LFE128:
 1107              		.size	sync, .-sync
 1108 0048 AFF30080 		.section	.text.mmcInit,"ax",%progbits
 1108      AFF30080 
 1109              		.align	2
 1110              		.p2align 4,,15
 1111              		.global	mmcInit
 1112              		.thumb
 1113              		.thumb_func
 1114              		.type	mmcInit, %function
 1115              	mmcInit:
 1116              	.LFB129:
 1117              		.loc 1 376 0
 1118              		.cfi_startproc
 1119              		@ args = 0, pretend = 0, frame = 0
 1120              		@ frame_needed = 0, uses_anonymous_args = 0
 1121              		@ link register save eliminated.
 1122              		.loc 1 378 0
 1123 0000 7047     		bx	lr
 1124              		.cfi_endproc
 1125              	.LFE129:
 1126              		.size	mmcInit, .-mmcInit
 1127 0002 00BFAFF3 		.section	.text.mmcObjectInit,"ax",%progbits
 1127      0080AFF3 
 1127      0080AFF3 
 1127      0080
 1128              		.align	2
 1129              		.p2align 4,,15
 1130              		.global	mmcObjectInit
 1131              		.thumb
ARM GAS  /tmp/ccxbZr1V.s 			page 21


 1132              		.thumb_func
 1133              		.type	mmcObjectInit, %function
 1134              	mmcObjectInit:
 1135              	.LFB130:
 1136              		.loc 1 387 0
 1137              		.cfi_startproc
 1138              		@ args = 0, pretend = 0, frame = 8
 1139              		@ frame_needed = 0, uses_anonymous_args = 0
 1140              		@ link register save eliminated.
 1141 0000 82B0     		sub	sp, sp, #8
 1142              		.cfi_def_cfa_offset 8
 1143 0002 0190     		str	r0, [sp, #4]
 1144              		.loc 1 389 0
 1145 0004 019B     		ldr	r3, [sp, #4]
 1146 0006 074A     		ldr	r2, .L58
 1147 0008 1A60     		str	r2, [r3]
 1148              		.loc 1 390 0
 1149 000a 019B     		ldr	r3, [sp, #4]
 1150 000c 0122     		movs	r2, #1
 1151 000e 1A71     		strb	r2, [r3, #4]
 1152              		.loc 1 391 0
 1153 0010 019B     		ldr	r3, [sp, #4]
 1154 0012 0022     		movs	r2, #0
 1155 0014 DA62     		str	r2, [r3, #44]
 1156              		.loc 1 392 0
 1157 0016 019B     		ldr	r3, [sp, #4]
 1158 0018 0022     		movs	r2, #0
 1159 001a 83F83020 		strb	r2, [r3, #48]
 1160              		.loc 1 393 0
 1161 001e 02B0     		add	sp, sp, #8
 1162              		.cfi_def_cfa_offset 0
 1163              		@ sp needed
 1164 0020 7047     		bx	lr
 1165              	.L59:
 1166 0022 00BF     		.align	2
 1167              	.L58:
 1168 0024 00000000 		.word	mmc_vmt
 1169              		.cfi_endproc
 1170              	.LFE130:
 1171              		.size	mmcObjectInit, .-mmcObjectInit
 1172 0028 AFF30080 		.section	.rodata
 1172      AFF30080 
 1173              		.align	2
 1174              	.LC0:
 1175 0000 226D6D63 		.ascii	"\"mmcStart\"()\000"
 1175      53746172 
 1175      74222829 
 1175      00
 1176 000d 000000   		.align	2
 1177              	.LC1:
 1178 0010 6D6D6353 		.ascii	"mmcStart(), #1\000"
 1178      74617274 
 1178      28292C20 
 1178      233100
 1179              		.section	.text.mmcStart,"ax",%progbits
 1180              		.align	2
 1181              		.p2align 4,,15
ARM GAS  /tmp/ccxbZr1V.s 			page 22


 1182              		.global	mmcStart
 1183              		.thumb
 1184              		.thumb_func
 1185              		.type	mmcStart, %function
 1186              	mmcStart:
 1187              	.LFB131:
 1188              		.loc 1 403 0
 1189              		.cfi_startproc
 1190              		@ args = 0, pretend = 0, frame = 8
 1191              		@ frame_needed = 0, uses_anonymous_args = 0
 1192 0000 00B5     		push	{lr}
 1193              		.cfi_def_cfa_offset 4
 1194              		.cfi_offset 14, -4
 1195 0002 83B0     		sub	sp, sp, #12
 1196              		.cfi_def_cfa_offset 16
 1197 0004 0190     		str	r0, [sp, #4]
 1198 0006 0091     		str	r1, [sp]
 1199              		.loc 1 405 0
 1200 0008 019B     		ldr	r3, [sp, #4]
 1201 000a 002B     		cmp	r3, #0
 1202 000c 02D0     		beq	.L61
 1203              		.loc 1 405 0 is_stmt 0 discriminator 2
 1204 000e 009B     		ldr	r3, [sp]
 1205 0010 002B     		cmp	r3, #0
 1206 0012 02D1     		bne	.L62
 1207              	.L61:
 1208              		.loc 1 405 0 discriminator 3
 1209 0014 0B48     		ldr	r0, .L64
 1210 0016 FFF7FEFF 		bl	chDbgPanic
 1211              	.L62:
 1212              		.loc 1 406 0 is_stmt 1
 1213 001a 019B     		ldr	r3, [sp, #4]
 1214 001c 1B79     		ldrb	r3, [r3, #4]	@ zero_extendqisi2
 1215 001e 012B     		cmp	r3, #1
 1216 0020 06D0     		beq	.L63
 1217              		.loc 1 406 0 is_stmt 0 discriminator 1
 1218 0022 019B     		ldr	r3, [sp, #4]
 1219 0024 1B79     		ldrb	r3, [r3, #4]	@ zero_extendqisi2
 1220 0026 022B     		cmp	r3, #2
 1221 0028 02D0     		beq	.L63
 1222              		.loc 1 406 0 discriminator 2
 1223 002a 0748     		ldr	r0, .L64+4
 1224 002c FFF7FEFF 		bl	chDbgPanic
 1225              	.L63:
 1226              		.loc 1 409 0 is_stmt 1
 1227 0030 019B     		ldr	r3, [sp, #4]
 1228 0032 009A     		ldr	r2, [sp]
 1229 0034 DA62     		str	r2, [r3, #44]
 1230              		.loc 1 410 0
 1231 0036 019B     		ldr	r3, [sp, #4]
 1232 0038 0222     		movs	r2, #2
 1233 003a 1A71     		strb	r2, [r3, #4]
 1234              		.loc 1 411 0
 1235 003c 03B0     		add	sp, sp, #12
 1236              		.cfi_def_cfa_offset 4
 1237              		@ sp needed
 1238 003e 5DF804FB 		ldr	pc, [sp], #4
ARM GAS  /tmp/ccxbZr1V.s 			page 23


 1239              	.L65:
 1240 0042 00BF     		.align	2
 1241              	.L64:
 1242 0044 00000000 		.word	.LC0
 1243 0048 10000000 		.word	.LC1
 1244              		.cfi_endproc
 1245              	.LFE131:
 1246              		.size	mmcStart, .-mmcStart
 1247 004c AFF30080 		.section	.rodata
 1248 001f 00       		.align	2
 1249              	.LC2:
 1250 0020 226D6D63 		.ascii	"\"mmcStop\"()\000"
 1250      53746F70 
 1250      22282900 
 1251              		.align	2
 1252              	.LC3:
 1253 002c 6D6D6353 		.ascii	"mmcStop(), #1\000"
 1253      746F7028 
 1253      292C2023 
 1253      3100
 1254              		.section	.text.mmcStop,"ax",%progbits
 1255              		.align	2
 1256              		.p2align 4,,15
 1257              		.global	mmcStop
 1258              		.thumb
 1259              		.thumb_func
 1260              		.type	mmcStop, %function
 1261              	mmcStop:
 1262              	.LFB132:
 1263              		.loc 1 420 0
 1264              		.cfi_startproc
 1265              		@ args = 0, pretend = 0, frame = 8
 1266              		@ frame_needed = 0, uses_anonymous_args = 0
 1267 0000 00B5     		push	{lr}
 1268              		.cfi_def_cfa_offset 4
 1269              		.cfi_offset 14, -4
 1270 0002 83B0     		sub	sp, sp, #12
 1271              		.cfi_def_cfa_offset 16
 1272 0004 0190     		str	r0, [sp, #4]
 1273              		.loc 1 422 0
 1274 0006 019B     		ldr	r3, [sp, #4]
 1275 0008 002B     		cmp	r3, #0
 1276 000a 02D1     		bne	.L67
 1277              		.loc 1 422 0 is_stmt 0 discriminator 1
 1278 000c 0C48     		ldr	r0, .L69
 1279 000e FFF7FEFF 		bl	chDbgPanic
 1280              	.L67:
 1281              		.loc 1 423 0 is_stmt 1
 1282 0012 019B     		ldr	r3, [sp, #4]
 1283 0014 1B79     		ldrb	r3, [r3, #4]	@ zero_extendqisi2
 1284 0016 012B     		cmp	r3, #1
 1285 0018 06D0     		beq	.L68
 1286              		.loc 1 423 0 is_stmt 0 discriminator 1
 1287 001a 019B     		ldr	r3, [sp, #4]
 1288 001c 1B79     		ldrb	r3, [r3, #4]	@ zero_extendqisi2
 1289 001e 022B     		cmp	r3, #2
 1290 0020 02D0     		beq	.L68
ARM GAS  /tmp/ccxbZr1V.s 			page 24


 1291              		.loc 1 423 0 discriminator 2
 1292 0022 0848     		ldr	r0, .L69+4
 1293 0024 FFF7FEFF 		bl	chDbgPanic
 1294              	.L68:
 1295              		.loc 1 426 0 is_stmt 1
 1296 0028 019B     		ldr	r3, [sp, #4]
 1297 002a DB6A     		ldr	r3, [r3, #44]
 1298 002c 1B68     		ldr	r3, [r3]
 1299 002e 1846     		mov	r0, r3
 1300 0030 FFF7FEFF 		bl	spiStop
 1301              		.loc 1 427 0
 1302 0034 019B     		ldr	r3, [sp, #4]
 1303 0036 0122     		movs	r2, #1
 1304 0038 1A71     		strb	r2, [r3, #4]
 1305              		.loc 1 428 0
 1306 003a 03B0     		add	sp, sp, #12
 1307              		.cfi_def_cfa_offset 4
 1308              		@ sp needed
 1309 003c 5DF804FB 		ldr	pc, [sp], #4
 1310              	.L70:
 1311              		.align	2
 1312              	.L69:
 1313 0040 20000000 		.word	.LC2
 1314 0044 2C000000 		.word	.LC3
 1315              		.cfi_endproc
 1316              	.LFE132:
 1317              		.size	mmcStop, .-mmcStop
 1318 0048 AFF30080 		.section	.rodata
 1318      AFF30080 
 1319 003a 0000     		.align	2
 1320              	.LC4:
 1321 003c 226D6D63 		.ascii	"\"mmcConnect\"()\000"
 1321      436F6E6E 
 1321      65637422 
 1321      282900
 1322 004b 00       		.align	2
 1323              	.LC5:
 1324 004c 6D6D6343 		.ascii	"mmcConnect(), #1\000"
 1324      6F6E6E65 
 1324      63742829 
 1324      2C202331 
 1324      00
 1325              		.section	.text.mmcConnect,"ax",%progbits
 1326              		.align	2
 1327              		.p2align 4,,15
 1328              		.global	mmcConnect
 1329              		.thumb
 1330              		.thumb_func
 1331              		.type	mmcConnect, %function
 1332              	mmcConnect:
 1333              	.LFB133:
 1334              		.loc 1 447 0
 1335              		.cfi_startproc
 1336              		@ args = 0, pretend = 0, frame = 24
 1337              		@ frame_needed = 0, uses_anonymous_args = 0
 1338 0000 00B5     		push	{lr}
 1339              		.cfi_def_cfa_offset 4
ARM GAS  /tmp/ccxbZr1V.s 			page 25


 1340              		.cfi_offset 14, -4
 1341 0002 87B0     		sub	sp, sp, #28
 1342              		.cfi_def_cfa_offset 32
 1343 0004 0190     		str	r0, [sp, #4]
 1344              		.loc 1 451 0
 1345 0006 019B     		ldr	r3, [sp, #4]
 1346 0008 002B     		cmp	r3, #0
 1347 000a 02D1     		bne	.L72
 1348              		.loc 1 451 0 is_stmt 0 discriminator 1
 1349 000c 7048     		ldr	r0, .L98
 1350 000e FFF7FEFF 		bl	chDbgPanic
 1351              	.L72:
 1352              		.loc 1 453 0 is_stmt 1
 1353 0012 019B     		ldr	r3, [sp, #4]
 1354 0014 1B79     		ldrb	r3, [r3, #4]	@ zero_extendqisi2
 1355 0016 022B     		cmp	r3, #2
 1356 0018 06D0     		beq	.L73
 1357              		.loc 1 453 0 is_stmt 0 discriminator 1
 1358 001a 019B     		ldr	r3, [sp, #4]
 1359 001c 1B79     		ldrb	r3, [r3, #4]	@ zero_extendqisi2
 1360 001e 052B     		cmp	r3, #5
 1361 0020 02D0     		beq	.L73
 1362              		.loc 1 453 0 discriminator 2
 1363 0022 6C48     		ldr	r0, .L98+4
 1364 0024 FFF7FEFF 		bl	chDbgPanic
 1365              	.L73:
 1366              		.loc 1 457 0 is_stmt 1
 1367 0028 019B     		ldr	r3, [sp, #4]
 1368 002a 0322     		movs	r2, #3
 1369 002c 1A71     		strb	r2, [r3, #4]
 1370              		.loc 1 458 0
 1371 002e 019B     		ldr	r3, [sp, #4]
 1372 0030 0022     		movs	r2, #0
 1373 0032 83F83020 		strb	r2, [r3, #48]
 1374              		.loc 1 461 0
 1375 0036 019B     		ldr	r3, [sp, #4]
 1376 0038 DB6A     		ldr	r3, [r3, #44]
 1377 003a 1A68     		ldr	r2, [r3]
 1378 003c 019B     		ldr	r3, [sp, #4]
 1379 003e DB6A     		ldr	r3, [r3, #44]
 1380 0040 5B68     		ldr	r3, [r3, #4]
 1381 0042 1046     		mov	r0, r2
 1382 0044 1946     		mov	r1, r3
 1383 0046 FFF7FEFF 		bl	spiStart
 1384              		.loc 1 462 0
 1385 004a 019B     		ldr	r3, [sp, #4]
 1386 004c DB6A     		ldr	r3, [r3, #44]
 1387 004e 1B68     		ldr	r3, [r3]
 1388 0050 1846     		mov	r0, r3
 1389 0052 1021     		movs	r1, #16
 1390 0054 FFF7FEFF 		bl	spiIgnore
 1391              		.loc 1 465 0
 1392 0058 0023     		movs	r3, #0
 1393 005a 0593     		str	r3, [sp, #20]
 1394              	.L78:
 1395              		.loc 1 467 0
 1396 005c 0198     		ldr	r0, [sp, #4]
ARM GAS  /tmp/ccxbZr1V.s 			page 26


 1397 005e 0021     		movs	r1, #0
 1398 0060 0022     		movs	r2, #0
 1399 0062 FFF7FEFF 		bl	send_command_R1
 1400 0066 0346     		mov	r3, r0
 1401 0068 012B     		cmp	r3, #1
 1402 006a 0BD1     		bne	.L74
 1403              		.loc 1 468 0
 1404 006c 00BF     		nop
 1405              		.loc 1 478 0
 1406 006e 03AB     		add	r3, sp, #12
 1407 0070 0198     		ldr	r0, [sp, #4]
 1408 0072 0821     		movs	r1, #8
 1409 0074 4FF4D572 		mov	r2, #426
 1410 0078 FFF7FEFF 		bl	send_command_R3
 1411 007c 0346     		mov	r3, r0
 1412 007e 052B     		cmp	r3, #5
 1413 0080 3BD0     		beq	.L79
 1414 0082 0AE0     		b	.L95
 1415              	.L74:
 1416              		.loc 1 469 0
 1417 0084 059B     		ldr	r3, [sp, #20]
 1418 0086 0133     		adds	r3, r3, #1
 1419 0088 0593     		str	r3, [sp, #20]
 1420 008a 059B     		ldr	r3, [sp, #20]
 1421 008c 092B     		cmp	r3, #9
 1422 008e 00D9     		bls	.L76
 1423              		.loc 1 470 0
 1424 0090 8FE0     		b	.L77
 1425              	.L76:
 1426              		.loc 1 471 0
 1427 0092 0A20     		movs	r0, #10
 1428 0094 FFF7FEFF 		bl	chThdSleep
 1429              		.loc 1 472 0
 1430 0098 E0E7     		b	.L78
 1431              	.L95:
 1432              		.loc 1 482 0
 1433 009a 0023     		movs	r3, #0
 1434 009c 0593     		str	r3, [sp, #20]
 1435              	.L83:
 1436              		.loc 1 484 0
 1437 009e 0198     		ldr	r0, [sp, #4]
 1438 00a0 3721     		movs	r1, #55
 1439 00a2 0022     		movs	r2, #0
 1440 00a4 FFF7FEFF 		bl	send_command_R1
 1441 00a8 0346     		mov	r3, r0
 1442 00aa 012B     		cmp	r3, #1
 1443 00ac 16D1     		bne	.L80
 1444              		.loc 1 485 0 discriminator 1
 1445 00ae 03AB     		add	r3, sp, #12
 1446 00b0 0198     		ldr	r0, [sp, #4]
 1447 00b2 2921     		movs	r1, #41
 1448 00b4 484A     		ldr	r2, .L98+8
 1449 00b6 FFF7FEFF 		bl	send_command_R3
 1450 00ba 0346     		mov	r3, r0
 1451              		.loc 1 484 0 discriminator 1
 1452 00bc 002B     		cmp	r3, #0
 1453 00be 0DD1     		bne	.L80
ARM GAS  /tmp/ccxbZr1V.s 			page 27


 1454              		.loc 1 487 0
 1455 00c0 00BF     		nop
 1456              		.loc 1 495 0
 1457 00c2 03AB     		add	r3, sp, #12
 1458 00c4 0198     		ldr	r0, [sp, #4]
 1459 00c6 3A21     		movs	r1, #58
 1460 00c8 0022     		movs	r2, #0
 1461 00ca FFF7FEFF 		bl	send_command_R3
 1462              		.loc 1 498 0
 1463 00ce 9DF80C30 		ldrb	r3, [sp, #12]	@ zero_extendqisi2
 1464 00d2 03F04003 		and	r3, r3, #64
 1465 00d6 002B     		cmp	r3, #0
 1466 00d8 0FD0     		beq	.L79
 1467 00da 0AE0     		b	.L96
 1468              	.L80:
 1469              		.loc 1 489 0
 1470 00dc 059B     		ldr	r3, [sp, #20]
 1471 00de 0133     		adds	r3, r3, #1
 1472 00e0 0593     		str	r3, [sp, #20]
 1473 00e2 059B     		ldr	r3, [sp, #20]
 1474 00e4 632B     		cmp	r3, #99
 1475 00e6 00D9     		bls	.L82
 1476              		.loc 1 490 0
 1477 00e8 63E0     		b	.L77
 1478              	.L82:
 1479              		.loc 1 491 0
 1480 00ea 0A20     		movs	r0, #10
 1481 00ec FFF7FEFF 		bl	chThdSleep
 1482              		.loc 1 492 0
 1483 00f0 D5E7     		b	.L83
 1484              	.L96:
 1485              		.loc 1 499 0
 1486 00f2 019B     		ldr	r3, [sp, #4]
 1487 00f4 0122     		movs	r2, #1
 1488 00f6 83F83020 		strb	r2, [r3, #48]
 1489              	.L79:
 1490              		.loc 1 503 0
 1491 00fa 0023     		movs	r3, #0
 1492 00fc 0593     		str	r3, [sp, #20]
 1493              	.L88:
 1494              	.LBB3:
 1495              		.loc 1 505 0
 1496 00fe 0198     		ldr	r0, [sp, #4]
 1497 0100 0121     		movs	r1, #1
 1498 0102 0022     		movs	r2, #0
 1499 0104 FFF7FEFF 		bl	send_command_R1
 1500 0108 0346     		mov	r3, r0
 1501 010a 8DF81330 		strb	r3, [sp, #19]
 1502              		.loc 1 506 0
 1503 010e 9DF81330 		ldrb	r3, [sp, #19]	@ zero_extendqisi2
 1504 0112 002B     		cmp	r3, #0
 1505 0114 14D1     		bne	.L84
 1506              		.loc 1 507 0
 1507 0116 00BF     		nop
 1508              	.LBE3:
 1509              		.loc 1 516 0
 1510 0118 019B     		ldr	r3, [sp, #4]
ARM GAS  /tmp/ccxbZr1V.s 			page 28


 1511 011a DB6A     		ldr	r3, [r3, #44]
 1512 011c 1A68     		ldr	r2, [r3]
 1513 011e 019B     		ldr	r3, [sp, #4]
 1514 0120 DB6A     		ldr	r3, [r3, #44]
 1515 0122 9B68     		ldr	r3, [r3, #8]
 1516 0124 1046     		mov	r0, r2
 1517 0126 1946     		mov	r1, r3
 1518 0128 FFF7FEFF 		bl	spiStart
 1519              		.loc 1 519 0
 1520 012c 0198     		ldr	r0, [sp, #4]
 1521 012e 1021     		movs	r1, #16
 1522 0130 4FF40072 		mov	r2, #512
 1523 0134 FFF7FEFF 		bl	send_command_R1
 1524 0138 0346     		mov	r3, r0
 1525 013a 002B     		cmp	r3, #0
 1526 013c 11D0     		beq	.L89
 1527 013e 0FE0     		b	.L97
 1528              	.L84:
 1529              	.LBB4:
 1530              		.loc 1 508 0
 1531 0140 9DF81330 		ldrb	r3, [sp, #19]	@ zero_extendqisi2
 1532 0144 012B     		cmp	r3, #1
 1533 0146 00D0     		beq	.L86
 1534              		.loc 1 509 0
 1535 0148 33E0     		b	.L77
 1536              	.L86:
 1537              		.loc 1 510 0
 1538 014a 059B     		ldr	r3, [sp, #20]
 1539 014c 0133     		adds	r3, r3, #1
 1540 014e 0593     		str	r3, [sp, #20]
 1541 0150 059B     		ldr	r3, [sp, #20]
 1542 0152 632B     		cmp	r3, #99
 1543 0154 00D9     		bls	.L87
 1544              		.loc 1 511 0
 1545 0156 2CE0     		b	.L77
 1546              	.L87:
 1547              		.loc 1 512 0
 1548 0158 0A20     		movs	r0, #10
 1549 015a FFF7FEFF 		bl	chThdSleep
 1550              	.LBE4:
 1551              		.loc 1 513 0
 1552 015e CEE7     		b	.L88
 1553              	.L97:
 1554              		.loc 1 521 0
 1555 0160 27E0     		b	.L77
 1556              	.L89:
 1557              		.loc 1 524 0
 1558 0162 019B     		ldr	r3, [sp, #4]
 1559 0164 1833     		adds	r3, r3, #24
 1560 0166 0198     		ldr	r0, [sp, #4]
 1561 0168 0921     		movs	r1, #9
 1562 016a 1A46     		mov	r2, r3
 1563 016c FFF7FEFF 		bl	read_CxD
 1564 0170 0346     		mov	r3, r0
 1565 0172 002B     		cmp	r3, #0
 1566 0174 00D0     		beq	.L90
 1567              		.loc 1 525 0
ARM GAS  /tmp/ccxbZr1V.s 			page 29


 1568 0176 1CE0     		b	.L77
 1569              	.L90:
 1570              		.loc 1 526 0
 1571 0178 019B     		ldr	r3, [sp, #4]
 1572 017a 1833     		adds	r3, r3, #24
 1573 017c 1846     		mov	r0, r3
 1574 017e FFF7FEFF 		bl	mmcsdGetCapacity
 1575 0182 0246     		mov	r2, r0
 1576 0184 019B     		ldr	r3, [sp, #4]
 1577 0186 9A62     		str	r2, [r3, #40]
 1578              		.loc 1 527 0
 1579 0188 019B     		ldr	r3, [sp, #4]
 1580 018a 9B6A     		ldr	r3, [r3, #40]
 1581 018c 002B     		cmp	r3, #0
 1582 018e 00D1     		bne	.L91
 1583              		.loc 1 528 0
 1584 0190 0FE0     		b	.L77
 1585              	.L91:
 1586              		.loc 1 530 0
 1587 0192 019B     		ldr	r3, [sp, #4]
 1588 0194 0833     		adds	r3, r3, #8
 1589 0196 0198     		ldr	r0, [sp, #4]
 1590 0198 0A21     		movs	r1, #10
 1591 019a 1A46     		mov	r2, r3
 1592 019c FFF7FEFF 		bl	read_CxD
 1593 01a0 0346     		mov	r3, r0
 1594 01a2 002B     		cmp	r3, #0
 1595 01a4 00D0     		beq	.L92
 1596              		.loc 1 531 0
 1597 01a6 04E0     		b	.L77
 1598              	.L92:
 1599              		.loc 1 533 0
 1600 01a8 019B     		ldr	r3, [sp, #4]
 1601 01aa 0522     		movs	r2, #5
 1602 01ac 1A71     		strb	r2, [r3, #4]
 1603              		.loc 1 534 0
 1604 01ae 0023     		movs	r3, #0
 1605 01b0 09E0     		b	.L94
 1606              	.L77:
 1607              		.loc 1 538 0
 1608 01b2 019B     		ldr	r3, [sp, #4]
 1609 01b4 DB6A     		ldr	r3, [r3, #44]
 1610 01b6 1B68     		ldr	r3, [r3]
 1611 01b8 1846     		mov	r0, r3
 1612 01ba FFF7FEFF 		bl	spiStop
 1613              		.loc 1 539 0
 1614 01be 019B     		ldr	r3, [sp, #4]
 1615 01c0 0222     		movs	r2, #2
 1616 01c2 1A71     		strb	r2, [r3, #4]
 1617              		.loc 1 540 0
 1618 01c4 0123     		movs	r3, #1
 1619              	.L94:
 1620              		.loc 1 541 0 discriminator 1
 1621 01c6 1846     		mov	r0, r3
 1622 01c8 07B0     		add	sp, sp, #28
 1623              		.cfi_def_cfa_offset 4
 1624              		@ sp needed
ARM GAS  /tmp/ccxbZr1V.s 			page 30


 1625 01ca 5DF804FB 		ldr	pc, [sp], #4
 1626              	.L99:
 1627 01ce 00BF     		.align	2
 1628              	.L98:
 1629 01d0 3C000000 		.word	.LC4
 1630 01d4 4C000000 		.word	.LC5
 1631 01d8 AA010040 		.word	1073742250
 1632              		.cfi_endproc
 1633              	.LFE133:
 1634              		.size	mmcConnect, .-mmcConnect
 1635 01dc AFF30080 		.section	.rodata
 1636 005d 000000   		.align	2
 1637              	.LC6:
 1638 0060 226D6D63 		.ascii	"\"mmcDisconnect\"()\000"
 1638      44697363 
 1638      6F6E6E65 
 1638      63742228 
 1638      2900
 1639 0072 0000     		.align	2
 1640              	.LC7:
 1641 0074 6D6D6344 		.ascii	"mmcDisconnect(), #1\000"
 1641      6973636F 
 1641      6E6E6563 
 1641      7428292C 
 1641      20233100 
 1642              		.section	.text.mmcDisconnect,"ax",%progbits
 1643              		.align	2
 1644              		.p2align 4,,15
 1645              		.global	mmcDisconnect
 1646              		.thumb
 1647              		.thumb_func
 1648              		.type	mmcDisconnect, %function
 1649              	mmcDisconnect:
 1650              	.LFB134:
 1651              		.loc 1 555 0
 1652              		.cfi_startproc
 1653              		@ args = 0, pretend = 0, frame = 8
 1654              		@ frame_needed = 0, uses_anonymous_args = 0
 1655 0000 00B5     		push	{lr}
 1656              		.cfi_def_cfa_offset 4
 1657              		.cfi_offset 14, -4
 1658 0002 83B0     		sub	sp, sp, #12
 1659              		.cfi_def_cfa_offset 16
 1660 0004 0190     		str	r0, [sp, #4]
 1661              		.loc 1 557 0
 1662 0006 019B     		ldr	r3, [sp, #4]
 1663 0008 002B     		cmp	r3, #0
 1664 000a 02D1     		bne	.L101
 1665              		.loc 1 557 0 is_stmt 0 discriminator 1
 1666 000c 2048     		ldr	r0, .L105
 1667 000e FFF7FEFF 		bl	chDbgPanic
 1668              	.L101:
 1669              	.LBB5:
 1670              		.loc 1 559 0 is_stmt 1
 1671 0012 2023     		movs	r3, #32
 1672              	@ 559 "/home/ergae/r2p-sdk/core/ChibiOS/os/hal/src/mmc_spi.c" 1
 1673 0014 83F31188 		msr     BASEPRI, r3
ARM GAS  /tmp/ccxbZr1V.s 			page 31


 1674              	@ 0 "" 2
 1675              		.thumb
 1676              	.LBE5:
 1677 0018 FFF7FEFF 		bl	dbg_check_lock
 1678              		.loc 1 560 0
 1679 001c 019B     		ldr	r3, [sp, #4]
 1680 001e 1B79     		ldrb	r3, [r3, #4]	@ zero_extendqisi2
 1681 0020 022B     		cmp	r3, #2
 1682 0022 06D0     		beq	.L102
 1683              		.loc 1 560 0 is_stmt 0 discriminator 1
 1684 0024 019B     		ldr	r3, [sp, #4]
 1685 0026 1B79     		ldrb	r3, [r3, #4]	@ zero_extendqisi2
 1686 0028 052B     		cmp	r3, #5
 1687 002a 02D0     		beq	.L102
 1688              		.loc 1 560 0 discriminator 2
 1689 002c 1948     		ldr	r0, .L105+4
 1690 002e FFF7FEFF 		bl	chDbgPanic
 1691              	.L102:
 1692              		.loc 1 562 0 is_stmt 1
 1693 0032 019B     		ldr	r3, [sp, #4]
 1694 0034 1B79     		ldrb	r3, [r3, #4]	@ zero_extendqisi2
 1695 0036 022B     		cmp	r3, #2
 1696 0038 06D1     		bne	.L103
 1697              		.loc 1 563 0
 1698 003a FFF7FEFF 		bl	dbg_check_unlock
 1699              	.LBB6:
 1700 003e 0023     		movs	r3, #0
 1701              	@ 563 "/home/ergae/r2p-sdk/core/ChibiOS/os/hal/src/mmc_spi.c" 1
 1702 0040 83F31188 		msr     BASEPRI, r3
 1703              	@ 0 "" 2
 1704              		.thumb
 1705              	.LBE6:
 1706              		.loc 1 564 0
 1707 0044 0023     		movs	r3, #0
 1708 0046 1EE0     		b	.L104
 1709              	.L103:
 1710              		.loc 1 566 0
 1711 0048 019B     		ldr	r3, [sp, #4]
 1712 004a 0422     		movs	r2, #4
 1713 004c 1A71     		strb	r2, [r3, #4]
 1714              		.loc 1 567 0
 1715 004e FFF7FEFF 		bl	dbg_check_unlock
 1716              	.LBB7:
 1717 0052 0023     		movs	r3, #0
 1718              	@ 567 "/home/ergae/r2p-sdk/core/ChibiOS/os/hal/src/mmc_spi.c" 1
 1719 0054 83F31188 		msr     BASEPRI, r3
 1720              	@ 0 "" 2
 1721              		.thumb
 1722              	.LBE7:
 1723              		.loc 1 570 0
 1724 0058 019B     		ldr	r3, [sp, #4]
 1725 005a DB6A     		ldr	r3, [r3, #44]
 1726 005c 1A68     		ldr	r2, [r3]
 1727 005e 019B     		ldr	r3, [sp, #4]
 1728 0060 DB6A     		ldr	r3, [r3, #44]
 1729 0062 9B68     		ldr	r3, [r3, #8]
 1730 0064 1046     		mov	r0, r2
ARM GAS  /tmp/ccxbZr1V.s 			page 32


 1731 0066 1946     		mov	r1, r3
 1732 0068 FFF7FEFF 		bl	spiStart
 1733              		.loc 1 571 0
 1734 006c 0198     		ldr	r0, [sp, #4]
 1735 006e FFF7FEFF 		bl	sync
 1736              		.loc 1 573 0
 1737 0072 019B     		ldr	r3, [sp, #4]
 1738 0074 DB6A     		ldr	r3, [r3, #44]
 1739 0076 1B68     		ldr	r3, [r3]
 1740 0078 1846     		mov	r0, r3
 1741 007a FFF7FEFF 		bl	spiStop
 1742              		.loc 1 574 0
 1743 007e 019B     		ldr	r3, [sp, #4]
 1744 0080 0222     		movs	r2, #2
 1745 0082 1A71     		strb	r2, [r3, #4]
 1746              		.loc 1 575 0
 1747 0084 0023     		movs	r3, #0
 1748              	.L104:
 1749              		.loc 1 576 0
 1750 0086 1846     		mov	r0, r3
 1751 0088 03B0     		add	sp, sp, #12
 1752              		.cfi_def_cfa_offset 4
 1753              		@ sp needed
 1754 008a 5DF804FB 		ldr	pc, [sp], #4
 1755              	.L106:
 1756 008e 00BF     		.align	2
 1757              	.L105:
 1758 0090 60000000 		.word	.LC6
 1759 0094 74000000 		.word	.LC7
 1760              		.cfi_endproc
 1761              	.LFE134:
 1762              		.size	mmcDisconnect, .-mmcDisconnect
 1763 0098 AFF30080 		.section	.rodata
 1763      AFF30080 
 1764              		.align	2
 1765              	.LC8:
 1766 0088 226D6D63 		.ascii	"\"mmcStartSequentialRead\"()\000"
 1766      53746172 
 1766      74536571 
 1766      75656E74 
 1766      69616C52 
 1767 00a3 00       		.align	2
 1768              	.LC9:
 1769 00a4 6D6D6353 		.ascii	"mmcStartSequentialRead(), #1\000"
 1769      74617274 
 1769      53657175 
 1769      656E7469 
 1769      616C5265 
 1770              		.section	.text.mmcStartSequentialRead,"ax",%progbits
 1771              		.align	2
 1772              		.p2align 4,,15
 1773              		.global	mmcStartSequentialRead
 1774              		.thumb
 1775              		.thumb_func
 1776              		.type	mmcStartSequentialRead, %function
 1777              	mmcStartSequentialRead:
 1778              	.LFB135:
ARM GAS  /tmp/ccxbZr1V.s 			page 33


 1779              		.loc 1 590 0
 1780              		.cfi_startproc
 1781              		@ args = 0, pretend = 0, frame = 8
 1782              		@ frame_needed = 0, uses_anonymous_args = 0
 1783 0000 00B5     		push	{lr}
 1784              		.cfi_def_cfa_offset 4
 1785              		.cfi_offset 14, -4
 1786 0002 83B0     		sub	sp, sp, #12
 1787              		.cfi_def_cfa_offset 16
 1788 0004 0190     		str	r0, [sp, #4]
 1789 0006 0091     		str	r1, [sp]
 1790              		.loc 1 592 0
 1791 0008 019B     		ldr	r3, [sp, #4]
 1792 000a 002B     		cmp	r3, #0
 1793 000c 02D1     		bne	.L108
 1794              		.loc 1 592 0 is_stmt 0 discriminator 1
 1795 000e 2248     		ldr	r0, .L114
 1796 0010 FFF7FEFF 		bl	chDbgPanic
 1797              	.L108:
 1798              		.loc 1 593 0 is_stmt 1
 1799 0014 019B     		ldr	r3, [sp, #4]
 1800 0016 1B79     		ldrb	r3, [r3, #4]	@ zero_extendqisi2
 1801 0018 052B     		cmp	r3, #5
 1802 001a 02D0     		beq	.L109
 1803              		.loc 1 593 0 is_stmt 0 discriminator 1
 1804 001c 1F48     		ldr	r0, .L114+4
 1805 001e FFF7FEFF 		bl	chDbgPanic
 1806              	.L109:
 1807              		.loc 1 597 0 is_stmt 1
 1808 0022 019B     		ldr	r3, [sp, #4]
 1809 0024 0622     		movs	r2, #6
 1810 0026 1A71     		strb	r2, [r3, #4]
 1811              		.loc 1 601 0
 1812 0028 019B     		ldr	r3, [sp, #4]
 1813 002a DB6A     		ldr	r3, [r3, #44]
 1814 002c 1A68     		ldr	r2, [r3]
 1815 002e 019B     		ldr	r3, [sp, #4]
 1816 0030 DB6A     		ldr	r3, [r3, #44]
 1817 0032 9B68     		ldr	r3, [r3, #8]
 1818 0034 1046     		mov	r0, r2
 1819 0036 1946     		mov	r1, r3
 1820 0038 FFF7FEFF 		bl	spiStart
 1821              		.loc 1 602 0
 1822 003c 019B     		ldr	r3, [sp, #4]
 1823 003e DB6A     		ldr	r3, [r3, #44]
 1824 0040 1B68     		ldr	r3, [r3]
 1825 0042 1846     		mov	r0, r3
 1826 0044 FFF7FEFF 		bl	spiSelect
 1827              		.loc 1 604 0
 1828 0048 019B     		ldr	r3, [sp, #4]
 1829 004a 93F83030 		ldrb	r3, [r3, #48]	@ zero_extendqisi2
 1830 004e 002B     		cmp	r3, #0
 1831 0050 05D0     		beq	.L110
 1832              		.loc 1 605 0
 1833 0052 0198     		ldr	r0, [sp, #4]
 1834 0054 1221     		movs	r1, #18
 1835 0056 009A     		ldr	r2, [sp]
ARM GAS  /tmp/ccxbZr1V.s 			page 34


 1836 0058 FFF7FEFF 		bl	send_hdr
 1837 005c 06E0     		b	.L111
 1838              	.L110:
 1839              		.loc 1 607 0
 1840 005e 009B     		ldr	r3, [sp]
 1841 0060 5B02     		lsls	r3, r3, #9
 1842 0062 0198     		ldr	r0, [sp, #4]
 1843 0064 1221     		movs	r1, #18
 1844 0066 1A46     		mov	r2, r3
 1845 0068 FFF7FEFF 		bl	send_hdr
 1846              	.L111:
 1847              		.loc 1 609 0
 1848 006c 0198     		ldr	r0, [sp, #4]
 1849 006e FFF7FEFF 		bl	recvr1
 1850 0072 0346     		mov	r3, r0
 1851 0074 002B     		cmp	r3, #0
 1852 0076 0AD0     		beq	.L112
 1853              		.loc 1 610 0
 1854 0078 019B     		ldr	r3, [sp, #4]
 1855 007a DB6A     		ldr	r3, [r3, #44]
 1856 007c 1B68     		ldr	r3, [r3]
 1857 007e 1846     		mov	r0, r3
 1858 0080 FFF7FEFF 		bl	spiStop
 1859              		.loc 1 611 0
 1860 0084 019B     		ldr	r3, [sp, #4]
 1861 0086 0522     		movs	r2, #5
 1862 0088 1A71     		strb	r2, [r3, #4]
 1863              		.loc 1 612 0
 1864 008a 0123     		movs	r3, #1
 1865 008c 00E0     		b	.L113
 1866              	.L112:
 1867              		.loc 1 614 0
 1868 008e 0023     		movs	r3, #0
 1869              	.L113:
 1870              		.loc 1 615 0
 1871 0090 1846     		mov	r0, r3
 1872 0092 03B0     		add	sp, sp, #12
 1873              		.cfi_def_cfa_offset 4
 1874              		@ sp needed
 1875 0094 5DF804FB 		ldr	pc, [sp], #4
 1876              	.L115:
 1877              		.align	2
 1878              	.L114:
 1879 0098 88000000 		.word	.LC8
 1880 009c A4000000 		.word	.LC9
 1881              		.cfi_endproc
 1882              	.LFE135:
 1883              		.size	mmcStartSequentialRead, .-mmcStartSequentialRead
 1884              		.section	.rodata
 1885 00c1 000000   		.align	2
 1886              	.LC10:
 1887 00c4 226D6D63 		.ascii	"\"mmcSequentialRead\"()\000"
 1887      53657175 
 1887      656E7469 
 1887      616C5265 
 1887      61642228 
 1888              		.section	.text.mmcSequentialRead,"ax",%progbits
ARM GAS  /tmp/ccxbZr1V.s 			page 35


 1889              		.align	2
 1890              		.p2align 4,,15
 1891              		.global	mmcSequentialRead
 1892              		.thumb
 1893              		.thumb_func
 1894              		.type	mmcSequentialRead, %function
 1895              	mmcSequentialRead:
 1896              	.LFB136:
 1897              		.loc 1 629 0
 1898              		.cfi_startproc
 1899              		@ args = 0, pretend = 0, frame = 16
 1900              		@ frame_needed = 0, uses_anonymous_args = 0
 1901 0000 00B5     		push	{lr}
 1902              		.cfi_def_cfa_offset 4
 1903              		.cfi_offset 14, -4
 1904 0002 85B0     		sub	sp, sp, #20
 1905              		.cfi_def_cfa_offset 24
 1906 0004 0190     		str	r0, [sp, #4]
 1907 0006 0091     		str	r1, [sp]
 1908              		.loc 1 632 0
 1909 0008 019B     		ldr	r3, [sp, #4]
 1910 000a 002B     		cmp	r3, #0
 1911 000c 02D0     		beq	.L117
 1912              		.loc 1 632 0 is_stmt 0 discriminator 2
 1913 000e 009B     		ldr	r3, [sp]
 1914 0010 002B     		cmp	r3, #0
 1915 0012 02D1     		bne	.L118
 1916              	.L117:
 1917              		.loc 1 632 0 discriminator 3
 1918 0014 2248     		ldr	r0, .L124
 1919 0016 FFF7FEFF 		bl	chDbgPanic
 1920              	.L118:
 1921              		.loc 1 634 0 is_stmt 1
 1922 001a 019B     		ldr	r3, [sp, #4]
 1923 001c 1B79     		ldrb	r3, [r3, #4]	@ zero_extendqisi2
 1924 001e 062B     		cmp	r3, #6
 1925 0020 01D0     		beq	.L119
 1926              		.loc 1 635 0
 1927 0022 0123     		movs	r3, #1
 1928 0024 38E0     		b	.L120
 1929              	.L119:
 1930              		.loc 1 637 0
 1931 0026 0023     		movs	r3, #0
 1932 0028 0393     		str	r3, [sp, #12]
 1933 002a 20E0     		b	.L121
 1934              	.L123:
 1935              		.loc 1 638 0
 1936 002c 019B     		ldr	r3, [sp, #4]
 1937 002e DB6A     		ldr	r3, [r3, #44]
 1938 0030 1B68     		ldr	r3, [r3]
 1939 0032 1846     		mov	r0, r3
 1940 0034 0121     		movs	r1, #1
 1941 0036 009A     		ldr	r2, [sp]
 1942 0038 FFF7FEFF 		bl	spiReceive
 1943              		.loc 1 639 0
 1944 003c 009B     		ldr	r3, [sp]
 1945 003e 1B78     		ldrb	r3, [r3]	@ zero_extendqisi2
ARM GAS  /tmp/ccxbZr1V.s 			page 36


 1946 0040 FE2B     		cmp	r3, #254
 1947 0042 11D1     		bne	.L122
 1948              		.loc 1 640 0
 1949 0044 019B     		ldr	r3, [sp, #4]
 1950 0046 DB6A     		ldr	r3, [r3, #44]
 1951 0048 1B68     		ldr	r3, [r3]
 1952 004a 1846     		mov	r0, r3
 1953 004c 4FF40071 		mov	r1, #512
 1954 0050 009A     		ldr	r2, [sp]
 1955 0052 FFF7FEFF 		bl	spiReceive
 1956              		.loc 1 642 0
 1957 0056 019B     		ldr	r3, [sp, #4]
 1958 0058 DB6A     		ldr	r3, [r3, #44]
 1959 005a 1B68     		ldr	r3, [r3]
 1960 005c 1846     		mov	r0, r3
 1961 005e 0221     		movs	r1, #2
 1962 0060 FFF7FEFF 		bl	spiIgnore
 1963              		.loc 1 643 0
 1964 0064 0023     		movs	r3, #0
 1965 0066 17E0     		b	.L120
 1966              	.L122:
 1967              		.loc 1 637 0 discriminator 2
 1968 0068 039B     		ldr	r3, [sp, #12]
 1969 006a 0133     		adds	r3, r3, #1
 1970 006c 0393     		str	r3, [sp, #12]
 1971              	.L121:
 1972              		.loc 1 637 0 is_stmt 0 discriminator 1
 1973 006e 039B     		ldr	r3, [sp, #12]
 1974 0070 42F20F72 		movw	r2, #9999
 1975 0074 9342     		cmp	r3, r2
 1976 0076 D9DD     		ble	.L123
 1977              		.loc 1 647 0 is_stmt 1
 1978 0078 019B     		ldr	r3, [sp, #4]
 1979 007a DB6A     		ldr	r3, [r3, #44]
 1980 007c 1B68     		ldr	r3, [r3]
 1981 007e 1846     		mov	r0, r3
 1982 0080 FFF7FEFF 		bl	spiUnselect
 1983              		.loc 1 648 0
 1984 0084 019B     		ldr	r3, [sp, #4]
 1985 0086 DB6A     		ldr	r3, [r3, #44]
 1986 0088 1B68     		ldr	r3, [r3]
 1987 008a 1846     		mov	r0, r3
 1988 008c FFF7FEFF 		bl	spiStop
 1989              		.loc 1 649 0
 1990 0090 019B     		ldr	r3, [sp, #4]
 1991 0092 0522     		movs	r2, #5
 1992 0094 1A71     		strb	r2, [r3, #4]
 1993              		.loc 1 650 0
 1994 0096 0123     		movs	r3, #1
 1995              	.L120:
 1996              		.loc 1 651 0
 1997 0098 1846     		mov	r0, r3
 1998 009a 05B0     		add	sp, sp, #20
 1999              		.cfi_def_cfa_offset 4
 2000              		@ sp needed
 2001 009c 5DF804FB 		ldr	pc, [sp], #4
 2002              	.L125:
ARM GAS  /tmp/ccxbZr1V.s 			page 37


 2003              		.align	2
 2004              	.L124:
 2005 00a0 C4000000 		.word	.LC10
 2006              		.cfi_endproc
 2007              	.LFE136:
 2008              		.size	mmcSequentialRead, .-mmcSequentialRead
 2009 00a4 AFF30080 		.section	.rodata
 2009      AFF30080 
 2009      AFF30080 
 2010 00da 0000     		.align	2
 2011              	.LC11:
 2012 00dc 226D6D63 		.ascii	"\"mmcStopSequentialRead\"()\000"
 2012      53746F70 
 2012      53657175 
 2012      656E7469 
 2012      616C5265 
 2013              		.section	.text.mmcStopSequentialRead,"ax",%progbits
 2014              		.align	2
 2015              		.p2align 4,,15
 2016              		.global	mmcStopSequentialRead
 2017              		.thumb
 2018              		.thumb_func
 2019              		.type	mmcStopSequentialRead, %function
 2020              	mmcStopSequentialRead:
 2021              	.LFB137:
 2022              		.loc 1 664 0
 2023              		.cfi_startproc
 2024              		@ args = 0, pretend = 0, frame = 8
 2025              		@ frame_needed = 0, uses_anonymous_args = 0
 2026 0000 00B5     		push	{lr}
 2027              		.cfi_def_cfa_offset 4
 2028              		.cfi_offset 14, -4
 2029 0002 83B0     		sub	sp, sp, #12
 2030              		.cfi_def_cfa_offset 16
 2031 0004 0190     		str	r0, [sp, #4]
 2032              		.loc 1 668 0
 2033 0006 019B     		ldr	r3, [sp, #4]
 2034 0008 002B     		cmp	r3, #0
 2035 000a 02D1     		bne	.L127
 2036              		.loc 1 668 0 is_stmt 0 discriminator 1
 2037 000c 1048     		ldr	r0, .L130
 2038 000e FFF7FEFF 		bl	chDbgPanic
 2039              	.L127:
 2040              		.loc 1 670 0 is_stmt 1
 2041 0012 019B     		ldr	r3, [sp, #4]
 2042 0014 1B79     		ldrb	r3, [r3, #4]	@ zero_extendqisi2
 2043 0016 062B     		cmp	r3, #6
 2044 0018 01D0     		beq	.L128
 2045              		.loc 1 671 0
 2046 001a 0123     		movs	r3, #1
 2047 001c 14E0     		b	.L129
 2048              	.L128:
 2049              		.loc 1 673 0
 2050 001e 019B     		ldr	r3, [sp, #4]
 2051 0020 DB6A     		ldr	r3, [r3, #44]
 2052 0022 1B68     		ldr	r3, [r3]
 2053 0024 1846     		mov	r0, r3
ARM GAS  /tmp/ccxbZr1V.s 			page 38


 2054 0026 0721     		movs	r1, #7
 2055 0028 0A4A     		ldr	r2, .L130+4
 2056 002a FFF7FEFF 		bl	spiSend
 2057              		.loc 1 676 0
 2058 002e 0198     		ldr	r0, [sp, #4]
 2059 0030 FFF7FEFF 		bl	recvr1
 2060              		.loc 1 679 0
 2061 0034 019B     		ldr	r3, [sp, #4]
 2062 0036 DB6A     		ldr	r3, [r3, #44]
 2063 0038 1B68     		ldr	r3, [r3]
 2064 003a 1846     		mov	r0, r3
 2065 003c FFF7FEFF 		bl	spiUnselect
 2066              		.loc 1 680 0
 2067 0040 019B     		ldr	r3, [sp, #4]
 2068 0042 0522     		movs	r2, #5
 2069 0044 1A71     		strb	r2, [r3, #4]
 2070              		.loc 1 681 0
 2071 0046 0023     		movs	r3, #0
 2072              	.L129:
 2073              		.loc 1 682 0
 2074 0048 1846     		mov	r0, r3
 2075 004a 03B0     		add	sp, sp, #12
 2076              		.cfi_def_cfa_offset 4
 2077              		@ sp needed
 2078 004c 5DF804FB 		ldr	pc, [sp], #4
 2079              	.L131:
 2080              		.align	2
 2081              	.L130:
 2082 0050 DC000000 		.word	.LC11
 2083 0054 00000000 		.word	stopcmd.7337
 2084              		.cfi_endproc
 2085              	.LFE137:
 2086              		.size	mmcStopSequentialRead, .-mmcStopSequentialRead
 2087 0058 AFF30080 		.section	.rodata
 2087      AFF30080 
 2088 00f6 0000     		.align	2
 2089              	.LC12:
 2090 00f8 226D6D63 		.ascii	"\"mmcStartSequentialWrite\"()\000"
 2090      53746172 
 2090      74536571 
 2090      75656E74 
 2090      69616C57 
 2091              		.align	2
 2092              	.LC13:
 2093 0114 6D6D6353 		.ascii	"mmcStartSequentialWrite(), #1\000"
 2093      74617274 
 2093      53657175 
 2093      656E7469 
 2093      616C5772 
 2094              		.section	.text.mmcStartSequentialWrite,"ax",%progbits
 2095              		.align	2
 2096              		.p2align 4,,15
 2097              		.global	mmcStartSequentialWrite
 2098              		.thumb
 2099              		.thumb_func
 2100              		.type	mmcStartSequentialWrite, %function
 2101              	mmcStartSequentialWrite:
ARM GAS  /tmp/ccxbZr1V.s 			page 39


 2102              	.LFB138:
 2103              		.loc 1 696 0
 2104              		.cfi_startproc
 2105              		@ args = 0, pretend = 0, frame = 8
 2106              		@ frame_needed = 0, uses_anonymous_args = 0
 2107 0000 00B5     		push	{lr}
 2108              		.cfi_def_cfa_offset 4
 2109              		.cfi_offset 14, -4
 2110 0002 83B0     		sub	sp, sp, #12
 2111              		.cfi_def_cfa_offset 16
 2112 0004 0190     		str	r0, [sp, #4]
 2113 0006 0091     		str	r1, [sp]
 2114              		.loc 1 698 0
 2115 0008 019B     		ldr	r3, [sp, #4]
 2116 000a 002B     		cmp	r3, #0
 2117 000c 02D1     		bne	.L133
 2118              		.loc 1 698 0 is_stmt 0 discriminator 1
 2119 000e 2248     		ldr	r0, .L139
 2120 0010 FFF7FEFF 		bl	chDbgPanic
 2121              	.L133:
 2122              		.loc 1 699 0 is_stmt 1
 2123 0014 019B     		ldr	r3, [sp, #4]
 2124 0016 1B79     		ldrb	r3, [r3, #4]	@ zero_extendqisi2
 2125 0018 052B     		cmp	r3, #5
 2126 001a 02D0     		beq	.L134
 2127              		.loc 1 699 0 is_stmt 0 discriminator 1
 2128 001c 1F48     		ldr	r0, .L139+4
 2129 001e FFF7FEFF 		bl	chDbgPanic
 2130              	.L134:
 2131              		.loc 1 703 0 is_stmt 1
 2132 0022 019B     		ldr	r3, [sp, #4]
 2133 0024 0722     		movs	r2, #7
 2134 0026 1A71     		strb	r2, [r3, #4]
 2135              		.loc 1 705 0
 2136 0028 019B     		ldr	r3, [sp, #4]
 2137 002a DB6A     		ldr	r3, [r3, #44]
 2138 002c 1A68     		ldr	r2, [r3]
 2139 002e 019B     		ldr	r3, [sp, #4]
 2140 0030 DB6A     		ldr	r3, [r3, #44]
 2141 0032 9B68     		ldr	r3, [r3, #8]
 2142 0034 1046     		mov	r0, r2
 2143 0036 1946     		mov	r1, r3
 2144 0038 FFF7FEFF 		bl	spiStart
 2145              		.loc 1 706 0
 2146 003c 019B     		ldr	r3, [sp, #4]
 2147 003e DB6A     		ldr	r3, [r3, #44]
 2148 0040 1B68     		ldr	r3, [r3]
 2149 0042 1846     		mov	r0, r3
 2150 0044 FFF7FEFF 		bl	spiSelect
 2151              		.loc 1 707 0
 2152 0048 019B     		ldr	r3, [sp, #4]
 2153 004a 93F83030 		ldrb	r3, [r3, #48]	@ zero_extendqisi2
 2154 004e 002B     		cmp	r3, #0
 2155 0050 05D0     		beq	.L135
 2156              		.loc 1 708 0
 2157 0052 0198     		ldr	r0, [sp, #4]
 2158 0054 1921     		movs	r1, #25
ARM GAS  /tmp/ccxbZr1V.s 			page 40


 2159 0056 009A     		ldr	r2, [sp]
 2160 0058 FFF7FEFF 		bl	send_hdr
 2161 005c 06E0     		b	.L136
 2162              	.L135:
 2163              		.loc 1 710 0
 2164 005e 009B     		ldr	r3, [sp]
 2165 0060 5B02     		lsls	r3, r3, #9
 2166 0062 0198     		ldr	r0, [sp, #4]
 2167 0064 1921     		movs	r1, #25
 2168 0066 1A46     		mov	r2, r3
 2169 0068 FFF7FEFF 		bl	send_hdr
 2170              	.L136:
 2171              		.loc 1 713 0
 2172 006c 0198     		ldr	r0, [sp, #4]
 2173 006e FFF7FEFF 		bl	recvr1
 2174 0072 0346     		mov	r3, r0
 2175 0074 002B     		cmp	r3, #0
 2176 0076 0AD0     		beq	.L137
 2177              		.loc 1 714 0
 2178 0078 019B     		ldr	r3, [sp, #4]
 2179 007a DB6A     		ldr	r3, [r3, #44]
 2180 007c 1B68     		ldr	r3, [r3]
 2181 007e 1846     		mov	r0, r3
 2182 0080 FFF7FEFF 		bl	spiStop
 2183              		.loc 1 715 0
 2184 0084 019B     		ldr	r3, [sp, #4]
 2185 0086 0522     		movs	r2, #5
 2186 0088 1A71     		strb	r2, [r3, #4]
 2187              		.loc 1 716 0
 2188 008a 0123     		movs	r3, #1
 2189 008c 00E0     		b	.L138
 2190              	.L137:
 2191              		.loc 1 718 0
 2192 008e 0023     		movs	r3, #0
 2193              	.L138:
 2194              		.loc 1 719 0
 2195 0090 1846     		mov	r0, r3
 2196 0092 03B0     		add	sp, sp, #12
 2197              		.cfi_def_cfa_offset 4
 2198              		@ sp needed
 2199 0094 5DF804FB 		ldr	pc, [sp], #4
 2200              	.L140:
 2201              		.align	2
 2202              	.L139:
 2203 0098 F8000000 		.word	.LC12
 2204 009c 14010000 		.word	.LC13
 2205              		.cfi_endproc
 2206              	.LFE138:
 2207              		.size	mmcStartSequentialWrite, .-mmcStartSequentialWrite
 2208              		.section	.rodata
 2209 0132 0000     		.align	2
 2210              	.LC14:
 2211 0134 226D6D63 		.ascii	"\"mmcSequentialWrite\"()\000"
 2211      53657175 
 2211      656E7469 
 2211      616C5772 
 2211      69746522 
ARM GAS  /tmp/ccxbZr1V.s 			page 41


 2212              		.section	.text.mmcSequentialWrite,"ax",%progbits
 2213              		.align	2
 2214              		.p2align 4,,15
 2215              		.global	mmcSequentialWrite
 2216              		.thumb
 2217              		.thumb_func
 2218              		.type	mmcSequentialWrite, %function
 2219              	mmcSequentialWrite:
 2220              	.LFB139:
 2221              		.loc 1 733 0
 2222              		.cfi_startproc
 2223              		@ args = 0, pretend = 0, frame = 16
 2224              		@ frame_needed = 0, uses_anonymous_args = 0
 2225 0000 00B5     		push	{lr}
 2226              		.cfi_def_cfa_offset 4
 2227              		.cfi_offset 14, -4
 2228 0002 85B0     		sub	sp, sp, #20
 2229              		.cfi_def_cfa_offset 24
 2230 0004 0190     		str	r0, [sp, #4]
 2231 0006 0091     		str	r1, [sp]
 2232              		.loc 1 737 0
 2233 0008 019B     		ldr	r3, [sp, #4]
 2234 000a 002B     		cmp	r3, #0
 2235 000c 02D0     		beq	.L142
 2236              		.loc 1 737 0 is_stmt 0 discriminator 2
 2237 000e 009B     		ldr	r3, [sp]
 2238 0010 002B     		cmp	r3, #0
 2239 0012 02D1     		bne	.L143
 2240              	.L142:
 2241              		.loc 1 737 0 discriminator 3
 2242 0014 2448     		ldr	r0, .L148
 2243 0016 FFF7FEFF 		bl	chDbgPanic
 2244              	.L143:
 2245              		.loc 1 739 0 is_stmt 1
 2246 001a 019B     		ldr	r3, [sp, #4]
 2247 001c 1B79     		ldrb	r3, [r3, #4]	@ zero_extendqisi2
 2248 001e 072B     		cmp	r3, #7
 2249 0020 01D0     		beq	.L144
 2250              		.loc 1 740 0
 2251 0022 0123     		movs	r3, #1
 2252 0024 3BE0     		b	.L147
 2253              	.L144:
 2254              		.loc 1 742 0
 2255 0026 019B     		ldr	r3, [sp, #4]
 2256 0028 DB6A     		ldr	r3, [r3, #44]
 2257 002a 1B68     		ldr	r3, [r3]
 2258 002c 1846     		mov	r0, r3
 2259 002e 0221     		movs	r1, #2
 2260 0030 1E4A     		ldr	r2, .L148+4
 2261 0032 FFF7FEFF 		bl	spiSend
 2262              		.loc 1 743 0
 2263 0036 019B     		ldr	r3, [sp, #4]
 2264 0038 DB6A     		ldr	r3, [r3, #44]
 2265 003a 1B68     		ldr	r3, [r3]
 2266 003c 1846     		mov	r0, r3
 2267 003e 4FF40071 		mov	r1, #512
 2268 0042 009A     		ldr	r2, [sp]
ARM GAS  /tmp/ccxbZr1V.s 			page 42


 2269 0044 FFF7FEFF 		bl	spiSend
 2270              		.loc 1 744 0
 2271 0048 019B     		ldr	r3, [sp, #4]
 2272 004a DB6A     		ldr	r3, [r3, #44]
 2273 004c 1B68     		ldr	r3, [r3]
 2274 004e 1846     		mov	r0, r3
 2275 0050 0221     		movs	r1, #2
 2276 0052 FFF7FEFF 		bl	spiIgnore
 2277              		.loc 1 745 0
 2278 0056 019B     		ldr	r3, [sp, #4]
 2279 0058 DB6A     		ldr	r3, [r3, #44]
 2280 005a 1A68     		ldr	r2, [r3]
 2281 005c 03AB     		add	r3, sp, #12
 2282 005e 1046     		mov	r0, r2
 2283 0060 0121     		movs	r1, #1
 2284 0062 1A46     		mov	r2, r3
 2285 0064 FFF7FEFF 		bl	spiReceive
 2286              		.loc 1 746 0
 2287 0068 9DF80C30 		ldrb	r3, [sp, #12]	@ zero_extendqisi2
 2288 006c 03F01F03 		and	r3, r3, #31
 2289 0070 052B     		cmp	r3, #5
 2290 0072 04D1     		bne	.L146
 2291              		.loc 1 747 0
 2292 0074 0198     		ldr	r0, [sp, #4]
 2293 0076 FFF7FEFF 		bl	wait
 2294              		.loc 1 748 0
 2295 007a 0023     		movs	r3, #0
 2296 007c 0FE0     		b	.L147
 2297              	.L146:
 2298              		.loc 1 752 0
 2299 007e 019B     		ldr	r3, [sp, #4]
 2300 0080 DB6A     		ldr	r3, [r3, #44]
 2301 0082 1B68     		ldr	r3, [r3]
 2302 0084 1846     		mov	r0, r3
 2303 0086 FFF7FEFF 		bl	spiUnselect
 2304              		.loc 1 753 0
 2305 008a 019B     		ldr	r3, [sp, #4]
 2306 008c DB6A     		ldr	r3, [r3, #44]
 2307 008e 1B68     		ldr	r3, [r3]
 2308 0090 1846     		mov	r0, r3
 2309 0092 FFF7FEFF 		bl	spiStop
 2310              		.loc 1 754 0
 2311 0096 019B     		ldr	r3, [sp, #4]
 2312 0098 0522     		movs	r2, #5
 2313 009a 1A71     		strb	r2, [r3, #4]
 2314              		.loc 1 755 0
 2315 009c 0123     		movs	r3, #1
 2316              	.L147:
 2317              		.loc 1 756 0 discriminator 1
 2318 009e 1846     		mov	r0, r3
 2319 00a0 05B0     		add	sp, sp, #20
 2320              		.cfi_def_cfa_offset 4
 2321              		@ sp needed
 2322 00a2 5DF804FB 		ldr	pc, [sp], #4
 2323              	.L149:
 2324 00a6 00BF     		.align	2
 2325              	.L148:
ARM GAS  /tmp/ccxbZr1V.s 			page 43


 2326 00a8 34010000 		.word	.LC14
 2327 00ac 00000000 		.word	start.7346
 2328              		.cfi_endproc
 2329              	.LFE139:
 2330              		.size	mmcSequentialWrite, .-mmcSequentialWrite
 2331              		.section	.rodata
 2332 014b 00       		.align	2
 2333              	.LC15:
 2334 014c 226D6D63 		.ascii	"\"mmcStopSequentialWrite\"()\000"
 2334      53746F70 
 2334      53657175 
 2334      656E7469 
 2334      616C5772 
 2335              		.section	.text.mmcStopSequentialWrite,"ax",%progbits
 2336              		.align	2
 2337              		.p2align 4,,15
 2338              		.global	mmcStopSequentialWrite
 2339              		.thumb
 2340              		.thumb_func
 2341              		.type	mmcStopSequentialWrite, %function
 2342              	mmcStopSequentialWrite:
 2343              	.LFB140:
 2344              		.loc 1 769 0
 2345              		.cfi_startproc
 2346              		@ args = 0, pretend = 0, frame = 8
 2347              		@ frame_needed = 0, uses_anonymous_args = 0
 2348 0000 00B5     		push	{lr}
 2349              		.cfi_def_cfa_offset 4
 2350              		.cfi_offset 14, -4
 2351 0002 83B0     		sub	sp, sp, #12
 2352              		.cfi_def_cfa_offset 16
 2353 0004 0190     		str	r0, [sp, #4]
 2354              		.loc 1 772 0
 2355 0006 019B     		ldr	r3, [sp, #4]
 2356 0008 002B     		cmp	r3, #0
 2357 000a 02D1     		bne	.L151
 2358              		.loc 1 772 0 is_stmt 0 discriminator 1
 2359 000c 0F48     		ldr	r0, .L154
 2360 000e FFF7FEFF 		bl	chDbgPanic
 2361              	.L151:
 2362              		.loc 1 774 0 is_stmt 1
 2363 0012 019B     		ldr	r3, [sp, #4]
 2364 0014 1B79     		ldrb	r3, [r3, #4]	@ zero_extendqisi2
 2365 0016 072B     		cmp	r3, #7
 2366 0018 01D0     		beq	.L152
 2367              		.loc 1 775 0
 2368 001a 0123     		movs	r3, #1
 2369 001c 11E0     		b	.L153
 2370              	.L152:
 2371              		.loc 1 777 0
 2372 001e 019B     		ldr	r3, [sp, #4]
 2373 0020 DB6A     		ldr	r3, [r3, #44]
 2374 0022 1B68     		ldr	r3, [r3]
 2375 0024 1846     		mov	r0, r3
 2376 0026 0221     		movs	r1, #2
 2377 0028 094A     		ldr	r2, .L154+4
 2378 002a FFF7FEFF 		bl	spiSend
ARM GAS  /tmp/ccxbZr1V.s 			page 44


 2379              		.loc 1 778 0
 2380 002e 019B     		ldr	r3, [sp, #4]
 2381 0030 DB6A     		ldr	r3, [r3, #44]
 2382 0032 1B68     		ldr	r3, [r3]
 2383 0034 1846     		mov	r0, r3
 2384 0036 FFF7FEFF 		bl	spiUnselect
 2385              		.loc 1 781 0
 2386 003a 019B     		ldr	r3, [sp, #4]
 2387 003c 0522     		movs	r2, #5
 2388 003e 1A71     		strb	r2, [r3, #4]
 2389              		.loc 1 782 0
 2390 0040 0023     		movs	r3, #0
 2391              	.L153:
 2392              		.loc 1 783 0
 2393 0042 1846     		mov	r0, r3
 2394 0044 03B0     		add	sp, sp, #12
 2395              		.cfi_def_cfa_offset 4
 2396              		@ sp needed
 2397 0046 5DF804FB 		ldr	pc, [sp], #4
 2398              	.L155:
 2399 004a 00BF     		.align	2
 2400              	.L154:
 2401 004c 4C010000 		.word	.LC15
 2402 0050 00000000 		.word	stop.7351
 2403              		.cfi_endproc
 2404              	.LFE140:
 2405              		.size	mmcStopSequentialWrite, .-mmcStopSequentialWrite
 2406 0054 AFF30080 		.section	.rodata
 2406      AFF30080 
 2406      AFF30080 
 2407 0167 00       		.align	2
 2408              	.LC16:
 2409 0168 226D6D63 		.ascii	"\"mmcSync\"()\000"
 2409      53796E63 
 2409      22282900 
 2410              		.section	.text.mmcSync,"ax",%progbits
 2411              		.align	2
 2412              		.p2align 4,,15
 2413              		.global	mmcSync
 2414              		.thumb
 2415              		.thumb_func
 2416              		.type	mmcSync, %function
 2417              	mmcSync:
 2418              	.LFB141:
 2419              		.loc 1 796 0
 2420              		.cfi_startproc
 2421              		@ args = 0, pretend = 0, frame = 8
 2422              		@ frame_needed = 0, uses_anonymous_args = 0
 2423 0000 00B5     		push	{lr}
 2424              		.cfi_def_cfa_offset 4
 2425              		.cfi_offset 14, -4
 2426 0002 83B0     		sub	sp, sp, #12
 2427              		.cfi_def_cfa_offset 16
 2428 0004 0190     		str	r0, [sp, #4]
 2429              		.loc 1 798 0
 2430 0006 019B     		ldr	r3, [sp, #4]
 2431 0008 002B     		cmp	r3, #0
ARM GAS  /tmp/ccxbZr1V.s 			page 45


 2432 000a 02D1     		bne	.L157
 2433              		.loc 1 798 0 is_stmt 0 discriminator 1
 2434 000c 1048     		ldr	r0, .L160
 2435 000e FFF7FEFF 		bl	chDbgPanic
 2436              	.L157:
 2437              		.loc 1 800 0 is_stmt 1
 2438 0012 019B     		ldr	r3, [sp, #4]
 2439 0014 1B79     		ldrb	r3, [r3, #4]	@ zero_extendqisi2
 2440 0016 052B     		cmp	r3, #5
 2441 0018 01D0     		beq	.L158
 2442              		.loc 1 801 0
 2443 001a 0123     		movs	r3, #1
 2444 001c 13E0     		b	.L159
 2445              	.L158:
 2446              		.loc 1 804 0
 2447 001e 019B     		ldr	r3, [sp, #4]
 2448 0020 0822     		movs	r2, #8
 2449 0022 1A71     		strb	r2, [r3, #4]
 2450              		.loc 1 806 0
 2451 0024 019B     		ldr	r3, [sp, #4]
 2452 0026 DB6A     		ldr	r3, [r3, #44]
 2453 0028 1A68     		ldr	r2, [r3]
 2454 002a 019B     		ldr	r3, [sp, #4]
 2455 002c DB6A     		ldr	r3, [r3, #44]
 2456 002e 9B68     		ldr	r3, [r3, #8]
 2457 0030 1046     		mov	r0, r2
 2458 0032 1946     		mov	r1, r3
 2459 0034 FFF7FEFF 		bl	spiStart
 2460              		.loc 1 807 0
 2461 0038 0198     		ldr	r0, [sp, #4]
 2462 003a FFF7FEFF 		bl	sync
 2463              		.loc 1 810 0
 2464 003e 019B     		ldr	r3, [sp, #4]
 2465 0040 0522     		movs	r2, #5
 2466 0042 1A71     		strb	r2, [r3, #4]
 2467              		.loc 1 811 0
 2468 0044 0023     		movs	r3, #0
 2469              	.L159:
 2470              		.loc 1 812 0
 2471 0046 1846     		mov	r0, r3
 2472 0048 03B0     		add	sp, sp, #12
 2473              		.cfi_def_cfa_offset 4
 2474              		@ sp needed
 2475 004a 5DF804FB 		ldr	pc, [sp], #4
 2476              	.L161:
 2477 004e 00BF     		.align	2
 2478              	.L160:
 2479 0050 68010000 		.word	.LC16
 2480              		.cfi_endproc
 2481              	.LFE141:
 2482              		.size	mmcSync, .-mmcSync
 2483 0054 AFF30080 		.section	.rodata
 2483      AFF30080 
 2483      AFF30080 
 2484              		.align	2
 2485              	.LC17:
 2486 0174 226D6D63 		.ascii	"\"mmcGetInfo\"()\000"
ARM GAS  /tmp/ccxbZr1V.s 			page 46


 2486      47657449 
 2486      6E666F22 
 2486      282900
 2487              		.section	.text.mmcGetInfo,"ax",%progbits
 2488              		.align	2
 2489              		.p2align 4,,15
 2490              		.global	mmcGetInfo
 2491              		.thumb
 2492              		.thumb_func
 2493              		.type	mmcGetInfo, %function
 2494              	mmcGetInfo:
 2495              	.LFB142:
 2496              		.loc 1 826 0
 2497              		.cfi_startproc
 2498              		@ args = 0, pretend = 0, frame = 8
 2499              		@ frame_needed = 0, uses_anonymous_args = 0
 2500 0000 00B5     		push	{lr}
 2501              		.cfi_def_cfa_offset 4
 2502              		.cfi_offset 14, -4
 2503 0002 83B0     		sub	sp, sp, #12
 2504              		.cfi_def_cfa_offset 16
 2505 0004 0190     		str	r0, [sp, #4]
 2506 0006 0091     		str	r1, [sp]
 2507              		.loc 1 828 0
 2508 0008 019B     		ldr	r3, [sp, #4]
 2509 000a 002B     		cmp	r3, #0
 2510 000c 02D0     		beq	.L163
 2511              		.loc 1 828 0 is_stmt 0 discriminator 2
 2512 000e 009B     		ldr	r3, [sp]
 2513 0010 002B     		cmp	r3, #0
 2514 0012 02D1     		bne	.L164
 2515              	.L163:
 2516              		.loc 1 828 0 discriminator 3
 2517 0014 0A48     		ldr	r0, .L167
 2518 0016 FFF7FEFF 		bl	chDbgPanic
 2519              	.L164:
 2520              		.loc 1 830 0 is_stmt 1
 2521 001a 019B     		ldr	r3, [sp, #4]
 2522 001c 1B79     		ldrb	r3, [r3, #4]	@ zero_extendqisi2
 2523 001e 052B     		cmp	r3, #5
 2524 0020 01D0     		beq	.L165
 2525              		.loc 1 831 0
 2526 0022 0123     		movs	r3, #1
 2527 0024 08E0     		b	.L166
 2528              	.L165:
 2529              		.loc 1 833 0
 2530 0026 019B     		ldr	r3, [sp, #4]
 2531 0028 9A6A     		ldr	r2, [r3, #40]
 2532 002a 009B     		ldr	r3, [sp]
 2533 002c 5A60     		str	r2, [r3, #4]
 2534              		.loc 1 834 0
 2535 002e 009B     		ldr	r3, [sp]
 2536 0030 4FF40072 		mov	r2, #512
 2537 0034 1A60     		str	r2, [r3]
 2538              		.loc 1 836 0
 2539 0036 0023     		movs	r3, #0
 2540              	.L166:
ARM GAS  /tmp/ccxbZr1V.s 			page 47


 2541              		.loc 1 837 0
 2542 0038 1846     		mov	r0, r3
 2543 003a 03B0     		add	sp, sp, #12
 2544              		.cfi_def_cfa_offset 4
 2545              		@ sp needed
 2546 003c 5DF804FB 		ldr	pc, [sp], #4
 2547              	.L168:
 2548              		.align	2
 2549              	.L167:
 2550 0040 74010000 		.word	.LC17
 2551              		.cfi_endproc
 2552              	.LFE142:
 2553              		.size	mmcGetInfo, .-mmcGetInfo
 2554 0044 AFF30080 		.section	.rodata
 2554      AFF30080 
 2554      AFF30080 
 2555 0183 00       		.align	2
 2556              	.LC18:
 2557 0184 226D6D63 		.ascii	"\"mmcErase\"()\000"
 2557      45726173 
 2557      65222829 
 2557      00
 2558 0191 000000   		.section	.text.mmcErase,"ax",%progbits
 2559              		.align	2
 2560              		.p2align 4,,15
 2561              		.global	mmcErase
 2562              		.thumb
 2563              		.thumb_func
 2564              		.type	mmcErase, %function
 2565              	mmcErase:
 2566              	.LFB143:
 2567              		.loc 1 852 0
 2568              		.cfi_startproc
 2569              		@ args = 0, pretend = 0, frame = 16
 2570              		@ frame_needed = 0, uses_anonymous_args = 0
 2571 0000 00B5     		push	{lr}
 2572              		.cfi_def_cfa_offset 4
 2573              		.cfi_offset 14, -4
 2574 0002 85B0     		sub	sp, sp, #20
 2575              		.cfi_def_cfa_offset 24
 2576 0004 0390     		str	r0, [sp, #12]
 2577 0006 0291     		str	r1, [sp, #8]
 2578 0008 0192     		str	r2, [sp, #4]
 2579              		.loc 1 854 0
 2580 000a 039B     		ldr	r3, [sp, #12]
 2581 000c 002B     		cmp	r3, #0
 2582 000e 02D1     		bne	.L170
 2583              		.loc 1 854 0 is_stmt 0 discriminator 1
 2584 0010 2048     		ldr	r0, .L177
 2585 0012 FFF7FEFF 		bl	chDbgPanic
 2586              	.L170:
 2587              		.loc 1 857 0 is_stmt 1
 2588 0016 039B     		ldr	r3, [sp, #12]
 2589 0018 0722     		movs	r2, #7
 2590 001a 1A71     		strb	r2, [r3, #4]
 2591              		.loc 1 860 0
 2592 001c 039B     		ldr	r3, [sp, #12]
ARM GAS  /tmp/ccxbZr1V.s 			page 48


 2593 001e 93F83030 		ldrb	r3, [r3, #48]	@ zero_extendqisi2
 2594 0022 83F00103 		eor	r3, r3, #1
 2595 0026 DBB2     		uxtb	r3, r3
 2596 0028 002B     		cmp	r3, #0
 2597 002a 05D0     		beq	.L171
 2598              		.loc 1 861 0
 2599 002c 029B     		ldr	r3, [sp, #8]
 2600 002e 5B02     		lsls	r3, r3, #9
 2601 0030 0293     		str	r3, [sp, #8]
 2602              		.loc 1 862 0
 2603 0032 019B     		ldr	r3, [sp, #4]
 2604 0034 5B02     		lsls	r3, r3, #9
 2605 0036 0193     		str	r3, [sp, #4]
 2606              	.L171:
 2607              		.loc 1 865 0
 2608 0038 0398     		ldr	r0, [sp, #12]
 2609 003a 2021     		movs	r1, #32
 2610 003c 029A     		ldr	r2, [sp, #8]
 2611 003e FFF7FEFF 		bl	send_command_R1
 2612 0042 0346     		mov	r3, r0
 2613 0044 002B     		cmp	r3, #0
 2614 0046 00D0     		beq	.L172
 2615              		.loc 1 866 0
 2616 0048 16E0     		b	.L173
 2617              	.L172:
 2618              		.loc 1 868 0
 2619 004a 0398     		ldr	r0, [sp, #12]
 2620 004c 2121     		movs	r1, #33
 2621 004e 019A     		ldr	r2, [sp, #4]
 2622 0050 FFF7FEFF 		bl	send_command_R1
 2623 0054 0346     		mov	r3, r0
 2624 0056 002B     		cmp	r3, #0
 2625 0058 00D0     		beq	.L174
 2626              		.loc 1 869 0
 2627 005a 0DE0     		b	.L173
 2628              	.L174:
 2629              		.loc 1 871 0
 2630 005c 0398     		ldr	r0, [sp, #12]
 2631 005e 2621     		movs	r1, #38
 2632 0060 0022     		movs	r2, #0
 2633 0062 FFF7FEFF 		bl	send_command_R1
 2634 0066 0346     		mov	r3, r0
 2635 0068 002B     		cmp	r3, #0
 2636 006a 00D0     		beq	.L175
 2637              		.loc 1 872 0
 2638 006c 04E0     		b	.L173
 2639              	.L175:
 2640              		.loc 1 874 0
 2641 006e 039B     		ldr	r3, [sp, #12]
 2642 0070 0522     		movs	r2, #5
 2643 0072 1A71     		strb	r2, [r3, #4]
 2644              		.loc 1 875 0
 2645 0074 0023     		movs	r3, #0
 2646 0076 09E0     		b	.L176
 2647              	.L173:
 2648              		.loc 1 879 0
 2649 0078 039B     		ldr	r3, [sp, #12]
ARM GAS  /tmp/ccxbZr1V.s 			page 49


 2650 007a DB6A     		ldr	r3, [r3, #44]
 2651 007c 1B68     		ldr	r3, [r3]
 2652 007e 1846     		mov	r0, r3
 2653 0080 FFF7FEFF 		bl	spiStop
 2654              		.loc 1 880 0
 2655 0084 039B     		ldr	r3, [sp, #12]
 2656 0086 0522     		movs	r2, #5
 2657 0088 1A71     		strb	r2, [r3, #4]
 2658              		.loc 1 881 0
 2659 008a 0123     		movs	r3, #1
 2660              	.L176:
 2661              		.loc 1 882 0
 2662 008c 1846     		mov	r0, r3
 2663 008e 05B0     		add	sp, sp, #20
 2664              		.cfi_def_cfa_offset 4
 2665              		@ sp needed
 2666 0090 5DF804FB 		ldr	pc, [sp], #4
 2667              	.L178:
 2668              		.align	2
 2669              	.L177:
 2670 0094 84010000 		.word	.LC18
 2671              		.cfi_endproc
 2672              	.LFE143:
 2673              		.size	mmcErase, .-mmcErase
 2674 0098 AFF30080 		.section	.rodata.stopcmd.7337,"a",%progbits
 2674      AFF30080 
 2675              		.align	2
 2676              		.type	stopcmd.7337, %object
 2677              		.size	stopcmd.7337, 7
 2678              	stopcmd.7337:
 2679 0000 4C       		.byte	76
 2680 0001 00       		.byte	0
 2681 0002 00       		.byte	0
 2682 0003 00       		.byte	0
 2683 0004 00       		.byte	0
 2684 0005 01       		.byte	1
 2685 0006 FF       		.byte	-1
 2686 0007 00       		.section	.rodata.start.7346,"a",%progbits
 2687              		.align	2
 2688              		.type	start.7346, %object
 2689              		.size	start.7346, 2
 2690              	start.7346:
 2691 0000 FF       		.byte	-1
 2692 0001 FC       		.byte	-4
 2693 0002 0000     		.section	.rodata.stop.7351,"a",%progbits
 2694              		.align	2
 2695              		.type	stop.7351, %object
 2696              		.size	stop.7351, 2
 2697              	stop.7351:
 2698 0000 FD       		.byte	-3
 2699 0001 FF       		.byte	-1
 2700 0002 0000     		.text
 2701              	.Letext0:
 2702              		.file 2 "/home/ergae/r2p-sdk/tools/gcc-arm-none-eabi-4_9-2014q4/lib/gcc/arm-none-eabi/4.9.3/includ
 2703              		.file 3 "/home/ergae/r2p-sdk/tools/gcc-arm-none-eabi-4_9-2014q4/arm-none-eabi/include/machine/_def
 2704              		.file 4 "/home/ergae/r2p-sdk/tools/gcc-arm-none-eabi-4_9-2014q4/arm-none-eabi/include/stdint.h"
 2705              		.file 5 "/home/ergae/r2p-sdk/core/ChibiOS/os/ports/GCC/ARMCMx/chtypes.h"
ARM GAS  /tmp/ccxbZr1V.s 			page 50


 2706              		.file 6 "/home/ergae/r2p-sdk/core/ChibiOS/os/kernel/include/chlists.h"
 2707              		.file 7 "/home/ergae/r2p-sdk/core/ChibiOS/os/kernel/include/chthreads.h"
 2708              		.file 8 "/home/ergae/r2p-sdk/core/ChibiOS/os/ports/GCC/ARMCMx/chcore_v7m.h"
 2709              		.file 9 "/home/ergae/r2p-sdk/core/ChibiOS/os/kernel/include/chmtx.h"
 2710              		.file 10 "/home/ergae/r2p-sdk/core/ChibiOS/os/hal/platforms/STM32F30x/stm32f30x.h"
 2711              		.file 11 "/home/ergae/r2p-sdk/core/ChibiOS/os/hal/platforms/STM32F30x/stm32_dma.h"
 2712              		.file 12 "/home/ergae/r2p-sdk/core/ChibiOS/os/hal/include/io_block.h"
 2713              		.file 13 "/home/ergae/r2p-sdk/core/ChibiOS/os/hal/platforms/STM32/GPIOv2/pal_lld.h"
 2714              		.file 14 "/home/ergae/r2p-sdk/core/ChibiOS/os/hal/include/spi.h"
 2715              		.file 15 "/home/ergae/r2p-sdk/core/ChibiOS/os/hal/platforms/STM32/SPIv2/spi_lld.h"
 2716              		.file 16 "/home/ergae/r2p-sdk/core/ChibiOS/os/hal/include/mmc_spi.h"
 2717              		.file 17 "/home/ergae/r2p-sdk/core/ChibiOS/os/ports/common/ARMCMx/CMSIS/include/core_cm4.h"