ARM GAS  /tmp/ccxbZr1V.s 			page 1


   1              		.syntax unified
   2              		.cpu cortex-m4
   3              		.eabi_attribute 27, 3
   4              		.eabi_attribute 28, 1
   5              		.fpu fpv4-sp-d16
   6              		.eabi_attribute 20, 1
   7              		.eabi_attribute 21, 1
   8              		.eabi_attribute 23, 3
   9              		.eabi_attribute 24, 1
  10              		.eabi_attribute 25, 1
  11              		.eabi_attribute 26, 1
  12              		.eabi_attribute 30, 6
  13              		.eabi_attribute 34, 1
  14              		.eabi_attribute 18, 4
  15              		.thumb
  16              		.file	"mmc_spi.c"
  17              		.text
  18              	.Ltext0:
  19              		.cfi_sections	.debug_frame
  20              		.section	.rodata.mmc_vmt,"a",%progbits
  21              		.align	2
  22              		.type	mmc_vmt, %object
  23              		.size	mmc_vmt, 32
  24              	mmc_vmt:
  25 0000 00000000 		.word	mmc_lld_is_card_inserted
  26 0004 00000000 		.word	mmc_lld_is_write_protected
  27 0008 00000000 		.word	mmcConnect
  28 000c 00000000 		.word	mmcDisconnect
  29 0010 00000000 		.word	mmc_read
  30 0014 00000000 		.word	mmc_write
  31 0018 00000000 		.word	mmcSync
  32 001c 00000000 		.word	mmcGetInfo
  33              		.section	.rodata.crc7_lookup_table,"a",%progbits
  34              		.align	2
  35              		.type	crc7_lookup_table, %object
  36              		.size	crc7_lookup_table, 256
  37              	crc7_lookup_table:
  38 0000 00       		.byte	0
  39 0001 09       		.byte	9
  40 0002 12       		.byte	18
  41 0003 1B       		.byte	27
  42 0004 24       		.byte	36
  43 0005 2D       		.byte	45
  44 0006 36       		.byte	54
  45 0007 3F       		.byte	63
  46 0008 48       		.byte	72
  47 0009 41       		.byte	65
  48 000a 5A       		.byte	90
  49 000b 53       		.byte	83
  50 000c 6C       		.byte	108
  51 000d 65       		.byte	101
  52 000e 7E       		.byte	126
  53 000f 77       		.byte	119
  54 0010 19       		.byte	25
  55 0011 10       		.byte	16
  56 0012 0B       		.byte	11
  57 0013 02       		.byte	2
ARM GAS  /tmp/ccxbZr1V.s 			page 2


  58 0014 3D       		.byte	61
  59 0015 34       		.byte	52
  60 0016 2F       		.byte	47
  61 0017 26       		.byte	38
  62 0018 51       		.byte	81
  63 0019 58       		.byte	88
  64 001a 43       		.byte	67
  65 001b 4A       		.byte	74
  66 001c 75       		.byte	117
  67 001d 7C       		.byte	124
  68 001e 67       		.byte	103
  69 001f 6E       		.byte	110
  70 0020 32       		.byte	50
  71 0021 3B       		.byte	59
  72 0022 20       		.byte	32
  73 0023 29       		.byte	41
  74 0024 16       		.byte	22
  75 0025 1F       		.byte	31
  76 0026 04       		.byte	4
  77 0027 0D       		.byte	13
  78 0028 7A       		.byte	122
  79 0029 73       		.byte	115
  80 002a 68       		.byte	104
  81 002b 61       		.byte	97
  82 002c 5E       		.byte	94
  83 002d 57       		.byte	87
  84 002e 4C       		.byte	76
  85 002f 45       		.byte	69
  86 0030 2B       		.byte	43
  87 0031 22       		.byte	34
  88 0032 39       		.byte	57
  89 0033 30       		.byte	48
  90 0034 0F       		.byte	15
  91 0035 06       		.byte	6
  92 0036 1D       		.byte	29
  93 0037 14       		.byte	20
  94 0038 63       		.byte	99
  95 0039 6A       		.byte	106
  96 003a 71       		.byte	113
  97 003b 78       		.byte	120
  98 003c 47       		.byte	71
  99 003d 4E       		.byte	78
 100 003e 55       		.byte	85
 101 003f 5C       		.byte	92
 102 0040 64       		.byte	100
 103 0041 6D       		.byte	109
 104 0042 76       		.byte	118
 105 0043 7F       		.byte	127
 106 0044 40       		.byte	64
 107 0045 49       		.byte	73
 108 0046 52       		.byte	82
 109 0047 5B       		.byte	91
 110 0048 2C       		.byte	44
 111 0049 25       		.byte	37
 112 004a 3E       		.byte	62
 113 004b 37       		.byte	55
 114 004c 08       		.byte	8
ARM GAS  /tmp/ccxbZr1V.s 			page 3


 115 004d 01       		.byte	1
 116 004e 1A       		.byte	26
 117 004f 13       		.byte	19
 118 0050 7D       		.byte	125
 119 0051 74       		.byte	116
 120 0052 6F       		.byte	111
 121 0053 66       		.byte	102
 122 0054 59       		.byte	89
 123 0055 50       		.byte	80
 124 0056 4B       		.byte	75
 125 0057 42       		.byte	66
 126 0058 35       		.byte	53
 127 0059 3C       		.byte	60
 128 005a 27       		.byte	39
 129 005b 2E       		.byte	46
 130 005c 11       		.byte	17
 131 005d 18       		.byte	24
 132 005e 03       		.byte	3
 133 005f 0A       		.byte	10
 134 0060 56       		.byte	86
 135 0061 5F       		.byte	95
 136 0062 44       		.byte	68
 137 0063 4D       		.byte	77
 138 0064 72       		.byte	114
 139 0065 7B       		.byte	123
 140 0066 60       		.byte	96
 141 0067 69       		.byte	105
 142 0068 1E       		.byte	30
 143 0069 17       		.byte	23
 144 006a 0C       		.byte	12
 145 006b 05       		.byte	5
 146 006c 3A       		.byte	58
 147 006d 33       		.byte	51
 148 006e 28       		.byte	40
 149 006f 21       		.byte	33
 150 0070 4F       		.byte	79
 151 0071 46       		.byte	70
 152 0072 5D       		.byte	93
 153 0073 54       		.byte	84
 154 0074 6B       		.byte	107
 155 0075 62       		.byte	98
 156 0076 79       		.byte	121
 157 0077 70       		.byte	112
 158 0078 07       		.byte	7
 159 0079 0E       		.byte	14
 160 007a 15       		.byte	21
 161 007b 1C       		.byte	28
 162 007c 23       		.byte	35
 163 007d 2A       		.byte	42
 164 007e 31       		.byte	49
 165 007f 38       		.byte	56
 166 0080 41       		.byte	65
 167 0081 48       		.byte	72
 168 0082 53       		.byte	83
 169 0083 5A       		.byte	90
 170 0084 65       		.byte	101
 171 0085 6C       		.byte	108
ARM GAS  /tmp/ccxbZr1V.s 			page 4


 172 0086 77       		.byte	119
 173 0087 7E       		.byte	126
 174 0088 09       		.byte	9
 175 0089 00       		.byte	0
 176 008a 1B       		.byte	27
 177 008b 12       		.byte	18
 178 008c 2D       		.byte	45
 179 008d 24       		.byte	36
 180 008e 3F       		.byte	63
 181 008f 36       		.byte	54
 182 0090 58       		.byte	88
 183 0091 51       		.byte	81
 184 0092 4A       		.byte	74
 185 0093 43       		.byte	67
 186 0094 7C       		.byte	124
 187 0095 75       		.byte	117
 188 0096 6E       		.byte	110
 189 0097 67       		.byte	103
 190 0098 10       		.byte	16
 191 0099 19       		.byte	25
 192 009a 02       		.byte	2
 193 009b 0B       		.byte	11
 194 009c 34       		.byte	52
 195 009d 3D       		.byte	61
 196 009e 26       		.byte	38
 197 009f 2F       		.byte	47
 198 00a0 73       		.byte	115
 199 00a1 7A       		.byte	122
 200 00a2 61       		.byte	97
 201 00a3 68       		.byte	104
 202 00a4 57       		.byte	87
 203 00a5 5E       		.byte	94
 204 00a6 45       		.byte	69
 205 00a7 4C       		.byte	76
 206 00a8 3B       		.byte	59
 207 00a9 32       		.byte	50
 208 00aa 29       		.byte	41
 209 00ab 20       		.byte	32
 210 00ac 1F       		.byte	31
 211 00ad 16       		.byte	22
 212 00ae 0D       		.byte	13
 213 00af 04       		.byte	4
 214 00b0 6A       		.byte	106
 215 00b1 63       		.byte	99
 216 00b2 78       		.byte	120
 217 00b3 71       		.byte	113
 218 00b4 4E       		.byte	78
 219 00b5 47       		.byte	71
 220 00b6 5C       		.byte	92
 221 00b7 55       		.byte	85
 222 00b8 22       		.byte	34
 223 00b9 2B       		.byte	43
 224 00ba 30       		.byte	48
 225 00bb 39       		.byte	57
 226 00bc 06       		.byte	6
 227 00bd 0F       		.byte	15
 228 00be 14       		.byte	20
ARM GAS  /tmp/ccxbZr1V.s 			page 5


 229 00bf 1D       		.byte	29
 230 00c0 25       		.byte	37
 231 00c1 2C       		.byte	44
 232 00c2 37       		.byte	55
 233 00c3 3E       		.byte	62
 234 00c4 01       		.byte	1
 235 00c5 08       		.byte	8
 236 00c6 13       		.byte	19
 237 00c7 1A       		.byte	26
 238 00c8 6D       		.byte	109
 239 00c9 64       		.byte	100
 240 00ca 7F       		.byte	127
 241 00cb 76       		.byte	118
 242 00cc 49       		.byte	73
 243 00cd 40       		.byte	64
 244 00ce 5B       		.byte	91
 245 00cf 52       		.byte	82
 246 00d0 3C       		.byte	60
 247 00d1 35       		.byte	53
 248 00d2 2E       		.byte	46
 249 00d3 27       		.byte	39
 250 00d4 18       		.byte	24
 251 00d5 11       		.byte	17
 252 00d6 0A       		.byte	10
 253 00d7 03       		.byte	3
 254 00d8 74       		.byte	116
 255 00d9 7D       		.byte	125
 256 00da 66       		.byte	102
 257 00db 6F       		.byte	111
 258 00dc 50       		.byte	80
 259 00dd 59       		.byte	89
 260 00de 42       		.byte	66
 261 00df 4B       		.byte	75
 262 00e0 17       		.byte	23
 263 00e1 1E       		.byte	30
 264 00e2 05       		.byte	5
 265 00e3 0C       		.byte	12
 266 00e4 33       		.byte	51
 267 00e5 3A       		.byte	58
 268 00e6 21       		.byte	33
 269 00e7 28       		.byte	40
 270 00e8 5F       		.byte	95
 271 00e9 56       		.byte	86
 272 00ea 4D       		.byte	77
 273 00eb 44       		.byte	68
 274 00ec 7B       		.byte	123
 275 00ed 72       		.byte	114
 276 00ee 69       		.byte	105
 277 00ef 60       		.byte	96
 278 00f0 0E       		.byte	14
 279 00f1 07       		.byte	7
 280 00f2 1C       		.byte	28
 281 00f3 15       		.byte	21
 282 00f4 2A       		.byte	42
 283 00f5 23       		.byte	35
 284 00f6 38       		.byte	56
 285 00f7 31       		.byte	49
ARM GAS  /tmp/ccxbZr1V.s 			page 6


 286 00f8 46       		.byte	70
 287 00f9 4F       		.byte	79
 288 00fa 54       		.byte	84
 289 00fb 5D       		.byte	93
 290 00fc 62       		.byte	98
 291 00fd 6B       		.byte	107
 292 00fe 70       		.byte	112
 293 00ff 79       		.byte	121
 294              		.section	.text.mmc_read,"ax",%progbits
 295              		.align	2
 296              		.p2align 4,,15
 297              		.thumb
 298              		.thumb_func
 299              		.type	mmc_read, %function
 300              	mmc_read:
 301              	.LFB118:
 302              		.file 1 "/home/ergae/r2p-sdk/core/ChibiOS/os/hal/src/mmc_spi.c"
 303              		.loc 1 111 0
 304              		.cfi_startproc
 305              		@ args = 0, pretend = 0, frame = 16
 306              		@ frame_needed = 0, uses_anonymous_args = 0
 307 0000 00B5     		push	{lr}
 308              		.cfi_def_cfa_offset 4
 309              		.cfi_offset 14, -4
 310 0002 85B0     		sub	sp, sp, #20
 311              		.cfi_def_cfa_offset 24
 312 0004 0390     		str	r0, [sp, #12]
 313 0006 0291     		str	r1, [sp, #8]
 314 0008 0192     		str	r2, [sp, #4]
 315 000a 0093     		str	r3, [sp]
 316              		.loc 1 113 0
 317 000c 0398     		ldr	r0, [sp, #12]
 318 000e 0299     		ldr	r1, [sp, #8]
 319 0010 FFF7FEFF 		bl	mmcStartSequentialRead
 320 0014 0346     		mov	r3, r0
 321 0016 002B     		cmp	r3, #0
 322 0018 01D0     		beq	.L2
 323              		.loc 1 114 0
 324 001a 0123     		movs	r3, #1
 325 001c 1CE0     		b	.L3
 326              	.L2:
 327              		.loc 1 115 0
 328 001e 0FE0     		b	.L4
 329              	.L6:
 330              		.loc 1 116 0
 331 0020 0398     		ldr	r0, [sp, #12]
 332 0022 0199     		ldr	r1, [sp, #4]
 333 0024 FFF7FEFF 		bl	mmcSequentialRead
 334 0028 0346     		mov	r3, r0
 335 002a 002B     		cmp	r3, #0
 336 002c 01D0     		beq	.L5
 337              		.loc 1 117 0
 338 002e 0123     		movs	r3, #1
 339 0030 12E0     		b	.L3
 340              	.L5:
 341              		.loc 1 118 0
 342 0032 019B     		ldr	r3, [sp, #4]
ARM GAS  /tmp/ccxbZr1V.s 			page 7


 343 0034 03F50073 		add	r3, r3, #512
 344 0038 0193     		str	r3, [sp, #4]
 345              		.loc 1 119 0
 346 003a 009B     		ldr	r3, [sp]
 347 003c 013B     		subs	r3, r3, #1
 348 003e 0093     		str	r3, [sp]
 349              	.L4:
 350              		.loc 1 115 0
 351 0040 009B     		ldr	r3, [sp]
 352 0042 002B     		cmp	r3, #0
 353 0044 ECD1     		bne	.L6
 354              		.loc 1 121 0
 355 0046 0398     		ldr	r0, [sp, #12]
 356 0048 FFF7FEFF 		bl	mmcStopSequentialRead
 357 004c 0346     		mov	r3, r0
 358 004e 002B     		cmp	r3, #0
 359 0050 01D0     		beq	.L7
 360              		.loc 1 122 0
 361 0052 0123     		movs	r3, #1
 362 0054 00E0     		b	.L3
 363              	.L7:
 364              		.loc 1 123 0
 365 0056 0023     		movs	r3, #0
 366              	.L3:
 367              		.loc 1 124 0
 368 0058 1846     		mov	r0, r3
 369 005a 05B0     		add	sp, sp, #20
 370              		.cfi_def_cfa_offset 4
 371              		@ sp needed
 372 005c 5DF804FB 		ldr	pc, [sp], #4
 373              		.cfi_endproc
 374              	.LFE118:
 375              		.size	mmc_read, .-mmc_read
 376              		.section	.text.mmc_write,"ax",%progbits
 377              		.align	2
 378              		.p2align 4,,15
 379              		.thumb
 380              		.thumb_func
 381              		.type	mmc_write, %function
 382              	mmc_write:
 383              	.LFB119:
 384              		.loc 1 127 0
 385              		.cfi_startproc
 386              		@ args = 0, pretend = 0, frame = 16
 387              		@ frame_needed = 0, uses_anonymous_args = 0
 388 0000 00B5     		push	{lr}
 389              		.cfi_def_cfa_offset 4
 390              		.cfi_offset 14, -4
 391 0002 85B0     		sub	sp, sp, #20
 392              		.cfi_def_cfa_offset 24
 393 0004 0390     		str	r0, [sp, #12]
 394 0006 0291     		str	r1, [sp, #8]
 395 0008 0192     		str	r2, [sp, #4]
 396 000a 0093     		str	r3, [sp]
 397              		.loc 1 129 0
 398 000c 0398     		ldr	r0, [sp, #12]
 399 000e 0299     		ldr	r1, [sp, #8]
ARM GAS  /tmp/ccxbZr1V.s 			page 8


 400 0010 FFF7FEFF 		bl	mmcStartSequentialWrite
 401 0014 0346     		mov	r3, r0
 402 0016 002B     		cmp	r3, #0
 403 0018 01D0     		beq	.L9
 404              		.loc 1 130 0
 405 001a 0123     		movs	r3, #1
 406 001c 1CE0     		b	.L10
 407              	.L9:
 408              		.loc 1 131 0
 409 001e 0FE0     		b	.L11
 410              	.L13:
 411              		.loc 1 132 0
 412 0020 0398     		ldr	r0, [sp, #12]
 413 0022 0199     		ldr	r1, [sp, #4]
 414 0024 FFF7FEFF 		bl	mmcSequentialWrite
 415 0028 0346     		mov	r3, r0
 416 002a 002B     		cmp	r3, #0
 417 002c 01D0     		beq	.L12
 418              		.loc 1 133 0
 419 002e 0123     		movs	r3, #1
 420 0030 12E0     		b	.L10
 421              	.L12:
 422              		.loc 1 134 0
 423 0032 019B     		ldr	r3, [sp, #4]
 424 0034 03F50073 		add	r3, r3, #512
 425 0038 0193     		str	r3, [sp, #4]
 426              		.loc 1 135 0
 427 003a 009B     		ldr	r3, [sp]
 428 003c 013B     		subs	r3, r3, #1
 429 003e 0093     		str	r3, [sp]
 430              	.L11:
 431              		.loc 1 131 0
 432 0040 009B     		ldr	r3, [sp]
 433 0042 002B     		cmp	r3, #0
 434 0044 ECD1     		bne	.L13
 435              		.loc 1 137 0
 436 0046 0398     		ldr	r0, [sp, #12]
 437 0048 FFF7FEFF 		bl	mmcStopSequentialWrite
 438 004c 0346     		mov	r3, r0
 439 004e 002B     		cmp	r3, #0
 440 0050 01D0     		beq	.L14
 441              		.loc 1 138 0
 442 0052 0123     		movs	r3, #1
 443 0054 00E0     		b	.L10
 444              	.L14:
 445              		.loc 1 139 0
 446 0056 0023     		movs	r3, #0
 447              	.L10:
 448              		.loc 1 140 0
 449 0058 1846     		mov	r0, r3
 450 005a 05B0     		add	sp, sp, #20
 451              		.cfi_def_cfa_offset 4
 452              		@ sp needed
 453 005c 5DF804FB 		ldr	pc, [sp], #4
 454              		.cfi_endproc
 455              	.LFE119:
 456              		.size	mmc_write, .-mmc_write
ARM GAS  /tmp/ccxbZr1V.s 			page 9


 457              		.section	.text.crc7,"ax",%progbits
 458              		.align	2
 459              		.p2align 4,,15
 460              		.thumb
 461              		.thumb_func
 462              		.type	crc7, %function
 463              	crc7:
 464              	.LFB120:
 465              		.loc 1 150 0
 466              		.cfi_startproc
 467              		@ args = 0, pretend = 0, frame = 16
 468              		@ frame_needed = 0, uses_anonymous_args = 0
 469              		@ link register save eliminated.
 470 0000 84B0     		sub	sp, sp, #16
 471              		.cfi_def_cfa_offset 16
 472 0002 0346     		mov	r3, r0
 473 0004 0291     		str	r1, [sp, #8]
 474 0006 0192     		str	r2, [sp, #4]
 475 0008 8DF80F30 		strb	r3, [sp, #15]
 476              		.loc 1 152 0
 477 000c 0BE0     		b	.L16
 478              	.L17:
 479              		.loc 1 153 0
 480 000e 9DF80F30 		ldrb	r3, [sp, #15]	@ zero_extendqisi2
 481 0012 5A00     		lsls	r2, r3, #1
 482 0014 029B     		ldr	r3, [sp, #8]
 483 0016 591C     		adds	r1, r3, #1
 484 0018 0291     		str	r1, [sp, #8]
 485 001a 1B78     		ldrb	r3, [r3]	@ zero_extendqisi2
 486 001c 5340     		eors	r3, r3, r2
 487 001e 074A     		ldr	r2, .L19
 488 0020 D35C     		ldrb	r3, [r2, r3]
 489 0022 8DF80F30 		strb	r3, [sp, #15]
 490              	.L16:
 491              		.loc 1 152 0
 492 0026 019B     		ldr	r3, [sp, #4]
 493 0028 5A1E     		subs	r2, r3, #1
 494 002a 0192     		str	r2, [sp, #4]
 495 002c 002B     		cmp	r3, #0
 496 002e EED1     		bne	.L17
 497              		.loc 1 154 0
 498 0030 9DF80F30 		ldrb	r3, [sp, #15]	@ zero_extendqisi2
 499              		.loc 1 155 0
 500 0034 1846     		mov	r0, r3
 501 0036 04B0     		add	sp, sp, #16
 502              		.cfi_def_cfa_offset 0
 503              		@ sp needed
 504 0038 7047     		bx	lr
 505              	.L20:
 506 003a 00BF     		.align	2
 507              	.L19:
 508 003c 00000000 		.word	crc7_lookup_table
 509              		.cfi_endproc
 510              	.LFE120:
 511              		.size	crc7, .-crc7
 512              		.section	.text.wait,"ax",%progbits
 513              		.align	2
ARM GAS  /tmp/ccxbZr1V.s 			page 10


 514              		.p2align 4,,15
 515              		.thumb
 516              		.thumb_func
 517              		.type	wait, %function
 518              	wait:
 519              	.LFB121:
 520              		.loc 1 164 0
 521              		.cfi_startproc
 522              		@ args = 0, pretend = 0, frame = 16
 523              		@ frame_needed = 0, uses_anonymous_args = 0
 524 0000 00B5     		push	{lr}
 525              		.cfi_def_cfa_offset 4
 526              		.cfi_offset 14, -4
 527 0002 85B0     		sub	sp, sp, #20
 528              		.cfi_def_cfa_offset 24
 529 0004 0190     		str	r0, [sp, #4]
 530              		.loc 1 168 0
 531 0006 0023     		movs	r3, #0
 532 0008 0393     		str	r3, [sp, #12]
 533 000a 0FE0     		b	.L22
 534              	.L25:
 535              		.loc 1 169 0
 536 000c 019B     		ldr	r3, [sp, #4]
 537 000e DB6A     		ldr	r3, [r3, #44]
 538 0010 1A68     		ldr	r2, [r3]
 539 0012 02AB     		add	r3, sp, #8
 540 0014 1046     		mov	r0, r2
 541 0016 0121     		movs	r1, #1
 542 0018 1A46     		mov	r2, r3
 543 001a FFF7FEFF 		bl	spiReceive
 544              		.loc 1 170 0
 545 001e 9DF80830 		ldrb	r3, [sp, #8]	@ zero_extendqisi2
 546 0022 FF2B     		cmp	r3, #255
 547 0024 18D0     		beq	.L21
 548              		.loc 1 168 0 discriminator 2
 549 0026 039B     		ldr	r3, [sp, #12]
 550 0028 0133     		adds	r3, r3, #1
 551 002a 0393     		str	r3, [sp, #12]
 552              	.L22:
 553              		.loc 1 168 0 is_stmt 0 discriminator 1
 554 002c 039B     		ldr	r3, [sp, #12]
 555 002e 0F2B     		cmp	r3, #15
 556 0030 ECDD     		ble	.L25
 557              	.L28:
 558              		.loc 1 175 0 is_stmt 1
 559 0032 019B     		ldr	r3, [sp, #4]
 560 0034 DB6A     		ldr	r3, [r3, #44]
 561 0036 1A68     		ldr	r2, [r3]
 562 0038 02AB     		add	r3, sp, #8
 563 003a 1046     		mov	r0, r2
 564 003c 0121     		movs	r1, #1
 565 003e 1A46     		mov	r2, r3
 566 0040 FFF7FEFF 		bl	spiReceive
 567              		.loc 1 176 0
 568 0044 9DF80830 		ldrb	r3, [sp, #8]	@ zero_extendqisi2
 569 0048 FF2B     		cmp	r3, #255
 570 004a 01D1     		bne	.L26
ARM GAS  /tmp/ccxbZr1V.s 			page 11


 571              		.loc 1 177 0
 572 004c 00BF     		nop
 573 004e 03E0     		b	.L21
 574              	.L26:
 575              		.loc 1 180 0
 576 0050 0120     		movs	r0, #1
 577 0052 FFF7FEFF 		bl	chThdSleep
 578              		.loc 1 182 0
 579 0056 ECE7     		b	.L28
 580              	.L21:
 581              		.loc 1 183 0
 582 0058 05B0     		add	sp, sp, #20
 583              		.cfi_def_cfa_offset 4
 584              		@ sp needed
 585 005a 5DF804FB 		ldr	pc, [sp], #4
 586              		.cfi_endproc
 587              	.LFE121:
 588              		.size	wait, .-wait
 589 005e 00BF     		.section	.text.send_hdr,"ax",%progbits
 590              		.align	2
 591              		.p2align 4,,15
 592              		.thumb
 593              		.thumb_func
 594              		.type	send_hdr, %function
 595              	send_hdr:
 596              	.LFB122:
 597              		.loc 1 194 0
 598              		.cfi_startproc
 599              		@ args = 0, pretend = 0, frame = 24
 600              		@ frame_needed = 0, uses_anonymous_args = 0
 601 0000 00B5     		push	{lr}
 602              		.cfi_def_cfa_offset 4
 603              		.cfi_offset 14, -4
 604 0002 87B0     		sub	sp, sp, #28
 605              		.cfi_def_cfa_offset 32
 606 0004 0390     		str	r0, [sp, #12]
 607 0006 0B46     		mov	r3, r1
 608 0008 0192     		str	r2, [sp, #4]
 609 000a 8DF80B30 		strb	r3, [sp, #11]
 610              		.loc 1 198 0
 611 000e 0398     		ldr	r0, [sp, #12]
 612 0010 FFF7FEFF 		bl	wait
 613              		.loc 1 200 0
 614 0014 9DF80B30 		ldrb	r3, [sp, #11]
 615 0018 43F04003 		orr	r3, r3, #64
 616 001c DBB2     		uxtb	r3, r3
 617 001e 8DF81030 		strb	r3, [sp, #16]
 618              		.loc 1 201 0
 619 0022 019B     		ldr	r3, [sp, #4]
 620 0024 1B0E     		lsrs	r3, r3, #24
 621 0026 DBB2     		uxtb	r3, r3
 622 0028 8DF81130 		strb	r3, [sp, #17]
 623              		.loc 1 202 0
 624 002c 019B     		ldr	r3, [sp, #4]
 625 002e 1B0C     		lsrs	r3, r3, #16
 626 0030 DBB2     		uxtb	r3, r3
 627 0032 8DF81230 		strb	r3, [sp, #18]
ARM GAS  /tmp/ccxbZr1V.s 			page 12


 628              		.loc 1 203 0
 629 0036 019B     		ldr	r3, [sp, #4]
 630 0038 1B0A     		lsrs	r3, r3, #8
 631 003a DBB2     		uxtb	r3, r3
 632 003c 8DF81330 		strb	r3, [sp, #19]
 633              		.loc 1 204 0
 634 0040 019B     		ldr	r3, [sp, #4]
 635 0042 DBB2     		uxtb	r3, r3
 636 0044 8DF81430 		strb	r3, [sp, #20]
 637              		.loc 1 206 0
 638 0048 04AB     		add	r3, sp, #16
 639 004a 0020     		movs	r0, #0
 640 004c 1946     		mov	r1, r3
 641 004e 0522     		movs	r2, #5
 642 0050 FFF7FEFF 		bl	crc7
 643 0054 0346     		mov	r3, r0
 644 0056 5B00     		lsls	r3, r3, #1
 645 0058 DBB2     		uxtb	r3, r3
 646 005a 43F00103 		orr	r3, r3, #1
 647 005e DBB2     		uxtb	r3, r3
 648 0060 DBB2     		uxtb	r3, r3
 649 0062 8DF81530 		strb	r3, [sp, #21]
 650              		.loc 1 208 0
 651 0066 039B     		ldr	r3, [sp, #12]
 652 0068 DB6A     		ldr	r3, [r3, #44]
 653 006a 1A68     		ldr	r2, [r3]
 654 006c 04AB     		add	r3, sp, #16
 655 006e 1046     		mov	r0, r2
 656 0070 0621     		movs	r1, #6
 657 0072 1A46     		mov	r2, r3
 658 0074 FFF7FEFF 		bl	spiSend
 659              		.loc 1 209 0
 660 0078 07B0     		add	sp, sp, #28
 661              		.cfi_def_cfa_offset 4
 662              		@ sp needed
 663 007a 5DF804FB 		ldr	pc, [sp], #4
 664              		.cfi_endproc
 665              	.LFE122:
 666              		.size	send_hdr, .-send_hdr
 667 007e 00BF     		.section	.text.recvr1,"ax",%progbits
 668              		.align	2
 669              		.p2align 4,,15
 670              		.thumb
 671              		.thumb_func
 672              		.type	recvr1, %function
 673              	recvr1:
 674              	.LFB123:
 675              		.loc 1 220 0
 676              		.cfi_startproc
 677              		@ args = 0, pretend = 0, frame = 16
 678              		@ frame_needed = 0, uses_anonymous_args = 0
 679 0000 00B5     		push	{lr}
 680              		.cfi_def_cfa_offset 4
 681              		.cfi_offset 14, -4
 682 0002 85B0     		sub	sp, sp, #20
 683              		.cfi_def_cfa_offset 24
 684 0004 0190     		str	r0, [sp, #4]
ARM GAS  /tmp/ccxbZr1V.s 			page 13


 685              		.loc 1 224 0
 686 0006 0023     		movs	r3, #0
 687 0008 0393     		str	r3, [sp, #12]
 688 000a 12E0     		b	.L31
 689              	.L34:
 690              		.loc 1 225 0
 691 000c 019B     		ldr	r3, [sp, #4]
 692 000e DB6A     		ldr	r3, [r3, #44]
 693 0010 1A68     		ldr	r2, [r3]
 694 0012 02AB     		add	r3, sp, #8
 695 0014 1046     		mov	r0, r2
 696 0016 0121     		movs	r1, #1
 697 0018 1A46     		mov	r2, r3
 698 001a FFF7FEFF 		bl	spiReceive
 699              		.loc 1 226 0
 700 001e 9DF80830 		ldrb	r3, [sp, #8]	@ zero_extendqisi2
 701 0022 FF2B     		cmp	r3, #255
 702 0024 02D0     		beq	.L32
 703              		.loc 1 227 0
 704 0026 9DF80830 		ldrb	r3, [sp, #8]	@ zero_extendqisi2
 705 002a 06E0     		b	.L35
 706              	.L32:
 707              		.loc 1 224 0 discriminator 2
 708 002c 039B     		ldr	r3, [sp, #12]
 709 002e 0133     		adds	r3, r3, #1
 710 0030 0393     		str	r3, [sp, #12]
 711              	.L31:
 712              		.loc 1 224 0 is_stmt 0 discriminator 1
 713 0032 039B     		ldr	r3, [sp, #12]
 714 0034 082B     		cmp	r3, #8
 715 0036 E9DD     		ble	.L34
 716              		.loc 1 229 0 is_stmt 1
 717 0038 FF23     		movs	r3, #255
 718              	.L35:
 719              		.loc 1 230 0 discriminator 1
 720 003a 1846     		mov	r0, r3
 721 003c 05B0     		add	sp, sp, #20
 722              		.cfi_def_cfa_offset 4
 723              		@ sp needed
 724 003e 5DF804FB 		ldr	pc, [sp], #4
 725              		.cfi_endproc
 726              	.LFE123:
 727              		.size	recvr1, .-recvr1
 728 0042 00BFAFF3 		.section	.text.recvr3,"ax",%progbits
 728      0080AFF3 
 728      0080AFF3 
 728      0080
 729              		.align	2
 730              		.p2align 4,,15
 731              		.thumb
 732              		.thumb_func
 733              		.type	recvr3, %function
 734              	recvr3:
 735              	.LFB124:
 736              		.loc 1 242 0
 737              		.cfi_startproc
 738              		@ args = 0, pretend = 0, frame = 16
ARM GAS  /tmp/ccxbZr1V.s 			page 14


 739              		@ frame_needed = 0, uses_anonymous_args = 0
 740 0000 00B5     		push	{lr}
 741              		.cfi_def_cfa_offset 4
 742              		.cfi_offset 14, -4
 743 0002 85B0     		sub	sp, sp, #20
 744              		.cfi_def_cfa_offset 24
 745 0004 0190     		str	r0, [sp, #4]
 746 0006 0091     		str	r1, [sp]
 747              		.loc 1 245 0
 748 0008 0198     		ldr	r0, [sp, #4]
 749 000a FFF7FEFF 		bl	recvr1
 750 000e 0346     		mov	r3, r0
 751 0010 8DF80F30 		strb	r3, [sp, #15]
 752              		.loc 1 246 0
 753 0014 019B     		ldr	r3, [sp, #4]
 754 0016 DB6A     		ldr	r3, [r3, #44]
 755 0018 1B68     		ldr	r3, [r3]
 756 001a 1846     		mov	r0, r3
 757 001c 0421     		movs	r1, #4
 758 001e 009A     		ldr	r2, [sp]
 759 0020 FFF7FEFF 		bl	spiReceive
 760              		.loc 1 248 0
 761 0024 9DF80F30 		ldrb	r3, [sp, #15]	@ zero_extendqisi2
 762              		.loc 1 249 0
 763 0028 1846     		mov	r0, r3
 764 002a 05B0     		add	sp, sp, #20
 765              		.cfi_def_cfa_offset 4
 766              		@ sp needed
 767 002c 5DF804FB 		ldr	pc, [sp], #4
 768              		.cfi_endproc
 769              	.LFE124:
 770              		.size	recvr3, .-recvr3
 771              		.section	.text.send_command_R1,"ax",%progbits
 772              		.align	2
 773              		.p2align 4,,15
 774              		.thumb
 775              		.thumb_func
 776              		.type	send_command_R1, %function
 777              	send_command_R1:
 778              	.LFB125:
 779              		.loc 1 262 0
 780              		.cfi_startproc
 781              		@ args = 0, pretend = 0, frame = 24
 782              		@ frame_needed = 0, uses_anonymous_args = 0
 783 0000 00B5     		push	{lr}
 784              		.cfi_def_cfa_offset 4
 785              		.cfi_offset 14, -4
 786 0002 87B0     		sub	sp, sp, #28
 787              		.cfi_def_cfa_offset 32
 788 0004 0390     		str	r0, [sp, #12]
 789 0006 0B46     		mov	r3, r1
 790 0008 0192     		str	r2, [sp, #4]
 791 000a 8DF80B30 		strb	r3, [sp, #11]
 792              		.loc 1 265 0
 793 000e 039B     		ldr	r3, [sp, #12]
 794 0010 DB6A     		ldr	r3, [r3, #44]
 795 0012 1B68     		ldr	r3, [r3]
ARM GAS  /tmp/ccxbZr1V.s 			page 15


 796 0014 1846     		mov	r0, r3
 797 0016 FFF7FEFF 		bl	spiSelect
 798              		.loc 1 266 0
 799 001a 9DF80B30 		ldrb	r3, [sp, #11]	@ zero_extendqisi2
 800 001e 0398     		ldr	r0, [sp, #12]
 801 0020 1946     		mov	r1, r3
 802 0022 019A     		ldr	r2, [sp, #4]
 803 0024 FFF7FEFF 		bl	send_hdr
 804              		.loc 1 267 0
 805 0028 0398     		ldr	r0, [sp, #12]
 806 002a FFF7FEFF 		bl	recvr1
 807 002e 0346     		mov	r3, r0
 808 0030 8DF81730 		strb	r3, [sp, #23]
 809              		.loc 1 268 0
 810 0034 039B     		ldr	r3, [sp, #12]
 811 0036 DB6A     		ldr	r3, [r3, #44]
 812 0038 1B68     		ldr	r3, [r3]
 813 003a 1846     		mov	r0, r3
 814 003c FFF7FEFF 		bl	spiUnselect
 815              		.loc 1 269 0
 816 0040 9DF81730 		ldrb	r3, [sp, #23]	@ zero_extendqisi2
 817              		.loc 1 270 0
 818 0044 1846     		mov	r0, r3
 819 0046 07B0     		add	sp, sp, #28
 820              		.cfi_def_cfa_offset 4
 821              		@ sp needed
 822 0048 5DF804FB 		ldr	pc, [sp], #4
 823              		.cfi_endproc
 824              	.LFE125:
 825              		.size	send_command_R1, .-send_command_R1
 826 004c AFF30080 		.section	.text.send_command_R3,"ax",%progbits
 827              		.align	2
 828              		.p2align 4,,15
 829              		.thumb
 830              		.thumb_func
 831              		.type	send_command_R3, %function
 832              	send_command_R3:
 833              	.LFB126:
 834              		.loc 1 286 0
 835              		.cfi_startproc
 836              		@ args = 0, pretend = 0, frame = 24
 837              		@ frame_needed = 0, uses_anonymous_args = 0
 838 0000 00B5     		push	{lr}
 839              		.cfi_def_cfa_offset 4
 840              		.cfi_offset 14, -4
 841 0002 87B0     		sub	sp, sp, #28
 842              		.cfi_def_cfa_offset 32
 843 0004 0390     		str	r0, [sp, #12]
 844 0006 0192     		str	r2, [sp, #4]
 845 0008 0093     		str	r3, [sp]
 846 000a 0B46     		mov	r3, r1
 847 000c 8DF80B30 		strb	r3, [sp, #11]
 848              		.loc 1 289 0
 849 0010 039B     		ldr	r3, [sp, #12]
 850 0012 DB6A     		ldr	r3, [r3, #44]
 851 0014 1B68     		ldr	r3, [r3]
 852 0016 1846     		mov	r0, r3
ARM GAS  /tmp/ccxbZr1V.s 			page 16


 853 0018 FFF7FEFF 		bl	spiSelect
 854              		.loc 1 290 0
 855 001c 9DF80B30 		ldrb	r3, [sp, #11]	@ zero_extendqisi2
 856 0020 0398     		ldr	r0, [sp, #12]
 857 0022 1946     		mov	r1, r3
 858 0024 019A     		ldr	r2, [sp, #4]
 859 0026 FFF7FEFF 		bl	send_hdr
 860              		.loc 1 291 0
 861 002a 0398     		ldr	r0, [sp, #12]
 862 002c 0099     		ldr	r1, [sp]
 863 002e FFF7FEFF 		bl	recvr3
 864 0032 0346     		mov	r3, r0
 865 0034 8DF81730 		strb	r3, [sp, #23]
 866              		.loc 1 292 0
 867 0038 039B     		ldr	r3, [sp, #12]
 868 003a DB6A     		ldr	r3, [r3, #44]
 869 003c 1B68     		ldr	r3, [r3]
 870 003e 1846     		mov	r0, r3
 871 0040 FFF7FEFF 		bl	spiUnselect
 872              		.loc 1 293 0
 873 0044 9DF81730 		ldrb	r3, [sp, #23]	@ zero_extendqisi2
 874              		.loc 1 294 0
 875 0048 1846     		mov	r0, r3
 876 004a 07B0     		add	sp, sp, #28
 877              		.cfi_def_cfa_offset 4
 878              		@ sp needed
 879 004c 5DF804FB 		ldr	pc, [sp], #4
 880              		.cfi_endproc
 881              	.LFE126:
 882              		.size	send_command_R3, .-send_command_R3
 883              		.section	.text.read_CxD,"ax",%progbits
 884              		.align	2
 885              		.p2align 4,,15
 886              		.thumb
 887              		.thumb_func
 888              		.type	read_CxD, %function
 889              	read_CxD:
 890              	.LFB127:
 891              		.loc 1 308 0
 892              		.cfi_startproc
 893              		@ args = 0, pretend = 0, frame = 48
 894              		@ frame_needed = 0, uses_anonymous_args = 0
 895 0000 00B5     		push	{lr}
 896              		.cfi_def_cfa_offset 4
 897              		.cfi_offset 14, -4
 898 0002 8DB0     		sub	sp, sp, #52
 899              		.cfi_def_cfa_offset 56
 900 0004 0390     		str	r0, [sp, #12]
 901 0006 0B46     		mov	r3, r1
 902 0008 0192     		str	r2, [sp, #4]
 903 000a 8DF80B30 		strb	r3, [sp, #11]
 904              		.loc 1 312 0
 905 000e 039B     		ldr	r3, [sp, #12]
 906 0010 DB6A     		ldr	r3, [r3, #44]
 907 0012 1B68     		ldr	r3, [r3]
 908 0014 1846     		mov	r0, r3
 909 0016 FFF7FEFF 		bl	spiSelect
ARM GAS  /tmp/ccxbZr1V.s 			page 17


 910              		.loc 1 313 0
 911 001a 9DF80B30 		ldrb	r3, [sp, #11]	@ zero_extendqisi2
 912 001e 0398     		ldr	r0, [sp, #12]
 913 0020 1946     		mov	r1, r3
 914 0022 0022     		movs	r2, #0
 915 0024 FFF7FEFF 		bl	send_hdr
 916              		.loc 1 314 0
 917 0028 0398     		ldr	r0, [sp, #12]
 918 002a FFF7FEFF 		bl	recvr1
 919 002e 0346     		mov	r3, r0
 920 0030 002B     		cmp	r3, #0
 921 0032 07D0     		beq	.L43
 922              		.loc 1 315 0
 923 0034 039B     		ldr	r3, [sp, #12]
 924 0036 DB6A     		ldr	r3, [r3, #44]
 925 0038 1B68     		ldr	r3, [r3]
 926 003a 1846     		mov	r0, r3
 927 003c FFF7FEFF 		bl	spiUnselect
 928              		.loc 1 316 0
 929 0040 0123     		movs	r3, #1
 930 0042 53E0     		b	.L50
 931              	.L43:
 932              		.loc 1 320 0
 933 0044 0023     		movs	r3, #0
 934 0046 0B93     		str	r3, [sp, #44]
 935 0048 4AE0     		b	.L45
 936              	.L49:
 937              		.loc 1 321 0
 938 004a 039B     		ldr	r3, [sp, #12]
 939 004c DB6A     		ldr	r3, [r3, #44]
 940 004e 1A68     		ldr	r2, [r3]
 941 0050 05AB     		add	r3, sp, #20
 942 0052 1046     		mov	r0, r2
 943 0054 0121     		movs	r1, #1
 944 0056 1A46     		mov	r2, r3
 945 0058 FFF7FEFF 		bl	spiReceive
 946              		.loc 1 322 0
 947 005c 9DF81430 		ldrb	r3, [sp, #20]	@ zero_extendqisi2
 948 0060 FE2B     		cmp	r3, #254
 949 0062 3AD1     		bne	.L46
 950              	.LBB2:
 951              		.loc 1 325 0
 952 0064 039B     		ldr	r3, [sp, #12]
 953 0066 DB6A     		ldr	r3, [r3, #44]
 954 0068 1A68     		ldr	r2, [r3]
 955 006a 05AB     		add	r3, sp, #20
 956 006c 1046     		mov	r0, r2
 957 006e 1021     		movs	r1, #16
 958 0070 1A46     		mov	r2, r3
 959 0072 FFF7FEFF 		bl	spiReceive
 960              		.loc 1 326 0
 961 0076 05AB     		add	r3, sp, #20
 962 0078 0A93     		str	r3, [sp, #40]
 963              		.loc 1 327 0
 964 007a 019B     		ldr	r3, [sp, #4]
 965 007c 0C33     		adds	r3, r3, #12
 966 007e 0993     		str	r3, [sp, #36]
ARM GAS  /tmp/ccxbZr1V.s 			page 18


 967 0080 18E0     		b	.L47
 968              	.L48:
 969              		.loc 1 328 0 discriminator 3
 970 0082 0A9B     		ldr	r3, [sp, #40]
 971 0084 1B78     		ldrb	r3, [r3]	@ zero_extendqisi2
 972 0086 1A06     		lsls	r2, r3, #24
 973 0088 0A9B     		ldr	r3, [sp, #40]
 974 008a 0133     		adds	r3, r3, #1
 975 008c 1B78     		ldrb	r3, [r3]	@ zero_extendqisi2
 976 008e 1B04     		lsls	r3, r3, #16
 977 0090 1A43     		orrs	r2, r2, r3
 978              		.loc 1 329 0 discriminator 3
 979 0092 0A9B     		ldr	r3, [sp, #40]
 980 0094 0233     		adds	r3, r3, #2
 981 0096 1B78     		ldrb	r3, [r3]	@ zero_extendqisi2
 982 0098 1B02     		lsls	r3, r3, #8
 983              		.loc 1 328 0 discriminator 3
 984 009a 1343     		orrs	r3, r3, r2
 985              		.loc 1 329 0 discriminator 3
 986 009c 0A9A     		ldr	r2, [sp, #40]
 987 009e 0332     		adds	r2, r2, #3
 988 00a0 1278     		ldrb	r2, [r2]	@ zero_extendqisi2
 989 00a2 1A43     		orrs	r2, r2, r3
 990              		.loc 1 328 0 discriminator 3
 991 00a4 099B     		ldr	r3, [sp, #36]
 992 00a6 1A60     		str	r2, [r3]
 993              		.loc 1 330 0 discriminator 3
 994 00a8 0A9B     		ldr	r3, [sp, #40]
 995 00aa 0433     		adds	r3, r3, #4
 996 00ac 0A93     		str	r3, [sp, #40]
 997              		.loc 1 327 0 discriminator 3
 998 00ae 099B     		ldr	r3, [sp, #36]
 999 00b0 043B     		subs	r3, r3, #4
 1000 00b2 0993     		str	r3, [sp, #36]
 1001              	.L47:
 1002              		.loc 1 327 0 is_stmt 0 discriminator 1
 1003 00b4 099A     		ldr	r2, [sp, #36]
 1004 00b6 019B     		ldr	r3, [sp, #4]
 1005 00b8 9A42     		cmp	r2, r3
 1006 00ba E2D2     		bcs	.L48
 1007              		.loc 1 334 0 is_stmt 1
 1008 00bc 039B     		ldr	r3, [sp, #12]
 1009 00be DB6A     		ldr	r3, [r3, #44]
 1010 00c0 1B68     		ldr	r3, [r3]
 1011 00c2 1846     		mov	r0, r3
 1012 00c4 0221     		movs	r1, #2
 1013 00c6 FFF7FEFF 		bl	spiIgnore
 1014              		.loc 1 335 0
 1015 00ca 039B     		ldr	r3, [sp, #12]
 1016 00cc DB6A     		ldr	r3, [r3, #44]
 1017 00ce 1B68     		ldr	r3, [r3]
 1018 00d0 1846     		mov	r0, r3
 1019 00d2 FFF7FEFF 		bl	spiUnselect
 1020              		.loc 1 337 0
 1021 00d6 0023     		movs	r3, #0
 1022 00d8 08E0     		b	.L50
 1023              	.L46:
ARM GAS  /tmp/ccxbZr1V.s 			page 19


 1024              	.LBE2:
 1025              		.loc 1 320 0 discriminator 2
 1026 00da 0B9B     		ldr	r3, [sp, #44]
 1027 00dc 0133     		adds	r3, r3, #1
 1028 00de 0B93     		str	r3, [sp, #44]
 1029              	.L45:
 1030              		.loc 1 320 0 is_stmt 0 discriminator 1
 1031 00e0 0B9B     		ldr	r3, [sp, #44]
 1032 00e2 42F20F72 		movw	r2, #9999
 1033 00e6 9342     		cmp	r3, r2
 1034 00e8 AFD9     		bls	.L49
 1035              		.loc 1 340 0 is_stmt 1
 1036 00ea 0123     		movs	r3, #1
 1037              	.L50:
 1038              		.loc 1 341 0 discriminator 1
 1039 00ec 1846     		mov	r0, r3
 1040 00ee 0DB0     		add	sp, sp, #52
 1041              		.cfi_def_cfa_offset 4
 1042              		@ sp needed
 1043 00f0 5DF804FB 		ldr	pc, [sp], #4
 1044              		.cfi_endproc
 1045              	.LFE127:
 1046              		.size	read_CxD, .-read_CxD
 1047 00f4 AFF30080 		.section	.text.sync,"ax",%progbits
 1047      AFF30080 
 1047      AFF30080 
 1048              		.align	2
 1049              		.p2align 4,,15
 1050              		.thumb
 1051              		.thumb_func
 1052              		.type	sync, %function
 1053              	sync:
 1054              	.LFB128:
 1055              		.loc 1 350 0
 1056              		.cfi_startproc
 1057              		@ args = 0, pretend = 0, frame = 16
 1058              		@ frame_needed = 0, uses_anonymous_args = 0
 1059 0000 00B5     		push	{lr}
 1060              		.cfi_def_cfa_offset 4
 1061              		.cfi_offset 14, -4
 1062 0002 85B0     		sub	sp, sp, #20
 1063              		.cfi_def_cfa_offset 24
 1064 0004 0190     		str	r0, [sp, #4]
 1065              		.loc 1 353 0
 1066 0006 019B     		ldr	r3, [sp, #4]
 1067 0008 DB6A     		ldr	r3, [r3, #44]
 1068 000a 1B68     		ldr	r3, [r3]
 1069 000c 1846     		mov	r0, r3
 1070 000e FFF7FEFF 		bl	spiSelect
 1071              	.L54:
 1072              		.loc 1 355 0
 1073 0012 019B     		ldr	r3, [sp, #4]
 1074 0014 DB6A     		ldr	r3, [r3, #44]
 1075 0016 1A68     		ldr	r2, [r3]
 1076 0018 03AB     		add	r3, sp, #12
 1077 001a 1046     		mov	r0, r2
 1078 001c 0121     		movs	r1, #1
ARM GAS  /tmp/ccxbZr1V.s 			page 20


 1079 001e 1A46     		mov	r2, r3
 1080 0020 FFF7FEFF 		bl	spiReceive
 1081              		.loc 1 356 0
 1082 0024 9DF80C30 		ldrb	r3, [sp, #12]	@ zero_extendqisi2
 1083 0028 FF2B     		cmp	r3, #255
 1084 002a 00D1     		bne	.L52
 1085              		.loc 1 357 0
 1086 002c 03E0     		b	.L55
 1087              	.L52:
 1088              		.loc 1 359 0
 1089 002e 0120     		movs	r0, #1
 1090 0030 FFF7FEFF 		bl	chThdSleep
 1091              		.loc 1 361 0
 1092 0034 EDE7     		b	.L54
 1093              	.L55:
 1094              		.loc 1 362 0
 1095 0036 019B     		ldr	r3, [sp, #4]
 1096 0038 DB6A     		ldr	r3, [r3, #44]
 1097 003a 1B68     		ldr	r3, [r3]
 1098 003c 1846     		mov	r0, r3
 1099 003e FFF7FEFF 		bl	spiUnselect
 1100              		.loc 1 363 0
 1101 0042 05B0     		add	sp, sp, #20
 1102              		.cfi_def_cfa_offset 4
 1103              		@ sp needed
 1104 0044 5DF804FB 		ldr	pc, [sp], #4
 1105              		.cfi_endproc
 1106              	.LFE128:
 1107              		.size	sync, .-sync
 1108 0048 AFF30080 		.section	.text.mmcInit,"ax",%progbits
 1108      AFF30080 
 1109              		.align	2
 1110              		.p2align 4,,15
 1111              		.global	mmcInit
 1112              		.thumb
 1113              		.thumb_func
 1114              		.type	mmcInit, %function
 1115              	mmcInit:
 1116              	.LFB129:
 1117              		.loc 1 376 0
 1118              		.cfi_startproc
 1119              		@ args = 0, pretend = 0, frame = 0
 1120              		@ frame_needed = 0, uses_anonymous_args = 0
 1121              		@ link register save eliminated.
 1122              		.loc 1 378 0
 1123 0000 7047     		bx	lr
 1124              		.cfi_endproc
 1125              	.LFE129:
 1126              		.size	mmcInit, .-mmcInit
 1127 0002 00BFAFF3 		.section	.text.mmcObjectInit,"ax",%progbits
 1127      0080AFF3 
 1127      0080AFF3 
 1127      0080
 1128              		.align	2
 1129              		.p2align 4,,15
 1130              		.global	mmcObjectInit
 1131              		.thumb
ARM GAS  /tmp/ccxbZr1V.s 			page 21


 1132              		.thumb_func
 1133              		.type	mmcObjectInit, %function
 1134              	mmcObjectInit:
 1135              	.LFB130:
 1136              		.loc 1 387 0
 1137              		.cfi_startproc
 1138              		@ args = 0, pretend = 0, frame = 8
 1139              		@ frame_needed = 0, uses_anonymous_args = 0
 1140              		@ link register save eliminated.
 1141 0000 82B0     		sub	sp, sp, #8
 1142              		.cfi_def_cfa_offset 8
 1143 0002 0190     		str	r0, [sp, #4]
 1144              		.loc 1 389 0
 1145 0004 019B     		ldr	r3, [sp, #4]
 1146 0006 074A     		ldr	r2, .L58
 1147 0008 1A60     		str	r2, [r3]
 1148              		.loc 1 390 0
 1149 000a 019B     		ldr	r3, [sp, #4]
 1150 000c 0122     		movs	r2, #1
 1151 000e 1A71     		strb	r2, [r3, #4]
 1152              		.loc 1 391 0
 1153 0010 019B     		ldr	r3, [sp, #4]
 1154 0012 0022     		movs	r2, #0
 1155 0014 DA62     		str	r2, [r3, #44]
 1156              		.loc 1 392 0
 1157 0016 019B     		ldr	r3, [sp, #4]
 1158 0018 0022     		movs	r2, #0
 1159 001a 83F83020 		strb	r2, [r3, #48]
 1160              		.loc 1 393 0
 1161 001e 02B0     		add	sp, sp, #8
 1162              		.cfi_def_cfa_offset 0
 1163              		@ sp needed
 1164 0020 7047     		bx	lr
 1165              	.L59:
 1166 0022 00BF     		.align	2
 1167              	.L58:
 1168 0024 00000000 		.word	mmc_vmt
 1169              		.cfi_endproc
 1170              	.LFE130:
 1171              		.size	mmcObjectInit, .-mmcObjectInit
 1172 0028 AFF30080 		.section	.rodata
 1172      AFF30080 
 1173              		.align	2
 1174              	.LC0:
 1175 0000 226D6D63 		.ascii	"\"mmcStart\"()\000"
 1175      53746172 
 1175      74222829 
 1175      00
 1176 000d 000000   		.align	2
 1177              	.LC1:
 1178 0010 6D6D6353 		.ascii	"mmcStart(), #1\000"
 1178      74617274 
 1178      28292C20 
 1178      233100
 1179              		.section	.text.mmcStart,"ax",%progbits
 1180              		.align	2
 1181              		.p2align 4,,15
ARM GAS  /tmp/ccxbZr1V.s 			page 22


 1182              		.global	mmcStart
 1183              		.thumb
 1184              		.thumb_func
 1185              		.type	mmcStart, %function
 1186              	mmcStart:
 1187              	.LFB131:
 1188              		.loc 1 403 0
 1189              		.cfi_startproc
 1190              		@ args = 0, pretend = 0, frame = 8
 1191              		@ frame_needed = 0, uses_anonymous_args = 0
 1192 0000 00B5     		push	{lr}
 1193              		.cfi_def_cfa_offset 4
 1194              		.cfi_offset 14, -4
 1195 0002 83B0     		sub	sp, sp, #12
 1196              		.cfi_def_cfa_offset 16
 1197 0004 0190     		str	r0, [sp, #4]
 1198 0006 0091     		str	r1, [sp]
 1199              		.loc 1 405 0
 1200 0008 019B     		ldr	r3, [sp, #4]
 1201 000a 002B     		cmp	r3, #0
 1202 000c 02D0     		beq	.L61
 1203              		.loc 1 405 0 is_stmt 0 discriminator 2
 1204 000e 009B     		ldr	r3, [sp]
 1205 0010 002B     		cmp	r3, #0
 1206 0012 02D1     		bne	.L62
 1207              	.L61:
 1208              		.loc 1 405 0 discriminator 3
 1209 0014 0B48     		ldr	r0, .L64
 1210 0016 FFF7FEFF 		bl	chDbgPanic
 1211              	.L62:
 1212              		.loc 1 406 0 is_stmt 1
 1213 001a 019B     		ldr	r3, [sp, #4]
 1214 001c 1B79     		ldrb	r3, [r3, #4]	@ zero_extendqisi2
 1215 001e 012B     		cmp	r3, #1
 1216 0020 06D0     		beq	.L63
 1217              		.loc 1 406 0 is_stmt 0 discriminator 1
 1218 0022 019B     		ldr	r3, [sp, #4]
 1219 0024 1B79     		ldrb	r3, [r3, #4]	@ zero_extendqisi2
 1220 0026 022B     		cmp	r3, #2
 1221 0028 02D0     		beq	.L63
 1222              		.loc 1 406 0 discriminator 2
 1223 002a 0748     		ldr	r0, .L64+4
 1224 002c FFF7FEFF 		bl	chDbgPanic
 1225              	.L63:
 1226              		.loc 1 409 0 is_stmt 1
 1227 0030 019B     		ldr	r3, [sp, #4]
 1228 0032 009A     		ldr	r2, [sp]
 1229 0034 DA62     		str	r2, [r3, #44]
 1230              		.loc 1 410 0
 1231 0036 019B     		ldr	r3, [sp, #4]
 1232 0038 0222     		movs	r2, #2
 1233 003a 1A71     		strb	r2, [r3, #4]
 1234              		.loc 1 411 0
 1235 003c 03B0     		add	sp, sp, #12
 1236              		.cfi_def_cfa_offset 4
 1237              		@ sp needed
 1238 003e 5DF804FB 		ldr	pc, [sp], #4
ARM GAS  /tmp/ccxbZr1V.s 			page 23


 1239              	.L65:
 1240 0042 00BF     		.align	2
 1241              	.L64:
 1242 0044 00000000 		.word	.LC0
 1243 0048 10000000 		.word	.LC1
 1244              		.cfi_endproc
 1245              	.LFE131:
 1246              		.size	mmcStart, .-mmcStart
 1247 004c AFF30080 		.section	.rodata
 1248 001f 00       		.align	2
 1249              	.LC2:
 1250 0020 226D6D63 		.ascii	"\"mmcStop\"()\000"
 1250      53746F70 
 1250      22282900 
 1251              		.align	2
 1252              	.LC3:
 1253 002c 6D6D6353 		.ascii	"mmcStop(), #1\000"
 1253      746F7028 
 1253      292C2023 
 1253      3100
 1254              		.section	.text.mmcStop,"ax",%progbits
 1255              		.align	2
 1256              		.p2align 4,,15
 1257              		.global	mmcStop
 1258              		.thumb
 1259              		.thumb_func
 1260              		.type	mmcStop, %function
 1261              	mmcStop:
 1262              	.LFB132:
 1263              		.loc 1 420 0
 1264              		.cfi_startproc
 1265              		@ args = 0, pretend = 0, frame = 8
 1266              		@ frame_needed = 0, uses_anonymous_args = 0
 1267 0000 00B5     		push	{lr}
 1268              		.cfi_def_cfa_offset 4
 1269              		.cfi_offset 14, -4
 1270 0002 83B0     		sub	sp, sp, #12
 1271              		.cfi_def_cfa_offset 16
 1272 0004 0190     		str	r0, [sp, #4]
 1273              		.loc 1 422 0
 1274 0006 019B     		ldr	r3, [sp, #4]
 1275 0008 002B     		cmp	r3, #0
 1276 000a 02D1     		bne	.L67
 1277              		.loc 1 422 0 is_stmt 0 discriminator 1
 1278 000c 0C48     		ldr	r0, .L69
 1279 000e FFF7FEFF 		bl	chDbgPanic
 1280              	.L67:
 1281              		.loc 1 423 0 is_stmt 1
 1282 0012 019B     		ldr	r3, [sp, #4]
 1283 0014 1B79     		ldrb	r3, [r3, #4]	@ zero_extendqisi2
 1284 0016 012B     		cmp	r3, #1
 1285 0018 06D0     		beq	.L68
 1286              		.loc 1 423 0 is_stmt 0 discriminator 1
 1287 001a 019B     		ldr	r3, [sp, #4]
 1288 001c 1B79     		ldrb	r3, [r3, #4]	@ zero_extendqisi2
 1289 001e 022B     		cmp	r3, #2
 1290 0020 02D0     		beq	.L68
ARM GAS  /tmp/ccxbZr1V.s 			page 24


 1291              		.loc 1 423 0 discriminator 2
 1292 0022 0848     		ldr	r0, .L69+4
 1293 0024 FFF7FEFF 		bl	chDbgPanic
 1294              	.L68:
 1295              		.loc 1 426 0 is_stmt 1
 1296 0028 019B     		ldr	r3, [sp, #4]
 1297 002a DB6A     		ldr	r3, [r3, #44]
 1298 002c 1B68     		ldr	r3, [r3]
 1299 002e 1846     		mov	r0, r3
 1300 0030 FFF7FEFF 		bl	spiStop
 1301              		.loc 1 427 0
 1302 0034 019B     		ldr	r3, [sp, #4]
 1303 0036 0122     		movs	r2, #1
 1304 0038 1A71     		strb	r2, [r3, #4]
 1305              		.loc 1 428 0
 1306 003a 03B0     		add	sp, sp, #12
 1307              		.cfi_def_cfa_offset 4
 1308              		@ sp needed
 1309 003c 5DF804FB 		ldr	pc, [sp], #4
 1310              	.L70:
 1311              		.align	2
 1312              	.L69:
 1313 0040 20000000 		.word	.LC2
 1314 0044 2C000000 		.word	.LC3
 1315              		.cfi_endproc
 1316              	.LFE132:
 1317              		.size	mmcStop, .-mmcStop
 1318 0048 AFF30080 		.section	.rodata
 1318      AFF30080 
 1319 003a 0000     		.align	2
 1320              	.LC4:
 1321 003c 226D6D63 		.ascii	"\"mmcConnect\"()\000"
 1321      436F6E6E 
 1321      65637422 
 1321      282900
 1322 004b 00       		.align	2
 1323              	.LC5:
 1324 004c 6D6D6343 		.ascii	"mmcConnect(), #1\000"
 1324      6F6E6E65 
 1324      63742829 
 1324      2C202331 
 1324      00
 1325              		.section	.text.mmcConnect,"ax",%progbits
 1326              		.align	2
 1327              		.p2align 4,,15
 1328              		.global	mmcConnect
 1329              		.thumb
 1330              		.thumb_func
 1331              		.type	mmcConnect, %function
 1332              	mmcConnect:
 1333              	.LFB133:
 1334              		.loc 1 447 0
 1335              		.cfi_startproc
 1336              		@ args = 0, pretend = 0, frame = 24
 1337              		@ frame_needed = 0, uses_anonymous_args = 0
 1338 0000 00B5     		push	{lr}
 1339              		.cfi_def_cfa_offset 4
ARM GAS  /tmp/ccxbZr1V.s 			page 25


 1340              		.cfi_offset 14, -4
 1341 0002 87B0     		sub	sp, sp, #28
 1342              		.cfi_def_cfa_offset 32
 1343 0004 0190     		str	r0, [sp, #4]
 1344              		.loc 1 451 0
 1345 0006 019B     		ldr	r3, [sp, #4]
 1346 0008 002B     		cmp	r3, #0
 1347 000a 02D1     		bne	.L72
 1348              		.loc 1 451 0 is_stmt 0 discriminator 1
 1349 000c 7048     		ldr	r0, .L98
 1350 000e FFF7FEFF 		bl	chDbgPanic
 1351              	.L72:
 1352              		.loc 1 453 0 is_stmt 1
 1353 0012 019B     		ldr	r3, [sp, #4]
 1354 0014 1B79     		ldrb	r3, [r3, #4]	@ zero_extendqisi2
 1355 0016 022B     		cmp	r3, #2
 1356 0018 06D0     		beq	.L73
 1357              		.loc 1 453 0 is_stmt 0 discriminator 1
 1358 001a 019B     		ldr	r3, [sp, #4]
 1359 001c 1B79     		ldrb	r3, [r3, #4]	@ zero_extendqisi2
 1360 001e 052B     		cmp	r3, #5
 1361 0020 02D0     		beq	.L73
 1362              		.loc 1 453 0 discriminator 2
 1363 0022 6C48     		ldr	r0, .L98+4
 1364 0024 FFF7FEFF 		bl	chDbgPanic
 1365              	.L73:
 1366              		.loc 1 457 0 is_stmt 1
 1367 0028 019B     		ldr	r3, [sp, #4]
 1368 002a 0322     		movs	r2, #3
 1369 002c 1A71     		strb	r2, [r3, #4]
 1370              		.loc 1 458 0
 1371 002e 019B     		ldr	r3, [sp, #4]
 1372 0030 0022     		movs	r2, #0
 1373 0032 83F83020 		strb	r2, [r3, #48]
 1374              		.loc 1 461 0
 1375 0036 019B     		ldr	r3, [sp, #4]
 1376 0038 DB6A     		ldr	r3, [r3, #44]
 1377 003a 1A68     		ldr	r2, [r3]
 1378 003c 019B     		ldr	r3, [sp, #4]
 1379 003e DB6A     		ldr	r3, [r3, #44]
 1380 0040 5B68     		ldr	r3, [r3, #4]
 1381 0042 1046     		mov	r0, r2
 1382 0044 1946     		mov	r1, r3
 1383 0046 FFF7FEFF 		bl	spiStart
 1384              		.loc 1 462 0
 1385 004a 019B     		ldr	r3, [sp, #4]
 1386 004c DB6A     		ldr	r3, [r3, #44]
 1387 004e 1B68     		ldr	r3, [r3]
 1388 0050 1846     		mov	r0, r3
 1389 0052 1021     		movs	r1, #16
 1390 0054 FFF7FEFF 		bl	spiIgnore
 1391              		.loc 1 465 0
 1392 0058 0023     		movs	r3, #0
 1393 005a 0593     		str	r3, [sp, #20]
 1394              	.L78:
 1395              		.loc 1 467 0
 1396 005c 0198     		ldr	r0, [sp, #4]
ARM GAS  /tmp/ccxbZr1V.s 			page 26


 1397 005e 0021     		movs	r1, #0
 1398 0060 0022     		movs	r2, #0
 1399 0062 FFF7FEFF 		bl	send_command_R1
 1400 0066 0346     		mov	r3, r0
 1401 0068 012B     		cmp	r3, #1
 1402 006a 0BD1     		bne	.L74
 1403              		.loc 1 468 0
 1404 006c 00BF     		nop
 1405              		.loc 1 478 0
 1406 006e 03AB     		add	r3, sp, #12
 1407 0070 0198     		ldr	r0, [sp, #4]
 1408 0072 0821     		movs	r1, #8
 1409 0074 4FF4D572 		mov	r2, #426
 1410 0078 FFF7FEFF 		bl	send_command_R3
 1411 007c 0346     		mov	r3, r0
 1412 007e 052B     		cmp	r3, #5
 1413 0080 3BD0     		beq	.L79
 1414 0082 0AE0     		b	.L95
 1415              	.L74:
 1416              		.loc 1 469 0
 1417 0084 059B     		ldr	r3, [sp, #20]
 1418 0086 0133     		adds	r3, r3, #1
 1419 0088 0593     		str	r3, [sp, #20]
 1420 008a 059B     		ldr	r3, [sp, #20]
 1421 008c 092B     		cmp	r3, #9
 1422 008e 00D9     		bls	.L76
 1423              		.loc 1 470 0
 1424 0090 8FE0     		b	.L77
 1425              	.L76:
 1426              		.loc 1 471 0
 1427 0092 0A20     		movs	r0, #10
 1428 0094 FFF7FEFF 		bl	chThdSleep
 1429              		.loc 1 472 0
 1430 0098 E0E7     		b	.L78
 1431              	.L95:
 1432              		.loc 1 482 0
 1433 009a 0023     		movs	r3, #0
 1434 009c 0593     		str	r3, [sp, #20]
 1435              	.L83:
 1436              		.loc 1 484 0
 1437 009e 0198     		ldr	r0, [sp, #4]
 1438 00a0 3721     		movs	r1, #55
 1439 00a2 0022     		movs	r2, #0
 1440 00a4 FFF7FEFF 		bl	send_command_R1
 1441 00a8 0346     		mov	r3, r0
 1442 00aa 012B     		cmp	r3, #1
 1443 00ac 16D1     		bne	.L80
 1444              		.loc 1 485 0 discriminator 1
 1445 00ae 03AB     		add	r3, sp, #12
 1446 00b0 0198     		ldr	r0, [sp, #4]
 1447 00b2 2921     		movs	r1, #41
 1448 00b4 484A     		ldr	r2, .L98+8
 1449 00b6 FFF7FEFF 		bl	send_command_R3
 1450 00ba 0346     		mov	r3, r0
 1451              		.loc 1 484 0 discriminator 1
 1452 00bc 002B     		cmp	r3, #0
 1453 00be 0DD1     		bne	.L80
ARM GAS  /tmp/ccxbZr1V.s 			page 27


 1454              		.loc 1 487 0
 1455 00c0 00BF     		nop
 1456              		.loc 1 495 0
 1457 00c2 03AB     		add	r3, sp, #12
 1458 00c4 0198     		ldr	r0, [sp, #4]
 1459 00c6 3A21     		movs	r1, #58
 1460 00c8 0022     		movs	r2, #0
 1461 00ca FFF7FEFF 		bl	send_command_R3
 1462              		.loc 1 498 0
 1463 00ce 9DF80C30 		ldrb	r3, [sp, #12]	@ zero_extendqisi2
 1464 00d2 03F04003 		and	r3, r3, #64
 1465 00d6 002B     		cmp	r3, #0
 1466 00d8 0FD0     		beq	.L79
 1467 00da 0AE0     		b	.L96
 1468              	.L80:
 1469              		.loc 1 489 0
 1470 00dc 059B     		ldr	r3, [sp, #20]
 1471 00de 0133     		adds	r3, r3, #1
 1472 00e0 0593     		str	r3, [sp, #20]
 1473 00e2 059B     		ldr	r3, [sp, #20]
 1474 00e4 632B     		cmp	r3, #99
 1475 00e6 00D9     		bls	.L82
 1476              		.loc 1 490 0
 1477 00e8 63E0     		b	.L77
 1478              	.L82:
 1479              		.loc 1 491 0
 1480 00ea 0A20     		movs	r0, #10
 1481 00ec FFF7FEFF 		bl	chThdSleep
 1482              		.loc 1 492 0
 1483 00f0 D5E7     		b	.L83
 1484              	.L96:
 1485              		.loc 1 499 0
 1486 00f2 019B     		ldr	r3, [sp, #4]
 1487 00f4 0122     		movs	r2, #1
 1488 00f6 83F83020 		strb	r2, [r3, #48]
 1489              	.L79:
 1490              		.loc 1 503 0
 1491 00fa 0023     		movs	r3, #0
 1492 00fc 0593     		str	r3, [sp, #20]
 1493              	.L88:
 1494              	.LBB3:
 1495              		.loc 1 505 0
 1496 00fe 0198     		ldr	r0, [sp, #4]
 1497 0100 0121     		movs	r1, #1
 1498 0102 0022     		movs	r2, #0
 1499 0104 FFF7FEFF 		bl	send_command_R1
 1500 0108 0346     		mov	r3, r0
 1501 010a 8DF81330 		strb	r3, [sp, #19]
 1502              		.loc 1 506 0
 1503 010e 9DF81330 		ldrb	r3, [sp, #19]	@ zero_extendqisi2
 1504 0112 002B     		cmp	r3, #0
 1505 0114 14D1     		bne	.L84
 1506              		.loc 1 507 0
 1507 0116 00BF     		nop
 1508              	.LBE3:
 1509              		.loc 1 516 0
 1510 0118 019B     		ldr	r3, [sp, #4]
ARM GAS  /tmp/ccxbZr1V.s 			page 28


 1511 011a DB6A     		ldr	r3, [r3, #44]
 1512 011c 1A68     		ldr	r2, [r3]
 1513 011e 019B     		ldr	r3, [sp, #4]
 1514 0120 DB6A     		ldr	r3, [r3, #44]
 1515 0122 9B68     		ldr	r3, [r3, #8]
 1516 0124 1046     		mov	r0, r2
 1517 0126 1946     		mov	r1, r3
 1518 0128 FFF7FEFF 		bl	spiStart
 1519              		.loc 1 519 0
 1520 012c 0198     		ldr	r0, [sp, #4]
 1521 012e 1021     		movs	r1, #16
 1522 0130 4FF40072 		mov	r2, #512
 1523 0134 FFF7FEFF 		bl	send_command_R1
 1524 0138 0346     		mov	r3, r0
 1525 013a 002B     		cmp	r3, #0
 1526 013c 11D0     		beq	.L89
 1527 013e 0FE0     		b	.L97
 1528              	.L84:
 1529              	.LBB4:
 1530              		.loc 1 508 0
 1531 0140 9DF81330 		ldrb	r3, [sp, #19]	@ zero_extendqisi2
 1532 0144 012B     		cmp	r3, #1
 1533 0146 00D0     		beq	.L86
 1534              		.loc 1 509 0
 1535 0148 33E0     		b	.L77
 1536              	.L86:
 1537              		.loc 1 510 0
 1538 014a 059B     		ldr	r3, [sp, #20]
 1539 014c 0133     		adds	r3, r3, #1
 1540 014e 0593     		str	r3, [sp, #20]
 1541 0150 059B     		ldr	r3, [sp, #20]
 1542 0152 632B     		cmp	r3, #99
 1543 0154 00D9     		bls	.L87
 1544              		.loc 1 511 0
 1545 0156 2CE0     		b	.L77
 1546              	.L87:
 1547              		.loc 1 512 0
 1548 0158 0A20     		movs	r0, #10
 1549 015a FFF7FEFF 		bl	chThdSleep
 1550              	.LBE4:
 1551              		.loc 1 513 0
 1552 015e CEE7     		b	.L88
 1553              	.L97:
 1554              		.loc 1 521 0
 1555 0160 27E0     		b	.L77
 1556              	.L89:
 1557              		.loc 1 524 0
 1558 0162 019B     		ldr	r3, [sp, #4]
 1559 0164 1833     		adds	r3, r3, #24
 1560 0166 0198     		ldr	r0, [sp, #4]
 1561 0168 0921     		movs	r1, #9
 1562 016a 1A46     		mov	r2, r3
 1563 016c FFF7FEFF 		bl	read_CxD
 1564 0170 0346     		mov	r3, r0
 1565 0172 002B     		cmp	r3, #0
 1566 0174 00D0     		beq	.L90
 1567              		.loc 1 525 0
ARM GAS  /tmp/ccxbZr1V.s 			page 29


 1568 0176 1CE0     		b	.L77
 1569              	.L90:
 1570              		.loc 1 526 0
 1571 0178 019B     		ldr	r3, [sp, #4]
 1572 017a 1833     		adds	r3, r3, #24
 1573 017c 1846     		mov	r0, r3
 1574 017e FFF7FEFF 		bl	mmcsdGetCapacity
 1575 0182 0246     		mov	r2, r0
 1576 0184 019B     		ldr	r3, [sp, #4]
 1577 0186 9A62     		str	r2, [r3, #40]
 1578              		.loc 1 527 0
 1579 0188 019B     		ldr	r3, [sp, #4]
 1580 018a 9B6A     		ldr	r3, [r3, #40]
 1581 018c 002B     		cmp	r3, #0
 1582 018e 00D1     		bne	.L91
 1583              		.loc 1 528 0
 1584 0190 0FE0     		b	.L77
 1585              	.L91:
 1586              		.loc 1 530 0
 1587 0192 019B     		ldr	r3, [sp, #4]
 1588 0194 0833     		adds	r3, r3, #8
 1589 0196 0198     		ldr	r0, [sp, #4]
 1590 0198 0A21     		movs	r1, #10
 1591 019a 1A46     		mov	r2, r3
 1592 019c FFF7FEFF 		bl	read_CxD
 1593 01a0 0346     		mov	r3, r0
 1594 01a2 002B     		cmp	r3, #0
 1595 01a4 00D0     		beq	.L92
 1596              		.loc 1 531 0
 1597 01a6 04E0     		b	.L77
 1598              	.L92:
 1599              		.loc 1 533 0
 1600 01a8 019B     		ldr	r3, [sp, #4]
 1601 01aa 0522     		movs	r2, #5
 1602 01ac 1A71     		strb	r2, [r3, #4]
 1603              		.loc 1 534 0
 1604 01ae 0023     		movs	r3, #0
 1605 01b0 09E0     		b	.L94
 1606              	.L77:
 1607              		.loc 1 538 0
 1608 01b2 019B     		ldr	r3, [sp, #4]
 1609 01b4 DB6A     		ldr	r3, [r3, #44]
 1610 01b6 1B68     		ldr	r3, [r3]
 1611 01b8 1846     		mov	r0, r3
 1612 01ba FFF7FEFF 		bl	spiStop
 1613              		.loc 1 539 0
 1614 01be 019B     		ldr	r3, [sp, #4]
 1615 01c0 0222     		movs	r2, #2
 1616 01c2 1A71     		strb	r2, [r3, #4]
 1617              		.loc 1 540 0
 1618 01c4 0123     		movs	r3, #1
 1619              	.L94:
 1620              		.loc 1 541 0 discriminator 1
 1621 01c6 1846     		mov	r0, r3
 1622 01c8 07B0     		add	sp, sp, #28
 1623              		.cfi_def_cfa_offset 4
 1624              		@ sp needed
ARM GAS  /tmp/ccxbZr1V.s 			page 30


 1625 01ca 5DF804FB 		ldr	pc, [sp], #4
 1626              	.L99:
 1627 01ce 00BF     		.align	2
 1628              	.L98:
 1629 01d0 3C000000 		.word	.LC4
 1630 01d4 4C000000 		.word	.LC5
 1631 01d8 AA010040 		.word	1073742250
 1632              		.cfi_endproc
 1633              	.LFE133:
 1634              		.size	mmcConnect, .-mmcConnect
 1635 01dc AFF30080 		.section	.rodata
 1636 005d 000000   		.align	2
 1637              	.LC6:
 1638 0060 226D6D63 		.ascii	"\"mmcDisconnect\"()\000"
 1638      44697363 
 1638      6F6E6E65 
 1638      63742228 
 1638      2900
 1639 0072 0000     		.align	2
 1640              	.LC7:
 1641 0074 6D6D6344 		.ascii	"mmcDisconnect(), #1\000"
 1641      6973636F 
 1641      6E6E6563 
 1641      7428292C 
 1641      20233100 
 1642              		.section	.text.mmcDisconnect,"ax",%progbits
 1643              		.align	2
 1644              		.p2align 4,,15
 1645              		.global	mmcDisconnect
 1646              		.thumb
 1647              		.thumb_func
 1648              		.type	mmcDisconnect, %function
 1649              	mmcDisconnect:
 1650              	.LFB134:
 1651              		.loc 1 555 0
 1652              		.cfi_startproc
 1653              		@ args = 0, pretend = 0, frame = 8
 1654              		@ frame_needed = 0, uses_anonymous_args = 0
 1655 0000 00B5     		push	{lr}
 1656              		.cfi_def_cfa_offset 4
 1657              		.cfi_offset 14, -4
 1658 0002 83B0     		sub	sp, sp, #12
 1659              		.cfi_def_cfa_offset 16
 1660 0004 0190     		str	r0, [sp, #4]
 1661              		.loc 1 557 0
 1662 0006 019B     		ldr	r3, [sp, #4]
 1663 0008 002B     		cmp	r3, #0
 1664 000a 02D1     		bne	.L101
 1665              		.loc 1 557 0 is_stmt 0 discriminator 1
 1666 000c 2048     		ldr	r0, .L105
 1667 000e FFF7FEFF 		bl	chDbgPanic
 1668              	.L101:
 1669              	.LBB5:
 1670              		.loc 1 559 0 is_stmt 1
 1671 0012 2023     		movs	r3, #32
 1672              	@ 559 "/home/ergae/r2p-sdk/core/ChibiOS/os/hal/src/mmc_spi.c" 1
 1673 0014 83F31188 		msr     BASEPRI, r3
ARM GAS  /tmp/ccxbZr1V.s 			page 31


 1674              	@ 0 "" 2
 1675              		.thumb
 1676              	.LBE5:
 1677 0018 FFF7FEFF 		bl	dbg_check_lock
 1678              		.loc 1 560 0
 1679 001c 019B     		ldr	r3, [sp, #4]
 1680 001e 1B79     		ldrb	r3, [r3, #4]	@ zero_extendqisi2
 1681 0020 022B     		cmp	r3, #2
 1682 0022 06D0     		beq	.L102
 1683              		.loc 1 560 0 is_stmt 0 discriminator 1
 1684 0024 019B     		ldr	r3, [sp, #4]
 1685 0026 1B79     		ldrb	r3, [r3, #4]	@ zero_extendqisi2
 1686 0028 052B     		cmp	r3, #5
 1687 002a 02D0     		beq	.L102
 1688              		.loc 1 560 0 discriminator 2
 1689 002c 1948     		ldr	r0, .L105+4
 1690 002e FFF7FEFF 		bl	chDbgPanic
 1691              	.L102:
 1692              		.loc 1 562 0 is_stmt 1
 1693 0032 019B     		ldr	r3, [sp, #4]
 1694 0034 1B79     		ldrb	r3, [r3, #4]	@ zero_extendqisi2
 1695 0036 022B     		cmp	r3, #2
 1696 0038 06D1     		bne	.L103
 1697              		.loc 1 563 0
 1698 003a FFF7FEFF 		bl	dbg_check_unlock
 1699              	.LBB6:
 1700 003e 0023     		movs	r3, #0
 1701              	@ 563 "/home/ergae/r2p-sdk/core/ChibiOS/os/hal/src/mmc_spi.c" 1
 1702 0040 83F31188 		msr     BASEPRI, r3
 1703              	@ 0 "" 2
 1704              		.thumb
 1705              	.LBE6:
 1706              		.loc 1 564 0
 1707 0044 0023     		movs	r3, #0
 1708 0046 1EE0     		b	.L104
 1709              	.L103:
 1710              		.loc 1 566 0
 1711 0048 019B     		ldr	r3, [sp, #4]
 1712 004a 0422     		movs	r2, #4
 1713 004c 1A71     		strb	r2, [r3, #4]
 1714              		.loc 1 567 0
 1715 004e FFF7FEFF 		bl	dbg_check_unlock
 1716              	.LBB7:
 1717 0052 0023     		movs	r3, #0
 1718              	@ 567 "/home/ergae/r2p-sdk/core/ChibiOS/os/hal/src/mmc_spi.c" 1
 1719 0054 83F31188 		msr     BASEPRI, r3
 1720              	@ 0 "" 2
 1721              		.thumb
 1722              	.LBE7:
 1723              		.loc 1 570 0
 1724 0058 019B     		ldr	r3, [sp, #4]
 1725 005a DB6A     		ldr	r3, [r3, #44]
 1726 005c 1A68     		ldr	r2, [r3]
 1727 005e 019B     		ldr	r3, [sp, #4]
 1728 0060 DB6A     		ldr	r3, [r3, #44]
 1729 0062 9B68     		ldr	r3, [r3, #8]
 1730 0064 1046     		mov	r0, r2
ARM GAS  /tmp/ccxbZr1V.s 			page 32


 1731 0066 1946     		mov	r1, r3
 1732 0068 FFF7FEFF 		bl	spiStart
 1733              		.loc 1 571 0
 1734 006c 0198     		ldr	r0, [sp, #4]
 1735 006e FFF7FEFF 		bl	sync
 1736              		.loc 1 573 0
 1737 0072 019B     		ldr	r3, [sp, #4]
 1738 0074 DB6A     		ldr	r3, [r3, #44]
 1739 0076 1B68     		ldr	r3, [r3]
 1740 0078 1846     		mov	r0, r3
 1741 007a FFF7FEFF 		bl	spiStop
 1742              		.loc 1 574 0
 1743 007e 019B     		ldr	r3, [sp, #4]
 1744 0080 0222     		movs	r2, #2
 1745 0082 1A71     		strb	r2, [r3, #4]
 1746              		.loc 1 575 0
 1747 0084 0023     		movs	r3, #0
 1748              	.L104:
 1749              		.loc 1 576 0
 1750 0086 1846     		mov	r0, r3
 1751 0088 03B0     		add	sp, sp, #12
 1752              		.cfi_def_cfa_offset 4
 1753              		@ sp needed
 1754 008a 5DF804FB 		ldr	pc, [sp], #4
 1755              	.L106:
 1756 008e 00BF     		.align	2
 1757              	.L105:
 1758 0090 60000000 		.word	.LC6
 1759 0094 74000000 		.word	.LC7
 1760              		.cfi_endproc
 1761              	.LFE134:
 1762              		.size	mmcDisconnect, .-mmcDisconnect
 1763 0098 AFF30080 		.section	.rodata
 1763      AFF30080 
 1764              		.align	2
 1765              	.LC8:
 1766 0088 226D6D63 		.ascii	"\"mmcStartSequentialRead\"()\000"
 1766      53746172 
 1766      74536571 
 1766      75656E74 
 1766      69616C52 
 1767 00a3 00       		.align	2
 1768              	.LC9:
 1769 00a4 6D6D6353 		.ascii	"mmcStartSequentialRead(), #1\000"
 1769      74617274 
 1769      53657175 
 1769      656E7469 
 1769      616C5265 
 1770              		.section	.text.mmcStartSequentialRead,"ax",%progbits
 1771              		.align	2
 1772              		.p2align 4,,15
 1773              		.global	mmcStartSequentialRead
 1774              		.thumb
 1775              		.thumb_func
 1776              		.type	mmcStartSequentialRead, %function
 1777              	mmcStartSequentialRead:
 1778              	.LFB135:
ARM GAS  /tmp/ccxbZr1V.s 			page 33


 1779              		.loc 1 590 0
 1780              		.cfi_startproc
 1781              		@ args = 0, pretend = 0, frame = 8
 1782              		@ frame_needed = 0, uses_anonymous_args = 0
 1783 0000 00B5     		push	{lr}
 1784              		.cfi_def_cfa_offset 4
 1785              		.cfi_offset 14, -4
 1786 0002 83B0     		sub	sp, sp, #12
 1787              		.cfi_def_cfa_offset 16
 1788 0004 0190     		str	r0, [sp, #4]
 1789 0006 0091     		str	r1, [sp]
 1790              		.loc 1 592 0
 1791 0008 019B     		ldr	r3, [sp, #4]
 1792 000a 002B     		cmp	r3, #0
 1793 000c 02D1     		bne	.L108
 1794              		.loc 1 592 0 is_stmt 0 discriminator 1
 1795 000e 2248     		ldr	r0, .L114
 1796 0010 FFF7FEFF 		bl	chDbgPanic
 1797              	.L108:
 1798              		.loc 1 593 0 is_stmt 1
 1799 0014 019B     		ldr	r3, [sp, #4]
 1800 0016 1B79     		ldrb	r3, [r3, #4]	@ zero_extendqisi2
 1801 0018 052B     		cmp	r3, #5
 1802 001a 02D0     		beq	.L109
 1803              		.loc 1 593 0 is_stmt 0 discriminator 1
 1804 001c 1F48     		ldr	r0, .L114+4
 1805 001e FFF7FEFF 		bl	chDbgPanic
 1806              	.L109:
 1807              		.loc 1 597 0 is_stmt 1
 1808 0022 019B     		ldr	r3, [sp, #4]
 1809 0024 0622     		movs	r2, #6
 1810 0026 1A71     		strb	r2, [r3, #4]
 1811              		.loc 1 601 0
 1812 0028 019B     		ldr	r3, [sp, #4]
 1813 002a DB6A     		ldr	r3, [r3, #44]
 1814 002c 1A68     		ldr	r2, [r3]
 1815 002e 019B     		ldr	r3, [sp, #4]
 1816 0030 DB6A     		ldr	r3, [r3, #44]
 1817 0032 9B68     		ldr	r3, [r3, #8]
 1818 0034 1046     		mov	r0, r2
 1819 0036 1946     		mov	r1, r3
 1820 0038 FFF7FEFF 		bl	spiStart
 1821              		.loc 1 602 0
 1822 003c 019B     		ldr	r3, [sp, #4]
 1823 003e DB6A     		ldr	r3, [r3, #44]
 1824 0040 1B68     		ldr	r3, [r3]
 1825 0042 1846     		mov	r0, r3
 1826 0044 FFF7FEFF 		bl	spiSelect
 1827              		.loc 1 604 0
 1828 0048 019B     		ldr	r3, [sp, #4]
 1829 004a 93F83030 		ldrb	r3, [r3, #48]	@ zero_extendqisi2
 1830 004e 002B     		cmp	r3, #0
 1831 0050 05D0     		beq	.L110
 1832              		.loc 1 605 0
 1833 0052 0198     		ldr	r0, [sp, #4]
 1834 0054 1221     		movs	r1, #18
 1835 0056 009A     		ldr	r2, [sp]
ARM GAS  /tmp/ccxbZr1V.s 			page 34


 1836 0058 FFF7FEFF 		bl	send_hdr
 1837 005c 06E0     		b	.L111
 1838              	.L110:
 1839              		.loc 1 607 0
 1840 005e 009B     		ldr	r3, [sp]
 1841 0060 5B02     		lsls	r3, r3, #9
 1842 0062 0198     		ldr	r0, [sp, #4]
 1843 0064 1221     		movs	r1, #18
 1844 0066 1A46     		mov	r2, r3
 1845 0068 FFF7FEFF 		bl	send_hdr
 1846              	.L111:
 1847              		.loc 1 609 0
 1848 006c 0198     		ldr	r0, [sp, #4]
 1849 006e FFF7FEFF 		bl	recvr1
 1850 0072 0346     		mov	r3, r0
 1851 0074 002B     		cmp	r3, #0
 1852 0076 0AD0     		beq	.L112
 1853              		.loc 1 610 0
 1854 0078 019B     		ldr	r3, [sp, #4]
 1855 007a DB6A     		ldr	r3, [r3, #44]
 1856 007c 1B68     		ldr	r3, [r3]
 1857 007e 1846     		mov	r0, r3
 1858 0080 FFF7FEFF 		bl	spiStop
 1859              		.loc 1 611 0
 1860 0084 019B     		ldr	r3, [sp, #4]
 1861 0086 0522     		movs	r2, #5
 1862 0088 1A71     		strb	r2, [r3, #4]
 1863              		.loc 1 612 0
 1864 008a 0123     		movs	r3, #1
 1865 008c 00E0     		b	.L113
 1866              	.L112:
 1867              		.loc 1 614 0
 1868 008e 0023     		movs	r3, #0
 1869              	.L113:
 1870              		.loc 1 615 0
 1871 0090 1846     		mov	r0, r3
 1872 0092 03B0     		add	sp, sp, #12
 1873              		.cfi_def_cfa_offset 4
 1874              		@ sp needed
 1875 0094 5DF804FB 		ldr	pc, [sp], #4
 1876              	.L115:
 1877              		.align	2
 1878              	.L114:
 1879 0098 88000000 		.word	.LC8
 1880 009c A4000000 		.word	.LC9
 1881              		.cfi_endproc
 1882              	.LFE135:
 1883              		.size	mmcStartSequentialRead, .-mmcStartSequentialRead
 1884              		.section	.rodata
 1885 00c1 000000   		.align	2
 1886              	.LC10:
 1887 00c4 226D6D63 		.ascii	"\"mmcSequentialRead\"()\000"
 1887      53657175 
 1887      656E7469 
 1887      616C5265 
 1887      61642228 
 1888              		.section	.text.mmcSequentialRead,"ax",%progbits
ARM GAS  /tmp/ccxbZr1V.s 			page 35


 1889              		.align	2
 1890              		.p2align 4,,15
 1891              		.global	mmcSequentialRead
 1892              		.thumb
 1893              		.thumb_func
 1894              		.type	mmcSequentialRead, %function
 1895              	mmcSequentialRead:
 1896              	.LFB136:
 1897              		.loc 1 629 0
 1898              		.cfi_startproc
 1899              		@ args = 0, pretend = 0, frame = 16
 1900              		@ frame_needed = 0, uses_anonymous_args = 0
 1901 0000 00B5     		push	{lr}
 1902              		.cfi_def_cfa_offset 4
 1903              		.cfi_offset 14, -4
 1904 0002 85B0     		sub	sp, sp, #20
 1905              		.cfi_def_cfa_offset 24
 1906 0004 0190     		str	r0, [sp, #4]
 1907 0006 0091     		str	r1, [sp]
 1908              		.loc 1 632 0
 1909 0008 019B     		ldr	r3, [sp, #4]
 1910 000a 002B     		cmp	r3, #0
 1911 000c 02D0     		beq	.L117
 1912              		.loc 1 632 0 is_stmt 0 discriminator 2
 1913 000e 009B     		ldr	r3, [sp]
 1914 0010 002B     		cmp	r3, #0
 1915 0012 02D1     		bne	.L118
 1916              	.L117:
 1917              		.loc 1 632 0 discriminator 3
 1918 0014 2248     		ldr	r0, .L124
 1919 0016 FFF7FEFF 		bl	chDbgPanic
 1920              	.L118:
 1921              		.loc 1 634 0 is_stmt 1
 1922 001a 019B     		ldr	r3, [sp, #4]
 1923 001c 1B79     		ldrb	r3, [r3, #4]	@ zero_extendqisi2
 1924 001e 062B     		cmp	r3, #6
 1925 0020 01D0     		beq	.L119
 1926              		.loc 1 635 0
 1927 0022 0123     		movs	r3, #1
 1928 0024 38E0     		b	.L120
 1929              	.L119:
 1930              		.loc 1 637 0
 1931 0026 0023     		movs	r3, #0
 1932 0028 0393     		str	r3, [sp, #12]
 1933 002a 20E0     		b	.L121
 1934              	.L123:
 1935              		.loc 1 638 0
 1936 002c 019B     		ldr	r3, [sp, #4]
 1937 002e DB6A     		ldr	r3, [r3, #44]
 1938 0030 1B68     		ldr	r3, [r3]
 1939 0032 1846     		mov	r0, r3
 1940 0034 0121     		movs	r1, #1
 1941 0036 009A     		ldr	r2, [sp]
 1942 0038 FFF7FEFF 		bl	spiReceive
 1943              		.loc 1 639 0
 1944 003c 009B     		ldr	r3, [sp]
 1945 003e 1B78     		ldrb	r3, [r3]	@ zero_extendqisi2
ARM GAS  /tmp/ccxbZr1V.s 			page 36


 1946 0040 FE2B     		cmp	r3, #254
 1947 0042 11D1     		bne	.L122
 1948              		.loc 1 640 0
 1949 0044 019B     		ldr	r3, [sp, #4]
 1950 0046 DB6A     		ldr	r3, [r3, #44]
 1951 0048 1B68     		ldr	r3, [r3]
 1952 004a 1846     		mov	r0, r3
 1953 004c 4FF40071 		mov	r1, #512
 1954 0050 009A     		ldr	r2, [sp]
 1955 0052 FFF7FEFF 		bl	spiReceive
 1956              		.loc 1 642 0
 1957 0056 019B     		ldr	r3, [sp, #4]
 1958 0058 DB6A     		ldr	r3, [r3, #44]
 1959 005a 1B68     		ldr	r3, [r3]
 1960 005c 1846     		mov	r0, r3
 1961 005e 0221     		movs	r1, #2
 1962 0060 FFF7FEFF 		bl	spiIgnore
 1963              		.loc 1 643 0
 1964 0064 0023     		movs	r3, #0
 1965 0066 17E0     		b	.L120
 1966              	.L122:
 1967              		.loc 1 637 0 discriminator 2
 1968 0068 039B     		ldr	r3, [sp, #12]
 1969 006a 0133     		adds	r3, r3, #1
 1970 006c 0393     		str	r3, [sp, #12]
 1971              	.L121:
 1972              		.loc 1 637 0 is_stmt 0 discriminator 1
 1973 006e 039B     		ldr	r3, [sp, #12]
 1974 0070 42F20F72 		movw	r2, #9999
 1975 0074 9342     		cmp	r3, r2
 1976 0076 D9DD     		ble	.L123
 1977              		.loc 1 647 0 is_stmt 1
 1978 0078 019B     		ldr	r3, [sp, #4]
 1979 007a DB6A     		ldr	r3, [r3, #44]
 1980 007c 1B68     		ldr	r3, [r3]
 1981 007e 1846     		mov	r0, r3
 1982 0080 FFF7FEFF 		bl	spiUnselect
 1983              		.loc 1 648 0
 1984 0084 019B     		ldr	r3, [sp, #4]
 1985 0086 DB6A     		ldr	r3, [r3, #44]
 1986 0088 1B68     		ldr	r3, [r3]
 1987 008a 1846     		mov	r0, r3
 1988 008c FFF7FEFF 		bl	spiStop
 1989              		.loc 1 649 0
 1990 0090 019B     		ldr	r3, [sp, #4]
 1991 0092 0522     		movs	r2, #5
 1992 0094 1A71     		strb	r2, [r3, #4]
 1993              		.loc 1 650 0
 1994 0096 0123     		movs	r3, #1
 1995              	.L120:
 1996              		.loc 1 651 0
 1997 0098 1846     		mov	r0, r3
 1998 009a 05B0     		add	sp, sp, #20
 1999              		.cfi_def_cfa_offset 4
 2000              		@ sp needed
 2001 009c 5DF804FB 		ldr	pc, [sp], #4
 2002              	.L125:
ARM GAS  /tmp/ccxbZr1V.s 			page 37


 2003              		.align	2
 2004              	.L124:
 2005 00a0 C4000000 		.word	.LC10
 2006              		.cfi_endproc
 2007              	.LFE136:
 2008              		.size	mmcSequentialRead, .-mmcSequentialRead
 2009 00a4 AFF30080 		.section	.rodata
 2009      AFF30080 
 2009      AFF30080 
 2010 00da 0000     		.align	2
 2011              	.LC11:
 2012 00dc 226D6D63 		.ascii	"\"mmcStopSequentialRead\"()\000"
 2012      53746F70 
 2012      53657175 
 2012      656E7469 
 2012      616C5265 
 2013              		.section	.text.mmcStopSequentialRead,"ax",%progbits
 2014              		.align	2
 2015              		.p2align 4,,15
 2016              		.global	mmcStopSequentialRead
 2017              		.thumb
 2018              		.thumb_func
 2019              		.type	mmcStopSequentialRead, %function
 2020              	mmcStopSequentialRead:
 2021              	.LFB137:
 2022              		.loc 1 664 0
 2023              		.cfi_startproc
 2024              		@ args = 0, pretend = 0, frame = 8
 2025              		@ frame_needed = 0, uses_anonymous_args = 0
 2026 0000 00B5     		push	{lr}
 2027              		.cfi_def_cfa_offset 4
 2028              		.cfi_offset 14, -4
 2029 0002 83B0     		sub	sp, sp, #12
 2030              		.cfi_def_cfa_offset 16
 2031 0004 0190     		str	r0, [sp, #4]
 2032              		.loc 1 668 0
 2033 0006 019B     		ldr	r3, [sp, #4]
 2034 0008 002B     		cmp	r3, #0
 2035 000a 02D1     		bne	.L127
 2036              		.loc 1 668 0 is_stmt 0 discriminator 1
 2037 000c 1048     		ldr	r0, .L130
 2038 000e FFF7FEFF 		bl	chDbgPanic
 2039              	.L127:
 2040              		.loc 1 670 0 is_stmt 1
 2041 0012 019B     		ldr	r3, [sp, #4]
 2042 0014 1B79     		ldrb	r3, [r3, #4]	@ zero_extendqisi2
 2043 0016 062B     		cmp	r3, #6
 2044 0018 01D0     		beq	.L128
 2045              		.loc 1 671 0
 2046 001a 0123     		movs	r3, #1
 2047 001c 14E0     		b	.L129
 2048              	.L128:
 2049              		.loc 1 673 0
 2050 001e 019B     		ldr	r3, [sp, #4]
 2051 0020 DB6A     		ldr	r3, [r3, #44]
 2052 0022 1B68     		ldr	r3, [r3]
 2053 0024 1846     		mov	r0, r3
ARM GAS  /tmp/ccxbZr1V.s 			page 38


 2054 0026 0721     		movs	r1, #7
 2055 0028 0A4A     		ldr	r2, .L130+4
 2056 002a FFF7FEFF 		bl	spiSend
 2057              		.loc 1 676 0
 2058 002e 0198     		ldr	r0, [sp, #4]
 2059 0030 FFF7FEFF 		bl	recvr1
 2060              		.loc 1 679 0
 2061 0034 019B     		ldr	r3, [sp, #4]
 2062 0036 DB6A     		ldr	r3, [r3, #44]
 2063 0038 1B68     		ldr	r3, [r3]
 2064 003a 1846     		mov	r0, r3
 2065 003c FFF7FEFF 		bl	spiUnselect
 2066              		.loc 1 680 0
 2067 0040 019B     		ldr	r3, [sp, #4]
 2068 0042 0522     		movs	r2, #5
 2069 0044 1A71     		strb	r2, [r3, #4]
 2070              		.loc 1 681 0
 2071 0046 0023     		movs	r3, #0
 2072              	.L129:
 2073              		.loc 1 682 0
 2074 0048 1846     		mov	r0, r3
 2075 004a 03B0     		add	sp, sp, #12
 2076              		.cfi_def_cfa_offset 4
 2077              		@ sp needed
 2078 004c 5DF804FB 		ldr	pc, [sp], #4
 2079              	.L131:
 2080              		.align	2
 2081              	.L130:
 2082 0050 DC000000 		.word	.LC11
 2083 0054 00000000 		.word	stopcmd.7337
 2084              		.cfi_endproc
 2085              	.LFE137:
 2086              		.size	mmcStopSequentialRead, .-mmcStopSequentialRead
 2087 0058 AFF30080 		.section	.rodata
 2087      AFF30080 
 2088 00f6 0000     		.align	2
 2089              	.LC12:
 2090 00f8 226D6D63 		.ascii	"\"mmcStartSequentialWrite\"()\000"
 2090      53746172 
 2090      74536571 
 2090      75656E74 
 2090      69616C57 
 2091              		.align	2
 2092              	.LC13:
 2093 0114 6D6D6353 		.ascii	"mmcStartSequentialWrite(), #1\000"
 2093      74617274 
 2093      53657175 
 2093      656E7469 
 2093      616C5772 
 2094              		.section	.text.mmcStartSequentialWrite,"ax",%progbits
 2095              		.align	2
 2096              		.p2align 4,,15
 2097              		.global	mmcStartSequentialWrite
 2098              		.thumb
 2099              		.thumb_func
 2100              		.type	mmcStartSequentialWrite, %function
 2101              	mmcStartSequentialWrite:
ARM GAS  /tmp/ccxbZr1V.s 			page 39


 2102              	.LFB138:
 2103              		.loc 1 696 0
 2104              		.cfi_startproc
 2105              		@ args = 0, pretend = 0, frame = 8
 2106              		@ frame_needed = 0, uses_anonymous_args = 0
 2107 0000 00B5     		push	{lr}
 2108              		.cfi_def_cfa_offset 4
 2109              		.cfi_offset 14, -4
 2110 0002 83B0     		sub	sp, sp, #12
 2111              		.cfi_def_cfa_offset 16
 2112 0004 0190     		str	r0, [sp, #4]
 2113 0006 0091     		str	r1, [sp]
 2114              		.loc 1 698 0
 2115 0008 019B     		ldr	r3, [sp, #4]
 2116 000a 002B     		cmp	r3, #0
 2117 000c 02D1     		bne	.L133
 2118              		.loc 1 698 0 is_stmt 0 discriminator 1
 2119 000e 2248     		ldr	r0, .L139
 2120 0010 FFF7FEFF 		bl	chDbgPanic
 2121              	.L133:
 2122              		.loc 1 699 0 is_stmt 1
 2123 0014 019B     		ldr	r3, [sp, #4]
 2124 0016 1B79     		ldrb	r3, [r3, #4]	@ zero_extendqisi2
 2125 0018 052B     		cmp	r3, #5
 2126 001a 02D0     		beq	.L134
 2127              		.loc 1 699 0 is_stmt 0 discriminator 1
 2128 001c 1F48     		ldr	r0, .L139+4
 2129 001e FFF7FEFF 		bl	chDbgPanic
 2130              	.L134:
 2131              		.loc 1 703 0 is_stmt 1
 2132 0022 019B     		ldr	r3, [sp, #4]
 2133 0024 0722     		movs	r2, #7
 2134 0026 1A71     		strb	r2, [r3, #4]
 2135              		.loc 1 705 0
 2136 0028 019B     		ldr	r3, [sp, #4]
 2137 002a DB6A     		ldr	r3, [r3, #44]
 2138 002c 1A68     		ldr	r2, [r3]
 2139 002e 019B     		ldr	r3, [sp, #4]
 2140 0030 DB6A     		ldr	r3, [r3, #44]
 2141 0032 9B68     		ldr	r3, [r3, #8]
 2142 0034 1046     		mov	r0, r2
 2143 0036 1946     		mov	r1, r3
 2144 0038 FFF7FEFF 		bl	spiStart
 2145              		.loc 1 706 0
 2146 003c 019B     		ldr	r3, [sp, #4]
 2147 003e DB6A     		ldr	r3, [r3, #44]
 2148 0040 1B68     		ldr	r3, [r3]
 2149 0042 1846     		mov	r0, r3
 2150 0044 FFF7FEFF 		bl	spiSelect
 2151              		.loc 1 707 0
 2152 0048 019B     		ldr	r3, [sp, #4]
 2153 004a 93F83030 		ldrb	r3, [r3, #48]	@ zero_extendqisi2
 2154 004e 002B     		cmp	r3, #0
 2155 0050 05D0     		beq	.L135
 2156              		.loc 1 708 0
 2157 0052 0198     		ldr	r0, [sp, #4]
 2158 0054 1921     		movs	r1, #25
ARM GAS  /tmp/ccxbZr1V.s 			page 40


 2159 0056 009A     		ldr	r2, [sp]
 2160 0058 FFF7FEFF 		bl	send_hdr
 2161 005c 06E0     		b	.L136
 2162              	.L135:
 2163              		.loc 1 710 0
 2164 005e 009B     		ldr	r3, [sp]
 2165 0060 5B02     		lsls	r3, r3, #9
 2166 0062 0198     		ldr	r0, [sp, #4]
 2167 0064 1921     		movs	r1, #25
 2168 0066 1A46     		mov	r2, r3
 2169 0068 FFF7FEFF 		bl	send_hdr
 2170              	.L136:
 2171              		.loc 1 713 0
 2172 006c 0198     		ldr	r0, [sp, #4]
 2173 006e FFF7FEFF 		bl	recvr1
 2174 0072 0346     		mov	r3, r0
 2175 0074 002B     		cmp	r3, #0
 2176 0076 0AD0     		beq	.L137
 2177              		.loc 1 714 0
 2178 0078 019B     		ldr	r3, [sp, #4]
 2179 007a DB6A     		ldr	r3, [r3, #44]
 2180 007c 1B68     		ldr	r3, [r3]
 2181 007e 1846     		mov	r0, r3
 2182 0080 FFF7FEFF 		bl	spiStop
 2183              		.loc 1 715 0
 2184 0084 019B     		ldr	r3, [sp, #4]
 2185 0086 0522     		movs	r2, #5
 2186 0088 1A71     		strb	r2, [r3, #4]
 2187              		.loc 1 716 0
 2188 008a 0123     		movs	r3, #1
 2189 008c 00E0     		b	.L138
 2190              	.L137:
 2191              		.loc 1 718 0
 2192 008e 0023     		movs	r3, #0
 2193              	.L138:
 2194              		.loc 1 719 0
 2195 0090 1846     		mov	r0, r3
 2196 0092 03B0     		add	sp, sp, #12
 2197              		.cfi_def_cfa_offset 4
 2198              		@ sp needed
 2199 0094 5DF804FB 		ldr	pc, [sp], #4
 2200              	.L140:
 2201              		.align	2
 2202              	.L139:
 2203 0098 F8000000 		.word	.LC12
 2204 009c 14010000 		.word	.LC13
 2205              		.cfi_endproc
 2206              	.LFE138:
 2207              		.size	mmcStartSequentialWrite, .-mmcStartSequentialWrite
 2208              		.section	.rodata
 2209 0132 0000     		.align	2
 2210              	.LC14:
 2211 0134 226D6D63 		.ascii	"\"mmcSequentialWrite\"()\000"
 2211      53657175 
 2211      656E7469 
 2211      616C5772 
 2211      69746522 
ARM GAS  /tmp/ccxbZr1V.s 			page 41


 2212              		.section	.text.mmcSequentialWrite,"ax",%progbits
 2213              		.align	2
 2214              		.p2align 4,,15
 2215              		.global	mmcSequentialWrite
 2216              		.thumb
 2217              		.thumb_func
 2218              		.type	mmcSequentialWrite, %function
 2219              	mmcSequentialWrite:
 2220              	.LFB139:
 2221              		.loc 1 733 0
 2222              		.cfi_startproc
 2223              		@ args = 0, pretend = 0, frame = 16
 2224              		@ frame_needed = 0, uses_anonymous_args = 0
 2225 0000 00B5     		push	{lr}
 2226              		.cfi_def_cfa_offset 4
 2227              		.cfi_offset 14, -4
 2228 0002 85B0     		sub	sp, sp, #20
 2229              		.cfi_def_cfa_offset 24
 2230 0004 0190     		str	r0, [sp, #4]
 2231 0006 0091     		str	r1, [sp]
 2232              		.loc 1 737 0
 2233 0008 019B     		ldr	r3, [sp, #4]
 2234 000a 002B     		cmp	r3, #0
 2235 000c 02D0     		beq	.L142
 2236              		.loc 1 737 0 is_stmt 0 discriminator 2
 2237 000e 009B     		ldr	r3, [sp]
 2238 0010 002B     		cmp	r3, #0
 2239 0012 02D1     		bne	.L143
 2240              	.L142:
 2241              		.loc 1 737 0 discriminator 3
 2242 0014 2448     		ldr	r0, .L148
 2243 0016 FFF7FEFF 		bl	chDbgPanic
 2244              	.L143:
 2245              		.loc 1 739 0 is_stmt 1
 2246 001a 019B     		ldr	r3, [sp, #4]
 2247 001c 1B79     		ldrb	r3, [r3, #4]	@ zero_extendqisi2
 2248 001e 072B     		cmp	r3, #7
 2249 0020 01D0     		beq	.L144
 2250              		.loc 1 740 0
 2251 0022 0123     		movs	r3, #1
 2252 0024 3BE0     		b	.L147
 2253              	.L144:
 2254              		.loc 1 742 0
 2255 0026 019B     		ldr	r3, [sp, #4]
 2256 0028 DB6A     		ldr	r3, [r3, #44]
 2257 002a 1B68     		ldr	r3, [r3]
 2258 002c 1846     		mov	r0, r3
 2259 002e 0221     		movs	r1, #2
 2260 0030 1E4A     		ldr	r2, .L148+4
 2261 0032 FFF7FEFF 		bl	spiSend
 2262              		.loc 1 743 0
 2263 0036 019B     		ldr	r3, [sp, #4]
 2264 0038 DB6A     		ldr	r3, [r3, #44]
 2265 003a 1B68     		ldr	r3, [r3]
 2266 003c 1846     		mov	r0, r3
 2267 003e 4FF40071 		mov	r1, #512
 2268 0042 009A     		ldr	r2, [sp]
ARM GAS  /tmp/ccxbZr1V.s 			page 42


 2269 0044 FFF7FEFF 		bl	spiSend
 2270              		.loc 1 744 0
 2271 0048 019B     		ldr	r3, [sp, #4]
 2272 004a DB6A     		ldr	r3, [r3, #44]
 2273 004c 1B68     		ldr	r3, [r3]
 2274 004e 1846     		mov	r0, r3
 2275 0050 0221     		movs	r1, #2
 2276 0052 FFF7FEFF 		bl	spiIgnore
 2277              		.loc 1 745 0
 2278 0056 019B     		ldr	r3, [sp, #4]
 2279 0058 DB6A     		ldr	r3, [r3, #44]
 2280 005a 1A68     		ldr	r2, [r3]
 2281 005c 03AB     		add	r3, sp, #12
 2282 005e 1046     		mov	r0, r2
 2283 0060 0121     		movs	r1, #1
 2284 0062 1A46     		mov	r2, r3
 2285 0064 FFF7FEFF 		bl	spiReceive
 2286              		.loc 1 746 0
 2287 0068 9DF80C30 		ldrb	r3, [sp, #12]	@ zero_extendqisi2
 2288 006c 03F01F03 		and	r3, r3, #31
 2289 0070 052B     		cmp	r3, #5
 2290 0072 04D1     		bne	.L146
 2291              		.loc 1 747 0
 2292 0074 0198     		ldr	r0, [sp, #4]
 2293 0076 FFF7FEFF 		bl	wait
 2294              		.loc 1 748 0
 2295 007a 0023     		movs	r3, #0
 2296 007c 0FE0     		b	.L147
 2297              	.L146:
 2298              		.loc 1 752 0
 2299 007e 019B     		ldr	r3, [sp, #4]
 2300 0080 DB6A     		ldr	r3, [r3, #44]
 2301 0082 1B68     		ldr	r3, [r3]
 2302 0084 1846     		mov	r0, r3
 2303 0086 FFF7FEFF 		bl	spiUnselect
 2304              		.loc 1 753 0
 2305 008a 019B     		ldr	r3, [sp, #4]
 2306 008c DB6A     		ldr	r3, [r3, #44]
 2307 008e 1B68     		ldr	r3, [r3]
 2308 0090 1846     		mov	r0, r3
 2309 0092 FFF7FEFF 		bl	spiStop
 2310              		.loc 1 754 0
 2311 0096 019B     		ldr	r3, [sp, #4]
 2312 0098 0522     		movs	r2, #5
 2313 009a 1A71     		strb	r2, [r3, #4]
 2314              		.loc 1 755 0
 2315 009c 0123     		movs	r3, #1
 2316              	.L147:
 2317              		.loc 1 756 0 discriminator 1
 2318 009e 1846     		mov	r0, r3
 2319 00a0 05B0     		add	sp, sp, #20
 2320              		.cfi_def_cfa_offset 4
 2321              		@ sp needed
 2322 00a2 5DF804FB 		ldr	pc, [sp], #4
 2323              	.L149:
 2324 00a6 00BF     		.align	2
 2325              	.L148:
ARM GAS  /tmp/ccxbZr1V.s 			page 43


 2326 00a8 34010000 		.word	.LC14
 2327 00ac 00000000 		.word	start.7346
 2328              		.cfi_endproc
 2329              	.LFE139:
 2330              		.size	mmcSequentialWrite, .-mmcSequentialWrite
 2331              		.section	.rodata
 2332 014b 00       		.align	2
 2333              	.LC15:
 2334 014c 226D6D63 		.ascii	"\"mmcStopSequentialWrite\"()\000"
 2334      53746F70 
 2334      53657175 
 2334      656E7469 
 2334      616C5772 
 2335              		.section	.text.mmcStopSequentialWrite,"ax",%progbits
 2336              		.align	2
 2337              		.p2align 4,,15
 2338              		.global	mmcStopSequentialWrite
 2339              		.thumb
 2340              		.thumb_func
 2341              		.type	mmcStopSequentialWrite, %function
 2342              	mmcStopSequentialWrite:
 2343              	.LFB140:
 2344              		.loc 1 769 0
 2345              		.cfi_startproc
 2346              		@ args = 0, pretend = 0, frame = 8
 2347              		@ frame_needed = 0, uses_anonymous_args = 0
 2348 0000 00B5     		push	{lr}
 2349              		.cfi_def_cfa_offset 4
 2350              		.cfi_offset 14, -4
 2351 0002 83B0     		sub	sp, sp, #12
 2352              		.cfi_def_cfa_offset 16
 2353 0004 0190     		str	r0, [sp, #4]
 2354              		.loc 1 772 0
 2355 0006 019B     		ldr	r3, [sp, #4]
 2356 0008 002B     		cmp	r3, #0
 2357 000a 02D1     		bne	.L151
 2358              		.loc 1 772 0 is_stmt 0 discriminator 1
 2359 000c 0F48     		ldr	r0, .L154
 2360 000e FFF7FEFF 		bl	chDbgPanic
 2361              	.L151:
 2362              		.loc 1 774 0 is_stmt 1
 2363 0012 019B     		ldr	r3, [sp, #4]
 2364 0014 1B79     		ldrb	r3, [r3, #4]	@ zero_extendqisi2
 2365 0016 072B     		cmp	r3, #7
 2366 0018 01D0     		beq	.L152
 2367              		.loc 1 775 0
 2368 001a 0123     		movs	r3, #1
 2369 001c 11E0     		b	.L153
 2370              	.L152:
 2371              		.loc 1 777 0
 2372 001e 019B     		ldr	r3, [sp, #4]
 2373 0020 DB6A     		ldr	r3, [r3, #44]
 2374 0022 1B68     		ldr	r3, [r3]
 2375 0024 1846     		mov	r0, r3
 2376 0026 0221     		movs	r1, #2
 2377 0028 094A     		ldr	r2, .L154+4
 2378 002a FFF7FEFF 		bl	spiSend
ARM GAS  /tmp/ccxbZr1V.s 			page 44


 2379              		.loc 1 778 0
 2380 002e 019B     		ldr	r3, [sp, #4]
 2381 0030 DB6A     		ldr	r3, [r3, #44]
 2382 0032 1B68     		ldr	r3, [r3]
 2383 0034 1846     		mov	r0, r3
 2384 0036 FFF7FEFF 		bl	spiUnselect
 2385              		.loc 1 781 0
 2386 003a 019B     		ldr	r3, [sp, #4]
 2387 003c 0522     		movs	r2, #5
 2388 003e 1A71     		strb	r2, [r3, #4]
 2389              		.loc 1 782 0
 2390 0040 0023     		movs	r3, #0
 2391              	.L153:
 2392              		.loc 1 783 0
 2393 0042 1846     		mov	r0, r3
 2394 0044 03B0     		add	sp, sp, #12
 2395              		.cfi_def_cfa_offset 4
 2396              		@ sp needed
 2397 0046 5DF804FB 		ldr	pc, [sp], #4
 2398              	.L155:
 2399 004a 00BF     		.align	2
 2400              	.L154:
 2401 004c 4C010000 		.word	.LC15
 2402 0050 00000000 		.word	stop.7351
 2403              		.cfi_endproc
 2404              	.LFE140:
 2405              		.size	mmcStopSequentialWrite, .-mmcStopSequentialWrite
 2406 0054 AFF30080 		.section	.rodata
 2406      AFF30080 
 2406      AFF30080 
 2407 0167 00       		.align	2
 2408              	.LC16:
 2409 0168 226D6D63 		.ascii	"\"mmcSync\"()\000"
 2409      53796E63 
 2409      22282900 
 2410              		.section	.text.mmcSync,"ax",%progbits
 2411              		.align	2
 2412              		.p2align 4,,15
 2413              		.global	mmcSync
 2414              		.thumb
 2415              		.thumb_func
 2416              		.type	mmcSync, %function
 2417              	mmcSync:
 2418              	.LFB141:
 2419              		.loc 1 796 0
 2420              		.cfi_startproc
 2421              		@ args = 0, pretend = 0, frame = 8
 2422              		@ frame_needed = 0, uses_anonymous_args = 0
 2423 0000 00B5     		push	{lr}
 2424              		.cfi_def_cfa_offset 4
 2425              		.cfi_offset 14, -4
 2426 0002 83B0     		sub	sp, sp, #12
 2427              		.cfi_def_cfa_offset 16
 2428 0004 0190     		str	r0, [sp, #4]
 2429              		.loc 1 798 0
 2430 0006 019B     		ldr	r3, [sp, #4]
 2431 0008 002B     		cmp	r3, #0
ARM GAS  /tmp/ccxbZr1V.s 			page 45


 2432 000a 02D1     		bne	.L157
 2433              		.loc 1 798 0 is_stmt 0 discriminator 1
 2434 000c 1048     		ldr	r0, .L160
 2435 000e FFF7FEFF 		bl	chDbgPanic
 2436              	.L157:
 2437              		.loc 1 800 0 is_stmt 1
 2438 0012 019B     		ldr	r3, [sp, #4]
 2439 0014 1B79     		ldrb	r3, [r3, #4]	@ zero_extendqisi2
 2440 0016 052B     		cmp	r3, #5
 2441 0018 01D0     		beq	.L158
 2442              		.loc 1 801 0
 2443 001a 0123     		movs	r3, #1
 2444 001c 13E0     		b	.L159
 2445              	.L158:
 2446              		.loc 1 804 0
 2447 001e 019B     		ldr	r3, [sp, #4]
 2448 0020 0822     		movs	r2, #8
 2449 0022 1A71     		strb	r2, [r3, #4]
 2450              		.loc 1 806 0
 2451 0024 019B     		ldr	r3, [sp, #4]
 2452 0026 DB6A     		ldr	r3, [r3, #44]
 2453 0028 1A68     		ldr	r2, [r3]
 2454 002a 019B     		ldr	r3, [sp, #4]
 2455 002c DB6A     		ldr	r3, [r3, #44]
 2456 002e 9B68     		ldr	r3, [r3, #8]
 2457 0030 1046     		mov	r0, r2
 2458 0032 1946     		mov	r1, r3
 2459 0034 FFF7FEFF 		bl	spiStart
 2460              		.loc 1 807 0
 2461 0038 0198     		ldr	r0, [sp, #4]
 2462 003a FFF7FEFF 		bl	sync
 2463              		.loc 1 810 0
 2464 003e 019B     		ldr	r3, [sp, #4]
 2465 0040 0522     		movs	r2, #5
 2466 0042 1A71     		strb	r2, [r3, #4]
 2467              		.loc 1 811 0
 2468 0044 0023     		movs	r3, #0
 2469              	.L159:
 2470              		.loc 1 812 0
 2471 0046 1846     		mov	r0, r3
 2472 0048 03B0     		add	sp, sp, #12
 2473              		.cfi_def_cfa_offset 4
 2474              		@ sp needed
 2475 004a 5DF804FB 		ldr	pc, [sp], #4
 2476              	.L161:
 2477 004e 00BF     		.align	2
 2478              	.L160:
 2479 0050 68010000 		.word	.LC16
 2480              		.cfi_endproc
 2481              	.LFE141:
 2482              		.size	mmcSync, .-mmcSync
 2483 0054 AFF30080 		.section	.rodata
 2483      AFF30080 
 2483      AFF30080 
 2484              		.align	2
 2485              	.LC17:
 2486 0174 226D6D63 		.ascii	"\"mmcGetInfo\"()\000"
ARM GAS  /tmp/ccxbZr1V.s 			page 46


 2486      47657449 
 2486      6E666F22 
 2486      282900
 2487              		.section	.text.mmcGetInfo,"ax",%progbits
 2488              		.align	2
 2489              		.p2align 4,,15
 2490              		.global	mmcGetInfo
 2491              		.thumb
 2492              		.thumb_func
 2493              		.type	mmcGetInfo, %function
 2494              	mmcGetInfo:
 2495              	.LFB142:
 2496              		.loc 1 826 0
 2497              		.cfi_startproc
 2498              		@ args = 0, pretend = 0, frame = 8
 2499              		@ frame_needed = 0, uses_anonymous_args = 0
 2500 0000 00B5     		push	{lr}
 2501              		.cfi_def_cfa_offset 4
 2502              		.cfi_offset 14, -4
 2503 0002 83B0     		sub	sp, sp, #12
 2504              		.cfi_def_cfa_offset 16
 2505 0004 0190     		str	r0, [sp, #4]
 2506 0006 0091     		str	r1, [sp]
 2507              		.loc 1 828 0
 2508 0008 019B     		ldr	r3, [sp, #4]
 2509 000a 002B     		cmp	r3, #0
 2510 000c 02D0     		beq	.L163
 2511              		.loc 1 828 0 is_stmt 0 discriminator 2
 2512 000e 009B     		ldr	r3, [sp]
 2513 0010 002B     		cmp	r3, #0
 2514 0012 02D1     		bne	.L164
 2515              	.L163:
 2516              		.loc 1 828 0 discriminator 3
 2517 0014 0A48     		ldr	r0, .L167
 2518 0016 FFF7FEFF 		bl	chDbgPanic
 2519              	.L164:
 2520              		.loc 1 830 0 is_stmt 1
 2521 001a 019B     		ldr	r3, [sp, #4]
 2522 001c 1B79     		ldrb	r3, [r3, #4]	@ zero_extendqisi2
 2523 001e 052B     		cmp	r3, #5
 2524 0020 01D0     		beq	.L165
 2525              		.loc 1 831 0
 2526 0022 0123     		movs	r3, #1
 2527 0024 08E0     		b	.L166
 2528              	.L165:
 2529              		.loc 1 833 0
 2530 0026 019B     		ldr	r3, [sp, #4]
 2531 0028 9A6A     		ldr	r2, [r3, #40]
 2532 002a 009B     		ldr	r3, [sp]
 2533 002c 5A60     		str	r2, [r3, #4]
 2534              		.loc 1 834 0
 2535 002e 009B     		ldr	r3, [sp]
 2536 0030 4FF40072 		mov	r2, #512
 2537 0034 1A60     		str	r2, [r3]
 2538              		.loc 1 836 0
 2539 0036 0023     		movs	r3, #0
 2540              	.L166:
ARM GAS  /tmp/ccxbZr1V.s 			page 47


 2541              		.loc 1 837 0
 2542 0038 1846     		mov	r0, r3
 2543 003a 03B0     		add	sp, sp, #12
 2544              		.cfi_def_cfa_offset 4
 2545              		@ sp needed
 2546 003c 5DF804FB 		ldr	pc, [sp], #4
 2547              	.L168:
 2548              		.align	2
 2549              	.L167:
 2550 0040 74010000 		.word	.LC17
 2551              		.cfi_endproc
 2552              	.LFE142:
 2553              		.size	mmcGetInfo, .-mmcGetInfo
 2554 0044 AFF30080 		.section	.rodata
 2554      AFF30080 
 2554      AFF30080 
 2555 0183 00       		.align	2
 2556              	.LC18:
 2557 0184 226D6D63 		.ascii	"\"mmcErase\"()\000"
 2557      45726173 
 2557      65222829 
 2557      00
 2558 0191 000000   		.section	.text.mmcErase,"ax",%progbits
 2559              		.align	2
 2560              		.p2align 4,,15
 2561              		.global	mmcErase
 2562              		.thumb
 2563              		.thumb_func
 2564              		.type	mmcErase, %function
 2565              	mmcErase:
 2566              	.LFB143:
 2567              		.loc 1 852 0
 2568              		.cfi_startproc
 2569              		@ args = 0, pretend = 0, frame = 16
 2570              		@ frame_needed = 0, uses_anonymous_args = 0
 2571 0000 00B5     		push	{lr}
 2572              		.cfi_def_cfa_offset 4
 2573              		.cfi_offset 14, -4
 2574 0002 85B0     		sub	sp, sp, #20
 2575              		.cfi_def_cfa_offset 24
 2576 0004 0390     		str	r0, [sp, #12]
 2577 0006 0291     		str	r1, [sp, #8]
 2578 0008 0192     		str	r2, [sp, #4]
 2579              		.loc 1 854 0
 2580 000a 039B     		ldr	r3, [sp, #12]
 2581 000c 002B     		cmp	r3, #0
 2582 000e 02D1     		bne	.L170
 2583              		.loc 1 854 0 is_stmt 0 discriminator 1
 2584 0010 2048     		ldr	r0, .L177
 2585 0012 FFF7FEFF 		bl	chDbgPanic
 2586              	.L170:
 2587              		.loc 1 857 0 is_stmt 1
 2588 0016 039B     		ldr	r3, [sp, #12]
 2589 0018 0722     		movs	r2, #7
 2590 001a 1A71     		strb	r2, [r3, #4]
 2591              		.loc 1 860 0
 2592 001c 039B     		ldr	r3, [sp, #12]
ARM GAS  /tmp/ccxbZr1V.s 			page 48


 2593 001e 93F83030 		ldrb	r3, [r3, #48]	@ zero_extendqisi2
 2594 0022 83F00103 		eor	r3, r3, #1
 2595 0026 DBB2     		uxtb	r3, r3
 2596 0028 002B     		cmp	r3, #0
 2597 002a 05D0     		beq	.L171
 2598              		.loc 1 861 0
 2599 002c 029B     		ldr	r3, [sp, #8]
 2600 002e 5B02     		lsls	r3, r3, #9
 2601 0030 0293     		str	r3, [sp, #8]
 2602              		.loc 1 862 0
 2603 0032 019B     		ldr	r3, [sp, #4]
 2604 0034 5B02     		lsls	r3, r3, #9
 2605 0036 0193     		str	r3, [sp, #4]
 2606              	.L171:
 2607              		.loc 1 865 0
 2608 0038 0398     		ldr	r0, [sp, #12]
 2609 003a 2021     		movs	r1, #32
 2610 003c 029A     		ldr	r2, [sp, #8]
 2611 003e FFF7FEFF 		bl	send_command_R1
 2612 0042 0346     		mov	r3, r0
 2613 0044 002B     		cmp	r3, #0
 2614 0046 00D0     		beq	.L172
 2615              		.loc 1 866 0
 2616 0048 16E0     		b	.L173
 2617              	.L172:
 2618              		.loc 1 868 0
 2619 004a 0398     		ldr	r0, [sp, #12]
 2620 004c 2121     		movs	r1, #33
 2621 004e 019A     		ldr	r2, [sp, #4]
 2622 0050 FFF7FEFF 		bl	send_command_R1
 2623 0054 0346     		mov	r3, r0
 2624 0056 002B     		cmp	r3, #0
 2625 0058 00D0     		beq	.L174
 2626              		.loc 1 869 0
 2627 005a 0DE0     		b	.L173
 2628              	.L174:
 2629              		.loc 1 871 0
 2630 005c 0398     		ldr	r0, [sp, #12]
 2631 005e 2621     		movs	r1, #38
 2632 0060 0022     		movs	r2, #0
 2633 0062 FFF7FEFF 		bl	send_command_R1
 2634 0066 0346     		mov	r3, r0
 2635 0068 002B     		cmp	r3, #0
 2636 006a 00D0     		beq	.L175
 2637              		.loc 1 872 0
 2638 006c 04E0     		b	.L173
 2639              	.L175:
 2640              		.loc 1 874 0
 2641 006e 039B     		ldr	r3, [sp, #12]
 2642 0070 0522     		movs	r2, #5
 2643 0072 1A71     		strb	r2, [r3, #4]
 2644              		.loc 1 875 0
 2645 0074 0023     		movs	r3, #0
 2646 0076 09E0     		b	.L176
 2647              	.L173:
 2648              		.loc 1 879 0
 2649 0078 039B     		ldr	r3, [sp, #12]
ARM GAS  /tmp/ccxbZr1V.s 			page 49


 2650 007a DB6A     		ldr	r3, [r3, #44]
 2651 007c 1B68     		ldr	r3, [r3]
 2652 007e 1846     		mov	r0, r3
 2653 0080 FFF7FEFF 		bl	spiStop
 2654              		.loc 1 880 0
 2655 0084 039B     		ldr	r3, [sp, #12]
 2656 0086 0522     		movs	r2, #5
 2657 0088 1A71     		strb	r2, [r3, #4]
 2658              		.loc 1 881 0
 2659 008a 0123     		movs	r3, #1
 2660              	.L176:
 2661              		.loc 1 882 0
 2662 008c 1846     		mov	r0, r3
 2663 008e 05B0     		add	sp, sp, #20
 2664              		.cfi_def_cfa_offset 4
 2665              		@ sp needed
 2666 0090 5DF804FB 		ldr	pc, [sp], #4
 2667              	.L178:
 2668              		.align	2
 2669              	.L177:
 2670 0094 84010000 		.word	.LC18
 2671              		.cfi_endproc
 2672              	.LFE143:
 2673              		.size	mmcErase, .-mmcErase
 2674 0098 AFF30080 		.section	.rodata.stopcmd.7337,"a",%progbits
 2674      AFF30080 
 2675              		.align	2
 2676              		.type	stopcmd.7337, %object
 2677              		.size	stopcmd.7337, 7
 2678              	stopcmd.7337:
 2679 0000 4C       		.byte	76
 2680 0001 00       		.byte	0
 2681 0002 00       		.byte	0
 2682 0003 00       		.byte	0
 2683 0004 00       		.byte	0
 2684 0005 01       		.byte	1
 2685 0006 FF       		.byte	-1
 2686 0007 00       		.section	.rodata.start.7346,"a",%progbits
 2687              		.align	2
 2688              		.type	start.7346, %object
 2689              		.size	start.7346, 2
 2690              	start.7346:
 2691 0000 FF       		.byte	-1
 2692 0001 FC       		.byte	-4
 2693 0002 0000     		.section	.rodata.stop.7351,"a",%progbits
 2694              		.align	2
 2695              		.type	stop.7351, %object
 2696              		.size	stop.7351, 2
 2697              	stop.7351:
 2698 0000 FD       		.byte	-3
 2699 0001 FF       		.byte	-1
 2700 0002 0000     		.text
 2701              	.Letext0:
 2702              		.file 2 "/home/ergae/r2p-sdk/tools/gcc-arm-none-eabi-4_9-2014q4/lib/gcc/arm-none-eabi/4.9.3/includ
 2703              		.file 3 "/home/ergae/r2p-sdk/tools/gcc-arm-none-eabi-4_9-2014q4/arm-none-eabi/include/machine/_def
 2704              		.file 4 "/home/ergae/r2p-sdk/tools/gcc-arm-none-eabi-4_9-2014q4/arm-none-eabi/include/stdint.h"
 2705              		.file 5 "/home/ergae/r2p-sdk/core/ChibiOS/os/ports/GCC/ARMCMx/chtypes.h"
ARM GAS  /tmp/ccxbZr1V.s 			page 50


 2706              		.file 6 "/home/ergae/r2p-sdk/core/ChibiOS/os/kernel/include/chlists.h"
 2707              		.file 7 "/home/ergae/r2p-sdk/core/ChibiOS/os/kernel/include/chthreads.h"
 2708              		.file 8 "/home/ergae/r2p-sdk/core/ChibiOS/os/ports/GCC/ARMCMx/chcore_v7m.h"
 2709              		.file 9 "/home/ergae/r2p-sdk/core/ChibiOS/os/kernel/include/chmtx.h"
 2710              		.file 10 "/home/ergae/r2p-sdk/core/ChibiOS/os/hal/platforms/STM32F30x/stm32f30x.h"
 2711              		.file 11 "/home/ergae/r2p-sdk/core/ChibiOS/os/hal/platforms/STM32F30x/stm32_dma.h"
 2712              		.file 12 "/home/ergae/r2p-sdk/core/ChibiOS/os/hal/include/io_block.h"
 2713              		.file 13 "/home/ergae/r2p-sdk/core/ChibiOS/os/hal/platforms/STM32/GPIOv2/pal_lld.h"
 2714              		.file 14 "/home/ergae/r2p-sdk/core/ChibiOS/os/hal/include/spi.h"
 2715              		.file 15 "/home/ergae/r2p-sdk/core/ChibiOS/os/hal/platforms/STM32/SPIv2/spi_lld.h"
 2716              		.file 16 "/home/ergae/r2p-sdk/core/ChibiOS/os/hal/include/mmc_spi.h"
 2717              		.file 17 "/home/ergae/r2p-sdk/core/ChibiOS/os/ports/common/ARMCMx/CMSIS/include/core_cm4.h"
 2718              		.section	.debug_info,"",%progbits
 2719              	.Ldebug_info0:
 2720 0000 CE120000 		.4byte	0x12ce
 2721 0004 0400     		.2byte	0x4
 2722 0006 00000000 		.4byte	.Ldebug_abbrev0
 2723 000a 04       		.byte	0x4
 2724 000b 01       		.uleb128 0x1
 2725 000c 53070000 		.4byte	.LASF189
 2726 0010 01       		.byte	0x1
 2727 0011 E4010000 		.4byte	.LASF190
 2728 0015 18000000 		.4byte	.Ldebug_ranges0+0x18
 2729 0019 00000000 		.4byte	0
 2730 001d 00000000 		.4byte	.Ldebug_line0
 2731 0021 02       		.uleb128 0x2
 2732 0022 04       		.byte	0x4
 2733 0023 05       		.byte	0x5
 2734 0024 696E7400 		.ascii	"int\000"
 2735 0028 03       		.uleb128 0x3
 2736 0029 1E000000 		.4byte	.LASF2
 2737 002d 02       		.byte	0x2
 2738 002e D4       		.byte	0xd4
 2739 002f 33000000 		.4byte	0x33
 2740 0033 04       		.uleb128 0x4
 2741 0034 04       		.byte	0x4
 2742 0035 07       		.byte	0x7
 2743 0036 43020000 		.4byte	.LASF0
 2744 003a 04       		.uleb128 0x4
 2745 003b 01       		.byte	0x1
 2746 003c 06       		.byte	0x6
 2747 003d FA000000 		.4byte	.LASF1
 2748 0041 03       		.uleb128 0x3
 2749 0042 44000000 		.4byte	.LASF3
 2750 0046 03       		.byte	0x3
 2751 0047 1D       		.byte	0x1d
 2752 0048 4C000000 		.4byte	0x4c
 2753 004c 04       		.uleb128 0x4
 2754 004d 01       		.byte	0x1
 2755 004e 08       		.byte	0x8
 2756 004f 11050000 		.4byte	.LASF4
 2757 0053 04       		.uleb128 0x4
 2758 0054 02       		.byte	0x2
 2759 0055 05       		.byte	0x5
 2760 0056 44050000 		.4byte	.LASF5
 2761 005a 03       		.uleb128 0x3
 2762 005b 27060000 		.4byte	.LASF6
ARM GAS  /tmp/ccxbZr1V.s 			page 51


 2763 005f 03       		.byte	0x3
 2764 0060 2B       		.byte	0x2b
 2765 0061 65000000 		.4byte	0x65
 2766 0065 04       		.uleb128 0x4
 2767 0066 02       		.byte	0x2
 2768 0067 07       		.byte	0x7
 2769 0068 B0020000 		.4byte	.LASF7
 2770 006c 03       		.uleb128 0x3
 2771 006d 51030000 		.4byte	.LASF8
 2772 0071 03       		.byte	0x3
 2773 0072 3F       		.byte	0x3f
 2774 0073 77000000 		.4byte	0x77
 2775 0077 04       		.uleb128 0x4
 2776 0078 04       		.byte	0x4
 2777 0079 05       		.byte	0x5
 2778 007a 5C010000 		.4byte	.LASF9
 2779 007e 03       		.uleb128 0x3
 2780 007f BE010000 		.4byte	.LASF10
 2781 0083 03       		.byte	0x3
 2782 0084 41       		.byte	0x41
 2783 0085 89000000 		.4byte	0x89
 2784 0089 04       		.uleb128 0x4
 2785 008a 04       		.byte	0x4
 2786 008b 07       		.byte	0x7
 2787 008c D9050000 		.4byte	.LASF11
 2788 0090 04       		.uleb128 0x4
 2789 0091 08       		.byte	0x8
 2790 0092 05       		.byte	0x5
 2791 0093 EC000000 		.4byte	.LASF12
 2792 0097 03       		.uleb128 0x3
 2793 0098 65040000 		.4byte	.LASF13
 2794 009c 03       		.byte	0x3
 2795 009d 5B       		.byte	0x5b
 2796 009e A2000000 		.4byte	0xa2
 2797 00a2 04       		.uleb128 0x4
 2798 00a3 08       		.byte	0x8
 2799 00a4 07       		.byte	0x7
 2800 00a5 72000000 		.4byte	.LASF14
 2801 00a9 04       		.uleb128 0x4
 2802 00aa 04       		.byte	0x4
 2803 00ab 07       		.byte	0x7
 2804 00ac AC030000 		.4byte	.LASF15
 2805 00b0 05       		.uleb128 0x5
 2806 00b1 04       		.byte	0x4
 2807 00b2 04       		.uleb128 0x4
 2808 00b3 01       		.byte	0x1
 2809 00b4 08       		.byte	0x8
 2810 00b5 FC050000 		.4byte	.LASF16
 2811 00b9 06       		.uleb128 0x6
 2812 00ba 04       		.byte	0x4
 2813 00bb BF000000 		.4byte	0xbf
 2814 00bf 07       		.uleb128 0x7
 2815 00c0 B2000000 		.4byte	0xb2
 2816 00c4 03       		.uleb128 0x3
 2817 00c5 CB060000 		.4byte	.LASF17
 2818 00c9 04       		.byte	0x4
 2819 00ca 15       		.byte	0x15
ARM GAS  /tmp/ccxbZr1V.s 			page 52


 2820 00cb 41000000 		.4byte	0x41
 2821 00cf 03       		.uleb128 0x3
 2822 00d0 50020000 		.4byte	.LASF18
 2823 00d4 04       		.byte	0x4
 2824 00d5 21       		.byte	0x21
 2825 00d6 5A000000 		.4byte	0x5a
 2826 00da 03       		.uleb128 0x3
 2827 00db 09050000 		.4byte	.LASF19
 2828 00df 04       		.byte	0x4
 2829 00e0 2C       		.byte	0x2c
 2830 00e1 6C000000 		.4byte	0x6c
 2831 00e5 03       		.uleb128 0x3
 2832 00e6 CB050000 		.4byte	.LASF20
 2833 00ea 04       		.byte	0x4
 2834 00eb 2D       		.byte	0x2d
 2835 00ec 7E000000 		.4byte	0x7e
 2836 00f0 03       		.uleb128 0x3
 2837 00f1 34000000 		.4byte	.LASF21
 2838 00f5 04       		.byte	0x4
 2839 00f6 39       		.byte	0x39
 2840 00f7 97000000 		.4byte	0x97
 2841 00fb 03       		.uleb128 0x3
 2842 00fc 23010000 		.4byte	.LASF22
 2843 0100 05       		.byte	0x5
 2844 0101 2B       		.byte	0x2b
 2845 0102 06010000 		.4byte	0x106
 2846 0106 04       		.uleb128 0x4
 2847 0107 01       		.byte	0x1
 2848 0108 02       		.byte	0x2
 2849 0109 03050000 		.4byte	.LASF23
 2850 010d 03       		.uleb128 0x3
 2851 010e 0A030000 		.4byte	.LASF24
 2852 0112 05       		.byte	0x5
 2853 0113 2C       		.byte	0x2c
 2854 0114 C4000000 		.4byte	0xc4
 2855 0118 03       		.uleb128 0x3
 2856 0119 73010000 		.4byte	.LASF25
 2857 011d 05       		.byte	0x5
 2858 011e 2D       		.byte	0x2d
 2859 011f C4000000 		.4byte	0xc4
 2860 0123 03       		.uleb128 0x3
 2861 0124 16000000 		.4byte	.LASF26
 2862 0128 05       		.byte	0x5
 2863 0129 2E       		.byte	0x2e
 2864 012a C4000000 		.4byte	0xc4
 2865 012e 03       		.uleb128 0x3
 2866 012f 39020000 		.4byte	.LASF27
 2867 0133 05       		.byte	0x5
 2868 0134 2F       		.byte	0x2f
 2869 0135 C4000000 		.4byte	0xc4
 2870 0139 03       		.uleb128 0x3
 2871 013a F5040000 		.4byte	.LASF28
 2872 013e 05       		.byte	0x5
 2873 013f 30       		.byte	0x30
 2874 0140 E5000000 		.4byte	0xe5
 2875 0144 03       		.uleb128 0x3
 2876 0145 EA020000 		.4byte	.LASF29
ARM GAS  /tmp/ccxbZr1V.s 			page 53


 2877 0149 05       		.byte	0x5
 2878 014a 31       		.byte	0x31
 2879 014b DA000000 		.4byte	0xda
 2880 014f 03       		.uleb128 0x3
 2881 0150 3E030000 		.4byte	.LASF30
 2882 0154 05       		.byte	0x5
 2883 0155 33       		.byte	0x33
 2884 0156 E5000000 		.4byte	0xe5
 2885 015a 03       		.uleb128 0x3
 2886 015b 3E060000 		.4byte	.LASF31
 2887 015f 05       		.byte	0x5
 2888 0160 35       		.byte	0x35
 2889 0161 E5000000 		.4byte	0xe5
 2890 0165 03       		.uleb128 0x3
 2891 0166 76030000 		.4byte	.LASF32
 2892 016a 06       		.byte	0x6
 2893 016b 2A       		.byte	0x2a
 2894 016c 70010000 		.4byte	0x170
 2895 0170 08       		.uleb128 0x8
 2896 0171 76030000 		.4byte	.LASF32
 2897 0175 4C       		.byte	0x4c
 2898 0176 07       		.byte	0x7
 2899 0177 5E       		.byte	0x5e
 2900 0178 79020000 		.4byte	0x279
 2901 017c 09       		.uleb128 0x9
 2902 017d 6B050000 		.4byte	.LASF33
 2903 0181 07       		.byte	0x7
 2904 0182 5F       		.byte	0x5f
 2905 0183 9A020000 		.4byte	0x29a
 2906 0187 00       		.byte	0
 2907 0188 09       		.uleb128 0x9
 2908 0189 D0040000 		.4byte	.LASF34
 2909 018d 07       		.byte	0x7
 2910 018e 61       		.byte	0x61
 2911 018f 9A020000 		.4byte	0x29a
 2912 0193 04       		.byte	0x4
 2913 0194 09       		.uleb128 0x9
 2914 0195 D3000000 		.4byte	.LASF35
 2915 0199 07       		.byte	0x7
 2916 019a 63       		.byte	0x63
 2917 019b 39010000 		.4byte	0x139
 2918 019f 08       		.byte	0x8
 2919 01a0 09       		.uleb128 0x9
 2920 01a1 6C080000 		.4byte	.LASF36
 2921 01a5 07       		.byte	0x7
 2922 01a6 64       		.byte	0x64
 2923 01a7 2D040000 		.4byte	0x42d
 2924 01ab 0C       		.byte	0xc
 2925 01ac 09       		.uleb128 0x9
 2926 01ad 85010000 		.4byte	.LASF37
 2927 01b1 07       		.byte	0x7
 2928 01b2 66       		.byte	0x66
 2929 01b3 9A020000 		.4byte	0x29a
 2930 01b7 10       		.byte	0x10
 2931 01b8 09       		.uleb128 0x9
 2932 01b9 DC030000 		.4byte	.LASF38
 2933 01bd 07       		.byte	0x7
ARM GAS  /tmp/ccxbZr1V.s 			page 54


 2934 01be 67       		.byte	0x67
 2935 01bf 9A020000 		.4byte	0x29a
 2936 01c3 14       		.byte	0x14
 2937 01c4 09       		.uleb128 0x9
 2938 01c5 06070000 		.4byte	.LASF39
 2939 01c9 07       		.byte	0x7
 2940 01ca 6E       		.byte	0x6e
 2941 01cb B9000000 		.4byte	0xb9
 2942 01cf 18       		.byte	0x18
 2943 01d0 09       		.uleb128 0x9
 2944 01d1 28040000 		.4byte	.LASF40
 2945 01d5 07       		.byte	0x7
 2946 01d6 74       		.byte	0x74
 2947 01d7 CF040000 		.4byte	0x4cf
 2948 01db 1C       		.byte	0x1c
 2949 01dc 09       		.uleb128 0x9
 2950 01dd 32050000 		.4byte	.LASF41
 2951 01e1 07       		.byte	0x7
 2952 01e2 79       		.byte	0x79
 2953 01e3 18010000 		.4byte	0x118
 2954 01e7 20       		.byte	0x20
 2955 01e8 09       		.uleb128 0x9
 2956 01e9 72050000 		.4byte	.LASF42
 2957 01ed 07       		.byte	0x7
 2958 01ee 7D       		.byte	0x7d
 2959 01ef 0D010000 		.4byte	0x10d
 2960 01f3 21       		.byte	0x21
 2961 01f4 09       		.uleb128 0x9
 2962 01f5 A1060000 		.4byte	.LASF43
 2963 01f9 07       		.byte	0x7
 2964 01fa 82       		.byte	0x82
 2965 01fb 23010000 		.4byte	0x123
 2966 01ff 22       		.byte	0x22
 2967 0200 09       		.uleb128 0x9
 2968 0201 5A050000 		.4byte	.LASF44
 2969 0205 07       		.byte	0x7
 2970 0206 88       		.byte	0x88
 2971 0207 2E010000 		.4byte	0x12e
 2972 020b 23       		.byte	0x23
 2973 020c 09       		.uleb128 0x9
 2974 020d 2B030000 		.4byte	.LASF45
 2975 0211 07       		.byte	0x7
 2976 0212 8F       		.byte	0x8f
 2977 0213 53040000 		.4byte	0x453
 2978 0217 24       		.byte	0x24
 2979 0218 0A       		.uleb128 0xa
 2980 0219 705F7500 		.ascii	"p_u\000"
 2981 021d 07       		.byte	0x7
 2982 021e B4       		.byte	0xb4
 2983 021f 9A040000 		.4byte	0x49a
 2984 0223 28       		.byte	0x28
 2985 0224 09       		.uleb128 0x9
 2986 0225 72080000 		.4byte	.LASF46
 2987 0229 07       		.byte	0x7
 2988 022a B9       		.byte	0xb9
 2989 022b C0020000 		.4byte	0x2c0
 2990 022f 2C       		.byte	0x2c
ARM GAS  /tmp/ccxbZr1V.s 			page 55


 2991 0230 09       		.uleb128 0x9
 2992 0231 8C020000 		.4byte	.LASF47
 2993 0235 07       		.byte	0x7
 2994 0236 BF       		.byte	0xbf
 2995 0237 A0020000 		.4byte	0x2a0
 2996 023b 30       		.byte	0x30
 2997 023c 09       		.uleb128 0x9
 2998 023d C5060000 		.4byte	.LASF48
 2999 0241 07       		.byte	0x7
 3000 0242 C3       		.byte	0xc3
 3001 0243 44010000 		.4byte	0x144
 3002 0247 38       		.byte	0x38
 3003 0248 09       		.uleb128 0x9
 3004 0249 A9050000 		.4byte	.LASF49
 3005 024d 07       		.byte	0x7
 3006 024e C9       		.byte	0xc9
 3007 024f 4F010000 		.4byte	0x14f
 3008 0253 3C       		.byte	0x3c
 3009 0254 09       		.uleb128 0x9
 3010 0255 3A050000 		.4byte	.LASF50
 3011 0259 07       		.byte	0x7
 3012 025a D0       		.byte	0xd0
 3013 025b D5040000 		.4byte	0x4d5
 3014 025f 40       		.byte	0x40
 3015 0260 09       		.uleb128 0x9
 3016 0261 F0020000 		.4byte	.LASF51
 3017 0265 07       		.byte	0x7
 3018 0266 D4       		.byte	0xd4
 3019 0267 39010000 		.4byte	0x139
 3020 026b 44       		.byte	0x44
 3021 026c 09       		.uleb128 0x9
 3022 026d C9010000 		.4byte	.LASF52
 3023 0271 07       		.byte	0x7
 3024 0272 DA       		.byte	0xda
 3025 0273 B0000000 		.4byte	0xb0
 3026 0277 48       		.byte	0x48
 3027 0278 00       		.byte	0
 3028 0279 0B       		.uleb128 0xb
 3029 027a 08       		.byte	0x8
 3030 027b 06       		.byte	0x6
 3031 027c 61       		.byte	0x61
 3032 027d 9A020000 		.4byte	0x29a
 3033 0281 09       		.uleb128 0x9
 3034 0282 6B050000 		.4byte	.LASF33
 3035 0286 06       		.byte	0x6
 3036 0287 62       		.byte	0x62
 3037 0288 9A020000 		.4byte	0x29a
 3038 028c 00       		.byte	0
 3039 028d 09       		.uleb128 0x9
 3040 028e D0040000 		.4byte	.LASF34
 3041 0292 06       		.byte	0x6
 3042 0293 64       		.byte	0x64
 3043 0294 9A020000 		.4byte	0x29a
 3044 0298 04       		.byte	0x4
 3045 0299 00       		.byte	0
 3046 029a 06       		.uleb128 0x6
 3047 029b 04       		.byte	0x4
ARM GAS  /tmp/ccxbZr1V.s 			page 56


 3048 029c 65010000 		.4byte	0x165
 3049 02a0 03       		.uleb128 0x3
 3050 02a1 11040000 		.4byte	.LASF53
 3051 02a5 06       		.byte	0x6
 3052 02a6 66       		.byte	0x66
 3053 02a7 79020000 		.4byte	0x279
 3054 02ab 0B       		.uleb128 0xb
 3055 02ac 04       		.byte	0x4
 3056 02ad 06       		.byte	0x6
 3057 02ae 6B       		.byte	0x6b
 3058 02af C0020000 		.4byte	0x2c0
 3059 02b3 09       		.uleb128 0x9
 3060 02b4 6B050000 		.4byte	.LASF33
 3061 02b8 06       		.byte	0x6
 3062 02b9 6D       		.byte	0x6d
 3063 02ba 9A020000 		.4byte	0x29a
 3064 02be 00       		.byte	0
 3065 02bf 00       		.byte	0
 3066 02c0 03       		.uleb128 0x3
 3067 02c1 32030000 		.4byte	.LASF54
 3068 02c5 06       		.byte	0x6
 3069 02c6 70       		.byte	0x70
 3070 02c7 AB020000 		.4byte	0x2ab
 3071 02cb 03       		.uleb128 0x3
 3072 02cc D1010000 		.4byte	.LASF55
 3073 02d0 08       		.byte	0x8
 3074 02d1 E5       		.byte	0xe5
 3075 02d2 B0000000 		.4byte	0xb0
 3076 02d6 03       		.uleb128 0x3
 3077 02d7 62030000 		.4byte	.LASF56
 3078 02db 08       		.byte	0x8
 3079 02dc EB       		.byte	0xeb
 3080 02dd F0000000 		.4byte	0xf0
 3081 02e1 0C       		.uleb128 0xc
 3082 02e2 6E060000 		.4byte	.LASF57
 3083 02e6 64       		.byte	0x64
 3084 02e7 08       		.byte	0x8
 3085 02e8 0C01     		.2byte	0x10c
 3086 02ea 2D040000 		.4byte	0x42d
 3087 02ee 0D       		.uleb128 0xd
 3088 02ef 73313600 		.ascii	"s16\000"
 3089 02f3 08       		.byte	0x8
 3090 02f4 0E01     		.2byte	0x10e
 3091 02f6 CB020000 		.4byte	0x2cb
 3092 02fa 00       		.byte	0
 3093 02fb 0D       		.uleb128 0xd
 3094 02fc 73313700 		.ascii	"s17\000"
 3095 0300 08       		.byte	0x8
 3096 0301 0F01     		.2byte	0x10f
 3097 0303 CB020000 		.4byte	0x2cb
 3098 0307 04       		.byte	0x4
 3099 0308 0D       		.uleb128 0xd
 3100 0309 73313800 		.ascii	"s18\000"
 3101 030d 08       		.byte	0x8
 3102 030e 1001     		.2byte	0x110
 3103 0310 CB020000 		.4byte	0x2cb
 3104 0314 08       		.byte	0x8
ARM GAS  /tmp/ccxbZr1V.s 			page 57


 3105 0315 0D       		.uleb128 0xd
 3106 0316 73313900 		.ascii	"s19\000"
 3107 031a 08       		.byte	0x8
 3108 031b 1101     		.2byte	0x111
 3109 031d CB020000 		.4byte	0x2cb
 3110 0321 0C       		.byte	0xc
 3111 0322 0D       		.uleb128 0xd
 3112 0323 73323000 		.ascii	"s20\000"
 3113 0327 08       		.byte	0x8
 3114 0328 1201     		.2byte	0x112
 3115 032a CB020000 		.4byte	0x2cb
 3116 032e 10       		.byte	0x10
 3117 032f 0D       		.uleb128 0xd
 3118 0330 73323100 		.ascii	"s21\000"
 3119 0334 08       		.byte	0x8
 3120 0335 1301     		.2byte	0x113
 3121 0337 CB020000 		.4byte	0x2cb
 3122 033b 14       		.byte	0x14
 3123 033c 0D       		.uleb128 0xd
 3124 033d 73323200 		.ascii	"s22\000"
 3125 0341 08       		.byte	0x8
 3126 0342 1401     		.2byte	0x114
 3127 0344 CB020000 		.4byte	0x2cb
 3128 0348 18       		.byte	0x18
 3129 0349 0D       		.uleb128 0xd
 3130 034a 73323300 		.ascii	"s23\000"
 3131 034e 08       		.byte	0x8
 3132 034f 1501     		.2byte	0x115
 3133 0351 CB020000 		.4byte	0x2cb
 3134 0355 1C       		.byte	0x1c
 3135 0356 0D       		.uleb128 0xd
 3136 0357 73323400 		.ascii	"s24\000"
 3137 035b 08       		.byte	0x8
 3138 035c 1601     		.2byte	0x116
 3139 035e CB020000 		.4byte	0x2cb
 3140 0362 20       		.byte	0x20
 3141 0363 0D       		.uleb128 0xd
 3142 0364 73323500 		.ascii	"s25\000"
 3143 0368 08       		.byte	0x8
 3144 0369 1701     		.2byte	0x117
 3145 036b CB020000 		.4byte	0x2cb
 3146 036f 24       		.byte	0x24
 3147 0370 0D       		.uleb128 0xd
 3148 0371 73323600 		.ascii	"s26\000"
 3149 0375 08       		.byte	0x8
 3150 0376 1801     		.2byte	0x118
 3151 0378 CB020000 		.4byte	0x2cb
 3152 037c 28       		.byte	0x28
 3153 037d 0D       		.uleb128 0xd
 3154 037e 73323700 		.ascii	"s27\000"
 3155 0382 08       		.byte	0x8
 3156 0383 1901     		.2byte	0x119
 3157 0385 CB020000 		.4byte	0x2cb
 3158 0389 2C       		.byte	0x2c
 3159 038a 0D       		.uleb128 0xd
 3160 038b 73323800 		.ascii	"s28\000"
 3161 038f 08       		.byte	0x8
ARM GAS  /tmp/ccxbZr1V.s 			page 58


 3162 0390 1A01     		.2byte	0x11a
 3163 0392 CB020000 		.4byte	0x2cb
 3164 0396 30       		.byte	0x30
 3165 0397 0D       		.uleb128 0xd
 3166 0398 73323900 		.ascii	"s29\000"
 3167 039c 08       		.byte	0x8
 3168 039d 1B01     		.2byte	0x11b
 3169 039f CB020000 		.4byte	0x2cb
 3170 03a3 34       		.byte	0x34
 3171 03a4 0D       		.uleb128 0xd
 3172 03a5 73333000 		.ascii	"s30\000"
 3173 03a9 08       		.byte	0x8
 3174 03aa 1C01     		.2byte	0x11c
 3175 03ac CB020000 		.4byte	0x2cb
 3176 03b0 38       		.byte	0x38
 3177 03b1 0D       		.uleb128 0xd
 3178 03b2 73333100 		.ascii	"s31\000"
 3179 03b6 08       		.byte	0x8
 3180 03b7 1D01     		.2byte	0x11d
 3181 03b9 CB020000 		.4byte	0x2cb
 3182 03bd 3C       		.byte	0x3c
 3183 03be 0D       		.uleb128 0xd
 3184 03bf 723400   		.ascii	"r4\000"
 3185 03c2 08       		.byte	0x8
 3186 03c3 1F01     		.2byte	0x11f
 3187 03c5 CB020000 		.4byte	0x2cb
 3188 03c9 40       		.byte	0x40
 3189 03ca 0D       		.uleb128 0xd
 3190 03cb 723500   		.ascii	"r5\000"
 3191 03ce 08       		.byte	0x8
 3192 03cf 2001     		.2byte	0x120
 3193 03d1 CB020000 		.4byte	0x2cb
 3194 03d5 44       		.byte	0x44
 3195 03d6 0D       		.uleb128 0xd
 3196 03d7 723600   		.ascii	"r6\000"
 3197 03da 08       		.byte	0x8
 3198 03db 2101     		.2byte	0x121
 3199 03dd CB020000 		.4byte	0x2cb
 3200 03e1 48       		.byte	0x48
 3201 03e2 0D       		.uleb128 0xd
 3202 03e3 723700   		.ascii	"r7\000"
 3203 03e6 08       		.byte	0x8
 3204 03e7 2201     		.2byte	0x122
 3205 03e9 CB020000 		.4byte	0x2cb
 3206 03ed 4C       		.byte	0x4c
 3207 03ee 0D       		.uleb128 0xd
 3208 03ef 723800   		.ascii	"r8\000"
 3209 03f2 08       		.byte	0x8
 3210 03f3 2301     		.2byte	0x123
 3211 03f5 CB020000 		.4byte	0x2cb
 3212 03f9 50       		.byte	0x50
 3213 03fa 0D       		.uleb128 0xd
 3214 03fb 723900   		.ascii	"r9\000"
 3215 03fe 08       		.byte	0x8
 3216 03ff 2401     		.2byte	0x124
 3217 0401 CB020000 		.4byte	0x2cb
 3218 0405 54       		.byte	0x54
ARM GAS  /tmp/ccxbZr1V.s 			page 59


 3219 0406 0D       		.uleb128 0xd
 3220 0407 72313000 		.ascii	"r10\000"
 3221 040b 08       		.byte	0x8
 3222 040c 2501     		.2byte	0x125
 3223 040e CB020000 		.4byte	0x2cb
 3224 0412 58       		.byte	0x58
 3225 0413 0D       		.uleb128 0xd
 3226 0414 72313100 		.ascii	"r11\000"
 3227 0418 08       		.byte	0x8
 3228 0419 2601     		.2byte	0x126
 3229 041b CB020000 		.4byte	0x2cb
 3230 041f 5C       		.byte	0x5c
 3231 0420 0D       		.uleb128 0xd
 3232 0421 6C7200   		.ascii	"lr\000"
 3233 0424 08       		.byte	0x8
 3234 0425 2701     		.2byte	0x127
 3235 0427 CB020000 		.4byte	0x2cb
 3236 042b 60       		.byte	0x60
 3237 042c 00       		.byte	0
 3238 042d 0C       		.uleb128 0xc
 3239 042e 66060000 		.4byte	.LASF58
 3240 0432 04       		.byte	0x4
 3241 0433 08       		.byte	0x8
 3242 0434 3101     		.2byte	0x131
 3243 0436 48040000 		.4byte	0x448
 3244 043a 0D       		.uleb128 0xd
 3245 043b 72313300 		.ascii	"r13\000"
 3246 043f 08       		.byte	0x8
 3247 0440 3201     		.2byte	0x132
 3248 0442 48040000 		.4byte	0x448
 3249 0446 00       		.byte	0
 3250 0447 00       		.byte	0
 3251 0448 06       		.uleb128 0x6
 3252 0449 04       		.byte	0x4
 3253 044a E1020000 		.4byte	0x2e1
 3254 044e 0E       		.uleb128 0xe
 3255 044f E5000000 		.4byte	0xe5
 3256 0453 0E       		.uleb128 0xe
 3257 0454 5A010000 		.4byte	0x15a
 3258 0458 08       		.uleb128 0x8
 3259 0459 C6030000 		.4byte	.LASF59
 3260 045d 10       		.byte	0x10
 3261 045e 09       		.byte	0x9
 3262 045f 2C       		.byte	0x2c
 3263 0460 89040000 		.4byte	0x489
 3264 0464 09       		.uleb128 0x9
 3265 0465 2A010000 		.4byte	.LASF60
 3266 0469 09       		.byte	0x9
 3267 046a 2D       		.byte	0x2d
 3268 046b A0020000 		.4byte	0x2a0
 3269 046f 00       		.byte	0
 3270 0470 09       		.uleb128 0x9
 3271 0471 4B070000 		.4byte	.LASF61
 3272 0475 09       		.byte	0x9
 3273 0476 2F       		.byte	0x2f
 3274 0477 9A020000 		.4byte	0x29a
 3275 047b 08       		.byte	0x8
ARM GAS  /tmp/ccxbZr1V.s 			page 60


 3276 047c 09       		.uleb128 0x9
 3277 047d 37060000 		.4byte	.LASF62
 3278 0481 09       		.byte	0x9
 3279 0482 31       		.byte	0x31
 3280 0483 89040000 		.4byte	0x489
 3281 0487 0C       		.byte	0xc
 3282 0488 00       		.byte	0
 3283 0489 06       		.uleb128 0x6
 3284 048a 04       		.byte	0x4
 3285 048b 58040000 		.4byte	0x458
 3286 048f 03       		.uleb128 0x3
 3287 0490 C6030000 		.4byte	.LASF59
 3288 0494 09       		.byte	0x9
 3289 0495 33       		.byte	0x33
 3290 0496 58040000 		.4byte	0x458
 3291 049a 0F       		.uleb128 0xf
 3292 049b 04       		.byte	0x4
 3293 049c 07       		.byte	0x7
 3294 049d 96       		.byte	0x96
 3295 049e CF040000 		.4byte	0x4cf
 3296 04a2 10       		.uleb128 0x10
 3297 04a3 2D000000 		.4byte	.LASF63
 3298 04a7 07       		.byte	0x7
 3299 04a8 9D       		.byte	0x9d
 3300 04a9 44010000 		.4byte	0x144
 3301 04ad 10       		.uleb128 0x10
 3302 04ae 8F000000 		.4byte	.LASF64
 3303 04b2 07       		.byte	0x7
 3304 04b3 A4       		.byte	0xa4
 3305 04b4 44010000 		.4byte	0x144
 3306 04b8 10       		.uleb128 0x10
 3307 04b9 FF060000 		.4byte	.LASF65
 3308 04bd 07       		.byte	0x7
 3309 04be AB       		.byte	0xab
 3310 04bf B0000000 		.4byte	0xb0
 3311 04c3 10       		.uleb128 0x10
 3312 04c4 64050000 		.4byte	.LASF66
 3313 04c8 07       		.byte	0x7
 3314 04c9 B2       		.byte	0xb2
 3315 04ca 4F010000 		.4byte	0x14f
 3316 04ce 00       		.byte	0
 3317 04cf 06       		.uleb128 0x6
 3318 04d0 04       		.byte	0x4
 3319 04d1 D6020000 		.4byte	0x2d6
 3320 04d5 06       		.uleb128 0x6
 3321 04d6 04       		.byte	0x4
 3322 04d7 8F040000 		.4byte	0x48f
 3323 04db 06       		.uleb128 0x6
 3324 04dc 04       		.byte	0x4
 3325 04dd C4000000 		.4byte	0xc4
 3326 04e1 06       		.uleb128 0x6
 3327 04e2 04       		.byte	0x4
 3328 04e3 E7040000 		.4byte	0x4e7
 3329 04e7 07       		.uleb128 0x7
 3330 04e8 C4000000 		.4byte	0xc4
 3331 04ec 11       		.uleb128 0x11
 3332 04ed E5000000 		.4byte	0xe5
ARM GAS  /tmp/ccxbZr1V.s 			page 61


 3333 04f1 FC040000 		.4byte	0x4fc
 3334 04f5 12       		.uleb128 0x12
 3335 04f6 A9000000 		.4byte	0xa9
 3336 04fa 03       		.byte	0x3
 3337 04fb 00       		.byte	0
 3338 04fc 0E       		.uleb128 0xe
 3339 04fd CF000000 		.4byte	0xcf
 3340 0501 0E       		.uleb128 0xe
 3341 0502 DA000000 		.4byte	0xda
 3342 0506 13       		.uleb128 0x13
 3343 0507 10       		.byte	0x10
 3344 0508 0A       		.byte	0xa
 3345 0509 E501     		.2byte	0x1e5
 3346 050b 44050000 		.4byte	0x544
 3347 050f 0D       		.uleb128 0xd
 3348 0510 43435200 		.ascii	"CCR\000"
 3349 0514 0A       		.byte	0xa
 3350 0515 E701     		.2byte	0x1e7
 3351 0517 4E040000 		.4byte	0x44e
 3352 051b 00       		.byte	0
 3353 051c 14       		.uleb128 0x14
 3354 051d B3060000 		.4byte	.LASF67
 3355 0521 0A       		.byte	0xa
 3356 0522 E801     		.2byte	0x1e8
 3357 0524 4E040000 		.4byte	0x44e
 3358 0528 04       		.byte	0x4
 3359 0529 14       		.uleb128 0x14
 3360 052a 7E020000 		.4byte	.LASF68
 3361 052e 0A       		.byte	0xa
 3362 052f E901     		.2byte	0x1e9
 3363 0531 4E040000 		.4byte	0x44e
 3364 0535 08       		.byte	0x8
 3365 0536 14       		.uleb128 0x14
 3366 0537 B9060000 		.4byte	.LASF69
 3367 053b 0A       		.byte	0xa
 3368 053c EA01     		.2byte	0x1ea
 3369 053e 4E040000 		.4byte	0x44e
 3370 0542 0C       		.byte	0xc
 3371 0543 00       		.byte	0
 3372 0544 15       		.uleb128 0x15
 3373 0545 70040000 		.4byte	.LASF70
 3374 0549 0A       		.byte	0xa
 3375 054a EB01     		.2byte	0x1eb
 3376 054c 06050000 		.4byte	0x506
 3377 0550 13       		.uleb128 0x13
 3378 0551 24       		.byte	0x24
 3379 0552 0A       		.byte	0xa
 3380 0553 C702     		.2byte	0x2c7
 3381 0555 42060000 		.4byte	0x642
 3382 0559 0D       		.uleb128 0xd
 3383 055a 43523100 		.ascii	"CR1\000"
 3384 055e 0A       		.byte	0xa
 3385 055f C902     		.2byte	0x2c9
 3386 0561 FC040000 		.4byte	0x4fc
 3387 0565 00       		.byte	0
 3388 0566 14       		.uleb128 0x14
 3389 0567 9E040000 		.4byte	.LASF71
ARM GAS  /tmp/ccxbZr1V.s 			page 62


 3390 056b 0A       		.byte	0xa
 3391 056c CA02     		.2byte	0x2ca
 3392 056e CF000000 		.4byte	0xcf
 3393 0572 02       		.byte	0x2
 3394 0573 0D       		.uleb128 0xd
 3395 0574 43523200 		.ascii	"CR2\000"
 3396 0578 0A       		.byte	0xa
 3397 0579 CB02     		.2byte	0x2cb
 3398 057b FC040000 		.4byte	0x4fc
 3399 057f 04       		.byte	0x4
 3400 0580 14       		.uleb128 0x14
 3401 0581 A8040000 		.4byte	.LASF72
 3402 0585 0A       		.byte	0xa
 3403 0586 CC02     		.2byte	0x2cc
 3404 0588 CF000000 		.4byte	0xcf
 3405 058c 06       		.byte	0x6
 3406 058d 0D       		.uleb128 0xd
 3407 058e 535200   		.ascii	"SR\000"
 3408 0591 0A       		.byte	0xa
 3409 0592 CD02     		.2byte	0x2cd
 3410 0594 FC040000 		.4byte	0x4fc
 3411 0598 08       		.byte	0x8
 3412 0599 14       		.uleb128 0x14
 3413 059a B2040000 		.4byte	.LASF73
 3414 059e 0A       		.byte	0xa
 3415 059f CE02     		.2byte	0x2ce
 3416 05a1 CF000000 		.4byte	0xcf
 3417 05a5 0A       		.byte	0xa
 3418 05a6 0D       		.uleb128 0xd
 3419 05a7 445200   		.ascii	"DR\000"
 3420 05aa 0A       		.byte	0xa
 3421 05ab CF02     		.2byte	0x2cf
 3422 05ad FC040000 		.4byte	0x4fc
 3423 05b1 0C       		.byte	0xc
 3424 05b2 14       		.uleb128 0x14
 3425 05b3 BC040000 		.4byte	.LASF74
 3426 05b7 0A       		.byte	0xa
 3427 05b8 D002     		.2byte	0x2d0
 3428 05ba CF000000 		.4byte	0xcf
 3429 05be 0E       		.byte	0xe
 3430 05bf 14       		.uleb128 0x14
 3431 05c0 84040000 		.4byte	.LASF75
 3432 05c4 0A       		.byte	0xa
 3433 05c5 D102     		.2byte	0x2d1
 3434 05c7 FC040000 		.4byte	0x4fc
 3435 05cb 10       		.byte	0x10
 3436 05cc 14       		.uleb128 0x14
 3437 05cd C6040000 		.4byte	.LASF76
 3438 05d1 0A       		.byte	0xa
 3439 05d2 D202     		.2byte	0x2d2
 3440 05d4 CF000000 		.4byte	0xcf
 3441 05d8 12       		.byte	0x12
 3442 05d9 14       		.uleb128 0x14
 3443 05da BE060000 		.4byte	.LASF77
 3444 05de 0A       		.byte	0xa
 3445 05df D302     		.2byte	0x2d3
 3446 05e1 FC040000 		.4byte	0x4fc
ARM GAS  /tmp/ccxbZr1V.s 			page 63


 3447 05e5 14       		.byte	0x14
 3448 05e6 14       		.uleb128 0x14
 3449 05e7 B9050000 		.4byte	.LASF78
 3450 05eb 0A       		.byte	0xa
 3451 05ec D402     		.2byte	0x2d4
 3452 05ee CF000000 		.4byte	0xcf
 3453 05f2 16       		.byte	0x16
 3454 05f3 14       		.uleb128 0x14
 3455 05f4 97040000 		.4byte	.LASF79
 3456 05f8 0A       		.byte	0xa
 3457 05f9 D502     		.2byte	0x2d5
 3458 05fb FC040000 		.4byte	0x4fc
 3459 05ff 18       		.byte	0x18
 3460 0600 14       		.uleb128 0x14
 3461 0601 D7040000 		.4byte	.LASF80
 3462 0605 0A       		.byte	0xa
 3463 0606 D602     		.2byte	0x2d6
 3464 0608 CF000000 		.4byte	0xcf
 3465 060c 1A       		.byte	0x1a
 3466 060d 14       		.uleb128 0x14
 3467 060e 1B010000 		.4byte	.LASF81
 3468 0612 0A       		.byte	0xa
 3469 0613 D702     		.2byte	0x2d7
 3470 0615 FC040000 		.4byte	0x4fc
 3471 0619 1C       		.byte	0x1c
 3472 061a 14       		.uleb128 0x14
 3473 061b E1040000 		.4byte	.LASF82
 3474 061f 0A       		.byte	0xa
 3475 0620 D802     		.2byte	0x2d8
 3476 0622 CF000000 		.4byte	0xcf
 3477 0626 1E       		.byte	0x1e
 3478 0627 14       		.uleb128 0x14
 3479 0628 CE020000 		.4byte	.LASF83
 3480 062c 0A       		.byte	0xa
 3481 062d D902     		.2byte	0x2d9
 3482 062f FC040000 		.4byte	0x4fc
 3483 0633 20       		.byte	0x20
 3484 0634 14       		.uleb128 0x14
 3485 0635 EB040000 		.4byte	.LASF84
 3486 0639 0A       		.byte	0xa
 3487 063a DA02     		.2byte	0x2da
 3488 063c CF000000 		.4byte	0xcf
 3489 0640 22       		.byte	0x22
 3490 0641 00       		.byte	0
 3491 0642 15       		.uleb128 0x15
 3492 0643 EB050000 		.4byte	.LASF85
 3493 0647 0A       		.byte	0xa
 3494 0648 DB02     		.2byte	0x2db
 3495 064a 50050000 		.4byte	0x550
 3496 064e 0B       		.uleb128 0xb
 3497 064f 0C       		.byte	0xc
 3498 0650 0B       		.byte	0xb
 3499 0651 C1       		.byte	0xc1
 3500 0652 93060000 		.4byte	0x693
 3501 0656 09       		.uleb128 0x9
 3502 0657 1A020000 		.4byte	.LASF86
 3503 065b 0B       		.byte	0xb
ARM GAS  /tmp/ccxbZr1V.s 			page 64


 3504 065c C2       		.byte	0xc2
 3505 065d 93060000 		.4byte	0x693
 3506 0661 00       		.byte	0
 3507 0662 09       		.uleb128 0x9
 3508 0663 B4050000 		.4byte	.LASF87
 3509 0667 0B       		.byte	0xb
 3510 0668 C3       		.byte	0xc3
 3511 0669 99060000 		.4byte	0x699
 3512 066d 04       		.byte	0x4
 3513 066e 09       		.uleb128 0x9
 3514 066f A9020000 		.4byte	.LASF88
 3515 0673 0B       		.byte	0xb
 3516 0674 C4       		.byte	0xc4
 3517 0675 C4000000 		.4byte	0xc4
 3518 0679 08       		.byte	0x8
 3519 067a 09       		.uleb128 0x9
 3520 067b DA010000 		.4byte	.LASF89
 3521 067f 0B       		.byte	0xb
 3522 0680 C6       		.byte	0xc6
 3523 0681 C4000000 		.4byte	0xc4
 3524 0685 09       		.byte	0x9
 3525 0686 09       		.uleb128 0x9
 3526 0687 65000000 		.4byte	.LASF90
 3527 068b 0B       		.byte	0xb
 3528 068c C7       		.byte	0xc7
 3529 068d C4000000 		.4byte	0xc4
 3530 0691 0A       		.byte	0xa
 3531 0692 00       		.byte	0
 3532 0693 06       		.uleb128 0x6
 3533 0694 04       		.byte	0x4
 3534 0695 44050000 		.4byte	0x544
 3535 0699 06       		.uleb128 0x6
 3536 069a 04       		.byte	0x4
 3537 069b 4E040000 		.4byte	0x44e
 3538 069f 03       		.uleb128 0x3
 3539 06a0 1F050000 		.4byte	.LASF91
 3540 06a4 0B       		.byte	0xb
 3541 06a5 C8       		.byte	0xc8
 3542 06a6 4E060000 		.4byte	0x64e
 3543 06aa 16       		.uleb128 0x16
 3544 06ab 01       		.byte	0x1
 3545 06ac 0C       		.byte	0xc
 3546 06ad 33       		.byte	0x33
 3547 06ae E9060000 		.4byte	0x6e9
 3548 06b2 17       		.uleb128 0x17
 3549 06b3 45010000 		.4byte	.LASF92
 3550 06b7 00       		.sleb128 0
 3551 06b8 17       		.uleb128 0x17
 3552 06b9 AD010000 		.4byte	.LASF93
 3553 06bd 01       		.sleb128 1
 3554 06be 17       		.uleb128 0x17
 3555 06bf C3020000 		.4byte	.LASF94
 3556 06c3 02       		.sleb128 2
 3557 06c4 17       		.uleb128 0x17
 3558 06c5 FB020000 		.4byte	.LASF95
 3559 06c9 03       		.sleb128 3
 3560 06ca 17       		.uleb128 0x17
ARM GAS  /tmp/ccxbZr1V.s 			page 65


 3561 06cb 0E060000 		.4byte	.LASF96
 3562 06cf 04       		.sleb128 4
 3563 06d0 17       		.uleb128 0x17
 3564 06d1 07040000 		.4byte	.LASF97
 3565 06d5 05       		.sleb128 5
 3566 06d6 17       		.uleb128 0x17
 3567 06d7 95030000 		.4byte	.LASF98
 3568 06db 06       		.sleb128 6
 3569 06dc 17       		.uleb128 0x17
 3570 06dd 4E050000 		.4byte	.LASF99
 3571 06e1 07       		.sleb128 7
 3572 06e2 17       		.uleb128 0x17
 3573 06e3 E4030000 		.4byte	.LASF100
 3574 06e7 08       		.sleb128 8
 3575 06e8 00       		.byte	0
 3576 06e9 03       		.uleb128 0x3
 3577 06ea C8000000 		.4byte	.LASF101
 3578 06ee 0C       		.byte	0xc
 3579 06ef 3D       		.byte	0x3d
 3580 06f0 AA060000 		.4byte	0x6aa
 3581 06f4 0B       		.uleb128 0xb
 3582 06f5 08       		.byte	0x8
 3583 06f6 0C       		.byte	0xc
 3584 06f7 42       		.byte	0x42
 3585 06f8 15070000 		.4byte	0x715
 3586 06fc 09       		.uleb128 0x9
 3587 06fd 30020000 		.4byte	.LASF102
 3588 0701 0C       		.byte	0xc
 3589 0702 43       		.byte	0x43
 3590 0703 E5000000 		.4byte	0xe5
 3591 0707 00       		.byte	0
 3592 0708 09       		.uleb128 0x9
 3593 0709 25000000 		.4byte	.LASF103
 3594 070d 0C       		.byte	0xc
 3595 070e 44       		.byte	0x44
 3596 070f E5000000 		.4byte	0xe5
 3597 0713 04       		.byte	0x4
 3598 0714 00       		.byte	0
 3599 0715 03       		.uleb128 0x3
 3600 0716 00000000 		.4byte	.LASF104
 3601 071a 0C       		.byte	0xc
 3602 071b 45       		.byte	0x45
 3603 071c F4060000 		.4byte	0x6f4
 3604 0720 18       		.uleb128 0x18
 3605 0721 FB000000 		.4byte	0xfb
 3606 0725 2F070000 		.4byte	0x72f
 3607 0729 19       		.uleb128 0x19
 3608 072a B0000000 		.4byte	0xb0
 3609 072e 00       		.byte	0
 3610 072f 06       		.uleb128 0x6
 3611 0730 04       		.byte	0x4
 3612 0731 20070000 		.4byte	0x720
 3613 0735 18       		.uleb128 0x18
 3614 0736 FB000000 		.4byte	0xfb
 3615 073a 53070000 		.4byte	0x753
 3616 073e 19       		.uleb128 0x19
 3617 073f B0000000 		.4byte	0xb0
ARM GAS  /tmp/ccxbZr1V.s 			page 66


 3618 0743 19       		.uleb128 0x19
 3619 0744 E5000000 		.4byte	0xe5
 3620 0748 19       		.uleb128 0x19
 3621 0749 DB040000 		.4byte	0x4db
 3622 074d 19       		.uleb128 0x19
 3623 074e E5000000 		.4byte	0xe5
 3624 0752 00       		.byte	0
 3625 0753 06       		.uleb128 0x6
 3626 0754 04       		.byte	0x4
 3627 0755 35070000 		.4byte	0x735
 3628 0759 18       		.uleb128 0x18
 3629 075a FB000000 		.4byte	0xfb
 3630 075e 77070000 		.4byte	0x777
 3631 0762 19       		.uleb128 0x19
 3632 0763 B0000000 		.4byte	0xb0
 3633 0767 19       		.uleb128 0x19
 3634 0768 E5000000 		.4byte	0xe5
 3635 076c 19       		.uleb128 0x19
 3636 076d E1040000 		.4byte	0x4e1
 3637 0771 19       		.uleb128 0x19
 3638 0772 E5000000 		.4byte	0xe5
 3639 0776 00       		.byte	0
 3640 0777 06       		.uleb128 0x6
 3641 0778 04       		.byte	0x4
 3642 0779 59070000 		.4byte	0x759
 3643 077d 18       		.uleb128 0x18
 3644 077e FB000000 		.4byte	0xfb
 3645 0782 91070000 		.4byte	0x791
 3646 0786 19       		.uleb128 0x19
 3647 0787 B0000000 		.4byte	0xb0
 3648 078b 19       		.uleb128 0x19
 3649 078c 91070000 		.4byte	0x791
 3650 0790 00       		.byte	0
 3651 0791 06       		.uleb128 0x6
 3652 0792 04       		.byte	0x4
 3653 0793 15070000 		.4byte	0x715
 3654 0797 06       		.uleb128 0x6
 3655 0798 04       		.byte	0x4
 3656 0799 7D070000 		.4byte	0x77d
 3657 079d 0B       		.uleb128 0xb
 3658 079e 04       		.byte	0x4
 3659 079f 0D       		.byte	0xd
 3660 07a0 96       		.byte	0x96
 3661 07a1 BE070000 		.4byte	0x7be
 3662 07a5 0A       		.uleb128 0xa
 3663 07a6 73657400 		.ascii	"set\000"
 3664 07aa 0D       		.byte	0xd
 3665 07ab 97       		.byte	0x97
 3666 07ac CF000000 		.4byte	0xcf
 3667 07b0 00       		.byte	0
 3668 07b1 09       		.uleb128 0x9
 3669 07b2 B5030000 		.4byte	.LASF105
 3670 07b6 0D       		.byte	0xd
 3671 07b7 98       		.byte	0x98
 3672 07b8 CF000000 		.4byte	0xcf
 3673 07bc 02       		.byte	0x2
 3674 07bd 00       		.byte	0
ARM GAS  /tmp/ccxbZr1V.s 			page 67


 3675 07be 0F       		.uleb128 0xf
 3676 07bf 04       		.byte	0x4
 3677 07c0 0D       		.byte	0xd
 3678 07c1 94       		.byte	0x94
 3679 07c2 D9070000 		.4byte	0x7d9
 3680 07c6 1A       		.uleb128 0x1a
 3681 07c7 5700     		.ascii	"W\000"
 3682 07c9 0D       		.byte	0xd
 3683 07ca 95       		.byte	0x95
 3684 07cb E5000000 		.4byte	0xe5
 3685 07cf 1A       		.uleb128 0x1a
 3686 07d0 4800     		.ascii	"H\000"
 3687 07d2 0D       		.byte	0xd
 3688 07d3 99       		.byte	0x99
 3689 07d4 9D070000 		.4byte	0x79d
 3690 07d8 00       		.byte	0
 3691 07d9 0B       		.uleb128 0xb
 3692 07da 28       		.byte	0x28
 3693 07db 0D       		.byte	0xd
 3694 07dc 8C       		.byte	0x8c
 3695 07dd 5A080000 		.4byte	0x85a
 3696 07e1 09       		.uleb128 0x9
 3697 07e2 6C000000 		.4byte	.LASF106
 3698 07e6 0D       		.byte	0xd
 3699 07e7 8E       		.byte	0x8e
 3700 07e8 4E040000 		.4byte	0x44e
 3701 07ec 00       		.byte	0
 3702 07ed 09       		.uleb128 0x9
 3703 07ee 3D000000 		.4byte	.LASF107
 3704 07f2 0D       		.byte	0xd
 3705 07f3 8F       		.byte	0x8f
 3706 07f4 4E040000 		.4byte	0x44e
 3707 07f8 04       		.byte	0x4
 3708 07f9 09       		.uleb128 0x9
 3709 07fa B6010000 		.4byte	.LASF108
 3710 07fe 0D       		.byte	0xd
 3711 07ff 90       		.byte	0x90
 3712 0800 4E040000 		.4byte	0x44e
 3713 0804 08       		.byte	0x8
 3714 0805 09       		.uleb128 0x9
 3715 0806 89000000 		.4byte	.LASF109
 3716 080a 0D       		.byte	0xd
 3717 080b 91       		.byte	0x91
 3718 080c 4E040000 		.4byte	0x44e
 3719 0810 0C       		.byte	0xc
 3720 0811 0A       		.uleb128 0xa
 3721 0812 49445200 		.ascii	"IDR\000"
 3722 0816 0D       		.byte	0xd
 3723 0817 92       		.byte	0x92
 3724 0818 4E040000 		.4byte	0x44e
 3725 081c 10       		.byte	0x10
 3726 081d 0A       		.uleb128 0xa
 3727 081e 4F445200 		.ascii	"ODR\000"
 3728 0822 0D       		.byte	0xd
 3729 0823 93       		.byte	0x93
 3730 0824 4E040000 		.4byte	0x44e
 3731 0828 14       		.byte	0x14
ARM GAS  /tmp/ccxbZr1V.s 			page 68


 3732 0829 09       		.uleb128 0x9
 3733 082a A8060000 		.4byte	.LASF110
 3734 082e 0D       		.byte	0xd
 3735 082f 9A       		.byte	0x9a
 3736 0830 5A080000 		.4byte	0x85a
 3737 0834 18       		.byte	0x18
 3738 0835 09       		.uleb128 0x9
 3739 0836 A4020000 		.4byte	.LASF111
 3740 083a 0D       		.byte	0xd
 3741 083b 9B       		.byte	0x9b
 3742 083c 4E040000 		.4byte	0x44e
 3743 0840 1C       		.byte	0x1c
 3744 0841 09       		.uleb128 0x9
 3745 0842 8A040000 		.4byte	.LASF112
 3746 0846 0D       		.byte	0xd
 3747 0847 9C       		.byte	0x9c
 3748 0848 4E040000 		.4byte	0x44e
 3749 084c 20       		.byte	0x20
 3750 084d 09       		.uleb128 0x9
 3751 084e 46070000 		.4byte	.LASF113
 3752 0852 0D       		.byte	0xd
 3753 0853 9D       		.byte	0x9d
 3754 0854 4E040000 		.4byte	0x44e
 3755 0858 24       		.byte	0x24
 3756 0859 00       		.byte	0
 3757 085a 0E       		.uleb128 0xe
 3758 085b BE070000 		.4byte	0x7be
 3759 085f 03       		.uleb128 0x3
 3760 0860 97020000 		.4byte	.LASF114
 3761 0864 0D       		.byte	0xd
 3762 0865 9E       		.byte	0x9e
 3763 0866 D9070000 		.4byte	0x7d9
 3764 086a 03       		.uleb128 0x3
 3765 086b 5B060000 		.4byte	.LASF115
 3766 086f 0D       		.byte	0xd
 3767 0870 FD       		.byte	0xfd
 3768 0871 75080000 		.4byte	0x875
 3769 0875 06       		.uleb128 0x6
 3770 0876 04       		.byte	0x4
 3771 0877 5F080000 		.4byte	0x85f
 3772 087b 11       		.uleb128 0x11
 3773 087c C4000000 		.4byte	0xc4
 3774 0880 8B080000 		.4byte	0x88b
 3775 0884 12       		.uleb128 0x12
 3776 0885 A9000000 		.4byte	0xa9
 3777 0889 FF       		.byte	0xff
 3778 088a 00       		.byte	0
 3779 088b 16       		.uleb128 0x16
 3780 088c 01       		.byte	0x1
 3781 088d 0E       		.byte	0xe
 3782 088e 55       		.byte	0x55
 3783 088f B2080000 		.4byte	0x8b2
 3784 0893 17       		.uleb128 0x17
 3785 0894 8C060000 		.4byte	.LASF116
 3786 0898 00       		.sleb128 0
 3787 0899 17       		.uleb128 0x17
 3788 089a 12010000 		.4byte	.LASF117
ARM GAS  /tmp/ccxbZr1V.s 			page 69


 3789 089e 01       		.sleb128 1
 3790 089f 17       		.uleb128 0x17
 3791 08a0 82060000 		.4byte	.LASF118
 3792 08a4 02       		.sleb128 2
 3793 08a5 17       		.uleb128 0x17
 3794 08a6 BB030000 		.4byte	.LASF119
 3795 08aa 03       		.sleb128 3
 3796 08ab 17       		.uleb128 0x17
 3797 08ac 01060000 		.4byte	.LASF120
 3798 08b0 04       		.sleb128 4
 3799 08b1 00       		.byte	0
 3800 08b2 03       		.uleb128 0x3
 3801 08b3 12030000 		.4byte	.LASF121
 3802 08b7 0E       		.byte	0xe
 3803 08b8 5B       		.byte	0x5b
 3804 08b9 8B080000 		.4byte	0x88b
 3805 08bd 15       		.uleb128 0x15
 3806 08be AA000000 		.4byte	.LASF122
 3807 08c2 0F       		.byte	0xf
 3808 08c3 2301     		.2byte	0x123
 3809 08c5 C9080000 		.4byte	0x8c9
 3810 08c9 0C       		.uleb128 0xc
 3811 08ca AA000000 		.4byte	.LASF122
 3812 08ce 30       		.byte	0x30
 3813 08cf 0F       		.byte	0xf
 3814 08d0 4B01     		.2byte	0x14b
 3815 08d2 4C090000 		.4byte	0x94c
 3816 08d6 14       		.uleb128 0x14
 3817 08d7 56010000 		.4byte	.LASF123
 3818 08db 0F       		.byte	0xf
 3819 08dc 4F01     		.2byte	0x14f
 3820 08de B2080000 		.4byte	0x8b2
 3821 08e2 00       		.byte	0
 3822 08e3 14       		.uleb128 0x14
 3823 08e4 20060000 		.4byte	.LASF124
 3824 08e8 0F       		.byte	0xf
 3825 08e9 5301     		.2byte	0x153
 3826 08eb C6090000 		.4byte	0x9c6
 3827 08ef 04       		.byte	0x4
 3828 08f0 14       		.uleb128 0x14
 3829 08f1 54060000 		.4byte	.LASF125
 3830 08f5 0F       		.byte	0xf
 3831 08f6 5801     		.2byte	0x158
 3832 08f8 9A020000 		.4byte	0x29a
 3833 08fc 08       		.byte	0x8
 3834 08fd 14       		.uleb128 0x14
 3835 08fe FD040000 		.4byte	.LASF126
 3836 0902 0F       		.byte	0xf
 3837 0903 5F01     		.2byte	0x15f
 3838 0905 8F040000 		.4byte	0x48f
 3839 0909 0C       		.byte	0xc
 3840 090a 0D       		.uleb128 0xd
 3841 090b 73706900 		.ascii	"spi\000"
 3842 090f 0F       		.byte	0xf
 3843 0910 6B01     		.2byte	0x16b
 3844 0912 D1090000 		.4byte	0x9d1
 3845 0916 1C       		.byte	0x1c
ARM GAS  /tmp/ccxbZr1V.s 			page 70


 3846 0917 14       		.uleb128 0x14
 3847 0918 10000000 		.4byte	.LASF127
 3848 091c 0F       		.byte	0xf
 3849 091d 6F01     		.2byte	0x16f
 3850 091f D7090000 		.4byte	0x9d7
 3851 0923 20       		.byte	0x20
 3852 0924 14       		.uleb128 0x14
 3853 0925 A7010000 		.4byte	.LASF128
 3854 0929 0F       		.byte	0xf
 3855 092a 7301     		.2byte	0x173
 3856 092c D7090000 		.4byte	0x9d7
 3857 0930 24       		.byte	0x24
 3858 0931 14       		.uleb128 0x14
 3859 0932 94010000 		.4byte	.LASF129
 3860 0936 0F       		.byte	0xf
 3861 0937 7701     		.2byte	0x177
 3862 0939 E5000000 		.4byte	0xe5
 3863 093d 28       		.byte	0x28
 3864 093e 14       		.uleb128 0x14
 3865 093f 1E040000 		.4byte	.LASF130
 3866 0943 0F       		.byte	0xf
 3867 0944 7B01     		.2byte	0x17b
 3868 0946 E5000000 		.4byte	0xe5
 3869 094a 2C       		.byte	0x2c
 3870 094b 00       		.byte	0
 3871 094c 15       		.uleb128 0x15
 3872 094d 22020000 		.4byte	.LASF131
 3873 0951 0F       		.byte	0xf
 3874 0952 2B01     		.2byte	0x12b
 3875 0954 58090000 		.4byte	0x958
 3876 0958 06       		.uleb128 0x6
 3877 0959 04       		.byte	0x4
 3878 095a 5E090000 		.4byte	0x95e
 3879 095e 1B       		.uleb128 0x1b
 3880 095f 69090000 		.4byte	0x969
 3881 0963 19       		.uleb128 0x19
 3882 0964 69090000 		.4byte	0x969
 3883 0968 00       		.byte	0
 3884 0969 06       		.uleb128 0x6
 3885 096a 04       		.byte	0x4
 3886 096b BD080000 		.4byte	0x8bd
 3887 096f 13       		.uleb128 0x13
 3888 0970 10       		.byte	0x10
 3889 0971 0F       		.byte	0xf
 3890 0972 3001     		.2byte	0x130
 3891 0974 BA090000 		.4byte	0x9ba
 3892 0978 14       		.uleb128 0x14
 3893 0979 8D010000 		.4byte	.LASF132
 3894 097d 0F       		.byte	0xf
 3895 097e 3401     		.2byte	0x134
 3896 0980 4C090000 		.4byte	0x94c
 3897 0984 00       		.byte	0
 3898 0985 14       		.uleb128 0x14
 3899 0986 B4000000 		.4byte	.LASF133
 3900 098a 0F       		.byte	0xf
 3901 098b 3901     		.2byte	0x139
 3902 098d 6A080000 		.4byte	0x86a
ARM GAS  /tmp/ccxbZr1V.s 			page 71


 3903 0991 04       		.byte	0x4
 3904 0992 14       		.uleb128 0x14
 3905 0993 50010000 		.4byte	.LASF134
 3906 0997 0F       		.byte	0xf
 3907 0998 3D01     		.2byte	0x13d
 3908 099a CF000000 		.4byte	0xcf
 3909 099e 08       		.byte	0x8
 3910 099f 0D       		.uleb128 0xd
 3911 09a0 63723100 		.ascii	"cr1\000"
 3912 09a4 0F       		.byte	0xf
 3913 09a5 4101     		.2byte	0x141
 3914 09a7 CF000000 		.4byte	0xcf
 3915 09ab 0A       		.byte	0xa
 3916 09ac 0D       		.uleb128 0xd
 3917 09ad 63723200 		.ascii	"cr2\000"
 3918 09b1 0F       		.byte	0xf
 3919 09b2 4501     		.2byte	0x145
 3920 09b4 CF000000 		.4byte	0xcf
 3921 09b8 0C       		.byte	0xc
 3922 09b9 00       		.byte	0
 3923 09ba 15       		.uleb128 0x15
 3924 09bb 0D070000 		.4byte	.LASF135
 3925 09bf 0F       		.byte	0xf
 3926 09c0 4601     		.2byte	0x146
 3927 09c2 6F090000 		.4byte	0x96f
 3928 09c6 06       		.uleb128 0x6
 3929 09c7 04       		.byte	0x4
 3930 09c8 CC090000 		.4byte	0x9cc
 3931 09cc 07       		.uleb128 0x7
 3932 09cd BA090000 		.4byte	0x9ba
 3933 09d1 06       		.uleb128 0x6
 3934 09d2 04       		.byte	0x4
 3935 09d3 42060000 		.4byte	0x642
 3936 09d7 06       		.uleb128 0x6
 3937 09d8 04       		.byte	0x4
 3938 09d9 DD090000 		.4byte	0x9dd
 3939 09dd 07       		.uleb128 0x7
 3940 09de 9F060000 		.4byte	0x69f
 3941 09e2 0B       		.uleb128 0xb
 3942 09e3 0C       		.byte	0xc
 3943 09e4 10       		.byte	0x10
 3944 09e5 56       		.byte	0x56
 3945 09e6 0F0A0000 		.4byte	0xa0f
 3946 09ea 09       		.uleb128 0x9
 3947 09eb 1D030000 		.4byte	.LASF136
 3948 09ef 10       		.byte	0x10
 3949 09f0 5A       		.byte	0x5a
 3950 09f1 69090000 		.4byte	0x969
 3951 09f5 00       		.byte	0
 3952 09f6 09       		.uleb128 0x9
 3953 09f7 D4020000 		.4byte	.LASF137
 3954 09fb 10       		.byte	0x10
 3955 09fc 5E       		.byte	0x5e
 3956 09fd C6090000 		.4byte	0x9c6
 3957 0a01 04       		.byte	0x4
 3958 0a02 09       		.uleb128 0x9
 3959 0a03 AD060000 		.4byte	.LASF138
ARM GAS  /tmp/ccxbZr1V.s 			page 72


 3960 0a07 10       		.byte	0x10
 3961 0a08 62       		.byte	0x62
 3962 0a09 C6090000 		.4byte	0x9c6
 3963 0a0d 08       		.byte	0x8
 3964 0a0e 00       		.byte	0
 3965 0a0f 03       		.uleb128 0x3
 3966 0a10 33040000 		.4byte	.LASF139
 3967 0a14 10       		.byte	0x10
 3968 0a15 63       		.byte	0x63
 3969 0a16 E2090000 		.4byte	0x9e2
 3970 0a1a 08       		.uleb128 0x8
 3971 0a1b 71020000 		.4byte	.LASF140
 3972 0a1f 20       		.byte	0x20
 3973 0a20 10       		.byte	0x10
 3974 0a21 70       		.byte	0x70
 3975 0a22 870A0000 		.4byte	0xa87
 3976 0a26 09       		.uleb128 0x9
 3977 0a27 06010000 		.4byte	.LASF141
 3978 0a2b 10       		.byte	0x10
 3979 0a2c 71       		.byte	0x71
 3980 0a2d 2F070000 		.4byte	0x72f
 3981 0a31 00       		.byte	0
 3982 0a32 09       		.uleb128 0x9
 3983 0a33 75060000 		.4byte	.LASF142
 3984 0a37 10       		.byte	0x10
 3985 0a38 71       		.byte	0x71
 3986 0a39 2F070000 		.4byte	0x72f
 3987 0a3d 04       		.byte	0x4
 3988 0a3e 09       		.uleb128 0x9
 3989 0a3f 3D010000 		.4byte	.LASF143
 3990 0a43 10       		.byte	0x10
 3991 0a44 71       		.byte	0x71
 3992 0a45 2F070000 		.4byte	0x72f
 3993 0a49 08       		.byte	0x8
 3994 0a4a 09       		.uleb128 0x9
 3995 0a4b 32010000 		.4byte	.LASF144
 3996 0a4f 10       		.byte	0x10
 3997 0a50 71       		.byte	0x71
 3998 0a51 2F070000 		.4byte	0x72f
 3999 0a55 0C       		.byte	0xc
 4000 0a56 09       		.uleb128 0x9
 4001 0a57 F7050000 		.4byte	.LASF145
 4002 0a5b 10       		.byte	0x10
 4003 0a5c 71       		.byte	0x71
 4004 0a5d 53070000 		.4byte	0x753
 4005 0a61 10       		.byte	0x10
 4006 0a62 09       		.uleb128 0x9
 4007 0a63 7D030000 		.4byte	.LASF146
 4008 0a67 10       		.byte	0x10
 4009 0a68 71       		.byte	0x71
 4010 0a69 77070000 		.4byte	0x777
 4011 0a6d 14       		.byte	0x14
 4012 0a6e 09       		.uleb128 0x9
 4013 0a6f F3060000 		.4byte	.LASF147
 4014 0a73 10       		.byte	0x10
 4015 0a74 71       		.byte	0x71
 4016 0a75 2F070000 		.4byte	0x72f
ARM GAS  /tmp/ccxbZr1V.s 			page 73


 4017 0a79 18       		.byte	0x18
 4018 0a7a 09       		.uleb128 0x9
 4019 0a7b 9E010000 		.4byte	.LASF148
 4020 0a7f 10       		.byte	0x10
 4021 0a80 71       		.byte	0x71
 4022 0a81 97070000 		.4byte	0x797
 4023 0a85 1C       		.byte	0x1c
 4024 0a86 00       		.byte	0
 4025 0a87 0B       		.uleb128 0xb
 4026 0a88 34       		.byte	0x34
 4027 0a89 10       		.byte	0x10
 4028 0a8a 79       		.byte	0x79
 4029 0a8b E40A0000 		.4byte	0xae4
 4030 0a8f 0A       		.uleb128 0xa
 4031 0a90 766D7400 		.ascii	"vmt\000"
 4032 0a94 10       		.byte	0x10
 4033 0a95 7D       		.byte	0x7d
 4034 0a96 E40A0000 		.4byte	0xae4
 4035 0a9a 00       		.byte	0
 4036 0a9b 09       		.uleb128 0x9
 4037 0a9c 56010000 		.4byte	.LASF123
 4038 0aa0 10       		.byte	0x10
 4039 0aa1 7E       		.byte	0x7e
 4040 0aa2 E9060000 		.4byte	0x6e9
 4041 0aa6 04       		.byte	0x4
 4042 0aa7 0A       		.uleb128 0xa
 4043 0aa8 63696400 		.ascii	"cid\000"
 4044 0aac 10       		.byte	0x10
 4045 0aad 7E       		.byte	0x7e
 4046 0aae EC040000 		.4byte	0x4ec
 4047 0ab2 08       		.byte	0x8
 4048 0ab3 0A       		.uleb128 0xa
 4049 0ab4 63736400 		.ascii	"csd\000"
 4050 0ab8 10       		.byte	0x10
 4051 0ab9 7E       		.byte	0x7e
 4052 0aba EC040000 		.4byte	0x4ec
 4053 0abe 18       		.byte	0x18
 4054 0abf 09       		.uleb128 0x9
 4055 0ac0 5C000000 		.4byte	.LASF149
 4056 0ac4 10       		.byte	0x10
 4057 0ac5 7E       		.byte	0x7e
 4058 0ac6 E5000000 		.4byte	0xe5
 4059 0aca 28       		.byte	0x28
 4060 0acb 09       		.uleb128 0x9
 4061 0acc 20060000 		.4byte	.LASF124
 4062 0ad0 10       		.byte	0x10
 4063 0ad1 82       		.byte	0x82
 4064 0ad2 EF0A0000 		.4byte	0xaef
 4065 0ad6 2C       		.byte	0x2c
 4066 0ad7 09       		.uleb128 0x9
 4067 0ad8 DA020000 		.4byte	.LASF150
 4068 0adc 10       		.byte	0x10
 4069 0add 86       		.byte	0x86
 4070 0ade FB000000 		.4byte	0xfb
 4071 0ae2 30       		.byte	0x30
 4072 0ae3 00       		.byte	0
 4073 0ae4 06       		.uleb128 0x6
ARM GAS  /tmp/ccxbZr1V.s 			page 74


 4074 0ae5 04       		.byte	0x4
 4075 0ae6 EA0A0000 		.4byte	0xaea
 4076 0aea 07       		.uleb128 0x7
 4077 0aeb 1A0A0000 		.4byte	0xa1a
 4078 0aef 06       		.uleb128 0x6
 4079 0af0 04       		.byte	0x4
 4080 0af1 F50A0000 		.4byte	0xaf5
 4081 0af5 07       		.uleb128 0x7
 4082 0af6 0F0A0000 		.4byte	0xa0f
 4083 0afa 03       		.uleb128 0x3
 4084 0afb 97060000 		.4byte	.LASF151
 4085 0aff 10       		.byte	0x10
 4086 0b00 87       		.byte	0x87
 4087 0b01 870A0000 		.4byte	0xa87
 4088 0b05 11       		.uleb128 0x11
 4089 0b06 C4000000 		.4byte	0xc4
 4090 0b0a 150B0000 		.4byte	0xb15
 4091 0b0e 12       		.uleb128 0x12
 4092 0b0f A9000000 		.4byte	0xa9
 4093 0b13 03       		.byte	0x3
 4094 0b14 00       		.byte	0
 4095 0b15 1C       		.uleb128 0x1c
 4096 0b16 7C010000 		.4byte	.LASF155
 4097 0b1a 01       		.byte	0x1
 4098 0b1b 6E       		.byte	0x6e
 4099 0b1c FB000000 		.4byte	0xfb
 4100 0b20 00000000 		.4byte	.LFB118
 4101 0b24 60000000 		.4byte	.LFE118-.LFB118
 4102 0b28 01       		.uleb128 0x1
 4103 0b29 9C       		.byte	0x9c
 4104 0b2a 650B0000 		.4byte	0xb65
 4105 0b2e 1D       		.uleb128 0x1d
 4106 0b2f E3000000 		.4byte	.LASF152
 4107 0b33 01       		.byte	0x1
 4108 0b34 6E       		.byte	0x6e
 4109 0b35 B0000000 		.4byte	0xb0
 4110 0b39 02       		.uleb128 0x2
 4111 0b3a 91       		.byte	0x91
 4112 0b3b 74       		.sleb128 -12
 4113 0b3c 1D       		.uleb128 0x1d
 4114 0b3d 53000000 		.4byte	.LASF153
 4115 0b41 01       		.byte	0x1
 4116 0b42 6E       		.byte	0x6e
 4117 0b43 E5000000 		.4byte	0xe5
 4118 0b47 02       		.uleb128 0x2
 4119 0b48 91       		.byte	0x91
 4120 0b49 70       		.sleb128 -16
 4121 0b4a 1D       		.uleb128 0x1d
 4122 0b4b 4D060000 		.4byte	.LASF154
 4123 0b4f 01       		.byte	0x1
 4124 0b50 6F       		.byte	0x6f
 4125 0b51 DB040000 		.4byte	0x4db
 4126 0b55 02       		.uleb128 0x2
 4127 0b56 91       		.byte	0x91
 4128 0b57 6C       		.sleb128 -20
 4129 0b58 1E       		.uleb128 0x1e
 4130 0b59 6E00     		.ascii	"n\000"
ARM GAS  /tmp/ccxbZr1V.s 			page 75


 4131 0b5b 01       		.byte	0x1
 4132 0b5c 6F       		.byte	0x6f
 4133 0b5d E5000000 		.4byte	0xe5
 4134 0b61 02       		.uleb128 0x2
 4135 0b62 91       		.byte	0x91
 4136 0b63 68       		.sleb128 -24
 4137 0b64 00       		.byte	0
 4138 0b65 1C       		.uleb128 0x1c
 4139 0b66 5B040000 		.4byte	.LASF156
 4140 0b6a 01       		.byte	0x1
 4141 0b6b 7E       		.byte	0x7e
 4142 0b6c FB000000 		.4byte	0xfb
 4143 0b70 00000000 		.4byte	.LFB119
 4144 0b74 60000000 		.4byte	.LFE119-.LFB119
 4145 0b78 01       		.uleb128 0x1
 4146 0b79 9C       		.byte	0x9c
 4147 0b7a B50B0000 		.4byte	0xbb5
 4148 0b7e 1D       		.uleb128 0x1d
 4149 0b7f E3000000 		.4byte	.LASF152
 4150 0b83 01       		.byte	0x1
 4151 0b84 7E       		.byte	0x7e
 4152 0b85 B0000000 		.4byte	0xb0
 4153 0b89 02       		.uleb128 0x2
 4154 0b8a 91       		.byte	0x91
 4155 0b8b 74       		.sleb128 -12
 4156 0b8c 1D       		.uleb128 0x1d
 4157 0b8d 53000000 		.4byte	.LASF153
 4158 0b91 01       		.byte	0x1
 4159 0b92 7E       		.byte	0x7e
 4160 0b93 E5000000 		.4byte	0xe5
 4161 0b97 02       		.uleb128 0x2
 4162 0b98 91       		.byte	0x91
 4163 0b99 70       		.sleb128 -16
 4164 0b9a 1D       		.uleb128 0x1d
 4165 0b9b 4D060000 		.4byte	.LASF154
 4166 0b9f 01       		.byte	0x1
 4167 0ba0 7F       		.byte	0x7f
 4168 0ba1 E1040000 		.4byte	0x4e1
 4169 0ba5 02       		.uleb128 0x2
 4170 0ba6 91       		.byte	0x91
 4171 0ba7 6C       		.sleb128 -20
 4172 0ba8 1E       		.uleb128 0x1e
 4173 0ba9 6E00     		.ascii	"n\000"
 4174 0bab 01       		.byte	0x1
 4175 0bac 7F       		.byte	0x7f
 4176 0bad E5000000 		.4byte	0xe5
 4177 0bb1 02       		.uleb128 0x2
 4178 0bb2 91       		.byte	0x91
 4179 0bb3 68       		.sleb128 -24
 4180 0bb4 00       		.byte	0
 4181 0bb5 1F       		.uleb128 0x1f
 4182 0bb6 32060000 		.4byte	.LASF157
 4183 0bba 01       		.byte	0x1
 4184 0bbb 96       		.byte	0x96
 4185 0bbc C4000000 		.4byte	0xc4
 4186 0bc0 00000000 		.4byte	.LFB120
 4187 0bc4 40000000 		.4byte	.LFE120-.LFB120
ARM GAS  /tmp/ccxbZr1V.s 			page 76


 4188 0bc8 01       		.uleb128 0x1
 4189 0bc9 9C       		.byte	0x9c
 4190 0bca F90B0000 		.4byte	0xbf9
 4191 0bce 1E       		.uleb128 0x1e
 4192 0bcf 63726300 		.ascii	"crc\000"
 4193 0bd3 01       		.byte	0x1
 4194 0bd4 96       		.byte	0x96
 4195 0bd5 C4000000 		.4byte	0xc4
 4196 0bd9 02       		.uleb128 0x2
 4197 0bda 91       		.byte	0x91
 4198 0bdb 7F       		.sleb128 -1
 4199 0bdc 1D       		.uleb128 0x1d
 4200 0bdd 4D060000 		.4byte	.LASF154
 4201 0be1 01       		.byte	0x1
 4202 0be2 96       		.byte	0x96
 4203 0be3 E1040000 		.4byte	0x4e1
 4204 0be7 02       		.uleb128 0x2
 4205 0be8 91       		.byte	0x91
 4206 0be9 78       		.sleb128 -8
 4207 0bea 1E       		.uleb128 0x1e
 4208 0beb 6C656E00 		.ascii	"len\000"
 4209 0bef 01       		.byte	0x1
 4210 0bf0 96       		.byte	0x96
 4211 0bf1 28000000 		.4byte	0x28
 4212 0bf5 02       		.uleb128 0x2
 4213 0bf6 91       		.byte	0x91
 4214 0bf7 74       		.sleb128 -12
 4215 0bf8 00       		.byte	0
 4216 0bf9 20       		.uleb128 0x20
 4217 0bfa 48060000 		.4byte	.LASF159
 4218 0bfe 01       		.byte	0x1
 4219 0bff A4       		.byte	0xa4
 4220 0c00 00000000 		.4byte	.LFB121
 4221 0c04 5E000000 		.4byte	.LFE121-.LFB121
 4222 0c08 01       		.uleb128 0x1
 4223 0c09 9C       		.byte	0x9c
 4224 0c0a 370C0000 		.4byte	0xc37
 4225 0c0e 1D       		.uleb128 0x1d
 4226 0c0f D4050000 		.4byte	.LASF158
 4227 0c13 01       		.byte	0x1
 4228 0c14 A4       		.byte	0xa4
 4229 0c15 370C0000 		.4byte	0xc37
 4230 0c19 02       		.uleb128 0x2
 4231 0c1a 91       		.byte	0x91
 4232 0c1b 6C       		.sleb128 -20
 4233 0c1c 21       		.uleb128 0x21
 4234 0c1d 6900     		.ascii	"i\000"
 4235 0c1f 01       		.byte	0x1
 4236 0c20 A5       		.byte	0xa5
 4237 0c21 21000000 		.4byte	0x21
 4238 0c25 02       		.uleb128 0x2
 4239 0c26 91       		.byte	0x91
 4240 0c27 74       		.sleb128 -12
 4241 0c28 21       		.uleb128 0x21
 4242 0c29 62756600 		.ascii	"buf\000"
 4243 0c2d 01       		.byte	0x1
 4244 0c2e A6       		.byte	0xa6
ARM GAS  /tmp/ccxbZr1V.s 			page 77


 4245 0c2f 050B0000 		.4byte	0xb05
 4246 0c33 02       		.uleb128 0x2
 4247 0c34 91       		.byte	0x91
 4248 0c35 70       		.sleb128 -16
 4249 0c36 00       		.byte	0
 4250 0c37 06       		.uleb128 0x6
 4251 0c38 04       		.byte	0x4
 4252 0c39 FA0A0000 		.4byte	0xafa
 4253 0c3d 20       		.uleb128 0x20
 4254 0c3e 83020000 		.4byte	.LASF160
 4255 0c42 01       		.byte	0x1
 4256 0c43 C2       		.byte	0xc2
 4257 0c44 00000000 		.4byte	.LFB122
 4258 0c48 7E000000 		.4byte	.LFE122-.LFB122
 4259 0c4c 01       		.uleb128 0x1
 4260 0c4d 9C       		.byte	0x9c
 4261 0c4e 8B0C0000 		.4byte	0xc8b
 4262 0c52 1D       		.uleb128 0x1d
 4263 0c53 D4050000 		.4byte	.LASF158
 4264 0c57 01       		.byte	0x1
 4265 0c58 C2       		.byte	0xc2
 4266 0c59 370C0000 		.4byte	0xc37
 4267 0c5d 02       		.uleb128 0x2
 4268 0c5e 91       		.byte	0x91
 4269 0c5f 6C       		.sleb128 -20
 4270 0c60 1E       		.uleb128 0x1e
 4271 0c61 636D6400 		.ascii	"cmd\000"
 4272 0c65 01       		.byte	0x1
 4273 0c66 C2       		.byte	0xc2
 4274 0c67 C4000000 		.4byte	0xc4
 4275 0c6b 02       		.uleb128 0x2
 4276 0c6c 91       		.byte	0x91
 4277 0c6d 6B       		.sleb128 -21
 4278 0c6e 1E       		.uleb128 0x1e
 4279 0c6f 61726700 		.ascii	"arg\000"
 4280 0c73 01       		.byte	0x1
 4281 0c74 C2       		.byte	0xc2
 4282 0c75 E5000000 		.4byte	0xe5
 4283 0c79 02       		.uleb128 0x2
 4284 0c7a 91       		.byte	0x91
 4285 0c7b 64       		.sleb128 -28
 4286 0c7c 21       		.uleb128 0x21
 4287 0c7d 62756600 		.ascii	"buf\000"
 4288 0c81 01       		.byte	0x1
 4289 0c82 C3       		.byte	0xc3
 4290 0c83 8B0C0000 		.4byte	0xc8b
 4291 0c87 02       		.uleb128 0x2
 4292 0c88 91       		.byte	0x91
 4293 0c89 70       		.sleb128 -16
 4294 0c8a 00       		.byte	0
 4295 0c8b 11       		.uleb128 0x11
 4296 0c8c C4000000 		.4byte	0xc4
 4297 0c90 9B0C0000 		.4byte	0xc9b
 4298 0c94 12       		.uleb128 0x12
 4299 0c95 A9000000 		.4byte	0xa9
 4300 0c99 05       		.byte	0x5
 4301 0c9a 00       		.byte	0
ARM GAS  /tmp/ccxbZr1V.s 			page 78


 4302 0c9b 1C       		.uleb128 0x1c
 4303 0c9c 4A030000 		.4byte	.LASF161
 4304 0ca0 01       		.byte	0x1
 4305 0ca1 DC       		.byte	0xdc
 4306 0ca2 C4000000 		.4byte	0xc4
 4307 0ca6 00000000 		.4byte	.LFB123
 4308 0caa 42000000 		.4byte	.LFE123-.LFB123
 4309 0cae 01       		.uleb128 0x1
 4310 0caf 9C       		.byte	0x9c
 4311 0cb0 DC0C0000 		.4byte	0xcdc
 4312 0cb4 1D       		.uleb128 0x1d
 4313 0cb5 D4050000 		.4byte	.LASF158
 4314 0cb9 01       		.byte	0x1
 4315 0cba DC       		.byte	0xdc
 4316 0cbb 370C0000 		.4byte	0xc37
 4317 0cbf 02       		.uleb128 0x2
 4318 0cc0 91       		.byte	0x91
 4319 0cc1 6C       		.sleb128 -20
 4320 0cc2 21       		.uleb128 0x21
 4321 0cc3 6900     		.ascii	"i\000"
 4322 0cc5 01       		.byte	0x1
 4323 0cc6 DD       		.byte	0xdd
 4324 0cc7 21000000 		.4byte	0x21
 4325 0ccb 02       		.uleb128 0x2
 4326 0ccc 91       		.byte	0x91
 4327 0ccd 74       		.sleb128 -12
 4328 0cce 21       		.uleb128 0x21
 4329 0ccf 723100   		.ascii	"r1\000"
 4330 0cd2 01       		.byte	0x1
 4331 0cd3 DE       		.byte	0xde
 4332 0cd4 DC0C0000 		.4byte	0xcdc
 4333 0cd8 02       		.uleb128 0x2
 4334 0cd9 91       		.byte	0x91
 4335 0cda 70       		.sleb128 -16
 4336 0cdb 00       		.byte	0
 4337 0cdc 11       		.uleb128 0x11
 4338 0cdd C4000000 		.4byte	0xc4
 4339 0ce1 EC0C0000 		.4byte	0xcec
 4340 0ce5 12       		.uleb128 0x12
 4341 0ce6 A9000000 		.4byte	0xa9
 4342 0cea 00       		.byte	0
 4343 0ceb 00       		.byte	0
 4344 0cec 1C       		.uleb128 0x1c
 4345 0ced 5B030000 		.4byte	.LASF162
 4346 0cf1 01       		.byte	0x1
 4347 0cf2 F2       		.byte	0xf2
 4348 0cf3 C4000000 		.4byte	0xc4
 4349 0cf7 00000000 		.4byte	.LFB124
 4350 0cfb 30000000 		.4byte	.LFE124-.LFB124
 4351 0cff 01       		.uleb128 0x1
 4352 0d00 9C       		.byte	0x9c
 4353 0d01 2F0D0000 		.4byte	0xd2f
 4354 0d05 1D       		.uleb128 0x1d
 4355 0d06 D4050000 		.4byte	.LASF158
 4356 0d0a 01       		.byte	0x1
 4357 0d0b F2       		.byte	0xf2
 4358 0d0c 370C0000 		.4byte	0xc37
ARM GAS  /tmp/ccxbZr1V.s 			page 79


 4359 0d10 02       		.uleb128 0x2
 4360 0d11 91       		.byte	0x91
 4361 0d12 6C       		.sleb128 -20
 4362 0d13 1D       		.uleb128 0x1d
 4363 0d14 4D060000 		.4byte	.LASF154
 4364 0d18 01       		.byte	0x1
 4365 0d19 F2       		.byte	0xf2
 4366 0d1a DB040000 		.4byte	0x4db
 4367 0d1e 02       		.uleb128 0x2
 4368 0d1f 91       		.byte	0x91
 4369 0d20 68       		.sleb128 -24
 4370 0d21 21       		.uleb128 0x21
 4371 0d22 723100   		.ascii	"r1\000"
 4372 0d25 01       		.byte	0x1
 4373 0d26 F3       		.byte	0xf3
 4374 0d27 C4000000 		.4byte	0xc4
 4375 0d2b 02       		.uleb128 0x2
 4376 0d2c 91       		.byte	0x91
 4377 0d2d 77       		.sleb128 -9
 4378 0d2e 00       		.byte	0
 4379 0d2f 22       		.uleb128 0x22
 4380 0d30 D3060000 		.4byte	.LASF163
 4381 0d34 01       		.byte	0x1
 4382 0d35 0601     		.2byte	0x106
 4383 0d37 C4000000 		.4byte	0xc4
 4384 0d3b 00000000 		.4byte	.LFB125
 4385 0d3f 4C000000 		.4byte	.LFE125-.LFB125
 4386 0d43 01       		.uleb128 0x1
 4387 0d44 9C       		.byte	0x9c
 4388 0d45 850D0000 		.4byte	0xd85
 4389 0d49 23       		.uleb128 0x23
 4390 0d4a D4050000 		.4byte	.LASF158
 4391 0d4e 01       		.byte	0x1
 4392 0d4f 0601     		.2byte	0x106
 4393 0d51 370C0000 		.4byte	0xc37
 4394 0d55 02       		.uleb128 0x2
 4395 0d56 91       		.byte	0x91
 4396 0d57 6C       		.sleb128 -20
 4397 0d58 24       		.uleb128 0x24
 4398 0d59 636D6400 		.ascii	"cmd\000"
 4399 0d5d 01       		.byte	0x1
 4400 0d5e 0601     		.2byte	0x106
 4401 0d60 C4000000 		.4byte	0xc4
 4402 0d64 02       		.uleb128 0x2
 4403 0d65 91       		.byte	0x91
 4404 0d66 6B       		.sleb128 -21
 4405 0d67 24       		.uleb128 0x24
 4406 0d68 61726700 		.ascii	"arg\000"
 4407 0d6c 01       		.byte	0x1
 4408 0d6d 0601     		.2byte	0x106
 4409 0d6f E5000000 		.4byte	0xe5
 4410 0d73 02       		.uleb128 0x2
 4411 0d74 91       		.byte	0x91
 4412 0d75 64       		.sleb128 -28
 4413 0d76 25       		.uleb128 0x25
 4414 0d77 723100   		.ascii	"r1\000"
 4415 0d7a 01       		.byte	0x1
ARM GAS  /tmp/ccxbZr1V.s 			page 80


 4416 0d7b 0701     		.2byte	0x107
 4417 0d7d C4000000 		.4byte	0xc4
 4418 0d81 02       		.uleb128 0x2
 4419 0d82 91       		.byte	0x91
 4420 0d83 77       		.sleb128 -9
 4421 0d84 00       		.byte	0
 4422 0d85 22       		.uleb128 0x22
 4423 0d86 E3060000 		.4byte	.LASF164
 4424 0d8a 01       		.byte	0x1
 4425 0d8b 1D01     		.2byte	0x11d
 4426 0d8d C4000000 		.4byte	0xc4
 4427 0d91 00000000 		.4byte	.LFB126
 4428 0d95 50000000 		.4byte	.LFE126-.LFB126
 4429 0d99 01       		.uleb128 0x1
 4430 0d9a 9C       		.byte	0x9c
 4431 0d9b EA0D0000 		.4byte	0xdea
 4432 0d9f 23       		.uleb128 0x23
 4433 0da0 D4050000 		.4byte	.LASF158
 4434 0da4 01       		.byte	0x1
 4435 0da5 1D01     		.2byte	0x11d
 4436 0da7 370C0000 		.4byte	0xc37
 4437 0dab 02       		.uleb128 0x2
 4438 0dac 91       		.byte	0x91
 4439 0dad 6C       		.sleb128 -20
 4440 0dae 24       		.uleb128 0x24
 4441 0daf 636D6400 		.ascii	"cmd\000"
 4442 0db3 01       		.byte	0x1
 4443 0db4 1D01     		.2byte	0x11d
 4444 0db6 C4000000 		.4byte	0xc4
 4445 0dba 02       		.uleb128 0x2
 4446 0dbb 91       		.byte	0x91
 4447 0dbc 6B       		.sleb128 -21
 4448 0dbd 24       		.uleb128 0x24
 4449 0dbe 61726700 		.ascii	"arg\000"
 4450 0dc2 01       		.byte	0x1
 4451 0dc3 1D01     		.2byte	0x11d
 4452 0dc5 E5000000 		.4byte	0xe5
 4453 0dc9 02       		.uleb128 0x2
 4454 0dca 91       		.byte	0x91
 4455 0dcb 64       		.sleb128 -28
 4456 0dcc 23       		.uleb128 0x23
 4457 0dcd DA000000 		.4byte	.LASF165
 4458 0dd1 01       		.byte	0x1
 4459 0dd2 1E01     		.2byte	0x11e
 4460 0dd4 DB040000 		.4byte	0x4db
 4461 0dd8 02       		.uleb128 0x2
 4462 0dd9 91       		.byte	0x91
 4463 0dda 60       		.sleb128 -32
 4464 0ddb 25       		.uleb128 0x25
 4465 0ddc 723100   		.ascii	"r1\000"
 4466 0ddf 01       		.byte	0x1
 4467 0de0 1F01     		.2byte	0x11f
 4468 0de2 C4000000 		.4byte	0xc4
 4469 0de6 02       		.uleb128 0x2
 4470 0de7 91       		.byte	0x91
 4471 0de8 77       		.sleb128 -9
 4472 0de9 00       		.byte	0
ARM GAS  /tmp/ccxbZr1V.s 			page 81


 4473 0dea 22       		.uleb128 0x22
 4474 0deb 92050000 		.4byte	.LASF166
 4475 0def 01       		.byte	0x1
 4476 0df0 3401     		.2byte	0x134
 4477 0df2 FB000000 		.4byte	0xfb
 4478 0df6 00000000 		.4byte	.LFB127
 4479 0dfa F4000000 		.4byte	.LFE127-.LFB127
 4480 0dfe 01       		.uleb128 0x1
 4481 0dff 9C       		.byte	0x9c
 4482 0e00 740E0000 		.4byte	0xe74
 4483 0e04 23       		.uleb128 0x23
 4484 0e05 D4050000 		.4byte	.LASF158
 4485 0e09 01       		.byte	0x1
 4486 0e0a 3401     		.2byte	0x134
 4487 0e0c 370C0000 		.4byte	0xc37
 4488 0e10 02       		.uleb128 0x2
 4489 0e11 91       		.byte	0x91
 4490 0e12 54       		.sleb128 -44
 4491 0e13 24       		.uleb128 0x24
 4492 0e14 636D6400 		.ascii	"cmd\000"
 4493 0e18 01       		.byte	0x1
 4494 0e19 3401     		.2byte	0x134
 4495 0e1b C4000000 		.4byte	0xc4
 4496 0e1f 02       		.uleb128 0x2
 4497 0e20 91       		.byte	0x91
 4498 0e21 53       		.sleb128 -45
 4499 0e22 24       		.uleb128 0x24
 4500 0e23 63786400 		.ascii	"cxd\000"
 4501 0e27 01       		.byte	0x1
 4502 0e28 3401     		.2byte	0x134
 4503 0e2a 740E0000 		.4byte	0xe74
 4504 0e2e 02       		.uleb128 0x2
 4505 0e2f 91       		.byte	0x91
 4506 0e30 4C       		.sleb128 -52
 4507 0e31 25       		.uleb128 0x25
 4508 0e32 6900     		.ascii	"i\000"
 4509 0e34 01       		.byte	0x1
 4510 0e35 3501     		.2byte	0x135
 4511 0e37 33000000 		.4byte	0x33
 4512 0e3b 02       		.uleb128 0x2
 4513 0e3c 91       		.byte	0x91
 4514 0e3d 74       		.sleb128 -12
 4515 0e3e 25       		.uleb128 0x25
 4516 0e3f 627000   		.ascii	"bp\000"
 4517 0e42 01       		.byte	0x1
 4518 0e43 3601     		.2byte	0x136
 4519 0e45 DB040000 		.4byte	0x4db
 4520 0e49 02       		.uleb128 0x2
 4521 0e4a 91       		.byte	0x91
 4522 0e4b 70       		.sleb128 -16
 4523 0e4c 25       		.uleb128 0x25
 4524 0e4d 62756600 		.ascii	"buf\000"
 4525 0e51 01       		.byte	0x1
 4526 0e52 3601     		.2byte	0x136
 4527 0e54 7A0E0000 		.4byte	0xe7a
 4528 0e58 02       		.uleb128 0x2
 4529 0e59 91       		.byte	0x91
ARM GAS  /tmp/ccxbZr1V.s 			page 82


 4530 0e5a 5C       		.sleb128 -36
 4531 0e5b 26       		.uleb128 0x26
 4532 0e5c 64000000 		.4byte	.LBB2
 4533 0e60 76000000 		.4byte	.LBE2-.LBB2
 4534 0e64 25       		.uleb128 0x25
 4535 0e65 777000   		.ascii	"wp\000"
 4536 0e68 01       		.byte	0x1
 4537 0e69 4301     		.2byte	0x143
 4538 0e6b 740E0000 		.4byte	0xe74
 4539 0e6f 02       		.uleb128 0x2
 4540 0e70 91       		.byte	0x91
 4541 0e71 6C       		.sleb128 -20
 4542 0e72 00       		.byte	0
 4543 0e73 00       		.byte	0
 4544 0e74 06       		.uleb128 0x6
 4545 0e75 04       		.byte	0x4
 4546 0e76 E5000000 		.4byte	0xe5
 4547 0e7a 11       		.uleb128 0x11
 4548 0e7b C4000000 		.4byte	0xc4
 4549 0e7f 8A0E0000 		.4byte	0xe8a
 4550 0e83 12       		.uleb128 0x12
 4551 0e84 A9000000 		.4byte	0xa9
 4552 0e88 0F       		.byte	0xf
 4553 0e89 00       		.byte	0
 4554 0e8a 27       		.uleb128 0x27
 4555 0e8b F3060000 		.4byte	.LASF147
 4556 0e8f 01       		.byte	0x1
 4557 0e90 5E01     		.2byte	0x15e
 4558 0e92 00000000 		.4byte	.LFB128
 4559 0e96 48000000 		.4byte	.LFE128-.LFB128
 4560 0e9a 01       		.uleb128 0x1
 4561 0e9b 9C       		.byte	0x9c
 4562 0e9c BF0E0000 		.4byte	0xebf
 4563 0ea0 23       		.uleb128 0x23
 4564 0ea1 D4050000 		.4byte	.LASF158
 4565 0ea5 01       		.byte	0x1
 4566 0ea6 5E01     		.2byte	0x15e
 4567 0ea8 370C0000 		.4byte	0xc37
 4568 0eac 02       		.uleb128 0x2
 4569 0ead 91       		.byte	0x91
 4570 0eae 6C       		.sleb128 -20
 4571 0eaf 25       		.uleb128 0x25
 4572 0eb0 62756600 		.ascii	"buf\000"
 4573 0eb4 01       		.byte	0x1
 4574 0eb5 5F01     		.2byte	0x15f
 4575 0eb7 DC0C0000 		.4byte	0xcdc
 4576 0ebb 02       		.uleb128 0x2
 4577 0ebc 91       		.byte	0x91
 4578 0ebd 74       		.sleb128 -12
 4579 0ebe 00       		.byte	0
 4580 0ebf 28       		.uleb128 0x28
 4581 0ec0 C3050000 		.4byte	.LASF191
 4582 0ec4 01       		.byte	0x1
 4583 0ec5 7801     		.2byte	0x178
 4584 0ec7 00000000 		.4byte	.LFB129
 4585 0ecb 02000000 		.4byte	.LFE129-.LFB129
 4586 0ecf 01       		.uleb128 0x1
ARM GAS  /tmp/ccxbZr1V.s 			page 83


 4587 0ed0 9C       		.byte	0x9c
 4588 0ed1 29       		.uleb128 0x29
 4589 0ed2 65010000 		.4byte	.LASF167
 4590 0ed6 01       		.byte	0x1
 4591 0ed7 8301     		.2byte	0x183
 4592 0ed9 00000000 		.4byte	.LFB130
 4593 0edd 28000000 		.4byte	.LFE130-.LFB130
 4594 0ee1 01       		.uleb128 0x1
 4595 0ee2 9C       		.byte	0x9c
 4596 0ee3 F70E0000 		.4byte	0xef7
 4597 0ee7 23       		.uleb128 0x23
 4598 0ee8 D4050000 		.4byte	.LASF158
 4599 0eec 01       		.byte	0x1
 4600 0eed 8301     		.2byte	0x183
 4601 0eef 370C0000 		.4byte	0xc37
 4602 0ef3 02       		.uleb128 0x2
 4603 0ef4 91       		.byte	0x91
 4604 0ef5 7C       		.sleb128 -4
 4605 0ef6 00       		.byte	0
 4606 0ef7 2A       		.uleb128 0x2a
 4607 0ef8 6D030000 		.4byte	.LASF168
 4608 0efc 01       		.byte	0x1
 4609 0efd 9301     		.2byte	0x193
 4610 0eff 00000000 		.4byte	.LFB131
 4611 0f03 4C000000 		.4byte	.LFE131-.LFB131
 4612 0f07 01       		.uleb128 0x1
 4613 0f08 9C       		.byte	0x9c
 4614 0f09 2C0F0000 		.4byte	0xf2c
 4615 0f0d 23       		.uleb128 0x23
 4616 0f0e D4050000 		.4byte	.LASF158
 4617 0f12 01       		.byte	0x1
 4618 0f13 9301     		.2byte	0x193
 4619 0f15 370C0000 		.4byte	0xc37
 4620 0f19 02       		.uleb128 0x2
 4621 0f1a 91       		.byte	0x91
 4622 0f1b 74       		.sleb128 -12
 4623 0f1c 23       		.uleb128 0x23
 4624 0f1d 20060000 		.4byte	.LASF124
 4625 0f21 01       		.byte	0x1
 4626 0f22 9301     		.2byte	0x193
 4627 0f24 EF0A0000 		.4byte	0xaef
 4628 0f28 02       		.uleb128 0x2
 4629 0f29 91       		.byte	0x91
 4630 0f2a 70       		.sleb128 -16
 4631 0f2b 00       		.byte	0
 4632 0f2c 2A       		.uleb128 0x2a
 4633 0f2d D4030000 		.4byte	.LASF169
 4634 0f31 01       		.byte	0x1
 4635 0f32 A401     		.2byte	0x1a4
 4636 0f34 00000000 		.4byte	.LFB132
 4637 0f38 48000000 		.4byte	.LFE132-.LFB132
 4638 0f3c 01       		.uleb128 0x1
 4639 0f3d 9C       		.byte	0x9c
 4640 0f3e 520F0000 		.4byte	0xf52
 4641 0f42 23       		.uleb128 0x23
 4642 0f43 D4050000 		.4byte	.LASF158
 4643 0f47 01       		.byte	0x1
ARM GAS  /tmp/ccxbZr1V.s 			page 84


 4644 0f48 A401     		.2byte	0x1a4
 4645 0f4a 370C0000 		.4byte	0xc37
 4646 0f4e 02       		.uleb128 0x2
 4647 0f4f 91       		.byte	0x91
 4648 0f50 74       		.sleb128 -12
 4649 0f51 00       		.byte	0
 4650 0f52 2B       		.uleb128 0x2b
 4651 0f53 1D070000 		.4byte	.LASF170
 4652 0f57 01       		.byte	0x1
 4653 0f58 BF01     		.2byte	0x1bf
 4654 0f5a FB000000 		.4byte	0xfb
 4655 0f5e 00000000 		.4byte	.LFB133
 4656 0f62 DC010000 		.4byte	.LFE133-.LFB133
 4657 0f66 01       		.uleb128 0x1
 4658 0f67 9C       		.byte	0x9c
 4659 0f68 B60F0000 		.4byte	0xfb6
 4660 0f6c 23       		.uleb128 0x23
 4661 0f6d D4050000 		.4byte	.LASF158
 4662 0f71 01       		.byte	0x1
 4663 0f72 BF01     		.2byte	0x1bf
 4664 0f74 370C0000 		.4byte	0xc37
 4665 0f78 02       		.uleb128 0x2
 4666 0f79 91       		.byte	0x91
 4667 0f7a 64       		.sleb128 -28
 4668 0f7b 25       		.uleb128 0x25
 4669 0f7c 6900     		.ascii	"i\000"
 4670 0f7e 01       		.byte	0x1
 4671 0f7f C001     		.2byte	0x1c0
 4672 0f81 33000000 		.4byte	0x33
 4673 0f85 02       		.uleb128 0x2
 4674 0f86 91       		.byte	0x91
 4675 0f87 74       		.sleb128 -12
 4676 0f88 25       		.uleb128 0x25
 4677 0f89 723300   		.ascii	"r3\000"
 4678 0f8c 01       		.byte	0x1
 4679 0f8d C101     		.2byte	0x1c1
 4680 0f8f 050B0000 		.4byte	0xb05
 4681 0f93 02       		.uleb128 0x2
 4682 0f94 91       		.byte	0x91
 4683 0f95 6C       		.sleb128 -20
 4684 0f96 2C       		.uleb128 0x2c
 4685 0f97 3D040000 		.4byte	.LASF186
 4686 0f9b 01       		.byte	0x1
 4687 0f9c 1902     		.2byte	0x219
 4688 0f9e B2010000 		.4byte	.L77
 4689 0fa2 2D       		.uleb128 0x2d
 4690 0fa3 00000000 		.4byte	.Ldebug_ranges0+0
 4691 0fa7 25       		.uleb128 0x25
 4692 0fa8 6200     		.ascii	"b\000"
 4693 0faa 01       		.byte	0x1
 4694 0fab F901     		.2byte	0x1f9
 4695 0fad C4000000 		.4byte	0xc4
 4696 0fb1 02       		.uleb128 0x2
 4697 0fb2 91       		.byte	0x91
 4698 0fb3 73       		.sleb128 -13
 4699 0fb4 00       		.byte	0
 4700 0fb5 00       		.byte	0
ARM GAS  /tmp/ccxbZr1V.s 			page 85


 4701 0fb6 2B       		.uleb128 0x2b
 4702 0fb7 9B050000 		.4byte	.LASF171
 4703 0fbb 01       		.byte	0x1
 4704 0fbc 2B02     		.2byte	0x22b
 4705 0fbe FB000000 		.4byte	0xfb
 4706 0fc2 00000000 		.4byte	.LFB134
 4707 0fc6 98000000 		.4byte	.LFE134-.LFB134
 4708 0fca 01       		.uleb128 0x1
 4709 0fcb 9C       		.byte	0x9c
 4710 0fcc 30100000 		.4byte	0x1030
 4711 0fd0 23       		.uleb128 0x23
 4712 0fd1 D4050000 		.4byte	.LASF158
 4713 0fd5 01       		.byte	0x1
 4714 0fd6 2B02     		.2byte	0x22b
 4715 0fd8 370C0000 		.4byte	0xc37
 4716 0fdc 02       		.uleb128 0x2
 4717 0fdd 91       		.byte	0x91
 4718 0fde 74       		.sleb128 -12
 4719 0fdf 2E       		.uleb128 0x2e
 4720 0fe0 12000000 		.4byte	.LBB5
 4721 0fe4 06000000 		.4byte	.LBE5-.LBB5
 4722 0fe8 FB0F0000 		.4byte	0xffb
 4723 0fec 25       		.uleb128 0x25
 4724 0fed 746D7000 		.ascii	"tmp\000"
 4725 0ff1 01       		.byte	0x1
 4726 0ff2 2F02     		.2byte	0x22f
 4727 0ff4 E5000000 		.4byte	0xe5
 4728 0ff8 01       		.uleb128 0x1
 4729 0ff9 53       		.byte	0x53
 4730 0ffa 00       		.byte	0
 4731 0ffb 2E       		.uleb128 0x2e
 4732 0ffc 3E000000 		.4byte	.LBB6
 4733 1000 06000000 		.4byte	.LBE6-.LBB6
 4734 1004 17100000 		.4byte	0x1017
 4735 1008 25       		.uleb128 0x25
 4736 1009 746D7000 		.ascii	"tmp\000"
 4737 100d 01       		.byte	0x1
 4738 100e 3302     		.2byte	0x233
 4739 1010 E5000000 		.4byte	0xe5
 4740 1014 01       		.uleb128 0x1
 4741 1015 53       		.byte	0x53
 4742 1016 00       		.byte	0
 4743 1017 26       		.uleb128 0x26
 4744 1018 52000000 		.4byte	.LBB7
 4745 101c 06000000 		.4byte	.LBE7-.LBB7
 4746 1020 25       		.uleb128 0x25
 4747 1021 746D7000 		.ascii	"tmp\000"
 4748 1025 01       		.byte	0x1
 4749 1026 3702     		.2byte	0x237
 4750 1028 E5000000 		.4byte	0xe5
 4751 102c 01       		.uleb128 0x1
 4752 102d 53       		.byte	0x53
 4753 102e 00       		.byte	0
 4754 102f 00       		.byte	0
 4755 1030 2B       		.uleb128 0x2b
 4756 1031 F0030000 		.4byte	.LASF172
 4757 1035 01       		.byte	0x1
ARM GAS  /tmp/ccxbZr1V.s 			page 86


 4758 1036 4E02     		.2byte	0x24e
 4759 1038 FB000000 		.4byte	0xfb
 4760 103c 00000000 		.4byte	.LFB135
 4761 1040 A0000000 		.4byte	.LFE135-.LFB135
 4762 1044 01       		.uleb128 0x1
 4763 1045 9C       		.byte	0x9c
 4764 1046 69100000 		.4byte	0x1069
 4765 104a 23       		.uleb128 0x23
 4766 104b D4050000 		.4byte	.LASF158
 4767 104f 01       		.byte	0x1
 4768 1050 4E02     		.2byte	0x24e
 4769 1052 370C0000 		.4byte	0xc37
 4770 1056 02       		.uleb128 0x2
 4771 1057 91       		.byte	0x91
 4772 1058 74       		.sleb128 -12
 4773 1059 23       		.uleb128 0x23
 4774 105a 53000000 		.4byte	.LASF153
 4775 105e 01       		.byte	0x1
 4776 105f 4E02     		.2byte	0x24e
 4777 1061 E5000000 		.4byte	0xe5
 4778 1065 02       		.uleb128 0x2
 4779 1066 91       		.byte	0x91
 4780 1067 70       		.sleb128 -16
 4781 1068 00       		.byte	0
 4782 1069 2B       		.uleb128 0x2b
 4783 106a 98000000 		.4byte	.LASF173
 4784 106e 01       		.byte	0x1
 4785 106f 7502     		.2byte	0x275
 4786 1071 FB000000 		.4byte	0xfb
 4787 1075 00000000 		.4byte	.LFB136
 4788 1079 A4000000 		.4byte	.LFE136-.LFB136
 4789 107d 01       		.uleb128 0x1
 4790 107e 9C       		.byte	0x9c
 4791 107f AF100000 		.4byte	0x10af
 4792 1083 23       		.uleb128 0x23
 4793 1084 D4050000 		.4byte	.LASF158
 4794 1088 01       		.byte	0x1
 4795 1089 7502     		.2byte	0x275
 4796 108b 370C0000 		.4byte	0xc37
 4797 108f 02       		.uleb128 0x2
 4798 1090 91       		.byte	0x91
 4799 1091 6C       		.sleb128 -20
 4800 1092 23       		.uleb128 0x23
 4801 1093 4D060000 		.4byte	.LASF154
 4802 1097 01       		.byte	0x1
 4803 1098 7502     		.2byte	0x275
 4804 109a DB040000 		.4byte	0x4db
 4805 109e 02       		.uleb128 0x2
 4806 109f 91       		.byte	0x91
 4807 10a0 68       		.sleb128 -24
 4808 10a1 25       		.uleb128 0x25
 4809 10a2 6900     		.ascii	"i\000"
 4810 10a4 01       		.byte	0x1
 4811 10a5 7602     		.2byte	0x276
 4812 10a7 21000000 		.4byte	0x21
 4813 10ab 02       		.uleb128 0x2
 4814 10ac 91       		.byte	0x91
ARM GAS  /tmp/ccxbZr1V.s 			page 87


 4815 10ad 74       		.sleb128 -12
 4816 10ae 00       		.byte	0
 4817 10af 2B       		.uleb128 0x2b
 4818 10b0 28070000 		.4byte	.LASF174
 4819 10b4 01       		.byte	0x1
 4820 10b5 9802     		.2byte	0x298
 4821 10b7 FB000000 		.4byte	0xfb
 4822 10bb 00000000 		.4byte	.LFB137
 4823 10bf 58000000 		.4byte	.LFE137-.LFB137
 4824 10c3 01       		.uleb128 0x1
 4825 10c4 9C       		.byte	0x9c
 4826 10c5 EB100000 		.4byte	0x10eb
 4827 10c9 23       		.uleb128 0x23
 4828 10ca D4050000 		.4byte	.LASF158
 4829 10ce 01       		.byte	0x1
 4830 10cf 9802     		.2byte	0x298
 4831 10d1 370C0000 		.4byte	0xc37
 4832 10d5 02       		.uleb128 0x2
 4833 10d6 91       		.byte	0x91
 4834 10d7 74       		.sleb128 -12
 4835 10d8 2F       		.uleb128 0x2f
 4836 10d9 CC030000 		.4byte	.LASF175
 4837 10dd 01       		.byte	0x1
 4838 10de 9902     		.2byte	0x299
 4839 10e0 FB100000 		.4byte	0x10fb
 4840 10e4 05       		.uleb128 0x5
 4841 10e5 03       		.byte	0x3
 4842 10e6 00000000 		.4byte	stopcmd.7337
 4843 10ea 00       		.byte	0
 4844 10eb 11       		.uleb128 0x11
 4845 10ec C4000000 		.4byte	0xc4
 4846 10f0 FB100000 		.4byte	0x10fb
 4847 10f4 12       		.uleb128 0x12
 4848 10f5 A9000000 		.4byte	0xa9
 4849 10f9 06       		.byte	0x6
 4850 10fa 00       		.byte	0
 4851 10fb 07       		.uleb128 0x7
 4852 10fc EB100000 		.4byte	0x10eb
 4853 1100 2B       		.uleb128 0x2b
 4854 1101 59020000 		.4byte	.LASF176
 4855 1105 01       		.byte	0x1
 4856 1106 B802     		.2byte	0x2b8
 4857 1108 FB000000 		.4byte	0xfb
 4858 110c 00000000 		.4byte	.LFB138
 4859 1110 A0000000 		.4byte	.LFE138-.LFB138
 4860 1114 01       		.uleb128 0x1
 4861 1115 9C       		.byte	0x9c
 4862 1116 39110000 		.4byte	0x1139
 4863 111a 23       		.uleb128 0x23
 4864 111b D4050000 		.4byte	.LASF158
 4865 111f 01       		.byte	0x1
 4866 1120 B802     		.2byte	0x2b8
 4867 1122 370C0000 		.4byte	0xc37
 4868 1126 02       		.uleb128 0x2
 4869 1127 91       		.byte	0x91
 4870 1128 74       		.sleb128 -12
 4871 1129 23       		.uleb128 0x23
ARM GAS  /tmp/ccxbZr1V.s 			page 88


 4872 112a 53000000 		.4byte	.LASF153
 4873 112e 01       		.byte	0x1
 4874 112f B802     		.2byte	0x2b8
 4875 1131 E5000000 		.4byte	0xe5
 4876 1135 02       		.uleb128 0x2
 4877 1136 91       		.byte	0x91
 4878 1137 70       		.sleb128 -16
 4879 1138 00       		.byte	0
 4880 1139 2B       		.uleb128 0x2b
 4881 113a 7A050000 		.4byte	.LASF177
 4882 113e 01       		.byte	0x1
 4883 113f DD02     		.2byte	0x2dd
 4884 1141 FB000000 		.4byte	0xfb
 4885 1145 00000000 		.4byte	.LFB139
 4886 1149 B0000000 		.4byte	.LFE139-.LFB139
 4887 114d 01       		.uleb128 0x1
 4888 114e 9C       		.byte	0x9c
 4889 114f 91110000 		.4byte	0x1191
 4890 1153 23       		.uleb128 0x23
 4891 1154 D4050000 		.4byte	.LASF158
 4892 1158 01       		.byte	0x1
 4893 1159 DD02     		.2byte	0x2dd
 4894 115b 370C0000 		.4byte	0xc37
 4895 115f 02       		.uleb128 0x2
 4896 1160 91       		.byte	0x91
 4897 1161 6C       		.sleb128 -20
 4898 1162 23       		.uleb128 0x23
 4899 1163 4D060000 		.4byte	.LASF154
 4900 1167 01       		.byte	0x1
 4901 1168 DD02     		.2byte	0x2dd
 4902 116a E1040000 		.4byte	0x4e1
 4903 116e 02       		.uleb128 0x2
 4904 116f 91       		.byte	0x91
 4905 1170 68       		.sleb128 -24
 4906 1171 2F       		.uleb128 0x2f
 4907 1172 17070000 		.4byte	.LASF178
 4908 1176 01       		.byte	0x1
 4909 1177 DE02     		.2byte	0x2de
 4910 1179 A1110000 		.4byte	0x11a1
 4911 117d 05       		.uleb128 0x5
 4912 117e 03       		.byte	0x3
 4913 117f 00000000 		.4byte	start.7346
 4914 1183 25       		.uleb128 0x25
 4915 1184 6200     		.ascii	"b\000"
 4916 1186 01       		.byte	0x1
 4917 1187 DF02     		.2byte	0x2df
 4918 1189 DC0C0000 		.4byte	0xcdc
 4919 118d 02       		.uleb128 0x2
 4920 118e 91       		.byte	0x91
 4921 118f 74       		.sleb128 -12
 4922 1190 00       		.byte	0
 4923 1191 11       		.uleb128 0x11
 4924 1192 C4000000 		.4byte	0xc4
 4925 1196 A1110000 		.4byte	0x11a1
 4926 119a 12       		.uleb128 0x12
 4927 119b A9000000 		.4byte	0xa9
 4928 119f 01       		.byte	0x1
ARM GAS  /tmp/ccxbZr1V.s 			page 89


 4929 11a0 00       		.byte	0
 4930 11a1 07       		.uleb128 0x7
 4931 11a2 91110000 		.4byte	0x1191
 4932 11a6 2B       		.uleb128 0x2b
 4933 11a7 44040000 		.4byte	.LASF179
 4934 11ab 01       		.byte	0x1
 4935 11ac 0103     		.2byte	0x301
 4936 11ae FB000000 		.4byte	0xfb
 4937 11b2 00000000 		.4byte	.LFB140
 4938 11b6 54000000 		.4byte	.LFE140-.LFB140
 4939 11ba 01       		.uleb128 0x1
 4940 11bb 9C       		.byte	0x9c
 4941 11bc E2110000 		.4byte	0x11e2
 4942 11c0 23       		.uleb128 0x23
 4943 11c1 D4050000 		.4byte	.LASF158
 4944 11c5 01       		.byte	0x1
 4945 11c6 0103     		.2byte	0x301
 4946 11c8 370C0000 		.4byte	0xc37
 4947 11cc 02       		.uleb128 0x2
 4948 11cd 91       		.byte	0x91
 4949 11ce 74       		.sleb128 -12
 4950 11cf 2F       		.uleb128 0x2f
 4951 11d0 8D050000 		.4byte	.LASF180
 4952 11d4 01       		.byte	0x1
 4953 11d5 0203     		.2byte	0x302
 4954 11d7 E2110000 		.4byte	0x11e2
 4955 11db 05       		.uleb128 0x5
 4956 11dc 03       		.byte	0x3
 4957 11dd 00000000 		.4byte	stop.7351
 4958 11e1 00       		.byte	0
 4959 11e2 07       		.uleb128 0x7
 4960 11e3 91110000 		.4byte	0x1191
 4961 11e7 2B       		.uleb128 0x2b
 4962 11e8 3E070000 		.4byte	.LASF181
 4963 11ec 01       		.byte	0x1
 4964 11ed 1C03     		.2byte	0x31c
 4965 11ef FB000000 		.4byte	0xfb
 4966 11f3 00000000 		.4byte	.LFB141
 4967 11f7 54000000 		.4byte	.LFE141-.LFB141
 4968 11fb 01       		.uleb128 0x1
 4969 11fc 9C       		.byte	0x9c
 4970 11fd 11120000 		.4byte	0x1211
 4971 1201 23       		.uleb128 0x23
 4972 1202 D4050000 		.4byte	.LASF158
 4973 1206 01       		.byte	0x1
 4974 1207 1C03     		.2byte	0x31c
 4975 1209 370C0000 		.4byte	0xc37
 4976 120d 02       		.uleb128 0x2
 4977 120e 91       		.byte	0x91
 4978 120f 74       		.sleb128 -12
 4979 1210 00       		.byte	0
 4980 1211 2B       		.uleb128 0x2b
 4981 1212 A1030000 		.4byte	.LASF182
 4982 1216 01       		.byte	0x1
 4983 1217 3A03     		.2byte	0x33a
 4984 1219 FB000000 		.4byte	0xfb
 4985 121d 00000000 		.4byte	.LFB142
ARM GAS  /tmp/ccxbZr1V.s 			page 90


 4986 1221 44000000 		.4byte	.LFE142-.LFB142
 4987 1225 01       		.uleb128 0x1
 4988 1226 9C       		.byte	0x9c
 4989 1227 4A120000 		.4byte	0x124a
 4990 122b 23       		.uleb128 0x23
 4991 122c D4050000 		.4byte	.LASF158
 4992 1230 01       		.byte	0x1
 4993 1231 3A03     		.2byte	0x33a
 4994 1233 370C0000 		.4byte	0xc37
 4995 1237 02       		.uleb128 0x2
 4996 1238 91       		.byte	0x91
 4997 1239 74       		.sleb128 -12
 4998 123a 23       		.uleb128 0x23
 4999 123b 4E000000 		.4byte	.LASF183
 5000 123f 01       		.byte	0x1
 5001 1240 3A03     		.2byte	0x33a
 5002 1242 91070000 		.4byte	0x791
 5003 1246 02       		.uleb128 0x2
 5004 1247 91       		.byte	0x91
 5005 1248 70       		.sleb128 -16
 5006 1249 00       		.byte	0
 5007 124a 2B       		.uleb128 0x2b
 5008 124b 22030000 		.4byte	.LASF184
 5009 124f 01       		.byte	0x1
 5010 1250 5403     		.2byte	0x354
 5011 1252 FB000000 		.4byte	0xfb
 5012 1256 00000000 		.4byte	.LFB143
 5013 125a 98000000 		.4byte	.LFE143-.LFB143
 5014 125e 01       		.uleb128 0x1
 5015 125f 9C       		.byte	0x9c
 5016 1260 9E120000 		.4byte	0x129e
 5017 1264 23       		.uleb128 0x23
 5018 1265 D4050000 		.4byte	.LASF158
 5019 1269 01       		.byte	0x1
 5020 126a 5403     		.2byte	0x354
 5021 126c 370C0000 		.4byte	0xc37
 5022 1270 02       		.uleb128 0x2
 5023 1271 91       		.byte	0x91
 5024 1272 74       		.sleb128 -12
 5025 1273 23       		.uleb128 0x23
 5026 1274 53000000 		.4byte	.LASF153
 5027 1278 01       		.byte	0x1
 5028 1279 5403     		.2byte	0x354
 5029 127b E5000000 		.4byte	0xe5
 5030 127f 02       		.uleb128 0x2
 5031 1280 91       		.byte	0x91
 5032 1281 70       		.sleb128 -16
 5033 1282 23       		.uleb128 0x23
 5034 1283 F8060000 		.4byte	.LASF185
 5035 1287 01       		.byte	0x1
 5036 1288 5403     		.2byte	0x354
 5037 128a E5000000 		.4byte	0xe5
 5038 128e 02       		.uleb128 0x2
 5039 128f 91       		.byte	0x91
 5040 1290 6C       		.sleb128 -20
 5041 1291 2C       		.uleb128 0x2c
 5042 1292 3D040000 		.4byte	.LASF186
ARM GAS  /tmp/ccxbZr1V.s 			page 91


 5043 1296 01       		.byte	0x1
 5044 1297 6E03     		.2byte	0x36e
 5045 1299 78000000 		.4byte	.L173
 5046 129d 00       		.byte	0
 5047 129e 30       		.uleb128 0x30
 5048 129f 8F040000 		.4byte	.LASF187
 5049 12a3 01       		.byte	0x1
 5050 12a4 43       		.byte	0x43
 5051 12a5 EA0A0000 		.4byte	0xaea
 5052 12a9 05       		.uleb128 0x5
 5053 12aa 03       		.byte	0x3
 5054 12ab 00000000 		.4byte	mmc_vmt
 5055 12af 30       		.uleb128 0x30
 5056 12b0 83030000 		.4byte	.LASF188
 5057 12b4 01       		.byte	0x1
 5058 12b5 51       		.byte	0x51
 5059 12b6 C0120000 		.4byte	0x12c0
 5060 12ba 05       		.uleb128 0x5
 5061 12bb 03       		.byte	0x3
 5062 12bc 00000000 		.4byte	crc7_lookup_table
 5063 12c0 07       		.uleb128 0x7
 5064 12c1 7B080000 		.4byte	0x87b
 5065 12c5 31       		.uleb128 0x31
 5066 12c6 BB000000 		.4byte	.LASF192
 5067 12ca 11       		.byte	0x11
 5068 12cb 9806     		.2byte	0x698
 5069 12cd 01050000 		.4byte	0x501
 5070 12d1 00       		.byte	0
 5071              		.section	.debug_abbrev,"",%progbits
 5072              	.Ldebug_abbrev0:
 5073 0000 01       		.uleb128 0x1
 5074 0001 11       		.uleb128 0x11
 5075 0002 01       		.byte	0x1
 5076 0003 25       		.uleb128 0x25
 5077 0004 0E       		.uleb128 0xe
 5078 0005 13       		.uleb128 0x13
 5079 0006 0B       		.uleb128 0xb
 5080 0007 03       		.uleb128 0x3
 5081 0008 0E       		.uleb128 0xe
 5082 0009 55       		.uleb128 0x55
 5083 000a 17       		.uleb128 0x17
 5084 000b 11       		.uleb128 0x11
 5085 000c 01       		.uleb128 0x1
 5086 000d 10       		.uleb128 0x10
 5087 000e 17       		.uleb128 0x17
 5088 000f 00       		.byte	0
 5089 0010 00       		.byte	0
 5090 0011 02       		.uleb128 0x2
 5091 0012 24       		.uleb128 0x24
 5092 0013 00       		.byte	0
 5093 0014 0B       		.uleb128 0xb
 5094 0015 0B       		.uleb128 0xb
 5095 0016 3E       		.uleb128 0x3e
 5096 0017 0B       		.uleb128 0xb
 5097 0018 03       		.uleb128 0x3
 5098 0019 08       		.uleb128 0x8
 5099 001a 00       		.byte	0
ARM GAS  /tmp/ccxbZr1V.s 			page 92


 5100 001b 00       		.byte	0
 5101 001c 03       		.uleb128 0x3
 5102 001d 16       		.uleb128 0x16
 5103 001e 00       		.byte	0
 5104 001f 03       		.uleb128 0x3
 5105 0020 0E       		.uleb128 0xe
 5106 0021 3A       		.uleb128 0x3a
 5107 0022 0B       		.uleb128 0xb
 5108 0023 3B       		.uleb128 0x3b
 5109 0024 0B       		.uleb128 0xb
 5110 0025 49       		.uleb128 0x49
 5111 0026 13       		.uleb128 0x13
 5112 0027 00       		.byte	0
 5113 0028 00       		.byte	0
 5114 0029 04       		.uleb128 0x4
 5115 002a 24       		.uleb128 0x24
 5116 002b 00       		.byte	0
 5117 002c 0B       		.uleb128 0xb
 5118 002d 0B       		.uleb128 0xb
 5119 002e 3E       		.uleb128 0x3e
 5120 002f 0B       		.uleb128 0xb
 5121 0030 03       		.uleb128 0x3
 5122 0031 0E       		.uleb128 0xe
 5123 0032 00       		.byte	0
 5124 0033 00       		.byte	0
 5125 0034 05       		.uleb128 0x5
 5126 0035 0F       		.uleb128 0xf
 5127 0036 00       		.byte	0
 5128 0037 0B       		.uleb128 0xb
 5129 0038 0B       		.uleb128 0xb
 5130 0039 00       		.byte	0
 5131 003a 00       		.byte	0
 5132 003b 06       		.uleb128 0x6
 5133 003c 0F       		.uleb128 0xf
 5134 003d 00       		.byte	0
 5135 003e 0B       		.uleb128 0xb
 5136 003f 0B       		.uleb128 0xb
 5137 0040 49       		.uleb128 0x49
 5138 0041 13       		.uleb128 0x13
 5139 0042 00       		.byte	0
 5140 0043 00       		.byte	0
 5141 0044 07       		.uleb128 0x7
 5142 0045 26       		.uleb128 0x26
 5143 0046 00       		.byte	0
 5144 0047 49       		.uleb128 0x49
 5145 0048 13       		.uleb128 0x13
 5146 0049 00       		.byte	0
 5147 004a 00       		.byte	0
 5148 004b 08       		.uleb128 0x8
 5149 004c 13       		.uleb128 0x13
 5150 004d 01       		.byte	0x1
 5151 004e 03       		.uleb128 0x3
 5152 004f 0E       		.uleb128 0xe
 5153 0050 0B       		.uleb128 0xb
 5154 0051 0B       		.uleb128 0xb
 5155 0052 3A       		.uleb128 0x3a
 5156 0053 0B       		.uleb128 0xb
ARM GAS  /tmp/ccxbZr1V.s 			page 93


 5157 0054 3B       		.uleb128 0x3b
 5158 0055 0B       		.uleb128 0xb
 5159 0056 01       		.uleb128 0x1
 5160 0057 13       		.uleb128 0x13
 5161 0058 00       		.byte	0
 5162 0059 00       		.byte	0
 5163 005a 09       		.uleb128 0x9
 5164 005b 0D       		.uleb128 0xd
 5165 005c 00       		.byte	0
 5166 005d 03       		.uleb128 0x3
 5167 005e 0E       		.uleb128 0xe
 5168 005f 3A       		.uleb128 0x3a
 5169 0060 0B       		.uleb128 0xb
 5170 0061 3B       		.uleb128 0x3b
 5171 0062 0B       		.uleb128 0xb
 5172 0063 49       		.uleb128 0x49
 5173 0064 13       		.uleb128 0x13
 5174 0065 38       		.uleb128 0x38
 5175 0066 0B       		.uleb128 0xb
 5176 0067 00       		.byte	0
 5177 0068 00       		.byte	0
 5178 0069 0A       		.uleb128 0xa
 5179 006a 0D       		.uleb128 0xd
 5180 006b 00       		.byte	0
 5181 006c 03       		.uleb128 0x3
 5182 006d 08       		.uleb128 0x8
 5183 006e 3A       		.uleb128 0x3a
 5184 006f 0B       		.uleb128 0xb
 5185 0070 3B       		.uleb128 0x3b
 5186 0071 0B       		.uleb128 0xb
 5187 0072 49       		.uleb128 0x49
 5188 0073 13       		.uleb128 0x13
 5189 0074 38       		.uleb128 0x38
 5190 0075 0B       		.uleb128 0xb
 5191 0076 00       		.byte	0
 5192 0077 00       		.byte	0
 5193 0078 0B       		.uleb128 0xb
 5194 0079 13       		.uleb128 0x13
 5195 007a 01       		.byte	0x1
 5196 007b 0B       		.uleb128 0xb
 5197 007c 0B       		.uleb128 0xb
 5198 007d 3A       		.uleb128 0x3a
 5199 007e 0B       		.uleb128 0xb
 5200 007f 3B       		.uleb128 0x3b
 5201 0080 0B       		.uleb128 0xb
 5202 0081 01       		.uleb128 0x1
 5203 0082 13       		.uleb128 0x13
 5204 0083 00       		.byte	0
 5205 0084 00       		.byte	0
 5206 0085 0C       		.uleb128 0xc
 5207 0086 13       		.uleb128 0x13
 5208 0087 01       		.byte	0x1
 5209 0088 03       		.uleb128 0x3
 5210 0089 0E       		.uleb128 0xe
 5211 008a 0B       		.uleb128 0xb
 5212 008b 0B       		.uleb128 0xb
 5213 008c 3A       		.uleb128 0x3a
ARM GAS  /tmp/ccxbZr1V.s 			page 94


 5214 008d 0B       		.uleb128 0xb
 5215 008e 3B       		.uleb128 0x3b
 5216 008f 05       		.uleb128 0x5
 5217 0090 01       		.uleb128 0x1
 5218 0091 13       		.uleb128 0x13
 5219 0092 00       		.byte	0
 5220 0093 00       		.byte	0
 5221 0094 0D       		.uleb128 0xd
 5222 0095 0D       		.uleb128 0xd
 5223 0096 00       		.byte	0
 5224 0097 03       		.uleb128 0x3
 5225 0098 08       		.uleb128 0x8
 5226 0099 3A       		.uleb128 0x3a
 5227 009a 0B       		.uleb128 0xb
 5228 009b 3B       		.uleb128 0x3b
 5229 009c 05       		.uleb128 0x5
 5230 009d 49       		.uleb128 0x49
 5231 009e 13       		.uleb128 0x13
 5232 009f 38       		.uleb128 0x38
 5233 00a0 0B       		.uleb128 0xb
 5234 00a1 00       		.byte	0
 5235 00a2 00       		.byte	0
 5236 00a3 0E       		.uleb128 0xe
 5237 00a4 35       		.uleb128 0x35
 5238 00a5 00       		.byte	0
 5239 00a6 49       		.uleb128 0x49
 5240 00a7 13       		.uleb128 0x13
 5241 00a8 00       		.byte	0
 5242 00a9 00       		.byte	0
 5243 00aa 0F       		.uleb128 0xf
 5244 00ab 17       		.uleb128 0x17
 5245 00ac 01       		.byte	0x1
 5246 00ad 0B       		.uleb128 0xb
 5247 00ae 0B       		.uleb128 0xb
 5248 00af 3A       		.uleb128 0x3a
 5249 00b0 0B       		.uleb128 0xb
 5250 00b1 3B       		.uleb128 0x3b
 5251 00b2 0B       		.uleb128 0xb
 5252 00b3 01       		.uleb128 0x1
 5253 00b4 13       		.uleb128 0x13
 5254 00b5 00       		.byte	0
 5255 00b6 00       		.byte	0
 5256 00b7 10       		.uleb128 0x10
 5257 00b8 0D       		.uleb128 0xd
 5258 00b9 00       		.byte	0
 5259 00ba 03       		.uleb128 0x3
 5260 00bb 0E       		.uleb128 0xe
 5261 00bc 3A       		.uleb128 0x3a
 5262 00bd 0B       		.uleb128 0xb
 5263 00be 3B       		.uleb128 0x3b
 5264 00bf 0B       		.uleb128 0xb
 5265 00c0 49       		.uleb128 0x49
 5266 00c1 13       		.uleb128 0x13
 5267 00c2 00       		.byte	0
 5268 00c3 00       		.byte	0
 5269 00c4 11       		.uleb128 0x11
 5270 00c5 01       		.uleb128 0x1
ARM GAS  /tmp/ccxbZr1V.s 			page 95


 5271 00c6 01       		.byte	0x1
 5272 00c7 49       		.uleb128 0x49
 5273 00c8 13       		.uleb128 0x13
 5274 00c9 01       		.uleb128 0x1
 5275 00ca 13       		.uleb128 0x13
 5276 00cb 00       		.byte	0
 5277 00cc 00       		.byte	0
 5278 00cd 12       		.uleb128 0x12
 5279 00ce 21       		.uleb128 0x21
 5280 00cf 00       		.byte	0
 5281 00d0 49       		.uleb128 0x49
 5282 00d1 13       		.uleb128 0x13
 5283 00d2 2F       		.uleb128 0x2f
 5284 00d3 0B       		.uleb128 0xb
 5285 00d4 00       		.byte	0
 5286 00d5 00       		.byte	0
 5287 00d6 13       		.uleb128 0x13
 5288 00d7 13       		.uleb128 0x13
 5289 00d8 01       		.byte	0x1
 5290 00d9 0B       		.uleb128 0xb
 5291 00da 0B       		.uleb128 0xb
 5292 00db 3A       		.uleb128 0x3a
 5293 00dc 0B       		.uleb128 0xb
 5294 00dd 3B       		.uleb128 0x3b
 5295 00de 05       		.uleb128 0x5
 5296 00df 01       		.uleb128 0x1
 5297 00e0 13       		.uleb128 0x13
 5298 00e1 00       		.byte	0
 5299 00e2 00       		.byte	0
 5300 00e3 14       		.uleb128 0x14
 5301 00e4 0D       		.uleb128 0xd
 5302 00e5 00       		.byte	0
 5303 00e6 03       		.uleb128 0x3
 5304 00e7 0E       		.uleb128 0xe
 5305 00e8 3A       		.uleb128 0x3a
 5306 00e9 0B       		.uleb128 0xb
 5307 00ea 3B       		.uleb128 0x3b
 5308 00eb 05       		.uleb128 0x5
 5309 00ec 49       		.uleb128 0x49
 5310 00ed 13       		.uleb128 0x13
 5311 00ee 38       		.uleb128 0x38
 5312 00ef 0B       		.uleb128 0xb
 5313 00f0 00       		.byte	0
 5314 00f1 00       		.byte	0
 5315 00f2 15       		.uleb128 0x15
 5316 00f3 16       		.uleb128 0x16
 5317 00f4 00       		.byte	0
 5318 00f5 03       		.uleb128 0x3
 5319 00f6 0E       		.uleb128 0xe
 5320 00f7 3A       		.uleb128 0x3a
 5321 00f8 0B       		.uleb128 0xb
 5322 00f9 3B       		.uleb128 0x3b
 5323 00fa 05       		.uleb128 0x5
 5324 00fb 49       		.uleb128 0x49
 5325 00fc 13       		.uleb128 0x13
 5326 00fd 00       		.byte	0
 5327 00fe 00       		.byte	0
ARM GAS  /tmp/ccxbZr1V.s 			page 96


 5328 00ff 16       		.uleb128 0x16
 5329 0100 04       		.uleb128 0x4
 5330 0101 01       		.byte	0x1
 5331 0102 0B       		.uleb128 0xb
 5332 0103 0B       		.uleb128 0xb
 5333 0104 3A       		.uleb128 0x3a
 5334 0105 0B       		.uleb128 0xb
 5335 0106 3B       		.uleb128 0x3b
 5336 0107 0B       		.uleb128 0xb
 5337 0108 01       		.uleb128 0x1
 5338 0109 13       		.uleb128 0x13
 5339 010a 00       		.byte	0
 5340 010b 00       		.byte	0
 5341 010c 17       		.uleb128 0x17
 5342 010d 28       		.uleb128 0x28
 5343 010e 00       		.byte	0
 5344 010f 03       		.uleb128 0x3
 5345 0110 0E       		.uleb128 0xe
 5346 0111 1C       		.uleb128 0x1c
 5347 0112 0D       		.uleb128 0xd
 5348 0113 00       		.byte	0
 5349 0114 00       		.byte	0
 5350 0115 18       		.uleb128 0x18
 5351 0116 15       		.uleb128 0x15
 5352 0117 01       		.byte	0x1
 5353 0118 27       		.uleb128 0x27
 5354 0119 19       		.uleb128 0x19
 5355 011a 49       		.uleb128 0x49
 5356 011b 13       		.uleb128 0x13
 5357 011c 01       		.uleb128 0x1
 5358 011d 13       		.uleb128 0x13
 5359 011e 00       		.byte	0
 5360 011f 00       		.byte	0
 5361 0120 19       		.uleb128 0x19
 5362 0121 05       		.uleb128 0x5
 5363 0122 00       		.byte	0
 5364 0123 49       		.uleb128 0x49
 5365 0124 13       		.uleb128 0x13
 5366 0125 00       		.byte	0
 5367 0126 00       		.byte	0
 5368 0127 1A       		.uleb128 0x1a
 5369 0128 0D       		.uleb128 0xd
 5370 0129 00       		.byte	0
 5371 012a 03       		.uleb128 0x3
 5372 012b 08       		.uleb128 0x8
 5373 012c 3A       		.uleb128 0x3a
 5374 012d 0B       		.uleb128 0xb
 5375 012e 3B       		.uleb128 0x3b
 5376 012f 0B       		.uleb128 0xb
 5377 0130 49       		.uleb128 0x49
 5378 0131 13       		.uleb128 0x13
 5379 0132 00       		.byte	0
 5380 0133 00       		.byte	0
 5381 0134 1B       		.uleb128 0x1b
 5382 0135 15       		.uleb128 0x15
 5383 0136 01       		.byte	0x1
 5384 0137 27       		.uleb128 0x27
ARM GAS  /tmp/ccxbZr1V.s 			page 97


 5385 0138 19       		.uleb128 0x19
 5386 0139 01       		.uleb128 0x1
 5387 013a 13       		.uleb128 0x13
 5388 013b 00       		.byte	0
 5389 013c 00       		.byte	0
 5390 013d 1C       		.uleb128 0x1c
 5391 013e 2E       		.uleb128 0x2e
 5392 013f 01       		.byte	0x1
 5393 0140 03       		.uleb128 0x3
 5394 0141 0E       		.uleb128 0xe
 5395 0142 3A       		.uleb128 0x3a
 5396 0143 0B       		.uleb128 0xb
 5397 0144 3B       		.uleb128 0x3b
 5398 0145 0B       		.uleb128 0xb
 5399 0146 27       		.uleb128 0x27
 5400 0147 19       		.uleb128 0x19
 5401 0148 49       		.uleb128 0x49
 5402 0149 13       		.uleb128 0x13
 5403 014a 11       		.uleb128 0x11
 5404 014b 01       		.uleb128 0x1
 5405 014c 12       		.uleb128 0x12
 5406 014d 06       		.uleb128 0x6
 5407 014e 40       		.uleb128 0x40
 5408 014f 18       		.uleb128 0x18
 5409 0150 9642     		.uleb128 0x2116
 5410 0152 19       		.uleb128 0x19
 5411 0153 01       		.uleb128 0x1
 5412 0154 13       		.uleb128 0x13
 5413 0155 00       		.byte	0
 5414 0156 00       		.byte	0
 5415 0157 1D       		.uleb128 0x1d
 5416 0158 05       		.uleb128 0x5
 5417 0159 00       		.byte	0
 5418 015a 03       		.uleb128 0x3
 5419 015b 0E       		.uleb128 0xe
 5420 015c 3A       		.uleb128 0x3a
 5421 015d 0B       		.uleb128 0xb
 5422 015e 3B       		.uleb128 0x3b
 5423 015f 0B       		.uleb128 0xb
 5424 0160 49       		.uleb128 0x49
 5425 0161 13       		.uleb128 0x13
 5426 0162 02       		.uleb128 0x2
 5427 0163 18       		.uleb128 0x18
 5428 0164 00       		.byte	0
 5429 0165 00       		.byte	0
 5430 0166 1E       		.uleb128 0x1e
 5431 0167 05       		.uleb128 0x5
 5432 0168 00       		.byte	0
 5433 0169 03       		.uleb128 0x3
 5434 016a 08       		.uleb128 0x8
 5435 016b 3A       		.uleb128 0x3a
 5436 016c 0B       		.uleb128 0xb
 5437 016d 3B       		.uleb128 0x3b
 5438 016e 0B       		.uleb128 0xb
 5439 016f 49       		.uleb128 0x49
 5440 0170 13       		.uleb128 0x13
 5441 0171 02       		.uleb128 0x2
ARM GAS  /tmp/ccxbZr1V.s 			page 98


 5442 0172 18       		.uleb128 0x18
 5443 0173 00       		.byte	0
 5444 0174 00       		.byte	0
 5445 0175 1F       		.uleb128 0x1f
 5446 0176 2E       		.uleb128 0x2e
 5447 0177 01       		.byte	0x1
 5448 0178 03       		.uleb128 0x3
 5449 0179 0E       		.uleb128 0xe
 5450 017a 3A       		.uleb128 0x3a
 5451 017b 0B       		.uleb128 0xb
 5452 017c 3B       		.uleb128 0x3b
 5453 017d 0B       		.uleb128 0xb
 5454 017e 27       		.uleb128 0x27
 5455 017f 19       		.uleb128 0x19
 5456 0180 49       		.uleb128 0x49
 5457 0181 13       		.uleb128 0x13
 5458 0182 11       		.uleb128 0x11
 5459 0183 01       		.uleb128 0x1
 5460 0184 12       		.uleb128 0x12
 5461 0185 06       		.uleb128 0x6
 5462 0186 40       		.uleb128 0x40
 5463 0187 18       		.uleb128 0x18
 5464 0188 9742     		.uleb128 0x2117
 5465 018a 19       		.uleb128 0x19
 5466 018b 01       		.uleb128 0x1
 5467 018c 13       		.uleb128 0x13
 5468 018d 00       		.byte	0
 5469 018e 00       		.byte	0
 5470 018f 20       		.uleb128 0x20
 5471 0190 2E       		.uleb128 0x2e
 5472 0191 01       		.byte	0x1
 5473 0192 03       		.uleb128 0x3
 5474 0193 0E       		.uleb128 0xe
 5475 0194 3A       		.uleb128 0x3a
 5476 0195 0B       		.uleb128 0xb
 5477 0196 3B       		.uleb128 0x3b
 5478 0197 0B       		.uleb128 0xb
 5479 0198 27       		.uleb128 0x27
 5480 0199 19       		.uleb128 0x19
 5481 019a 11       		.uleb128 0x11
 5482 019b 01       		.uleb128 0x1
 5483 019c 12       		.uleb128 0x12
 5484 019d 06       		.uleb128 0x6
 5485 019e 40       		.uleb128 0x40
 5486 019f 18       		.uleb128 0x18
 5487 01a0 9642     		.uleb128 0x2116
 5488 01a2 19       		.uleb128 0x19
 5489 01a3 01       		.uleb128 0x1
 5490 01a4 13       		.uleb128 0x13
 5491 01a5 00       		.byte	0
 5492 01a6 00       		.byte	0
 5493 01a7 21       		.uleb128 0x21
 5494 01a8 34       		.uleb128 0x34
 5495 01a9 00       		.byte	0
 5496 01aa 03       		.uleb128 0x3
 5497 01ab 08       		.uleb128 0x8
 5498 01ac 3A       		.uleb128 0x3a
ARM GAS  /tmp/ccxbZr1V.s 			page 99


 5499 01ad 0B       		.uleb128 0xb
 5500 01ae 3B       		.uleb128 0x3b
 5501 01af 0B       		.uleb128 0xb
 5502 01b0 49       		.uleb128 0x49
 5503 01b1 13       		.uleb128 0x13
 5504 01b2 02       		.uleb128 0x2
 5505 01b3 18       		.uleb128 0x18
 5506 01b4 00       		.byte	0
 5507 01b5 00       		.byte	0
 5508 01b6 22       		.uleb128 0x22
 5509 01b7 2E       		.uleb128 0x2e
 5510 01b8 01       		.byte	0x1
 5511 01b9 03       		.uleb128 0x3
 5512 01ba 0E       		.uleb128 0xe
 5513 01bb 3A       		.uleb128 0x3a
 5514 01bc 0B       		.uleb128 0xb
 5515 01bd 3B       		.uleb128 0x3b
 5516 01be 05       		.uleb128 0x5
 5517 01bf 27       		.uleb128 0x27
 5518 01c0 19       		.uleb128 0x19
 5519 01c1 49       		.uleb128 0x49
 5520 01c2 13       		.uleb128 0x13
 5521 01c3 11       		.uleb128 0x11
 5522 01c4 01       		.uleb128 0x1
 5523 01c5 12       		.uleb128 0x12
 5524 01c6 06       		.uleb128 0x6
 5525 01c7 40       		.uleb128 0x40
 5526 01c8 18       		.uleb128 0x18
 5527 01c9 9642     		.uleb128 0x2116
 5528 01cb 19       		.uleb128 0x19
 5529 01cc 01       		.uleb128 0x1
 5530 01cd 13       		.uleb128 0x13
 5531 01ce 00       		.byte	0
 5532 01cf 00       		.byte	0
 5533 01d0 23       		.uleb128 0x23
 5534 01d1 05       		.uleb128 0x5
 5535 01d2 00       		.byte	0
 5536 01d3 03       		.uleb128 0x3
 5537 01d4 0E       		.uleb128 0xe
 5538 01d5 3A       		.uleb128 0x3a
 5539 01d6 0B       		.uleb128 0xb
 5540 01d7 3B       		.uleb128 0x3b
 5541 01d8 05       		.uleb128 0x5
 5542 01d9 49       		.uleb128 0x49
 5543 01da 13       		.uleb128 0x13
 5544 01db 02       		.uleb128 0x2
 5545 01dc 18       		.uleb128 0x18
 5546 01dd 00       		.byte	0
 5547 01de 00       		.byte	0
 5548 01df 24       		.uleb128 0x24
 5549 01e0 05       		.uleb128 0x5
 5550 01e1 00       		.byte	0
 5551 01e2 03       		.uleb128 0x3
 5552 01e3 08       		.uleb128 0x8
 5553 01e4 3A       		.uleb128 0x3a
 5554 01e5 0B       		.uleb128 0xb
 5555 01e6 3B       		.uleb128 0x3b
ARM GAS  /tmp/ccxbZr1V.s 			page 100


 5556 01e7 05       		.uleb128 0x5
 5557 01e8 49       		.uleb128 0x49
 5558 01e9 13       		.uleb128 0x13
 5559 01ea 02       		.uleb128 0x2
 5560 01eb 18       		.uleb128 0x18
 5561 01ec 00       		.byte	0
 5562 01ed 00       		.byte	0
 5563 01ee 25       		.uleb128 0x25
 5564 01ef 34       		.uleb128 0x34
 5565 01f0 00       		.byte	0
 5566 01f1 03       		.uleb128 0x3
 5567 01f2 08       		.uleb128 0x8
 5568 01f3 3A       		.uleb128 0x3a
 5569 01f4 0B       		.uleb128 0xb
 5570 01f5 3B       		.uleb128 0x3b
 5571 01f6 05       		.uleb128 0x5
 5572 01f7 49       		.uleb128 0x49
 5573 01f8 13       		.uleb128 0x13
 5574 01f9 02       		.uleb128 0x2
 5575 01fa 18       		.uleb128 0x18
 5576 01fb 00       		.byte	0
 5577 01fc 00       		.byte	0
 5578 01fd 26       		.uleb128 0x26
 5579 01fe 0B       		.uleb128 0xb
 5580 01ff 01       		.byte	0x1
 5581 0200 11       		.uleb128 0x11
 5582 0201 01       		.uleb128 0x1
 5583 0202 12       		.uleb128 0x12
 5584 0203 06       		.uleb128 0x6
 5585 0204 00       		.byte	0
 5586 0205 00       		.byte	0
 5587 0206 27       		.uleb128 0x27
 5588 0207 2E       		.uleb128 0x2e
 5589 0208 01       		.byte	0x1
 5590 0209 03       		.uleb128 0x3
 5591 020a 0E       		.uleb128 0xe
 5592 020b 3A       		.uleb128 0x3a
 5593 020c 0B       		.uleb128 0xb
 5594 020d 3B       		.uleb128 0x3b
 5595 020e 05       		.uleb128 0x5
 5596 020f 27       		.uleb128 0x27
 5597 0210 19       		.uleb128 0x19
 5598 0211 11       		.uleb128 0x11
 5599 0212 01       		.uleb128 0x1
 5600 0213 12       		.uleb128 0x12
 5601 0214 06       		.uleb128 0x6
 5602 0215 40       		.uleb128 0x40
 5603 0216 18       		.uleb128 0x18
 5604 0217 9642     		.uleb128 0x2116
 5605 0219 19       		.uleb128 0x19
 5606 021a 01       		.uleb128 0x1
 5607 021b 13       		.uleb128 0x13
 5608 021c 00       		.byte	0
 5609 021d 00       		.byte	0
 5610 021e 28       		.uleb128 0x28
 5611 021f 2E       		.uleb128 0x2e
 5612 0220 00       		.byte	0
ARM GAS  /tmp/ccxbZr1V.s 			page 101


 5613 0221 3F       		.uleb128 0x3f
 5614 0222 19       		.uleb128 0x19
 5615 0223 03       		.uleb128 0x3
 5616 0224 0E       		.uleb128 0xe
 5617 0225 3A       		.uleb128 0x3a
 5618 0226 0B       		.uleb128 0xb
 5619 0227 3B       		.uleb128 0x3b
 5620 0228 05       		.uleb128 0x5
 5621 0229 27       		.uleb128 0x27
 5622 022a 19       		.uleb128 0x19
 5623 022b 11       		.uleb128 0x11
 5624 022c 01       		.uleb128 0x1
 5625 022d 12       		.uleb128 0x12
 5626 022e 06       		.uleb128 0x6
 5627 022f 40       		.uleb128 0x40
 5628 0230 18       		.uleb128 0x18
 5629 0231 9742     		.uleb128 0x2117
 5630 0233 19       		.uleb128 0x19
 5631 0234 00       		.byte	0
 5632 0235 00       		.byte	0
 5633 0236 29       		.uleb128 0x29
 5634 0237 2E       		.uleb128 0x2e
 5635 0238 01       		.byte	0x1
 5636 0239 3F       		.uleb128 0x3f
 5637 023a 19       		.uleb128 0x19
 5638 023b 03       		.uleb128 0x3
 5639 023c 0E       		.uleb128 0xe
 5640 023d 3A       		.uleb128 0x3a
 5641 023e 0B       		.uleb128 0xb
 5642 023f 3B       		.uleb128 0x3b
 5643 0240 05       		.uleb128 0x5
 5644 0241 27       		.uleb128 0x27
 5645 0242 19       		.uleb128 0x19
 5646 0243 11       		.uleb128 0x11
 5647 0244 01       		.uleb128 0x1
 5648 0245 12       		.uleb128 0x12
 5649 0246 06       		.uleb128 0x6
 5650 0247 40       		.uleb128 0x40
 5651 0248 18       		.uleb128 0x18
 5652 0249 9742     		.uleb128 0x2117
 5653 024b 19       		.uleb128 0x19
 5654 024c 01       		.uleb128 0x1
 5655 024d 13       		.uleb128 0x13
 5656 024e 00       		.byte	0
 5657 024f 00       		.byte	0
 5658 0250 2A       		.uleb128 0x2a
 5659 0251 2E       		.uleb128 0x2e
 5660 0252 01       		.byte	0x1
 5661 0253 3F       		.uleb128 0x3f
 5662 0254 19       		.uleb128 0x19
 5663 0255 03       		.uleb128 0x3
 5664 0256 0E       		.uleb128 0xe
 5665 0257 3A       		.uleb128 0x3a
 5666 0258 0B       		.uleb128 0xb
 5667 0259 3B       		.uleb128 0x3b
 5668 025a 05       		.uleb128 0x5
 5669 025b 27       		.uleb128 0x27
ARM GAS  /tmp/ccxbZr1V.s 			page 102


 5670 025c 19       		.uleb128 0x19
 5671 025d 11       		.uleb128 0x11
 5672 025e 01       		.uleb128 0x1
 5673 025f 12       		.uleb128 0x12
 5674 0260 06       		.uleb128 0x6
 5675 0261 40       		.uleb128 0x40
 5676 0262 18       		.uleb128 0x18
 5677 0263 9642     		.uleb128 0x2116
 5678 0265 19       		.uleb128 0x19
 5679 0266 01       		.uleb128 0x1
 5680 0267 13       		.uleb128 0x13
 5681 0268 00       		.byte	0
 5682 0269 00       		.byte	0
 5683 026a 2B       		.uleb128 0x2b
 5684 026b 2E       		.uleb128 0x2e
 5685 026c 01       		.byte	0x1
 5686 026d 3F       		.uleb128 0x3f
 5687 026e 19       		.uleb128 0x19
 5688 026f 03       		.uleb128 0x3
 5689 0270 0E       		.uleb128 0xe
 5690 0271 3A       		.uleb128 0x3a
 5691 0272 0B       		.uleb128 0xb
 5692 0273 3B       		.uleb128 0x3b
 5693 0274 05       		.uleb128 0x5
 5694 0275 27       		.uleb128 0x27
 5695 0276 19       		.uleb128 0x19
 5696 0277 49       		.uleb128 0x49
 5697 0278 13       		.uleb128 0x13
 5698 0279 11       		.uleb128 0x11
 5699 027a 01       		.uleb128 0x1
 5700 027b 12       		.uleb128 0x12
 5701 027c 06       		.uleb128 0x6
 5702 027d 40       		.uleb128 0x40
 5703 027e 18       		.uleb128 0x18
 5704 027f 9642     		.uleb128 0x2116
 5705 0281 19       		.uleb128 0x19
 5706 0282 01       		.uleb128 0x1
 5707 0283 13       		.uleb128 0x13
 5708 0284 00       		.byte	0
 5709 0285 00       		.byte	0
 5710 0286 2C       		.uleb128 0x2c
 5711 0287 0A       		.uleb128 0xa
 5712 0288 00       		.byte	0
 5713 0289 03       		.uleb128 0x3
 5714 028a 0E       		.uleb128 0xe
 5715 028b 3A       		.uleb128 0x3a
 5716 028c 0B       		.uleb128 0xb
 5717 028d 3B       		.uleb128 0x3b
 5718 028e 05       		.uleb128 0x5
 5719 028f 11       		.uleb128 0x11
 5720 0290 01       		.uleb128 0x1
 5721 0291 00       		.byte	0
 5722 0292 00       		.byte	0
 5723 0293 2D       		.uleb128 0x2d
 5724 0294 0B       		.uleb128 0xb
 5725 0295 01       		.byte	0x1
 5726 0296 55       		.uleb128 0x55
ARM GAS  /tmp/ccxbZr1V.s 			page 103


 5727 0297 17       		.uleb128 0x17
 5728 0298 00       		.byte	0
 5729 0299 00       		.byte	0
 5730 029a 2E       		.uleb128 0x2e
 5731 029b 0B       		.uleb128 0xb
 5732 029c 01       		.byte	0x1
 5733 029d 11       		.uleb128 0x11
 5734 029e 01       		.uleb128 0x1
 5735 029f 12       		.uleb128 0x12
 5736 02a0 06       		.uleb128 0x6
 5737 02a1 01       		.uleb128 0x1
 5738 02a2 13       		.uleb128 0x13
 5739 02a3 00       		.byte	0
 5740 02a4 00       		.byte	0
 5741 02a5 2F       		.uleb128 0x2f
 5742 02a6 34       		.uleb128 0x34
 5743 02a7 00       		.byte	0
 5744 02a8 03       		.uleb128 0x3
 5745 02a9 0E       		.uleb128 0xe
 5746 02aa 3A       		.uleb128 0x3a
 5747 02ab 0B       		.uleb128 0xb
 5748 02ac 3B       		.uleb128 0x3b
 5749 02ad 05       		.uleb128 0x5
 5750 02ae 49       		.uleb128 0x49
 5751 02af 13       		.uleb128 0x13
 5752 02b0 02       		.uleb128 0x2
 5753 02b1 18       		.uleb128 0x18
 5754 02b2 00       		.byte	0
 5755 02b3 00       		.byte	0
 5756 02b4 30       		.uleb128 0x30
 5757 02b5 34       		.uleb128 0x34
 5758 02b6 00       		.byte	0
 5759 02b7 03       		.uleb128 0x3
 5760 02b8 0E       		.uleb128 0xe
 5761 02b9 3A       		.uleb128 0x3a
 5762 02ba 0B       		.uleb128 0xb
 5763 02bb 3B       		.uleb128 0x3b
 5764 02bc 0B       		.uleb128 0xb
 5765 02bd 49       		.uleb128 0x49
 5766 02be 13       		.uleb128 0x13
 5767 02bf 02       		.uleb128 0x2
 5768 02c0 18       		.uleb128 0x18
 5769 02c1 00       		.byte	0
 5770 02c2 00       		.byte	0
 5771 02c3 31       		.uleb128 0x31
 5772 02c4 34       		.uleb128 0x34
 5773 02c5 00       		.byte	0
 5774 02c6 03       		.uleb128 0x3
 5775 02c7 0E       		.uleb128 0xe
 5776 02c8 3A       		.uleb128 0x3a
 5777 02c9 0B       		.uleb128 0xb
 5778 02ca 3B       		.uleb128 0x3b
 5779 02cb 05       		.uleb128 0x5
 5780 02cc 49       		.uleb128 0x49
 5781 02cd 13       		.uleb128 0x13
 5782 02ce 3F       		.uleb128 0x3f
 5783 02cf 19       		.uleb128 0x19
ARM GAS  /tmp/ccxbZr1V.s 			page 104


 5784 02d0 3C       		.uleb128 0x3c
 5785 02d1 19       		.uleb128 0x19
 5786 02d2 00       		.byte	0
 5787 02d3 00       		.byte	0
 5788 02d4 00       		.byte	0
 5789              		.section	.debug_aranges,"",%progbits
 5790 0000 E4000000 		.4byte	0xe4
 5791 0004 0200     		.2byte	0x2
 5792 0006 00000000 		.4byte	.Ldebug_info0
 5793 000a 04       		.byte	0x4
 5794 000b 00       		.byte	0
 5795 000c 0000     		.2byte	0
 5796 000e 0000     		.2byte	0
 5797 0010 00000000 		.4byte	.LFB118
 5798 0014 60000000 		.4byte	.LFE118-.LFB118
 5799 0018 00000000 		.4byte	.LFB119
 5800 001c 60000000 		.4byte	.LFE119-.LFB119
 5801 0020 00000000 		.4byte	.LFB120
 5802 0024 40000000 		.4byte	.LFE120-.LFB120
 5803 0028 00000000 		.4byte	.LFB121
 5804 002c 5E000000 		.4byte	.LFE121-.LFB121
 5805 0030 00000000 		.4byte	.LFB122
 5806 0034 7E000000 		.4byte	.LFE122-.LFB122
 5807 0038 00000000 		.4byte	.LFB123
 5808 003c 42000000 		.4byte	.LFE123-.LFB123
 5809 0040 00000000 		.4byte	.LFB124
 5810 0044 30000000 		.4byte	.LFE124-.LFB124
 5811 0048 00000000 		.4byte	.LFB125
 5812 004c 4C000000 		.4byte	.LFE125-.LFB125
 5813 0050 00000000 		.4byte	.LFB126
 5814 0054 50000000 		.4byte	.LFE126-.LFB126
 5815 0058 00000000 		.4byte	.LFB127
 5816 005c F4000000 		.4byte	.LFE127-.LFB127
 5817 0060 00000000 		.4byte	.LFB128
 5818 0064 48000000 		.4byte	.LFE128-.LFB128
 5819 0068 00000000 		.4byte	.LFB129
 5820 006c 02000000 		.4byte	.LFE129-.LFB129
 5821 0070 00000000 		.4byte	.LFB130
 5822 0074 28000000 		.4byte	.LFE130-.LFB130
 5823 0078 00000000 		.4byte	.LFB131
 5824 007c 4C000000 		.4byte	.LFE131-.LFB131
 5825 0080 00000000 		.4byte	.LFB132
 5826 0084 48000000 		.4byte	.LFE132-.LFB132
 5827 0088 00000000 		.4byte	.LFB133
 5828 008c DC010000 		.4byte	.LFE133-.LFB133
 5829 0090 00000000 		.4byte	.LFB134
 5830 0094 98000000 		.4byte	.LFE134-.LFB134
 5831 0098 00000000 		.4byte	.LFB135
 5832 009c A0000000 		.4byte	.LFE135-.LFB135
 5833 00a0 00000000 		.4byte	.LFB136
 5834 00a4 A4000000 		.4byte	.LFE136-.LFB136
 5835 00a8 00000000 		.4byte	.LFB137
 5836 00ac 58000000 		.4byte	.LFE137-.LFB137
 5837 00b0 00000000 		.4byte	.LFB138
 5838 00b4 A0000000 		.4byte	.LFE138-.LFB138
 5839 00b8 00000000 		.4byte	.LFB139
 5840 00bc B0000000 		.4byte	.LFE139-.LFB139
ARM GAS  /tmp/ccxbZr1V.s 			page 105


 5841 00c0 00000000 		.4byte	.LFB140
 5842 00c4 54000000 		.4byte	.LFE140-.LFB140
 5843 00c8 00000000 		.4byte	.LFB141
 5844 00cc 54000000 		.4byte	.LFE141-.LFB141
 5845 00d0 00000000 		.4byte	.LFB142
 5846 00d4 44000000 		.4byte	.LFE142-.LFB142
 5847 00d8 00000000 		.4byte	.LFB143
 5848 00dc 98000000 		.4byte	.LFE143-.LFB143
 5849 00e0 00000000 		.4byte	0
 5850 00e4 00000000 		.4byte	0
 5851              		.section	.debug_ranges,"",%progbits
 5852              	.Ldebug_ranges0:
 5853 0000 FE000000 		.4byte	.LBB3
 5854 0004 18010000 		.4byte	.LBE3
 5855 0008 40010000 		.4byte	.LBB4
 5856 000c 5E010000 		.4byte	.LBE4
 5857 0010 00000000 		.4byte	0
 5858 0014 00000000 		.4byte	0
 5859 0018 00000000 		.4byte	.LFB118
 5860 001c 60000000 		.4byte	.LFE118
 5861 0020 00000000 		.4byte	.LFB119
 5862 0024 60000000 		.4byte	.LFE119
 5863 0028 00000000 		.4byte	.LFB120
 5864 002c 40000000 		.4byte	.LFE120
 5865 0030 00000000 		.4byte	.LFB121
 5866 0034 5E000000 		.4byte	.LFE121
 5867 0038 00000000 		.4byte	.LFB122
 5868 003c 7E000000 		.4byte	.LFE122
 5869 0040 00000000 		.4byte	.LFB123
 5870 0044 42000000 		.4byte	.LFE123
 5871 0048 00000000 		.4byte	.LFB124
 5872 004c 30000000 		.4byte	.LFE124
 5873 0050 00000000 		.4byte	.LFB125
 5874 0054 4C000000 		.4byte	.LFE125
 5875 0058 00000000 		.4byte	.LFB126
 5876 005c 50000000 		.4byte	.LFE126
 5877 0060 00000000 		.4byte	.LFB127
 5878 0064 F4000000 		.4byte	.LFE127
 5879 0068 00000000 		.4byte	.LFB128
 5880 006c 48000000 		.4byte	.LFE128
 5881 0070 00000000 		.4byte	.LFB129
 5882 0074 02000000 		.4byte	.LFE129
 5883 0078 00000000 		.4byte	.LFB130
 5884 007c 28000000 		.4byte	.LFE130
 5885 0080 00000000 		.4byte	.LFB131
 5886 0084 4C000000 		.4byte	.LFE131
 5887 0088 00000000 		.4byte	.LFB132
 5888 008c 48000000 		.4byte	.LFE132
 5889 0090 00000000 		.4byte	.LFB133
 5890 0094 DC010000 		.4byte	.LFE133
 5891 0098 00000000 		.4byte	.LFB134
 5892 009c 98000000 		.4byte	.LFE134
 5893 00a0 00000000 		.4byte	.LFB135
 5894 00a4 A0000000 		.4byte	.LFE135
 5895 00a8 00000000 		.4byte	.LFB136
 5896 00ac A4000000 		.4byte	.LFE136
 5897 00b0 00000000 		.4byte	.LFB137
ARM GAS  /tmp/ccxbZr1V.s 			page 106


 5898 00b4 58000000 		.4byte	.LFE137
 5899 00b8 00000000 		.4byte	.LFB138
 5900 00bc A0000000 		.4byte	.LFE138
 5901 00c0 00000000 		.4byte	.LFB139
 5902 00c4 B0000000 		.4byte	.LFE139
 5903 00c8 00000000 		.4byte	.LFB140
 5904 00cc 54000000 		.4byte	.LFE140
 5905 00d0 00000000 		.4byte	.LFB141
 5906 00d4 54000000 		.4byte	.LFE141
 5907 00d8 00000000 		.4byte	.LFB142
 5908 00dc 44000000 		.4byte	.LFE142
 5909 00e0 00000000 		.4byte	.LFB143
 5910 00e4 98000000 		.4byte	.LFE143
 5911 00e8 00000000 		.4byte	0
 5912 00ec 00000000 		.4byte	0
 5913              		.section	.debug_line,"",%progbits
 5914              	.Ldebug_line0:
 5915 0000 AD070000 		.section	.debug_str,"MS",%progbits,1
 5915      0200BA03 
 5915      00000201 
 5915      FB0E0D00 
 5915      01010101 
 5916              	.LASF104:
 5917 0000 426C6F63 		.ascii	"BlockDeviceInfo\000"
 5917      6B446576 
 5917      69636549 
 5917      6E666F00 
 5918              	.LASF127:
 5919 0010 646D6172 		.ascii	"dmarx\000"
 5919      7800
 5920              	.LASF26:
 5921 0016 74726566 		.ascii	"trefs_t\000"
 5921      735F7400 
 5922              	.LASF2:
 5923 001e 73697A65 		.ascii	"size_t\000"
 5923      5F7400
 5924              	.LASF103:
 5925 0025 626C6B5F 		.ascii	"blk_num\000"
 5925      6E756D00 
 5926              	.LASF63:
 5927 002d 7264796D 		.ascii	"rdymsg\000"
 5927      736700
 5928              	.LASF21:
 5929 0034 75696E74 		.ascii	"uint64_t\000"
 5929      36345F74 
 5929      00
 5930              	.LASF107:
 5931 003d 4F545950 		.ascii	"OTYPER\000"
 5931      455200
 5932              	.LASF3:
 5933 0044 5F5F7569 		.ascii	"__uint8_t\000"
 5933      6E74385F 
 5933      7400
 5934              	.LASF183:
 5935 004e 62646970 		.ascii	"bdip\000"
 5935      00
 5936              	.LASF153:
ARM GAS  /tmp/ccxbZr1V.s 			page 107


 5937 0053 73746172 		.ascii	"startblk\000"
 5937      74626C6B 
 5937      00
 5938              	.LASF149:
 5939 005c 63617061 		.ascii	"capacity\000"
 5939      63697479 
 5939      00
 5940              	.LASF90:
 5941 0065 76656374 		.ascii	"vector\000"
 5941      6F7200
 5942              	.LASF106:
 5943 006c 4D4F4445 		.ascii	"MODER\000"
 5943      5200
 5944              	.LASF14:
 5945 0072 6C6F6E67 		.ascii	"long long unsigned int\000"
 5945      206C6F6E 
 5945      6720756E 
 5945      7369676E 
 5945      65642069 
 5946              	.LASF109:
 5947 0089 50555044 		.ascii	"PUPDR\000"
 5947      5200
 5948              	.LASF64:
 5949 008f 65786974 		.ascii	"exitcode\000"
 5949      636F6465 
 5949      00
 5950              	.LASF173:
 5951 0098 6D6D6353 		.ascii	"mmcSequentialRead\000"
 5951      65717565 
 5951      6E746961 
 5951      6C526561 
 5951      6400
 5952              	.LASF122:
 5953 00aa 53504944 		.ascii	"SPIDriver\000"
 5953      72697665 
 5953      7200
 5954              	.LASF133:
 5955 00b4 7373706F 		.ascii	"ssport\000"
 5955      727400
 5956              	.LASF192:
 5957 00bb 49544D5F 		.ascii	"ITM_RxBuffer\000"
 5957      52784275 
 5957      66666572 
 5957      00
 5958              	.LASF101:
 5959 00c8 626C6B73 		.ascii	"blkstate_t\000"
 5959      74617465 
 5959      5F7400
 5960              	.LASF35:
 5961 00d3 705F7072 		.ascii	"p_prio\000"
 5961      696F00
 5962              	.LASF165:
 5963 00da 72657370 		.ascii	"response\000"
 5963      6F6E7365 
 5963      00
 5964              	.LASF152:
 5965 00e3 696E7374 		.ascii	"instance\000"
ARM GAS  /tmp/ccxbZr1V.s 			page 108


 5965      616E6365 
 5965      00
 5966              	.LASF12:
 5967 00ec 6C6F6E67 		.ascii	"long long int\000"
 5967      206C6F6E 
 5967      6720696E 
 5967      7400
 5968              	.LASF1:
 5969 00fa 7369676E 		.ascii	"signed char\000"
 5969      65642063 
 5969      68617200 
 5970              	.LASF141:
 5971 0106 69735F69 		.ascii	"is_inserted\000"
 5971      6E736572 
 5971      74656400 
 5972              	.LASF117:
 5973 0112 5350495F 		.ascii	"SPI_STOP\000"
 5973      53544F50 
 5973      00
 5974              	.LASF81:
 5975 011b 49325343 		.ascii	"I2SCFGR\000"
 5975      46475200 
 5976              	.LASF22:
 5977 0123 626F6F6C 		.ascii	"bool_t\000"
 5977      5F7400
 5978              	.LASF60:
 5979 012a 6D5F7175 		.ascii	"m_queue\000"
 5979      65756500 
 5980              	.LASF144:
 5981 0132 64697363 		.ascii	"disconnect\000"
 5981      6F6E6E65 
 5981      637400
 5982              	.LASF143:
 5983 013d 636F6E6E 		.ascii	"connect\000"
 5983      65637400 
 5984              	.LASF92:
 5985 0145 424C4B5F 		.ascii	"BLK_UNINIT\000"
 5985      554E494E 
 5985      495400
 5986              	.LASF134:
 5987 0150 73737061 		.ascii	"sspad\000"
 5987      6400
 5988              	.LASF123:
 5989 0156 73746174 		.ascii	"state\000"
 5989      6500
 5990              	.LASF9:
 5991 015c 6C6F6E67 		.ascii	"long int\000"
 5991      20696E74 
 5991      00
 5992              	.LASF167:
 5993 0165 6D6D634F 		.ascii	"mmcObjectInit\000"
 5993      626A6563 
 5993      74496E69 
 5993      7400
 5994              	.LASF25:
 5995 0173 74737461 		.ascii	"tstate_t\000"
 5995      74655F74 
ARM GAS  /tmp/ccxbZr1V.s 			page 109


 5995      00
 5996              	.LASF155:
 5997 017c 6D6D635F 		.ascii	"mmc_read\000"
 5997      72656164 
 5997      00
 5998              	.LASF37:
 5999 0185 705F6E65 		.ascii	"p_newer\000"
 5999      77657200 
 6000              	.LASF132:
 6001 018d 656E645F 		.ascii	"end_cb\000"
 6001      636200
 6002              	.LASF129:
 6003 0194 7278646D 		.ascii	"rxdmamode\000"
 6003      616D6F64 
 6003      6500
 6004              	.LASF148:
 6005 019e 6765745F 		.ascii	"get_info\000"
 6005      696E666F 
 6005      00
 6006              	.LASF128:
 6007 01a7 646D6174 		.ascii	"dmatx\000"
 6007      7800
 6008              	.LASF93:
 6009 01ad 424C4B5F 		.ascii	"BLK_STOP\000"
 6009      53544F50 
 6009      00
 6010              	.LASF108:
 6011 01b6 4F535045 		.ascii	"OSPEEDR\000"
 6011      45445200 
 6012              	.LASF10:
 6013 01be 5F5F7569 		.ascii	"__uint32_t\000"
 6013      6E743332 
 6013      5F7400
 6014              	.LASF52:
 6015 01c9 705F6D70 		.ascii	"p_mpool\000"
 6015      6F6F6C00 
 6016              	.LASF55:
 6017 01d1 72656761 		.ascii	"regarm_t\000"
 6017      726D5F74 
 6017      00
 6018              	.LASF89:
 6019 01da 73656C66 		.ascii	"selfindex\000"
 6019      696E6465 
 6019      7800
 6020              	.LASF190:
 6021 01e4 2F686F6D 		.ascii	"/home/ergae/r2p-sdk/core/ChibiOS/os/hal/src/mmc_spi"
 6021      652F6572 
 6021      6761652F 
 6021      7232702D 
 6021      73646B2F 
 6022 0217 2E6300   		.ascii	".c\000"
 6023              	.LASF86:
 6024 021a 6368616E 		.ascii	"channel\000"
 6024      6E656C00 
 6025              	.LASF131:
 6026 0222 73706963 		.ascii	"spicallback_t\000"
 6026      616C6C62 
ARM GAS  /tmp/ccxbZr1V.s 			page 110


 6026      61636B5F 
 6026      7400
 6027              	.LASF102:
 6028 0230 626C6B5F 		.ascii	"blk_size\000"
 6028      73697A65 
 6028      00
 6029              	.LASF27:
 6030 0239 74736C69 		.ascii	"tslices_t\000"
 6030      6365735F 
 6030      7400
 6031              	.LASF0:
 6032 0243 756E7369 		.ascii	"unsigned int\000"
 6032      676E6564 
 6032      20696E74 
 6032      00
 6033              	.LASF18:
 6034 0250 75696E74 		.ascii	"uint16_t\000"
 6034      31365F74 
 6034      00
 6035              	.LASF176:
 6036 0259 6D6D6353 		.ascii	"mmcStartSequentialWrite\000"
 6036      74617274 
 6036      53657175 
 6036      656E7469 
 6036      616C5772 
 6037              	.LASF140:
 6038 0271 4D4D4344 		.ascii	"MMCDriverVMT\000"
 6038      72697665 
 6038      72564D54 
 6038      00
 6039              	.LASF68:
 6040 027e 43504152 		.ascii	"CPAR\000"
 6040      00
 6041              	.LASF160:
 6042 0283 73656E64 		.ascii	"send_hdr\000"
 6042      5F686472 
 6042      00
 6043              	.LASF47:
 6044 028c 705F6D73 		.ascii	"p_msgqueue\000"
 6044      67717565 
 6044      756500
 6045              	.LASF114:
 6046 0297 4750494F 		.ascii	"GPIO_TypeDef\000"
 6046      5F547970 
 6046      65446566 
 6046      00
 6047              	.LASF111:
 6048 02a4 4C434B52 		.ascii	"LCKR\000"
 6048      00
 6049              	.LASF88:
 6050 02a9 69736869 		.ascii	"ishift\000"
 6050      667400
 6051              	.LASF7:
 6052 02b0 73686F72 		.ascii	"short unsigned int\000"
 6052      7420756E 
 6052      7369676E 
 6052      65642069 
ARM GAS  /tmp/ccxbZr1V.s 			page 111


 6052      6E7400
 6053              	.LASF94:
 6054 02c3 424C4B5F 		.ascii	"BLK_ACTIVE\000"
 6054      41435449 
 6054      564500
 6055              	.LASF83:
 6056 02ce 49325350 		.ascii	"I2SPR\000"
 6056      5200
 6057              	.LASF137:
 6058 02d4 6C736366 		.ascii	"lscfg\000"
 6058      6700
 6059              	.LASF150:
 6060 02da 626C6F63 		.ascii	"block_addresses\000"
 6060      6B5F6164 
 6060      64726573 
 6060      73657300 
 6061              	.LASF29:
 6062 02ea 6D73675F 		.ascii	"msg_t\000"
 6062      7400
 6063              	.LASF51:
 6064 02f0 705F7265 		.ascii	"p_realprio\000"
 6064      616C7072 
 6064      696F00
 6065              	.LASF95:
 6066 02fb 424C4B5F 		.ascii	"BLK_CONNECTING\000"
 6066      434F4E4E 
 6066      45435449 
 6066      4E4700
 6067              	.LASF24:
 6068 030a 746D6F64 		.ascii	"tmode_t\000"
 6068      655F7400 
 6069              	.LASF121:
 6070 0312 73706973 		.ascii	"spistate_t\000"
 6070      74617465 
 6070      5F7400
 6071              	.LASF136:
 6072 031d 73706970 		.ascii	"spip\000"
 6072      00
 6073              	.LASF184:
 6074 0322 6D6D6345 		.ascii	"mmcErase\000"
 6074      72617365 
 6074      00
 6075              	.LASF45:
 6076 032b 705F7469 		.ascii	"p_time\000"
 6076      6D6500
 6077              	.LASF54:
 6078 0332 54687265 		.ascii	"ThreadsList\000"
 6078      6164734C 
 6078      69737400 
 6079              	.LASF30:
 6080 033e 6576656E 		.ascii	"eventmask_t\000"
 6080      746D6173 
 6080      6B5F7400 
 6081              	.LASF161:
 6082 034a 72656376 		.ascii	"recvr1\000"
 6082      723100
 6083              	.LASF8:
ARM GAS  /tmp/ccxbZr1V.s 			page 112


 6084 0351 5F5F696E 		.ascii	"__int32_t\000"
 6084      7433325F 
 6084      7400
 6085              	.LASF162:
 6086 035b 72656376 		.ascii	"recvr3\000"
 6086      723300
 6087              	.LASF56:
 6088 0362 73746B61 		.ascii	"stkalign_t\000"
 6088      6C69676E 
 6088      5F7400
 6089              	.LASF168:
 6090 036d 6D6D6353 		.ascii	"mmcStart\000"
 6090      74617274 
 6090      00
 6091              	.LASF32:
 6092 0376 54687265 		.ascii	"Thread\000"
 6092      616400
 6093              	.LASF146:
 6094 037d 77726974 		.ascii	"write\000"
 6094      6500
 6095              	.LASF188:
 6096 0383 63726337 		.ascii	"crc7_lookup_table\000"
 6096      5F6C6F6F 
 6096      6B75705F 
 6096      7461626C 
 6096      6500
 6097              	.LASF98:
 6098 0395 424C4B5F 		.ascii	"BLK_READING\000"
 6098      52454144 
 6098      494E4700 
 6099              	.LASF182:
 6100 03a1 6D6D6347 		.ascii	"mmcGetInfo\000"
 6100      6574496E 
 6100      666F00
 6101              	.LASF15:
 6102 03ac 73697A65 		.ascii	"sizetype\000"
 6102      74797065 
 6102      00
 6103              	.LASF105:
 6104 03b5 636C6561 		.ascii	"clear\000"
 6104      7200
 6105              	.LASF119:
 6106 03bb 5350495F 		.ascii	"SPI_ACTIVE\000"
 6106      41435449 
 6106      564500
 6107              	.LASF59:
 6108 03c6 4D757465 		.ascii	"Mutex\000"
 6108      7800
 6109              	.LASF175:
 6110 03cc 73746F70 		.ascii	"stopcmd\000"
 6110      636D6400 
 6111              	.LASF169:
 6112 03d4 6D6D6353 		.ascii	"mmcStop\000"
 6112      746F7000 
 6113              	.LASF38:
 6114 03dc 705F6F6C 		.ascii	"p_older\000"
 6114      64657200 
ARM GAS  /tmp/ccxbZr1V.s 			page 113


 6115              	.LASF100:
 6116 03e4 424C4B5F 		.ascii	"BLK_SYNCING\000"
 6116      53594E43 
 6116      494E4700 
 6117              	.LASF172:
 6118 03f0 6D6D6353 		.ascii	"mmcStartSequentialRead\000"
 6118      74617274 
 6118      53657175 
 6118      656E7469 
 6118      616C5265 
 6119              	.LASF97:
 6120 0407 424C4B5F 		.ascii	"BLK_READY\000"
 6120      52454144 
 6120      5900
 6121              	.LASF53:
 6122 0411 54687265 		.ascii	"ThreadsQueue\000"
 6122      61647351 
 6122      75657565 
 6122      00
 6123              	.LASF130:
 6124 041e 7478646D 		.ascii	"txdmamode\000"
 6124      616D6F64 
 6124      6500
 6125              	.LASF40:
 6126 0428 705F7374 		.ascii	"p_stklimit\000"
 6126      6B6C696D 
 6126      697400
 6127              	.LASF139:
 6128 0433 4D4D4343 		.ascii	"MMCConfig\000"
 6128      6F6E6669 
 6128      6700
 6129              	.LASF186:
 6130 043d 6661696C 		.ascii	"failed\000"
 6130      656400
 6131              	.LASF179:
 6132 0444 6D6D6353 		.ascii	"mmcStopSequentialWrite\000"
 6132      746F7053 
 6132      65717565 
 6132      6E746961 
 6132      6C577269 
 6133              	.LASF156:
 6134 045b 6D6D635F 		.ascii	"mmc_write\000"
 6134      77726974 
 6134      6500
 6135              	.LASF13:
 6136 0465 5F5F7569 		.ascii	"__uint64_t\000"
 6136      6E743634 
 6136      5F7400
 6137              	.LASF70:
 6138 0470 444D415F 		.ascii	"DMA_Channel_TypeDef\000"
 6138      4368616E 
 6138      6E656C5F 
 6138      54797065 
 6138      44656600 
 6139              	.LASF75:
 6140 0484 43524350 		.ascii	"CRCPR\000"
 6140      5200
ARM GAS  /tmp/ccxbZr1V.s 			page 114


 6141              	.LASF112:
 6142 048a 4146524C 		.ascii	"AFRL\000"
 6142      00
 6143              	.LASF187:
 6144 048f 6D6D635F 		.ascii	"mmc_vmt\000"
 6144      766D7400 
 6145              	.LASF79:
 6146 0497 54584352 		.ascii	"TXCRCR\000"
 6146      435200
 6147              	.LASF71:
 6148 049e 52455345 		.ascii	"RESERVED0\000"
 6148      52564544 
 6148      3000
 6149              	.LASF72:
 6150 04a8 52455345 		.ascii	"RESERVED1\000"
 6150      52564544 
 6150      3100
 6151              	.LASF73:
 6152 04b2 52455345 		.ascii	"RESERVED2\000"
 6152      52564544 
 6152      3200
 6153              	.LASF74:
 6154 04bc 52455345 		.ascii	"RESERVED3\000"
 6154      52564544 
 6154      3300
 6155              	.LASF76:
 6156 04c6 52455345 		.ascii	"RESERVED4\000"
 6156      52564544 
 6156      3400
 6157              	.LASF34:
 6158 04d0 705F7072 		.ascii	"p_prev\000"
 6158      657600
 6159              	.LASF80:
 6160 04d7 52455345 		.ascii	"RESERVED6\000"
 6160      52564544 
 6160      3600
 6161              	.LASF82:
 6162 04e1 52455345 		.ascii	"RESERVED7\000"
 6162      52564544 
 6162      3700
 6163              	.LASF84:
 6164 04eb 52455345 		.ascii	"RESERVED8\000"
 6164      52564544 
 6164      3800
 6165              	.LASF28:
 6166 04f5 74707269 		.ascii	"tprio_t\000"
 6166      6F5F7400 
 6167              	.LASF126:
 6168 04fd 6D757465 		.ascii	"mutex\000"
 6168      7800
 6169              	.LASF23:
 6170 0503 5F426F6F 		.ascii	"_Bool\000"
 6170      6C00
 6171              	.LASF19:
 6172 0509 696E7433 		.ascii	"int32_t\000"
 6172      325F7400 
 6173              	.LASF4:
ARM GAS  /tmp/ccxbZr1V.s 			page 115


 6174 0511 756E7369 		.ascii	"unsigned char\000"
 6174      676E6564 
 6174      20636861 
 6174      7200
 6175              	.LASF91:
 6176 051f 73746D33 		.ascii	"stm32_dma_stream_t\000"
 6176      325F646D 
 6176      615F7374 
 6176      7265616D 
 6176      5F7400
 6177              	.LASF41:
 6178 0532 705F7374 		.ascii	"p_state\000"
 6178      61746500 
 6179              	.LASF50:
 6180 053a 705F6D74 		.ascii	"p_mtxlist\000"
 6180      786C6973 
 6180      7400
 6181              	.LASF5:
 6182 0544 73686F72 		.ascii	"short int\000"
 6182      7420696E 
 6182      7400
 6183              	.LASF99:
 6184 054e 424C4B5F 		.ascii	"BLK_WRITING\000"
 6184      57524954 
 6184      494E4700 
 6185              	.LASF44:
 6186 055a 705F7072 		.ascii	"p_preempt\000"
 6186      65656D70 
 6186      7400
 6187              	.LASF66:
 6188 0564 65776D61 		.ascii	"ewmask\000"
 6188      736B00
 6189              	.LASF33:
 6190 056b 705F6E65 		.ascii	"p_next\000"
 6190      787400
 6191              	.LASF42:
 6192 0572 705F666C 		.ascii	"p_flags\000"
 6192      61677300 
 6193              	.LASF177:
 6194 057a 6D6D6353 		.ascii	"mmcSequentialWrite\000"
 6194      65717565 
 6194      6E746961 
 6194      6C577269 
 6194      746500
 6195              	.LASF180:
 6196 058d 73746F70 		.ascii	"stop\000"
 6196      00
 6197              	.LASF166:
 6198 0592 72656164 		.ascii	"read_CxD\000"
 6198      5F437844 
 6198      00
 6199              	.LASF171:
 6200 059b 6D6D6344 		.ascii	"mmcDisconnect\000"
 6200      6973636F 
 6200      6E6E6563 
 6200      7400
 6201              	.LASF49:
ARM GAS  /tmp/ccxbZr1V.s 			page 116


 6202 05a9 705F6570 		.ascii	"p_epending\000"
 6202      656E6469 
 6202      6E6700
 6203              	.LASF87:
 6204 05b4 69666372 		.ascii	"ifcr\000"
 6204      00
 6205              	.LASF78:
 6206 05b9 52455345 		.ascii	"RESERVED5\000"
 6206      52564544 
 6206      3500
 6207              	.LASF191:
 6208 05c3 6D6D6349 		.ascii	"mmcInit\000"
 6208      6E697400 
 6209              	.LASF20:
 6210 05cb 75696E74 		.ascii	"uint32_t\000"
 6210      33325F74 
 6210      00
 6211              	.LASF158:
 6212 05d4 6D6D6370 		.ascii	"mmcp\000"
 6212      00
 6213              	.LASF11:
 6214 05d9 6C6F6E67 		.ascii	"long unsigned int\000"
 6214      20756E73 
 6214      69676E65 
 6214      6420696E 
 6214      7400
 6215              	.LASF85:
 6216 05eb 5350495F 		.ascii	"SPI_TypeDef\000"
 6216      54797065 
 6216      44656600 
 6217              	.LASF145:
 6218 05f7 72656164 		.ascii	"read\000"
 6218      00
 6219              	.LASF16:
 6220 05fc 63686172 		.ascii	"char\000"
 6220      00
 6221              	.LASF120:
 6222 0601 5350495F 		.ascii	"SPI_COMPLETE\000"
 6222      434F4D50 
 6222      4C455445 
 6222      00
 6223              	.LASF96:
 6224 060e 424C4B5F 		.ascii	"BLK_DISCONNECTING\000"
 6224      44495343 
 6224      4F4E4E45 
 6224      4354494E 
 6224      4700
 6225              	.LASF124:
 6226 0620 636F6E66 		.ascii	"config\000"
 6226      696700
 6227              	.LASF6:
 6228 0627 5F5F7569 		.ascii	"__uint16_t\000"
 6228      6E743136 
 6228      5F7400
 6229              	.LASF157:
 6230 0632 63726337 		.ascii	"crc7\000"
 6230      00
ARM GAS  /tmp/ccxbZr1V.s 			page 117


 6231              	.LASF62:
 6232 0637 6D5F6E65 		.ascii	"m_next\000"
 6232      787400
 6233              	.LASF31:
 6234 063e 73797374 		.ascii	"systime_t\000"
 6234      696D655F 
 6234      7400
 6235              	.LASF159:
 6236 0648 77616974 		.ascii	"wait\000"
 6236      00
 6237              	.LASF154:
 6238 064d 62756666 		.ascii	"buffer\000"
 6238      657200
 6239              	.LASF125:
 6240 0654 74687265 		.ascii	"thread\000"
 6240      616400
 6241              	.LASF115:
 6242 065b 696F706F 		.ascii	"ioportid_t\000"
 6242      72746964 
 6242      5F7400
 6243              	.LASF58:
 6244 0666 636F6E74 		.ascii	"context\000"
 6244      65787400 
 6245              	.LASF57:
 6246 066e 696E7463 		.ascii	"intctx\000"
 6246      747800
 6247              	.LASF142:
 6248 0675 69735F70 		.ascii	"is_protected\000"
 6248      726F7465 
 6248      63746564 
 6248      00
 6249              	.LASF118:
 6250 0682 5350495F 		.ascii	"SPI_READY\000"
 6250      52454144 
 6250      5900
 6251              	.LASF116:
 6252 068c 5350495F 		.ascii	"SPI_UNINIT\000"
 6252      554E494E 
 6252      495400
 6253              	.LASF151:
 6254 0697 4D4D4344 		.ascii	"MMCDriver\000"
 6254      72697665 
 6254      7200
 6255              	.LASF43:
 6256 06a1 705F7265 		.ascii	"p_refs\000"
 6256      667300
 6257              	.LASF110:
 6258 06a8 42535252 		.ascii	"BSRR\000"
 6258      00
 6259              	.LASF138:
 6260 06ad 68736366 		.ascii	"hscfg\000"
 6260      6700
 6261              	.LASF67:
 6262 06b3 434E4454 		.ascii	"CNDTR\000"
 6262      5200
 6263              	.LASF69:
 6264 06b9 434D4152 		.ascii	"CMAR\000"
ARM GAS  /tmp/ccxbZr1V.s 			page 118


 6264      00
 6265              	.LASF77:
 6266 06be 52584352 		.ascii	"RXCRCR\000"
 6266      435200
 6267              	.LASF48:
 6268 06c5 705F6D73 		.ascii	"p_msg\000"
 6268      6700
 6269              	.LASF17:
 6270 06cb 75696E74 		.ascii	"uint8_t\000"
 6270      385F7400 
 6271              	.LASF163:
 6272 06d3 73656E64 		.ascii	"send_command_R1\000"
 6272      5F636F6D 
 6272      6D616E64 
 6272      5F523100 
 6273              	.LASF164:
 6274 06e3 73656E64 		.ascii	"send_command_R3\000"
 6274      5F636F6D 
 6274      6D616E64 
 6274      5F523300 
 6275              	.LASF147:
 6276 06f3 73796E63 		.ascii	"sync\000"
 6276      00
 6277              	.LASF185:
 6278 06f8 656E6462 		.ascii	"endblk\000"
 6278      6C6B00
 6279              	.LASF65:
 6280 06ff 77746F62 		.ascii	"wtobjp\000"
 6280      6A7000
 6281              	.LASF39:
 6282 0706 705F6E61 		.ascii	"p_name\000"
 6282      6D6500
 6283              	.LASF135:
 6284 070d 53504943 		.ascii	"SPIConfig\000"
 6284      6F6E6669 
 6284      6700
 6285              	.LASF178:
 6286 0717 73746172 		.ascii	"start\000"
 6286      7400
 6287              	.LASF170:
 6288 071d 6D6D6343 		.ascii	"mmcConnect\000"
 6288      6F6E6E65 
 6288      637400
 6289              	.LASF174:
 6290 0728 6D6D6353 		.ascii	"mmcStopSequentialRead\000"
 6290      746F7053 
 6290      65717565 
 6290      6E746961 
 6290      6C526561 
 6291              	.LASF181:
 6292 073e 6D6D6353 		.ascii	"mmcSync\000"
 6292      796E6300 
 6293              	.LASF113:
 6294 0746 41465248 		.ascii	"AFRH\000"
 6294      00
 6295              	.LASF61:
 6296 074b 6D5F6F77 		.ascii	"m_owner\000"
ARM GAS  /tmp/ccxbZr1V.s 			page 119


 6296      6E657200 
 6297              	.LASF189:
 6298 0753 474E5520 		.ascii	"GNU C 4.9.3 20141119 (release) [ARM/embedded-4_9-br"
 6298      4320342E 
 6298      392E3320 
 6298      32303134 
 6298      31313139 
 6299 0786 616E6368 		.ascii	"anch revision 218278] -mcpu=cortex-m4 -mfloat-abi=h"
 6299      20726576 
 6299      6973696F 
 6299      6E203231 
 6299      38323738 
 6300 07b9 61726420 		.ascii	"ard -mfpu=fpv4-sp-d16 -mno-thumb-interwork -mthumb "
 6300      2D6D6670 
 6300      753D6670 
 6300      76342D73 
 6300      702D6431 
 6301 07ec 2D676764 		.ascii	"-ggdb -O0 -fomit-frame-pointer -falign-functions=16"
 6301      62202D4F 
 6301      30202D66 
 6301      6F6D6974 
 6301      2D667261 
 6302 081f 202D6666 		.ascii	" -ffunction-sections -fdata-sections -fno-common -f"
 6302      756E6374 
 6302      696F6E2D 
 6302      73656374 
 6302      696F6E73 
 6303 0852 73696E67 		.ascii	"single-precision-constant\000"
 6303      6C652D70 
 6303      72656369 
 6303      73696F6E 
 6303      2D636F6E 
 6304              	.LASF36:
 6305 086c 705F6374 		.ascii	"p_ctx\000"
 6305      7800
 6306              	.LASF46:
 6307 0872 705F7761 		.ascii	"p_waiting\000"
 6307      6974696E 
 6307      6700
 6308              		.ident	"GCC: (GNU Tools for ARM Embedded Processors) 4.9.3 20141119 (release) [ARM/embedded-4_9-br
ARM GAS  /tmp/ccxbZr1V.s 			page 120


DEFINED SYMBOLS
                            *ABS*:00000000 mmc_spi.c
     /tmp/ccxbZr1V.s:21     .rodata.mmc_vmt:00000000 $d
     /tmp/ccxbZr1V.s:24     .rodata.mmc_vmt:00000000 mmc_vmt
     /tmp/ccxbZr1V.s:1332   .text.mmcConnect:00000000 mmcConnect
     /tmp/ccxbZr1V.s:1649   .text.mmcDisconnect:00000000 mmcDisconnect
     /tmp/ccxbZr1V.s:300    .text.mmc_read:00000000 mmc_read
     /tmp/ccxbZr1V.s:382    .text.mmc_write:00000000 mmc_write
     /tmp/ccxbZr1V.s:2417   .text.mmcSync:00000000 mmcSync
     /tmp/ccxbZr1V.s:2494   .text.mmcGetInfo:00000000 mmcGetInfo
     /tmp/ccxbZr1V.s:34     .rodata.crc7_lookup_table:00000000 $d
     /tmp/ccxbZr1V.s:37     .rodata.crc7_lookup_table:00000000 crc7_lookup_table
     /tmp/ccxbZr1V.s:295    .text.mmc_read:00000000 $t
     /tmp/ccxbZr1V.s:1777   .text.mmcStartSequentialRead:00000000 mmcStartSequentialRead
     /tmp/ccxbZr1V.s:1895   .text.mmcSequentialRead:00000000 mmcSequentialRead
     /tmp/ccxbZr1V.s:2020   .text.mmcStopSequentialRead:00000000 mmcStopSequentialRead
     /tmp/ccxbZr1V.s:377    .text.mmc_write:00000000 $t
     /tmp/ccxbZr1V.s:2101   .text.mmcStartSequentialWrite:00000000 mmcStartSequentialWrite
     /tmp/ccxbZr1V.s:2219   .text.mmcSequentialWrite:00000000 mmcSequentialWrite
     /tmp/ccxbZr1V.s:2342   .text.mmcStopSequentialWrite:00000000 mmcStopSequentialWrite
     /tmp/ccxbZr1V.s:458    .text.crc7:00000000 $t
     /tmp/ccxbZr1V.s:463    .text.crc7:00000000 crc7
     /tmp/ccxbZr1V.s:508    .text.crc7:0000003c $d
     /tmp/ccxbZr1V.s:513    .text.wait:00000000 $t
     /tmp/ccxbZr1V.s:518    .text.wait:00000000 wait
     /tmp/ccxbZr1V.s:590    .text.send_hdr:00000000 $t
     /tmp/ccxbZr1V.s:595    .text.send_hdr:00000000 send_hdr
     /tmp/ccxbZr1V.s:668    .text.recvr1:00000000 $t
     /tmp/ccxbZr1V.s:673    .text.recvr1:00000000 recvr1
     /tmp/ccxbZr1V.s:729    .text.recvr3:00000000 $t
     /tmp/ccxbZr1V.s:734    .text.recvr3:00000000 recvr3
     /tmp/ccxbZr1V.s:772    .text.send_command_R1:00000000 $t
     /tmp/ccxbZr1V.s:777    .text.send_command_R1:00000000 send_command_R1
     /tmp/ccxbZr1V.s:827    .text.send_command_R3:00000000 $t
     /tmp/ccxbZr1V.s:832    .text.send_command_R3:00000000 send_command_R3
     /tmp/ccxbZr1V.s:884    .text.read_CxD:00000000 $t
     /tmp/ccxbZr1V.s:889    .text.read_CxD:00000000 read_CxD
     /tmp/ccxbZr1V.s:1048   .text.sync:00000000 $t
     /tmp/ccxbZr1V.s:1053   .text.sync:00000000 sync
     /tmp/ccxbZr1V.s:1109   .text.mmcInit:00000000 $t
     /tmp/ccxbZr1V.s:1115   .text.mmcInit:00000000 mmcInit
     /tmp/ccxbZr1V.s:1128   .text.mmcObjectInit:00000000 $t
     /tmp/ccxbZr1V.s:1134   .text.mmcObjectInit:00000000 mmcObjectInit
     /tmp/ccxbZr1V.s:1168   .text.mmcObjectInit:00000024 $d
     /tmp/ccxbZr1V.s:1173   .rodata:00000000 $d
     /tmp/ccxbZr1V.s:1180   .text.mmcStart:00000000 $t
     /tmp/ccxbZr1V.s:1186   .text.mmcStart:00000000 mmcStart
     /tmp/ccxbZr1V.s:1242   .text.mmcStart:00000044 $d
     /tmp/ccxbZr1V.s:1255   .text.mmcStop:00000000 $t
     /tmp/ccxbZr1V.s:1261   .text.mmcStop:00000000 mmcStop
     /tmp/ccxbZr1V.s:1313   .text.mmcStop:00000040 $d
     /tmp/ccxbZr1V.s:1326   .text.mmcConnect:00000000 $t
     /tmp/ccxbZr1V.s:1629   .text.mmcConnect:000001d0 $d
     /tmp/ccxbZr1V.s:1643   .text.mmcDisconnect:00000000 $t
     /tmp/ccxbZr1V.s:1758   .text.mmcDisconnect:00000090 $d
     /tmp/ccxbZr1V.s:1771   .text.mmcStartSequentialRead:00000000 $t
     /tmp/ccxbZr1V.s:1879   .text.mmcStartSequentialRead:00000098 $d
ARM GAS  /tmp/ccxbZr1V.s 			page 121


     /tmp/ccxbZr1V.s:1889   .text.mmcSequentialRead:00000000 $t
     /tmp/ccxbZr1V.s:2005   .text.mmcSequentialRead:000000a0 $d
     /tmp/ccxbZr1V.s:2014   .text.mmcStopSequentialRead:00000000 $t
     /tmp/ccxbZr1V.s:2082   .text.mmcStopSequentialRead:00000050 $d
     /tmp/ccxbZr1V.s:2678   .rodata.stopcmd.7337:00000000 stopcmd.7337
     /tmp/ccxbZr1V.s:2095   .text.mmcStartSequentialWrite:00000000 $t
     /tmp/ccxbZr1V.s:2203   .text.mmcStartSequentialWrite:00000098 $d
     /tmp/ccxbZr1V.s:2213   .text.mmcSequentialWrite:00000000 $t
     /tmp/ccxbZr1V.s:2326   .text.mmcSequentialWrite:000000a8 $d
     /tmp/ccxbZr1V.s:2690   .rodata.start.7346:00000000 start.7346
     /tmp/ccxbZr1V.s:2336   .text.mmcStopSequentialWrite:00000000 $t
     /tmp/ccxbZr1V.s:2401   .text.mmcStopSequentialWrite:0000004c $d
     /tmp/ccxbZr1V.s:2697   .rodata.stop.7351:00000000 stop.7351
     /tmp/ccxbZr1V.s:2411   .text.mmcSync:00000000 $t
     /tmp/ccxbZr1V.s:2479   .text.mmcSync:00000050 $d
     /tmp/ccxbZr1V.s:2488   .text.mmcGetInfo:00000000 $t
     /tmp/ccxbZr1V.s:2550   .text.mmcGetInfo:00000040 $d
     /tmp/ccxbZr1V.s:2559   .text.mmcErase:00000000 $t
     /tmp/ccxbZr1V.s:2565   .text.mmcErase:00000000 mmcErase
     /tmp/ccxbZr1V.s:2670   .text.mmcErase:00000094 $d
     /tmp/ccxbZr1V.s:2675   .rodata.stopcmd.7337:00000000 $d
     /tmp/ccxbZr1V.s:2687   .rodata.start.7346:00000000 $d
     /tmp/ccxbZr1V.s:2694   .rodata.stop.7351:00000000 $d
                     .debug_frame:00000010 $d
     /tmp/ccxbZr1V.s:1172   .text.mmcObjectInit:00000028 $t
     /tmp/ccxbZr1V.s:1247   .text.mmcStart:0000004c $t
     /tmp/ccxbZr1V.s:1318   .text.mmcStop:00000048 $t
     /tmp/ccxbZr1V.s:1635   .text.mmcConnect:000001dc $t
     /tmp/ccxbZr1V.s:1763   .text.mmcDisconnect:00000098 $t
     /tmp/ccxbZr1V.s:2009   .text.mmcSequentialRead:000000a4 $t
     /tmp/ccxbZr1V.s:2087   .text.mmcStopSequentialRead:00000058 $t
     /tmp/ccxbZr1V.s:2406   .text.mmcStopSequentialWrite:00000054 $t
     /tmp/ccxbZr1V.s:2483   .text.mmcSync:00000054 $t
     /tmp/ccxbZr1V.s:2554   .text.mmcGetInfo:00000044 $t
     /tmp/ccxbZr1V.s:2674   .text.mmcErase:00000098 $t

UNDEFINED SYMBOLS
mmc_lld_is_card_inserted
mmc_lld_is_write_protected
spiReceive
chThdSleep
spiSend
spiSelect
spiUnselect
spiIgnore
chDbgPanic
spiStop
spiStart
mmcsdGetCapacity
dbg_check_lock
dbg_check_unlock
