ARM GAS  /tmp/cc6j5Hk3.s 			page 1


   1              		.syntax unified
   2              		.cpu cortex-m4
   3              		.eabi_attribute 27, 3
   4              		.eabi_attribute 28, 1
   5              		.fpu fpv4-sp-d16
   6              		.eabi_attribute 20, 1
   7              		.eabi_attribute 21, 1
   8              		.eabi_attribute 23, 3
   9              		.eabi_attribute 24, 1
  10              		.eabi_attribute 25, 1
  11              		.eabi_attribute 26, 1
  12              		.eabi_attribute 30, 6
  13              		.eabi_attribute 34, 1
  14              		.eabi_attribute 18, 4
  15              		.thumb
  16              		.file	"mmcsd.c"
  17              		.text
  18              	.Ltext0:
  19              		.cfi_sections	.debug_frame
  20              		.section	.rodata
  21              		.align	2
  22              	.LC0:
  23 0000 226D6D63 		.ascii	"\"mmcsd_get_slice\"()\000"
  23      73645F67 
  23      65745F73 
  23      6C696365 
  23      22282900 
  24              		.section	.text.mmcsd_get_slice,"ax",%progbits
  25              		.align	2
  26              		.p2align 4,,15
  27              		.thumb
  28              		.thumb_func
  29              		.type	mmcsd_get_slice, %function
  30              	mmcsd_get_slice:
  31              	.LFB118:
  32              		.file 1 "/home/ergae/r2p-sdk/core/ChibiOS/os/hal/src/mmcsd.c"
  33              		.loc 1 69 0
  34              		.cfi_startproc
  35              		@ args = 0, pretend = 0, frame = 32
  36              		@ frame_needed = 0, uses_anonymous_args = 0
  37 0000 00B5     		push	{lr}
  38              		.cfi_def_cfa_offset 4
  39              		.cfi_offset 14, -4
  40 0002 89B0     		sub	sp, sp, #36
  41              		.cfi_def_cfa_offset 40
  42 0004 0390     		str	r0, [sp, #12]
  43 0006 0291     		str	r1, [sp, #8]
  44 0008 0192     		str	r2, [sp, #4]
  45              		.loc 1 73 0
  46 000a 029A     		ldr	r2, [sp, #8]
  47 000c 019B     		ldr	r3, [sp, #4]
  48 000e 9A42     		cmp	r2, r3
  49 0010 04D3     		bcc	.L2
  50              		.loc 1 73 0 is_stmt 0 discriminator 2
  51 0012 029A     		ldr	r2, [sp, #8]
  52 0014 019B     		ldr	r3, [sp, #4]
  53 0016 D31A     		subs	r3, r2, r3
ARM GAS  /tmp/cc6j5Hk3.s 			page 2


  54 0018 1F2B     		cmp	r3, #31
  55 001a 02D9     		bls	.L3
  56              	.L2:
  57              		.loc 1 73 0 discriminator 3
  58 001c 1D48     		ldr	r0, .L6
  59 001e FFF7FEFF 		bl	chDbgPanic
  60              	.L3:
  61              		.loc 1 75 0 is_stmt 1
  62 0022 019B     		ldr	r3, [sp, #4]
  63 0024 5B09     		lsrs	r3, r3, #5
  64 0026 0793     		str	r3, [sp, #28]
  65              		.loc 1 76 0
  66 0028 019B     		ldr	r3, [sp, #4]
  67 002a 03F01F03 		and	r3, r3, #31
  68 002e 0693     		str	r3, [sp, #24]
  69              		.loc 1 77 0
  70 0030 029B     		ldr	r3, [sp, #8]
  71 0032 5B09     		lsrs	r3, r3, #5
  72 0034 0593     		str	r3, [sp, #20]
  73              		.loc 1 78 0
  74 0036 029B     		ldr	r3, [sp, #8]
  75 0038 03F01F03 		and	r3, r3, #31
  76 003c 0133     		adds	r3, r3, #1
  77 003e 1A46     		mov	r2, r3
  78 0040 0123     		movs	r3, #1
  79 0042 9340     		lsls	r3, r3, r2
  80 0044 013B     		subs	r3, r3, #1
  81 0046 0493     		str	r3, [sp, #16]
  82              		.loc 1 81 0
  83 0048 079A     		ldr	r2, [sp, #28]
  84 004a 059B     		ldr	r3, [sp, #20]
  85 004c 9A42     		cmp	r2, r3
  86 004e 13D2     		bcs	.L4
  87              		.loc 1 82 0
  88 0050 079B     		ldr	r3, [sp, #28]
  89 0052 9B00     		lsls	r3, r3, #2
  90 0054 039A     		ldr	r2, [sp, #12]
  91 0056 1344     		add	r3, r3, r2
  92 0058 1A68     		ldr	r2, [r3]
  93 005a 069B     		ldr	r3, [sp, #24]
  94 005c DA40     		lsrs	r2, r2, r3
  95              		.loc 1 83 0
  96 005e 059B     		ldr	r3, [sp, #20]
  97 0060 9B00     		lsls	r3, r3, #2
  98 0062 0399     		ldr	r1, [sp, #12]
  99 0064 0B44     		add	r3, r3, r1
 100 0066 1968     		ldr	r1, [r3]
 101 0068 049B     		ldr	r3, [sp, #16]
 102 006a 0B40     		ands	r3, r3, r1
 103 006c 0699     		ldr	r1, [sp, #24]
 104 006e C1F12001 		rsb	r1, r1, #32
 105 0072 8B40     		lsls	r3, r3, r1
 106              		.loc 1 82 0
 107 0074 1343     		orrs	r3, r3, r2
 108 0076 09E0     		b	.L5
 109              	.L4:
 110              		.loc 1 84 0
ARM GAS  /tmp/cc6j5Hk3.s 			page 3


 111 0078 079B     		ldr	r3, [sp, #28]
 112 007a 9B00     		lsls	r3, r3, #2
 113 007c 039A     		ldr	r2, [sp, #12]
 114 007e 1344     		add	r3, r3, r2
 115 0080 1A68     		ldr	r2, [r3]
 116 0082 049B     		ldr	r3, [sp, #16]
 117 0084 1A40     		ands	r2, r2, r3
 118 0086 069B     		ldr	r3, [sp, #24]
 119 0088 22FA03F3 		lsr	r3, r2, r3
 120              	.L5:
 121              		.loc 1 85 0
 122 008c 1846     		mov	r0, r3
 123 008e 09B0     		add	sp, sp, #36
 124              		.cfi_def_cfa_offset 4
 125              		@ sp needed
 126 0090 5DF804FB 		ldr	pc, [sp], #4
 127              	.L7:
 128              		.align	2
 129              	.L6:
 130 0094 00000000 		.word	.LC0
 131              		.cfi_endproc
 132              	.LFE118:
 133              		.size	mmcsd_get_slice, .-mmcsd_get_slice
 134 0098 AFF30080 		.section	.text.mmcsdGetCapacity,"ax",%progbits
 134      AFF30080 
 135              		.align	2
 136              		.p2align 4,,15
 137              		.global	mmcsdGetCapacity
 138              		.thumb
 139              		.thumb_func
 140              		.type	mmcsdGetCapacity, %function
 141              	mmcsdGetCapacity:
 142              	.LFB119:
 143              		.loc 1 100 0
 144              		.cfi_startproc
 145              		@ args = 0, pretend = 0, frame = 24
 146              		@ frame_needed = 0, uses_anonymous_args = 0
 147 0000 00B5     		push	{lr}
 148              		.cfi_def_cfa_offset 4
 149              		.cfi_offset 14, -4
 150 0002 87B0     		sub	sp, sp, #28
 151              		.cfi_def_cfa_offset 32
 152 0004 0190     		str	r0, [sp, #4]
 153              		.loc 1 102 0
 154 0006 019B     		ldr	r3, [sp, #4]
 155 0008 0C33     		adds	r3, r3, #12
 156 000a 1B68     		ldr	r3, [r3]
 157 000c 9B0F     		lsrs	r3, r3, #30
 158 000e 002B     		cmp	r3, #0
 159 0010 02D0     		beq	.L10
 160 0012 012B     		cmp	r3, #1
 161 0014 1BD0     		beq	.L11
 162 0016 23E0     		b	.L13
 163              	.L10:
 164              	.LBB2:
 165              		.loc 1 106 0
 166 0018 0198     		ldr	r0, [sp, #4]
ARM GAS  /tmp/cc6j5Hk3.s 			page 4


 167 001a 4921     		movs	r1, #73
 168 001c 3E22     		movs	r2, #62
 169 001e FFF7FEFF 		bl	mmcsd_get_slice
 170 0022 0590     		str	r0, [sp, #20]
 171              		.loc 1 107 0
 172 0024 0198     		ldr	r0, [sp, #4]
 173 0026 3121     		movs	r1, #49
 174 0028 2F22     		movs	r2, #47
 175 002a FFF7FEFF 		bl	mmcsd_get_slice
 176 002e 0490     		str	r0, [sp, #16]
 177              		.loc 1 108 0
 178 0030 0198     		ldr	r0, [sp, #4]
 179 0032 5321     		movs	r1, #83
 180 0034 5022     		movs	r2, #80
 181 0036 FFF7FEFF 		bl	mmcsd_get_slice
 182 003a 0390     		str	r0, [sp, #12]
 183              		.loc 1 109 0
 184 003c 059B     		ldr	r3, [sp, #20]
 185 003e 0133     		adds	r3, r3, #1
 186 0040 049A     		ldr	r2, [sp, #16]
 187 0042 0232     		adds	r2, r2, #2
 188 0044 9340     		lsls	r3, r3, r2
 189 0046 039A     		ldr	r2, [sp, #12]
 190 0048 093A     		subs	r2, r2, #9
 191 004a 9340     		lsls	r3, r3, r2
 192 004c 09E0     		b	.L12
 193              	.L11:
 194              		.loc 1 112 0
 195 004e 0198     		ldr	r0, [sp, #4]
 196 0050 4521     		movs	r1, #69
 197 0052 3022     		movs	r2, #48
 198 0054 FFF7FEFF 		bl	mmcsd_get_slice
 199 0058 0346     		mov	r3, r0
 200 005a 0133     		adds	r3, r3, #1
 201 005c 9B02     		lsls	r3, r3, #10
 202 005e 00E0     		b	.L12
 203              	.L13:
 204              		.loc 1 115 0
 205 0060 0023     		movs	r3, #0
 206              	.L12:
 207              	.LBE2:
 208              		.loc 1 117 0
 209 0062 1846     		mov	r0, r3
 210 0064 07B0     		add	sp, sp, #28
 211              		.cfi_def_cfa_offset 4
 212              		@ sp needed
 213 0066 5DF804FB 		ldr	pc, [sp], #4
 214              		.cfi_endproc
 215              	.LFE119:
 216              		.size	mmcsdGetCapacity, .-mmcsdGetCapacity
 217 006a 00BFAFF3 		.text
 217      0080
 218              	.Letext0:
 219              		.file 2 "/home/ergae/r2p-sdk/tools/gcc-arm-none-eabi-4_9-2014q4/arm-none-eabi/include/machine/_def
 220              		.file 3 "/home/ergae/r2p-sdk/tools/gcc-arm-none-eabi-4_9-2014q4/arm-none-eabi/include/stdint.h"
 221              		.file 4 "/home/ergae/r2p-sdk/core/ChibiOS/os/ports/common/ARMCMx/CMSIS/include/core_cm4.h"