ARM GAS  /tmp/ccQIg86Y.s 			page 1


   1              		.syntax unified
   2              		.cpu cortex-m4
   3              		.eabi_attribute 27, 3
   4              		.eabi_attribute 28, 1
   5              		.fpu fpv4-sp-d16
   6              		.eabi_attribute 20, 1
   7              		.eabi_attribute 21, 1
   8              		.eabi_attribute 23, 3
   9              		.eabi_attribute 24, 1
  10              		.eabi_attribute 25, 1
  11              		.eabi_attribute 26, 1
  12              		.eabi_attribute 30, 6
  13              		.eabi_attribute 34, 1
  14              		.eabi_attribute 18, 4
  15              		.thumb
  16              		.file	"msgqueue.c"
  17              		.text
  18              	.Ltext0:
  19              		.cfi_sections	.debug_frame
  20              		.section	.text.msgqueue_init,"ax",%progbits
  21              		.align	2
  22              		.p2align 4,,15
  23              		.global	msgqueue_init
  24              		.thumb
  25              		.thumb_func
  26              		.type	msgqueue_init, %function
  27              	msgqueue_init:
  28              	.LFB118:
  29              		.file 1 "/home/denny/r2p-sdk/core/RTCAN/src/msgqueue.c"
  30              		.loc 1 11 0
  31              		.cfi_startproc
  32              		@ args = 0, pretend = 0, frame = 8
  33              		@ frame_needed = 0, uses_anonymous_args = 0
  34              		@ link register save eliminated.
  35 0000 82B0     		sub	sp, sp, #8
  36              		.cfi_def_cfa_offset 8
  37 0002 0190     		str	r0, [sp, #4]
  38              		.loc 1 12 0
  39 0004 019B     		ldr	r3, [sp, #4]
  40 0006 019A     		ldr	r2, [sp, #4]
  41 0008 1A60     		str	r2, [r3]
  42              		.loc 1 13 0
  43 000a 02B0     		add	sp, sp, #8
  44              		.cfi_def_cfa_offset 0
  45              		@ sp needed
  46 000c 7047     		bx	lr
  47              		.cfi_endproc
  48              	.LFE118:
  49              		.size	msgqueue_init, .-msgqueue_init
  50 000e 00BF     		.section	.rodata
  51              		.align	2
  52              	.LC0:
  53 0000 226D7367 		.ascii	"\"msgqueue_insert\"()\000"
  53      71756575 
  53      655F696E 
  53      73657274 
  53      22282900 
ARM GAS  /tmp/ccQIg86Y.s 			page 2


  54              		.section	.text.msgqueue_insert,"ax",%progbits
  55              		.align	2
  56              		.p2align 4,,15
  57              		.global	msgqueue_insert
  58              		.thumb
  59              		.thumb_func
  60              		.type	msgqueue_insert, %function
  61              	msgqueue_insert:
  62              	.LFB119:
  63              		.loc 1 16 0
  64              		.cfi_startproc
  65              		@ args = 0, pretend = 0, frame = 16
  66              		@ frame_needed = 0, uses_anonymous_args = 0
  67 0000 00B5     		push	{lr}
  68              		.cfi_def_cfa_offset 4
  69              		.cfi_offset 14, -4
  70 0002 85B0     		sub	sp, sp, #20
  71              		.cfi_def_cfa_offset 24
  72 0004 0190     		str	r0, [sp, #4]
  73 0006 0091     		str	r1, [sp]
  74              		.loc 1 17 0
  75 0008 019B     		ldr	r3, [sp, #4]
  76 000a 0393     		str	r3, [sp, #12]
  77              		.loc 1 19 0
  78 000c 019B     		ldr	r3, [sp, #4]
  79 000e 002B     		cmp	r3, #0
  80 0010 02D0     		beq	.L3
  81              		.loc 1 19 0 is_stmt 0 discriminator 2
  82 0012 009B     		ldr	r3, [sp]
  83 0014 002B     		cmp	r3, #0
  84 0016 02D1     		bne	.L4
  85              	.L3:
  86              		.loc 1 19 0 discriminator 3
  87 0018 0F48     		ldr	r0, .L9
  88 001a FFF7FEFF 		bl	chDbgPanic
  89              	.L4:
  90              		.loc 1 22 0 is_stmt 1
  91 001e 0BE0     		b	.L5
  92              	.L8:
  93              		.loc 1 23 0
  94 0020 039B     		ldr	r3, [sp, #12]
  95 0022 D3F80D20 		ldr	r2, [r3, #13]	@ unaligned
  96 0026 009B     		ldr	r3, [sp]
  97 0028 D3F80D30 		ldr	r3, [r3, #13]	@ unaligned
  98 002c 9A42     		cmp	r2, r3
  99 002e 00D9     		bls	.L6
 100              		.loc 1 24 0
 101 0030 07E0     		b	.L7
 102              	.L6:
 103              		.loc 1 26 0
 104 0032 039B     		ldr	r3, [sp, #12]
 105 0034 1B68     		ldr	r3, [r3]	@ unaligned
 106 0036 0393     		str	r3, [sp, #12]
 107              	.L5:
 108              		.loc 1 22 0
 109 0038 039B     		ldr	r3, [sp, #12]
 110 003a 1A68     		ldr	r2, [r3]	@ unaligned
ARM GAS  /tmp/ccQIg86Y.s 			page 3


 111 003c 019B     		ldr	r3, [sp, #4]
 112 003e 9A42     		cmp	r2, r3
 113 0040 EED1     		bne	.L8
 114              	.L7:
 115              		.loc 1 29 0
 116 0042 039B     		ldr	r3, [sp, #12]
 117 0044 1A68     		ldr	r2, [r3]	@ unaligned
 118 0046 009B     		ldr	r3, [sp]
 119 0048 1A60     		str	r2, [r3]	@ unaligned
 120              		.loc 1 30 0
 121 004a 039B     		ldr	r3, [sp, #12]
 122 004c 009A     		ldr	r2, [sp]
 123 004e 1A60     		str	r2, [r3]	@ unaligned
 124              		.loc 1 31 0
 125 0050 05B0     		add	sp, sp, #20
 126              		.cfi_def_cfa_offset 4
 127              		@ sp needed
 128 0052 5DF804FB 		ldr	pc, [sp], #4
 129              	.L10:
 130 0056 00BF     		.align	2
 131              	.L9:
 132 0058 00000000 		.word	.LC0
 133              		.cfi_endproc
 134              	.LFE119:
 135              		.size	msgqueue_insert, .-msgqueue_insert
 136 005c AFF30080 		.section	.rodata
 137              		.align	2
 138              	.LC1:
 139 0014 226D7367 		.ascii	"\"msgqueue_remove\"()\000"
 139      71756575 
 139      655F7265 
 139      6D6F7665 
 139      22282900 
 140              		.align	2
 141              	.LC2:
 142 0028 6D736771 		.ascii	"msgqueue_remove(), #1\000"
 142      75657565 
 142      5F72656D 
 142      6F766528 
 142      292C2023 
 143              		.section	.text.msgqueue_remove,"ax",%progbits
 144              		.align	2
 145              		.p2align 4,,15
 146              		.global	msgqueue_remove
 147              		.thumb
 148              		.thumb_func
 149              		.type	msgqueue_remove, %function
 150              	msgqueue_remove:
 151              	.LFB120:
 152              		.loc 1 34 0
 153              		.cfi_startproc
 154              		@ args = 0, pretend = 0, frame = 16
 155              		@ frame_needed = 0, uses_anonymous_args = 0
 156 0000 00B5     		push	{lr}
 157              		.cfi_def_cfa_offset 4
 158              		.cfi_offset 14, -4
 159 0002 85B0     		sub	sp, sp, #20
ARM GAS  /tmp/ccQIg86Y.s 			page 4


 160              		.cfi_def_cfa_offset 24
 161 0004 0190     		str	r0, [sp, #4]
 162 0006 0091     		str	r1, [sp]
 163              		.loc 1 37 0
 164 0008 019B     		ldr	r3, [sp, #4]
 165 000a 002B     		cmp	r3, #0
 166 000c 02D0     		beq	.L12
 167              		.loc 1 37 0 is_stmt 0 discriminator 2
 168 000e 009B     		ldr	r3, [sp]
 169 0010 002B     		cmp	r3, #0
 170 0012 02D1     		bne	.L13
 171              	.L12:
 172              		.loc 1 37 0 discriminator 3
 173 0014 0E48     		ldr	r0, .L17
 174 0016 FFF7FEFF 		bl	chDbgPanic
 175              	.L13:
 176              		.loc 1 38 0 is_stmt 1
 177 001a 019B     		ldr	r3, [sp, #4]
 178 001c 1A68     		ldr	r2, [r3]
 179 001e 019B     		ldr	r3, [sp, #4]
 180 0020 9A42     		cmp	r2, r3
 181 0022 02D1     		bne	.L14
 182              		.loc 1 38 0 is_stmt 0 discriminator 1
 183 0024 0B48     		ldr	r0, .L17+4
 184 0026 FFF7FEFF 		bl	chDbgPanic
 185              	.L14:
 186              		.loc 1 41 0 is_stmt 1
 187 002a 019B     		ldr	r3, [sp, #4]
 188 002c 0393     		str	r3, [sp, #12]
 189              		.loc 1 43 0
 190 002e 02E0     		b	.L15
 191              	.L16:
 192              		.loc 1 44 0
 193 0030 039B     		ldr	r3, [sp, #12]
 194 0032 1B68     		ldr	r3, [r3]	@ unaligned
 195 0034 0393     		str	r3, [sp, #12]
 196              	.L15:
 197              		.loc 1 43 0
 198 0036 039B     		ldr	r3, [sp, #12]
 199 0038 1A68     		ldr	r2, [r3]	@ unaligned
 200 003a 009B     		ldr	r3, [sp]
 201 003c 9A42     		cmp	r2, r3
 202 003e F7D1     		bne	.L16
 203              		.loc 1 47 0
 204 0040 009B     		ldr	r3, [sp]
 205 0042 1A68     		ldr	r2, [r3]	@ unaligned
 206 0044 039B     		ldr	r3, [sp, #12]
 207 0046 1A60     		str	r2, [r3]	@ unaligned
 208              		.loc 1 48 0
 209 0048 05B0     		add	sp, sp, #20
 210              		.cfi_def_cfa_offset 4
 211              		@ sp needed
 212 004a 5DF804FB 		ldr	pc, [sp], #4
 213              	.L18:
 214 004e 00BF     		.align	2
 215              	.L17:
 216 0050 14000000 		.word	.LC1
ARM GAS  /tmp/ccQIg86Y.s 			page 5


 217 0054 28000000 		.word	.LC2
 218              		.cfi_endproc
 219              	.LFE120:
 220              		.size	msgqueue_remove, .-msgqueue_remove
 221 0058 AFF30080 		.section	.rodata
 221      AFF30080 
 222 003e 0000     		.align	2
 223              	.LC3:
 224 0040 226D7367 		.ascii	"\"msgqueue_get\"()\000"
 224      71756575 
 224      655F6765 
 224      74222829 
 224      00
 225 0051 000000   		.align	2
 226              	.LC4:
 227 0054 6D736771 		.ascii	"msgqueue_get(), #1\000"
 227      75657565 
 227      5F676574 
 227      28292C20 
 227      233100
 228 0067 00       		.section	.text.msgqueue_get,"ax",%progbits
 229              		.align	2
 230              		.p2align 4,,15
 231              		.global	msgqueue_get
 232              		.thumb
 233              		.thumb_func
 234              		.type	msgqueue_get, %function
 235              	msgqueue_get:
 236              	.LFB121:
 237              		.loc 1 50 0
 238              		.cfi_startproc
 239              		@ args = 0, pretend = 0, frame = 16
 240              		@ frame_needed = 0, uses_anonymous_args = 0
 241 0000 00B5     		push	{lr}
 242              		.cfi_def_cfa_offset 4
 243              		.cfi_offset 14, -4
 244 0002 85B0     		sub	sp, sp, #20
 245              		.cfi_def_cfa_offset 24
 246 0004 0190     		str	r0, [sp, #4]
 247              		.loc 1 53 0
 248 0006 019B     		ldr	r3, [sp, #4]
 249 0008 002B     		cmp	r3, #0
 250 000a 02D1     		bne	.L20
 251              		.loc 1 53 0 is_stmt 0 discriminator 1
 252 000c 0B48     		ldr	r0, .L23
 253 000e FFF7FEFF 		bl	chDbgPanic
 254              	.L20:
 255              		.loc 1 54 0 is_stmt 1
 256 0012 019B     		ldr	r3, [sp, #4]
 257 0014 1A68     		ldr	r2, [r3]
 258 0016 019B     		ldr	r3, [sp, #4]
 259 0018 9A42     		cmp	r2, r3
 260 001a 02D1     		bne	.L21
 261              		.loc 1 54 0 is_stmt 0 discriminator 1
 262 001c 0848     		ldr	r0, .L23+4
 263 001e FFF7FEFF 		bl	chDbgPanic
 264              	.L21:
ARM GAS  /tmp/ccQIg86Y.s 			page 6


 265              		.loc 1 57 0 is_stmt 1
 266 0022 019B     		ldr	r3, [sp, #4]
 267 0024 1B68     		ldr	r3, [r3]
 268 0026 0393     		str	r3, [sp, #12]
 269              		.loc 1 58 0
 270 0028 039B     		ldr	r3, [sp, #12]
 271 002a 1A68     		ldr	r2, [r3]	@ unaligned
 272 002c 019B     		ldr	r3, [sp, #4]
 273 002e 1A60     		str	r2, [r3]
 274              		.loc 1 60 0
 275 0030 039B     		ldr	r3, [sp, #12]
 276              		.loc 1 61 0
 277 0032 1846     		mov	r0, r3
 278 0034 05B0     		add	sp, sp, #20
 279              		.cfi_def_cfa_offset 4
 280              		@ sp needed
 281 0036 5DF804FB 		ldr	pc, [sp], #4
 282              	.L24:
 283 003a 00BF     		.align	2
 284              	.L23:
 285 003c 40000000 		.word	.LC3
 286 0040 54000000 		.word	.LC4
 287              		.cfi_endproc
 288              	.LFE121:
 289              		.size	msgqueue_get, .-msgqueue_get
 290 0044 AFF30080 		.text
 290      AFF30080 
 290      AFF30080 
 291              	.Letext0:
 292              		.file 2 "/home/denny/r2p-sdk/tools/gcc-arm-none-eabi-4_9-2014q4/arm-none-eabi/include/machine/_def
 293              		.file 3 "/home/denny/r2p-sdk/tools/gcc-arm-none-eabi-4_9-2014q4/arm-none-eabi/include/stdint.h"
 294              		.file 4 "/home/denny/r2p-sdk/core/RTCAN/include/rtcan.h"
 295              		.file 5 "/home/denny/r2p-sdk/core/RTCAN/include/msgqueue.h"
 296              		.file 6 "/home/denny/r2p-sdk/core/ChibiOS/os/ports/common/ARMCMx/CMSIS/include/core_cm4.h"