ARM GAS  /tmp/ccQIg86Y.s 			page 1


   1              		.syntax unified
   2              		.cpu cortex-m4
   3              		.eabi_attribute 27, 3
   4              		.eabi_attribute 28, 1
   5              		.fpu fpv4-sp-d16
   6              		.eabi_attribute 20, 1
   7              		.eabi_attribute 21, 1
   8              		.eabi_attribute 23, 3
   9              		.eabi_attribute 24, 1
  10              		.eabi_attribute 25, 1
  11              		.eabi_attribute 26, 1
  12              		.eabi_attribute 30, 6
  13              		.eabi_attribute 34, 1
  14              		.eabi_attribute 18, 4
  15              		.thumb
  16              		.file	"msgqueue.c"
  17              		.text
  18              	.Ltext0:
  19              		.cfi_sections	.debug_frame
  20              		.section	.text.msgqueue_init,"ax",%progbits
  21              		.align	2
  22              		.p2align 4,,15
  23              		.global	msgqueue_init
  24              		.thumb
  25              		.thumb_func
  26              		.type	msgqueue_init, %function
  27              	msgqueue_init:
  28              	.LFB118:
  29              		.file 1 "/home/denny/r2p-sdk/core/RTCAN/src/msgqueue.c"
  30              		.loc 1 11 0
  31              		.cfi_startproc
  32              		@ args = 0, pretend = 0, frame = 8
  33              		@ frame_needed = 0, uses_anonymous_args = 0
  34              		@ link register save eliminated.
  35 0000 82B0     		sub	sp, sp, #8
  36              		.cfi_def_cfa_offset 8
  37 0002 0190     		str	r0, [sp, #4]
  38              		.loc 1 12 0
  39 0004 019B     		ldr	r3, [sp, #4]
  40 0006 019A     		ldr	r2, [sp, #4]
  41 0008 1A60     		str	r2, [r3]
  42              		.loc 1 13 0
  43 000a 02B0     		add	sp, sp, #8
  44              		.cfi_def_cfa_offset 0
  45              		@ sp needed
  46 000c 7047     		bx	lr
  47              		.cfi_endproc
  48              	.LFE118:
  49              		.size	msgqueue_init, .-msgqueue_init
  50 000e 00BF     		.section	.rodata
  51              		.align	2
  52              	.LC0:
  53 0000 226D7367 		.ascii	"\"msgqueue_insert\"()\000"
  53      71756575 
  53      655F696E 
  53      73657274 
  53      22282900 
ARM GAS  /tmp/ccQIg86Y.s 			page 2


  54              		.section	.text.msgqueue_insert,"ax",%progbits
  55              		.align	2
  56              		.p2align 4,,15
  57              		.global	msgqueue_insert
  58              		.thumb
  59              		.thumb_func
  60              		.type	msgqueue_insert, %function
  61              	msgqueue_insert:
  62              	.LFB119:
  63              		.loc 1 16 0
  64              		.cfi_startproc
  65              		@ args = 0, pretend = 0, frame = 16
  66              		@ frame_needed = 0, uses_anonymous_args = 0
  67 0000 00B5     		push	{lr}
  68              		.cfi_def_cfa_offset 4
  69              		.cfi_offset 14, -4
  70 0002 85B0     		sub	sp, sp, #20
  71              		.cfi_def_cfa_offset 24
  72 0004 0190     		str	r0, [sp, #4]
  73 0006 0091     		str	r1, [sp]
  74              		.loc 1 17 0
  75 0008 019B     		ldr	r3, [sp, #4]
  76 000a 0393     		str	r3, [sp, #12]
  77              		.loc 1 19 0
  78 000c 019B     		ldr	r3, [sp, #4]
  79 000e 002B     		cmp	r3, #0
  80 0010 02D0     		beq	.L3
  81              		.loc 1 19 0 is_stmt 0 discriminator 2
  82 0012 009B     		ldr	r3, [sp]
  83 0014 002B     		cmp	r3, #0
  84 0016 02D1     		bne	.L4
  85              	.L3:
  86              		.loc 1 19 0 discriminator 3
  87 0018 0F48     		ldr	r0, .L9
  88 001a FFF7FEFF 		bl	chDbgPanic
  89              	.L4:
  90              		.loc 1 22 0 is_stmt 1
  91 001e 0BE0     		b	.L5
  92              	.L8:
  93              		.loc 1 23 0
  94 0020 039B     		ldr	r3, [sp, #12]
  95 0022 D3F80D20 		ldr	r2, [r3, #13]	@ unaligned
  96 0026 009B     		ldr	r3, [sp]
  97 0028 D3F80D30 		ldr	r3, [r3, #13]	@ unaligned
  98 002c 9A42     		cmp	r2, r3
  99 002e 00D9     		bls	.L6
 100              		.loc 1 24 0
 101 0030 07E0     		b	.L7
 102              	.L6:
 103              		.loc 1 26 0
 104 0032 039B     		ldr	r3, [sp, #12]
 105 0034 1B68     		ldr	r3, [r3]	@ unaligned
 106 0036 0393     		str	r3, [sp, #12]
 107              	.L5:
 108              		.loc 1 22 0
 109 0038 039B     		ldr	r3, [sp, #12]
 110 003a 1A68     		ldr	r2, [r3]	@ unaligned
ARM GAS  /tmp/ccQIg86Y.s 			page 3


 111 003c 019B     		ldr	r3, [sp, #4]
 112 003e 9A42     		cmp	r2, r3
 113 0040 EED1     		bne	.L8
 114              	.L7:
 115              		.loc 1 29 0
 116 0042 039B     		ldr	r3, [sp, #12]
 117 0044 1A68     		ldr	r2, [r3]	@ unaligned
 118 0046 009B     		ldr	r3, [sp]
 119 0048 1A60     		str	r2, [r3]	@ unaligned
 120              		.loc 1 30 0
 121 004a 039B     		ldr	r3, [sp, #12]
 122 004c 009A     		ldr	r2, [sp]
 123 004e 1A60     		str	r2, [r3]	@ unaligned
 124              		.loc 1 31 0
 125 0050 05B0     		add	sp, sp, #20
 126              		.cfi_def_cfa_offset 4
 127              		@ sp needed
 128 0052 5DF804FB 		ldr	pc, [sp], #4
 129              	.L10:
 130 0056 00BF     		.align	2
 131              	.L9:
 132 0058 00000000 		.word	.LC0
 133              		.cfi_endproc
 134              	.LFE119:
 135              		.size	msgqueue_insert, .-msgqueue_insert
 136 005c AFF30080 		.section	.rodata
 137              		.align	2
 138              	.LC1:
 139 0014 226D7367 		.ascii	"\"msgqueue_remove\"()\000"
 139      71756575 
 139      655F7265 
 139      6D6F7665 
 139      22282900 
 140              		.align	2
 141              	.LC2:
 142 0028 6D736771 		.ascii	"msgqueue_remove(), #1\000"
 142      75657565 
 142      5F72656D 
 142      6F766528 
 142      292C2023 
 143              		.section	.text.msgqueue_remove,"ax",%progbits
 144              		.align	2
 145              		.p2align 4,,15
 146              		.global	msgqueue_remove
 147              		.thumb
 148              		.thumb_func
 149              		.type	msgqueue_remove, %function
 150              	msgqueue_remove:
 151              	.LFB120:
 152              		.loc 1 34 0
 153              		.cfi_startproc
 154              		@ args = 0, pretend = 0, frame = 16
 155              		@ frame_needed = 0, uses_anonymous_args = 0
 156 0000 00B5     		push	{lr}
 157              		.cfi_def_cfa_offset 4
 158              		.cfi_offset 14, -4
 159 0002 85B0     		sub	sp, sp, #20
ARM GAS  /tmp/ccQIg86Y.s 			page 4


 160              		.cfi_def_cfa_offset 24
 161 0004 0190     		str	r0, [sp, #4]
 162 0006 0091     		str	r1, [sp]
 163              		.loc 1 37 0
 164 0008 019B     		ldr	r3, [sp, #4]
 165 000a 002B     		cmp	r3, #0
 166 000c 02D0     		beq	.L12
 167              		.loc 1 37 0 is_stmt 0 discriminator 2
 168 000e 009B     		ldr	r3, [sp]
 169 0010 002B     		cmp	r3, #0
 170 0012 02D1     		bne	.L13
 171              	.L12:
 172              		.loc 1 37 0 discriminator 3
 173 0014 0E48     		ldr	r0, .L17
 174 0016 FFF7FEFF 		bl	chDbgPanic
 175              	.L13:
 176              		.loc 1 38 0 is_stmt 1
 177 001a 019B     		ldr	r3, [sp, #4]
 178 001c 1A68     		ldr	r2, [r3]
 179 001e 019B     		ldr	r3, [sp, #4]
 180 0020 9A42     		cmp	r2, r3
 181 0022 02D1     		bne	.L14
 182              		.loc 1 38 0 is_stmt 0 discriminator 1
 183 0024 0B48     		ldr	r0, .L17+4
 184 0026 FFF7FEFF 		bl	chDbgPanic
 185              	.L14:
 186              		.loc 1 41 0 is_stmt 1
 187 002a 019B     		ldr	r3, [sp, #4]
 188 002c 0393     		str	r3, [sp, #12]
 189              		.loc 1 43 0
 190 002e 02E0     		b	.L15
 191              	.L16:
 192              		.loc 1 44 0
 193 0030 039B     		ldr	r3, [sp, #12]
 194 0032 1B68     		ldr	r3, [r3]	@ unaligned
 195 0034 0393     		str	r3, [sp, #12]
 196              	.L15:
 197              		.loc 1 43 0
 198 0036 039B     		ldr	r3, [sp, #12]
 199 0038 1A68     		ldr	r2, [r3]	@ unaligned
 200 003a 009B     		ldr	r3, [sp]
 201 003c 9A42     		cmp	r2, r3
 202 003e F7D1     		bne	.L16
 203              		.loc 1 47 0
 204 0040 009B     		ldr	r3, [sp]
 205 0042 1A68     		ldr	r2, [r3]	@ unaligned
 206 0044 039B     		ldr	r3, [sp, #12]
 207 0046 1A60     		str	r2, [r3]	@ unaligned
 208              		.loc 1 48 0
 209 0048 05B0     		add	sp, sp, #20
 210              		.cfi_def_cfa_offset 4
 211              		@ sp needed
 212 004a 5DF804FB 		ldr	pc, [sp], #4
 213              	.L18:
 214 004e 00BF     		.align	2
 215              	.L17:
 216 0050 14000000 		.word	.LC1
ARM GAS  /tmp/ccQIg86Y.s 			page 5


 217 0054 28000000 		.word	.LC2
 218              		.cfi_endproc
 219              	.LFE120:
 220              		.size	msgqueue_remove, .-msgqueue_remove
 221 0058 AFF30080 		.section	.rodata
 221      AFF30080 
 222 003e 0000     		.align	2
 223              	.LC3:
 224 0040 226D7367 		.ascii	"\"msgqueue_get\"()\000"
 224      71756575 
 224      655F6765 
 224      74222829 
 224      00
 225 0051 000000   		.align	2
 226              	.LC4:
 227 0054 6D736771 		.ascii	"msgqueue_get(), #1\000"
 227      75657565 
 227      5F676574 
 227      28292C20 
 227      233100
 228 0067 00       		.section	.text.msgqueue_get,"ax",%progbits
 229              		.align	2
 230              		.p2align 4,,15
 231              		.global	msgqueue_get
 232              		.thumb
 233              		.thumb_func
 234              		.type	msgqueue_get, %function
 235              	msgqueue_get:
 236              	.LFB121:
 237              		.loc 1 50 0
 238              		.cfi_startproc
 239              		@ args = 0, pretend = 0, frame = 16
 240              		@ frame_needed = 0, uses_anonymous_args = 0
 241 0000 00B5     		push	{lr}
 242              		.cfi_def_cfa_offset 4
 243              		.cfi_offset 14, -4
 244 0002 85B0     		sub	sp, sp, #20
 245              		.cfi_def_cfa_offset 24
 246 0004 0190     		str	r0, [sp, #4]
 247              		.loc 1 53 0
 248 0006 019B     		ldr	r3, [sp, #4]
 249 0008 002B     		cmp	r3, #0
 250 000a 02D1     		bne	.L20
 251              		.loc 1 53 0 is_stmt 0 discriminator 1
 252 000c 0B48     		ldr	r0, .L23
 253 000e FFF7FEFF 		bl	chDbgPanic
 254              	.L20:
 255              		.loc 1 54 0 is_stmt 1
 256 0012 019B     		ldr	r3, [sp, #4]
 257 0014 1A68     		ldr	r2, [r3]
 258 0016 019B     		ldr	r3, [sp, #4]
 259 0018 9A42     		cmp	r2, r3
 260 001a 02D1     		bne	.L21
 261              		.loc 1 54 0 is_stmt 0 discriminator 1
 262 001c 0848     		ldr	r0, .L23+4
 263 001e FFF7FEFF 		bl	chDbgPanic
 264              	.L21:
ARM GAS  /tmp/ccQIg86Y.s 			page 6


 265              		.loc 1 57 0 is_stmt 1
 266 0022 019B     		ldr	r3, [sp, #4]
 267 0024 1B68     		ldr	r3, [r3]
 268 0026 0393     		str	r3, [sp, #12]
 269              		.loc 1 58 0
 270 0028 039B     		ldr	r3, [sp, #12]
 271 002a 1A68     		ldr	r2, [r3]	@ unaligned
 272 002c 019B     		ldr	r3, [sp, #4]
 273 002e 1A60     		str	r2, [r3]
 274              		.loc 1 60 0
 275 0030 039B     		ldr	r3, [sp, #12]
 276              		.loc 1 61 0
 277 0032 1846     		mov	r0, r3
 278 0034 05B0     		add	sp, sp, #20
 279              		.cfi_def_cfa_offset 4
 280              		@ sp needed
 281 0036 5DF804FB 		ldr	pc, [sp], #4
 282              	.L24:
 283 003a 00BF     		.align	2
 284              	.L23:
 285 003c 40000000 		.word	.LC3
 286 0040 54000000 		.word	.LC4
 287              		.cfi_endproc
 288              	.LFE121:
 289              		.size	msgqueue_get, .-msgqueue_get
 290 0044 AFF30080 		.text
 290      AFF30080 
 290      AFF30080 
 291              	.Letext0:
 292              		.file 2 "/home/denny/r2p-sdk/tools/gcc-arm-none-eabi-4_9-2014q4/arm-none-eabi/include/machine/_def
 293              		.file 3 "/home/denny/r2p-sdk/tools/gcc-arm-none-eabi-4_9-2014q4/arm-none-eabi/include/stdint.h"
 294              		.file 4 "/home/denny/r2p-sdk/core/RTCAN/include/rtcan.h"
 295              		.file 5 "/home/denny/r2p-sdk/core/RTCAN/include/msgqueue.h"
 296              		.file 6 "/home/denny/r2p-sdk/core/ChibiOS/os/ports/common/ARMCMx/CMSIS/include/core_cm4.h"
 297              		.section	.debug_info,"",%progbits
 298              	.Ldebug_info0:
 299 0000 35030000 		.4byte	0x335
 300 0004 0400     		.2byte	0x4
 301 0006 00000000 		.4byte	.Ldebug_abbrev0
 302 000a 04       		.byte	0x4
 303 000b 01       		.uleb128 0x1
 304 000c CE000000 		.4byte	.LASF47
 305 0010 01       		.byte	0x1
 306 0011 0C030000 		.4byte	.LASF48
 307 0015 00000000 		.4byte	.Ldebug_ranges0+0
 308 0019 00000000 		.4byte	0
 309 001d 00000000 		.4byte	.Ldebug_line0
 310 0021 02       		.uleb128 0x2
 311 0022 01       		.byte	0x1
 312 0023 06       		.byte	0x6
 313 0024 5F030000 		.4byte	.LASF0
 314 0028 03       		.uleb128 0x3
 315 0029 00000000 		.4byte	.LASF3
 316 002d 02       		.byte	0x2
 317 002e 1D       		.byte	0x1d
 318 002f 33000000 		.4byte	0x33
 319 0033 02       		.uleb128 0x2
ARM GAS  /tmp/ccQIg86Y.s 			page 7


 320 0034 01       		.byte	0x1
 321 0035 08       		.byte	0x8
 322 0036 AE000000 		.4byte	.LASF1
 323 003a 02       		.uleb128 0x2
 324 003b 02       		.byte	0x2
 325 003c 05       		.byte	0x5
 326 003d 58000000 		.4byte	.LASF2
 327 0041 03       		.uleb128 0x3
 328 0042 1F020000 		.4byte	.LASF4
 329 0046 02       		.byte	0x2
 330 0047 2B       		.byte	0x2b
 331 0048 4C000000 		.4byte	0x4c
 332 004c 02       		.uleb128 0x2
 333 004d 02       		.byte	0x2
 334 004e 07       		.byte	0x7
 335 004f 45000000 		.4byte	.LASF5
 336 0053 03       		.uleb128 0x3
 337 0054 24000000 		.4byte	.LASF6
 338 0058 02       		.byte	0x2
 339 0059 3F       		.byte	0x3f
 340 005a 5E000000 		.4byte	0x5e
 341 005e 02       		.uleb128 0x2
 342 005f 04       		.byte	0x4
 343 0060 05       		.byte	0x5
 344 0061 03030000 		.4byte	.LASF7
 345 0065 03       		.uleb128 0x3
 346 0066 43020000 		.4byte	.LASF8
 347 006a 02       		.byte	0x2
 348 006b 41       		.byte	0x41
 349 006c 70000000 		.4byte	0x70
 350 0070 02       		.uleb128 0x2
 351 0071 04       		.byte	0x4
 352 0072 07       		.byte	0x7
 353 0073 BC000000 		.4byte	.LASF9
 354 0077 02       		.uleb128 0x2
 355 0078 08       		.byte	0x8
 356 0079 05       		.byte	0x5
 357 007a C0020000 		.4byte	.LASF10
 358 007e 02       		.uleb128 0x2
 359 007f 08       		.byte	0x8
 360 0080 07       		.byte	0x7
 361 0081 89000000 		.4byte	.LASF11
 362 0085 04       		.uleb128 0x4
 363 0086 04       		.byte	0x4
 364 0087 05       		.byte	0x5
 365 0088 696E7400 		.ascii	"int\000"
 366 008c 02       		.uleb128 0x2
 367 008d 04       		.byte	0x4
 368 008e 07       		.byte	0x7
 369 008f 6F020000 		.4byte	.LASF12
 370 0093 03       		.uleb128 0x3
 371 0094 91020000 		.4byte	.LASF13
 372 0098 03       		.byte	0x3
 373 0099 15       		.byte	0x15
 374 009a 28000000 		.4byte	0x28
 375 009e 03       		.uleb128 0x3
 376 009f F1020000 		.4byte	.LASF14
ARM GAS  /tmp/ccQIg86Y.s 			page 8


 377 00a3 03       		.byte	0x3
 378 00a4 21       		.byte	0x21
 379 00a5 41000000 		.4byte	0x41
 380 00a9 03       		.uleb128 0x3
 381 00aa AF020000 		.4byte	.LASF15
 382 00ae 03       		.byte	0x3
 383 00af 2C       		.byte	0x2c
 384 00b0 53000000 		.4byte	0x53
 385 00b4 03       		.uleb128 0x3
 386 00b5 FA020000 		.4byte	.LASF16
 387 00b9 03       		.byte	0x3
 388 00ba 2D       		.byte	0x2d
 389 00bb 65000000 		.4byte	0x65
 390 00bf 02       		.uleb128 0x2
 391 00c0 01       		.byte	0x1
 392 00c1 02       		.byte	0x2
 393 00c2 75030000 		.4byte	.LASF17
 394 00c6 05       		.uleb128 0x5
 395 00c7 04       		.byte	0x4
 396 00c8 02       		.uleb128 0x2
 397 00c9 04       		.byte	0x4
 398 00ca 07       		.byte	0x7
 399 00cb B7020000 		.4byte	.LASF18
 400 00cf 02       		.uleb128 0x2
 401 00d0 01       		.byte	0x1
 402 00d1 08       		.byte	0x8
 403 00d2 8C020000 		.4byte	.LASF19
 404 00d6 06       		.uleb128 0x6
 405 00d7 04       		.byte	0x4
 406 00d8 93000000 		.4byte	0x93
 407 00dc 06       		.uleb128 0x6
 408 00dd 04       		.byte	0x4
 409 00de E2000000 		.4byte	0xe2
 410 00e2 07       		.uleb128 0x7
 411 00e3 93000000 		.4byte	0x93
 412 00e7 08       		.uleb128 0x8
 413 00e8 A9000000 		.4byte	0xa9
 414 00ec 03       		.uleb128 0x3
 415 00ed 4E020000 		.4byte	.LASF20
 416 00f1 04       		.byte	0x4
 417 00f2 5E       		.byte	0x5e
 418 00f3 F7000000 		.4byte	0xf7
 419 00f7 09       		.uleb128 0x9
 420 00f8 4E020000 		.4byte	.LASF20
 421 00fc 1E       		.byte	0x1e
 422 00fd 04       		.byte	0x4
 423 00fe B9       		.byte	0xb9
 424 00ff 78010000 		.4byte	0x178
 425 0103 0A       		.uleb128 0xa
 426 0104 6B030000 		.4byte	.LASF21
 427 0108 04       		.byte	0x4
 428 0109 BA       		.byte	0xba
 429 010a 94010000 		.4byte	0x194
 430 010e 00       		.byte	0
 431 010f 0A       		.uleb128 0xa
 432 0110 62000000 		.4byte	.LASF22
 433 0114 04       		.byte	0x4
ARM GAS  /tmp/ccQIg86Y.s 			page 9


 434 0115 BB       		.byte	0xbb
 435 0116 CD010000 		.4byte	0x1cd
 436 011a 04       		.byte	0x4
 437 011b 0A       		.uleb128 0xa
 438 011c E7010000 		.4byte	.LASF23
 439 0120 04       		.byte	0x4
 440 0121 BC       		.byte	0xbc
 441 0122 78010000 		.4byte	0x178
 442 0126 05       		.byte	0x5
 443 0127 0A       		.uleb128 0xa
 444 0128 18020000 		.4byte	.LASF24
 445 012c 04       		.byte	0x4
 446 012d BD       		.byte	0xbd
 447 012e C6000000 		.4byte	0xc6
 448 0132 09       		.byte	0x9
 449 0133 0B       		.uleb128 0xb
 450 0134 39020000 		.4byte	0x239
 451 0138 0D       		.byte	0xd
 452 0139 0C       		.uleb128 0xc
 453 013a 696400   		.ascii	"id\000"
 454 013d 04       		.byte	0x4
 455 013e C7       		.byte	0xc7
 456 013f D8010000 		.4byte	0x1d8
 457 0143 11       		.byte	0x11
 458 0144 0A       		.uleb128 0xa
 459 0145 70030000 		.4byte	.LASF25
 460 0149 04       		.byte	0x4
 461 014a C8       		.byte	0xc8
 462 014b 9E000000 		.4byte	0x9e
 463 014f 13       		.byte	0x13
 464 0150 0A       		.uleb128 0xa
 465 0151 1A000000 		.4byte	.LASF26
 466 0155 04       		.byte	0x4
 467 0156 C9       		.byte	0xc9
 468 0157 DC000000 		.4byte	0xdc
 469 015b 15       		.byte	0x15
 470 015c 0C       		.uleb128 0xc
 471 015d 70747200 		.ascii	"ptr\000"
 472 0161 04       		.byte	0x4
 473 0162 CA       		.byte	0xca
 474 0163 D6000000 		.4byte	0xd6
 475 0167 19       		.byte	0x19
 476 0168 0D       		.uleb128 0xd
 477 0169 F0010000 		.4byte	.LASF49
 478 016d 04       		.byte	0x4
 479 016e CB       		.byte	0xcb
 480 016f 93000000 		.4byte	0x93
 481 0173 01       		.byte	0x1
 482 0174 07       		.byte	0x7
 483 0175 01       		.byte	0x1
 484 0176 1D       		.byte	0x1d
 485 0177 00       		.byte	0
 486 0178 03       		.uleb128 0x3
 487 0179 4B030000 		.4byte	.LASF27
 488 017d 04       		.byte	0x4
 489 017e 63       		.byte	0x63
 490 017f 83010000 		.4byte	0x183
ARM GAS  /tmp/ccQIg86Y.s 			page 10


 491 0183 06       		.uleb128 0x6
 492 0184 04       		.byte	0x4
 493 0185 89010000 		.4byte	0x189
 494 0189 0E       		.uleb128 0xe
 495 018a 94010000 		.4byte	0x194
 496 018e 0F       		.uleb128 0xf
 497 018f 94010000 		.4byte	0x194
 498 0193 00       		.byte	0
 499 0194 06       		.uleb128 0x6
 500 0195 04       		.byte	0x4
 501 0196 EC000000 		.4byte	0xec
 502 019a 10       		.uleb128 0x10
 503 019b 01       		.byte	0x1
 504 019c 04       		.byte	0x4
 505 019d 75       		.byte	0x75
 506 019e CD010000 		.4byte	0x1cd
 507 01a2 11       		.uleb128 0x11
 508 01a3 3A030000 		.4byte	.LASF28
 509 01a7 00       		.sleb128 0
 510 01a8 11       		.uleb128 0x11
 511 01a9 CE020000 		.4byte	.LASF29
 512 01ad 01       		.sleb128 1
 513 01ae 11       		.uleb128 0x11
 514 01af 0A000000 		.4byte	.LASF30
 515 01b3 02       		.sleb128 2
 516 01b4 11       		.uleb128 0x11
 517 01b5 99020000 		.4byte	.LASF31
 518 01b9 03       		.sleb128 3
 519 01ba 11       		.uleb128 0x11
 520 01bb 69000000 		.4byte	.LASF32
 521 01bf 04       		.sleb128 4
 522 01c0 11       		.uleb128 0x11
 523 01c1 06020000 		.4byte	.LASF33
 524 01c5 05       		.sleb128 5
 525 01c6 11       		.uleb128 0x11
 526 01c7 79000000 		.4byte	.LASF34
 527 01cb 06       		.sleb128 6
 528 01cc 00       		.byte	0
 529 01cd 03       		.uleb128 0x3
 530 01ce 2A020000 		.4byte	.LASF35
 531 01d2 04       		.byte	0x4
 532 01d3 7D       		.byte	0x7d
 533 01d4 9A010000 		.4byte	0x19a
 534 01d8 03       		.uleb128 0x3
 535 01d9 64020000 		.4byte	.LASF36
 536 01dd 04       		.byte	0x4
 537 01de 83       		.byte	0x83
 538 01df 9E000000 		.4byte	0x9e
 539 01e3 12       		.uleb128 0x12
 540 01e4 04       		.byte	0x4
 541 01e5 05       		.byte	0x5
 542 01e6 1E       		.byte	0x1e
 543 01e7 F8010000 		.4byte	0x1f8
 544 01eb 0A       		.uleb128 0xa
 545 01ec 6B030000 		.4byte	.LASF21
 546 01f0 05       		.byte	0x5
 547 01f1 20       		.byte	0x20
ARM GAS  /tmp/ccQIg86Y.s 			page 11


 548 01f2 94010000 		.4byte	0x194
 549 01f6 00       		.byte	0
 550 01f7 00       		.byte	0
 551 01f8 03       		.uleb128 0x3
 552 01f9 E6020000 		.4byte	.LASF37
 553 01fd 05       		.byte	0x5
 554 01fe 21       		.byte	0x21
 555 01ff E3010000 		.4byte	0x1e3
 556 0203 12       		.uleb128 0x12
 557 0204 04       		.byte	0x4
 558 0205 04       		.byte	0x4
 559 0206 BF       		.byte	0xbf
 560 0207 18020000 		.4byte	0x218
 561 020b 0A       		.uleb128 0xa
 562 020c DD020000 		.4byte	.LASF38
 563 0210 04       		.byte	0x4
 564 0211 C0       		.byte	0xc0
 565 0212 B4000000 		.4byte	0xb4
 566 0216 00       		.byte	0
 567 0217 00       		.byte	0
 568 0218 12       		.uleb128 0x12
 569 0219 04       		.byte	0x4
 570 021a 04       		.byte	0x4
 571 021b C2       		.byte	0xc2
 572 021c 39020000 		.4byte	0x239
 573 0220 0A       		.uleb128 0xa
 574 0221 AA020000 		.4byte	.LASF39
 575 0225 04       		.byte	0x4
 576 0226 C3       		.byte	0xc3
 577 0227 9E000000 		.4byte	0x9e
 578 022b 00       		.byte	0
 579 022c 0A       		.uleb128 0xa
 580 022d 2E000000 		.4byte	.LASF40
 581 0231 04       		.byte	0x4
 582 0232 C4       		.byte	0xc4
 583 0233 9E000000 		.4byte	0x9e
 584 0237 02       		.byte	0x2
 585 0238 00       		.byte	0
 586 0239 13       		.uleb128 0x13
 587 023a 04       		.byte	0x4
 588 023b 04       		.byte	0x4
 589 023c BE       		.byte	0xbe
 590 023d 4C020000 		.4byte	0x24c
 591 0241 14       		.uleb128 0x14
 592 0242 03020000 		.4byte	0x203
 593 0246 14       		.uleb128 0x14
 594 0247 18020000 		.4byte	0x218
 595 024b 00       		.byte	0
 596 024c 15       		.uleb128 0x15
 597 024d A0000000 		.4byte	.LASF41
 598 0251 01       		.byte	0x1
 599 0252 0B       		.byte	0xb
 600 0253 00000000 		.4byte	.LFB118
 601 0257 0E000000 		.4byte	.LFE118-.LFB118
 602 025b 01       		.uleb128 0x1
 603 025c 9C       		.byte	0x9c
 604 025d 70020000 		.4byte	0x270
ARM GAS  /tmp/ccQIg86Y.s 			page 12


 605 0261 16       		.uleb128 0x16
 606 0262 3C020000 		.4byte	.LASF43
 607 0266 01       		.byte	0x1
 608 0267 0B       		.byte	0xb
 609 0268 70020000 		.4byte	0x270
 610 026c 02       		.uleb128 0x2
 611 026d 91       		.byte	0x91
 612 026e 7C       		.sleb128 -4
 613 026f 00       		.byte	0
 614 0270 06       		.uleb128 0x6
 615 0271 04       		.byte	0x4
 616 0272 F8010000 		.4byte	0x1f8
 617 0276 17       		.uleb128 0x17
 618 0277 7C020000 		.4byte	.LASF42
 619 027b 01       		.byte	0x1
 620 027c 10       		.byte	0x10
 621 027d 00000000 		.4byte	.LFB119
 622 0281 5C000000 		.4byte	.LFE119-.LFB119
 623 0285 01       		.uleb128 0x1
 624 0286 9C       		.byte	0x9c
 625 0287 B6020000 		.4byte	0x2b6
 626 028b 16       		.uleb128 0x16
 627 028c 3C020000 		.4byte	.LASF43
 628 0290 01       		.byte	0x1
 629 0291 10       		.byte	0x10
 630 0292 70020000 		.4byte	0x270
 631 0296 02       		.uleb128 0x2
 632 0297 91       		.byte	0x91
 633 0298 6C       		.sleb128 -20
 634 0299 16       		.uleb128 0x16
 635 029a 1F000000 		.4byte	.LASF44
 636 029e 01       		.byte	0x1
 637 029f 10       		.byte	0x10
 638 02a0 94010000 		.4byte	0x194
 639 02a4 02       		.uleb128 0x2
 640 02a5 91       		.byte	0x91
 641 02a6 68       		.sleb128 -24
 642 02a7 18       		.uleb128 0x18
 643 02a8 5A020000 		.4byte	.LASF46
 644 02ac 01       		.byte	0x1
 645 02ad 11       		.byte	0x11
 646 02ae 94010000 		.4byte	0x194
 647 02b2 02       		.uleb128 0x2
 648 02b3 91       		.byte	0x91
 649 02b4 74       		.sleb128 -12
 650 02b5 00       		.byte	0
 651 02b6 17       		.uleb128 0x17
 652 02b7 35000000 		.4byte	.LASF45
 653 02bb 01       		.byte	0x1
 654 02bc 22       		.byte	0x22
 655 02bd 00000000 		.4byte	.LFB120
 656 02c1 58000000 		.4byte	.LFE120-.LFB120
 657 02c5 01       		.uleb128 0x1
 658 02c6 9C       		.byte	0x9c
 659 02c7 F6020000 		.4byte	0x2f6
 660 02cb 16       		.uleb128 0x16
 661 02cc 3C020000 		.4byte	.LASF43
ARM GAS  /tmp/ccQIg86Y.s 			page 13


 662 02d0 01       		.byte	0x1
 663 02d1 22       		.byte	0x22
 664 02d2 70020000 		.4byte	0x270
 665 02d6 02       		.uleb128 0x2
 666 02d7 91       		.byte	0x91
 667 02d8 6C       		.sleb128 -20
 668 02d9 16       		.uleb128 0x16
 669 02da 1F000000 		.4byte	.LASF44
 670 02de 01       		.byte	0x1
 671 02df 22       		.byte	0x22
 672 02e0 94010000 		.4byte	0x194
 673 02e4 02       		.uleb128 0x2
 674 02e5 91       		.byte	0x91
 675 02e6 68       		.sleb128 -24
 676 02e7 18       		.uleb128 0x18
 677 02e8 5A020000 		.4byte	.LASF46
 678 02ec 01       		.byte	0x1
 679 02ed 23       		.byte	0x23
 680 02ee 94010000 		.4byte	0x194
 681 02f2 02       		.uleb128 0x2
 682 02f3 91       		.byte	0x91
 683 02f4 74       		.sleb128 -12
 684 02f5 00       		.byte	0
 685 02f6 19       		.uleb128 0x19
 686 02f7 7B030000 		.4byte	.LASF50
 687 02fb 01       		.byte	0x1
 688 02fc 32       		.byte	0x32
 689 02fd 94010000 		.4byte	0x194
 690 0301 00000000 		.4byte	.LFB121
 691 0305 44000000 		.4byte	.LFE121-.LFB121
 692 0309 01       		.uleb128 0x1
 693 030a 9C       		.byte	0x9c
 694 030b 2C030000 		.4byte	0x32c
 695 030f 16       		.uleb128 0x16
 696 0310 3C020000 		.4byte	.LASF43
 697 0314 01       		.byte	0x1
 698 0315 32       		.byte	0x32
 699 0316 70020000 		.4byte	0x270
 700 031a 02       		.uleb128 0x2
 701 031b 91       		.byte	0x91
 702 031c 6C       		.sleb128 -20
 703 031d 18       		.uleb128 0x18
 704 031e 1F000000 		.4byte	.LASF44
 705 0322 01       		.byte	0x1
 706 0323 33       		.byte	0x33
 707 0324 94010000 		.4byte	0x194
 708 0328 02       		.uleb128 0x2
 709 0329 91       		.byte	0x91
 710 032a 74       		.sleb128 -12
 711 032b 00       		.byte	0
 712 032c 1A       		.uleb128 0x1a
 713 032d F9010000 		.4byte	.LASF51
 714 0331 06       		.byte	0x6
 715 0332 9806     		.2byte	0x698
 716 0334 E7000000 		.4byte	0xe7
 717 0338 00       		.byte	0
 718              		.section	.debug_abbrev,"",%progbits
ARM GAS  /tmp/ccQIg86Y.s 			page 14


 719              	.Ldebug_abbrev0:
 720 0000 01       		.uleb128 0x1
 721 0001 11       		.uleb128 0x11
 722 0002 01       		.byte	0x1
 723 0003 25       		.uleb128 0x25
 724 0004 0E       		.uleb128 0xe
 725 0005 13       		.uleb128 0x13
 726 0006 0B       		.uleb128 0xb
 727 0007 03       		.uleb128 0x3
 728 0008 0E       		.uleb128 0xe
 729 0009 55       		.uleb128 0x55
 730 000a 17       		.uleb128 0x17
 731 000b 11       		.uleb128 0x11
 732 000c 01       		.uleb128 0x1
 733 000d 10       		.uleb128 0x10
 734 000e 17       		.uleb128 0x17
 735 000f 00       		.byte	0
 736 0010 00       		.byte	0
 737 0011 02       		.uleb128 0x2
 738 0012 24       		.uleb128 0x24
 739 0013 00       		.byte	0
 740 0014 0B       		.uleb128 0xb
 741 0015 0B       		.uleb128 0xb
 742 0016 3E       		.uleb128 0x3e
 743 0017 0B       		.uleb128 0xb
 744 0018 03       		.uleb128 0x3
 745 0019 0E       		.uleb128 0xe
 746 001a 00       		.byte	0
 747 001b 00       		.byte	0
 748 001c 03       		.uleb128 0x3
 749 001d 16       		.uleb128 0x16
 750 001e 00       		.byte	0
 751 001f 03       		.uleb128 0x3
 752 0020 0E       		.uleb128 0xe
 753 0021 3A       		.uleb128 0x3a
 754 0022 0B       		.uleb128 0xb
 755 0023 3B       		.uleb128 0x3b
 756 0024 0B       		.uleb128 0xb
 757 0025 49       		.uleb128 0x49
 758 0026 13       		.uleb128 0x13
 759 0027 00       		.byte	0
 760 0028 00       		.byte	0
 761 0029 04       		.uleb128 0x4
 762 002a 24       		.uleb128 0x24
 763 002b 00       		.byte	0
 764 002c 0B       		.uleb128 0xb
 765 002d 0B       		.uleb128 0xb
 766 002e 3E       		.uleb128 0x3e
 767 002f 0B       		.uleb128 0xb
 768 0030 03       		.uleb128 0x3
 769 0031 08       		.uleb128 0x8
 770 0032 00       		.byte	0
 771 0033 00       		.byte	0
 772 0034 05       		.uleb128 0x5
 773 0035 0F       		.uleb128 0xf
 774 0036 00       		.byte	0
 775 0037 0B       		.uleb128 0xb
ARM GAS  /tmp/ccQIg86Y.s 			page 15


 776 0038 0B       		.uleb128 0xb
 777 0039 00       		.byte	0
 778 003a 00       		.byte	0
 779 003b 06       		.uleb128 0x6
 780 003c 0F       		.uleb128 0xf
 781 003d 00       		.byte	0
 782 003e 0B       		.uleb128 0xb
 783 003f 0B       		.uleb128 0xb
 784 0040 49       		.uleb128 0x49
 785 0041 13       		.uleb128 0x13
 786 0042 00       		.byte	0
 787 0043 00       		.byte	0
 788 0044 07       		.uleb128 0x7
 789 0045 26       		.uleb128 0x26
 790 0046 00       		.byte	0
 791 0047 49       		.uleb128 0x49
 792 0048 13       		.uleb128 0x13
 793 0049 00       		.byte	0
 794 004a 00       		.byte	0
 795 004b 08       		.uleb128 0x8
 796 004c 35       		.uleb128 0x35
 797 004d 00       		.byte	0
 798 004e 49       		.uleb128 0x49
 799 004f 13       		.uleb128 0x13
 800 0050 00       		.byte	0
 801 0051 00       		.byte	0
 802 0052 09       		.uleb128 0x9
 803 0053 13       		.uleb128 0x13
 804 0054 01       		.byte	0x1
 805 0055 03       		.uleb128 0x3
 806 0056 0E       		.uleb128 0xe
 807 0057 0B       		.uleb128 0xb
 808 0058 0B       		.uleb128 0xb
 809 0059 3A       		.uleb128 0x3a
 810 005a 0B       		.uleb128 0xb
 811 005b 3B       		.uleb128 0x3b
 812 005c 0B       		.uleb128 0xb
 813 005d 01       		.uleb128 0x1
 814 005e 13       		.uleb128 0x13
 815 005f 00       		.byte	0
 816 0060 00       		.byte	0
 817 0061 0A       		.uleb128 0xa
 818 0062 0D       		.uleb128 0xd
 819 0063 00       		.byte	0
 820 0064 03       		.uleb128 0x3
 821 0065 0E       		.uleb128 0xe
 822 0066 3A       		.uleb128 0x3a
 823 0067 0B       		.uleb128 0xb
 824 0068 3B       		.uleb128 0x3b
 825 0069 0B       		.uleb128 0xb
 826 006a 49       		.uleb128 0x49
 827 006b 13       		.uleb128 0x13
 828 006c 38       		.uleb128 0x38
 829 006d 0B       		.uleb128 0xb
 830 006e 00       		.byte	0
 831 006f 00       		.byte	0
 832 0070 0B       		.uleb128 0xb
ARM GAS  /tmp/ccQIg86Y.s 			page 16


 833 0071 0D       		.uleb128 0xd
 834 0072 00       		.byte	0
 835 0073 49       		.uleb128 0x49
 836 0074 13       		.uleb128 0x13
 837 0075 38       		.uleb128 0x38
 838 0076 0B       		.uleb128 0xb
 839 0077 00       		.byte	0
 840 0078 00       		.byte	0
 841 0079 0C       		.uleb128 0xc
 842 007a 0D       		.uleb128 0xd
 843 007b 00       		.byte	0
 844 007c 03       		.uleb128 0x3
 845 007d 08       		.uleb128 0x8
 846 007e 3A       		.uleb128 0x3a
 847 007f 0B       		.uleb128 0xb
 848 0080 3B       		.uleb128 0x3b
 849 0081 0B       		.uleb128 0xb
 850 0082 49       		.uleb128 0x49
 851 0083 13       		.uleb128 0x13
 852 0084 38       		.uleb128 0x38
 853 0085 0B       		.uleb128 0xb
 854 0086 00       		.byte	0
 855 0087 00       		.byte	0
 856 0088 0D       		.uleb128 0xd
 857 0089 0D       		.uleb128 0xd
 858 008a 00       		.byte	0
 859 008b 03       		.uleb128 0x3
 860 008c 0E       		.uleb128 0xe
 861 008d 3A       		.uleb128 0x3a
 862 008e 0B       		.uleb128 0xb
 863 008f 3B       		.uleb128 0x3b
 864 0090 0B       		.uleb128 0xb
 865 0091 49       		.uleb128 0x49
 866 0092 13       		.uleb128 0x13
 867 0093 0B       		.uleb128 0xb
 868 0094 0B       		.uleb128 0xb
 869 0095 0D       		.uleb128 0xd
 870 0096 0B       		.uleb128 0xb
 871 0097 0C       		.uleb128 0xc
 872 0098 0B       		.uleb128 0xb
 873 0099 38       		.uleb128 0x38
 874 009a 0B       		.uleb128 0xb
 875 009b 00       		.byte	0
 876 009c 00       		.byte	0
 877 009d 0E       		.uleb128 0xe
 878 009e 15       		.uleb128 0x15
 879 009f 01       		.byte	0x1
 880 00a0 27       		.uleb128 0x27
 881 00a1 19       		.uleb128 0x19
 882 00a2 01       		.uleb128 0x1
 883 00a3 13       		.uleb128 0x13
 884 00a4 00       		.byte	0
 885 00a5 00       		.byte	0
 886 00a6 0F       		.uleb128 0xf
 887 00a7 05       		.uleb128 0x5
 888 00a8 00       		.byte	0
 889 00a9 49       		.uleb128 0x49
ARM GAS  /tmp/ccQIg86Y.s 			page 17


 890 00aa 13       		.uleb128 0x13
 891 00ab 00       		.byte	0
 892 00ac 00       		.byte	0
 893 00ad 10       		.uleb128 0x10
 894 00ae 04       		.uleb128 0x4
 895 00af 01       		.byte	0x1
 896 00b0 0B       		.uleb128 0xb
 897 00b1 0B       		.uleb128 0xb
 898 00b2 3A       		.uleb128 0x3a
 899 00b3 0B       		.uleb128 0xb
 900 00b4 3B       		.uleb128 0x3b
 901 00b5 0B       		.uleb128 0xb
 902 00b6 01       		.uleb128 0x1
 903 00b7 13       		.uleb128 0x13
 904 00b8 00       		.byte	0
 905 00b9 00       		.byte	0
 906 00ba 11       		.uleb128 0x11
 907 00bb 28       		.uleb128 0x28
 908 00bc 00       		.byte	0
 909 00bd 03       		.uleb128 0x3
 910 00be 0E       		.uleb128 0xe
 911 00bf 1C       		.uleb128 0x1c
 912 00c0 0D       		.uleb128 0xd
 913 00c1 00       		.byte	0
 914 00c2 00       		.byte	0
 915 00c3 12       		.uleb128 0x12
 916 00c4 13       		.uleb128 0x13
 917 00c5 01       		.byte	0x1
 918 00c6 0B       		.uleb128 0xb
 919 00c7 0B       		.uleb128 0xb
 920 00c8 3A       		.uleb128 0x3a
 921 00c9 0B       		.uleb128 0xb
 922 00ca 3B       		.uleb128 0x3b
 923 00cb 0B       		.uleb128 0xb
 924 00cc 01       		.uleb128 0x1
 925 00cd 13       		.uleb128 0x13
 926 00ce 00       		.byte	0
 927 00cf 00       		.byte	0
 928 00d0 13       		.uleb128 0x13
 929 00d1 17       		.uleb128 0x17
 930 00d2 01       		.byte	0x1
 931 00d3 0B       		.uleb128 0xb
 932 00d4 0B       		.uleb128 0xb
 933 00d5 3A       		.uleb128 0x3a
 934 00d6 0B       		.uleb128 0xb
 935 00d7 3B       		.uleb128 0x3b
 936 00d8 0B       		.uleb128 0xb
 937 00d9 01       		.uleb128 0x1
 938 00da 13       		.uleb128 0x13
 939 00db 00       		.byte	0
 940 00dc 00       		.byte	0
 941 00dd 14       		.uleb128 0x14
 942 00de 0D       		.uleb128 0xd
 943 00df 00       		.byte	0
 944 00e0 49       		.uleb128 0x49
 945 00e1 13       		.uleb128 0x13
 946 00e2 00       		.byte	0
ARM GAS  /tmp/ccQIg86Y.s 			page 18


 947 00e3 00       		.byte	0
 948 00e4 15       		.uleb128 0x15
 949 00e5 2E       		.uleb128 0x2e
 950 00e6 01       		.byte	0x1
 951 00e7 3F       		.uleb128 0x3f
 952 00e8 19       		.uleb128 0x19
 953 00e9 03       		.uleb128 0x3
 954 00ea 0E       		.uleb128 0xe
 955 00eb 3A       		.uleb128 0x3a
 956 00ec 0B       		.uleb128 0xb
 957 00ed 3B       		.uleb128 0x3b
 958 00ee 0B       		.uleb128 0xb
 959 00ef 27       		.uleb128 0x27
 960 00f0 19       		.uleb128 0x19
 961 00f1 11       		.uleb128 0x11
 962 00f2 01       		.uleb128 0x1
 963 00f3 12       		.uleb128 0x12
 964 00f4 06       		.uleb128 0x6
 965 00f5 40       		.uleb128 0x40
 966 00f6 18       		.uleb128 0x18
 967 00f7 9742     		.uleb128 0x2117
 968 00f9 19       		.uleb128 0x19
 969 00fa 01       		.uleb128 0x1
 970 00fb 13       		.uleb128 0x13
 971 00fc 00       		.byte	0
 972 00fd 00       		.byte	0
 973 00fe 16       		.uleb128 0x16
 974 00ff 05       		.uleb128 0x5
 975 0100 00       		.byte	0
 976 0101 03       		.uleb128 0x3
 977 0102 0E       		.uleb128 0xe
 978 0103 3A       		.uleb128 0x3a
 979 0104 0B       		.uleb128 0xb
 980 0105 3B       		.uleb128 0x3b
 981 0106 0B       		.uleb128 0xb
 982 0107 49       		.uleb128 0x49
 983 0108 13       		.uleb128 0x13
 984 0109 02       		.uleb128 0x2
 985 010a 18       		.uleb128 0x18
 986 010b 00       		.byte	0
 987 010c 00       		.byte	0
 988 010d 17       		.uleb128 0x17
 989 010e 2E       		.uleb128 0x2e
 990 010f 01       		.byte	0x1
 991 0110 3F       		.uleb128 0x3f
 992 0111 19       		.uleb128 0x19
 993 0112 03       		.uleb128 0x3
 994 0113 0E       		.uleb128 0xe
 995 0114 3A       		.uleb128 0x3a
 996 0115 0B       		.uleb128 0xb
 997 0116 3B       		.uleb128 0x3b
 998 0117 0B       		.uleb128 0xb
 999 0118 27       		.uleb128 0x27
 1000 0119 19       		.uleb128 0x19
 1001 011a 11       		.uleb128 0x11
 1002 011b 01       		.uleb128 0x1
 1003 011c 12       		.uleb128 0x12
ARM GAS  /tmp/ccQIg86Y.s 			page 19


 1004 011d 06       		.uleb128 0x6
 1005 011e 40       		.uleb128 0x40
 1006 011f 18       		.uleb128 0x18
 1007 0120 9642     		.uleb128 0x2116
 1008 0122 19       		.uleb128 0x19
 1009 0123 01       		.uleb128 0x1
 1010 0124 13       		.uleb128 0x13
 1011 0125 00       		.byte	0
 1012 0126 00       		.byte	0
 1013 0127 18       		.uleb128 0x18
 1014 0128 34       		.uleb128 0x34
 1015 0129 00       		.byte	0
 1016 012a 03       		.uleb128 0x3
 1017 012b 0E       		.uleb128 0xe
 1018 012c 3A       		.uleb128 0x3a
 1019 012d 0B       		.uleb128 0xb
 1020 012e 3B       		.uleb128 0x3b
 1021 012f 0B       		.uleb128 0xb
 1022 0130 49       		.uleb128 0x49
 1023 0131 13       		.uleb128 0x13
 1024 0132 02       		.uleb128 0x2
 1025 0133 18       		.uleb128 0x18
 1026 0134 00       		.byte	0
 1027 0135 00       		.byte	0
 1028 0136 19       		.uleb128 0x19
 1029 0137 2E       		.uleb128 0x2e
 1030 0138 01       		.byte	0x1
 1031 0139 3F       		.uleb128 0x3f
 1032 013a 19       		.uleb128 0x19
 1033 013b 03       		.uleb128 0x3
 1034 013c 0E       		.uleb128 0xe
 1035 013d 3A       		.uleb128 0x3a
 1036 013e 0B       		.uleb128 0xb
 1037 013f 3B       		.uleb128 0x3b
 1038 0140 0B       		.uleb128 0xb
 1039 0141 27       		.uleb128 0x27
 1040 0142 19       		.uleb128 0x19
 1041 0143 49       		.uleb128 0x49
 1042 0144 13       		.uleb128 0x13
 1043 0145 11       		.uleb128 0x11
 1044 0146 01       		.uleb128 0x1
 1045 0147 12       		.uleb128 0x12
 1046 0148 06       		.uleb128 0x6
 1047 0149 40       		.uleb128 0x40
 1048 014a 18       		.uleb128 0x18
 1049 014b 9642     		.uleb128 0x2116
 1050 014d 19       		.uleb128 0x19
 1051 014e 01       		.uleb128 0x1
 1052 014f 13       		.uleb128 0x13
 1053 0150 00       		.byte	0
 1054 0151 00       		.byte	0
 1055 0152 1A       		.uleb128 0x1a
 1056 0153 34       		.uleb128 0x34
 1057 0154 00       		.byte	0
 1058 0155 03       		.uleb128 0x3
 1059 0156 0E       		.uleb128 0xe
 1060 0157 3A       		.uleb128 0x3a
ARM GAS  /tmp/ccQIg86Y.s 			page 20


 1061 0158 0B       		.uleb128 0xb
 1062 0159 3B       		.uleb128 0x3b
 1063 015a 05       		.uleb128 0x5
 1064 015b 49       		.uleb128 0x49
 1065 015c 13       		.uleb128 0x13
 1066 015d 3F       		.uleb128 0x3f
 1067 015e 19       		.uleb128 0x19
 1068 015f 3C       		.uleb128 0x3c
 1069 0160 19       		.uleb128 0x19
 1070 0161 00       		.byte	0
 1071 0162 00       		.byte	0
 1072 0163 00       		.byte	0
 1073              		.section	.debug_aranges,"",%progbits
 1074 0000 34000000 		.4byte	0x34
 1075 0004 0200     		.2byte	0x2
 1076 0006 00000000 		.4byte	.Ldebug_info0
 1077 000a 04       		.byte	0x4
 1078 000b 00       		.byte	0
 1079 000c 0000     		.2byte	0
 1080 000e 0000     		.2byte	0
 1081 0010 00000000 		.4byte	.LFB118
 1082 0014 0E000000 		.4byte	.LFE118-.LFB118
 1083 0018 00000000 		.4byte	.LFB119
 1084 001c 5C000000 		.4byte	.LFE119-.LFB119
 1085 0020 00000000 		.4byte	.LFB120
 1086 0024 58000000 		.4byte	.LFE120-.LFB120
 1087 0028 00000000 		.4byte	.LFB121
 1088 002c 44000000 		.4byte	.LFE121-.LFB121
 1089 0030 00000000 		.4byte	0
 1090 0034 00000000 		.4byte	0
 1091              		.section	.debug_ranges,"",%progbits
 1092              	.Ldebug_ranges0:
 1093 0000 00000000 		.4byte	.LFB118
 1094 0004 0E000000 		.4byte	.LFE118
 1095 0008 00000000 		.4byte	.LFB119
 1096 000c 5C000000 		.4byte	.LFE119
 1097 0010 00000000 		.4byte	.LFB120
 1098 0014 58000000 		.4byte	.LFE120
 1099 0018 00000000 		.4byte	.LFB121
 1100 001c 44000000 		.4byte	.LFE121
 1101 0020 00000000 		.4byte	0
 1102 0024 00000000 		.4byte	0
 1103              		.section	.debug_line,"",%progbits
 1104              	.Ldebug_line0:
 1105 0000 23020000 		.section	.debug_str,"MS",%progbits,1
 1105      02009A01 
 1105      00000201 
 1105      FB0E0D00 
 1105      01010101 
 1106              	.LASF3:
 1107 0000 5F5F7569 		.ascii	"__uint8_t\000"
 1107      6E74385F 
 1107      7400
 1108              	.LASF30:
 1109 000a 52544341 		.ascii	"RTCAN_MSG_READY\000"
 1109      4E5F4D53 
 1109      475F5245 
ARM GAS  /tmp/ccQIg86Y.s 			page 21


 1109      41445900 
 1110              	.LASF26:
 1111 001a 64617461 		.ascii	"data\000"
 1111      00
 1112              	.LASF44:
 1113 001f 6D736770 		.ascii	"msgp\000"
 1113      00
 1114              	.LASF6:
 1115 0024 5F5F696E 		.ascii	"__int32_t\000"
 1115      7433325F 
 1115      7400
 1116              	.LASF40:
 1117 002e 70657269 		.ascii	"period\000"
 1117      6F6400
 1118              	.LASF45:
 1119 0035 6D736771 		.ascii	"msgqueue_remove\000"
 1119      75657565 
 1119      5F72656D 
 1119      6F766500 
 1120              	.LASF5:
 1121 0045 73686F72 		.ascii	"short unsigned int\000"
 1121      7420756E 
 1121      7369676E 
 1121      65642069 
 1121      6E7400
 1122              	.LASF2:
 1123 0058 73686F72 		.ascii	"short int\000"
 1123      7420696E 
 1123      7400
 1124              	.LASF22:
 1125 0062 73746174 		.ascii	"status\000"
 1125      757300
 1126              	.LASF32:
 1127 0069 52544341 		.ascii	"RTCAN_MSG_ONAIR\000"
 1127      4E5F4D53 
 1127      475F4F4E 
 1127      41495200 
 1128              	.LASF34:
 1129 0079 52544341 		.ascii	"RTCAN_MSG_ERROR\000"
 1129      4E5F4D53 
 1129      475F4552 
 1129      524F5200 
 1130              	.LASF11:
 1131 0089 6C6F6E67 		.ascii	"long long unsigned int\000"
 1131      206C6F6E 
 1131      6720756E 
 1131      7369676E 
 1131      65642069 
 1132              	.LASF41:
 1133 00a0 6D736771 		.ascii	"msgqueue_init\000"
 1133      75657565 
 1133      5F696E69 
 1133      7400
 1134              	.LASF1:
 1135 00ae 756E7369 		.ascii	"unsigned char\000"
 1135      676E6564 
 1135      20636861 
ARM GAS  /tmp/ccQIg86Y.s 			page 22


 1135      7200
 1136              	.LASF9:
 1137 00bc 6C6F6E67 		.ascii	"long unsigned int\000"
 1137      20756E73 
 1137      69676E65 
 1137      6420696E 
 1137      7400
 1138              	.LASF47:
 1139 00ce 474E5520 		.ascii	"GNU C 4.9.3 20141119 (release) [ARM/embedded-4_9-br"
 1139      4320342E 
 1139      392E3320 
 1139      32303134 
 1139      31313139 
 1140 0101 616E6368 		.ascii	"anch revision 218278] -mcpu=cortex-m4 -mfloat-abi=h"
 1140      20726576 
 1140      6973696F 
 1140      6E203231 
 1140      38323738 
 1141 0134 61726420 		.ascii	"ard -mfpu=fpv4-sp-d16 -mno-thumb-interwork -mthumb "
 1141      2D6D6670 
 1141      753D6670 
 1141      76342D73 
 1141      702D6431 
 1142 0167 2D676764 		.ascii	"-ggdb -O0 -fomit-frame-pointer -falign-functions=16"
 1142      62202D4F 
 1142      30202D66 
 1142      6F6D6974 
 1142      2D667261 
 1143 019a 202D6666 		.ascii	" -ffunction-sections -fdata-sections -fno-common -f"
 1143      756E6374 
 1143      696F6E2D 
 1143      73656374 
 1143      696F6E73 
 1144 01cd 73696E67 		.ascii	"single-precision-constant\000"
 1144      6C652D70 
 1144      72656369 
 1144      73696F6E 
 1144      2D636F6E 
 1145              	.LASF23:
 1146 01e7 63616C6C 		.ascii	"callback\000"
 1146      6261636B 
 1146      00
 1147              	.LASF49:
 1148 01f0 66726167 		.ascii	"fragment\000"
 1148      6D656E74 
 1148      00
 1149              	.LASF51:
 1150 01f9 49544D5F 		.ascii	"ITM_RxBuffer\000"
 1150      52784275 
 1150      66666572 
 1150      00
 1151              	.LASF33:
 1152 0206 52544341 		.ascii	"RTCAN_MSG_TIMEOUT\000"
 1152      4E5F4D53 
 1152      475F5449 
 1152      4D454F55 
 1152      5400
ARM GAS  /tmp/ccQIg86Y.s 			page 23


 1153              	.LASF24:
 1154 0218 70617261 		.ascii	"params\000"
 1154      6D7300
 1155              	.LASF4:
 1156 021f 5F5F7569 		.ascii	"__uint16_t\000"
 1156      6E743136 
 1156      5F7400
 1157              	.LASF35:
 1158 022a 72746361 		.ascii	"rtcan_msgstatus_t\000"
 1158      6E5F6D73 
 1158      67737461 
 1158      7475735F 
 1158      7400
 1159              	.LASF43:
 1160 023c 71756575 		.ascii	"queuep\000"
 1160      657000
 1161              	.LASF8:
 1162 0243 5F5F7569 		.ascii	"__uint32_t\000"
 1162      6E743332 
 1162      5F7400
 1163              	.LASF20:
 1164 024e 72746361 		.ascii	"rtcan_msg_t\000"
 1164      6E5F6D73 
 1164      675F7400 
 1165              	.LASF46:
 1166 025a 63757272 		.ascii	"curr_msgp\000"
 1166      5F6D7367 
 1166      7000
 1167              	.LASF36:
 1168 0264 72746361 		.ascii	"rtcan_id_t\000"
 1168      6E5F6964 
 1168      5F7400
 1169              	.LASF12:
 1170 026f 756E7369 		.ascii	"unsigned int\000"
 1170      676E6564 
 1170      20696E74 
 1170      00
 1171              	.LASF42:
 1172 027c 6D736771 		.ascii	"msgqueue_insert\000"
 1172      75657565 
 1172      5F696E73 
 1172      65727400 
 1173              	.LASF19:
 1174 028c 63686172 		.ascii	"char\000"
 1174      00
 1175              	.LASF13:
 1176 0291 75696E74 		.ascii	"uint8_t\000"
 1176      385F7400 
 1177              	.LASF31:
 1178 0299 52544341 		.ascii	"RTCAN_MSG_QUEUED\000"
 1178      4E5F4D53 
 1178      475F5155 
 1178      45554544 
 1178      00
 1179              	.LASF39:
 1180 02aa 736C6F74 		.ascii	"slot\000"
 1180      00
ARM GAS  /tmp/ccQIg86Y.s 			page 24


 1181              	.LASF15:
 1182 02af 696E7433 		.ascii	"int32_t\000"
 1182      325F7400 
 1183              	.LASF18:
 1184 02b7 73697A65 		.ascii	"sizetype\000"
 1184      74797065 
 1184      00
 1185              	.LASF10:
 1186 02c0 6C6F6E67 		.ascii	"long long int\000"
 1186      206C6F6E 
 1186      6720696E 
 1186      7400
 1187              	.LASF29:
 1188 02ce 52544341 		.ascii	"RTCAN_MSG_BUSY\000"
 1188      4E5F4D53 
 1188      475F4255 
 1188      535900
 1189              	.LASF38:
 1190 02dd 64656164 		.ascii	"deadline\000"
 1190      6C696E65 
 1190      00
 1191              	.LASF37:
 1192 02e6 6D736771 		.ascii	"msgqueue_t\000"
 1192      75657565 
 1192      5F7400
 1193              	.LASF14:
 1194 02f1 75696E74 		.ascii	"uint16_t\000"
 1194      31365F74 
 1194      00
 1195              	.LASF16:
 1196 02fa 75696E74 		.ascii	"uint32_t\000"
 1196      33325F74 
 1196      00
 1197              	.LASF7:
 1198 0303 6C6F6E67 		.ascii	"long int\000"
 1198      20696E74 
 1198      00
 1199              	.LASF48:
 1200 030c 2F686F6D 		.ascii	"/home/denny/r2p-sdk/core/RTCAN/src/msgqueue.c\000"
 1200      652F6465 
 1200      6E6E792F 
 1200      7232702D 
 1200      73646B2F 
 1201              	.LASF28:
 1202 033a 52544341 		.ascii	"RTCAN_MSG_UNINIT\000"
 1202      4E5F4D53 
 1202      475F554E 
 1202      494E4954 
 1202      00
 1203              	.LASF27:
 1204 034b 72746361 		.ascii	"rtcan_msgcallback_t\000"
 1204      6E5F6D73 
 1204      6763616C 
 1204      6C626163 
 1204      6B5F7400 
 1205              	.LASF0:
 1206 035f 7369676E 		.ascii	"signed char\000"
ARM GAS  /tmp/ccQIg86Y.s 			page 25


 1206      65642063 
 1206      68617200 
 1207              	.LASF21:
 1208 036b 6E657874 		.ascii	"next\000"
 1208      00
 1209              	.LASF25:
 1210 0370 73697A65 		.ascii	"size\000"
 1210      00
 1211              	.LASF17:
 1212 0375 5F426F6F 		.ascii	"_Bool\000"
 1212      6C00
 1213              	.LASF50:
 1214 037b 6D736771 		.ascii	"msgqueue_get\000"
 1214      75657565 
 1214      5F676574 
 1214      00
 1215              		.ident	"GCC: (GNU Tools for ARM Embedded Processors) 4.9.3 20141119 (release) [ARM/embedded-4_9-br
ARM GAS  /tmp/ccQIg86Y.s 			page 26


DEFINED SYMBOLS
                            *ABS*:00000000 msgqueue.c
     /tmp/ccQIg86Y.s:21     .text.msgqueue_init:00000000 $t
     /tmp/ccQIg86Y.s:27     .text.msgqueue_init:00000000 msgqueue_init
     /tmp/ccQIg86Y.s:51     .rodata:00000000 $d
     /tmp/ccQIg86Y.s:55     .text.msgqueue_insert:00000000 $t
     /tmp/ccQIg86Y.s:61     .text.msgqueue_insert:00000000 msgqueue_insert
     /tmp/ccQIg86Y.s:132    .text.msgqueue_insert:00000058 $d
     /tmp/ccQIg86Y.s:144    .text.msgqueue_remove:00000000 $t
     /tmp/ccQIg86Y.s:150    .text.msgqueue_remove:00000000 msgqueue_remove
     /tmp/ccQIg86Y.s:216    .text.msgqueue_remove:00000050 $d
     /tmp/ccQIg86Y.s:229    .text.msgqueue_get:00000000 $t
     /tmp/ccQIg86Y.s:235    .text.msgqueue_get:00000000 msgqueue_get
     /tmp/ccQIg86Y.s:285    .text.msgqueue_get:0000003c $d
                     .debug_frame:00000010 $d
     /tmp/ccQIg86Y.s:136    .text.msgqueue_insert:0000005c $t
     /tmp/ccQIg86Y.s:221    .text.msgqueue_remove:00000058 $t
     /tmp/ccQIg86Y.s:290    .text.msgqueue_get:00000044 $t

UNDEFINED SYMBOLS
chDbgPanic
