ARM GAS  /tmp/ccEqqsv5.s 			page 1


   1              		.syntax unified
   2              		.cpu cortex-m4
   3              		.eabi_attribute 27, 3
   4              		.eabi_attribute 28, 1
   5              		.fpu fpv4-sp-d16
   6              		.eabi_attribute 20, 1
   7              		.eabi_attribute 21, 1
   8              		.eabi_attribute 23, 3
   9              		.eabi_attribute 24, 1
  10              		.eabi_attribute 25, 1
  11              		.eabi_attribute 26, 1
  12              		.eabi_attribute 30, 6
  13              		.eabi_attribute 34, 1
  14              		.eabi_attribute 18, 4
  15              		.thumb
  16              		.file	"nvic.c"
  17              		.text
  18              	.Ltext0:
  19              		.cfi_sections	.debug_frame
  20              		.section	.text.nvicEnableVector,"ax",%progbits
  21              		.align	2
  22              		.p2align 4,,15
  23              		.global	nvicEnableVector
  24              		.thumb
  25              		.thumb_func
  26              		.type	nvicEnableVector, %function
  27              	nvicEnableVector:
  28              	.LFB7:
  29              		.file 1 "/home/ergae/r2p-sdk/core/ChibiOS/os/ports/common/ARMCMx/nvic.c"
  30              		.loc 1 46 0
  31              		.cfi_startproc
  32              		@ args = 0, pretend = 0, frame = 16
  33              		@ frame_needed = 0, uses_anonymous_args = 0
  34              		@ link register save eliminated.
  35 0000 10B4     		push	{r4}
  36              		.cfi_def_cfa_offset 4
  37              		.cfi_offset 4, -4
  38 0002 85B0     		sub	sp, sp, #20
  39              		.cfi_def_cfa_offset 24
  40 0004 0190     		str	r0, [sp, #4]
  41 0006 0091     		str	r1, [sp]
  42              		.loc 1 47 0
  43 0008 019B     		ldr	r3, [sp, #4]
  44 000a 03F00303 		and	r3, r3, #3
  45 000e DB00     		lsls	r3, r3, #3
  46 0010 0393     		str	r3, [sp, #12]
  47              		.loc 1 49 0
  48 0012 194C     		ldr	r4, .L2
  49 0014 019B     		ldr	r3, [sp, #4]
  50 0016 9B08     		lsrs	r3, r3, #2
  51 0018 1749     		ldr	r1, .L2
  52 001a 019A     		ldr	r2, [sp, #4]
  53 001c 9208     		lsrs	r2, r2, #2
  54 001e C032     		adds	r2, r2, #192
  55 0020 51F82220 		ldr	r2, [r1, r2, lsl #2]
  56 0024 0399     		ldr	r1, [sp, #12]
  57 0026 FF20     		movs	r0, #255
ARM GAS  /tmp/ccEqqsv5.s 			page 2


  58 0028 00FA01F1 		lsl	r1, r0, r1
  59 002c C943     		mvns	r1, r1
  60 002e 1140     		ands	r1, r1, r2
  61 0030 039A     		ldr	r2, [sp, #12]
  62 0032 0098     		ldr	r0, [sp]
  63 0034 00FA02F2 		lsl	r2, r0, r2
  64 0038 0A43     		orrs	r2, r2, r1
  65 003a C033     		adds	r3, r3, #192
  66 003c 44F82320 		str	r2, [r4, r3, lsl #2]
  67              		.loc 1 50 0
  68 0040 0D49     		ldr	r1, .L2
  69 0042 019B     		ldr	r3, [sp, #4]
  70 0044 5B09     		lsrs	r3, r3, #5
  71 0046 019A     		ldr	r2, [sp, #4]
  72 0048 02F01F02 		and	r2, r2, #31
  73 004c 0120     		movs	r0, #1
  74 004e 00FA02F2 		lsl	r2, r0, r2
  75 0052 6033     		adds	r3, r3, #96
  76 0054 41F82320 		str	r2, [r1, r3, lsl #2]
  77              		.loc 1 51 0
  78 0058 0749     		ldr	r1, .L2
  79 005a 019B     		ldr	r3, [sp, #4]
  80 005c 5B09     		lsrs	r3, r3, #5
  81 005e 019A     		ldr	r2, [sp, #4]
  82 0060 02F01F02 		and	r2, r2, #31
  83 0064 0120     		movs	r0, #1
  84 0066 00FA02F2 		lsl	r2, r0, r2
  85 006a 41F82320 		str	r2, [r1, r3, lsl #2]
  86              		.loc 1 52 0
  87 006e 05B0     		add	sp, sp, #20
  88              		.cfi_def_cfa_offset 4
  89              		@ sp needed
  90 0070 5DF8044B 		ldr	r4, [sp], #4
  91              		.cfi_restore 4
  92              		.cfi_def_cfa_offset 0
  93 0074 7047     		bx	lr
  94              	.L3:
  95 0076 00BF     		.align	2
  96              	.L2:
  97 0078 00E100E0 		.word	-536813312
  98              		.cfi_endproc
  99              	.LFE7:
 100              		.size	nvicEnableVector, .-nvicEnableVector
 101 007c AFF30080 		.section	.text.nvicDisableVector,"ax",%progbits
 102              		.align	2
 103              		.p2align 4,,15
 104              		.global	nvicDisableVector
 105              		.thumb
 106              		.thumb_func
 107              		.type	nvicDisableVector, %function
 108              	nvicDisableVector:
 109              	.LFB8:
 110              		.loc 1 60 0
 111              		.cfi_startproc
 112              		@ args = 0, pretend = 0, frame = 16
 113              		@ frame_needed = 0, uses_anonymous_args = 0
 114              		@ link register save eliminated.
ARM GAS  /tmp/ccEqqsv5.s 			page 3


 115 0000 10B4     		push	{r4}
 116              		.cfi_def_cfa_offset 4
 117              		.cfi_offset 4, -4
 118 0002 85B0     		sub	sp, sp, #20
 119              		.cfi_def_cfa_offset 24
 120 0004 0190     		str	r0, [sp, #4]
 121              		.loc 1 61 0
 122 0006 019B     		ldr	r3, [sp, #4]
 123 0008 03F00303 		and	r3, r3, #3
 124 000c DB00     		lsls	r3, r3, #3
 125 000e 0393     		str	r3, [sp, #12]
 126              		.loc 1 63 0
 127 0010 1049     		ldr	r1, .L5
 128 0012 019B     		ldr	r3, [sp, #4]
 129 0014 5B09     		lsrs	r3, r3, #5
 130 0016 019A     		ldr	r2, [sp, #4]
 131 0018 02F01F02 		and	r2, r2, #31
 132 001c 0120     		movs	r0, #1
 133 001e 00FA02F2 		lsl	r2, r0, r2
 134 0022 2033     		adds	r3, r3, #32
 135 0024 41F82320 		str	r2, [r1, r3, lsl #2]
 136              		.loc 1 64 0
 137 0028 0A48     		ldr	r0, .L5
 138 002a 019B     		ldr	r3, [sp, #4]
 139 002c 9B08     		lsrs	r3, r3, #2
 140 002e 0949     		ldr	r1, .L5
 141 0030 019A     		ldr	r2, [sp, #4]
 142 0032 9208     		lsrs	r2, r2, #2
 143 0034 C032     		adds	r2, r2, #192
 144 0036 51F82220 		ldr	r2, [r1, r2, lsl #2]
 145 003a 0399     		ldr	r1, [sp, #12]
 146 003c FF24     		movs	r4, #255
 147 003e 04FA01F1 		lsl	r1, r4, r1
 148 0042 C943     		mvns	r1, r1
 149 0044 0A40     		ands	r2, r2, r1
 150 0046 C033     		adds	r3, r3, #192
 151 0048 40F82320 		str	r2, [r0, r3, lsl #2]
 152              		.loc 1 65 0
 153 004c 05B0     		add	sp, sp, #20
 154              		.cfi_def_cfa_offset 4
 155              		@ sp needed
 156 004e 5DF8044B 		ldr	r4, [sp], #4
 157              		.cfi_restore 4
 158              		.cfi_def_cfa_offset 0
 159 0052 7047     		bx	lr
 160              	.L6:
 161              		.align	2
 162              	.L5:
 163 0054 00E100E0 		.word	-536813312
 164              		.cfi_endproc
 165              	.LFE8:
 166              		.size	nvicDisableVector, .-nvicDisableVector
 167 0058 AFF30080 		.section	.text.nvicSetSystemHandlerPriority,"ax",%progbits
 167      AFF30080 
 168              		.align	2
 169              		.p2align 4,,15
 170              		.global	nvicSetSystemHandlerPriority
ARM GAS  /tmp/ccEqqsv5.s 			page 4


 171              		.thumb
 172              		.thumb_func
 173              		.type	nvicSetSystemHandlerPriority, %function
 174              	nvicSetSystemHandlerPriority:
 175              	.LFB9:
 176              		.loc 1 74 0
 177              		.cfi_startproc
 178              		@ args = 0, pretend = 0, frame = 16
 179              		@ frame_needed = 0, uses_anonymous_args = 0
 180              		@ link register save eliminated.
 181 0000 10B4     		push	{r4}
 182              		.cfi_def_cfa_offset 4
 183              		.cfi_offset 4, -4
 184 0002 85B0     		sub	sp, sp, #20
 185              		.cfi_def_cfa_offset 24
 186 0004 0190     		str	r0, [sp, #4]
 187 0006 0091     		str	r1, [sp]
 188              		.loc 1 75 0
 189 0008 019B     		ldr	r3, [sp, #4]
 190 000a 03F00303 		and	r3, r3, #3
 191 000e DB00     		lsls	r3, r3, #3
 192 0010 0393     		str	r3, [sp, #12]
 193              		.loc 1 77 0
 194 0012 0D4C     		ldr	r4, .L8
 195 0014 019B     		ldr	r3, [sp, #4]
 196 0016 9B08     		lsrs	r3, r3, #2
 197 0018 0B49     		ldr	r1, .L8
 198 001a 019A     		ldr	r2, [sp, #4]
 199 001c 9208     		lsrs	r2, r2, #2
 200 001e 0632     		adds	r2, r2, #6
 201 0020 51F82220 		ldr	r2, [r1, r2, lsl #2]
 202              		.loc 1 78 0
 203 0024 0399     		ldr	r1, [sp, #12]
 204 0026 FF20     		movs	r0, #255
 205 0028 00FA01F1 		lsl	r1, r0, r1
 206 002c C943     		mvns	r1, r1
 207              		.loc 1 77 0
 208 002e 1140     		ands	r1, r1, r2
 209              		.loc 1 78 0
 210 0030 039A     		ldr	r2, [sp, #12]
 211 0032 0098     		ldr	r0, [sp]
 212 0034 00FA02F2 		lsl	r2, r0, r2
 213 0038 0A43     		orrs	r2, r2, r1
 214              		.loc 1 77 0
 215 003a 0633     		adds	r3, r3, #6
 216 003c 44F82320 		str	r2, [r4, r3, lsl #2]
 217              		.loc 1 79 0
 218 0040 05B0     		add	sp, sp, #20
 219              		.cfi_def_cfa_offset 4
 220              		@ sp needed
 221 0042 5DF8044B 		ldr	r4, [sp], #4
 222              		.cfi_restore 4
 223              		.cfi_def_cfa_offset 0
 224 0046 7047     		bx	lr
 225              	.L9:
 226              		.align	2
 227              	.L8:
ARM GAS  /tmp/ccEqqsv5.s 			page 5


 228 0048 00ED00E0 		.word	-536810240
 229              		.cfi_endproc
 230              	.LFE9:
 231              		.size	nvicSetSystemHandlerPriority, .-nvicSetSystemHandlerPriority
 232 004c AFF30080 		.text
 233              	.Letext0:
 234              		.file 2 "/home/ergae/r2p-sdk/tools/gcc-arm-none-eabi-4_9-2014q4/arm-none-eabi/include/machine/_def
 235              		.file 3 "/home/ergae/r2p-sdk/tools/gcc-arm-none-eabi-4_9-2014q4/arm-none-eabi/include/stdint.h"
 236              		.file 4 "/home/ergae/r2p-sdk/core/ChibiOS/os/ports/common/ARMCMx/nvic.h"