ARM GAS  /tmp/ccimbKDb.s 			page 1


   1              		.syntax unified
   2              		.cpu cortex-m4
   3              		.eabi_attribute 27, 3
   4              		.eabi_attribute 28, 1
   5              		.fpu fpv4-sp-d16
   6              		.eabi_attribute 20, 1
   7              		.eabi_attribute 21, 1
   8              		.eabi_attribute 23, 3
   9              		.eabi_attribute 24, 1
  10              		.eabi_attribute 25, 1
  11              		.eabi_attribute 26, 1
  12              		.eabi_attribute 30, 6
  13              		.eabi_attribute 34, 1
  14              		.eabi_attribute 18, 4
  15              		.thumb
  16              		.file	"pixy_node.cpp"
  17              		.text
  18              	.Ltext0:
  19              		.cfi_sections	.debug_frame
  20              		.section	.text._ZNK3r2p4Time8to_s_rawEv,"axG",%progbits,_ZNK3r2p4Time8to_s_rawEv,comdat
  21              		.align	2
  22              		.p2align 4,,15
  23              		.weak	_ZNK3r2p4Time8to_s_rawEv
  24              		.thumb
  25              		.thumb_func
  26              		.type	_ZNK3r2p4Time8to_s_rawEv, %function
  27              	_ZNK3r2p4Time8to_s_rawEv:
  28              	.LFB256:
  29              		.file 1 "/home/denny/r2p-sdk/core/Middleware/include/r2p/Time.hpp"
  30              		.loc 1 89 0
  31              		.cfi_startproc
  32              		@ args = 0, pretend = 0, frame = 8
  33              		@ frame_needed = 0, uses_anonymous_args = 0
  34              		@ link register save eliminated.
  35 0000 82B0     		sub	sp, sp, #8
  36              		.cfi_def_cfa_offset 8
  37 0002 0190     		str	r0, [sp, #4]
  38              		.loc 1 91 0
  39 0004 019B     		ldr	r3, [sp, #4]
  40 0006 1B68     		ldr	r3, [r3]
  41 0008 044A     		ldr	r2, .L3
  42 000a 82FB0312 		smull	r1, r2, r2, r3
  43 000e 9214     		asrs	r2, r2, #18
  44 0010 DB17     		asrs	r3, r3, #31
  45 0012 D31A     		subs	r3, r2, r3
  46              		.loc 1 92 0
  47 0014 1846     		mov	r0, r3
  48 0016 02B0     		add	sp, sp, #8
  49              		.cfi_def_cfa_offset 0
  50              		@ sp needed
  51 0018 7047     		bx	lr
  52              	.L4:
  53 001a 00BF     		.align	2
  54              	.L3:
  55 001c 83DE1B43 		.word	1125899907
  56              		.cfi_endproc
  57              	.LFE256:
ARM GAS  /tmp/ccimbKDb.s 			page 2


  58              		.size	_ZNK3r2p4Time8to_s_rawEv, .-_ZNK3r2p4Time8to_s_rawEv
  59              		.section	.text._ZN3r2p4Time2msEl,"axG",%progbits,_ZN3r2p4Time2msEl,comdat
  60              		.align	2
  61              		.p2align 4,,15
  62              		.weak	_ZN3r2p4Time2msEl
  63              		.thumb
  64              		.thumb_func
  65              		.type	_ZN3r2p4Time2msEl, %function
  66              	_ZN3r2p4Time2msEl:
  67              	.LFB276:
  68              		.loc 1 184 0
  69              		.cfi_startproc
  70              		@ args = 0, pretend = 0, frame = 8
  71              		@ frame_needed = 0, uses_anonymous_args = 0
  72 0000 00B5     		push	{lr}
  73              		.cfi_def_cfa_offset 4
  74              		.cfi_offset 14, -4
  75 0002 83B0     		sub	sp, sp, #12
  76              		.cfi_def_cfa_offset 16
  77 0004 0190     		str	r0, [sp, #4]
  78 0006 0091     		str	r1, [sp]
  79              		.loc 1 186 0
  80 0008 009B     		ldr	r3, [sp]
  81 000a 4FF47A72 		mov	r2, #1000
  82 000e 02FB03F3 		mul	r3, r2, r3
  83 0012 0198     		ldr	r0, [sp, #4]
  84 0014 1946     		mov	r1, r3
  85 0016 FFF7FEFF 		bl	_ZN3r2p4TimeC1IlEET_
  86              		.loc 1 187 0
  87 001a 0198     		ldr	r0, [sp, #4]
  88 001c 03B0     		add	sp, sp, #12
  89              		.cfi_def_cfa_offset 4
  90              		@ sp needed
  91 001e 5DF804FB 		ldr	pc, [sp], #4
  92              		.cfi_endproc
  93              	.LFE276:
  94              		.size	_ZN3r2p4Time2msEl, .-_ZN3r2p4Time2msEl
  95 0022 00BFAFF3 		.section	.text._ZN3r2p7Thread_5sleepERKNS_4TimeE,"axG",%progbits,_ZN3r2p7Thread_5sleepERKNS_4TimeE
  95      0080AFF3 
  95      0080AFF3 
  95      0080
  96              		.align	2
  97              		.p2align 4,,15
  98              		.weak	_ZN3r2p7Thread_5sleepERKNS_4TimeE
  99              		.thumb
 100              		.thumb_func
 101              		.type	_ZN3r2p7Thread_5sleepERKNS_4TimeE, %function
 102              	_ZN3r2p7Thread_5sleepERKNS_4TimeE:
 103              	.LFB340:
 104              		.file 2 "/home/denny/r2p-sdk/core/Middleware/port/chibios/include/r2p/impl/Thread_.hpp"
 105              		.loc 2 180 0
 106              		.cfi_startproc
 107              		@ args = 0, pretend = 0, frame = 8
 108              		@ frame_needed = 0, uses_anonymous_args = 0
 109 0000 00B5     		push	{lr}
 110              		.cfi_def_cfa_offset 4
 111              		.cfi_offset 14, -4
ARM GAS  /tmp/ccimbKDb.s 			page 3


 112 0002 83B0     		sub	sp, sp, #12
 113              		.cfi_def_cfa_offset 16
 114 0004 0190     		str	r0, [sp, #4]
 115              		.loc 2 182 0
 116 0006 019B     		ldr	r3, [sp, #4]
 117 0008 1B68     		ldr	r3, [r3]
 118 000a 002B     		cmp	r3, #0
 119 000c 21DD     		ble	.L8
 120              		.loc 2 183 0
 121 000e 019B     		ldr	r3, [sp, #4]
 122 0010 1B68     		ldr	r3, [r3]
 123 0012 124A     		ldr	r2, .L12
 124 0014 9342     		cmp	r3, r2
 125 0016 10DC     		bgt	.L9
 126              		.loc 2 184 0
 127 0018 019B     		ldr	r3, [sp, #4]
 128 001a 1B68     		ldr	r3, [r3]
 129 001c 1A46     		mov	r2, r3
 130 001e 4FF47A73 		mov	r3, #1000
 131 0022 03FB02F3 		mul	r3, r3, r2
 132 0026 013B     		subs	r3, r3, #1
 133 0028 0D4A     		ldr	r2, .L12+4
 134 002a A2FB0323 		umull	r2, r3, r2, r3
 135 002e 9B0C     		lsrs	r3, r3, #18
 136 0030 0133     		adds	r3, r3, #1
 137 0032 1846     		mov	r0, r3
 138 0034 FFF7FEFF 		bl	chThdSleep
 139 0038 0DE0     		b	.L7
 140              	.L9:
 141              		.loc 2 186 0
 142 003a 0198     		ldr	r0, [sp, #4]
 143 003c FFF7FEFF 		bl	_ZNK3r2p4Time8to_s_rawEv
 144 0040 0246     		mov	r2, r0
 145 0042 4FF47A73 		mov	r3, #1000
 146 0046 03FB02F3 		mul	r3, r3, r2
 147 004a 1846     		mov	r0, r3
 148 004c FFF7FEFF 		bl	chThdSleep
 149 0050 01E0     		b	.L7
 150              	.L8:
 151              		.loc 2 189 0
 152 0052 FFF7FEFF 		bl	chThdYield
 153              	.L7:
 154              		.loc 2 191 0
 155 0056 03B0     		add	sp, sp, #12
 156              		.cfi_def_cfa_offset 4
 157              		@ sp needed
 158 0058 5DF804FB 		ldr	pc, [sp], #4
 159              	.L13:
 160              		.align	2
 161              	.L12:
 162 005c 3F420F00 		.word	999999
 163 0060 83DE1B43 		.word	1125899907
 164              		.cfi_endproc
 165              	.LFE340:
 166              		.size	_ZN3r2p7Thread_5sleepERKNS_4TimeE, .-_ZN3r2p7Thread_5sleepERKNS_4TimeE
 167 0064 AFF30080 		.section	.text._ZN3r2p6Thread5sleepERKNS_4TimeE,"axG",%progbits,_ZN3r2p6Thread5sleepERKNS_4TimeE,c
 167      AFF30080 
ARM GAS  /tmp/ccimbKDb.s 			page 4


 167      AFF30080 
 168              		.align	2
 169              		.p2align 4,,15
 170              		.weak	_ZN3r2p6Thread5sleepERKNS_4TimeE
 171              		.thumb
 172              		.thumb_func
 173              		.type	_ZN3r2p6Thread5sleepERKNS_4TimeE, %function
 174              	_ZN3r2p6Thread5sleepERKNS_4TimeE:
 175              	.LFB351:
 176              		.file 3 "/home/denny/r2p-sdk/core/Middleware/include/r2p/Thread.hpp"
 177              		.loc 3 140 0
 178              		.cfi_startproc
 179              		@ args = 0, pretend = 0, frame = 8
 180              		@ frame_needed = 0, uses_anonymous_args = 0
 181 0000 00B5     		push	{lr}
 182              		.cfi_def_cfa_offset 4
 183              		.cfi_offset 14, -4
 184 0002 83B0     		sub	sp, sp, #12
 185              		.cfi_def_cfa_offset 16
 186 0004 0190     		str	r0, [sp, #4]
 187              		.loc 3 142 0
 188 0006 0198     		ldr	r0, [sp, #4]
 189 0008 FFF7FEFF 		bl	_ZN3r2p7Thread_5sleepERKNS_4TimeE
 190              		.loc 3 143 0
 191 000c 03B0     		add	sp, sp, #12
 192              		.cfi_def_cfa_offset 4
 193              		@ sp needed
 194 000e 5DF804FB 		ldr	pc, [sp], #4
 195              		.cfi_endproc
 196              	.LFE351:
 197              		.size	_ZN3r2p6Thread5sleepERKNS_4TimeE, .-_ZN3r2p6Thread5sleepERKNS_4TimeE
 198 0012 00BFAFF3 		.section	.data._ZL10uart_cfg_1,"aw",%progbits
 198      0080AFF3 
 198      0080AFF3 
 198      0080
 199              		.align	2
 200              		.type	_ZL10uart_cfg_1, %object
 201              		.size	_ZL10uart_cfg_1, 36
 202              	_ZL10uart_cfg_1:
 203 0000 00000000 		.word	0
 204 0004 00000000 		.word	0
 205 0008 00000000 		.word	0
 206 000c 00000000 		.word	0
 207 0010 00000000 		.word	0
 208 0014 004B0000 		.word	19200
 209 0018 00000000 		.word	0
 210 001c 00400000 		.word	16384
 211 0020 00000000 		.word	0
 212              		.section	.rodata
 213              		.align	2
 214              	.LC0:
 215 0000 70697879 		.ascii	"pixy\000"
 215      00
 216 0005 000000   		.section	.text._Z9pixy_nodePv,"ax",%progbits
 217              		.align	2
 218              		.p2align 4,,15
 219              		.global	_Z9pixy_nodePv
ARM GAS  /tmp/ccimbKDb.s 			page 5


 220              		.thumb
 221              		.thumb_func
 222              		.type	_Z9pixy_nodePv, %function
 223              	_Z9pixy_nodePv:
 224              	.LFB596:
 225              		.file 4 "nodes/pixy_node.cpp"
 226              		.loc 4 24 0
 227              		.cfi_startproc
 228              		@ args = 0, pretend = 0, frame = 56
 229              		@ frame_needed = 0, uses_anonymous_args = 0
 230 0000 00B5     		push	{lr}
 231              		.cfi_def_cfa_offset 4
 232              		.cfi_offset 14, -4
 233 0002 8FB0     		sub	sp, sp, #60
 234              		.cfi_def_cfa_offset 64
 235 0004 0190     		str	r0, [sp, #4]
 236              	.LBB2:
 237              		.loc 4 25 0
 238 0006 06AB     		add	r3, sp, #24
 239 0008 1846     		mov	r0, r3
 240 000a 0C49     		ldr	r1, .L17
 241 000c 0122     		movs	r2, #1
 242 000e FFF7FEFF 		bl	_ZN3r2p4NodeC1EPKcb
 243              		.loc 4 26 0
 244 0012 0B48     		ldr	r0, .L17+4
 245 0014 0B49     		ldr	r1, .L17+8
 246 0016 FFF7FEFF 		bl	uartStart
 247              	.L16:
 248              		.loc 4 31 0 discriminator 1
 249 001a 02AB     		add	r3, sp, #8
 250 001c 0848     		ldr	r0, .L17+4
 251 001e 0E21     		movs	r1, #14
 252 0020 1A46     		mov	r2, r3
 253 0022 FFF7FEFF 		bl	uartStartReceive
 254              		.loc 4 32 0 discriminator 1
 255 0026 0DAB     		add	r3, sp, #52
 256 0028 1846     		mov	r0, r3
 257 002a 4FF4FA71 		mov	r1, #500
 258 002e FFF7FEFF 		bl	_ZN3r2p4Time2msEl
 259 0032 0DAB     		add	r3, sp, #52
 260 0034 1846     		mov	r0, r3
 261 0036 FFF7FEFF 		bl	_ZN3r2p6Thread5sleepERKNS_4TimeE
 262 003a EEE7     		b	.L16
 263              	.L18:
 264              		.align	2
 265              	.L17:
 266 003c 00000000 		.word	.LC0
 267 0040 00000000 		.word	UARTD3
 268 0044 00000000 		.word	_ZL10uart_cfg_1
 269              	.LBE2:
 270              		.cfi_endproc
 271              	.LFE596:
 272              		.size	_Z9pixy_nodePv, .-_Z9pixy_nodePv
 273 0048 AFF30080 		.section	.text._ZN3r2p4TimeC2IlEET_,"axG",%progbits,_ZN3r2p4TimeC5IlEET_,comdat
 273      AFF30080 
 274              		.align	2
 275              		.p2align 4,,15
ARM GAS  /tmp/ccimbKDb.s 			page 6


 276              		.weak	_ZN3r2p4TimeC2IlEET_
 277              		.thumb
 278              		.thumb_func
 279              		.type	_ZN3r2p4TimeC2IlEET_, %function
 280              	_ZN3r2p4TimeC2IlEET_:
 281              	.LFB598:
 282              		.loc 1 159 0
 283              		.cfi_startproc
 284              		@ args = 0, pretend = 0, frame = 8
 285              		@ frame_needed = 0, uses_anonymous_args = 0
 286              		@ link register save eliminated.
 287 0000 82B0     		sub	sp, sp, #8
 288              		.cfi_def_cfa_offset 8
 289 0002 0190     		str	r0, [sp, #4]
 290 0004 0091     		str	r1, [sp]
 291              	.LBB3:
 292              		.loc 1 161 0
 293 0006 019B     		ldr	r3, [sp, #4]
 294 0008 009A     		ldr	r2, [sp]
 295 000a 1A60     		str	r2, [r3]
 296              	.LBE3:
 297              		.loc 1 162 0
 298 000c 019B     		ldr	r3, [sp, #4]
 299 000e 1846     		mov	r0, r3
 300 0010 02B0     		add	sp, sp, #8
 301              		.cfi_def_cfa_offset 0
 302              		@ sp needed
 303 0012 7047     		bx	lr
 304              		.cfi_endproc
 305              	.LFE598:
 306              		.size	_ZN3r2p4TimeC2IlEET_, .-_ZN3r2p4TimeC2IlEET_
 307              		.weak	_ZN3r2p4TimeC1IlEET_
 308              		.thumb_set _ZN3r2p4TimeC1IlEET_,_ZN3r2p4TimeC2IlEET_
 309 0014 AFF30080 		.text
 309      AFF30080 
 309      AFF30080 
 310              	.Letext0:
 311              		.file 5 "/home/denny/r2p-sdk/tools/gcc-arm-none-eabi-4_9-2014q4/lib/gcc/arm-none-eabi/4.9.3/includ
 312              		.file 6 "/home/denny/r2p-sdk/tools/gcc-arm-none-eabi-4_9-2014q4/arm-none-eabi/include/machine/_def
 313              		.file 7 "/home/denny/r2p-sdk/tools/gcc-arm-none-eabi-4_9-2014q4/arm-none-eabi/include/stdint.h"
 314              		.file 8 "/home/denny/r2p-sdk/core/ChibiOS/os/ports/GCC/ARMCMx/chtypes.h"
 315              		.file 9 "/home/denny/r2p-sdk/core/ChibiOS/os/kernel/include/chlists.h"
 316              		.file 10 "/home/denny/r2p-sdk/core/ChibiOS/os/kernel/include/chthreads.h"
 317              		.file 11 "/home/denny/r2p-sdk/core/ChibiOS/os/ports/GCC/ARMCMx/chcore_v7m.h"
 318              		.file 12 "/home/denny/r2p-sdk/core/ChibiOS/os/kernel/include/chschd.h"
 319              		.file 13 "/home/denny/r2p-sdk/core/ChibiOS/os/kernel/include/chmtx.h"
 320              		.file 14 "/home/denny/r2p-sdk/core/ChibiOS/os/kernel/include/chmemcore.h"
 321              		.file 15 "/home/denny/r2p-sdk/core/ChibiOS/os/kernel/include/chmempools.h"
 322              		.file 16 "/home/denny/r2p-sdk/core/ChibiOS/os/hal/platforms/STM32F30x/stm32f30x.h"
 323              		.file 17 "/home/denny/r2p-sdk/core/ChibiOS/os/hal/platforms/STM32F30x/stm32_dma.h"
 324              		.file 18 "/home/denny/r2p-sdk/core/ChibiOS/os/hal/include/uart.h"
 325              		.file 19 "/home/denny/r2p-sdk/core/ChibiOS/os/hal/platforms/STM32/USARTv2/uart_lld.h"
 326              		.file 20 "/home/denny/r2p-sdk/tools/gcc-arm-none-eabi-4_9-2014q4/arm-none-eabi/include/c++/4.9.3/c
 327              		.file 21 "/home/denny/r2p-sdk/tools/gcc-arm-none-eabi-4_9-2014q4/arm-none-eabi/include/string.h"
 328              		.file 22 "<built-in>"
 329              		.file 23 "/home/denny/r2p-sdk/core/Middleware/include/r2p/Uncopyable.hpp"
 330              		.file 24 "/home/denny/r2p-sdk/core/Middleware/port/chibios/include/r2p/impl/MemoryPool_.hpp"
ARM GAS  /tmp/ccimbKDb.s 			page 7


 331              		.file 25 "/home/denny/r2p-sdk/core/Middleware/include/r2p/StaticList.hpp"
 332              		.file 26 "/home/denny/r2p-sdk/core/Middleware/include/r2p/Message.hpp"
 333              		.file 27 "/home/denny/r2p-sdk/core/Middleware/port/chibios/include/r2p/impl/SpinEvent_.hpp"
 334              		.file 28 "/home/denny/r2p-sdk/core/Middleware/include/r2p/SpinEvent.hpp"
 335              		.file 29 "/home/denny/r2p-sdk/core/Middleware/include/r2p/Node.hpp"
 336              		.file 30 "/home/denny/r2p-sdk/core/ChibiOS/os/ports/common/ARMCMx/CMSIS/include/core_cm4.h"