ARM GAS  /tmp/cckXCl6x.s 			page 1


   1              		.syntax unified
   2              		.cpu cortex-m4
   3              		.eabi_attribute 27, 3
   4              		.eabi_attribute 28, 1
   5              		.fpu fpv4-sp-d16
   6              		.eabi_attribute 20, 1
   7              		.eabi_attribute 21, 1
   8              		.eabi_attribute 23, 3
   9              		.eabi_attribute 24, 1
  10              		.eabi_attribute 25, 1
  11              		.eabi_attribute 26, 1
  12              		.eabi_attribute 30, 6
  13              		.eabi_attribute 34, 1
  14              		.eabi_attribute 18, 4
  15              		.thumb
  16              		.file	"RemoteSubscriber.cpp"
  17              		.text
  18              	.Ltext0:
  19              		.cfi_sections	.debug_frame
  20              		.section	.text._ZN3r2p16RemoteSubscriberC2ERNS_9TransportE,"ax",%progbits
  21              		.align	2
  22              		.p2align 4,,15
  23              		.global	_ZN3r2p16RemoteSubscriberC2ERNS_9TransportE
  24              		.thumb
  25              		.thumb_func
  26              		.type	_ZN3r2p16RemoteSubscriberC2ERNS_9TransportE, %function
  27              	_ZN3r2p16RemoteSubscriberC2ERNS_9TransportE:
  28              	.LFB167:
  29              		.file 1 "/home/ergae/r2p-sdk/core/Middleware/src/RemoteSubscriber.cpp"
  30              		.loc 1 7 0
  31              		.cfi_startproc
  32              		@ args = 0, pretend = 0, frame = 8
  33              		@ frame_needed = 0, uses_anonymous_args = 0
  34 0000 00B5     		push	{lr}
  35              		.cfi_def_cfa_offset 4
  36              		.cfi_offset 14, -4
  37 0002 83B0     		sub	sp, sp, #12
  38              		.cfi_def_cfa_offset 16
  39 0004 0190     		str	r0, [sp, #4]
  40 0006 0091     		str	r1, [sp]
  41              	.LBB2:
  42              		.loc 1 12 0
  43 0008 019B     		ldr	r3, [sp, #4]
  44 000a 1846     		mov	r0, r3
  45 000c FFF7FEFF 		bl	_ZN3r2p14BaseSubscriberC2Ev
  46 0010 019B     		ldr	r3, [sp, #4]
  47 0012 0B4A     		ldr	r2, .L4
  48 0014 1A60     		str	r2, [r3]
  49 0016 019B     		ldr	r3, [sp, #4]
  50 0018 009A     		ldr	r2, [sp]
  51 001a 9A60     		str	r2, [r3, #8]
  52 001c 019B     		ldr	r3, [sp, #4]
  53 001e 0C33     		adds	r3, r3, #12
  54 0020 1846     		mov	r0, r3
  55 0022 0199     		ldr	r1, [sp, #4]
  56 0024 FFF7FEFF 		bl	_ZN3r2p10StaticListINS_16RemoteSubscriberEE4LinkC1ERS1_
  57 0028 019B     		ldr	r3, [sp, #4]
ARM GAS  /tmp/cckXCl6x.s 			page 2


  58 002a 1433     		adds	r3, r3, #20
  59 002c 1846     		mov	r0, r3
  60 002e 0199     		ldr	r1, [sp, #4]
  61 0030 FFF7FEFF 		bl	_ZN3r2p10StaticListINS_16RemoteSubscriberEE4LinkC1ERS1_
  62              	.LBE2:
  63              		.loc 1 13 0
  64 0034 019B     		ldr	r3, [sp, #4]
  65 0036 1846     		mov	r0, r3
  66 0038 03B0     		add	sp, sp, #12
  67              		.cfi_def_cfa_offset 4
  68              		@ sp needed
  69 003a 5DF804FB 		ldr	pc, [sp], #4
  70              	.L5:
  71 003e 00BF     		.align	2
  72              	.L4:
  73 0040 08000000 		.word	_ZTVN3r2p16RemoteSubscriberE+8
  74              		.cfi_endproc
  75              	.LFE167:
  76              		.size	_ZN3r2p16RemoteSubscriberC2ERNS_9TransportE, .-_ZN3r2p16RemoteSubscriberC2ERNS_9TransportE
  77              		.global	_ZN3r2p16RemoteSubscriberC1ERNS_9TransportE
  78              		.thumb_set _ZN3r2p16RemoteSubscriberC1ERNS_9TransportE,_ZN3r2p16RemoteSubscriberC2ERNS_9TransportE
  79 0044 AFF30080 		.section	.text._ZN3r2p16RemoteSubscriberD2Ev,"ax",%progbits
  79      AFF30080 
  79      AFF30080 
  80              		.align	2
  81              		.p2align 4,,15
  82              		.global	_ZN3r2p16RemoteSubscriberD2Ev
  83              		.thumb
  84              		.thumb_func
  85              		.type	_ZN3r2p16RemoteSubscriberD2Ev, %function
  86              	_ZN3r2p16RemoteSubscriberD2Ev:
  87              	.LFB170:
  88              		.loc 1 16 0
  89              		.cfi_startproc
  90              		@ args = 0, pretend = 0, frame = 8
  91              		@ frame_needed = 0, uses_anonymous_args = 0
  92 0000 00B5     		push	{lr}
  93              		.cfi_def_cfa_offset 4
  94              		.cfi_offset 14, -4
  95 0002 83B0     		sub	sp, sp, #12
  96              		.cfi_def_cfa_offset 16
  97 0004 0190     		str	r0, [sp, #4]
  98              	.LBB3:
  99              		.loc 1 16 0
 100 0006 019B     		ldr	r3, [sp, #4]
 101 0008 084A     		ldr	r2, .L10
 102 000a 1A60     		str	r2, [r3]
 103 000c 019B     		ldr	r3, [sp, #4]
 104 000e 1846     		mov	r0, r3
 105 0010 FFF7FEFF 		bl	_ZN3r2p14BaseSubscriberD2Ev
 106              	.LBE3:
 107 0014 0023     		movs	r3, #0
 108 0016 002B     		cmp	r3, #0
 109 0018 02D0     		beq	.L8
 110              		.loc 1 16 0 is_stmt 0 discriminator 2
 111 001a 0198     		ldr	r0, [sp, #4]
 112 001c FFF7FEFF 		bl	_ZdlPv
ARM GAS  /tmp/cckXCl6x.s 			page 3


 113              	.L8:
 114              		.loc 1 16 0 discriminator 4
 115 0020 019B     		ldr	r3, [sp, #4]
 116 0022 1846     		mov	r0, r3
 117 0024 03B0     		add	sp, sp, #12
 118              		.cfi_def_cfa_offset 4
 119              		@ sp needed
 120 0026 5DF804FB 		ldr	pc, [sp], #4
 121              	.L11:
 122 002a 00BF     		.align	2
 123              	.L10:
 124 002c 08000000 		.word	_ZTVN3r2p16RemoteSubscriberE+8
 125              		.cfi_endproc
 126              	.LFE170:
 127              		.size	_ZN3r2p16RemoteSubscriberD2Ev, .-_ZN3r2p16RemoteSubscriberD2Ev
 128              		.global	_ZN3r2p16RemoteSubscriberD1Ev
 129              		.thumb_set _ZN3r2p16RemoteSubscriberD1Ev,_ZN3r2p16RemoteSubscriberD2Ev
 130              		.section	.text._ZN3r2p16RemoteSubscriberD0Ev,"ax",%progbits
 131              		.align	2
 132              		.p2align 4,,15
 133              		.global	_ZN3r2p16RemoteSubscriberD0Ev
 134              		.thumb
 135              		.thumb_func
 136              		.type	_ZN3r2p16RemoteSubscriberD0Ev, %function
 137              	_ZN3r2p16RemoteSubscriberD0Ev:
 138              	.LFB172:
 139              		.loc 1 16 0 is_stmt 1
 140              		.cfi_startproc
 141              		@ args = 0, pretend = 0, frame = 8
 142              		@ frame_needed = 0, uses_anonymous_args = 0
 143 0000 00B5     		push	{lr}
 144              		.cfi_def_cfa_offset 4
 145              		.cfi_offset 14, -4
 146 0002 83B0     		sub	sp, sp, #12
 147              		.cfi_def_cfa_offset 16
 148 0004 0190     		str	r0, [sp, #4]
 149              		.loc 1 16 0
 150 0006 0198     		ldr	r0, [sp, #4]
 151 0008 FFF7FEFF 		bl	_ZN3r2p16RemoteSubscriberD2Ev
 152 000c 0198     		ldr	r0, [sp, #4]
 153 000e FFF7FEFF 		bl	_ZdlPv
 154 0012 019B     		ldr	r3, [sp, #4]
 155 0014 1846     		mov	r0, r3
 156 0016 03B0     		add	sp, sp, #12
 157              		.cfi_def_cfa_offset 4
 158              		@ sp needed
 159 0018 5DF804FB 		ldr	pc, [sp], #4
 160              		.cfi_endproc
 161              	.LFE172:
 162              		.size	_ZN3r2p16RemoteSubscriberD0Ev, .-_ZN3r2p16RemoteSubscriberD0Ev
 163 001c AFF30080 		.section	.text._ZN3r2p10StaticListINS_16RemoteSubscriberEE4LinkC2ERS1_,"axG",%progbits,_ZN3r2p10St
 164              		.align	2
 165              		.p2align 4,,15
 166              		.weak	_ZN3r2p10StaticListINS_16RemoteSubscriberEE4LinkC2ERS1_
 167              		.thumb
 168              		.thumb_func
 169              		.type	_ZN3r2p10StaticListINS_16RemoteSubscriberEE4LinkC2ERS1_, %function
ARM GAS  /tmp/cckXCl6x.s 			page 4


 170              	_ZN3r2p10StaticListINS_16RemoteSubscriberEE4LinkC2ERS1_:
 171              	.LFB174:
 172              		.file 2 "/home/ergae/r2p-sdk/core/Middleware/include/r2p/StaticList.hpp"
 173              		.loc 2 21 0
 174              		.cfi_startproc
 175              		@ args = 0, pretend = 0, frame = 8
 176              		@ frame_needed = 0, uses_anonymous_args = 0
 177              		@ link register save eliminated.
 178 0000 82B0     		sub	sp, sp, #8
 179              		.cfi_def_cfa_offset 8
 180 0002 0190     		str	r0, [sp, #4]
 181 0004 0091     		str	r1, [sp]
 182              	.LBB4:
 183              		.loc 2 21 0
 184 0006 019B     		ldr	r3, [sp, #4]
 185 0008 0022     		movs	r2, #0
 186 000a 1A60     		str	r2, [r3]
 187 000c 019B     		ldr	r3, [sp, #4]
 188 000e 009A     		ldr	r2, [sp]
 189 0010 5A60     		str	r2, [r3, #4]
 190              	.LBE4:
 191 0012 019B     		ldr	r3, [sp, #4]
 192 0014 1846     		mov	r0, r3
 193 0016 02B0     		add	sp, sp, #8
 194              		.cfi_def_cfa_offset 0
 195              		@ sp needed
 196 0018 7047     		bx	lr
 197              		.cfi_endproc
 198              	.LFE174:
 199              		.size	_ZN3r2p10StaticListINS_16RemoteSubscriberEE4LinkC2ERS1_, .-_ZN3r2p10StaticListINS_16RemoteSu
 200              		.weak	_ZN3r2p10StaticListINS_16RemoteSubscriberEE4LinkC1ERS1_
 201              		.thumb_set _ZN3r2p10StaticListINS_16RemoteSubscriberEE4LinkC1ERS1_,_ZN3r2p10StaticListINS_16Remote
 202              		.weak	_ZTVN3r2p16RemoteSubscriberE
 203 001a 00BFAFF3 		.section	.rodata._ZTVN3r2p16RemoteSubscriberE,"aG",%progbits,_ZTVN3r2p16RemoteSubscriberE,comdat
 203      0080
 204              		.align	3
 205              		.type	_ZTVN3r2p16RemoteSubscriberE, %object
 206              		.size	_ZTVN3r2p16RemoteSubscriberE, 36
 207              	_ZTVN3r2p16RemoteSubscriberE:
 208 0000 00000000 		.word	0
 209 0004 00000000 		.word	0
 210 0008 00000000 		.word	__cxa_pure_virtual
 211 000c 00000000 		.word	__cxa_pure_virtual
 212 0010 00000000 		.word	__cxa_pure_virtual
 213 0014 00000000 		.word	__cxa_pure_virtual
 214 0018 00000000 		.word	__cxa_pure_virtual
 215 001c 00000000 		.word	__cxa_pure_virtual
 216 0020 00000000 		.word	__cxa_pure_virtual
 217 0024 00000000 		.text
 218              	.Letext0:
 219              		.file 3 "/home/ergae/r2p-sdk/tools/gcc-arm-none-eabi-4_9-2014q4/arm-none-eabi/include/c++/4.9.3/cs
 220              		.file 4 "/home/ergae/r2p-sdk/tools/gcc-arm-none-eabi-4_9-2014q4/arm-none-eabi/include/string.h"
 221              		.file 5 "<built-in>"
 222              		.file 6 "/home/ergae/r2p-sdk/core/Middleware/include/r2p/Uncopyable.hpp"
 223              		.file 7 "/home/ergae/r2p-sdk/tools/gcc-arm-none-eabi-4_9-2014q4/lib/gcc/arm-none-eabi/4.9.3/includ
 224              		.file 8 "/home/ergae/r2p-sdk/core/Middleware/include/r2p/RemoteSubscriber.hpp"
 225              		.file 9 "/home/ergae/r2p-sdk/core/Middleware/include/r2p/BaseSubscriber.hpp"
ARM GAS  /tmp/cckXCl6x.s 			page 5

