ARM GAS  /tmp/cchXS9ja.s 			page 1


   1              		.syntax unified
   2              		.cpu cortex-m4
   3              		.eabi_attribute 27, 3
   4              		.eabi_attribute 28, 1
   5              		.fpu fpv4-sp-d16
   6              		.eabi_attribute 20, 1
   7              		.eabi_attribute 21, 1
   8              		.eabi_attribute 23, 3
   9              		.eabi_attribute 24, 1
  10              		.eabi_attribute 25, 1
  11              		.eabi_attribute 26, 1
  12              		.eabi_attribute 30, 6
  13              		.eabi_attribute 34, 1
  14              		.eabi_attribute 18, 4
  15              		.thumb
  16              		.file	"RemotePublisher.cpp"
  17              		.text
  18              	.Ltext0:
  19              		.cfi_sections	.debug_frame
  20              		.section	.text._ZN3r2p15RemotePublisherC2ERNS_9TransportE,"ax",%progbits
  21              		.align	2
  22              		.p2align 4,,15
  23              		.global	_ZN3r2p15RemotePublisherC2ERNS_9TransportE
  24              		.thumb
  25              		.thumb_func
  26              		.type	_ZN3r2p15RemotePublisherC2ERNS_9TransportE, %function
  27              	_ZN3r2p15RemotePublisherC2ERNS_9TransportE:
  28              	.LFB325:
  29              		.file 1 "/home/ergae/r2p-sdk/core/Middleware/src/RemotePublisher.cpp"
  30              		.loc 1 6 0
  31              		.cfi_startproc
  32              		@ args = 0, pretend = 0, frame = 8
  33              		@ frame_needed = 0, uses_anonymous_args = 0
  34 0000 00B5     		push	{lr}
  35              		.cfi_def_cfa_offset 4
  36              		.cfi_offset 14, -4
  37 0002 83B0     		sub	sp, sp, #12
  38              		.cfi_def_cfa_offset 16
  39 0004 0190     		str	r0, [sp, #4]
  40 0006 0091     		str	r1, [sp]
  41              	.LBB2:
  42              		.loc 1 10 0
  43 0008 019B     		ldr	r3, [sp, #4]
  44 000a 1846     		mov	r0, r3
  45 000c FFF7FEFF 		bl	_ZN3r2p13BasePublisherC2Ev
  46 0010 019B     		ldr	r3, [sp, #4]
  47 0012 084A     		ldr	r2, .L4
  48 0014 1A60     		str	r2, [r3]
  49 0016 019B     		ldr	r3, [sp, #4]
  50 0018 009A     		ldr	r2, [sp]
  51 001a 9A60     		str	r2, [r3, #8]
  52 001c 019B     		ldr	r3, [sp, #4]
  53 001e 0C33     		adds	r3, r3, #12
  54 0020 1846     		mov	r0, r3
  55 0022 0199     		ldr	r1, [sp, #4]
  56 0024 FFF7FEFF 		bl	_ZN3r2p10StaticListINS_15RemotePublisherEE4LinkC1ERS1_
  57              	.LBE2:
ARM GAS  /tmp/cchXS9ja.s 			page 2


  58              		.loc 1 11 0
  59 0028 019B     		ldr	r3, [sp, #4]
  60 002a 1846     		mov	r0, r3
  61 002c 03B0     		add	sp, sp, #12
  62              		.cfi_def_cfa_offset 4
  63              		@ sp needed
  64 002e 5DF804FB 		ldr	pc, [sp], #4
  65              	.L5:
  66 0032 00BF     		.align	2
  67              	.L4:
  68 0034 08000000 		.word	_ZTVN3r2p15RemotePublisherE+8
  69              		.cfi_endproc
  70              	.LFE325:
  71              		.size	_ZN3r2p15RemotePublisherC2ERNS_9TransportE, .-_ZN3r2p15RemotePublisherC2ERNS_9TransportE
  72              		.global	_ZN3r2p15RemotePublisherC1ERNS_9TransportE
  73              		.thumb_set _ZN3r2p15RemotePublisherC1ERNS_9TransportE,_ZN3r2p15RemotePublisherC2ERNS_9TransportE
  74 0038 AFF30080 		.section	.text._ZN3r2p15RemotePublisherD2Ev,"ax",%progbits
  74      AFF30080 
  75              		.align	2
  76              		.p2align 4,,15
  77              		.global	_ZN3r2p15RemotePublisherD2Ev
  78              		.thumb
  79              		.thumb_func
  80              		.type	_ZN3r2p15RemotePublisherD2Ev, %function
  81              	_ZN3r2p15RemotePublisherD2Ev:
  82              	.LFB328:
  83              		.loc 1 14 0
  84              		.cfi_startproc
  85              		@ args = 0, pretend = 0, frame = 8
  86              		@ frame_needed = 0, uses_anonymous_args = 0
  87 0000 00B5     		push	{lr}
  88              		.cfi_def_cfa_offset 4
  89              		.cfi_offset 14, -4
  90 0002 83B0     		sub	sp, sp, #12
  91              		.cfi_def_cfa_offset 16
  92 0004 0190     		str	r0, [sp, #4]
  93              	.LBB3:
  94              		.loc 1 14 0
  95 0006 019B     		ldr	r3, [sp, #4]
  96 0008 084A     		ldr	r2, .L10
  97 000a 1A60     		str	r2, [r3]
  98 000c 019B     		ldr	r3, [sp, #4]
  99 000e 1846     		mov	r0, r3
 100 0010 FFF7FEFF 		bl	_ZN3r2p13BasePublisherD2Ev
 101              	.LBE3:
 102 0014 0023     		movs	r3, #0
 103 0016 002B     		cmp	r3, #0
 104 0018 02D0     		beq	.L8
 105              		.loc 1 14 0 is_stmt 0 discriminator 2
 106 001a 0198     		ldr	r0, [sp, #4]
 107 001c FFF7FEFF 		bl	_ZdlPv
 108              	.L8:
 109              		.loc 1 14 0 discriminator 4
 110 0020 019B     		ldr	r3, [sp, #4]
 111 0022 1846     		mov	r0, r3
 112 0024 03B0     		add	sp, sp, #12
 113              		.cfi_def_cfa_offset 4
ARM GAS  /tmp/cchXS9ja.s 			page 3


 114              		@ sp needed
 115 0026 5DF804FB 		ldr	pc, [sp], #4
 116              	.L11:
 117 002a 00BF     		.align	2
 118              	.L10:
 119 002c 08000000 		.word	_ZTVN3r2p15RemotePublisherE+8
 120              		.cfi_endproc
 121              	.LFE328:
 122              		.size	_ZN3r2p15RemotePublisherD2Ev, .-_ZN3r2p15RemotePublisherD2Ev
 123              		.global	_ZN3r2p15RemotePublisherD1Ev
 124              		.thumb_set _ZN3r2p15RemotePublisherD1Ev,_ZN3r2p15RemotePublisherD2Ev
 125              		.section	.text._ZN3r2p15RemotePublisherD0Ev,"ax",%progbits
 126              		.align	2
 127              		.p2align 4,,15
 128              		.global	_ZN3r2p15RemotePublisherD0Ev
 129              		.thumb
 130              		.thumb_func
 131              		.type	_ZN3r2p15RemotePublisherD0Ev, %function
 132              	_ZN3r2p15RemotePublisherD0Ev:
 133              	.LFB330:
 134              		.loc 1 14 0 is_stmt 1
 135              		.cfi_startproc
 136              		@ args = 0, pretend = 0, frame = 8
 137              		@ frame_needed = 0, uses_anonymous_args = 0
 138 0000 00B5     		push	{lr}
 139              		.cfi_def_cfa_offset 4
 140              		.cfi_offset 14, -4
 141 0002 83B0     		sub	sp, sp, #12
 142              		.cfi_def_cfa_offset 16
 143 0004 0190     		str	r0, [sp, #4]
 144              		.loc 1 14 0
 145 0006 0198     		ldr	r0, [sp, #4]
 146 0008 FFF7FEFF 		bl	_ZN3r2p15RemotePublisherD2Ev
 147 000c 0198     		ldr	r0, [sp, #4]
 148 000e FFF7FEFF 		bl	_ZdlPv
 149 0012 019B     		ldr	r3, [sp, #4]
 150 0014 1846     		mov	r0, r3
 151 0016 03B0     		add	sp, sp, #12
 152              		.cfi_def_cfa_offset 4
 153              		@ sp needed
 154 0018 5DF804FB 		ldr	pc, [sp], #4
 155              		.cfi_endproc
 156              	.LFE330:
 157              		.size	_ZN3r2p15RemotePublisherD0Ev, .-_ZN3r2p15RemotePublisherD0Ev
 158 001c AFF30080 		.section	.text._ZN3r2p10StaticListINS_15RemotePublisherEE4LinkC2ERS1_,"axG",%progbits,_ZN3r2p10Sta
 159              		.align	2
 160              		.p2align 4,,15
 161              		.weak	_ZN3r2p10StaticListINS_15RemotePublisherEE4LinkC2ERS1_
 162              		.thumb
 163              		.thumb_func
 164              		.type	_ZN3r2p10StaticListINS_15RemotePublisherEE4LinkC2ERS1_, %function
 165              	_ZN3r2p10StaticListINS_15RemotePublisherEE4LinkC2ERS1_:
 166              	.LFB346:
 167              		.file 2 "/home/ergae/r2p-sdk/core/Middleware/include/r2p/StaticList.hpp"
 168              		.loc 2 21 0
 169              		.cfi_startproc
 170              		@ args = 0, pretend = 0, frame = 8
ARM GAS  /tmp/cchXS9ja.s 			page 4


 171              		@ frame_needed = 0, uses_anonymous_args = 0
 172              		@ link register save eliminated.
 173 0000 82B0     		sub	sp, sp, #8
 174              		.cfi_def_cfa_offset 8
 175 0002 0190     		str	r0, [sp, #4]
 176 0004 0091     		str	r1, [sp]
 177              	.LBB4:
 178              		.loc 2 21 0
 179 0006 019B     		ldr	r3, [sp, #4]
 180 0008 0022     		movs	r2, #0
 181 000a 1A60     		str	r2, [r3]
 182 000c 019B     		ldr	r3, [sp, #4]
 183 000e 009A     		ldr	r2, [sp]
 184 0010 5A60     		str	r2, [r3, #4]
 185              	.LBE4:
 186 0012 019B     		ldr	r3, [sp, #4]
 187 0014 1846     		mov	r0, r3
 188 0016 02B0     		add	sp, sp, #8
 189              		.cfi_def_cfa_offset 0
 190              		@ sp needed
 191 0018 7047     		bx	lr
 192              		.cfi_endproc
 193              	.LFE346:
 194              		.size	_ZN3r2p10StaticListINS_15RemotePublisherEE4LinkC2ERS1_, .-_ZN3r2p10StaticListINS_15RemotePub
 195              		.weak	_ZN3r2p10StaticListINS_15RemotePublisherEE4LinkC1ERS1_
 196              		.thumb_set _ZN3r2p10StaticListINS_15RemotePublisherEE4LinkC1ERS1_,_ZN3r2p10StaticListINS_15RemoteP
 197              		.weak	_ZTVN3r2p15RemotePublisherE
 198 001a 00BFAFF3 		.section	.rodata._ZTVN3r2p15RemotePublisherE,"aG",%progbits,_ZTVN3r2p15RemotePublisherE,comdat
 198      0080
 199              		.align	3
 200              		.type	_ZTVN3r2p15RemotePublisherE, %object
 201              		.size	_ZTVN3r2p15RemotePublisherE, 16
 202              	_ZTVN3r2p15RemotePublisherE:
 203 0000 00000000 		.word	0
 204 0004 00000000 		.word	0
 205 0008 00000000 		.word	__cxa_pure_virtual
 206 000c 00000000 		.word	__cxa_pure_virtual
 207              		.text
 208              	.Letext0:
 209              		.file 3 "/home/ergae/r2p-sdk/tools/gcc-arm-none-eabi-4_9-2014q4/lib/gcc/arm-none-eabi/4.9.3/includ
 210              		.file 4 "/home/ergae/r2p-sdk/tools/gcc-arm-none-eabi-4_9-2014q4/arm-none-eabi/include/machine/_def
 211              		.file 5 "/home/ergae/r2p-sdk/tools/gcc-arm-none-eabi-4_9-2014q4/arm-none-eabi/include/c++/4.9.3/cs
 212              		.file 6 "/home/ergae/r2p-sdk/tools/gcc-arm-none-eabi-4_9-2014q4/arm-none-eabi/include/string.h"
 213              		.file 7 "<built-in>"
 214              		.file 8 "/home/ergae/r2p-sdk/core/Middleware/include/r2p/Uncopyable.hpp"
 215              		.file 9 "/home/ergae/r2p-sdk/core/Middleware/include/r2p/Message.hpp"
 216              		.file 10 "/home/ergae/r2p-sdk/core/Middleware/port/chibios/include/r2p/impl/MemoryPool_.hpp"
 217              		.file 11 "/home/ergae/r2p-sdk/core/Middleware/include/r2p/Time.hpp"
 218              		.file 12 "/home/ergae/r2p-sdk/core/Middleware/include/r2p/Topic.hpp"
 219              		.file 13 "/home/ergae/r2p-sdk/core/Middleware/include/r2p/RemotePublisher.hpp"
 220              		.file 14 "/home/ergae/r2p-sdk/core/Middleware/include/r2p/BasePublisher.hpp"
 221              		.file 15 "/home/ergae/r2p-sdk/tools/gcc-arm-none-eabi-4_9-2014q4/arm-none-eabi/include/stdint.h"
 222              		.file 16 "/home/ergae/r2p-sdk/core/ChibiOS/os/ports/GCC/ARMCMx/chtypes.h"
 223              		.file 17 "/home/ergae/r2p-sdk/core/ChibiOS/os/kernel/include/chlists.h"
 224              		.file 18 "/home/ergae/r2p-sdk/core/ChibiOS/os/kernel/include/chthreads.h"
 225              		.file 19 "/home/ergae/r2p-sdk/core/ChibiOS/os/ports/GCC/ARMCMx/chcore_v7m.h"
 226              		.file 20 "/home/ergae/r2p-sdk/core/ChibiOS/os/kernel/include/chschd.h"
ARM GAS  /tmp/cchXS9ja.s 			page 5


 227              		.file 21 "/home/ergae/r2p-sdk/core/ChibiOS/os/kernel/include/chmtx.h"
 228              		.file 22 "/home/ergae/r2p-sdk/core/ChibiOS/os/kernel/include/chmemcore.h"
 229              		.file 23 "/home/ergae/r2p-sdk/core/ChibiOS/os/kernel/include/chmempools.h"