ARM GAS  /tmp/cckXCl6x.s 			page 1


   1              		.syntax unified
   2              		.cpu cortex-m4
   3              		.eabi_attribute 27, 3
   4              		.eabi_attribute 28, 1
   5              		.fpu fpv4-sp-d16
   6              		.eabi_attribute 20, 1
   7              		.eabi_attribute 21, 1
   8              		.eabi_attribute 23, 3
   9              		.eabi_attribute 24, 1
  10              		.eabi_attribute 25, 1
  11              		.eabi_attribute 26, 1
  12              		.eabi_attribute 30, 6
  13              		.eabi_attribute 34, 1
  14              		.eabi_attribute 18, 4
  15              		.thumb
  16              		.file	"RemoteSubscriber.cpp"
  17              		.text
  18              	.Ltext0:
  19              		.cfi_sections	.debug_frame
  20              		.section	.text._ZN3r2p16RemoteSubscriberC2ERNS_9TransportE,"ax",%progbits
  21              		.align	2
  22              		.p2align 4,,15
  23              		.global	_ZN3r2p16RemoteSubscriberC2ERNS_9TransportE
  24              		.thumb
  25              		.thumb_func
  26              		.type	_ZN3r2p16RemoteSubscriberC2ERNS_9TransportE, %function
  27              	_ZN3r2p16RemoteSubscriberC2ERNS_9TransportE:
  28              	.LFB167:
  29              		.file 1 "/home/ergae/r2p-sdk/core/Middleware/src/RemoteSubscriber.cpp"
  30              		.loc 1 7 0
  31              		.cfi_startproc
  32              		@ args = 0, pretend = 0, frame = 8
  33              		@ frame_needed = 0, uses_anonymous_args = 0
  34 0000 00B5     		push	{lr}
  35              		.cfi_def_cfa_offset 4
  36              		.cfi_offset 14, -4
  37 0002 83B0     		sub	sp, sp, #12
  38              		.cfi_def_cfa_offset 16
  39 0004 0190     		str	r0, [sp, #4]
  40 0006 0091     		str	r1, [sp]
  41              	.LBB2:
  42              		.loc 1 12 0
  43 0008 019B     		ldr	r3, [sp, #4]
  44 000a 1846     		mov	r0, r3
  45 000c FFF7FEFF 		bl	_ZN3r2p14BaseSubscriberC2Ev
  46 0010 019B     		ldr	r3, [sp, #4]
  47 0012 0B4A     		ldr	r2, .L4
  48 0014 1A60     		str	r2, [r3]
  49 0016 019B     		ldr	r3, [sp, #4]
  50 0018 009A     		ldr	r2, [sp]
  51 001a 9A60     		str	r2, [r3, #8]
  52 001c 019B     		ldr	r3, [sp, #4]
  53 001e 0C33     		adds	r3, r3, #12
  54 0020 1846     		mov	r0, r3
  55 0022 0199     		ldr	r1, [sp, #4]
  56 0024 FFF7FEFF 		bl	_ZN3r2p10StaticListINS_16RemoteSubscriberEE4LinkC1ERS1_
  57 0028 019B     		ldr	r3, [sp, #4]
ARM GAS  /tmp/cckXCl6x.s 			page 2


  58 002a 1433     		adds	r3, r3, #20
  59 002c 1846     		mov	r0, r3
  60 002e 0199     		ldr	r1, [sp, #4]
  61 0030 FFF7FEFF 		bl	_ZN3r2p10StaticListINS_16RemoteSubscriberEE4LinkC1ERS1_
  62              	.LBE2:
  63              		.loc 1 13 0
  64 0034 019B     		ldr	r3, [sp, #4]
  65 0036 1846     		mov	r0, r3
  66 0038 03B0     		add	sp, sp, #12
  67              		.cfi_def_cfa_offset 4
  68              		@ sp needed
  69 003a 5DF804FB 		ldr	pc, [sp], #4
  70              	.L5:
  71 003e 00BF     		.align	2
  72              	.L4:
  73 0040 08000000 		.word	_ZTVN3r2p16RemoteSubscriberE+8
  74              		.cfi_endproc
  75              	.LFE167:
  76              		.size	_ZN3r2p16RemoteSubscriberC2ERNS_9TransportE, .-_ZN3r2p16RemoteSubscriberC2ERNS_9TransportE
  77              		.global	_ZN3r2p16RemoteSubscriberC1ERNS_9TransportE
  78              		.thumb_set _ZN3r2p16RemoteSubscriberC1ERNS_9TransportE,_ZN3r2p16RemoteSubscriberC2ERNS_9TransportE
  79 0044 AFF30080 		.section	.text._ZN3r2p16RemoteSubscriberD2Ev,"ax",%progbits
  79      AFF30080 
  79      AFF30080 
  80              		.align	2
  81              		.p2align 4,,15
  82              		.global	_ZN3r2p16RemoteSubscriberD2Ev
  83              		.thumb
  84              		.thumb_func
  85              		.type	_ZN3r2p16RemoteSubscriberD2Ev, %function
  86              	_ZN3r2p16RemoteSubscriberD2Ev:
  87              	.LFB170:
  88              		.loc 1 16 0
  89              		.cfi_startproc
  90              		@ args = 0, pretend = 0, frame = 8
  91              		@ frame_needed = 0, uses_anonymous_args = 0
  92 0000 00B5     		push	{lr}
  93              		.cfi_def_cfa_offset 4
  94              		.cfi_offset 14, -4
  95 0002 83B0     		sub	sp, sp, #12
  96              		.cfi_def_cfa_offset 16
  97 0004 0190     		str	r0, [sp, #4]
  98              	.LBB3:
  99              		.loc 1 16 0
 100 0006 019B     		ldr	r3, [sp, #4]
 101 0008 084A     		ldr	r2, .L10
 102 000a 1A60     		str	r2, [r3]
 103 000c 019B     		ldr	r3, [sp, #4]
 104 000e 1846     		mov	r0, r3
 105 0010 FFF7FEFF 		bl	_ZN3r2p14BaseSubscriberD2Ev
 106              	.LBE3:
 107 0014 0023     		movs	r3, #0
 108 0016 002B     		cmp	r3, #0
 109 0018 02D0     		beq	.L8
 110              		.loc 1 16 0 is_stmt 0 discriminator 2
 111 001a 0198     		ldr	r0, [sp, #4]
 112 001c FFF7FEFF 		bl	_ZdlPv
ARM GAS  /tmp/cckXCl6x.s 			page 3


 113              	.L8:
 114              		.loc 1 16 0 discriminator 4
 115 0020 019B     		ldr	r3, [sp, #4]
 116 0022 1846     		mov	r0, r3
 117 0024 03B0     		add	sp, sp, #12
 118              		.cfi_def_cfa_offset 4
 119              		@ sp needed
 120 0026 5DF804FB 		ldr	pc, [sp], #4
 121              	.L11:
 122 002a 00BF     		.align	2
 123              	.L10:
 124 002c 08000000 		.word	_ZTVN3r2p16RemoteSubscriberE+8
 125              		.cfi_endproc
 126              	.LFE170:
 127              		.size	_ZN3r2p16RemoteSubscriberD2Ev, .-_ZN3r2p16RemoteSubscriberD2Ev
 128              		.global	_ZN3r2p16RemoteSubscriberD1Ev
 129              		.thumb_set _ZN3r2p16RemoteSubscriberD1Ev,_ZN3r2p16RemoteSubscriberD2Ev
 130              		.section	.text._ZN3r2p16RemoteSubscriberD0Ev,"ax",%progbits
 131              		.align	2
 132              		.p2align 4,,15
 133              		.global	_ZN3r2p16RemoteSubscriberD0Ev
 134              		.thumb
 135              		.thumb_func
 136              		.type	_ZN3r2p16RemoteSubscriberD0Ev, %function
 137              	_ZN3r2p16RemoteSubscriberD0Ev:
 138              	.LFB172:
 139              		.loc 1 16 0 is_stmt 1
 140              		.cfi_startproc
 141              		@ args = 0, pretend = 0, frame = 8
 142              		@ frame_needed = 0, uses_anonymous_args = 0
 143 0000 00B5     		push	{lr}
 144              		.cfi_def_cfa_offset 4
 145              		.cfi_offset 14, -4
 146 0002 83B0     		sub	sp, sp, #12
 147              		.cfi_def_cfa_offset 16
 148 0004 0190     		str	r0, [sp, #4]
 149              		.loc 1 16 0
 150 0006 0198     		ldr	r0, [sp, #4]
 151 0008 FFF7FEFF 		bl	_ZN3r2p16RemoteSubscriberD2Ev
 152 000c 0198     		ldr	r0, [sp, #4]
 153 000e FFF7FEFF 		bl	_ZdlPv
 154 0012 019B     		ldr	r3, [sp, #4]
 155 0014 1846     		mov	r0, r3
 156 0016 03B0     		add	sp, sp, #12
 157              		.cfi_def_cfa_offset 4
 158              		@ sp needed
 159 0018 5DF804FB 		ldr	pc, [sp], #4
 160              		.cfi_endproc
 161              	.LFE172:
 162              		.size	_ZN3r2p16RemoteSubscriberD0Ev, .-_ZN3r2p16RemoteSubscriberD0Ev
 163 001c AFF30080 		.section	.text._ZN3r2p10StaticListINS_16RemoteSubscriberEE4LinkC2ERS1_,"axG",%progbits,_ZN3r2p10St
 164              		.align	2
 165              		.p2align 4,,15
 166              		.weak	_ZN3r2p10StaticListINS_16RemoteSubscriberEE4LinkC2ERS1_
 167              		.thumb
 168              		.thumb_func
 169              		.type	_ZN3r2p10StaticListINS_16RemoteSubscriberEE4LinkC2ERS1_, %function
ARM GAS  /tmp/cckXCl6x.s 			page 4


 170              	_ZN3r2p10StaticListINS_16RemoteSubscriberEE4LinkC2ERS1_:
 171              	.LFB174:
 172              		.file 2 "/home/ergae/r2p-sdk/core/Middleware/include/r2p/StaticList.hpp"
 173              		.loc 2 21 0
 174              		.cfi_startproc
 175              		@ args = 0, pretend = 0, frame = 8
 176              		@ frame_needed = 0, uses_anonymous_args = 0
 177              		@ link register save eliminated.
 178 0000 82B0     		sub	sp, sp, #8
 179              		.cfi_def_cfa_offset 8
 180 0002 0190     		str	r0, [sp, #4]
 181 0004 0091     		str	r1, [sp]
 182              	.LBB4:
 183              		.loc 2 21 0
 184 0006 019B     		ldr	r3, [sp, #4]
 185 0008 0022     		movs	r2, #0
 186 000a 1A60     		str	r2, [r3]
 187 000c 019B     		ldr	r3, [sp, #4]
 188 000e 009A     		ldr	r2, [sp]
 189 0010 5A60     		str	r2, [r3, #4]
 190              	.LBE4:
 191 0012 019B     		ldr	r3, [sp, #4]
 192 0014 1846     		mov	r0, r3
 193 0016 02B0     		add	sp, sp, #8
 194              		.cfi_def_cfa_offset 0
 195              		@ sp needed
 196 0018 7047     		bx	lr
 197              		.cfi_endproc
 198              	.LFE174:
 199              		.size	_ZN3r2p10StaticListINS_16RemoteSubscriberEE4LinkC2ERS1_, .-_ZN3r2p10StaticListINS_16RemoteSu
 200              		.weak	_ZN3r2p10StaticListINS_16RemoteSubscriberEE4LinkC1ERS1_
 201              		.thumb_set _ZN3r2p10StaticListINS_16RemoteSubscriberEE4LinkC1ERS1_,_ZN3r2p10StaticListINS_16Remote
 202              		.weak	_ZTVN3r2p16RemoteSubscriberE
 203 001a 00BFAFF3 		.section	.rodata._ZTVN3r2p16RemoteSubscriberE,"aG",%progbits,_ZTVN3r2p16RemoteSubscriberE,comdat
 203      0080
 204              		.align	3
 205              		.type	_ZTVN3r2p16RemoteSubscriberE, %object
 206              		.size	_ZTVN3r2p16RemoteSubscriberE, 36
 207              	_ZTVN3r2p16RemoteSubscriberE:
 208 0000 00000000 		.word	0
 209 0004 00000000 		.word	0
 210 0008 00000000 		.word	__cxa_pure_virtual
 211 000c 00000000 		.word	__cxa_pure_virtual
 212 0010 00000000 		.word	__cxa_pure_virtual
 213 0014 00000000 		.word	__cxa_pure_virtual
 214 0018 00000000 		.word	__cxa_pure_virtual
 215 001c 00000000 		.word	__cxa_pure_virtual
 216 0020 00000000 		.word	__cxa_pure_virtual
 217 0024 00000000 		.text
 218              	.Letext0:
 219              		.file 3 "/home/ergae/r2p-sdk/tools/gcc-arm-none-eabi-4_9-2014q4/arm-none-eabi/include/c++/4.9.3/cs
 220              		.file 4 "/home/ergae/r2p-sdk/tools/gcc-arm-none-eabi-4_9-2014q4/arm-none-eabi/include/string.h"
 221              		.file 5 "<built-in>"
 222              		.file 6 "/home/ergae/r2p-sdk/core/Middleware/include/r2p/Uncopyable.hpp"
 223              		.file 7 "/home/ergae/r2p-sdk/tools/gcc-arm-none-eabi-4_9-2014q4/lib/gcc/arm-none-eabi/4.9.3/includ
 224              		.file 8 "/home/ergae/r2p-sdk/core/Middleware/include/r2p/RemoteSubscriber.hpp"
 225              		.file 9 "/home/ergae/r2p-sdk/core/Middleware/include/r2p/BaseSubscriber.hpp"
ARM GAS  /tmp/cckXCl6x.s 			page 5


 226              		.section	.debug_info,"",%progbits
 227              	.Ldebug_info0:
 228 0000 630B0000 		.4byte	0xb63
 229 0004 0400     		.2byte	0x4
 230 0006 00000000 		.4byte	.Ldebug_abbrev0
 231 000a 04       		.byte	0x4
 232 000b 01       		.uleb128 0x1
 233 000c 66070000 		.4byte	.LASF123
 234 0010 04       		.byte	0x4
 235 0011 4D010000 		.4byte	.LASF124
 236 0015 5F0B0000 		.4byte	.LASF125
 237 0019 00000000 		.4byte	.Ldebug_ranges0+0
 238 001d 00000000 		.4byte	0
 239 0021 00000000 		.4byte	.Ldebug_line0
 240 0025 02       		.uleb128 0x2
 241 0026 04       		.byte	0x4
 242 0027 05       		.byte	0x5
 243 0028 696E7400 		.ascii	"int\000"
 244 002c 03       		.uleb128 0x3
 245 002d CB050000 		.4byte	.LASF27
 246 0031 07       		.byte	0x7
 247 0032 D4       		.byte	0xd4
 248 0033 37000000 		.4byte	0x37
 249 0037 04       		.uleb128 0x4
 250 0038 04       		.byte	0x4
 251 0039 07       		.byte	0x7
 252 003a A4000000 		.4byte	.LASF0
 253 003e 04       		.uleb128 0x4
 254 003f 01       		.byte	0x1
 255 0040 06       		.byte	0x6
 256 0041 020F0000 		.4byte	.LASF1
 257 0045 04       		.uleb128 0x4
 258 0046 01       		.byte	0x1
 259 0047 08       		.byte	0x8
 260 0048 F30D0000 		.4byte	.LASF2
 261 004c 04       		.uleb128 0x4
 262 004d 02       		.byte	0x2
 263 004e 05       		.byte	0x5
 264 004f 3F0B0000 		.4byte	.LASF3
 265 0053 04       		.uleb128 0x4
 266 0054 02       		.byte	0x2
 267 0055 07       		.byte	0x7
 268 0056 550F0000 		.4byte	.LASF4
 269 005a 04       		.uleb128 0x4
 270 005b 04       		.byte	0x4
 271 005c 05       		.byte	0x5
 272 005d 490B0000 		.4byte	.LASF5
 273 0061 04       		.uleb128 0x4
 274 0062 04       		.byte	0x4
 275 0063 07       		.byte	0x7
 276 0064 1B0D0000 		.4byte	.LASF6
 277 0068 04       		.uleb128 0x4
 278 0069 08       		.byte	0x8
 279 006a 05       		.byte	0x5
 280 006b C7080000 		.4byte	.LASF7
 281 006f 04       		.uleb128 0x4
 282 0070 08       		.byte	0x8
ARM GAS  /tmp/cckXCl6x.s 			page 6


 283 0071 07       		.byte	0x7
 284 0072 53050000 		.4byte	.LASF8
 285 0076 04       		.uleb128 0x4
 286 0077 04       		.byte	0x4
 287 0078 07       		.byte	0x7
 288 0079 990C0000 		.4byte	.LASF9
 289 007d 05       		.uleb128 0x5
 290 007e 04       		.byte	0x4
 291 007f 06       		.uleb128 0x6
 292 0080 04       		.byte	0x4
 293 0081 85000000 		.4byte	0x85
 294 0085 04       		.uleb128 0x4
 295 0086 01       		.byte	0x1
 296 0087 08       		.byte	0x8
 297 0088 A0060000 		.4byte	.LASF10
 298 008c 06       		.uleb128 0x6
 299 008d 04       		.byte	0x4
 300 008e 92000000 		.4byte	0x92
 301 0092 07       		.uleb128 0x7
 302 0093 85000000 		.4byte	0x85
 303 0097 08       		.uleb128 0x8
 304 0098 73746400 		.ascii	"std\000"
 305 009c 05       		.byte	0x5
 306 009d 00       		.byte	0
 307 009e BF000000 		.4byte	0xbf
 308 00a2 09       		.uleb128 0x9
 309 00a3 03       		.byte	0x3
 310 00a4 52       		.byte	0x52
 311 00a5 BF000000 		.4byte	0xbf
 312 00a9 09       		.uleb128 0x9
 313 00aa 03       		.byte	0x3
 314 00ab 55       		.byte	0x55
 315 00ac D9000000 		.4byte	0xd9
 316 00b0 09       		.uleb128 0x9
 317 00b1 03       		.byte	0x3
 318 00b2 5B       		.byte	0x5b
 319 00b3 EE000000 		.4byte	0xee
 320 00b7 09       		.uleb128 0x9
 321 00b8 03       		.byte	0x3
 322 00b9 5C       		.byte	0x5c
 323 00ba 08010000 		.4byte	0x108
 324 00be 00       		.byte	0
 325 00bf 0A       		.uleb128 0xa
 326 00c0 61060000 		.4byte	.LASF11
 327 00c4 04       		.byte	0x4
 328 00c5 1D       		.byte	0x1d
 329 00c6 25000000 		.4byte	0x25
 330 00ca D9000000 		.4byte	0xd9
 331 00ce 0B       		.uleb128 0xb
 332 00cf 8C000000 		.4byte	0x8c
 333 00d3 0B       		.uleb128 0xb
 334 00d4 8C000000 		.4byte	0x8c
 335 00d8 00       		.byte	0
 336 00d9 0A       		.uleb128 0xa
 337 00da 44010000 		.4byte	.LASF12
 338 00de 04       		.byte	0x4
 339 00df 20       		.byte	0x20
ARM GAS  /tmp/cckXCl6x.s 			page 7


 340 00e0 7F000000 		.4byte	0x7f
 341 00e4 EE000000 		.4byte	0xee
 342 00e8 0B       		.uleb128 0xb
 343 00e9 25000000 		.4byte	0x25
 344 00ed 00       		.byte	0
 345 00ee 0A       		.uleb128 0xa
 346 00ef ED0E0000 		.4byte	.LASF13
 347 00f3 04       		.byte	0x4
 348 00f4 2A       		.byte	0x2a
 349 00f5 7F000000 		.4byte	0x7f
 350 00f9 08010000 		.4byte	0x108
 351 00fd 0B       		.uleb128 0xb
 352 00fe 7F000000 		.4byte	0x7f
 353 0102 0B       		.uleb128 0xb
 354 0103 8C000000 		.4byte	0x8c
 355 0107 00       		.byte	0
 356 0108 0A       		.uleb128 0xa
 357 0109 DC050000 		.4byte	.LASF14
 358 010d 04       		.byte	0x4
 359 010e 2C       		.byte	0x2c
 360 010f 2C000000 		.4byte	0x2c
 361 0113 27010000 		.4byte	0x127
 362 0117 0B       		.uleb128 0xb
 363 0118 7F000000 		.4byte	0x7f
 364 011c 0B       		.uleb128 0xb
 365 011d 8C000000 		.4byte	0x8c
 366 0121 0B       		.uleb128 0xb
 367 0122 2C000000 		.4byte	0x2c
 368 0126 00       		.byte	0
 369 0127 08       		.uleb128 0x8
 370 0128 72327000 		.ascii	"r2p\000"
 371 012c 06       		.byte	0x6
 372 012d 03       		.byte	0x3
 373 012e 50090000 		.4byte	0x950
 374 0132 0C       		.uleb128 0xc
 375 0133 34070000 		.4byte	.LASF15
 376 0137 01       		.byte	0x1
 377 0138 06       		.byte	0x6
 378 0139 06       		.byte	0x6
 379 013a 92010000 		.4byte	0x192
 380 013e 0D       		.uleb128 0xd
 381 013f 34070000 		.4byte	.LASF15
 382 0143 06       		.byte	0x6
 383 0144 09       		.byte	0x9
 384 0145 50090000 		.4byte	0x950
 385 0149 51010000 		.4byte	0x151
 386 014d 5C010000 		.4byte	0x15c
 387 0151 0E       		.uleb128 0xe
 388 0152 50090000 		.4byte	0x950
 389 0156 0B       		.uleb128 0xb
 390 0157 56090000 		.4byte	0x956
 391 015b 00       		.byte	0
 392 015c 0F       		.uleb128 0xf
 393 015d 34070000 		.4byte	.LASF15
 394 0161 06       		.byte	0x6
 395 0162 14       		.byte	0x14
 396 0163 50090000 		.4byte	0x950
ARM GAS  /tmp/cckXCl6x.s 			page 8


 397 0167 02       		.byte	0x2
 398 0168 70010000 		.4byte	0x170
 399 016c 76010000 		.4byte	0x176
 400 0170 0E       		.uleb128 0xe
 401 0171 50090000 		.4byte	0x950
 402 0175 00       		.byte	0
 403 0176 10       		.uleb128 0x10
 404 0177 F0030000 		.4byte	.LASF16
 405 017b 06       		.byte	0x6
 406 017c 15       		.byte	0x15
 407 017d 7D000000 		.4byte	0x7d
 408 0181 02       		.byte	0x2
 409 0182 86010000 		.4byte	0x186
 410 0186 0E       		.uleb128 0xe
 411 0187 50090000 		.4byte	0x950
 412 018b 0E       		.uleb128 0xe
 413 018c 25000000 		.4byte	0x25
 414 0190 00       		.byte	0
 415 0191 00       		.byte	0
 416 0192 07       		.uleb128 0x7
 417 0193 32010000 		.4byte	0x132
 418 0197 11       		.uleb128 0x11
 419 0198 FF000000 		.4byte	.LASF22
 420 019c 0C       		.uleb128 0xc
 421 019d F90B0000 		.4byte	.LASF17
 422 01a1 04       		.byte	0x4
 423 01a2 02       		.byte	0x2
 424 01a3 0F       		.byte	0xf
 425 01a4 69060000 		.4byte	0x669
 426 01a8 12       		.uleb128 0x12
 427 01a9 32010000 		.4byte	0x132
 428 01ad 00       		.byte	0
 429 01ae 13       		.uleb128 0x13
 430 01af 24060000 		.4byte	.LASF20
 431 01b3 08       		.byte	0x8
 432 01b4 02       		.byte	0x2
 433 01b5 11       		.byte	0x11
 434 01b6 01       		.byte	0x1
 435 01b7 EE010000 		.4byte	0x1ee
 436 01bb 14       		.uleb128 0x14
 437 01bc 6B040000 		.4byte	.LASF18
 438 01c0 02       		.byte	0x2
 439 01c1 12       		.byte	0x12
 440 01c2 76090000 		.4byte	0x976
 441 01c6 00       		.byte	0
 442 01c7 14       		.uleb128 0x14
 443 01c8 FF090000 		.4byte	.LASF19
 444 01cc 02       		.byte	0x2
 445 01cd 13       		.byte	0x13
 446 01ce E7090000 		.4byte	0x9e7
 447 01d2 04       		.byte	0x4
 448 01d3 15       		.uleb128 0x15
 449 01d4 24060000 		.4byte	.LASF20
 450 01d8 02       		.byte	0x2
 451 01d9 15       		.byte	0x15
 452 01da 76090000 		.4byte	0x976
 453 01de E2010000 		.4byte	0x1e2
ARM GAS  /tmp/cckXCl6x.s 			page 9


 454 01e2 0E       		.uleb128 0xe
 455 01e3 76090000 		.4byte	0x976
 456 01e7 0B       		.uleb128 0xb
 457 01e8 EC090000 		.4byte	0x9ec
 458 01ec 00       		.byte	0
 459 01ed 00       		.byte	0
 460 01ee 16       		.uleb128 0x16
 461 01ef C2010000 		.4byte	.LASF21
 462 01f3 02       		.byte	0x2
 463 01f4 8A01     		.2byte	0x18a
 464 01f6 76090000 		.4byte	0x976
 465 01fa 00       		.byte	0
 466 01fb 11       		.uleb128 0x11
 467 01fc 530E0000 		.4byte	.LASF23
 468 0200 11       		.uleb128 0x11
 469 0201 B3080000 		.4byte	.LASF24
 470 0205 11       		.uleb128 0x11
 471 0206 5D070000 		.4byte	.LASF25
 472 020a 11       		.uleb128 0x11
 473 020b DF0F0000 		.4byte	.LASF26
 474 020f 17       		.uleb128 0x17
 475 0210 4B0F0000 		.4byte	.LASF28
 476 0214 02       		.byte	0x2
 477 0215 8601     		.2byte	0x186
 478 0217 7C090000 		.4byte	0x97c
 479 021b 17       		.uleb128 0x17
 480 021c 4B0E0000 		.4byte	.LASF29
 481 0220 02       		.byte	0x2
 482 0221 8701     		.2byte	0x187
 483 0223 97090000 		.4byte	0x997
 484 0227 18       		.uleb128 0x18
 485 0228 7B0F0000 		.4byte	.LASF30
 486 022c 02       		.byte	0x2
 487 022d 8D01     		.2byte	0x18d
 488 022f B0030000 		.4byte	.LASF32
 489 0233 B1090000 		.4byte	0x9b1
 490 0237 01       		.byte	0x1
 491 0238 40020000 		.4byte	0x240
 492 023c 46020000 		.4byte	0x246
 493 0240 0E       		.uleb128 0xe
 494 0241 B7090000 		.4byte	0x9b7
 495 0245 00       		.byte	0
 496 0246 07       		.uleb128 0x7
 497 0247 AE010000 		.4byte	0x1ae
 498 024b 18       		.uleb128 0x18
 499 024c 07010000 		.4byte	.LASF31
 500 0250 02       		.byte	0x2
 501 0251 9101     		.2byte	0x191
 502 0253 B9000000 		.4byte	.LASF33
 503 0257 5C090000 		.4byte	0x95c
 504 025b 01       		.byte	0x1
 505 025c 64020000 		.4byte	0x264
 506 0260 6A020000 		.4byte	0x26a
 507 0264 0E       		.uleb128 0xe
 508 0265 B7090000 		.4byte	0x9b7
 509 0269 00       		.byte	0
 510 026a 18       		.uleb128 0x18
ARM GAS  /tmp/cckXCl6x.s 			page 10


 511 026b 6D020000 		.4byte	.LASF34
 512 026f 02       		.byte	0x2
 513 0270 0302     		.2byte	0x203
 514 0272 00050000 		.4byte	.LASF35
 515 0276 2C000000 		.4byte	0x2c
 516 027a 01       		.byte	0x1
 517 027b 83020000 		.4byte	0x283
 518 027f 89020000 		.4byte	0x289
 519 0283 0E       		.uleb128 0xe
 520 0284 B7090000 		.4byte	0x9b7
 521 0288 00       		.byte	0
 522 0289 19       		.uleb128 0x19
 523 028a 2E090000 		.4byte	.LASF36
 524 028e 02       		.byte	0x2
 525 028f 9701     		.2byte	0x197
 526 0291 D60C0000 		.4byte	.LASF38
 527 0295 01       		.byte	0x1
 528 0296 9E020000 		.4byte	0x29e
 529 029a A9020000 		.4byte	0x2a9
 530 029e 0E       		.uleb128 0xe
 531 029f BD090000 		.4byte	0x9bd
 532 02a3 0B       		.uleb128 0xb
 533 02a4 C3090000 		.4byte	0x9c3
 534 02a8 00       		.byte	0
 535 02a9 19       		.uleb128 0x19
 536 02aa 7A020000 		.4byte	.LASF37
 537 02ae 02       		.byte	0x2
 538 02af 9F01     		.2byte	0x19f
 539 02b1 81050000 		.4byte	.LASF39
 540 02b5 01       		.byte	0x1
 541 02b6 BE020000 		.4byte	0x2be
 542 02ba C9020000 		.4byte	0x2c9
 543 02be 0E       		.uleb128 0xe
 544 02bf BD090000 		.4byte	0x9bd
 545 02c3 0B       		.uleb128 0xb
 546 02c4 C3090000 		.4byte	0x9c3
 547 02c8 00       		.byte	0
 548 02c9 18       		.uleb128 0x18
 549 02ca 07070000 		.4byte	.LASF40
 550 02ce 02       		.byte	0x2
 551 02cf 0E02     		.2byte	0x20e
 552 02d1 AF090000 		.4byte	.LASF41
 553 02d5 5C090000 		.4byte	0x95c
 554 02d9 01       		.byte	0x1
 555 02da E2020000 		.4byte	0x2e2
 556 02de ED020000 		.4byte	0x2ed
 557 02e2 0E       		.uleb128 0xe
 558 02e3 BD090000 		.4byte	0x9bd
 559 02e7 0B       		.uleb128 0xb
 560 02e8 C3090000 		.4byte	0x9c3
 561 02ec 00       		.byte	0
 562 02ed 18       		.uleb128 0x18
 563 02ee 24070000 		.4byte	.LASF42
 564 02f2 02       		.byte	0x2
 565 02f3 1F02     		.2byte	0x21f
 566 02f5 FC030000 		.4byte	.LASF43
 567 02f9 25000000 		.4byte	0x25
ARM GAS  /tmp/cckXCl6x.s 			page 11


 568 02fd 01       		.byte	0x1
 569 02fe 06030000 		.4byte	0x306
 570 0302 11030000 		.4byte	0x311
 571 0306 0E       		.uleb128 0xe
 572 0307 B7090000 		.4byte	0x9b7
 573 030b 0B       		.uleb128 0xb
 574 030c 91090000 		.4byte	0x991
 575 0310 00       		.byte	0
 576 0311 18       		.uleb128 0x18
 577 0312 D80A0000 		.4byte	.LASF44
 578 0316 02       		.byte	0x2
 579 0317 2C02     		.2byte	0x22c
 580 0319 630D0000 		.4byte	.LASF45
 581 031d 5C090000 		.4byte	0x95c
 582 0321 01       		.byte	0x1
 583 0322 2A030000 		.4byte	0x32a
 584 0326 35030000 		.4byte	0x335
 585 032a 0E       		.uleb128 0xe
 586 032b B7090000 		.4byte	0x9b7
 587 032f 0B       		.uleb128 0xb
 588 0330 91090000 		.4byte	0x991
 589 0334 00       		.byte	0
 590 0335 18       		.uleb128 0x18
 591 0336 E10D0000 		.4byte	.LASF46
 592 033a 02       		.byte	0x2
 593 033b 3802     		.2byte	0x238
 594 033d 010E0000 		.4byte	.LASF47
 595 0341 C9090000 		.4byte	0x9c9
 596 0345 01       		.byte	0x1
 597 0346 4E030000 		.4byte	0x34e
 598 034a 59030000 		.4byte	0x359
 599 034e 0E       		.uleb128 0xe
 600 034f B7090000 		.4byte	0x9b7
 601 0353 0B       		.uleb128 0xb
 602 0354 0F020000 		.4byte	0x20f
 603 0358 00       		.byte	0
 604 0359 18       		.uleb128 0x18
 605 035a E10D0000 		.4byte	.LASF46
 606 035e 02       		.byte	0x2
 607 035f 4402     		.2byte	0x244
 608 0361 A5060000 		.4byte	.LASF48
 609 0365 C9090000 		.4byte	0x9c9
 610 0369 01       		.byte	0x1
 611 036a 72030000 		.4byte	0x372
 612 036e 82030000 		.4byte	0x382
 613 0372 0E       		.uleb128 0xe
 614 0373 B7090000 		.4byte	0x9b7
 615 0377 0B       		.uleb128 0xb
 616 0378 1B020000 		.4byte	0x21b
 617 037c 0B       		.uleb128 0xb
 618 037d 6F090000 		.4byte	0x96f
 619 0381 00       		.byte	0
 620 0382 18       		.uleb128 0x18
 621 0383 520B0000 		.4byte	.LASF49
 622 0387 02       		.byte	0x2
 623 0388 B301     		.2byte	0x1b3
 624 038a BE040000 		.4byte	.LASF50
ARM GAS  /tmp/cckXCl6x.s 			page 12


 625 038e A1030000 		.4byte	0x3a1
 626 0392 01       		.byte	0x1
 627 0393 9B030000 		.4byte	0x39b
 628 0397 A1030000 		.4byte	0x3a1
 629 039b 0E       		.uleb128 0xe
 630 039c BD090000 		.4byte	0x9bd
 631 03a0 00       		.byte	0
 632 03a1 07       		.uleb128 0x7
 633 03a2 FB010000 		.4byte	0x1fb
 634 03a6 18       		.uleb128 0x18
 635 03a7 CF020000 		.4byte	.LASF51
 636 03ab 02       		.byte	0x2
 637 03ac B701     		.2byte	0x1b7
 638 03ae A70D0000 		.4byte	.LASF52
 639 03b2 A1030000 		.4byte	0x3a1
 640 03b6 01       		.byte	0x1
 641 03b7 BF030000 		.4byte	0x3bf
 642 03bb C5030000 		.4byte	0x3c5
 643 03bf 0E       		.uleb128 0xe
 644 03c0 BD090000 		.4byte	0x9bd
 645 03c4 00       		.byte	0
 646 03c5 19       		.uleb128 0x19
 647 03c6 3F070000 		.4byte	.LASF53
 648 03ca 02       		.byte	0x2
 649 03cb BB01     		.2byte	0x1bb
 650 03cd DA020000 		.4byte	.LASF54
 651 03d1 01       		.byte	0x1
 652 03d2 DA030000 		.4byte	0x3da
 653 03d6 E5030000 		.4byte	0x3e5
 654 03da 0E       		.uleb128 0xe
 655 03db BD090000 		.4byte	0x9bd
 656 03df 0B       		.uleb128 0xb
 657 03e0 CF090000 		.4byte	0x9cf
 658 03e4 00       		.byte	0
 659 03e5 18       		.uleb128 0x18
 660 03e6 520B0000 		.4byte	.LASF49
 661 03ea 02       		.byte	0x2
 662 03eb BF01     		.2byte	0x1bf
 663 03ed 0E0F0000 		.4byte	.LASF55
 664 03f1 04040000 		.4byte	0x404
 665 03f5 01       		.byte	0x1
 666 03f6 FE030000 		.4byte	0x3fe
 667 03fa 04040000 		.4byte	0x404
 668 03fe 0E       		.uleb128 0xe
 669 03ff B7090000 		.4byte	0x9b7
 670 0403 00       		.byte	0
 671 0404 07       		.uleb128 0x7
 672 0405 00020000 		.4byte	0x200
 673 0409 18       		.uleb128 0x18
 674 040a CF020000 		.4byte	.LASF51
 675 040e 02       		.byte	0x2
 676 040f C301     		.2byte	0x1c3
 677 0411 71040000 		.4byte	.LASF56
 678 0415 04040000 		.4byte	0x404
 679 0419 01       		.byte	0x1
 680 041a 22040000 		.4byte	0x422
 681 041e 28040000 		.4byte	0x428
ARM GAS  /tmp/cckXCl6x.s 			page 13


 682 0422 0E       		.uleb128 0xe
 683 0423 B7090000 		.4byte	0x9b7
 684 0427 00       		.byte	0
 685 0428 19       		.uleb128 0x19
 686 0429 3F070000 		.4byte	.LASF53
 687 042d 02       		.byte	0x2
 688 042e C701     		.2byte	0x1c7
 689 0430 D5080000 		.4byte	.LASF57
 690 0434 01       		.byte	0x1
 691 0435 3D040000 		.4byte	0x43d
 692 0439 48040000 		.4byte	0x448
 693 043d 0E       		.uleb128 0xe
 694 043e B7090000 		.4byte	0x9b7
 695 0442 0B       		.uleb128 0xb
 696 0443 D5090000 		.4byte	0x9d5
 697 0447 00       		.byte	0
 698 0448 18       		.uleb128 0x18
 699 0449 F40E0000 		.4byte	.LASF58
 700 044d 02       		.byte	0x2
 701 044e 5302     		.2byte	0x253
 702 0450 29060000 		.4byte	.LASF59
 703 0454 B1090000 		.4byte	0x9b1
 704 0458 01       		.byte	0x1
 705 0459 61040000 		.4byte	0x461
 706 045d 67040000 		.4byte	0x467
 707 0461 0E       		.uleb128 0xe
 708 0462 B7090000 		.4byte	0x9b7
 709 0466 00       		.byte	0
 710 0467 18       		.uleb128 0x18
 711 0468 6F000000 		.4byte	.LASF60
 712 046c 02       		.byte	0x2
 713 046d 5D02     		.2byte	0x25d
 714 046f 8A010000 		.4byte	.LASF61
 715 0473 5C090000 		.4byte	0x95c
 716 0477 01       		.byte	0x1
 717 0478 80040000 		.4byte	0x480
 718 047c 86040000 		.4byte	0x486
 719 0480 0E       		.uleb128 0xe
 720 0481 B7090000 		.4byte	0x9b7
 721 0485 00       		.byte	0
 722 0486 18       		.uleb128 0x18
 723 0487 FA040000 		.4byte	.LASF62
 724 048b 02       		.byte	0x2
 725 048c 6702     		.2byte	0x267
 726 048e 3A090000 		.4byte	.LASF63
 727 0492 2C000000 		.4byte	0x2c
 728 0496 01       		.byte	0x1
 729 0497 9F040000 		.4byte	0x49f
 730 049b A5040000 		.4byte	0x4a5
 731 049f 0E       		.uleb128 0xe
 732 04a0 B7090000 		.4byte	0x9b7
 733 04a4 00       		.byte	0
 734 04a5 19       		.uleb128 0x19
 735 04a6 620E0000 		.4byte	.LASF64
 736 04aa 02       		.byte	0x2
 737 04ab 7602     		.2byte	0x276
 738 04ad 670E0000 		.4byte	.LASF65
ARM GAS  /tmp/cckXCl6x.s 			page 14


 739 04b1 01       		.byte	0x1
 740 04b2 BA040000 		.4byte	0x4ba
 741 04b6 C5040000 		.4byte	0x4c5
 742 04ba 0E       		.uleb128 0xe
 743 04bb BD090000 		.4byte	0x9bd
 744 04bf 0B       		.uleb128 0xb
 745 04c0 C3090000 		.4byte	0x9c3
 746 04c4 00       		.byte	0
 747 04c5 18       		.uleb128 0x18
 748 04c6 3D050000 		.4byte	.LASF66
 749 04ca 02       		.byte	0x2
 750 04cb 8002     		.2byte	0x280
 751 04cd 000B0000 		.4byte	.LASF67
 752 04d1 5C090000 		.4byte	0x95c
 753 04d5 01       		.byte	0x1
 754 04d6 DE040000 		.4byte	0x4de
 755 04da E9040000 		.4byte	0x4e9
 756 04de 0E       		.uleb128 0xe
 757 04df BD090000 		.4byte	0x9bd
 758 04e3 0B       		.uleb128 0xb
 759 04e4 C3090000 		.4byte	0x9c3
 760 04e8 00       		.byte	0
 761 04e9 18       		.uleb128 0x18
 762 04ea F6090000 		.4byte	.LASF68
 763 04ee 02       		.byte	0x2
 764 04ef 8A02     		.2byte	0x28a
 765 04f1 A30F0000 		.4byte	.LASF69
 766 04f5 25000000 		.4byte	0x25
 767 04f9 01       		.byte	0x1
 768 04fa 02050000 		.4byte	0x502
 769 04fe 0D050000 		.4byte	0x50d
 770 0502 0E       		.uleb128 0xe
 771 0503 B7090000 		.4byte	0x9b7
 772 0507 0B       		.uleb128 0xb
 773 0508 91090000 		.4byte	0x991
 774 050c 00       		.byte	0
 775 050d 18       		.uleb128 0x18
 776 050e 1B060000 		.4byte	.LASF70
 777 0512 02       		.byte	0x2
 778 0513 9B02     		.2byte	0x29b
 779 0515 1B0C0000 		.4byte	.LASF71
 780 0519 5C090000 		.4byte	0x95c
 781 051d 01       		.byte	0x1
 782 051e 26050000 		.4byte	0x526
 783 0522 31050000 		.4byte	0x531
 784 0526 0E       		.uleb128 0xe
 785 0527 B7090000 		.4byte	0x9b7
 786 052b 0B       		.uleb128 0xb
 787 052c 91090000 		.4byte	0x991
 788 0530 00       		.byte	0
 789 0531 18       		.uleb128 0x18
 790 0532 BA0A0000 		.4byte	.LASF72
 791 0536 02       		.byte	0x2
 792 0537 AC02     		.2byte	0x2ac
 793 0539 FA010000 		.4byte	.LASF73
 794 053d C9090000 		.4byte	0x9c9
 795 0541 01       		.byte	0x1
ARM GAS  /tmp/cckXCl6x.s 			page 15


 796 0542 4A050000 		.4byte	0x54a
 797 0546 55050000 		.4byte	0x555
 798 054a 0E       		.uleb128 0xe
 799 054b B7090000 		.4byte	0x9b7
 800 054f 0B       		.uleb128 0xb
 801 0550 0F020000 		.4byte	0x20f
 802 0554 00       		.byte	0
 803 0555 18       		.uleb128 0x18
 804 0556 BA0A0000 		.4byte	.LASF72
 805 055a 02       		.byte	0x2
 806 055b BC02     		.2byte	0x2bc
 807 055d A40E0000 		.4byte	.LASF74
 808 0561 C9090000 		.4byte	0x9c9
 809 0565 01       		.byte	0x1
 810 0566 6E050000 		.4byte	0x56e
 811 056a 7E050000 		.4byte	0x57e
 812 056e 0E       		.uleb128 0xe
 813 056f B7090000 		.4byte	0x9b7
 814 0573 0B       		.uleb128 0xb
 815 0574 1B020000 		.4byte	0x21b
 816 0578 0B       		.uleb128 0xb
 817 0579 6F090000 		.4byte	0x96f
 818 057d 00       		.byte	0
 819 057e 18       		.uleb128 0x18
 820 057f 700F0000 		.4byte	.LASF75
 821 0583 02       		.byte	0x2
 822 0584 E001     		.2byte	0x1e0
 823 0586 A20C0000 		.4byte	.LASF76
 824 058a 9D050000 		.4byte	0x59d
 825 058e 01       		.byte	0x1
 826 058f 97050000 		.4byte	0x597
 827 0593 9D050000 		.4byte	0x59d
 828 0597 0E       		.uleb128 0xe
 829 0598 BD090000 		.4byte	0x9bd
 830 059c 00       		.byte	0
 831 059d 07       		.uleb128 0x7
 832 059e 05020000 		.4byte	0x205
 833 05a2 1A       		.uleb128 0x1a
 834 05a3 656E6400 		.ascii	"end\000"
 835 05a7 02       		.byte	0x2
 836 05a8 E401     		.2byte	0x1e4
 837 05aa C8010000 		.4byte	.LASF80
 838 05ae 9D050000 		.4byte	0x59d
 839 05b2 01       		.byte	0x1
 840 05b3 BB050000 		.4byte	0x5bb
 841 05b7 C1050000 		.4byte	0x5c1
 842 05bb 0E       		.uleb128 0xe
 843 05bc BD090000 		.4byte	0x9bd
 844 05c0 00       		.byte	0
 845 05c1 19       		.uleb128 0x19
 846 05c2 B1000000 		.4byte	.LASF77
 847 05c6 02       		.byte	0x2
 848 05c7 E801     		.2byte	0x1e8
 849 05c9 8B020000 		.4byte	.LASF78
 850 05cd 01       		.byte	0x1
 851 05ce D6050000 		.4byte	0x5d6
 852 05d2 E1050000 		.4byte	0x5e1
ARM GAS  /tmp/cckXCl6x.s 			page 16


 853 05d6 0E       		.uleb128 0xe
 854 05d7 BD090000 		.4byte	0x9bd
 855 05db 0B       		.uleb128 0xb
 856 05dc DB090000 		.4byte	0x9db
 857 05e0 00       		.byte	0
 858 05e1 18       		.uleb128 0x18
 859 05e2 700F0000 		.4byte	.LASF75
 860 05e6 02       		.byte	0x2
 861 05e7 EC01     		.2byte	0x1ec
 862 05e9 050A0000 		.4byte	.LASF79
 863 05ed 00060000 		.4byte	0x600
 864 05f1 01       		.byte	0x1
 865 05f2 FA050000 		.4byte	0x5fa
 866 05f6 00060000 		.4byte	0x600
 867 05fa 0E       		.uleb128 0xe
 868 05fb B7090000 		.4byte	0x9b7
 869 05ff 00       		.byte	0
 870 0600 07       		.uleb128 0x7
 871 0601 0A020000 		.4byte	0x20a
 872 0605 1A       		.uleb128 0x1a
 873 0606 656E6400 		.ascii	"end\000"
 874 060a 02       		.byte	0x2
 875 060b F201     		.2byte	0x1f2
 876 060d 3A0A0000 		.4byte	.LASF81
 877 0611 00060000 		.4byte	0x600
 878 0615 01       		.byte	0x1
 879 0616 1E060000 		.4byte	0x61e
 880 061a 24060000 		.4byte	0x624
 881 061e 0E       		.uleb128 0xe
 882 061f B7090000 		.4byte	0x9b7
 883 0623 00       		.byte	0
 884 0624 19       		.uleb128 0x19
 885 0625 B1000000 		.4byte	.LASF77
 886 0629 02       		.byte	0x2
 887 062a F601     		.2byte	0x1f6
 888 062c 2D030000 		.4byte	.LASF82
 889 0630 01       		.byte	0x1
 890 0631 39060000 		.4byte	0x639
 891 0635 44060000 		.4byte	0x644
 892 0639 0E       		.uleb128 0xe
 893 063a B7090000 		.4byte	0x9b7
 894 063e 0B       		.uleb128 0xb
 895 063f E1090000 		.4byte	0x9e1
 896 0643 00       		.byte	0
 897 0644 1B       		.uleb128 0x1b
 898 0645 E4050000 		.4byte	.LASF83
 899 0649 02       		.byte	0x2
 900 064a FA01     		.2byte	0x1fa
 901 064c BD090000 		.4byte	0x9bd
 902 0650 01       		.byte	0x1
 903 0651 59060000 		.4byte	0x659
 904 0655 5F060000 		.4byte	0x65f
 905 0659 0E       		.uleb128 0xe
 906 065a BD090000 		.4byte	0x9bd
 907 065e 00       		.byte	0
 908 065f 1C       		.uleb128 0x1c
 909 0660 15070000 		.4byte	.LASF126
ARM GAS  /tmp/cckXCl6x.s 			page 17


 910 0664 6E060000 		.4byte	0x66e
 911 0668 00       		.byte	0
 912 0669 07       		.uleb128 0x7
 913 066a 6E060000 		.4byte	0x66e
 914 066e 1D       		.uleb128 0x1d
 915 066f 920F0000 		.4byte	.LASF87
 916 0673 1C       		.byte	0x1c
 917 0674 08       		.byte	0x8
 918 0675 0B       		.byte	0xb
 919 0676 29070000 		.4byte	0x729
 920 067a 24070000 		.4byte	0x724
 921 067e 1E       		.uleb128 0x1e
 922 067f 29070000 		.4byte	0x729
 923 0683 00       		.byte	0
 924 0684 01       		.byte	0x1
 925 0685 14       		.uleb128 0x14
 926 0686 62020000 		.4byte	.LASF84
 927 068a 08       		.byte	0x8
 928 068b 10       		.byte	0x10
 929 068c F2090000 		.4byte	0x9f2
 930 0690 08       		.byte	0x8
 931 0691 14       		.uleb128 0x14
 932 0692 6D0A0000 		.4byte	.LASF85
 933 0696 08       		.byte	0x8
 934 0697 12       		.byte	0x12
 935 0698 AE010000 		.4byte	0x1ae
 936 069c 0C       		.byte	0xc
 937 069d 14       		.uleb128 0x14
 938 069e 0B100000 		.4byte	.LASF86
 939 06a2 08       		.byte	0x8
 940 06a3 13       		.byte	0x13
 941 06a4 AE010000 		.4byte	0x1ae
 942 06a8 14       		.byte	0x14
 943 06a9 1F       		.uleb128 0x1f
 944 06aa 920F0000 		.4byte	.LASF87
 945 06ae C9090000 		.4byte	0x9c9
 946 06b2 01       		.byte	0x1
 947 06b3 BB060000 		.4byte	0x6bb
 948 06b7 C6060000 		.4byte	0x6c6
 949 06bb 0E       		.uleb128 0xe
 950 06bc C9090000 		.4byte	0x9c9
 951 06c0 0B       		.uleb128 0xb
 952 06c1 91090000 		.4byte	0x991
 953 06c5 00       		.byte	0
 954 06c6 20       		.uleb128 0x20
 955 06c7 CA0A0000 		.4byte	.LASF88
 956 06cb 08       		.byte	0x8
 957 06cc 1F       		.byte	0x1f
 958 06cd 78000000 		.4byte	.LASF94
 959 06d1 F2090000 		.4byte	0x9f2
 960 06d5 01       		.byte	0x1
 961 06d6 DE060000 		.4byte	0x6de
 962 06da E4060000 		.4byte	0x6e4
 963 06de 0E       		.uleb128 0xe
 964 06df F8090000 		.4byte	0x9f8
 965 06e3 00       		.byte	0
 966 06e4 0F       		.uleb128 0xf
ARM GAS  /tmp/cckXCl6x.s 			page 18


 967 06e5 920F0000 		.4byte	.LASF87
 968 06e9 01       		.byte	0x1
 969 06ea 07       		.byte	0x7
 970 06eb C9090000 		.4byte	0x9c9
 971 06ef 02       		.byte	0x2
 972 06f0 F8060000 		.4byte	0x6f8
 973 06f4 03070000 		.4byte	0x703
 974 06f8 0E       		.uleb128 0xe
 975 06f9 C9090000 		.4byte	0x9c9
 976 06fd 0B       		.uleb128 0xb
 977 06fe FE090000 		.4byte	0x9fe
 978 0702 00       		.byte	0
 979 0703 21       		.uleb128 0x21
 980 0704 AC040000 		.4byte	.LASF89
 981 0708 01       		.byte	0x1
 982 0709 10       		.byte	0x10
 983 070a 7D000000 		.4byte	0x7d
 984 070e 01       		.byte	0x1
 985 070f 6E060000 		.4byte	0x66e
 986 0713 02       		.byte	0x2
 987 0714 18070000 		.4byte	0x718
 988 0718 0E       		.uleb128 0xe
 989 0719 C9090000 		.4byte	0x9c9
 990 071d 0E       		.uleb128 0xe
 991 071e 25000000 		.4byte	0x25
 992 0722 00       		.byte	0
 993 0723 00       		.byte	0
 994 0724 07       		.uleb128 0x7
 995 0725 9C010000 		.4byte	0x19c
 996 0729 1D       		.uleb128 0x1d
 997 072a 44050000 		.4byte	.LASF90
 998 072e 08       		.byte	0x8
 999 072f 09       		.byte	0x9
 1000 0730 0F       		.byte	0xf
 1001 0731 29070000 		.4byte	0x729
 1002 0735 36090000 		.4byte	0x936
 1003 0739 12       		.uleb128 0x12
 1004 073a 32010000 		.4byte	0x132
 1005 073e 00       		.byte	0
 1006 073f 22       		.uleb128 0x22
 1007 0740 3D020000 		.4byte	.LASF91
 1008 0744 0F0A0000 		.4byte	0xa0f
 1009 0748 00       		.byte	0
 1010 0749 01       		.byte	0x1
 1011 074a 14       		.uleb128 0x14
 1012 074b 8B0F0000 		.4byte	.LASF92
 1013 074f 09       		.byte	0x9
 1014 0750 11       		.byte	0x11
 1015 0751 1F0A0000 		.4byte	0xa1f
 1016 0755 04       		.byte	0x4
 1017 0756 1F       		.uleb128 0x1f
 1018 0757 44050000 		.4byte	.LASF90
 1019 075b 250A0000 		.4byte	0xa25
 1020 075f 01       		.byte	0x1
 1021 0760 68070000 		.4byte	0x768
 1022 0764 73070000 		.4byte	0x773
 1023 0768 0E       		.uleb128 0xe
ARM GAS  /tmp/cckXCl6x.s 			page 19


 1024 0769 250A0000 		.4byte	0xa25
 1025 076d 0B       		.uleb128 0xb
 1026 076e 2B0A0000 		.4byte	0xa2b
 1027 0772 00       		.byte	0
 1028 0773 20       		.uleb128 0x20
 1029 0774 1A070000 		.4byte	.LASF93
 1030 0778 09       		.byte	0x9
 1031 0779 2A       		.byte	0x2a
 1032 077a D40B0000 		.4byte	.LASF95
 1033 077e 1F0A0000 		.4byte	0xa1f
 1034 0782 01       		.byte	0x1
 1035 0783 8B070000 		.4byte	0x78b
 1036 0787 91070000 		.4byte	0x791
 1037 078b 0E       		.uleb128 0xe
 1038 078c 310A0000 		.4byte	0xa31
 1039 0790 00       		.byte	0
 1040 0791 23       		.uleb128 0x23
 1041 0792 70050000 		.4byte	.LASF97
 1042 0796 09       		.byte	0x9
 1043 0797 15       		.byte	0x15
 1044 0798 17010000 		.4byte	.LASF99
 1045 079c 2C000000 		.4byte	0x2c
 1046 07a0 01       		.byte	0x1
 1047 07a1 02       		.uleb128 0x2
 1048 07a2 10       		.byte	0x10
 1049 07a3 00       		.uleb128 0
 1050 07a4 29070000 		.4byte	0x729
 1051 07a8 01       		.byte	0x1
 1052 07a9 B1070000 		.4byte	0x7b1
 1053 07ad B7070000 		.4byte	0x7b7
 1054 07b1 0E       		.uleb128 0xe
 1055 07b2 310A0000 		.4byte	0xa31
 1056 07b6 00       		.byte	0
 1057 07b7 24       		.uleb128 0x24
 1058 07b8 F5060000 		.4byte	.LASF96
 1059 07bc 09       		.byte	0x9
 1060 07bd 31       		.byte	0x31
 1061 07be 38000000 		.4byte	.LASF127
 1062 07c2 01       		.byte	0x1
 1063 07c3 CB070000 		.4byte	0x7cb
 1064 07c7 D6070000 		.4byte	0x7d6
 1065 07cb 0E       		.uleb128 0xe
 1066 07cc 250A0000 		.4byte	0xa25
 1067 07d0 0B       		.uleb128 0xb
 1068 07d1 370A0000 		.4byte	0xa37
 1069 07d5 00       		.byte	0
 1070 07d6 23       		.uleb128 0x23
 1071 07d7 E80A0000 		.4byte	.LASF98
 1072 07db 09       		.byte	0x9
 1073 07dc 18       		.byte	0x18
 1074 07dd 7A0A0000 		.4byte	.LASF100
 1075 07e1 5C090000 		.4byte	0x95c
 1076 07e5 01       		.byte	0x1
 1077 07e6 02       		.uleb128 0x2
 1078 07e7 10       		.byte	0x10
 1079 07e8 01       		.uleb128 0x1
 1080 07e9 29070000 		.4byte	0x729
ARM GAS  /tmp/cckXCl6x.s 			page 20


 1081 07ed 01       		.byte	0x1
 1082 07ee F6070000 		.4byte	0x7f6
 1083 07f2 06080000 		.4byte	0x806
 1084 07f6 0E       		.uleb128 0xe
 1085 07f7 250A0000 		.4byte	0xa25
 1086 07fb 0B       		.uleb128 0xb
 1087 07fc 3D0A0000 		.4byte	0xa3d
 1088 0800 0B       		.uleb128 0xb
 1089 0801 430A0000 		.4byte	0xa43
 1090 0805 00       		.byte	0
 1091 0806 23       		.uleb128 0x23
 1092 0807 40040000 		.4byte	.LASF101
 1093 080b 09       		.byte	0x9
 1094 080c 19       		.byte	0x19
 1095 080d 8E0B0000 		.4byte	.LASF102
 1096 0811 5C090000 		.4byte	0x95c
 1097 0815 01       		.byte	0x1
 1098 0816 02       		.uleb128 0x2
 1099 0817 10       		.byte	0x10
 1100 0818 02       		.uleb128 0x2
 1101 0819 29070000 		.4byte	0x729
 1102 081d 01       		.byte	0x1
 1103 081e 26080000 		.4byte	0x826
 1104 0822 36080000 		.4byte	0x836
 1105 0826 0E       		.uleb128 0xe
 1106 0827 250A0000 		.4byte	0xa25
 1107 082b 0B       		.uleb128 0xb
 1108 082c 69090000 		.4byte	0x969
 1109 0830 0B       		.uleb128 0xb
 1110 0831 490A0000 		.4byte	0xa49
 1111 0835 00       		.byte	0
 1112 0836 20       		.uleb128 0x20
 1113 0837 4E070000 		.4byte	.LASF103
 1114 083b 09       		.byte	0x9
 1115 083c 1A       		.byte	0x1a
 1116 083d 2D0D0000 		.4byte	.LASF104
 1117 0841 5C090000 		.4byte	0x95c
 1118 0845 01       		.byte	0x1
 1119 0846 4E080000 		.4byte	0x84e
 1120 084a 59080000 		.4byte	0x859
 1121 084e 0E       		.uleb128 0xe
 1122 084f 250A0000 		.4byte	0xa25
 1123 0853 0B       		.uleb128 0xb
 1124 0854 3D0A0000 		.4byte	0xa3d
 1125 0858 00       		.byte	0
 1126 0859 23       		.uleb128 0x23
 1127 085a CD0B0000 		.4byte	.LASF105
 1128 085e 09       		.byte	0x9
 1129 085f 1C       		.byte	0x1c
 1130 0860 00000000 		.4byte	.LASF106
 1131 0864 5C090000 		.4byte	0x95c
 1132 0868 01       		.byte	0x1
 1133 0869 02       		.uleb128 0x2
 1134 086a 10       		.byte	0x10
 1135 086b 03       		.uleb128 0x3
 1136 086c 29070000 		.4byte	0x729
 1137 0870 01       		.byte	0x1
ARM GAS  /tmp/cckXCl6x.s 			page 21


 1138 0871 79080000 		.4byte	0x879
 1139 0875 89080000 		.4byte	0x889
 1140 0879 0E       		.uleb128 0xe
 1141 087a 250A0000 		.4byte	0xa25
 1142 087e 0B       		.uleb128 0xb
 1143 087f 3D0A0000 		.4byte	0xa3d
 1144 0883 0B       		.uleb128 0xb
 1145 0884 430A0000 		.4byte	0xa43
 1146 0888 00       		.byte	0
 1147 0889 23       		.uleb128 0x23
 1148 088a 6A050000 		.4byte	.LASF107
 1149 088e 09       		.byte	0x9
 1150 088f 1D       		.byte	0x1d
 1151 0890 69060000 		.4byte	.LASF108
 1152 0894 5C090000 		.4byte	0x95c
 1153 0898 01       		.byte	0x1
 1154 0899 02       		.uleb128 0x2
 1155 089a 10       		.byte	0x10
 1156 089b 04       		.uleb128 0x4
 1157 089c 29070000 		.4byte	0x729
 1158 08a0 01       		.byte	0x1
 1159 08a1 A9080000 		.4byte	0x8a9
 1160 08a5 B9080000 		.4byte	0x8b9
 1161 08a9 0E       		.uleb128 0xe
 1162 08aa 250A0000 		.4byte	0xa25
 1163 08ae 0B       		.uleb128 0xb
 1164 08af 69090000 		.4byte	0x969
 1165 08b3 0B       		.uleb128 0xb
 1166 08b4 490A0000 		.4byte	0xa49
 1167 08b8 00       		.byte	0
 1168 08b9 20       		.uleb128 0x20
 1169 08ba 680F0000 		.4byte	.LASF109
 1170 08be 09       		.byte	0x9
 1171 08bf 1E       		.byte	0x1e
 1172 08c0 6B0C0000 		.4byte	.LASF110
 1173 08c4 5C090000 		.4byte	0x95c
 1174 08c8 01       		.byte	0x1
 1175 08c9 D1080000 		.4byte	0x8d1
 1176 08cd DC080000 		.4byte	0x8dc
 1177 08d1 0E       		.uleb128 0xe
 1178 08d2 250A0000 		.4byte	0xa25
 1179 08d6 0B       		.uleb128 0xb
 1180 08d7 3D0A0000 		.4byte	0xa3d
 1181 08db 00       		.byte	0
 1182 08dc 0F       		.uleb128 0xf
 1183 08dd 44050000 		.4byte	.LASF90
 1184 08e1 09       		.byte	0x9
 1185 08e2 21       		.byte	0x21
 1186 08e3 250A0000 		.4byte	0xa25
 1187 08e7 02       		.byte	0x2
 1188 08e8 F0080000 		.4byte	0x8f0
 1189 08ec F6080000 		.4byte	0x8f6
 1190 08f0 0E       		.uleb128 0xe
 1191 08f1 250A0000 		.4byte	0xa25
 1192 08f5 00       		.byte	0
 1193 08f6 25       		.uleb128 0x25
 1194 08f7 9F090000 		.4byte	.LASF128
ARM GAS  /tmp/cckXCl6x.s 			page 22


 1195 08fb 09       		.byte	0x9
 1196 08fc 22       		.byte	0x22
 1197 08fd 7D000000 		.4byte	0x7d
 1198 0901 01       		.byte	0x1
 1199 0902 29070000 		.4byte	0x729
 1200 0906 02       		.byte	0x2
 1201 0907 0F090000 		.4byte	0x90f
 1202 090b 1A090000 		.4byte	0x91a
 1203 090f 0E       		.uleb128 0xe
 1204 0910 250A0000 		.4byte	0xa25
 1205 0914 0E       		.uleb128 0xe
 1206 0915 25000000 		.4byte	0x25
 1207 0919 00       		.byte	0
 1208 091a 26       		.uleb128 0x26
 1209 091b 570C0000 		.4byte	.LASF111
 1210 091f 09       		.byte	0x9
 1211 0920 25       		.byte	0x25
 1212 0921 74090000 		.4byte	.LASF129
 1213 0925 5C090000 		.4byte	0x95c
 1214 0929 01       		.byte	0x1
 1215 092a 0B       		.uleb128 0xb
 1216 092b 2B0A0000 		.4byte	0xa2b
 1217 092f 0B       		.uleb128 0xb
 1218 0930 8C000000 		.4byte	0x8c
 1219 0934 00       		.byte	0
 1220 0935 00       		.byte	0
 1221 0936 11       		.uleb128 0x11
 1222 0937 D2050000 		.4byte	.LASF112
 1223 093b 11       		.uleb128 0x11
 1224 093c F9000000 		.4byte	.LASF113
 1225 0940 07       		.uleb128 0x7
 1226 0941 29070000 		.4byte	0x729
 1227 0945 07       		.uleb128 0x7
 1228 0946 4A090000 		.4byte	0x94a
 1229 094a 11       		.uleb128 0x11
 1230 094b 760F0000 		.4byte	.LASF114
 1231 094f 00       		.byte	0
 1232 0950 06       		.uleb128 0x6
 1233 0951 04       		.byte	0x4
 1234 0952 32010000 		.4byte	0x132
 1235 0956 27       		.uleb128 0x27
 1236 0957 04       		.byte	0x4
 1237 0958 92010000 		.4byte	0x192
 1238 095c 04       		.uleb128 0x4
 1239 095d 01       		.byte	0x1
 1240 095e 02       		.byte	0x2
 1241 095f 6F090000 		.4byte	.LASF115
 1242 0963 06       		.uleb128 0x6
 1243 0964 04       		.byte	0x4
 1244 0965 97010000 		.4byte	0x197
 1245 0969 27       		.uleb128 0x27
 1246 096a 04       		.byte	0x4
 1247 096b 63090000 		.4byte	0x963
 1248 096f 06       		.uleb128 0x6
 1249 0970 04       		.byte	0x4
 1250 0971 75090000 		.4byte	0x975
 1251 0975 28       		.uleb128 0x28
ARM GAS  /tmp/cckXCl6x.s 			page 23


 1252 0976 06       		.uleb128 0x6
 1253 0977 04       		.byte	0x4
 1254 0978 AE010000 		.4byte	0x1ae
 1255 097c 06       		.uleb128 0x6
 1256 097d 04       		.byte	0x4
 1257 097e 82090000 		.4byte	0x982
 1258 0982 29       		.uleb128 0x29
 1259 0983 5C090000 		.4byte	0x95c
 1260 0987 91090000 		.4byte	0x991
 1261 098b 0B       		.uleb128 0xb
 1262 098c 91090000 		.4byte	0x991
 1263 0990 00       		.byte	0
 1264 0991 27       		.uleb128 0x27
 1265 0992 04       		.byte	0x4
 1266 0993 69060000 		.4byte	0x669
 1267 0997 06       		.uleb128 0x6
 1268 0998 04       		.byte	0x4
 1269 0999 9D090000 		.4byte	0x99d
 1270 099d 29       		.uleb128 0x29
 1271 099e 5C090000 		.4byte	0x95c
 1272 09a2 B1090000 		.4byte	0x9b1
 1273 09a6 0B       		.uleb128 0xb
 1274 09a7 91090000 		.4byte	0x991
 1275 09ab 0B       		.uleb128 0xb
 1276 09ac 6F090000 		.4byte	0x96f
 1277 09b0 00       		.byte	0
 1278 09b1 06       		.uleb128 0x6
 1279 09b2 04       		.byte	0x4
 1280 09b3 46020000 		.4byte	0x246
 1281 09b7 06       		.uleb128 0x6
 1282 09b8 04       		.byte	0x4
 1283 09b9 24070000 		.4byte	0x724
 1284 09bd 06       		.uleb128 0x6
 1285 09be 04       		.byte	0x4
 1286 09bf 9C010000 		.4byte	0x19c
 1287 09c3 27       		.uleb128 0x27
 1288 09c4 04       		.byte	0x4
 1289 09c5 AE010000 		.4byte	0x1ae
 1290 09c9 06       		.uleb128 0x6
 1291 09ca 04       		.byte	0x4
 1292 09cb 6E060000 		.4byte	0x66e
 1293 09cf 27       		.uleb128 0x27
 1294 09d0 04       		.byte	0x4
 1295 09d1 FB010000 		.4byte	0x1fb
 1296 09d5 27       		.uleb128 0x27
 1297 09d6 04       		.byte	0x4
 1298 09d7 00020000 		.4byte	0x200
 1299 09db 27       		.uleb128 0x27
 1300 09dc 04       		.byte	0x4
 1301 09dd 05020000 		.4byte	0x205
 1302 09e1 27       		.uleb128 0x27
 1303 09e2 04       		.byte	0x4
 1304 09e3 0A020000 		.4byte	0x20a
 1305 09e7 07       		.uleb128 0x7
 1306 09e8 C9090000 		.4byte	0x9c9
 1307 09ec 27       		.uleb128 0x27
 1308 09ed 04       		.byte	0x4
ARM GAS  /tmp/cckXCl6x.s 			page 24


 1309 09ee 6E060000 		.4byte	0x66e
 1310 09f2 06       		.uleb128 0x6
 1311 09f3 04       		.byte	0x4
 1312 09f4 36090000 		.4byte	0x936
 1313 09f8 06       		.uleb128 0x6
 1314 09f9 04       		.byte	0x4
 1315 09fa 69060000 		.4byte	0x669
 1316 09fe 27       		.uleb128 0x27
 1317 09ff 04       		.byte	0x4
 1318 0a00 36090000 		.4byte	0x936
 1319 0a04 29       		.uleb128 0x29
 1320 0a05 25000000 		.4byte	0x25
 1321 0a09 0F0A0000 		.4byte	0xa0f
 1322 0a0d 2A       		.uleb128 0x2a
 1323 0a0e 00       		.byte	0
 1324 0a0f 06       		.uleb128 0x6
 1325 0a10 04       		.byte	0x4
 1326 0a11 150A0000 		.4byte	0xa15
 1327 0a15 2B       		.uleb128 0x2b
 1328 0a16 04       		.byte	0x4
 1329 0a17 52020000 		.4byte	.LASF130
 1330 0a1b 040A0000 		.4byte	0xa04
 1331 0a1f 06       		.uleb128 0x6
 1332 0a20 04       		.byte	0x4
 1333 0a21 3B090000 		.4byte	0x93b
 1334 0a25 06       		.uleb128 0x6
 1335 0a26 04       		.byte	0x4
 1336 0a27 29070000 		.4byte	0x729
 1337 0a2b 27       		.uleb128 0x27
 1338 0a2c 04       		.byte	0x4
 1339 0a2d 40090000 		.4byte	0x940
 1340 0a31 06       		.uleb128 0x6
 1341 0a32 04       		.byte	0x4
 1342 0a33 40090000 		.4byte	0x940
 1343 0a37 27       		.uleb128 0x27
 1344 0a38 04       		.byte	0x4
 1345 0a39 3B090000 		.4byte	0x93b
 1346 0a3d 27       		.uleb128 0x27
 1347 0a3e 04       		.byte	0x4
 1348 0a3f 97010000 		.4byte	0x197
 1349 0a43 27       		.uleb128 0x27
 1350 0a44 04       		.byte	0x4
 1351 0a45 45090000 		.4byte	0x945
 1352 0a49 27       		.uleb128 0x27
 1353 0a4a 04       		.byte	0x4
 1354 0a4b 4A090000 		.4byte	0x94a
 1355 0a4f 2C       		.uleb128 0x2c
 1356 0a50 E4060000 		.4byte	0x6e4
 1357 0a54 00       		.byte	0
 1358 0a55 5D0A0000 		.4byte	0xa5d
 1359 0a59 720A0000 		.4byte	0xa72
 1360 0a5d 2D       		.uleb128 0x2d
 1361 0a5e C50A0000 		.4byte	.LASF116
 1362 0a62 E7090000 		.4byte	0x9e7
 1363 0a66 2E       		.uleb128 0x2e
 1364 0a67 F60A0000 		.4byte	.LASF121
 1365 0a6b 01       		.byte	0x1
ARM GAS  /tmp/cckXCl6x.s 			page 25


 1366 0a6c 07       		.byte	0x7
 1367 0a6d 720A0000 		.4byte	0xa72
 1368 0a71 00       		.byte	0
 1369 0a72 07       		.uleb128 0x7
 1370 0a73 FE090000 		.4byte	0x9fe
 1371 0a77 2F       		.uleb128 0x2f
 1372 0a78 4F0A0000 		.4byte	0xa4f
 1373 0a7c EF050000 		.4byte	.LASF118
 1374 0a80 00000000 		.4byte	.LFB167
 1375 0a84 44000000 		.4byte	.LFE167-.LFB167
 1376 0a88 01       		.uleb128 0x1
 1377 0a89 9C       		.byte	0x9c
 1378 0a8a 920A0000 		.4byte	0xa92
 1379 0a8e A30A0000 		.4byte	0xaa3
 1380 0a92 30       		.uleb128 0x30
 1381 0a93 5D0A0000 		.4byte	0xa5d
 1382 0a97 02       		.uleb128 0x2
 1383 0a98 91       		.byte	0x91
 1384 0a99 74       		.sleb128 -12
 1385 0a9a 30       		.uleb128 0x30
 1386 0a9b 660A0000 		.4byte	0xa66
 1387 0a9f 02       		.uleb128 0x2
 1388 0aa0 91       		.byte	0x91
 1389 0aa1 70       		.sleb128 -16
 1390 0aa2 00       		.byte	0
 1391 0aa3 2C       		.uleb128 0x2c
 1392 0aa4 03070000 		.4byte	0x703
 1393 0aa8 00       		.byte	0
 1394 0aa9 B10A0000 		.4byte	0xab1
 1395 0aad C40A0000 		.4byte	0xac4
 1396 0ab1 2D       		.uleb128 0x2d
 1397 0ab2 C50A0000 		.4byte	.LASF116
 1398 0ab6 E7090000 		.4byte	0x9e7
 1399 0aba 2D       		.uleb128 0x2d
 1400 0abb 610C0000 		.4byte	.LASF117
 1401 0abf C40A0000 		.4byte	0xac4
 1402 0ac3 00       		.byte	0
 1403 0ac4 07       		.uleb128 0x7
 1404 0ac5 25000000 		.4byte	0x25
 1405 0ac9 2F       		.uleb128 0x2f
 1406 0aca A30A0000 		.4byte	0xaa3
 1407 0ace ED0F0000 		.4byte	.LASF119
 1408 0ad2 00000000 		.4byte	.LFB170
 1409 0ad6 30000000 		.4byte	.LFE170-.LFB170
 1410 0ada 01       		.uleb128 0x1
 1411 0adb 9C       		.byte	0x9c
 1412 0adc E40A0000 		.4byte	0xae4
 1413 0ae0 ED0A0000 		.4byte	0xaed
 1414 0ae4 30       		.uleb128 0x30
 1415 0ae5 B10A0000 		.4byte	0xab1
 1416 0ae9 02       		.uleb128 0x2
 1417 0aea 91       		.byte	0x91
 1418 0aeb 74       		.sleb128 -12
 1419 0aec 00       		.byte	0
 1420 0aed 2F       		.uleb128 0x2f
 1421 0aee A30A0000 		.4byte	0xaa3
 1422 0af2 4D040000 		.4byte	.LASF120
ARM GAS  /tmp/cckXCl6x.s 			page 26


 1423 0af6 00000000 		.4byte	.LFB172
 1424 0afa 1C000000 		.4byte	.LFE172-.LFB172
 1425 0afe 01       		.uleb128 0x1
 1426 0aff 9C       		.byte	0x9c
 1427 0b00 080B0000 		.4byte	0xb08
 1428 0b04 110B0000 		.4byte	0xb11
 1429 0b08 30       		.uleb128 0x30
 1430 0b09 B10A0000 		.4byte	0xab1
 1431 0b0d 02       		.uleb128 0x2
 1432 0b0e 91       		.byte	0x91
 1433 0b0f 74       		.sleb128 -12
 1434 0b10 00       		.byte	0
 1435 0b11 2C       		.uleb128 0x2c
 1436 0b12 D3010000 		.4byte	0x1d3
 1437 0b16 02       		.byte	0x2
 1438 0b17 1F0B0000 		.4byte	0xb1f
 1439 0b1b 340B0000 		.4byte	0xb34
 1440 0b1f 2D       		.uleb128 0x2d
 1441 0b20 C50A0000 		.4byte	.LASF116
 1442 0b24 340B0000 		.4byte	0xb34
 1443 0b28 2E       		.uleb128 0x2e
 1444 0b29 FD0E0000 		.4byte	.LASF122
 1445 0b2d 02       		.byte	0x2
 1446 0b2e 15       		.byte	0x15
 1447 0b2f 390B0000 		.4byte	0xb39
 1448 0b33 00       		.byte	0
 1449 0b34 07       		.uleb128 0x7
 1450 0b35 76090000 		.4byte	0x976
 1451 0b39 07       		.uleb128 0x7
 1452 0b3a EC090000 		.4byte	0x9ec
 1453 0b3e 31       		.uleb128 0x31
 1454 0b3f 110B0000 		.4byte	0xb11
 1455 0b43 78030000 		.4byte	.LASF131
 1456 0b47 00000000 		.4byte	.LFB174
 1457 0b4b 1A000000 		.4byte	.LFE174-.LFB174
 1458 0b4f 01       		.uleb128 0x1
 1459 0b50 9C       		.byte	0x9c
 1460 0b51 550B0000 		.4byte	0xb55
 1461 0b55 30       		.uleb128 0x30
 1462 0b56 1F0B0000 		.4byte	0xb1f
 1463 0b5a 02       		.uleb128 0x2
 1464 0b5b 91       		.byte	0x91
 1465 0b5c 7C       		.sleb128 -4
 1466 0b5d 30       		.uleb128 0x30
 1467 0b5e 280B0000 		.4byte	0xb28
 1468 0b62 02       		.uleb128 0x2
 1469 0b63 91       		.byte	0x91
 1470 0b64 78       		.sleb128 -8
 1471 0b65 00       		.byte	0
 1472 0b66 00       		.byte	0
 1473              		.section	.debug_abbrev,"",%progbits
 1474              	.Ldebug_abbrev0:
 1475 0000 01       		.uleb128 0x1
 1476 0001 11       		.uleb128 0x11
 1477 0002 01       		.byte	0x1
 1478 0003 25       		.uleb128 0x25
 1479 0004 0E       		.uleb128 0xe
ARM GAS  /tmp/cckXCl6x.s 			page 27


 1480 0005 13       		.uleb128 0x13
 1481 0006 0B       		.uleb128 0xb
 1482 0007 03       		.uleb128 0x3
 1483 0008 0E       		.uleb128 0xe
 1484 0009 1B       		.uleb128 0x1b
 1485 000a 0E       		.uleb128 0xe
 1486 000b 55       		.uleb128 0x55
 1487 000c 17       		.uleb128 0x17
 1488 000d 11       		.uleb128 0x11
 1489 000e 01       		.uleb128 0x1
 1490 000f 10       		.uleb128 0x10
 1491 0010 17       		.uleb128 0x17
 1492 0011 00       		.byte	0
 1493 0012 00       		.byte	0
 1494 0013 02       		.uleb128 0x2
 1495 0014 24       		.uleb128 0x24
 1496 0015 00       		.byte	0
 1497 0016 0B       		.uleb128 0xb
 1498 0017 0B       		.uleb128 0xb
 1499 0018 3E       		.uleb128 0x3e
 1500 0019 0B       		.uleb128 0xb
 1501 001a 03       		.uleb128 0x3
 1502 001b 08       		.uleb128 0x8
 1503 001c 00       		.byte	0
 1504 001d 00       		.byte	0
 1505 001e 03       		.uleb128 0x3
 1506 001f 16       		.uleb128 0x16
 1507 0020 00       		.byte	0
 1508 0021 03       		.uleb128 0x3
 1509 0022 0E       		.uleb128 0xe
 1510 0023 3A       		.uleb128 0x3a
 1511 0024 0B       		.uleb128 0xb
 1512 0025 3B       		.uleb128 0x3b
 1513 0026 0B       		.uleb128 0xb
 1514 0027 49       		.uleb128 0x49
 1515 0028 13       		.uleb128 0x13
 1516 0029 00       		.byte	0
 1517 002a 00       		.byte	0
 1518 002b 04       		.uleb128 0x4
 1519 002c 24       		.uleb128 0x24
 1520 002d 00       		.byte	0
 1521 002e 0B       		.uleb128 0xb
 1522 002f 0B       		.uleb128 0xb
 1523 0030 3E       		.uleb128 0x3e
 1524 0031 0B       		.uleb128 0xb
 1525 0032 03       		.uleb128 0x3
 1526 0033 0E       		.uleb128 0xe
 1527 0034 00       		.byte	0
 1528 0035 00       		.byte	0
 1529 0036 05       		.uleb128 0x5
 1530 0037 0F       		.uleb128 0xf
 1531 0038 00       		.byte	0
 1532 0039 0B       		.uleb128 0xb
 1533 003a 0B       		.uleb128 0xb
 1534 003b 00       		.byte	0
 1535 003c 00       		.byte	0
 1536 003d 06       		.uleb128 0x6
ARM GAS  /tmp/cckXCl6x.s 			page 28


 1537 003e 0F       		.uleb128 0xf
 1538 003f 00       		.byte	0
 1539 0040 0B       		.uleb128 0xb
 1540 0041 0B       		.uleb128 0xb
 1541 0042 49       		.uleb128 0x49
 1542 0043 13       		.uleb128 0x13
 1543 0044 00       		.byte	0
 1544 0045 00       		.byte	0
 1545 0046 07       		.uleb128 0x7
 1546 0047 26       		.uleb128 0x26
 1547 0048 00       		.byte	0
 1548 0049 49       		.uleb128 0x49
 1549 004a 13       		.uleb128 0x13
 1550 004b 00       		.byte	0
 1551 004c 00       		.byte	0
 1552 004d 08       		.uleb128 0x8
 1553 004e 39       		.uleb128 0x39
 1554 004f 01       		.byte	0x1
 1555 0050 03       		.uleb128 0x3
 1556 0051 08       		.uleb128 0x8
 1557 0052 3A       		.uleb128 0x3a
 1558 0053 0B       		.uleb128 0xb
 1559 0054 3B       		.uleb128 0x3b
 1560 0055 0B       		.uleb128 0xb
 1561 0056 01       		.uleb128 0x1
 1562 0057 13       		.uleb128 0x13
 1563 0058 00       		.byte	0
 1564 0059 00       		.byte	0
 1565 005a 09       		.uleb128 0x9
 1566 005b 08       		.uleb128 0x8
 1567 005c 00       		.byte	0
 1568 005d 3A       		.uleb128 0x3a
 1569 005e 0B       		.uleb128 0xb
 1570 005f 3B       		.uleb128 0x3b
 1571 0060 0B       		.uleb128 0xb
 1572 0061 18       		.uleb128 0x18
 1573 0062 13       		.uleb128 0x13
 1574 0063 00       		.byte	0
 1575 0064 00       		.byte	0
 1576 0065 0A       		.uleb128 0xa
 1577 0066 2E       		.uleb128 0x2e
 1578 0067 01       		.byte	0x1
 1579 0068 3F       		.uleb128 0x3f
 1580 0069 19       		.uleb128 0x19
 1581 006a 03       		.uleb128 0x3
 1582 006b 0E       		.uleb128 0xe
 1583 006c 3A       		.uleb128 0x3a
 1584 006d 0B       		.uleb128 0xb
 1585 006e 3B       		.uleb128 0x3b
 1586 006f 0B       		.uleb128 0xb
 1587 0070 49       		.uleb128 0x49
 1588 0071 13       		.uleb128 0x13
 1589 0072 3C       		.uleb128 0x3c
 1590 0073 19       		.uleb128 0x19
 1591 0074 01       		.uleb128 0x1
 1592 0075 13       		.uleb128 0x13
 1593 0076 00       		.byte	0
ARM GAS  /tmp/cckXCl6x.s 			page 29


 1594 0077 00       		.byte	0
 1595 0078 0B       		.uleb128 0xb
 1596 0079 05       		.uleb128 0x5
 1597 007a 00       		.byte	0
 1598 007b 49       		.uleb128 0x49
 1599 007c 13       		.uleb128 0x13
 1600 007d 00       		.byte	0
 1601 007e 00       		.byte	0
 1602 007f 0C       		.uleb128 0xc
 1603 0080 02       		.uleb128 0x2
 1604 0081 01       		.byte	0x1
 1605 0082 03       		.uleb128 0x3
 1606 0083 0E       		.uleb128 0xe
 1607 0084 0B       		.uleb128 0xb
 1608 0085 0B       		.uleb128 0xb
 1609 0086 3A       		.uleb128 0x3a
 1610 0087 0B       		.uleb128 0xb
 1611 0088 3B       		.uleb128 0x3b
 1612 0089 0B       		.uleb128 0xb
 1613 008a 01       		.uleb128 0x1
 1614 008b 13       		.uleb128 0x13
 1615 008c 00       		.byte	0
 1616 008d 00       		.byte	0
 1617 008e 0D       		.uleb128 0xd
 1618 008f 2E       		.uleb128 0x2e
 1619 0090 01       		.byte	0x1
 1620 0091 3F       		.uleb128 0x3f
 1621 0092 19       		.uleb128 0x19
 1622 0093 03       		.uleb128 0x3
 1623 0094 0E       		.uleb128 0xe
 1624 0095 3A       		.uleb128 0x3a
 1625 0096 0B       		.uleb128 0xb
 1626 0097 3B       		.uleb128 0x3b
 1627 0098 0B       		.uleb128 0xb
 1628 0099 49       		.uleb128 0x49
 1629 009a 13       		.uleb128 0x13
 1630 009b 3C       		.uleb128 0x3c
 1631 009c 19       		.uleb128 0x19
 1632 009d 64       		.uleb128 0x64
 1633 009e 13       		.uleb128 0x13
 1634 009f 01       		.uleb128 0x1
 1635 00a0 13       		.uleb128 0x13
 1636 00a1 00       		.byte	0
 1637 00a2 00       		.byte	0
 1638 00a3 0E       		.uleb128 0xe
 1639 00a4 05       		.uleb128 0x5
 1640 00a5 00       		.byte	0
 1641 00a6 49       		.uleb128 0x49
 1642 00a7 13       		.uleb128 0x13
 1643 00a8 34       		.uleb128 0x34
 1644 00a9 19       		.uleb128 0x19
 1645 00aa 00       		.byte	0
 1646 00ab 00       		.byte	0
 1647 00ac 0F       		.uleb128 0xf
 1648 00ad 2E       		.uleb128 0x2e
 1649 00ae 01       		.byte	0x1
 1650 00af 3F       		.uleb128 0x3f
ARM GAS  /tmp/cckXCl6x.s 			page 30


 1651 00b0 19       		.uleb128 0x19
 1652 00b1 03       		.uleb128 0x3
 1653 00b2 0E       		.uleb128 0xe
 1654 00b3 3A       		.uleb128 0x3a
 1655 00b4 0B       		.uleb128 0xb
 1656 00b5 3B       		.uleb128 0x3b
 1657 00b6 0B       		.uleb128 0xb
 1658 00b7 49       		.uleb128 0x49
 1659 00b8 13       		.uleb128 0x13
 1660 00b9 32       		.uleb128 0x32
 1661 00ba 0B       		.uleb128 0xb
 1662 00bb 3C       		.uleb128 0x3c
 1663 00bc 19       		.uleb128 0x19
 1664 00bd 64       		.uleb128 0x64
 1665 00be 13       		.uleb128 0x13
 1666 00bf 01       		.uleb128 0x1
 1667 00c0 13       		.uleb128 0x13
 1668 00c1 00       		.byte	0
 1669 00c2 00       		.byte	0
 1670 00c3 10       		.uleb128 0x10
 1671 00c4 2E       		.uleb128 0x2e
 1672 00c5 01       		.byte	0x1
 1673 00c6 3F       		.uleb128 0x3f
 1674 00c7 19       		.uleb128 0x19
 1675 00c8 03       		.uleb128 0x3
 1676 00c9 0E       		.uleb128 0xe
 1677 00ca 3A       		.uleb128 0x3a
 1678 00cb 0B       		.uleb128 0xb
 1679 00cc 3B       		.uleb128 0x3b
 1680 00cd 0B       		.uleb128 0xb
 1681 00ce 49       		.uleb128 0x49
 1682 00cf 13       		.uleb128 0x13
 1683 00d0 32       		.uleb128 0x32
 1684 00d1 0B       		.uleb128 0xb
 1685 00d2 3C       		.uleb128 0x3c
 1686 00d3 19       		.uleb128 0x19
 1687 00d4 64       		.uleb128 0x64
 1688 00d5 13       		.uleb128 0x13
 1689 00d6 00       		.byte	0
 1690 00d7 00       		.byte	0
 1691 00d8 11       		.uleb128 0x11
 1692 00d9 02       		.uleb128 0x2
 1693 00da 00       		.byte	0
 1694 00db 03       		.uleb128 0x3
 1695 00dc 0E       		.uleb128 0xe
 1696 00dd 3C       		.uleb128 0x3c
 1697 00de 19       		.uleb128 0x19
 1698 00df 00       		.byte	0
 1699 00e0 00       		.byte	0
 1700 00e1 12       		.uleb128 0x12
 1701 00e2 1C       		.uleb128 0x1c
 1702 00e3 00       		.byte	0
 1703 00e4 49       		.uleb128 0x49
 1704 00e5 13       		.uleb128 0x13
 1705 00e6 38       		.uleb128 0x38
 1706 00e7 0B       		.uleb128 0xb
 1707 00e8 00       		.byte	0
ARM GAS  /tmp/cckXCl6x.s 			page 31


 1708 00e9 00       		.byte	0
 1709 00ea 13       		.uleb128 0x13
 1710 00eb 13       		.uleb128 0x13
 1711 00ec 01       		.byte	0x1
 1712 00ed 03       		.uleb128 0x3
 1713 00ee 0E       		.uleb128 0xe
 1714 00ef 0B       		.uleb128 0xb
 1715 00f0 0B       		.uleb128 0xb
 1716 00f1 3A       		.uleb128 0x3a
 1717 00f2 0B       		.uleb128 0xb
 1718 00f3 3B       		.uleb128 0x3b
 1719 00f4 0B       		.uleb128 0xb
 1720 00f5 32       		.uleb128 0x32
 1721 00f6 0B       		.uleb128 0xb
 1722 00f7 01       		.uleb128 0x1
 1723 00f8 13       		.uleb128 0x13
 1724 00f9 00       		.byte	0
 1725 00fa 00       		.byte	0
 1726 00fb 14       		.uleb128 0x14
 1727 00fc 0D       		.uleb128 0xd
 1728 00fd 00       		.byte	0
 1729 00fe 03       		.uleb128 0x3
 1730 00ff 0E       		.uleb128 0xe
 1731 0100 3A       		.uleb128 0x3a
 1732 0101 0B       		.uleb128 0xb
 1733 0102 3B       		.uleb128 0x3b
 1734 0103 0B       		.uleb128 0xb
 1735 0104 49       		.uleb128 0x49
 1736 0105 13       		.uleb128 0x13
 1737 0106 38       		.uleb128 0x38
 1738 0107 0B       		.uleb128 0xb
 1739 0108 00       		.byte	0
 1740 0109 00       		.byte	0
 1741 010a 15       		.uleb128 0x15
 1742 010b 2E       		.uleb128 0x2e
 1743 010c 01       		.byte	0x1
 1744 010d 3F       		.uleb128 0x3f
 1745 010e 19       		.uleb128 0x19
 1746 010f 03       		.uleb128 0x3
 1747 0110 0E       		.uleb128 0xe
 1748 0111 3A       		.uleb128 0x3a
 1749 0112 0B       		.uleb128 0xb
 1750 0113 3B       		.uleb128 0x3b
 1751 0114 0B       		.uleb128 0xb
 1752 0115 49       		.uleb128 0x49
 1753 0116 13       		.uleb128 0x13
 1754 0117 3C       		.uleb128 0x3c
 1755 0118 19       		.uleb128 0x19
 1756 0119 64       		.uleb128 0x64
 1757 011a 13       		.uleb128 0x13
 1758 011b 00       		.byte	0
 1759 011c 00       		.byte	0
 1760 011d 16       		.uleb128 0x16
 1761 011e 0D       		.uleb128 0xd
 1762 011f 00       		.byte	0
 1763 0120 03       		.uleb128 0x3
 1764 0121 0E       		.uleb128 0xe
ARM GAS  /tmp/cckXCl6x.s 			page 32


 1765 0122 3A       		.uleb128 0x3a
 1766 0123 0B       		.uleb128 0xb
 1767 0124 3B       		.uleb128 0x3b
 1768 0125 05       		.uleb128 0x5
 1769 0126 49       		.uleb128 0x49
 1770 0127 13       		.uleb128 0x13
 1771 0128 38       		.uleb128 0x38
 1772 0129 0B       		.uleb128 0xb
 1773 012a 00       		.byte	0
 1774 012b 00       		.byte	0
 1775 012c 17       		.uleb128 0x17
 1776 012d 16       		.uleb128 0x16
 1777 012e 00       		.byte	0
 1778 012f 03       		.uleb128 0x3
 1779 0130 0E       		.uleb128 0xe
 1780 0131 3A       		.uleb128 0x3a
 1781 0132 0B       		.uleb128 0xb
 1782 0133 3B       		.uleb128 0x3b
 1783 0134 05       		.uleb128 0x5
 1784 0135 49       		.uleb128 0x49
 1785 0136 13       		.uleb128 0x13
 1786 0137 00       		.byte	0
 1787 0138 00       		.byte	0
 1788 0139 18       		.uleb128 0x18
 1789 013a 2E       		.uleb128 0x2e
 1790 013b 01       		.byte	0x1
 1791 013c 3F       		.uleb128 0x3f
 1792 013d 19       		.uleb128 0x19
 1793 013e 03       		.uleb128 0x3
 1794 013f 0E       		.uleb128 0xe
 1795 0140 3A       		.uleb128 0x3a
 1796 0141 0B       		.uleb128 0xb
 1797 0142 3B       		.uleb128 0x3b
 1798 0143 05       		.uleb128 0x5
 1799 0144 6E       		.uleb128 0x6e
 1800 0145 0E       		.uleb128 0xe
 1801 0146 49       		.uleb128 0x49
 1802 0147 13       		.uleb128 0x13
 1803 0148 32       		.uleb128 0x32
 1804 0149 0B       		.uleb128 0xb
 1805 014a 3C       		.uleb128 0x3c
 1806 014b 19       		.uleb128 0x19
 1807 014c 64       		.uleb128 0x64
 1808 014d 13       		.uleb128 0x13
 1809 014e 01       		.uleb128 0x1
 1810 014f 13       		.uleb128 0x13
 1811 0150 00       		.byte	0
 1812 0151 00       		.byte	0
 1813 0152 19       		.uleb128 0x19
 1814 0153 2E       		.uleb128 0x2e
 1815 0154 01       		.byte	0x1
 1816 0155 3F       		.uleb128 0x3f
 1817 0156 19       		.uleb128 0x19
 1818 0157 03       		.uleb128 0x3
 1819 0158 0E       		.uleb128 0xe
 1820 0159 3A       		.uleb128 0x3a
 1821 015a 0B       		.uleb128 0xb
ARM GAS  /tmp/cckXCl6x.s 			page 33


 1822 015b 3B       		.uleb128 0x3b
 1823 015c 05       		.uleb128 0x5
 1824 015d 6E       		.uleb128 0x6e
 1825 015e 0E       		.uleb128 0xe
 1826 015f 32       		.uleb128 0x32
 1827 0160 0B       		.uleb128 0xb
 1828 0161 3C       		.uleb128 0x3c
 1829 0162 19       		.uleb128 0x19
 1830 0163 64       		.uleb128 0x64
 1831 0164 13       		.uleb128 0x13
 1832 0165 01       		.uleb128 0x1
 1833 0166 13       		.uleb128 0x13
 1834 0167 00       		.byte	0
 1835 0168 00       		.byte	0
 1836 0169 1A       		.uleb128 0x1a
 1837 016a 2E       		.uleb128 0x2e
 1838 016b 01       		.byte	0x1
 1839 016c 3F       		.uleb128 0x3f
 1840 016d 19       		.uleb128 0x19
 1841 016e 03       		.uleb128 0x3
 1842 016f 08       		.uleb128 0x8
 1843 0170 3A       		.uleb128 0x3a
 1844 0171 0B       		.uleb128 0xb
 1845 0172 3B       		.uleb128 0x3b
 1846 0173 05       		.uleb128 0x5
 1847 0174 6E       		.uleb128 0x6e
 1848 0175 0E       		.uleb128 0xe
 1849 0176 49       		.uleb128 0x49
 1850 0177 13       		.uleb128 0x13
 1851 0178 32       		.uleb128 0x32
 1852 0179 0B       		.uleb128 0xb
 1853 017a 3C       		.uleb128 0x3c
 1854 017b 19       		.uleb128 0x19
 1855 017c 64       		.uleb128 0x64
 1856 017d 13       		.uleb128 0x13
 1857 017e 01       		.uleb128 0x1
 1858 017f 13       		.uleb128 0x13
 1859 0180 00       		.byte	0
 1860 0181 00       		.byte	0
 1861 0182 1B       		.uleb128 0x1b
 1862 0183 2E       		.uleb128 0x2e
 1863 0184 01       		.byte	0x1
 1864 0185 3F       		.uleb128 0x3f
 1865 0186 19       		.uleb128 0x19
 1866 0187 03       		.uleb128 0x3
 1867 0188 0E       		.uleb128 0xe
 1868 0189 3A       		.uleb128 0x3a
 1869 018a 0B       		.uleb128 0xb
 1870 018b 3B       		.uleb128 0x3b
 1871 018c 05       		.uleb128 0x5
 1872 018d 49       		.uleb128 0x49
 1873 018e 13       		.uleb128 0x13
 1874 018f 32       		.uleb128 0x32
 1875 0190 0B       		.uleb128 0xb
 1876 0191 3C       		.uleb128 0x3c
 1877 0192 19       		.uleb128 0x19
 1878 0193 64       		.uleb128 0x64
ARM GAS  /tmp/cckXCl6x.s 			page 34


 1879 0194 13       		.uleb128 0x13
 1880 0195 01       		.uleb128 0x1
 1881 0196 13       		.uleb128 0x13
 1882 0197 00       		.byte	0
 1883 0198 00       		.byte	0
 1884 0199 1C       		.uleb128 0x1c
 1885 019a 2F       		.uleb128 0x2f
 1886 019b 00       		.byte	0
 1887 019c 03       		.uleb128 0x3
 1888 019d 0E       		.uleb128 0xe
 1889 019e 49       		.uleb128 0x49
 1890 019f 13       		.uleb128 0x13
 1891 01a0 00       		.byte	0
 1892 01a1 00       		.byte	0
 1893 01a2 1D       		.uleb128 0x1d
 1894 01a3 02       		.uleb128 0x2
 1895 01a4 01       		.byte	0x1
 1896 01a5 03       		.uleb128 0x3
 1897 01a6 0E       		.uleb128 0xe
 1898 01a7 0B       		.uleb128 0xb
 1899 01a8 0B       		.uleb128 0xb
 1900 01a9 3A       		.uleb128 0x3a
 1901 01aa 0B       		.uleb128 0xb
 1902 01ab 3B       		.uleb128 0x3b
 1903 01ac 0B       		.uleb128 0xb
 1904 01ad 1D       		.uleb128 0x1d
 1905 01ae 13       		.uleb128 0x13
 1906 01af 01       		.uleb128 0x1
 1907 01b0 13       		.uleb128 0x13
 1908 01b1 00       		.byte	0
 1909 01b2 00       		.byte	0
 1910 01b3 1E       		.uleb128 0x1e
 1911 01b4 1C       		.uleb128 0x1c
 1912 01b5 00       		.byte	0
 1913 01b6 49       		.uleb128 0x49
 1914 01b7 13       		.uleb128 0x13
 1915 01b8 38       		.uleb128 0x38
 1916 01b9 0B       		.uleb128 0xb
 1917 01ba 32       		.uleb128 0x32
 1918 01bb 0B       		.uleb128 0xb
 1919 01bc 00       		.byte	0
 1920 01bd 00       		.byte	0
 1921 01be 1F       		.uleb128 0x1f
 1922 01bf 2E       		.uleb128 0x2e
 1923 01c0 01       		.byte	0x1
 1924 01c1 3F       		.uleb128 0x3f
 1925 01c2 19       		.uleb128 0x19
 1926 01c3 03       		.uleb128 0x3
 1927 01c4 0E       		.uleb128 0xe
 1928 01c5 49       		.uleb128 0x49
 1929 01c6 13       		.uleb128 0x13
 1930 01c7 34       		.uleb128 0x34
 1931 01c8 19       		.uleb128 0x19
 1932 01c9 32       		.uleb128 0x32
 1933 01ca 0B       		.uleb128 0xb
 1934 01cb 3C       		.uleb128 0x3c
 1935 01cc 19       		.uleb128 0x19
ARM GAS  /tmp/cckXCl6x.s 			page 35


 1936 01cd 64       		.uleb128 0x64
 1937 01ce 13       		.uleb128 0x13
 1938 01cf 01       		.uleb128 0x1
 1939 01d0 13       		.uleb128 0x13
 1940 01d1 00       		.byte	0
 1941 01d2 00       		.byte	0
 1942 01d3 20       		.uleb128 0x20
 1943 01d4 2E       		.uleb128 0x2e
 1944 01d5 01       		.byte	0x1
 1945 01d6 3F       		.uleb128 0x3f
 1946 01d7 19       		.uleb128 0x19
 1947 01d8 03       		.uleb128 0x3
 1948 01d9 0E       		.uleb128 0xe
 1949 01da 3A       		.uleb128 0x3a
 1950 01db 0B       		.uleb128 0xb
 1951 01dc 3B       		.uleb128 0x3b
 1952 01dd 0B       		.uleb128 0xb
 1953 01de 6E       		.uleb128 0x6e
 1954 01df 0E       		.uleb128 0xe
 1955 01e0 49       		.uleb128 0x49
 1956 01e1 13       		.uleb128 0x13
 1957 01e2 32       		.uleb128 0x32
 1958 01e3 0B       		.uleb128 0xb
 1959 01e4 3C       		.uleb128 0x3c
 1960 01e5 19       		.uleb128 0x19
 1961 01e6 64       		.uleb128 0x64
 1962 01e7 13       		.uleb128 0x13
 1963 01e8 01       		.uleb128 0x1
 1964 01e9 13       		.uleb128 0x13
 1965 01ea 00       		.byte	0
 1966 01eb 00       		.byte	0
 1967 01ec 21       		.uleb128 0x21
 1968 01ed 2E       		.uleb128 0x2e
 1969 01ee 01       		.byte	0x1
 1970 01ef 3F       		.uleb128 0x3f
 1971 01f0 19       		.uleb128 0x19
 1972 01f1 03       		.uleb128 0x3
 1973 01f2 0E       		.uleb128 0xe
 1974 01f3 3A       		.uleb128 0x3a
 1975 01f4 0B       		.uleb128 0xb
 1976 01f5 3B       		.uleb128 0x3b
 1977 01f6 0B       		.uleb128 0xb
 1978 01f7 49       		.uleb128 0x49
 1979 01f8 13       		.uleb128 0x13
 1980 01f9 4C       		.uleb128 0x4c
 1981 01fa 0B       		.uleb128 0xb
 1982 01fb 1D       		.uleb128 0x1d
 1983 01fc 13       		.uleb128 0x13
 1984 01fd 32       		.uleb128 0x32
 1985 01fe 0B       		.uleb128 0xb
 1986 01ff 3C       		.uleb128 0x3c
 1987 0200 19       		.uleb128 0x19
 1988 0201 64       		.uleb128 0x64
 1989 0202 13       		.uleb128 0x13
 1990 0203 00       		.byte	0
 1991 0204 00       		.byte	0
 1992 0205 22       		.uleb128 0x22
ARM GAS  /tmp/cckXCl6x.s 			page 36


 1993 0206 0D       		.uleb128 0xd
 1994 0207 00       		.byte	0
 1995 0208 03       		.uleb128 0x3
 1996 0209 0E       		.uleb128 0xe
 1997 020a 49       		.uleb128 0x49
 1998 020b 13       		.uleb128 0x13
 1999 020c 38       		.uleb128 0x38
 2000 020d 0B       		.uleb128 0xb
 2001 020e 34       		.uleb128 0x34
 2002 020f 19       		.uleb128 0x19
 2003 0210 32       		.uleb128 0x32
 2004 0211 0B       		.uleb128 0xb
 2005 0212 00       		.byte	0
 2006 0213 00       		.byte	0
 2007 0214 23       		.uleb128 0x23
 2008 0215 2E       		.uleb128 0x2e
 2009 0216 01       		.byte	0x1
 2010 0217 3F       		.uleb128 0x3f
 2011 0218 19       		.uleb128 0x19
 2012 0219 03       		.uleb128 0x3
 2013 021a 0E       		.uleb128 0xe
 2014 021b 3A       		.uleb128 0x3a
 2015 021c 0B       		.uleb128 0xb
 2016 021d 3B       		.uleb128 0x3b
 2017 021e 0B       		.uleb128 0xb
 2018 021f 6E       		.uleb128 0x6e
 2019 0220 0E       		.uleb128 0xe
 2020 0221 49       		.uleb128 0x49
 2021 0222 13       		.uleb128 0x13
 2022 0223 4C       		.uleb128 0x4c
 2023 0224 0B       		.uleb128 0xb
 2024 0225 4D       		.uleb128 0x4d
 2025 0226 18       		.uleb128 0x18
 2026 0227 1D       		.uleb128 0x1d
 2027 0228 13       		.uleb128 0x13
 2028 0229 32       		.uleb128 0x32
 2029 022a 0B       		.uleb128 0xb
 2030 022b 3C       		.uleb128 0x3c
 2031 022c 19       		.uleb128 0x19
 2032 022d 64       		.uleb128 0x64
 2033 022e 13       		.uleb128 0x13
 2034 022f 01       		.uleb128 0x1
 2035 0230 13       		.uleb128 0x13
 2036 0231 00       		.byte	0
 2037 0232 00       		.byte	0
 2038 0233 24       		.uleb128 0x24
 2039 0234 2E       		.uleb128 0x2e
 2040 0235 01       		.byte	0x1
 2041 0236 3F       		.uleb128 0x3f
 2042 0237 19       		.uleb128 0x19
 2043 0238 03       		.uleb128 0x3
 2044 0239 0E       		.uleb128 0xe
 2045 023a 3A       		.uleb128 0x3a
 2046 023b 0B       		.uleb128 0xb
 2047 023c 3B       		.uleb128 0x3b
 2048 023d 0B       		.uleb128 0xb
 2049 023e 6E       		.uleb128 0x6e
ARM GAS  /tmp/cckXCl6x.s 			page 37


 2050 023f 0E       		.uleb128 0xe
 2051 0240 32       		.uleb128 0x32
 2052 0241 0B       		.uleb128 0xb
 2053 0242 3C       		.uleb128 0x3c
 2054 0243 19       		.uleb128 0x19
 2055 0244 64       		.uleb128 0x64
 2056 0245 13       		.uleb128 0x13
 2057 0246 01       		.uleb128 0x1
 2058 0247 13       		.uleb128 0x13
 2059 0248 00       		.byte	0
 2060 0249 00       		.byte	0
 2061 024a 25       		.uleb128 0x25
 2062 024b 2E       		.uleb128 0x2e
 2063 024c 01       		.byte	0x1
 2064 024d 3F       		.uleb128 0x3f
 2065 024e 19       		.uleb128 0x19
 2066 024f 03       		.uleb128 0x3
 2067 0250 0E       		.uleb128 0xe
 2068 0251 3A       		.uleb128 0x3a
 2069 0252 0B       		.uleb128 0xb
 2070 0253 3B       		.uleb128 0x3b
 2071 0254 0B       		.uleb128 0xb
 2072 0255 49       		.uleb128 0x49
 2073 0256 13       		.uleb128 0x13
 2074 0257 4C       		.uleb128 0x4c
 2075 0258 0B       		.uleb128 0xb
 2076 0259 1D       		.uleb128 0x1d
 2077 025a 13       		.uleb128 0x13
 2078 025b 32       		.uleb128 0x32
 2079 025c 0B       		.uleb128 0xb
 2080 025d 3C       		.uleb128 0x3c
 2081 025e 19       		.uleb128 0x19
 2082 025f 64       		.uleb128 0x64
 2083 0260 13       		.uleb128 0x13
 2084 0261 01       		.uleb128 0x1
 2085 0262 13       		.uleb128 0x13
 2086 0263 00       		.byte	0
 2087 0264 00       		.byte	0
 2088 0265 26       		.uleb128 0x26
 2089 0266 2E       		.uleb128 0x2e
 2090 0267 01       		.byte	0x1
 2091 0268 3F       		.uleb128 0x3f
 2092 0269 19       		.uleb128 0x19
 2093 026a 03       		.uleb128 0x3
 2094 026b 0E       		.uleb128 0xe
 2095 026c 3A       		.uleb128 0x3a
 2096 026d 0B       		.uleb128 0xb
 2097 026e 3B       		.uleb128 0x3b
 2098 026f 0B       		.uleb128 0xb
 2099 0270 6E       		.uleb128 0x6e
 2100 0271 0E       		.uleb128 0xe
 2101 0272 49       		.uleb128 0x49
 2102 0273 13       		.uleb128 0x13
 2103 0274 32       		.uleb128 0x32
 2104 0275 0B       		.uleb128 0xb
 2105 0276 3C       		.uleb128 0x3c
 2106 0277 19       		.uleb128 0x19
ARM GAS  /tmp/cckXCl6x.s 			page 38


 2107 0278 00       		.byte	0
 2108 0279 00       		.byte	0
 2109 027a 27       		.uleb128 0x27
 2110 027b 10       		.uleb128 0x10
 2111 027c 00       		.byte	0
 2112 027d 0B       		.uleb128 0xb
 2113 027e 0B       		.uleb128 0xb
 2114 027f 49       		.uleb128 0x49
 2115 0280 13       		.uleb128 0x13
 2116 0281 00       		.byte	0
 2117 0282 00       		.byte	0
 2118 0283 28       		.uleb128 0x28
 2119 0284 26       		.uleb128 0x26
 2120 0285 00       		.byte	0
 2121 0286 00       		.byte	0
 2122 0287 00       		.byte	0
 2123 0288 29       		.uleb128 0x29
 2124 0289 15       		.uleb128 0x15
 2125 028a 01       		.byte	0x1
 2126 028b 49       		.uleb128 0x49
 2127 028c 13       		.uleb128 0x13
 2128 028d 01       		.uleb128 0x1
 2129 028e 13       		.uleb128 0x13
 2130 028f 00       		.byte	0
 2131 0290 00       		.byte	0
 2132 0291 2A       		.uleb128 0x2a
 2133 0292 18       		.uleb128 0x18
 2134 0293 00       		.byte	0
 2135 0294 00       		.byte	0
 2136 0295 00       		.byte	0
 2137 0296 2B       		.uleb128 0x2b
 2138 0297 0F       		.uleb128 0xf
 2139 0298 00       		.byte	0
 2140 0299 0B       		.uleb128 0xb
 2141 029a 0B       		.uleb128 0xb
 2142 029b 03       		.uleb128 0x3
 2143 029c 0E       		.uleb128 0xe
 2144 029d 49       		.uleb128 0x49
 2145 029e 13       		.uleb128 0x13
 2146 029f 00       		.byte	0
 2147 02a0 00       		.byte	0
 2148 02a1 2C       		.uleb128 0x2c
 2149 02a2 2E       		.uleb128 0x2e
 2150 02a3 01       		.byte	0x1
 2151 02a4 47       		.uleb128 0x47
 2152 02a5 13       		.uleb128 0x13
 2153 02a6 20       		.uleb128 0x20
 2154 02a7 0B       		.uleb128 0xb
 2155 02a8 64       		.uleb128 0x64
 2156 02a9 13       		.uleb128 0x13
 2157 02aa 01       		.uleb128 0x1
 2158 02ab 13       		.uleb128 0x13
 2159 02ac 00       		.byte	0
 2160 02ad 00       		.byte	0
 2161 02ae 2D       		.uleb128 0x2d
 2162 02af 05       		.uleb128 0x5
 2163 02b0 00       		.byte	0
ARM GAS  /tmp/cckXCl6x.s 			page 39


 2164 02b1 03       		.uleb128 0x3
 2165 02b2 0E       		.uleb128 0xe
 2166 02b3 49       		.uleb128 0x49
 2167 02b4 13       		.uleb128 0x13
 2168 02b5 34       		.uleb128 0x34
 2169 02b6 19       		.uleb128 0x19
 2170 02b7 00       		.byte	0
 2171 02b8 00       		.byte	0
 2172 02b9 2E       		.uleb128 0x2e
 2173 02ba 05       		.uleb128 0x5
 2174 02bb 00       		.byte	0
 2175 02bc 03       		.uleb128 0x3
 2176 02bd 0E       		.uleb128 0xe
 2177 02be 3A       		.uleb128 0x3a
 2178 02bf 0B       		.uleb128 0xb
 2179 02c0 3B       		.uleb128 0x3b
 2180 02c1 0B       		.uleb128 0xb
 2181 02c2 49       		.uleb128 0x49
 2182 02c3 13       		.uleb128 0x13
 2183 02c4 00       		.byte	0
 2184 02c5 00       		.byte	0
 2185 02c6 2F       		.uleb128 0x2f
 2186 02c7 2E       		.uleb128 0x2e
 2187 02c8 01       		.byte	0x1
 2188 02c9 31       		.uleb128 0x31
 2189 02ca 13       		.uleb128 0x13
 2190 02cb 6E       		.uleb128 0x6e
 2191 02cc 0E       		.uleb128 0xe
 2192 02cd 11       		.uleb128 0x11
 2193 02ce 01       		.uleb128 0x1
 2194 02cf 12       		.uleb128 0x12
 2195 02d0 06       		.uleb128 0x6
 2196 02d1 40       		.uleb128 0x40
 2197 02d2 18       		.uleb128 0x18
 2198 02d3 64       		.uleb128 0x64
 2199 02d4 13       		.uleb128 0x13
 2200 02d5 9642     		.uleb128 0x2116
 2201 02d7 19       		.uleb128 0x19
 2202 02d8 01       		.uleb128 0x1
 2203 02d9 13       		.uleb128 0x13
 2204 02da 00       		.byte	0
 2205 02db 00       		.byte	0
 2206 02dc 30       		.uleb128 0x30
 2207 02dd 05       		.uleb128 0x5
 2208 02de 00       		.byte	0
 2209 02df 31       		.uleb128 0x31
 2210 02e0 13       		.uleb128 0x13
 2211 02e1 02       		.uleb128 0x2
 2212 02e2 18       		.uleb128 0x18
 2213 02e3 00       		.byte	0
 2214 02e4 00       		.byte	0
 2215 02e5 31       		.uleb128 0x31
 2216 02e6 2E       		.uleb128 0x2e
 2217 02e7 01       		.byte	0x1
 2218 02e8 31       		.uleb128 0x31
 2219 02e9 13       		.uleb128 0x13
 2220 02ea 6E       		.uleb128 0x6e
ARM GAS  /tmp/cckXCl6x.s 			page 40


 2221 02eb 0E       		.uleb128 0xe
 2222 02ec 11       		.uleb128 0x11
 2223 02ed 01       		.uleb128 0x1
 2224 02ee 12       		.uleb128 0x12
 2225 02ef 06       		.uleb128 0x6
 2226 02f0 40       		.uleb128 0x40
 2227 02f1 18       		.uleb128 0x18
 2228 02f2 64       		.uleb128 0x64
 2229 02f3 13       		.uleb128 0x13
 2230 02f4 9742     		.uleb128 0x2117
 2231 02f6 19       		.uleb128 0x19
 2232 02f7 00       		.byte	0
 2233 02f8 00       		.byte	0
 2234 02f9 00       		.byte	0
 2235              		.section	.debug_aranges,"",%progbits
 2236 0000 34000000 		.4byte	0x34
 2237 0004 0200     		.2byte	0x2
 2238 0006 00000000 		.4byte	.Ldebug_info0
 2239 000a 04       		.byte	0x4
 2240 000b 00       		.byte	0
 2241 000c 0000     		.2byte	0
 2242 000e 0000     		.2byte	0
 2243 0010 00000000 		.4byte	.LFB167
 2244 0014 44000000 		.4byte	.LFE167-.LFB167
 2245 0018 00000000 		.4byte	.LFB170
 2246 001c 30000000 		.4byte	.LFE170-.LFB170
 2247 0020 00000000 		.4byte	.LFB172
 2248 0024 1C000000 		.4byte	.LFE172-.LFB172
 2249 0028 00000000 		.4byte	.LFB174
 2250 002c 1A000000 		.4byte	.LFE174-.LFB174
 2251 0030 00000000 		.4byte	0
 2252 0034 00000000 		.4byte	0
 2253              		.section	.debug_ranges,"",%progbits
 2254              	.Ldebug_ranges0:
 2255 0000 00000000 		.4byte	.LFB167
 2256 0004 44000000 		.4byte	.LFE167
 2257 0008 00000000 		.4byte	.LFB170
 2258 000c 30000000 		.4byte	.LFE170
 2259 0010 00000000 		.4byte	.LFB172
 2260 0014 1C000000 		.4byte	.LFE172
 2261 0018 00000000 		.4byte	.LFB174
 2262 001c 1A000000 		.4byte	.LFE174
 2263 0020 00000000 		.4byte	0
 2264 0024 00000000 		.4byte	0
 2265              		.section	.debug_line,"",%progbits
 2266              	.Ldebug_line0:
 2267 0000 58020000 		.section	.debug_str,"MS",%progbits,1
 2267      02000502 
 2267      00000201 
 2267      FB0E0D00 
 2267      01010101 
 2268              	.LASF106:
 2269 0000 5F5A4E33 		.ascii	"_ZN3r2p14BaseSubscriber6notifyERNS_7MessageERKNS_4T"
 2269      72327031 
 2269      34426173 
 2269      65537562 
 2269      73637269 
ARM GAS  /tmp/cckXCl6x.s 			page 41


 2270 0033 696D6545 		.ascii	"imeE\000"
 2270      00
 2271              	.LASF127:
 2272 0038 5F5A4E33 		.ascii	"_ZN3r2p14BaseSubscriber17notify_subscribedERNS_5Top"
 2272      72327031 
 2272      34426173 
 2272      65537562 
 2272      73637269 
 2273 006b 69634500 		.ascii	"icE\000"
 2274              	.LASF60:
 2275 006f 69735F65 		.ascii	"is_empty\000"
 2275      6D707479 
 2275      00
 2276              	.LASF94:
 2277 0078 5F5A4E4B 		.ascii	"_ZNK3r2p16RemoteSubscriber13get_transportEv\000"
 2277      33723270 
 2277      31365265 
 2277      6D6F7465 
 2277      53756273 
 2278              	.LASF0:
 2279 00a4 756E7369 		.ascii	"unsigned int\000"
 2279      676E6564 
 2279      20696E74 
 2279      00
 2280              	.LASF77:
 2281 00b1 72657374 		.ascii	"restart\000"
 2281      61727400 
 2282              	.LASF33:
 2283 00b9 5F5A4E4B 		.ascii	"_ZNK3r2p10StaticListINS_16RemoteSubscriberEE15is_em"
 2283      33723270 
 2283      31305374 
 2283      61746963 
 2283      4C697374 
 2284 00ec 7074795F 		.ascii	"pty_unsafeEv\000"
 2284      756E7361 
 2284      66654576 
 2284      00
 2285              	.LASF113:
 2286 00f9 546F7069 		.ascii	"Topic\000"
 2286      6300
 2287              	.LASF22:
 2288 00ff 4D657373 		.ascii	"Message\000"
 2288      61676500 
 2289              	.LASF31:
 2290 0107 69735F65 		.ascii	"is_empty_unsafe\000"
 2290      6D707479 
 2290      5F756E73 
 2290      61666500 
 2291              	.LASF99:
 2292 0117 5F5A4E4B 		.ascii	"_ZNK3r2p14BaseSubscriber16get_queue_lengthEv\000"
 2292      33723270 
 2292      31344261 
 2292      73655375 
 2292      62736372 
 2293              	.LASF12:
 2294 0144 73747265 		.ascii	"strerror\000"
 2294      72726F72 
ARM GAS  /tmp/cckXCl6x.s 			page 42


 2294      00
 2295              	.LASF124:
 2296 014d 2F686F6D 		.ascii	"/home/ergae/r2p-sdk/core/Middleware/src/RemoteSubsc"
 2296      652F6572 
 2296      6761652F 
 2296      7232702D 
 2296      73646B2F 
 2297 0180 72696265 		.ascii	"riber.cpp\000"
 2297      722E6370 
 2297      7000
 2298              	.LASF61:
 2299 018a 5F5A4E4B 		.ascii	"_ZNK3r2p10StaticListINS_16RemoteSubscriberEE8is_emp"
 2299      33723270 
 2299      31305374 
 2299      61746963 
 2299      4C697374 
 2300 01bd 74794576 		.ascii	"tyEv\000"
 2300      00
 2301              	.LASF21:
 2302 01c2 68656164 		.ascii	"headp\000"
 2302      7000
 2303              	.LASF80:
 2304 01c8 5F5A4E33 		.ascii	"_ZN3r2p10StaticListINS_16RemoteSubscriberEE3endEv\000"
 2304      72327031 
 2304      30537461 
 2304      7469634C 
 2304      69737449 
 2305              	.LASF73:
 2306 01fa 5F5A4E4B 		.ascii	"_ZNK3r2p10StaticListINS_16RemoteSubscriberEE10find_"
 2306      33723270 
 2306      31305374 
 2306      61746963 
 2306      4C697374 
 2307 022d 66697273 		.ascii	"firstEPFbRKS1_E\000"
 2307      74455046 
 2307      62524B53 
 2307      315F4500 
 2308              	.LASF91:
 2309 023d 5F767074 		.ascii	"_vptr.BaseSubscriber\000"
 2309      722E4261 
 2309      73655375 
 2309      62736372 
 2309      69626572 
 2310              	.LASF130:
 2311 0252 5F5F7674 		.ascii	"__vtbl_ptr_type\000"
 2311      626C5F70 
 2311      74725F74 
 2311      79706500 
 2312              	.LASF84:
 2313 0262 7472616E 		.ascii	"transportp\000"
 2313      73706F72 
 2313      747000
 2314              	.LASF34:
 2315 026d 636F756E 		.ascii	"count_unsafe\000"
 2315      745F756E 
 2315      73616665 
 2315      00
ARM GAS  /tmp/cckXCl6x.s 			page 43


 2316              	.LASF37:
 2317 027a 6C696E6B 		.ascii	"link_tail_unsafe\000"
 2317      5F746169 
 2317      6C5F756E 
 2317      73616665 
 2317      00
 2318              	.LASF78:
 2319 028b 5F5A4E33 		.ascii	"_ZN3r2p10StaticListINS_16RemoteSubscriberEE7restart"
 2319      72327031 
 2319      30537461 
 2319      7469634C 
 2319      69737449 
 2320 02be 45524E53 		.ascii	"ERNS2_8IteratorE\000"
 2320      325F3849 
 2320      74657261 
 2320      746F7245 
 2320      00
 2321              	.LASF51:
 2322 02cf 656E645F 		.ascii	"end_unsafe\000"
 2322      756E7361 
 2322      666500
 2323              	.LASF54:
 2324 02da 5F5A4E33 		.ascii	"_ZN3r2p10StaticListINS_16RemoteSubscriberEE14restar"
 2324      72327031 
 2324      30537461 
 2324      7469634C 
 2324      69737449 
 2325 030d 745F756E 		.ascii	"t_unsafeERNS2_14IteratorUnsafeE\000"
 2325      73616665 
 2325      45524E53 
 2325      325F3134 
 2325      49746572 
 2326              	.LASF82:
 2327 032d 5F5A4E4B 		.ascii	"_ZNK3r2p10StaticListINS_16RemoteSubscriberEE7restar"
 2327      33723270 
 2327      31305374 
 2327      61746963 
 2327      4C697374 
 2328 0360 7445524E 		.ascii	"tERNS2_13ConstIteratorE\000"
 2328      53325F31 
 2328      33436F6E 
 2328      73744974 
 2328      65726174 
 2329              	.LASF131:
 2330 0378 5F5A4E33 		.ascii	"_ZN3r2p10StaticListINS_16RemoteSubscriberEE4LinkC2E"
 2330      72327031 
 2330      30537461 
 2330      7469634C 
 2330      69737449 
 2331 03ab 5253315F 		.ascii	"RS1_\000"
 2331      00
 2332              	.LASF32:
 2333 03b0 5F5A4E4B 		.ascii	"_ZNK3r2p10StaticListINS_16RemoteSubscriberEE15get_h"
 2333      33723270 
 2333      31305374 
 2333      61746963 
 2333      4C697374 
ARM GAS  /tmp/cckXCl6x.s 			page 44


 2334 03e3 6561645F 		.ascii	"ead_unsafeEv\000"
 2334      756E7361 
 2334      66654576 
 2334      00
 2335              	.LASF16:
 2336 03f0 7E556E63 		.ascii	"~Uncopyable\000"
 2336      6F707961 
 2336      626C6500 
 2337              	.LASF43:
 2338 03fc 5F5A4E4B 		.ascii	"_ZNK3r2p10StaticListINS_16RemoteSubscriberEE15index"
 2338      33723270 
 2338      31305374 
 2338      61746963 
 2338      4C697374 
 2339 042f 5F6F665F 		.ascii	"_of_unsafeERKS1_\000"
 2339      756E7361 
 2339      66654552 
 2339      4B53315F 
 2339      00
 2340              	.LASF101:
 2341 0440 66657463 		.ascii	"fetch_unsafe\000"
 2341      685F756E 
 2341      73616665 
 2341      00
 2342              	.LASF120:
 2343 044d 5F5A4E33 		.ascii	"_ZN3r2p16RemoteSubscriberD0Ev\000"
 2343      72327031 
 2343      3652656D 
 2343      6F746553 
 2343      75627363 
 2344              	.LASF18:
 2345 046b 6E657874 		.ascii	"nextp\000"
 2345      7000
 2346              	.LASF56:
 2347 0471 5F5A4E4B 		.ascii	"_ZNK3r2p10StaticListINS_16RemoteSubscriberEE10end_u"
 2347      33723270 
 2347      31305374 
 2347      61746963 
 2347      4C697374 
 2348 04a4 6E736166 		.ascii	"nsafeEv\000"
 2348      65457600 
 2349              	.LASF89:
 2350 04ac 7E52656D 		.ascii	"~RemoteSubscriber\000"
 2350      6F746553 
 2350      75627363 
 2350      72696265 
 2350      7200
 2351              	.LASF50:
 2352 04be 5F5A4E33 		.ascii	"_ZN3r2p10StaticListINS_16RemoteSubscriberEE12begin_"
 2352      72327031 
 2352      30537461 
 2352      7469634C 
 2352      69737449 
 2353 04f1 756E7361 		.ascii	"unsafeEv\000"
 2353      66654576 
 2353      00
 2354              	.LASF62:
ARM GAS  /tmp/cckXCl6x.s 			page 45


 2355 04fa 636F756E 		.ascii	"count\000"
 2355      7400
 2356              	.LASF35:
 2357 0500 5F5A4E4B 		.ascii	"_ZNK3r2p10StaticListINS_16RemoteSubscriberEE12count"
 2357      33723270 
 2357      31305374 
 2357      61746963 
 2357      4C697374 
 2358 0533 5F756E73 		.ascii	"_unsafeEv\000"
 2358      61666545 
 2358      7600
 2359              	.LASF66:
 2360 053d 756E6C69 		.ascii	"unlink\000"
 2360      6E6B00
 2361              	.LASF90:
 2362 0544 42617365 		.ascii	"BaseSubscriber\000"
 2362      53756273 
 2362      63726962 
 2362      657200
 2363              	.LASF8:
 2364 0553 6C6F6E67 		.ascii	"long long unsigned int\000"
 2364      206C6F6E 
 2364      6720756E 
 2364      7369676E 
 2364      65642069 
 2365              	.LASF107:
 2366 056a 66657463 		.ascii	"fetch\000"
 2366      6800
 2367              	.LASF97:
 2368 0570 6765745F 		.ascii	"get_queue_length\000"
 2368      71756575 
 2368      655F6C65 
 2368      6E677468 
 2368      00
 2369              	.LASF39:
 2370 0581 5F5A4E33 		.ascii	"_ZN3r2p10StaticListINS_16RemoteSubscriberEE16link_t"
 2370      72327031 
 2370      30537461 
 2370      7469634C 
 2370      69737449 
 2371 05b4 61696C5F 		.ascii	"ail_unsafeERNS2_4LinkE\000"
 2371      756E7361 
 2371      66654552 
 2371      4E53325F 
 2371      344C696E 
 2372              	.LASF27:
 2373 05cb 73697A65 		.ascii	"size_t\000"
 2373      5F7400
 2374              	.LASF112:
 2375 05d2 5472616E 		.ascii	"Transport\000"
 2375      73706F72 
 2375      7400
 2376              	.LASF14:
 2377 05dc 73747278 		.ascii	"strxfrm\000"
 2377      66726D00 
 2378              	.LASF83:
 2379 05e4 53746174 		.ascii	"StaticList\000"
ARM GAS  /tmp/cckXCl6x.s 			page 46


 2379      69634C69 
 2379      737400
 2380              	.LASF118:
 2381 05ef 5F5A4E33 		.ascii	"_ZN3r2p16RemoteSubscriberC2ERNS_9TransportE\000"
 2381      72327031 
 2381      3652656D 
 2381      6F746553 
 2381      75627363 
 2382              	.LASF70:
 2383 061b 636F6E74 		.ascii	"contains\000"
 2383      61696E73 
 2383      00
 2384              	.LASF20:
 2385 0624 4C696E6B 		.ascii	"Link\000"
 2385      00
 2386              	.LASF59:
 2387 0629 5F5A4E4B 		.ascii	"_ZNK3r2p10StaticListINS_16RemoteSubscriberEE8get_he"
 2387      33723270 
 2387      31305374 
 2387      61746963 
 2387      4C697374 
 2388 065c 61644576 		.ascii	"adEv\000"
 2388      00
 2389              	.LASF11:
 2390 0661 73747263 		.ascii	"strcoll\000"
 2390      6F6C6C00 
 2391              	.LASF108:
 2392 0669 5F5A4E33 		.ascii	"_ZN3r2p14BaseSubscriber5fetchERPNS_7MessageERNS_4Ti"
 2392      72327031 
 2392      34426173 
 2392      65537562 
 2392      73637269 
 2393 069c 6D654500 		.ascii	"meE\000"
 2394              	.LASF10:
 2395 06a0 63686172 		.ascii	"char\000"
 2395      00
 2396              	.LASF48:
 2397 06a5 5F5A4E4B 		.ascii	"_ZNK3r2p10StaticListINS_16RemoteSubscriberEE17find_"
 2397      33723270 
 2397      31305374 
 2397      61746963 
 2397      4C697374 
 2398 06d8 66697273 		.ascii	"first_unsafeEPFbRKS1_PKvES6_\000"
 2398      745F756E 
 2398      73616665 
 2398      45504662 
 2398      524B5331 
 2399              	.LASF96:
 2400 06f5 6E6F7469 		.ascii	"notify_subscribed\000"
 2400      66795F73 
 2400      75627363 
 2400      72696265 
 2400      6400
 2401              	.LASF40:
 2402 0707 756E6C69 		.ascii	"unlink_unsafe\000"
 2402      6E6B5F75 
 2402      6E736166 
ARM GAS  /tmp/cckXCl6x.s 			page 47


 2402      6500
 2403              	.LASF126:
 2404 0715 4974656D 		.ascii	"Item\000"
 2404      00
 2405              	.LASF93:
 2406 071a 6765745F 		.ascii	"get_topic\000"
 2406      746F7069 
 2406      6300
 2407              	.LASF42:
 2408 0724 696E6465 		.ascii	"index_of_unsafe\000"
 2408      785F6F66 
 2408      5F756E73 
 2408      61666500 
 2409              	.LASF15:
 2410 0734 556E636F 		.ascii	"Uncopyable\000"
 2410      70796162 
 2410      6C6500
 2411              	.LASF53:
 2412 073f 72657374 		.ascii	"restart_unsafe\000"
 2412      6172745F 
 2412      756E7361 
 2412      666500
 2413              	.LASF103:
 2414 074e 72656C65 		.ascii	"release_unsafe\000"
 2414      6173655F 
 2414      756E7361 
 2414      666500
 2415              	.LASF25:
 2416 075d 49746572 		.ascii	"Iterator\000"
 2416      61746F72 
 2416      00
 2417              	.LASF123:
 2418 0766 474E5520 		.ascii	"GNU C++ 4.9.3 20141119 (release) [ARM/embedded-4_9-"
 2418      432B2B20 
 2418      342E392E 
 2418      33203230 
 2418      31343131 
 2419 0799 6272616E 		.ascii	"branch revision 218278] -mcpu=cortex-m4 -mfloat-abi"
 2419      63682072 
 2419      65766973 
 2419      696F6E20 
 2419      32313832 
 2420 07cc 3D686172 		.ascii	"=hard -mfpu=fpv4-sp-d16 -mno-thumb-interwork -mthum"
 2420      64202D6D 
 2420      6670753D 
 2420      66707634 
 2420      2D73702D 
 2421 07ff 62202D67 		.ascii	"b -ggdb -O0 -fomit-frame-pointer -falign-functions="
 2421      67646220 
 2421      2D4F3020 
 2421      2D666F6D 
 2421      69742D66 
 2422 0832 3136202D 		.ascii	"16 -ffunction-sections -fdata-sections -fno-common "
 2422      6666756E 
 2422      6374696F 
 2422      6E2D7365 
 2422      6374696F 
ARM GAS  /tmp/cckXCl6x.s 			page 48


 2423 0865 2D667369 		.ascii	"-fsingle-precision-constant -fno-rtti -fno-exceptio"
 2423      6E676C65 
 2423      2D707265 
 2423      63697369 
 2423      6F6E2D63 
 2424 0898 6E73202D 		.ascii	"ns -fno-threadsafe-statics\000"
 2424      666E6F2D 
 2424      74687265 
 2424      61647361 
 2424      66652D73 
 2425              	.LASF24:
 2426 08b3 436F6E73 		.ascii	"ConstIteratorUnsafe\000"
 2426      74497465 
 2426      7261746F 
 2426      72556E73 
 2426      61666500 
 2427              	.LASF7:
 2428 08c7 6C6F6E67 		.ascii	"long long int\000"
 2428      206C6F6E 
 2428      6720696E 
 2428      7400
 2429              	.LASF57:
 2430 08d5 5F5A4E4B 		.ascii	"_ZNK3r2p10StaticListINS_16RemoteSubscriberEE14resta"
 2430      33723270 
 2430      31305374 
 2430      61746963 
 2430      4C697374 
 2431 0908 72745F75 		.ascii	"rt_unsafeERNS2_19ConstIteratorUnsafeE\000"
 2431      6E736166 
 2431      6545524E 
 2431      53325F31 
 2431      39436F6E 
 2432              	.LASF36:
 2433 092e 6C696E6B 		.ascii	"link_unsafe\000"
 2433      5F756E73 
 2433      61666500 
 2434              	.LASF63:
 2435 093a 5F5A4E4B 		.ascii	"_ZNK3r2p10StaticListINS_16RemoteSubscriberEE5countE"
 2435      33723270 
 2435      31305374 
 2435      61746963 
 2435      4C697374 
 2436 096d 7600     		.ascii	"v\000"
 2437              	.LASF115:
 2438 096f 626F6F6C 		.ascii	"bool\000"
 2438      00
 2439              	.LASF129:
 2440 0974 5F5A4E33 		.ascii	"_ZN3r2p14BaseSubscriber9has_topicERKS0_PKc\000"
 2440      72327031 
 2440      34426173 
 2440      65537562 
 2440      73637269 
 2441              	.LASF128:
 2442 099f 7E426173 		.ascii	"~BaseSubscriber\000"
 2442      65537562 
 2442      73637269 
 2442      62657200 
ARM GAS  /tmp/cckXCl6x.s 			page 49


 2443              	.LASF41:
 2444 09af 5F5A4E33 		.ascii	"_ZN3r2p10StaticListINS_16RemoteSubscriberEE13unlink"
 2444      72327031 
 2444      30537461 
 2444      7469634C 
 2444      69737449 
 2445 09e2 5F756E73 		.ascii	"_unsafeERNS2_4LinkE\000"
 2445      61666545 
 2445      524E5332 
 2445      5F344C69 
 2445      6E6B4500 
 2446              	.LASF68:
 2447 09f6 696E6465 		.ascii	"index_of\000"
 2447      785F6F66 
 2447      00
 2448              	.LASF19:
 2449 09ff 6974656D 		.ascii	"itemp\000"
 2449      7000
 2450              	.LASF79:
 2451 0a05 5F5A4E4B 		.ascii	"_ZNK3r2p10StaticListINS_16RemoteSubscriberEE5beginE"
 2451      33723270 
 2451      31305374 
 2451      61746963 
 2451      4C697374 
 2452 0a38 7600     		.ascii	"v\000"
 2453              	.LASF81:
 2454 0a3a 5F5A4E4B 		.ascii	"_ZNK3r2p10StaticListINS_16RemoteSubscriberEE3endEv\000"
 2454      33723270 
 2454      31305374 
 2454      61746963 
 2454      4C697374 
 2455              	.LASF85:
 2456 0a6d 62795F74 		.ascii	"by_transport\000"
 2456      72616E73 
 2456      706F7274 
 2456      00
 2457              	.LASF100:
 2458 0a7a 5F5A4E33 		.ascii	"_ZN3r2p14BaseSubscriber13notify_unsafeERNS_7Message"
 2458      72327031 
 2458      34426173 
 2458      65537562 
 2458      73637269 
 2459 0aad 45524B4E 		.ascii	"ERKNS_4TimeE\000"
 2459      535F3454 
 2459      696D6545 
 2459      00
 2460              	.LASF72:
 2461 0aba 66696E64 		.ascii	"find_first\000"
 2461      5F666972 
 2461      737400
 2462              	.LASF116:
 2463 0ac5 74686973 		.ascii	"this\000"
 2463      00
 2464              	.LASF88:
 2465 0aca 6765745F 		.ascii	"get_transport\000"
 2465      7472616E 
 2465      73706F72 
ARM GAS  /tmp/cckXCl6x.s 			page 50


 2465      7400
 2466              	.LASF44:
 2467 0ad8 636F6E74 		.ascii	"contains_unsafe\000"
 2467      61696E73 
 2467      5F756E73 
 2467      61666500 
 2468              	.LASF98:
 2469 0ae8 6E6F7469 		.ascii	"notify_unsafe\000"
 2469      66795F75 
 2469      6E736166 
 2469      6500
 2470              	.LASF121:
 2471 0af6 7472616E 		.ascii	"transport\000"
 2471      73706F72 
 2471      7400
 2472              	.LASF67:
 2473 0b00 5F5A4E33 		.ascii	"_ZN3r2p10StaticListINS_16RemoteSubscriberEE6unlinkE"
 2473      72327031 
 2473      30537461 
 2473      7469634C 
 2473      69737449 
 2474 0b33 524E5332 		.ascii	"RNS2_4LinkE\000"
 2474      5F344C69 
 2474      6E6B4500 
 2475              	.LASF3:
 2476 0b3f 73686F72 		.ascii	"short int\000"
 2476      7420696E 
 2476      7400
 2477              	.LASF5:
 2478 0b49 6C6F6E67 		.ascii	"long int\000"
 2478      20696E74 
 2478      00
 2479              	.LASF49:
 2480 0b52 62656769 		.ascii	"begin_unsafe\000"
 2480      6E5F756E 
 2480      73616665 
 2480      00
 2481              	.LASF125:
 2482 0b5f 2F686F6D 		.ascii	"/home/ergae/r2p-sdk/workspace-triskarpixy/USB/\000"
 2482      652F6572 
 2482      6761652F 
 2482      7232702D 
 2482      73646B2F 
 2483              	.LASF102:
 2484 0b8e 5F5A4E33 		.ascii	"_ZN3r2p14BaseSubscriber12fetch_unsafeERPNS_7Message"
 2484      72327031 
 2484      34426173 
 2484      65537562 
 2484      73637269 
 2485 0bc1 45524E53 		.ascii	"ERNS_4TimeE\000"
 2485      5F345469 
 2485      6D654500 
 2486              	.LASF105:
 2487 0bcd 6E6F7469 		.ascii	"notify\000"
 2487      667900
 2488              	.LASF95:
 2489 0bd4 5F5A4E4B 		.ascii	"_ZNK3r2p14BaseSubscriber9get_topicEv\000"
ARM GAS  /tmp/cckXCl6x.s 			page 51


 2489      33723270 
 2489      31344261 
 2489      73655375 
 2489      62736372 
 2490              	.LASF17:
 2491 0bf9 53746174 		.ascii	"StaticList<r2p::RemoteSubscriber>\000"
 2491      69634C69 
 2491      73743C72 
 2491      32703A3A 
 2491      52656D6F 
 2492              	.LASF71:
 2493 0c1b 5F5A4E4B 		.ascii	"_ZNK3r2p10StaticListINS_16RemoteSubscriberEE8contai"
 2493      33723270 
 2493      31305374 
 2493      61746963 
 2493      4C697374 
 2494 0c4e 6E734552 		.ascii	"nsERKS1_\000"
 2494      4B53315F 
 2494      00
 2495              	.LASF111:
 2496 0c57 6861735F 		.ascii	"has_topic\000"
 2496      746F7069 
 2496      6300
 2497              	.LASF117:
 2498 0c61 5F5F696E 		.ascii	"__in_chrg\000"
 2498      5F636872 
 2498      6700
 2499              	.LASF110:
 2500 0c6b 5F5A4E33 		.ascii	"_ZN3r2p14BaseSubscriber7releaseERNS_7MessageE\000"
 2500      72327031 
 2500      34426173 
 2500      65537562 
 2500      73637269 
 2501              	.LASF9:
 2502 0c99 73697A65 		.ascii	"sizetype\000"
 2502      74797065 
 2502      00
 2503              	.LASF76:
 2504 0ca2 5F5A4E33 		.ascii	"_ZN3r2p10StaticListINS_16RemoteSubscriberEE5beginEv"
 2504      72327031 
 2504      30537461 
 2504      7469634C 
 2504      69737449 
 2505 0cd5 00       		.ascii	"\000"
 2506              	.LASF38:
 2507 0cd6 5F5A4E33 		.ascii	"_ZN3r2p10StaticListINS_16RemoteSubscriberEE11link_u"
 2507      72327031 
 2507      30537461 
 2507      7469634C 
 2507      69737449 
 2508 0d09 6E736166 		.ascii	"nsafeERNS2_4LinkE\000"
 2508      6545524E 
 2508      53325F34 
 2508      4C696E6B 
 2508      4500
 2509              	.LASF6:
 2510 0d1b 6C6F6E67 		.ascii	"long unsigned int\000"
ARM GAS  /tmp/cckXCl6x.s 			page 52


 2510      20756E73 
 2510      69676E65 
 2510      6420696E 
 2510      7400
 2511              	.LASF104:
 2512 0d2d 5F5A4E33 		.ascii	"_ZN3r2p14BaseSubscriber14release_unsafeERNS_7Messag"
 2512      72327031 
 2512      34426173 
 2512      65537562 
 2512      73637269 
 2513 0d60 654500   		.ascii	"eE\000"
 2514              	.LASF45:
 2515 0d63 5F5A4E4B 		.ascii	"_ZNK3r2p10StaticListINS_16RemoteSubscriberEE15conta"
 2515      33723270 
 2515      31305374 
 2515      61746963 
 2515      4C697374 
 2516 0d96 696E735F 		.ascii	"ins_unsafeERKS1_\000"
 2516      756E7361 
 2516      66654552 
 2516      4B53315F 
 2516      00
 2517              	.LASF52:
 2518 0da7 5F5A4E33 		.ascii	"_ZN3r2p10StaticListINS_16RemoteSubscriberEE10end_un"
 2518      72327031 
 2518      30537461 
 2518      7469634C 
 2518      69737449 
 2519 0dda 73616665 		.ascii	"safeEv\000"
 2519      457600
 2520              	.LASF46:
 2521 0de1 66696E64 		.ascii	"find_first_unsafe\000"
 2521      5F666972 
 2521      73745F75 
 2521      6E736166 
 2521      6500
 2522              	.LASF2:
 2523 0df3 756E7369 		.ascii	"unsigned char\000"
 2523      676E6564 
 2523      20636861 
 2523      7200
 2524              	.LASF47:
 2525 0e01 5F5A4E4B 		.ascii	"_ZNK3r2p10StaticListINS_16RemoteSubscriberEE17find_"
 2525      33723270 
 2525      31305374 
 2525      61746963 
 2525      4C697374 
 2526 0e34 66697273 		.ascii	"first_unsafeEPFbRKS1_E\000"
 2526      745F756E 
 2526      73616665 
 2526      45504662 
 2526      524B5331 
 2527              	.LASF29:
 2528 0e4b 4D617463 		.ascii	"Matches\000"
 2528      68657300 
 2529              	.LASF23:
 2530 0e53 49746572 		.ascii	"IteratorUnsafe\000"
ARM GAS  /tmp/cckXCl6x.s 			page 53


 2530      61746F72 
 2530      556E7361 
 2530      666500
 2531              	.LASF64:
 2532 0e62 6C696E6B 		.ascii	"link\000"
 2532      00
 2533              	.LASF65:
 2534 0e67 5F5A4E33 		.ascii	"_ZN3r2p10StaticListINS_16RemoteSubscriberEE4linkERN"
 2534      72327031 
 2534      30537461 
 2534      7469634C 
 2534      69737449 
 2535 0e9a 53325F34 		.ascii	"S2_4LinkE\000"
 2535      4C696E6B 
 2535      4500
 2536              	.LASF74:
 2537 0ea4 5F5A4E4B 		.ascii	"_ZNK3r2p10StaticListINS_16RemoteSubscriberEE10find_"
 2537      33723270 
 2537      31305374 
 2537      61746963 
 2537      4C697374 
 2538 0ed7 66697273 		.ascii	"firstEPFbRKS1_PKvES6_\000"
 2538      74455046 
 2538      62524B53 
 2538      315F504B 
 2538      76455336 
 2539              	.LASF13:
 2540 0eed 73747274 		.ascii	"strtok\000"
 2540      6F6B00
 2541              	.LASF58:
 2542 0ef4 6765745F 		.ascii	"get_head\000"
 2542      68656164 
 2542      00
 2543              	.LASF122:
 2544 0efd 6974656D 		.ascii	"item\000"
 2544      00
 2545              	.LASF1:
 2546 0f02 7369676E 		.ascii	"signed char\000"
 2546      65642063 
 2546      68617200 
 2547              	.LASF55:
 2548 0f0e 5F5A4E4B 		.ascii	"_ZNK3r2p10StaticListINS_16RemoteSubscriberEE12begin"
 2548      33723270 
 2548      31305374 
 2548      61746963 
 2548      4C697374 
 2549 0f41 5F756E73 		.ascii	"_unsafeEv\000"
 2549      61666545 
 2549      7600
 2550              	.LASF28:
 2551 0f4b 50726564 		.ascii	"Predicate\000"
 2551      69636174 
 2551      6500
 2552              	.LASF4:
 2553 0f55 73686F72 		.ascii	"short unsigned int\000"
 2553      7420756E 
 2553      7369676E 
ARM GAS  /tmp/cckXCl6x.s 			page 54


 2553      65642069 
 2553      6E7400
 2554              	.LASF109:
 2555 0f68 72656C65 		.ascii	"release\000"
 2555      61736500 
 2556              	.LASF75:
 2557 0f70 62656769 		.ascii	"begin\000"
 2557      6E00
 2558              	.LASF114:
 2559 0f76 54696D65 		.ascii	"Time\000"
 2559      00
 2560              	.LASF30:
 2561 0f7b 6765745F 		.ascii	"get_head_unsafe\000"
 2561      68656164 
 2561      5F756E73 
 2561      61666500 
 2562              	.LASF92:
 2563 0f8b 746F7069 		.ascii	"topicp\000"
 2563      637000
 2564              	.LASF87:
 2565 0f92 52656D6F 		.ascii	"RemoteSubscriber\000"
 2565      74655375 
 2565      62736372 
 2565      69626572 
 2565      00
 2566              	.LASF69:
 2567 0fa3 5F5A4E4B 		.ascii	"_ZNK3r2p10StaticListINS_16RemoteSubscriberEE8index_"
 2567      33723270 
 2567      31305374 
 2567      61746963 
 2567      4C697374 
 2568 0fd6 6F664552 		.ascii	"ofERKS1_\000"
 2568      4B53315F 
 2568      00
 2569              	.LASF26:
 2570 0fdf 436F6E73 		.ascii	"ConstIterator\000"
 2570      74497465 
 2570      7261746F 
 2570      7200
 2571              	.LASF119:
 2572 0fed 5F5A4E33 		.ascii	"_ZN3r2p16RemoteSubscriberD2Ev\000"
 2572      72327031 
 2572      3652656D 
 2572      6F746553 
 2572      75627363 
 2573              	.LASF86:
 2574 100b 62795F74 		.ascii	"by_topic\000"
 2574      6F706963 
 2574      00
 2575              		.ident	"GCC: (GNU Tools for ARM Embedded Processors) 4.9.3 20141119 (release) [ARM/embedded-4_9-br
ARM GAS  /tmp/cckXCl6x.s 			page 55


DEFINED SYMBOLS
                            *ABS*:00000000 RemoteSubscriber.cpp
     /tmp/cckXCl6x.s:21     .text._ZN3r2p16RemoteSubscriberC2ERNS_9TransportE:00000000 $t
     /tmp/cckXCl6x.s:27     .text._ZN3r2p16RemoteSubscriberC2ERNS_9TransportE:00000000 _ZN3r2p16RemoteSubscriberC2ERNS_9TransportE
     /tmp/cckXCl6x.s:170    .text._ZN3r2p10StaticListINS_16RemoteSubscriberEE4LinkC2ERS1_:00000000 _ZN3r2p10StaticListINS_16RemoteSubscriberEE4LinkC1ERS1_
     /tmp/cckXCl6x.s:73     .text._ZN3r2p16RemoteSubscriberC2ERNS_9TransportE:00000040 $d
     /tmp/cckXCl6x.s:207    .rodata._ZTVN3r2p16RemoteSubscriberE:00000000 _ZTVN3r2p16RemoteSubscriberE
     /tmp/cckXCl6x.s:27     .text._ZN3r2p16RemoteSubscriberC2ERNS_9TransportE:00000000 _ZN3r2p16RemoteSubscriberC1ERNS_9TransportE
     /tmp/cckXCl6x.s:80     .text._ZN3r2p16RemoteSubscriberD2Ev:00000000 $t
     /tmp/cckXCl6x.s:86     .text._ZN3r2p16RemoteSubscriberD2Ev:00000000 _ZN3r2p16RemoteSubscriberD2Ev
     /tmp/cckXCl6x.s:124    .text._ZN3r2p16RemoteSubscriberD2Ev:0000002c $d
     /tmp/cckXCl6x.s:86     .text._ZN3r2p16RemoteSubscriberD2Ev:00000000 _ZN3r2p16RemoteSubscriberD1Ev
     /tmp/cckXCl6x.s:131    .text._ZN3r2p16RemoteSubscriberD0Ev:00000000 $t
     /tmp/cckXCl6x.s:137    .text._ZN3r2p16RemoteSubscriberD0Ev:00000000 _ZN3r2p16RemoteSubscriberD0Ev
     /tmp/cckXCl6x.s:164    .text._ZN3r2p10StaticListINS_16RemoteSubscriberEE4LinkC2ERS1_:00000000 $t
     /tmp/cckXCl6x.s:170    .text._ZN3r2p10StaticListINS_16RemoteSubscriberEE4LinkC2ERS1_:00000000 _ZN3r2p10StaticListINS_16RemoteSubscriberEE4LinkC2ERS1_
     /tmp/cckXCl6x.s:204    .rodata._ZTVN3r2p16RemoteSubscriberE:00000000 $d
                     .debug_frame:00000010 $d
     /tmp/cckXCl6x.s:79     .text._ZN3r2p16RemoteSubscriberC2ERNS_9TransportE:00000044 $t
                           .group:00000000 _ZN3r2p10StaticListINS_16RemoteSubscriberEE4LinkC5ERS1_

UNDEFINED SYMBOLS
_ZN3r2p14BaseSubscriberC2Ev
_ZN3r2p14BaseSubscriberD2Ev
_ZdlPv
__cxa_pure_virtual
