ARM GAS  /tmp/cchWoqJA.s 			page 1


   1              		.syntax unified
   2              		.cpu cortex-m4
   3              		.eabi_attribute 27, 3
   4              		.eabi_attribute 28, 1
   5              		.fpu fpv4-sp-d16
   6              		.eabi_attribute 20, 1
   7              		.eabi_attribute 21, 1
   8              		.eabi_attribute 23, 3
   9              		.eabi_attribute 24, 1
  10              		.eabi_attribute 25, 1
  11              		.eabi_attribute 26, 1
  12              		.eabi_attribute 30, 6
  13              		.eabi_attribute 34, 1
  14              		.eabi_attribute 18, 4
  15              		.thumb
  16              		.file	"rtcan.c"
  17              		.text
  18              	.Ltext0:
  19              		.cfi_sections	.debug_frame
  20              		.global	last_sync_tim
  21              		.section	.bss.last_sync_tim,"aw",%nobits
  22              		.align	2
  23              		.type	last_sync_tim, %object
  24              		.size	last_sync_tim, 4
  25              	last_sync_tim:
  26 0000 00000000 		.space	4
  27              		.section	.text.stm32_id8,"ax",%progbits
  28              		.align	2
  29              		.p2align 4,,15
  30              		.global	stm32_id8
  31              		.thumb
  32              		.thumb_func
  33              		.type	stm32_id8, %function
  34              	stm32_id8:
  35              	.LFB118:
  36              		.file 1 "/home/ergae/r2p-sdk/core/RTCAN/src/rtcan.c"
  37              		.loc 1 28 0
  38              		.cfi_startproc
  39              		@ args = 0, pretend = 0, frame = 8
  40              		@ frame_needed = 0, uses_anonymous_args = 0
  41              		@ link register save eliminated.
  42 0000 82B0     		sub	sp, sp, #8
  43              		.cfi_def_cfa_offset 8
  44              		.loc 1 29 0
  45 0002 044B     		ldr	r3, .L3
  46 0004 0193     		str	r3, [sp, #4]
  47              		.loc 1 31 0
  48 0006 019B     		ldr	r3, [sp, #4]
  49 0008 0833     		adds	r3, r3, #8
  50 000a 1B68     		ldr	r3, [r3]
  51 000c DBB2     		uxtb	r3, r3
  52              		.loc 1 32 0
  53 000e 1846     		mov	r0, r3
  54 0010 02B0     		add	sp, sp, #8
  55              		.cfi_def_cfa_offset 0
  56              		@ sp needed
  57 0012 7047     		bx	lr
ARM GAS  /tmp/cchWoqJA.s 			page 2


  58              	.L4:
  59              		.align	2
  60              	.L3:
  61 0014 E8F7FF1F 		.word	536868840
  62              		.cfi_endproc
  63              	.LFE118:
  64              		.size	stm32_id8, .-stm32_id8
  65 0018 AFF30080 		.section	.text.rtcan_ismaster,"ax",%progbits
  65      AFF30080 
  66              		.align	2
  67              		.p2align 4,,15
  68              		.global	rtcan_ismaster
  69              		.thumb
  70              		.thumb_func
  71              		.type	rtcan_ismaster, %function
  72              	rtcan_ismaster:
  73              	.LFB119:
  74              		.loc 1 34 0
  75              		.cfi_startproc
  76              		@ args = 0, pretend = 0, frame = 0
  77              		@ frame_needed = 0, uses_anonymous_args = 0
  78              		@ link register save eliminated.
  79              		.loc 1 38 0
  80 0000 0023     		movs	r3, #0
  81              		.loc 1 40 0
  82 0002 1846     		mov	r0, r3
  83 0004 7047     		bx	lr
  84              		.cfi_endproc
  85              	.LFE119:
  86              		.size	rtcan_ismaster, .-rtcan_ismaster
  87 0006 00BFAFF3 		.section	.text.rtcan_tim_isr_code,"ax",%progbits
  87      0080AFF3 
  87      0080
  88              		.align	2
  89              		.p2align 4,,15
  90              		.global	rtcan_tim_isr_code
  91              		.thumb
  92              		.thumb_func
  93              		.type	rtcan_tim_isr_code, %function
  94              	rtcan_tim_isr_code:
  95              	.LFB120:
  96              		.loc 1 66 0
  97              		.cfi_startproc
  98              		@ args = 0, pretend = 0, frame = 8
  99              		@ frame_needed = 0, uses_anonymous_args = 0
 100 0000 00B5     		push	{lr}
 101              		.cfi_def_cfa_offset 4
 102              		.cfi_offset 14, -4
 103 0002 83B0     		sub	sp, sp, #12
 104              		.cfi_def_cfa_offset 16
 105 0004 0190     		str	r0, [sp, #4]
 106              	.LBB2:
 107              		.loc 1 68 0
 108 0006 2023     		movs	r3, #32
 109              	@ 68 "/home/ergae/r2p-sdk/core/RTCAN/src/rtcan.c" 1
 110 0008 83F31188 		msr     BASEPRI, r3
 111              	@ 0 "" 2
ARM GAS  /tmp/cchWoqJA.s 			page 3


 112              		.thumb
 113              	.LBE2:
 114 000c FFF7FEFF 		bl	dbg_check_lock_from_isr
 115              		.loc 1 71 0
 116 0010 019B     		ldr	r3, [sp, #4]
 117 0012 1B78     		ldrb	r3, [r3]	@ zero_extendqisi2
 118 0014 042B     		cmp	r3, #4
 119 0016 0DD0     		beq	.L9
 120 0018 052B     		cmp	r3, #5
 121 001a 16D1     		bne	.L14
 122              		.loc 1 84 0
 123 001c 019B     		ldr	r3, [sp, #4]
 124 001e 5A68     		ldr	r2, [r3, #4]
 125 0020 019B     		ldr	r3, [sp, #4]
 126 0022 5B6D     		ldr	r3, [r3, #84]
 127 0024 9B68     		ldr	r3, [r3, #8]
 128 0026 9A42     		cmp	r2, r3
 129 0028 03D9     		bls	.L11
 130              		.loc 1 85 0
 131 002a 019B     		ldr	r3, [sp, #4]
 132 002c 0322     		movs	r2, #3
 133 002e 1A70     		strb	r2, [r3]
 134              		.loc 1 87 0
 135 0030 0FE0     		b	.L12
 136              	.L11:
 137 0032 0EE0     		b	.L12
 138              	.L9:
 139              		.loc 1 89 0
 140 0034 019B     		ldr	r3, [sp, #4]
 141 0036 5B68     		ldr	r3, [r3, #4]
 142 0038 5A1C     		adds	r2, r3, #1
 143 003a 019B     		ldr	r3, [sp, #4]
 144 003c 5A60     		str	r2, [r3, #4]
 145              		.loc 1 90 0
 146 003e FFF7FEFF 		bl	dbg_check_unlock_from_isr
 147              	.LBB3:
 148 0042 0023     		movs	r3, #0
 149              	@ 90 "/home/ergae/r2p-sdk/core/RTCAN/src/rtcan.c" 1
 150 0044 83F31188 		msr     BASEPRI, r3
 151              	@ 0 "" 2
 152              		.thumb
 153              	.LBE3:
 154              		.loc 1 92 0
 155 0048 10E0     		b	.L7
 156              	.L14:
 157              		.loc 1 96 0
 158 004a 019B     		ldr	r3, [sp, #4]
 159 004c 0322     		movs	r2, #3
 160 004e 1A70     		strb	r2, [r3]
 161              		.loc 1 97 0
 162 0050 00BF     		nop
 163              	.L12:
 164              		.loc 1 100 0
 165 0052 019B     		ldr	r3, [sp, #4]
 166 0054 5B68     		ldr	r3, [r3, #4]
 167 0056 5A1C     		adds	r2, r3, #1
 168 0058 019B     		ldr	r3, [sp, #4]
ARM GAS  /tmp/cchWoqJA.s 			page 4


 169 005a 5A60     		str	r2, [r3, #4]
 170              		.loc 1 110 0
 171 005c 0198     		ldr	r0, [sp, #4]
 172 005e FFF7FEFF 		bl	srt_transmit
 173              		.loc 1 112 0
 174 0062 FFF7FEFF 		bl	dbg_check_unlock_from_isr
 175              	.LBB4:
 176 0066 0023     		movs	r3, #0
 177              	@ 112 "/home/ergae/r2p-sdk/core/RTCAN/src/rtcan.c" 1
 178 0068 83F31188 		msr     BASEPRI, r3
 179              	@ 0 "" 2
 180              		.thumb
 181              	.L7:
 182              	.LBE4:
 183              		.loc 1 113 0
 184 006c 03B0     		add	sp, sp, #12
 185              		.cfi_def_cfa_offset 4
 186              		@ sp needed
 187 006e 5DF804FB 		ldr	pc, [sp], #4
 188              		.cfi_endproc
 189              	.LFE120:
 190              		.size	rtcan_tim_isr_code, .-rtcan_tim_isr_code
 191 0072 00BFAFF3 		.section	.text.rtcan_txok_isr_code,"ax",%progbits
 191      0080AFF3 
 191      0080AFF3 
 191      0080
 192              		.align	2
 193              		.p2align 4,,15
 194              		.global	rtcan_txok_isr_code
 195              		.thumb
 196              		.thumb_func
 197              		.type	rtcan_txok_isr_code, %function
 198              	rtcan_txok_isr_code:
 199              	.LFB121:
 200              		.loc 1 120 0
 201              		.cfi_startproc
 202              		@ args = 0, pretend = 0, frame = 16
 203              		@ frame_needed = 0, uses_anonymous_args = 0
 204 0000 00B5     		push	{lr}
 205              		.cfi_def_cfa_offset 4
 206              		.cfi_offset 14, -4
 207 0002 85B0     		sub	sp, sp, #20
 208              		.cfi_def_cfa_offset 24
 209 0004 0190     		str	r0, [sp, #4]
 210 0006 0B46     		mov	r3, r1
 211 0008 8DF80330 		strb	r3, [sp, #3]
 212              	.LBB5:
 213              		.loc 1 123 0
 214 000c 2023     		movs	r3, #32
 215              	@ 123 "/home/ergae/r2p-sdk/core/RTCAN/src/rtcan.c" 1
 216 000e 83F31188 		msr     BASEPRI, r3
 217              	@ 0 "" 2
 218              		.thumb
 219              	.LBE5:
 220 0012 FFF7FEFF 		bl	dbg_check_lock_from_isr
 221              		.loc 1 126 0
 222 0016 9DF80320 		ldrb	r2, [sp, #3]	@ zero_extendqisi2
ARM GAS  /tmp/cchWoqJA.s 			page 5


 223 001a 019B     		ldr	r3, [sp, #4]
 224 001c 0432     		adds	r2, r2, #4
 225 001e 53F82230 		ldr	r3, [r3, r2, lsl #2]
 226 0022 0393     		str	r3, [sp, #12]
 227              		.loc 1 127 0
 228 0024 9DF80320 		ldrb	r2, [sp, #3]	@ zero_extendqisi2
 229 0028 019B     		ldr	r3, [sp, #4]
 230 002a 0432     		adds	r2, r2, #4
 231 002c 0021     		movs	r1, #0
 232 002e 43F82210 		str	r1, [r3, r2, lsl #2]
 233              		.loc 1 129 0
 234 0032 039B     		ldr	r3, [sp, #12]
 235 0034 5B7F     		ldrb	r3, [r3, #29]
 236 0036 C3F30603 		ubfx	r3, r3, #0, #7
 237 003a DBB2     		uxtb	r3, r3
 238 003c 002B     		cmp	r3, #0
 239 003e 1FDD     		ble	.L16
 240              		.loc 1 130 0
 241 0040 039B     		ldr	r3, [sp, #12]
 242 0042 5B7F     		ldrb	r3, [r3, #29]
 243 0044 C3F30603 		ubfx	r3, r3, #0, #7
 244 0048 DBB2     		uxtb	r3, r3
 245 004a 7F33     		adds	r3, r3, #127
 246 004c 03F07F03 		and	r3, r3, #127
 247 0050 D9B2     		uxtb	r1, r3
 248 0052 039A     		ldr	r2, [sp, #12]
 249 0054 537F     		ldrb	r3, [r2, #29]
 250 0056 61F30603 		bfi	r3, r1, #0, #7
 251 005a 5377     		strb	r3, [r2, #29]
 252              		.loc 1 131 0
 253 005c 039B     		ldr	r3, [sp, #12]
 254 005e D3F81930 		ldr	r3, [r3, #25]	@ unaligned
 255 0062 03F10802 		add	r2, r3, #8
 256 0066 039B     		ldr	r3, [sp, #12]
 257 0068 C3F81920 		str	r2, [r3, #25]	@ unaligned
 258              		.loc 1 132 0
 259 006c 019B     		ldr	r3, [sp, #4]
 260 006e 0C33     		adds	r3, r3, #12
 261 0070 1846     		mov	r0, r3
 262 0072 0399     		ldr	r1, [sp, #12]
 263 0074 FFF7FEFF 		bl	msgqueue_insert
 264              		.loc 1 133 0
 265 0078 039B     		ldr	r3, [sp, #12]
 266 007a 0322     		movs	r2, #3
 267 007c 1A71     		strb	r2, [r3, #4]
 268 007e 0CE0     		b	.L17
 269              	.L16:
 270              		.loc 1 135 0
 271 0080 039B     		ldr	r3, [sp, #12]
 272 0082 0222     		movs	r2, #2
 273 0084 1A71     		strb	r2, [r3, #4]
 274              		.loc 1 136 0
 275 0086 039B     		ldr	r3, [sp, #12]
 276 0088 D3F80530 		ldr	r3, [r3, #5]	@ unaligned
 277 008c 002B     		cmp	r3, #0
 278 008e 04D0     		beq	.L17
 279              		.loc 1 137 0
ARM GAS  /tmp/cchWoqJA.s 			page 6


 280 0090 039B     		ldr	r3, [sp, #12]
 281 0092 D3F80530 		ldr	r3, [r3, #5]	@ unaligned
 282 0096 0398     		ldr	r0, [sp, #12]
 283 0098 9847     		blx	r3
 284              	.L17:
 285              		.loc 1 142 0
 286 009a 0198     		ldr	r0, [sp, #4]
 287 009c FFF7FEFF 		bl	srt_transmit
 288              		.loc 1 145 0
 289 00a0 FFF7FEFF 		bl	dbg_check_unlock_from_isr
 290              	.LBB6:
 291 00a4 0023     		movs	r3, #0
 292              	@ 145 "/home/ergae/r2p-sdk/core/RTCAN/src/rtcan.c" 1
 293 00a6 83F31188 		msr     BASEPRI, r3
 294              	@ 0 "" 2
 295              		.thumb
 296              	.LBE6:
 297              		.loc 1 146 0
 298 00aa 05B0     		add	sp, sp, #20
 299              		.cfi_def_cfa_offset 4
 300              		@ sp needed
 301 00ac 5DF804FB 		ldr	pc, [sp], #4
 302              		.cfi_endproc
 303              	.LFE121:
 304              		.size	rtcan_txok_isr_code, .-rtcan_txok_isr_code
 305              		.section	.text.rtcan_alst_isr_code,"ax",%progbits
 306              		.align	2
 307              		.p2align 4,,15
 308              		.global	rtcan_alst_isr_code
 309              		.thumb
 310              		.thumb_func
 311              		.type	rtcan_alst_isr_code, %function
 312              	rtcan_alst_isr_code:
 313              	.LFB122:
 314              		.loc 1 153 0
 315              		.cfi_startproc
 316              		@ args = 0, pretend = 0, frame = 16
 317              		@ frame_needed = 0, uses_anonymous_args = 0
 318 0000 00B5     		push	{lr}
 319              		.cfi_def_cfa_offset 4
 320              		.cfi_offset 14, -4
 321 0002 85B0     		sub	sp, sp, #20
 322              		.cfi_def_cfa_offset 24
 323 0004 0190     		str	r0, [sp, #4]
 324 0006 0B46     		mov	r3, r1
 325 0008 8DF80330 		strb	r3, [sp, #3]
 326              	.LBB7:
 327              		.loc 1 156 0
 328 000c 2023     		movs	r3, #32
 329              	@ 156 "/home/ergae/r2p-sdk/core/RTCAN/src/rtcan.c" 1
 330 000e 83F31188 		msr     BASEPRI, r3
 331              	@ 0 "" 2
 332              		.thumb
 333              	.LBE7:
 334 0012 FFF7FEFF 		bl	dbg_check_lock_from_isr
 335              		.loc 1 159 0
 336 0016 9DF80320 		ldrb	r2, [sp, #3]	@ zero_extendqisi2
ARM GAS  /tmp/cchWoqJA.s 			page 7


 337 001a 019B     		ldr	r3, [sp, #4]
 338 001c 0432     		adds	r2, r2, #4
 339 001e 53F82230 		ldr	r3, [r3, r2, lsl #2]
 340 0022 0393     		str	r3, [sp, #12]
 341              		.loc 1 160 0
 342 0024 9DF80320 		ldrb	r2, [sp, #3]	@ zero_extendqisi2
 343 0028 019B     		ldr	r3, [sp, #4]
 344 002a 0432     		adds	r2, r2, #4
 345 002c 0021     		movs	r1, #0
 346 002e 43F82210 		str	r1, [r3, r2, lsl #2]
 347              		.loc 1 162 0
 348 0032 039B     		ldr	r3, [sp, #12]
 349 0034 002B     		cmp	r3, #0
 350 0036 00D1     		bne	.L19
 351              	.L20:
 352              		.loc 1 165 0 discriminator 1
 353 0038 FEE7     		b	.L20
 354              	.L19:
 355              		.loc 1 170 0
 356 003a 019B     		ldr	r3, [sp, #4]
 357 003c 0C33     		adds	r3, r3, #12
 358 003e 1846     		mov	r0, r3
 359 0040 0399     		ldr	r1, [sp, #12]
 360 0042 FFF7FEFF 		bl	msgqueue_insert
 361              		.loc 1 171 0
 362 0046 039B     		ldr	r3, [sp, #12]
 363 0048 0322     		movs	r2, #3
 364 004a 1A71     		strb	r2, [r3, #4]
 365              		.loc 1 174 0
 366 004c 0198     		ldr	r0, [sp, #4]
 367 004e FFF7FEFF 		bl	srt_transmit
 368              		.loc 1 177 0
 369 0052 FFF7FEFF 		bl	dbg_check_unlock_from_isr
 370              	.LBB8:
 371 0056 0023     		movs	r3, #0
 372              	@ 177 "/home/ergae/r2p-sdk/core/RTCAN/src/rtcan.c" 1
 373 0058 83F31188 		msr     BASEPRI, r3
 374              	@ 0 "" 2
 375              		.thumb
 376              	.LBE8:
 377              		.loc 1 178 0
 378 005c 05B0     		add	sp, sp, #20
 379              		.cfi_def_cfa_offset 4
 380              		@ sp needed
 381 005e 5DF804FB 		ldr	pc, [sp], #4
 382              		.cfi_endproc
 383              	.LFE122:
 384              		.size	rtcan_alst_isr_code, .-rtcan_alst_isr_code
 385 0062 00BFAFF3 		.section	.text.rtcan_terr_isr_code,"ax",%progbits
 385      0080AFF3 
 385      0080AFF3 
 385      0080
 386              		.align	2
 387              		.p2align 4,,15
 388              		.global	rtcan_terr_isr_code
 389              		.thumb
 390              		.thumb_func
ARM GAS  /tmp/cchWoqJA.s 			page 8


 391              		.type	rtcan_terr_isr_code, %function
 392              	rtcan_terr_isr_code:
 393              	.LFB123:
 394              		.loc 1 185 0
 395              		.cfi_startproc
 396              		@ args = 0, pretend = 0, frame = 16
 397              		@ frame_needed = 0, uses_anonymous_args = 0
 398 0000 00B5     		push	{lr}
 399              		.cfi_def_cfa_offset 4
 400              		.cfi_offset 14, -4
 401 0002 85B0     		sub	sp, sp, #20
 402              		.cfi_def_cfa_offset 24
 403 0004 0190     		str	r0, [sp, #4]
 404 0006 0B46     		mov	r3, r1
 405 0008 8DF80330 		strb	r3, [sp, #3]
 406              	.LBB9:
 407              		.loc 1 188 0
 408 000c 2023     		movs	r3, #32
 409              	@ 188 "/home/ergae/r2p-sdk/core/RTCAN/src/rtcan.c" 1
 410 000e 83F31188 		msr     BASEPRI, r3
 411              	@ 0 "" 2
 412              		.thumb
 413              	.LBE9:
 414 0012 FFF7FEFF 		bl	dbg_check_lock_from_isr
 415              		.loc 1 191 0
 416 0016 9DF80320 		ldrb	r2, [sp, #3]	@ zero_extendqisi2
 417 001a 019B     		ldr	r3, [sp, #4]
 418 001c 0432     		adds	r2, r2, #4
 419 001e 53F82230 		ldr	r3, [r3, r2, lsl #2]
 420 0022 0393     		str	r3, [sp, #12]
 421              		.loc 1 192 0
 422 0024 9DF80320 		ldrb	r2, [sp, #3]	@ zero_extendqisi2
 423 0028 019B     		ldr	r3, [sp, #4]
 424 002a 0432     		adds	r2, r2, #4
 425 002c 0021     		movs	r1, #0
 426 002e 43F82210 		str	r1, [r3, r2, lsl #2]
 427              		.loc 1 194 0
 428 0032 039B     		ldr	r3, [sp, #12]
 429 0034 002B     		cmp	r3, #0
 430 0036 00D1     		bne	.L23
 431              	.L24:
 432              		.loc 1 197 0 discriminator 1
 433 0038 FEE7     		b	.L24
 434              	.L23:
 435              		.loc 1 202 0
 436 003a 039B     		ldr	r3, [sp, #12]
 437 003c 0522     		movs	r2, #5
 438 003e 1A71     		strb	r2, [r3, #4]
 439              		.loc 1 204 0
 440 0040 039B     		ldr	r3, [sp, #12]
 441 0042 D3F80530 		ldr	r3, [r3, #5]	@ unaligned
 442 0046 002B     		cmp	r3, #0
 443 0048 04D0     		beq	.L25
 444              		.loc 1 205 0
 445 004a 039B     		ldr	r3, [sp, #12]
 446 004c D3F80530 		ldr	r3, [r3, #5]	@ unaligned
 447 0050 0398     		ldr	r0, [sp, #12]
ARM GAS  /tmp/cchWoqJA.s 			page 9


 448 0052 9847     		blx	r3
 449              	.L25:
 450              		.loc 1 209 0
 451 0054 0198     		ldr	r0, [sp, #4]
 452 0056 FFF7FEFF 		bl	srt_transmit
 453              		.loc 1 212 0
 454 005a FFF7FEFF 		bl	dbg_check_unlock_from_isr
 455              	.LBB10:
 456 005e 0023     		movs	r3, #0
 457              	@ 212 "/home/ergae/r2p-sdk/core/RTCAN/src/rtcan.c" 1
 458 0060 83F31188 		msr     BASEPRI, r3
 459              	@ 0 "" 2
 460              		.thumb
 461              	.LBE10:
 462              		.loc 1 213 0
 463 0064 05B0     		add	sp, sp, #20
 464              		.cfi_def_cfa_offset 4
 465              		@ sp needed
 466 0066 5DF804FB 		ldr	pc, [sp], #4
 467              		.cfi_endproc
 468              	.LFE123:
 469              		.size	rtcan_terr_isr_code, .-rtcan_terr_isr_code
 470 006a 00BFAFF3 		.section	.text.rtcan_rx_isr_code,"ax",%progbits
 470      0080
 471              		.align	2
 472              		.p2align 4,,15
 473              		.global	rtcan_rx_isr_code
 474              		.thumb
 475              		.thumb_func
 476              		.type	rtcan_rx_isr_code, %function
 477              	rtcan_rx_isr_code:
 478              	.LFB124:
 479              		.loc 1 220 0
 480              		.cfi_startproc
 481              		@ args = 0, pretend = 0, frame = 40
 482              		@ frame_needed = 0, uses_anonymous_args = 0
 483 0000 00B5     		push	{lr}
 484              		.cfi_def_cfa_offset 4
 485              		.cfi_offset 14, -4
 486 0002 8BB0     		sub	sp, sp, #44
 487              		.cfi_def_cfa_offset 48
 488 0004 0190     		str	r0, [sp, #4]
 489              	.LBB11:
 490              		.loc 1 224 0
 491 0006 2023     		movs	r3, #32
 492              	@ 224 "/home/ergae/r2p-sdk/core/RTCAN/src/rtcan.c" 1
 493 0008 83F31188 		msr     BASEPRI, r3
 494              	@ 0 "" 2
 495              		.thumb
 496              	.LBE11:
 497 000c FFF7FEFF 		bl	dbg_check_lock_from_isr
 498              		.loc 1 227 0
 499 0010 03AB     		add	r3, sp, #12
 500 0012 0198     		ldr	r0, [sp, #4]
 501 0014 1946     		mov	r1, r3
 502 0016 FFF7FEFF 		bl	rtcan_lld_can_receive
 503              		.loc 1 272 0
ARM GAS  /tmp/cchWoqJA.s 			page 10


 504 001a 9DF81130 		ldrb	r3, [sp, #17]	@ zero_extendqisi2
 505 001e 019A     		ldr	r2, [sp, #4]
 506 0020 0633     		adds	r3, r3, #6
 507 0022 9B00     		lsls	r3, r3, #2
 508 0024 1344     		add	r3, r3, r2
 509 0026 5B68     		ldr	r3, [r3, #4]
 510 0028 0893     		str	r3, [sp, #32]
 511              		.loc 1 275 0
 512 002a 089B     		ldr	r3, [sp, #32]
 513 002c 002B     		cmp	r3, #0
 514 002e 05D1     		bne	.L28
 515              		.loc 1 276 0
 516 0030 FFF7FEFF 		bl	dbg_check_unlock_from_isr
 517              	.LBB12:
 518 0034 0023     		movs	r3, #0
 519              	@ 276 "/home/ergae/r2p-sdk/core/RTCAN/src/rtcan.c" 1
 520 0036 83F31188 		msr     BASEPRI, r3
 521              	@ 0 "" 2
 522              		.thumb
 523              	.L29:
 524              	.LBE12:
 525              		.loc 1 278 0 discriminator 1
 526 003a FEE7     		b	.L29
 527              	.L28:
 528              		.loc 1 282 0
 529 003c 089B     		ldr	r3, [sp, #32]
 530 003e 1B79     		ldrb	r3, [r3, #4]	@ zero_extendqisi2
 531 0040 022B     		cmp	r3, #2
 532 0042 2ED1     		bne	.L30
 533              		.loc 1 283 0
 534 0044 089B     		ldr	r3, [sp, #32]
 535 0046 0422     		movs	r2, #4
 536 0048 1A71     		strb	r2, [r3, #4]
 537              		.loc 1 284 0
 538 004a 089B     		ldr	r3, [sp, #32]
 539 004c D3F81520 		ldr	r2, [r3, #21]	@ unaligned
 540 0050 089B     		ldr	r3, [sp, #32]
 541 0052 C3F81920 		str	r2, [r3, #25]	@ unaligned
 542              		.loc 1 285 0
 543 0056 039B     		ldr	r3, [sp, #12]
 544 0058 C3F31C03 		ubfx	r3, r3, #0, #29
 545 005c DB11     		asrs	r3, r3, #7
 546 005e 9AB2     		uxth	r2, r3
 547 0060 089B     		ldr	r3, [sp, #32]
 548 0062 A3F81120 		strh	r2, [r3, #17]	@ unaligned
 549              		.loc 1 288 0
 550 0066 089B     		ldr	r3, [sp, #32]
 551 0068 B3F81330 		ldrh	r3, [r3, #19]	@ unaligned
 552 006c 9BB2     		uxth	r3, r3
 553 006e 082B     		cmp	r3, #8
 554 0070 12D9     		bls	.L31
 555              		.loc 1 289 0
 556 0072 089B     		ldr	r3, [sp, #32]
 557 0074 B3F81330 		ldrh	r3, [r3, #19]	@ unaligned
 558 0078 9BB2     		uxth	r3, r3
 559 007a 013B     		subs	r3, r3, #1
 560 007c 002B     		cmp	r3, #0
ARM GAS  /tmp/cchWoqJA.s 			page 11


 561 007e 00DA     		bge	.L32
 562 0080 0733     		adds	r3, r3, #7
 563              	.L32:
 564 0082 DB10     		asrs	r3, r3, #3
 565 0084 DBB2     		uxtb	r3, r3
 566 0086 03F07F03 		and	r3, r3, #127
 567 008a D9B2     		uxtb	r1, r3
 568 008c 089A     		ldr	r2, [sp, #32]
 569 008e 537F     		ldrb	r3, [r2, #29]
 570 0090 61F30603 		bfi	r3, r1, #0, #7
 571 0094 5377     		strb	r3, [r2, #29]
 572 0096 04E0     		b	.L30
 573              	.L31:
 574              		.loc 1 291 0
 575 0098 089A     		ldr	r2, [sp, #32]
 576 009a 537F     		ldrb	r3, [r2, #29]
 577 009c 6FF30603 		bfc	r3, #0, #7
 578 00a0 5377     		strb	r3, [r2, #29]
 579              	.L30:
 580              		.loc 1 295 0
 581 00a2 089B     		ldr	r3, [sp, #32]
 582 00a4 1B79     		ldrb	r3, [r3, #4]	@ zero_extendqisi2
 583 00a6 042B     		cmp	r3, #4
 584 00a8 70D1     		bne	.L33
 585              	.LBB13:
 586              		.loc 1 299 0
 587 00aa 039B     		ldr	r3, [sp, #12]
 588 00ac C3F31C03 		ubfx	r3, r3, #0, #29
 589 00b0 DB11     		asrs	r3, r3, #7
 590 00b2 8DF81F30 		strb	r3, [sp, #31]
 591              		.loc 1 300 0
 592 00b6 089B     		ldr	r3, [sp, #32]
 593 00b8 B3F81130 		ldrh	r3, [r3, #17]	@ unaligned
 594 00bc 9BB2     		uxth	r3, r3
 595 00be 8DF81E30 		strb	r3, [sp, #30]
 596              		.loc 1 301 0
 597 00c2 9DF81F20 		ldrb	r2, [sp, #31]	@ zero_extendqisi2
 598 00c6 9DF81E30 		ldrb	r3, [sp, #30]	@ zero_extendqisi2
 599 00ca 9A42     		cmp	r2, r3
 600 00cc 05D0     		beq	.L34
 601              		.loc 1 303 0
 602 00ce FFF7FEFF 		bl	dbg_check_unlock_from_isr
 603              	.LBB14:
 604 00d2 0023     		movs	r3, #0
 605              	@ 303 "/home/ergae/r2p-sdk/core/RTCAN/src/rtcan.c" 1
 606 00d4 83F31188 		msr     BASEPRI, r3
 607              	@ 0 "" 2
 608              		.thumb
 609              	.LBE14:
 610              		.loc 1 304 0
 611 00d8 66E0     		b	.L27
 612              	.L34:
 613              		.loc 1 308 0
 614 00da 039B     		ldr	r3, [sp, #12]
 615 00dc C3F31C03 		ubfx	r3, r3, #0, #29
 616 00e0 DBB2     		uxtb	r3, r3
 617 00e2 03F07F03 		and	r3, r3, #127
ARM GAS  /tmp/cchWoqJA.s 			page 12


 618 00e6 8DF81D30 		strb	r3, [sp, #29]
 619              		.loc 1 309 0
 620 00ea 089B     		ldr	r3, [sp, #32]
 621 00ec 5B7F     		ldrb	r3, [r3, #29]
 622 00ee C3F30603 		ubfx	r3, r3, #0, #7
 623 00f2 DBB2     		uxtb	r3, r3
 624 00f4 1A46     		mov	r2, r3
 625 00f6 9DF81D30 		ldrb	r3, [sp, #29]	@ zero_extendqisi2
 626 00fa 9342     		cmp	r3, r2
 627 00fc 08D0     		beq	.L36
 628              		.loc 1 310 0
 629 00fe 089B     		ldr	r3, [sp, #32]
 630 0100 0222     		movs	r2, #2
 631 0102 1A71     		strb	r2, [r3, #4]
 632              		.loc 1 311 0
 633 0104 FFF7FEFF 		bl	dbg_check_unlock_from_isr
 634              	.LBB15:
 635 0108 0023     		movs	r3, #0
 636              	@ 311 "/home/ergae/r2p-sdk/core/RTCAN/src/rtcan.c" 1
 637 010a 83F31188 		msr     BASEPRI, r3
 638              	@ 0 "" 2
 639              		.thumb
 640              	.LBE15:
 641              		.loc 1 312 0
 642 010e 4BE0     		b	.L27
 643              	.L36:
 644              		.loc 1 315 0
 645 0110 0023     		movs	r3, #0
 646 0112 0993     		str	r3, [sp, #36]
 647 0114 0EE0     		b	.L37
 648              	.L38:
 649              		.loc 1 316 0 discriminator 3
 650 0116 089B     		ldr	r3, [sp, #32]
 651 0118 D3F81930 		ldr	r3, [r3, #25]	@ unaligned
 652 011c 591C     		adds	r1, r3, #1
 653 011e 089A     		ldr	r2, [sp, #32]
 654 0120 C2F81910 		str	r1, [r2, #25]	@ unaligned
 655 0124 05A9     		add	r1, sp, #20
 656 0126 099A     		ldr	r2, [sp, #36]
 657 0128 0A44     		add	r2, r2, r1
 658 012a 1278     		ldrb	r2, [r2]	@ zero_extendqisi2
 659 012c 1A70     		strb	r2, [r3]
 660              		.loc 1 315 0 discriminator 3
 661 012e 099B     		ldr	r3, [sp, #36]
 662 0130 0133     		adds	r3, r3, #1
 663 0132 0993     		str	r3, [sp, #36]
 664              	.L37:
 665              		.loc 1 315 0 is_stmt 0 discriminator 1
 666 0134 9DF81030 		ldrb	r3, [sp, #16]
 667 0138 C3F30303 		ubfx	r3, r3, #0, #4
 668 013c DBB2     		uxtb	r3, r3
 669 013e 1A46     		mov	r2, r3
 670 0140 099B     		ldr	r3, [sp, #36]
 671 0142 9A42     		cmp	r2, r3
 672 0144 E7D8     		bhi	.L38
 673              		.loc 1 319 0 is_stmt 1
 674 0146 089B     		ldr	r3, [sp, #32]
ARM GAS  /tmp/cchWoqJA.s 			page 13


 675 0148 5B7F     		ldrb	r3, [r3, #29]
 676 014a C3F30603 		ubfx	r3, r3, #0, #7
 677 014e DBB2     		uxtb	r3, r3
 678 0150 002B     		cmp	r3, #0
 679 0152 0EDD     		ble	.L39
 680              		.loc 1 320 0
 681 0154 089B     		ldr	r3, [sp, #32]
 682 0156 5B7F     		ldrb	r3, [r3, #29]
 683 0158 C3F30603 		ubfx	r3, r3, #0, #7
 684 015c DBB2     		uxtb	r3, r3
 685 015e 7F33     		adds	r3, r3, #127
 686 0160 03F07F03 		and	r3, r3, #127
 687 0164 D9B2     		uxtb	r1, r3
 688 0166 089A     		ldr	r2, [sp, #32]
 689 0168 537F     		ldrb	r3, [r2, #29]
 690 016a 61F30603 		bfi	r3, r1, #0, #7
 691 016e 5377     		strb	r3, [r2, #29]
 692 0170 0CE0     		b	.L33
 693              	.L39:
 694              		.loc 1 322 0
 695 0172 089B     		ldr	r3, [sp, #32]
 696 0174 D3F80530 		ldr	r3, [r3, #5]	@ unaligned
 697 0178 002B     		cmp	r3, #0
 698 017a 07D0     		beq	.L33
 699              		.loc 1 323 0
 700 017c 089B     		ldr	r3, [sp, #32]
 701 017e 0122     		movs	r2, #1
 702 0180 1A71     		strb	r2, [r3, #4]
 703              		.loc 1 324 0
 704 0182 089B     		ldr	r3, [sp, #32]
 705 0184 D3F80530 		ldr	r3, [r3, #5]	@ unaligned
 706 0188 0898     		ldr	r0, [sp, #32]
 707 018a 9847     		blx	r3
 708              	.L33:
 709              	.LBE13:
 710              		.loc 1 329 0
 711 018c 089B     		ldr	r3, [sp, #32]
 712 018e 1B79     		ldrb	r3, [r3, #4]	@ zero_extendqisi2
 713 0190 062B     		cmp	r3, #6
 714 0192 04D1     		bne	.L40
 715              		.loc 1 330 0
 716 0194 089B     		ldr	r3, [sp, #32]
 717 0196 D3F80530 		ldr	r3, [r3, #5]	@ unaligned
 718 019a 0898     		ldr	r0, [sp, #32]
 719 019c 9847     		blx	r3
 720              	.L40:
 721              		.loc 1 332 0
 722 019e FFF7FEFF 		bl	dbg_check_unlock_from_isr
 723              	.LBB16:
 724 01a2 0023     		movs	r3, #0
 725              	@ 332 "/home/ergae/r2p-sdk/core/RTCAN/src/rtcan.c" 1
 726 01a4 83F31188 		msr     BASEPRI, r3
 727              	@ 0 "" 2
 728              		.thumb
 729              	.L27:
 730              	.LBE16:
 731              		.loc 1 333 0
ARM GAS  /tmp/cchWoqJA.s 			page 14


 732 01a8 0BB0     		add	sp, sp, #44
 733              		.cfi_def_cfa_offset 4
 734              		@ sp needed
 735 01aa 5DF804FB 		ldr	pc, [sp], #4
 736              		.cfi_endproc
 737              	.LFE124:
 738              		.size	rtcan_rx_isr_code, .-rtcan_rx_isr_code
 739 01ae 00BF     		.section	.text.rtcanInit,"ax",%progbits
 740              		.align	2
 741              		.p2align 4,,15
 742              		.global	rtcanInit
 743              		.thumb
 744              		.thumb_func
 745              		.type	rtcanInit, %function
 746              	rtcanInit:
 747              	.LFB125:
 748              		.loc 1 340 0
 749              		.cfi_startproc
 750              		@ args = 0, pretend = 0, frame = 0
 751              		@ frame_needed = 0, uses_anonymous_args = 0
 752 0000 08B5     		push	{r3, lr}
 753              		.cfi_def_cfa_offset 8
 754              		.cfi_offset 3, -8
 755              		.cfi_offset 14, -4
 756              		.loc 1 345 0
 757 0002 FFF7FEFF 		bl	rtcan_lld_can_init
 758              		.loc 1 346 0
 759 0006 08BD     		pop	{r3, pc}
 760              		.cfi_endproc
 761              	.LFE125:
 762              		.size	rtcanInit, .-rtcanInit
 763              		.section	.text.rtcanReset,"ax",%progbits
 764              		.align	2
 765              		.p2align 4,,15
 766              		.global	rtcanReset
 767              		.thumb
 768              		.thumb_func
 769              		.type	rtcanReset, %function
 770              	rtcanReset:
 771              	.LFB126:
 772              		.loc 1 355 0
 773              		.cfi_startproc
 774              		@ args = 0, pretend = 0, frame = 16
 775              		@ frame_needed = 0, uses_anonymous_args = 0
 776 0000 00B5     		push	{lr}
 777              		.cfi_def_cfa_offset 4
 778              		.cfi_offset 14, -4
 779 0002 85B0     		sub	sp, sp, #20
 780              		.cfi_def_cfa_offset 24
 781 0004 0190     		str	r0, [sp, #4]
 782              		.loc 1 358 0
 783 0006 019B     		ldr	r3, [sp, #4]
 784 0008 0122     		movs	r2, #1
 785 000a 1A70     		strb	r2, [r3]
 786              		.loc 1 359 0
 787 000c 019B     		ldr	r3, [sp, #4]
 788 000e 0022     		movs	r2, #0
ARM GAS  /tmp/cchWoqJA.s 			page 15


 789 0010 5A65     		str	r2, [r3, #84]
 790              		.loc 1 361 0
 791 0012 019B     		ldr	r3, [sp, #4]
 792 0014 0C33     		adds	r3, r3, #12
 793 0016 1846     		mov	r0, r3
 794 0018 FFF7FEFF 		bl	msgqueue_init
 795              		.loc 1 363 0
 796 001c 0023     		movs	r3, #0
 797 001e 0393     		str	r3, [sp, #12]
 798 0020 08E0     		b	.L44
 799              	.L45:
 800              		.loc 1 364 0 discriminator 3
 801 0022 019B     		ldr	r3, [sp, #4]
 802 0024 039A     		ldr	r2, [sp, #12]
 803 0026 0432     		adds	r2, r2, #4
 804 0028 0021     		movs	r1, #0
 805 002a 43F82210 		str	r1, [r3, r2, lsl #2]
 806              		.loc 1 363 0 discriminator 3
 807 002e 039B     		ldr	r3, [sp, #12]
 808 0030 0133     		adds	r3, r3, #1
 809 0032 0393     		str	r3, [sp, #12]
 810              	.L44:
 811              		.loc 1 363 0 is_stmt 0 discriminator 1
 812 0034 039B     		ldr	r3, [sp, #12]
 813 0036 022B     		cmp	r3, #2
 814 0038 F3DD     		ble	.L45
 815              		.loc 1 367 0 is_stmt 1
 816 003a 0023     		movs	r3, #0
 817 003c 0393     		str	r3, [sp, #12]
 818 003e 09E0     		b	.L46
 819              	.L47:
 820              		.loc 1 368 0 discriminator 3
 821 0040 019A     		ldr	r2, [sp, #4]
 822 0042 039B     		ldr	r3, [sp, #12]
 823 0044 0633     		adds	r3, r3, #6
 824 0046 9B00     		lsls	r3, r3, #2
 825 0048 1344     		add	r3, r3, r2
 826 004a 0022     		movs	r2, #0
 827 004c 5A60     		str	r2, [r3, #4]
 828              		.loc 1 367 0 discriminator 3
 829 004e 039B     		ldr	r3, [sp, #12]
 830 0050 0133     		adds	r3, r3, #1
 831 0052 0393     		str	r3, [sp, #12]
 832              	.L46:
 833              		.loc 1 367 0 is_stmt 0 discriminator 1
 834 0054 039B     		ldr	r3, [sp, #12]
 835 0056 0D2B     		cmp	r3, #13
 836 0058 F2DD     		ble	.L47
 837              		.loc 1 375 0 is_stmt 1
 838 005a 05B0     		add	sp, sp, #20
 839              		.cfi_def_cfa_offset 4
 840              		@ sp needed
 841 005c 5DF804FB 		ldr	pc, [sp], #4
 842              		.cfi_endproc
 843              	.LFE126:
 844              		.size	rtcanReset, .-rtcanReset
 845              		.section	.rodata
ARM GAS  /tmp/cchWoqJA.s 			page 16


 846              		.align	2
 847              	.LC0:
 848 0000 22727463 		.ascii	"\"rtcanStart\"()\000"
 848      616E5374 
 848      61727422 
 848      282900
 849 000f 00       		.align	2
 850              	.LC1:
 851 0010 72746361 		.ascii	"rtcanStart(), #1\000"
 851      6E537461 
 851      72742829 
 851      2C202331 
 851      00
 852              		.section	.text.rtcanStart,"ax",%progbits
 853              		.align	2
 854              		.p2align 4,,15
 855              		.global	rtcanStart
 856              		.thumb
 857              		.thumb_func
 858              		.type	rtcanStart, %function
 859              	rtcanStart:
 860              	.LFB127:
 861              		.loc 1 389 0
 862              		.cfi_startproc
 863              		@ args = 0, pretend = 0, frame = 8
 864              		@ frame_needed = 0, uses_anonymous_args = 0
 865 0000 00B5     		push	{lr}
 866              		.cfi_def_cfa_offset 4
 867              		.cfi_offset 14, -4
 868 0002 83B0     		sub	sp, sp, #12
 869              		.cfi_def_cfa_offset 16
 870 0004 0190     		str	r0, [sp, #4]
 871 0006 0091     		str	r1, [sp]
 872              		.loc 1 391 0
 873 0008 019B     		ldr	r3, [sp, #4]
 874 000a 002B     		cmp	r3, #0
 875 000c 05D1     		bne	.L49
 876              		.loc 1 391 0 is_stmt 0 discriminator 1
 877 000e 009B     		ldr	r3, [sp]
 878 0010 002B     		cmp	r3, #0
 879 0012 02D1     		bne	.L49
 880              		.loc 1 391 0 discriminator 2
 881 0014 1648     		ldr	r0, .L54
 882 0016 FFF7FEFF 		bl	chDbgPanic
 883              	.L49:
 884              	.LBB17:
 885              		.loc 1 393 0 is_stmt 1
 886 001a 2023     		movs	r3, #32
 887              	@ 393 "/home/ergae/r2p-sdk/core/RTCAN/src/rtcan.c" 1
 888 001c 83F31188 		msr     BASEPRI, r3
 889              	@ 0 "" 2
 890              		.thumb
 891              	.LBE17:
 892 0020 FFF7FEFF 		bl	dbg_check_lock
 893              		.loc 1 395 0
 894 0024 019B     		ldr	r3, [sp, #4]
 895 0026 1B78     		ldrb	r3, [r3]	@ zero_extendqisi2
ARM GAS  /tmp/cchWoqJA.s 			page 17


 896 0028 012B     		cmp	r3, #1
 897 002a 02D0     		beq	.L50
 898              		.loc 1 395 0 is_stmt 0 discriminator 1
 899 002c 1148     		ldr	r0, .L54+4
 900 002e FFF7FEFF 		bl	chDbgPanic
 901              	.L50:
 902              		.loc 1 398 0 is_stmt 1
 903 0032 019B     		ldr	r3, [sp, #4]
 904 0034 1B78     		ldrb	r3, [r3]	@ zero_extendqisi2
 905 0036 012B     		cmp	r3, #1
 906 0038 08D1     		bne	.L51
 907              		.loc 1 399 0
 908 003a 019B     		ldr	r3, [sp, #4]
 909 003c 009A     		ldr	r2, [sp]
 910 003e 5A65     		str	r2, [r3, #84]
 911              		.loc 1 400 0
 912 0040 0198     		ldr	r0, [sp, #4]
 913 0042 FFF7FEFF 		bl	rtcan_lld_can_start
 914              		.loc 1 401 0
 915 0046 019B     		ldr	r3, [sp, #4]
 916 0048 0222     		movs	r2, #2
 917 004a 1A70     		strb	r2, [r3]
 918              	.L51:
 919              		.loc 1 420 0
 920 004c 019B     		ldr	r3, [sp, #4]
 921 004e 0522     		movs	r2, #5
 922 0050 1A70     		strb	r2, [r3]
 923              		.loc 1 423 0
 924 0052 FFF7FEFF 		bl	dbg_check_unlock
 925              	.LBB18:
 926 0056 0023     		movs	r3, #0
 927              	@ 423 "/home/ergae/r2p-sdk/core/RTCAN/src/rtcan.c" 1
 928 0058 83F31188 		msr     BASEPRI, r3
 929              	@ 0 "" 2
 930              		.thumb
 931              	.LBE18:
 932              		.loc 1 425 0
 933 005c 01E0     		b	.L52
 934              	.L53:
 935              		.loc 1 426 0
 936 005e FFF7FEFF 		bl	rtcan_blinker
 937              	.L52:
 938              		.loc 1 425 0
 939 0062 019B     		ldr	r3, [sp, #4]
 940 0064 1B78     		ldrb	r3, [r3]	@ zero_extendqisi2
 941 0066 042B     		cmp	r3, #4
 942 0068 F9D0     		beq	.L53
 943              		.loc 1 428 0
 944 006a 03B0     		add	sp, sp, #12
 945              		.cfi_def_cfa_offset 4
 946              		@ sp needed
 947 006c 5DF804FB 		ldr	pc, [sp], #4
 948              	.L55:
 949              		.align	2
 950              	.L54:
 951 0070 00000000 		.word	.LC0
 952 0074 10000000 		.word	.LC1
ARM GAS  /tmp/cchWoqJA.s 			page 18


 953              		.cfi_endproc
 954              	.LFE127:
 955              		.size	rtcanStart, .-rtcanStart
 956 0078 AFF30080 		.section	.rodata
 956      AFF30080 
 957 0021 000000   		.align	2
 958              	.LC2:
 959 0024 22727463 		.ascii	"\"rtcanStop\"()\000"
 959      616E5374 
 959      6F702228 
 959      2900
 960 0032 0000     		.align	2
 961              	.LC3:
 962 0034 72746361 		.ascii	"rtcanStop(), #1\000"
 962      6E53746F 
 962      7028292C 
 962      20233100 
 963              		.section	.text.rtcanStop,"ax",%progbits
 964              		.align	2
 965              		.p2align 4,,15
 966              		.global	rtcanStop
 967              		.thumb
 968              		.thumb_func
 969              		.type	rtcanStop, %function
 970              	rtcanStop:
 971              	.LFB128:
 972              		.loc 1 437 0
 973              		.cfi_startproc
 974              		@ args = 0, pretend = 0, frame = 8
 975              		@ frame_needed = 0, uses_anonymous_args = 0
 976 0000 00B5     		push	{lr}
 977              		.cfi_def_cfa_offset 4
 978              		.cfi_offset 14, -4
 979 0002 83B0     		sub	sp, sp, #12
 980              		.cfi_def_cfa_offset 16
 981 0004 0190     		str	r0, [sp, #4]
 982              		.loc 1 439 0
 983 0006 019B     		ldr	r3, [sp, #4]
 984 0008 002B     		cmp	r3, #0
 985 000a 02D1     		bne	.L57
 986              		.loc 1 439 0 is_stmt 0 discriminator 1
 987 000c 1048     		ldr	r0, .L59
 988 000e FFF7FEFF 		bl	chDbgPanic
 989              	.L57:
 990              	.LBB19:
 991              		.loc 1 441 0 is_stmt 1
 992 0012 2023     		movs	r3, #32
 993              	@ 441 "/home/ergae/r2p-sdk/core/RTCAN/src/rtcan.c" 1
 994 0014 83F31188 		msr     BASEPRI, r3
 995              	@ 0 "" 2
 996              		.thumb
 997              	.LBE19:
 998 0018 FFF7FEFF 		bl	dbg_check_lock
 999              		.loc 1 443 0
 1000 001c 019B     		ldr	r3, [sp, #4]
 1001 001e 1B78     		ldrb	r3, [r3]	@ zero_extendqisi2
 1002 0020 062B     		cmp	r3, #6
ARM GAS  /tmp/cchWoqJA.s 			page 19


 1003 0022 06D0     		beq	.L58
 1004              		.loc 1 443 0 is_stmt 0 discriminator 1
 1005 0024 019B     		ldr	r3, [sp, #4]
 1006 0026 1B78     		ldrb	r3, [r3]	@ zero_extendqisi2
 1007 0028 052B     		cmp	r3, #5
 1008 002a 02D0     		beq	.L58
 1009              		.loc 1 443 0 discriminator 2
 1010 002c 0948     		ldr	r0, .L59+4
 1011 002e FFF7FEFF 		bl	chDbgPanic
 1012              	.L58:
 1013              		.loc 1 445 0 is_stmt 1
 1014 0032 0198     		ldr	r0, [sp, #4]
 1015 0034 FFF7FEFF 		bl	rtcan_lld_can_stop
 1016              		.loc 1 446 0
 1017 0038 019B     		ldr	r3, [sp, #4]
 1018 003a 0122     		movs	r2, #1
 1019 003c 1A70     		strb	r2, [r3]
 1020              		.loc 1 447 0
 1021 003e FFF7FEFF 		bl	dbg_check_unlock
 1022              	.LBB20:
 1023 0042 0023     		movs	r3, #0
 1024              	@ 447 "/home/ergae/r2p-sdk/core/RTCAN/src/rtcan.c" 1
 1025 0044 83F31188 		msr     BASEPRI, r3
 1026              	@ 0 "" 2
 1027              		.thumb
 1028              	.LBE20:
 1029              		.loc 1 448 0
 1030 0048 03B0     		add	sp, sp, #12
 1031              		.cfi_def_cfa_offset 4
 1032              		@ sp needed
 1033 004a 5DF804FB 		ldr	pc, [sp], #4
 1034              	.L60:
 1035 004e 00BF     		.align	2
 1036              	.L59:
 1037 0050 24000000 		.word	.LC2
 1038 0054 34000000 		.word	.LC3
 1039              		.cfi_endproc
 1040              	.LFE128:
 1041              		.size	rtcanStop, .-rtcanStop
 1042 0058 AFF30080 		.section	.text.rtcanTransmit,"ax",%progbits
 1042      AFF30080 
 1043              		.align	2
 1044              		.p2align 4,,15
 1045              		.global	rtcanTransmit
 1046              		.thumb
 1047              		.thumb_func
 1048              		.type	rtcanTransmit, %function
 1049              	rtcanTransmit:
 1050              	.LFB129:
 1051              		.loc 1 455 0
 1052              		.cfi_startproc
 1053              		@ args = 0, pretend = 0, frame = 16
 1054              		@ frame_needed = 0, uses_anonymous_args = 0
 1055 0000 00B5     		push	{lr}
 1056              		.cfi_def_cfa_offset 4
 1057              		.cfi_offset 14, -4
 1058 0002 85B0     		sub	sp, sp, #20
ARM GAS  /tmp/cchWoqJA.s 			page 20


 1059              		.cfi_def_cfa_offset 24
 1060 0004 0390     		str	r0, [sp, #12]
 1061 0006 0291     		str	r1, [sp, #8]
 1062 0008 0192     		str	r2, [sp, #4]
 1063              	.LBB21:
 1064              		.loc 1 457 0
 1065 000a 2023     		movs	r3, #32
 1066              	@ 457 "/home/ergae/r2p-sdk/core/RTCAN/src/rtcan.c" 1
 1067 000c 83F31188 		msr     BASEPRI, r3
 1068              	@ 0 "" 2
 1069              		.thumb
 1070              	.LBE21:
 1071 0010 FFF7FEFF 		bl	dbg_check_lock
 1072              		.loc 1 459 0
 1073 0014 0398     		ldr	r0, [sp, #12]
 1074 0016 0299     		ldr	r1, [sp, #8]
 1075 0018 019A     		ldr	r2, [sp, #4]
 1076 001a FFF7FEFF 		bl	rtcanTransmitI
 1077              		.loc 1 460 0
 1078 001e FFF7FEFF 		bl	dbg_check_unlock
 1079              	.LBB22:
 1080 0022 0023     		movs	r3, #0
 1081              	@ 460 "/home/ergae/r2p-sdk/core/RTCAN/src/rtcan.c" 1
 1082 0024 83F31188 		msr     BASEPRI, r3
 1083              	@ 0 "" 2
 1084              		.thumb
 1085              	.LBE22:
 1086              		.loc 1 461 0
 1087 0028 05B0     		add	sp, sp, #20
 1088              		.cfi_def_cfa_offset 4
 1089              		@ sp needed
 1090 002a 5DF804FB 		ldr	pc, [sp], #4
 1091              		.cfi_endproc
 1092              	.LFE129:
 1093              		.size	rtcanTransmit, .-rtcanTransmit
 1094 002e 00BF     		.section	.text.rtcanTransmitI,"ax",%progbits
 1095              		.align	2
 1096              		.p2align 4,,15
 1097              		.global	rtcanTransmitI
 1098              		.thumb
 1099              		.thumb_func
 1100              		.type	rtcanTransmitI, %function
 1101              	rtcanTransmitI:
 1102              	.LFB130:
 1103              		.loc 1 468 0
 1104              		.cfi_startproc
 1105              		@ args = 0, pretend = 0, frame = 16
 1106              		@ frame_needed = 0, uses_anonymous_args = 0
 1107 0000 00B5     		push	{lr}
 1108              		.cfi_def_cfa_offset 4
 1109              		.cfi_offset 14, -4
 1110 0002 85B0     		sub	sp, sp, #20
 1111              		.cfi_def_cfa_offset 24
 1112 0004 0390     		str	r0, [sp, #12]
 1113 0006 0291     		str	r1, [sp, #8]
 1114 0008 0192     		str	r2, [sp, #4]
 1115              		.loc 1 471 0
ARM GAS  /tmp/cchWoqJA.s 			page 21


 1116 000a 029B     		ldr	r3, [sp, #8]
 1117 000c 0122     		movs	r2, #1
 1118 000e 1A71     		strb	r2, [r3, #4]
 1119              		.loc 1 474 0
 1120 0010 1C4B     		ldr	r3, .L66
 1121 0012 DA68     		ldr	r2, [r3, #12]
 1122 0014 019B     		ldr	r3, [sp, #4]
 1123 0016 1A44     		add	r2, r2, r3
 1124 0018 029B     		ldr	r3, [sp, #8]
 1125 001a C3F80D20 		str	r2, [r3, #13]	@ unaligned
 1126              		.loc 1 477 0
 1127 001e 029B     		ldr	r3, [sp, #8]
 1128 0020 B3F81330 		ldrh	r3, [r3, #19]	@ unaligned
 1129 0024 9BB2     		uxth	r3, r3
 1130 0026 082B     		cmp	r3, #8
 1131 0028 12D9     		bls	.L63
 1132              		.loc 1 478 0
 1133 002a 029B     		ldr	r3, [sp, #8]
 1134 002c B3F81330 		ldrh	r3, [r3, #19]	@ unaligned
 1135 0030 9BB2     		uxth	r3, r3
 1136 0032 013B     		subs	r3, r3, #1
 1137 0034 002B     		cmp	r3, #0
 1138 0036 00DA     		bge	.L64
 1139 0038 0733     		adds	r3, r3, #7
 1140              	.L64:
 1141 003a DB10     		asrs	r3, r3, #3
 1142 003c DBB2     		uxtb	r3, r3
 1143 003e 03F07F03 		and	r3, r3, #127
 1144 0042 D9B2     		uxtb	r1, r3
 1145 0044 029A     		ldr	r2, [sp, #8]
 1146 0046 537F     		ldrb	r3, [r2, #29]
 1147 0048 61F30603 		bfi	r3, r1, #0, #7
 1148 004c 5377     		strb	r3, [r2, #29]
 1149 004e 04E0     		b	.L65
 1150              	.L63:
 1151              		.loc 1 480 0
 1152 0050 029A     		ldr	r2, [sp, #8]
 1153 0052 537F     		ldrb	r3, [r2, #29]
 1154 0054 6FF30603 		bfc	r3, #0, #7
 1155 0058 5377     		strb	r3, [r2, #29]
 1156              	.L65:
 1157              		.loc 1 484 0
 1158 005a 029B     		ldr	r3, [sp, #8]
 1159 005c D3F81520 		ldr	r2, [r3, #21]	@ unaligned
 1160 0060 029B     		ldr	r3, [sp, #8]
 1161 0062 C3F81920 		str	r2, [r3, #25]	@ unaligned
 1162              		.loc 1 486 0
 1163 0066 039B     		ldr	r3, [sp, #12]
 1164 0068 0C33     		adds	r3, r3, #12
 1165 006a 1846     		mov	r0, r3
 1166 006c 0299     		ldr	r1, [sp, #8]
 1167 006e FFF7FEFF 		bl	msgqueue_insert
 1168              		.loc 1 487 0
 1169 0072 029B     		ldr	r3, [sp, #8]
 1170 0074 0322     		movs	r2, #3
 1171 0076 1A71     		strb	r2, [r3, #4]
 1172              		.loc 1 489 0
ARM GAS  /tmp/cchWoqJA.s 			page 22


 1173 0078 0398     		ldr	r0, [sp, #12]
 1174 007a FFF7FEFF 		bl	srt_transmit
 1175              		.loc 1 491 0
 1176 007e 05B0     		add	sp, sp, #20
 1177              		.cfi_def_cfa_offset 4
 1178              		@ sp needed
 1179 0080 5DF804FB 		ldr	pc, [sp], #4
 1180              	.L67:
 1181              		.align	2
 1182              	.L66:
 1183 0084 00000000 		.word	vtlist
 1184              		.cfi_endproc
 1185              	.LFE130:
 1186              		.size	rtcanTransmitI, .-rtcanTransmitI
 1187 0088 AFF30080 		.section	.text.rtcanReceive,"ax",%progbits
 1187      AFF30080 
 1188              		.align	2
 1189              		.p2align 4,,15
 1190              		.global	rtcanReceive
 1191              		.thumb
 1192              		.thumb_func
 1193              		.type	rtcanReceive, %function
 1194              	rtcanReceive:
 1195              	.LFB131:
 1196              		.loc 1 498 0
 1197              		.cfi_startproc
 1198              		@ args = 0, pretend = 0, frame = 16
 1199              		@ frame_needed = 0, uses_anonymous_args = 0
 1200 0000 00B5     		push	{lr}
 1201              		.cfi_def_cfa_offset 4
 1202              		.cfi_offset 14, -4
 1203 0002 85B0     		sub	sp, sp, #20
 1204              		.cfi_def_cfa_offset 24
 1205 0004 0190     		str	r0, [sp, #4]
 1206 0006 0091     		str	r1, [sp]
 1207              	.LBB23:
 1208              		.loc 1 501 0
 1209 0008 2023     		movs	r3, #32
 1210              	@ 501 "/home/ergae/r2p-sdk/core/RTCAN/src/rtcan.c" 1
 1211 000a 83F31188 		msr     BASEPRI, r3
 1212              	@ 0 "" 2
 1213              		.thumb
 1214              	.LBE23:
 1215 000e FFF7FEFF 		bl	dbg_check_lock
 1216              		.loc 1 504 0
 1217 0012 009B     		ldr	r3, [sp]
 1218 0014 B3F81130 		ldrh	r3, [r3, #17]	@ unaligned
 1219 0018 9BB2     		uxth	r3, r3
 1220 001a DB01     		lsls	r3, r3, #7
 1221 001c 1A46     		mov	r2, r3
 1222 001e 0DF10F03 		add	r3, sp, #15
 1223 0022 0198     		ldr	r0, [sp, #4]
 1224 0024 1146     		mov	r1, r2
 1225 0026 094A     		ldr	r2, .L69
 1226 0028 FFF7FEFF 		bl	rtcan_lld_can_addfilter
 1227              		.loc 1 505 0
 1228 002c 9DF80F30 		ldrb	r3, [sp, #15]	@ zero_extendqisi2
ARM GAS  /tmp/cchWoqJA.s 			page 23


 1229 0030 019A     		ldr	r2, [sp, #4]
 1230 0032 0633     		adds	r3, r3, #6
 1231 0034 9B00     		lsls	r3, r3, #2
 1232 0036 1344     		add	r3, r3, r2
 1233 0038 009A     		ldr	r2, [sp]
 1234 003a 5A60     		str	r2, [r3, #4]
 1235              		.loc 1 507 0
 1236 003c FFF7FEFF 		bl	dbg_check_unlock
 1237              	.LBB24:
 1238 0040 0023     		movs	r3, #0
 1239              	@ 507 "/home/ergae/r2p-sdk/core/RTCAN/src/rtcan.c" 1
 1240 0042 83F31188 		msr     BASEPRI, r3
 1241              	@ 0 "" 2
 1242              		.thumb
 1243              	.LBE24:
 1244              		.loc 1 508 0
 1245 0046 05B0     		add	sp, sp, #20
 1246              		.cfi_def_cfa_offset 4
 1247              		@ sp needed
 1248 0048 5DF804FB 		ldr	pc, [sp], #4
 1249              	.L70:
 1250              		.align	2
 1251              	.L69:
 1252 004c 80FF7F00 		.word	8388480
 1253              		.cfi_endproc
 1254              	.LFE131:
 1255              		.size	rtcanReceive, .-rtcanReceive
 1256              		.section	.text.rtcanReceiveMask,"ax",%progbits
 1257              		.align	2
 1258              		.p2align 4,,15
 1259              		.global	rtcanReceiveMask
 1260              		.thumb
 1261              		.thumb_func
 1262              		.type	rtcanReceiveMask, %function
 1263              	rtcanReceiveMask:
 1264              	.LFB132:
 1265              		.loc 1 510 0
 1266              		.cfi_startproc
 1267              		@ args = 0, pretend = 0, frame = 24
 1268              		@ frame_needed = 0, uses_anonymous_args = 0
 1269 0000 00B5     		push	{lr}
 1270              		.cfi_def_cfa_offset 4
 1271              		.cfi_offset 14, -4
 1272 0002 87B0     		sub	sp, sp, #28
 1273              		.cfi_def_cfa_offset 32
 1274 0004 0390     		str	r0, [sp, #12]
 1275 0006 0291     		str	r1, [sp, #8]
 1276 0008 0192     		str	r2, [sp, #4]
 1277              	.LBB25:
 1278              		.loc 1 513 0
 1279 000a 2023     		movs	r3, #32
 1280              	@ 513 "/home/ergae/r2p-sdk/core/RTCAN/src/rtcan.c" 1
 1281 000c 83F31188 		msr     BASEPRI, r3
 1282              	@ 0 "" 2
 1283              		.thumb
 1284              	.LBE25:
 1285 0010 FFF7FEFF 		bl	dbg_check_lock
ARM GAS  /tmp/cchWoqJA.s 			page 24


 1286              		.loc 1 516 0
 1287 0014 029B     		ldr	r3, [sp, #8]
 1288 0016 B3F81130 		ldrh	r3, [r3, #17]	@ unaligned
 1289 001a 9BB2     		uxth	r3, r3
 1290 001c DB01     		lsls	r3, r3, #7
 1291 001e 1946     		mov	r1, r3
 1292 0020 019B     		ldr	r3, [sp, #4]
 1293 0022 9BB2     		uxth	r3, r3
 1294 0024 DA01     		lsls	r2, r3, #7
 1295 0026 0DF11703 		add	r3, sp, #23
 1296 002a 0398     		ldr	r0, [sp, #12]
 1297 002c FFF7FEFF 		bl	rtcan_lld_can_addfilter
 1298              		.loc 1 517 0
 1299 0030 9DF81730 		ldrb	r3, [sp, #23]	@ zero_extendqisi2
 1300 0034 039A     		ldr	r2, [sp, #12]
 1301 0036 0633     		adds	r3, r3, #6
 1302 0038 9B00     		lsls	r3, r3, #2
 1303 003a 1344     		add	r3, r3, r2
 1304 003c 029A     		ldr	r2, [sp, #8]
 1305 003e 5A60     		str	r2, [r3, #4]
 1306              		.loc 1 519 0
 1307 0040 FFF7FEFF 		bl	dbg_check_unlock
 1308              	.LBB26:
 1309 0044 0023     		movs	r3, #0
 1310              	@ 519 "/home/ergae/r2p-sdk/core/RTCAN/src/rtcan.c" 1
 1311 0046 83F31188 		msr     BASEPRI, r3
 1312              	@ 0 "" 2
 1313              		.thumb
 1314              	.LBE26:
 1315              		.loc 1 520 0
 1316 004a 07B0     		add	sp, sp, #28
 1317              		.cfi_def_cfa_offset 4
 1318              		@ sp needed
 1319 004c 5DF804FB 		ldr	pc, [sp], #4
 1320              		.cfi_endproc
 1321              	.LFE132:
 1322              		.size	rtcanReceiveMask, .-rtcanReceiveMask
 1323              		.section	.text.rtcan_blinker,"ax",%progbits
 1324              		.align	2
 1325              		.p2align 4,,15
 1326              		.global	rtcan_blinker
 1327              		.thumb
 1328              		.thumb_func
 1329              		.type	rtcan_blinker, %function
 1330              	rtcan_blinker:
 1331              	.LFB133:
 1332              		.loc 1 549 0
 1333              		.cfi_startproc
 1334              		@ args = 0, pretend = 0, frame = 0
 1335              		@ frame_needed = 0, uses_anonymous_args = 0
 1336              		@ link register save eliminated.
 1337              		.loc 1 579 0
 1338 0000 7047     		bx	lr
 1339              		.cfi_endproc
 1340              	.LFE133:
 1341              		.size	rtcan_blinker, .-rtcan_blinker
 1342 0002 00BFAFF3 		.text
ARM GAS  /tmp/cchWoqJA.s 			page 25


 1342      0080AFF3 
 1342      0080AFF3 
 1342      0080
 1343              	.Letext0:
 1344              		.file 2 "/home/ergae/r2p-sdk/tools/gcc-arm-none-eabi-4_9-2014q4/arm-none-eabi/include/machine/_def
 1345              		.file 3 "/home/ergae/r2p-sdk/tools/gcc-arm-none-eabi-4_9-2014q4/arm-none-eabi/include/stdint.h"
 1346              		.file 4 "/home/ergae/r2p-sdk/core/ChibiOS/os/ports/GCC/ARMCMx/chtypes.h"
 1347              		.file 5 "/home/ergae/r2p-sdk/core/ChibiOS/os/kernel/include/chvt.h"
 1348              		.file 6 "/home/ergae/r2p-sdk/core/ChibiOS/os/hal/platforms/STM32F30x/stm32f30x.h"
 1349              		.file 7 "/home/ergae/r2p-sdk/core/RTCAN/include/rtcan.h"
 1350              		.file 8 "/home/ergae/r2p-sdk/core/RTCAN/include/msgqueue.h"
 1351              		.file 9 "/home/ergae/r2p-sdk/core/ChibiOS/os/ports/common/ARMCMx/CMSIS/include/core_cm4.h"
 1352              		.section	.debug_info,"",%progbits
 1353              	.Ldebug_info0:
 1354 0000 290F0000 		.4byte	0xf29
 1355 0004 0400     		.2byte	0x4
 1356 0006 00000000 		.4byte	.Ldebug_abbrev0
 1357 000a 04       		.byte	0x4
 1358 000b 01       		.uleb128 0x1
 1359 000c 2F060000 		.4byte	.LASF150
 1360 0010 01       		.byte	0x1
 1361 0011 22000000 		.4byte	.LASF151
 1362 0015 00000000 		.4byte	.Ldebug_ranges0+0
 1363 0019 00000000 		.4byte	0
 1364 001d 00000000 		.4byte	.Ldebug_line0
 1365 0021 02       		.uleb128 0x2
 1366 0022 04       		.byte	0x4
 1367 0023 05       		.byte	0x5
 1368 0024 696E7400 		.ascii	"int\000"
 1369 0028 03       		.uleb128 0x3
 1370 0029 04       		.byte	0x4
 1371 002a 07       		.byte	0x7
 1372 002b DE010000 		.4byte	.LASF0
 1373 002f 03       		.uleb128 0x3
 1374 0030 01       		.byte	0x1
 1375 0031 06       		.byte	0x6
 1376 0032 D1000000 		.4byte	.LASF1
 1377 0036 04       		.uleb128 0x4
 1378 0037 4D000000 		.4byte	.LASF4
 1379 003b 02       		.byte	0x2
 1380 003c 1D       		.byte	0x1d
 1381 003d 41000000 		.4byte	0x41
 1382 0041 03       		.uleb128 0x3
 1383 0042 01       		.byte	0x1
 1384 0043 08       		.byte	0x8
 1385 0044 CF030000 		.4byte	.LASF2
 1386 0048 03       		.uleb128 0x3
 1387 0049 02       		.byte	0x2
 1388 004a 05       		.byte	0x5
 1389 004b EA030000 		.4byte	.LASF3
 1390 004f 04       		.uleb128 0x4
 1391 0050 8A010000 		.4byte	.LASF5
 1392 0054 02       		.byte	0x2
 1393 0055 2B       		.byte	0x2b
 1394 0056 5A000000 		.4byte	0x5a
 1395 005a 03       		.uleb128 0x3
 1396 005b 02       		.byte	0x2
ARM GAS  /tmp/cchWoqJA.s 			page 26


 1397 005c 07       		.byte	0x7
 1398 005d 1D050000 		.4byte	.LASF6
 1399 0061 04       		.uleb128 0x4
 1400 0062 9B020000 		.4byte	.LASF7
 1401 0066 02       		.byte	0x2
 1402 0067 3F       		.byte	0x3f
 1403 0068 6C000000 		.4byte	0x6c
 1404 006c 03       		.uleb128 0x3
 1405 006d 04       		.byte	0x4
 1406 006e 05       		.byte	0x5
 1407 006f 32010000 		.4byte	.LASF8
 1408 0073 04       		.uleb128 0x4
 1409 0074 A1010000 		.4byte	.LASF9
 1410 0078 02       		.byte	0x2
 1411 0079 41       		.byte	0x41
 1412 007a 7E000000 		.4byte	0x7e
 1413 007e 03       		.uleb128 0x3
 1414 007f 04       		.byte	0x4
 1415 0080 07       		.byte	0x7
 1416 0081 08020000 		.4byte	.LASF10
 1417 0085 03       		.uleb128 0x3
 1418 0086 08       		.byte	0x8
 1419 0087 05       		.byte	0x5
 1420 0088 64010000 		.4byte	.LASF11
 1421 008c 03       		.uleb128 0x3
 1422 008d 08       		.byte	0x8
 1423 008e 07       		.byte	0x7
 1424 008f 90000000 		.4byte	.LASF12
 1425 0093 04       		.uleb128 0x4
 1426 0094 B7050000 		.4byte	.LASF13
 1427 0098 03       		.byte	0x3
 1428 0099 15       		.byte	0x15
 1429 009a 36000000 		.4byte	0x36
 1430 009e 04       		.uleb128 0x4
 1431 009f F3010000 		.4byte	.LASF14
 1432 00a3 03       		.byte	0x3
 1433 00a4 21       		.byte	0x21
 1434 00a5 4F000000 		.4byte	0x4f
 1435 00a9 04       		.uleb128 0x4
 1436 00aa C7030000 		.4byte	.LASF15
 1437 00ae 03       		.byte	0x3
 1438 00af 2C       		.byte	0x2c
 1439 00b0 61000000 		.4byte	0x61
 1440 00b4 04       		.uleb128 0x4
 1441 00b5 53040000 		.4byte	.LASF16
 1442 00b9 03       		.byte	0x3
 1443 00ba 2D       		.byte	0x2d
 1444 00bb 73000000 		.4byte	0x73
 1445 00bf 04       		.uleb128 0x4
 1446 00c0 F6000000 		.4byte	.LASF17
 1447 00c4 04       		.byte	0x4
 1448 00c5 2B       		.byte	0x2b
 1449 00c6 CA000000 		.4byte	0xca
 1450 00ca 03       		.uleb128 0x3
 1451 00cb 01       		.byte	0x1
 1452 00cc 02       		.byte	0x2
 1453 00cd C1030000 		.4byte	.LASF18
ARM GAS  /tmp/cchWoqJA.s 			page 27


 1454 00d1 04       		.uleb128 0x4
 1455 00d2 C7040000 		.4byte	.LASF19
 1456 00d6 04       		.byte	0x4
 1457 00d7 35       		.byte	0x35
 1458 00d8 B4000000 		.4byte	0xb4
 1459 00dc 05       		.uleb128 0x5
 1460 00dd 04       		.byte	0x4
 1461 00de 06       		.uleb128 0x6
 1462 00df B4000000 		.4byte	0xb4
 1463 00e3 03       		.uleb128 0x3
 1464 00e4 04       		.byte	0x4
 1465 00e5 07       		.byte	0x7
 1466 00e6 F0020000 		.4byte	.LASF20
 1467 00ea 04       		.uleb128 0x4
 1468 00eb E4040000 		.4byte	.LASF21
 1469 00ef 05       		.byte	0x5
 1470 00f0 58       		.byte	0x58
 1471 00f1 F5000000 		.4byte	0xf5
 1472 00f5 07       		.uleb128 0x7
 1473 00f6 04       		.byte	0x4
 1474 00f7 FB000000 		.4byte	0xfb
 1475 00fb 08       		.uleb128 0x8
 1476 00fc 06010000 		.4byte	0x106
 1477 0100 09       		.uleb128 0x9
 1478 0101 DC000000 		.4byte	0xdc
 1479 0105 00       		.byte	0
 1480 0106 04       		.uleb128 0x4
 1481 0107 3B020000 		.4byte	.LASF22
 1482 010b 05       		.byte	0x5
 1483 010c 5D       		.byte	0x5d
 1484 010d 11010000 		.4byte	0x111
 1485 0111 0A       		.uleb128 0xa
 1486 0112 3B020000 		.4byte	.LASF22
 1487 0116 14       		.byte	0x14
 1488 0117 05       		.byte	0x5
 1489 0118 64       		.byte	0x64
 1490 0119 5A010000 		.4byte	0x15a
 1491 011d 0B       		.uleb128 0xb
 1492 011e EB010000 		.4byte	.LASF23
 1493 0122 05       		.byte	0x5
 1494 0123 65       		.byte	0x65
 1495 0124 5A010000 		.4byte	0x15a
 1496 0128 00       		.byte	0
 1497 0129 0B       		.uleb128 0xb
 1498 012a B6010000 		.4byte	.LASF24
 1499 012e 05       		.byte	0x5
 1500 012f 67       		.byte	0x67
 1501 0130 5A010000 		.4byte	0x15a
 1502 0134 04       		.byte	0x4
 1503 0135 0B       		.uleb128 0xb
 1504 0136 E1020000 		.4byte	.LASF25
 1505 013a 05       		.byte	0x5
 1506 013b 69       		.byte	0x69
 1507 013c D1000000 		.4byte	0xd1
 1508 0140 08       		.byte	0x8
 1509 0141 0B       		.uleb128 0xb
 1510 0142 08030000 		.4byte	.LASF26
ARM GAS  /tmp/cchWoqJA.s 			page 28


 1511 0146 05       		.byte	0x5
 1512 0147 6A       		.byte	0x6a
 1513 0148 EA000000 		.4byte	0xea
 1514 014c 0C       		.byte	0xc
 1515 014d 0B       		.uleb128 0xb
 1516 014e 5E050000 		.4byte	.LASF27
 1517 0152 05       		.byte	0x5
 1518 0153 6C       		.byte	0x6c
 1519 0154 DC000000 		.4byte	0xdc
 1520 0158 10       		.byte	0x10
 1521 0159 00       		.byte	0
 1522 015a 07       		.uleb128 0x7
 1523 015b 04       		.byte	0x4
 1524 015c 06010000 		.4byte	0x106
 1525 0160 0C       		.uleb128 0xc
 1526 0161 10       		.byte	0x10
 1527 0162 05       		.byte	0x5
 1528 0163 76       		.byte	0x76
 1529 0164 99010000 		.4byte	0x199
 1530 0168 0B       		.uleb128 0xb
 1531 0169 EB010000 		.4byte	.LASF23
 1532 016d 05       		.byte	0x5
 1533 016e 77       		.byte	0x77
 1534 016f 5A010000 		.4byte	0x15a
 1535 0173 00       		.byte	0
 1536 0174 0B       		.uleb128 0xb
 1537 0175 B6010000 		.4byte	.LASF24
 1538 0179 05       		.byte	0x5
 1539 017a 79       		.byte	0x79
 1540 017b 5A010000 		.4byte	0x15a
 1541 017f 04       		.byte	0x4
 1542 0180 0B       		.uleb128 0xb
 1543 0181 E1020000 		.4byte	.LASF25
 1544 0185 05       		.byte	0x5
 1545 0186 7B       		.byte	0x7b
 1546 0187 D1000000 		.4byte	0xd1
 1547 018b 08       		.byte	0x8
 1548 018c 0B       		.uleb128 0xb
 1549 018d 5C040000 		.4byte	.LASF28
 1550 0191 05       		.byte	0x5
 1551 0192 7C       		.byte	0x7c
 1552 0193 99010000 		.4byte	0x199
 1553 0197 0C       		.byte	0xc
 1554 0198 00       		.byte	0
 1555 0199 06       		.uleb128 0x6
 1556 019a D1000000 		.4byte	0xd1
 1557 019e 04       		.uleb128 0x4
 1558 019f 29030000 		.4byte	.LASF29
 1559 01a3 05       		.byte	0x5
 1560 01a4 7D       		.byte	0x7d
 1561 01a5 60010000 		.4byte	0x160
 1562 01a9 03       		.uleb128 0x3
 1563 01aa 01       		.byte	0x1
 1564 01ab 08       		.byte	0x8
 1565 01ac 71040000 		.4byte	.LASF30
 1566 01b0 07       		.uleb128 0x7
 1567 01b1 04       		.byte	0x4
ARM GAS  /tmp/cchWoqJA.s 			page 29


 1568 01b2 93000000 		.4byte	0x93
 1569 01b6 07       		.uleb128 0x7
 1570 01b7 04       		.byte	0x4
 1571 01b8 BC010000 		.4byte	0x1bc
 1572 01bc 0D       		.uleb128 0xd
 1573 01bd 93000000 		.4byte	0x93
 1574 01c1 0E       		.uleb128 0xe
 1575 01c2 B4000000 		.4byte	0xb4
 1576 01c6 D1010000 		.4byte	0x1d1
 1577 01ca 0F       		.uleb128 0xf
 1578 01cb E3000000 		.4byte	0xe3
 1579 01cf 07       		.byte	0x7
 1580 01d0 00       		.byte	0
 1581 01d1 0E       		.uleb128 0xe
 1582 01d2 B4000000 		.4byte	0xb4
 1583 01d6 E1010000 		.4byte	0x1e1
 1584 01da 0F       		.uleb128 0xf
 1585 01db E3000000 		.4byte	0xe3
 1586 01df 01       		.byte	0x1
 1587 01e0 00       		.byte	0
 1588 01e1 06       		.uleb128 0x6
 1589 01e2 9E000000 		.4byte	0x9e
 1590 01e6 06       		.uleb128 0x6
 1591 01e7 A9000000 		.4byte	0xa9
 1592 01eb 10       		.uleb128 0x10
 1593 01ec 10       		.byte	0x10
 1594 01ed 06       		.byte	0x6
 1595 01ee 6C01     		.2byte	0x16c
 1596 01f0 29020000 		.4byte	0x229
 1597 01f4 11       		.uleb128 0x11
 1598 01f5 54495200 		.ascii	"TIR\000"
 1599 01f9 06       		.byte	0x6
 1600 01fa 6E01     		.2byte	0x16e
 1601 01fc DE000000 		.4byte	0xde
 1602 0200 00       		.byte	0
 1603 0201 12       		.uleb128 0x12
 1604 0202 BE010000 		.4byte	.LASF31
 1605 0206 06       		.byte	0x6
 1606 0207 6F01     		.2byte	0x16f
 1607 0209 DE000000 		.4byte	0xde
 1608 020d 04       		.byte	0x4
 1609 020e 12       		.uleb128 0x12
 1610 020f 2D010000 		.4byte	.LASF32
 1611 0213 06       		.byte	0x6
 1612 0214 7001     		.2byte	0x170
 1613 0216 DE000000 		.4byte	0xde
 1614 021a 08       		.byte	0x8
 1615 021b 12       		.uleb128 0x12
 1616 021c 3B030000 		.4byte	.LASF33
 1617 0220 06       		.byte	0x6
 1618 0221 7101     		.2byte	0x171
 1619 0223 DE000000 		.4byte	0xde
 1620 0227 0C       		.byte	0xc
 1621 0228 00       		.byte	0
 1622 0229 13       		.uleb128 0x13
 1623 022a 3B010000 		.4byte	.LASF34
 1624 022e 06       		.byte	0x6
ARM GAS  /tmp/cchWoqJA.s 			page 30


 1625 022f 7201     		.2byte	0x172
 1626 0231 EB010000 		.4byte	0x1eb
 1627 0235 10       		.uleb128 0x10
 1628 0236 10       		.byte	0x10
 1629 0237 06       		.byte	0x6
 1630 0238 7701     		.2byte	0x177
 1631 023a 73020000 		.4byte	0x273
 1632 023e 11       		.uleb128 0x11
 1633 023f 52495200 		.ascii	"RIR\000"
 1634 0243 06       		.byte	0x6
 1635 0244 7901     		.2byte	0x179
 1636 0246 DE000000 		.4byte	0xde
 1637 024a 00       		.byte	0
 1638 024b 12       		.uleb128 0x12
 1639 024c 31020000 		.4byte	.LASF35
 1640 0250 06       		.byte	0x6
 1641 0251 7A01     		.2byte	0x17a
 1642 0253 DE000000 		.4byte	0xde
 1643 0257 04       		.byte	0x4
 1644 0258 12       		.uleb128 0x12
 1645 0259 C8010000 		.4byte	.LASF36
 1646 025d 06       		.byte	0x6
 1647 025e 7B01     		.2byte	0x17b
 1648 0260 DE000000 		.4byte	0xde
 1649 0264 08       		.byte	0x8
 1650 0265 12       		.uleb128 0x12
 1651 0266 B5040000 		.4byte	.LASF37
 1652 026a 06       		.byte	0x6
 1653 026b 7C01     		.2byte	0x17c
 1654 026d DE000000 		.4byte	0xde
 1655 0271 0C       		.byte	0xc
 1656 0272 00       		.byte	0
 1657 0273 13       		.uleb128 0x13
 1658 0274 92050000 		.4byte	.LASF38
 1659 0278 06       		.byte	0x6
 1660 0279 7D01     		.2byte	0x17d
 1661 027b 35020000 		.4byte	0x235
 1662 027f 10       		.uleb128 0x10
 1663 0280 08       		.byte	0x8
 1664 0281 06       		.byte	0x6
 1665 0282 8201     		.2byte	0x182
 1666 0284 A3020000 		.4byte	0x2a3
 1667 0288 11       		.uleb128 0x11
 1668 0289 46523100 		.ascii	"FR1\000"
 1669 028d 06       		.byte	0x6
 1670 028e 8401     		.2byte	0x184
 1671 0290 DE000000 		.4byte	0xde
 1672 0294 00       		.byte	0
 1673 0295 11       		.uleb128 0x11
 1674 0296 46523200 		.ascii	"FR2\000"
 1675 029a 06       		.byte	0x6
 1676 029b 8501     		.2byte	0x185
 1677 029d DE000000 		.4byte	0xde
 1678 02a1 04       		.byte	0x4
 1679 02a2 00       		.byte	0
 1680 02a3 13       		.uleb128 0x13
 1681 02a4 57020000 		.4byte	.LASF39
ARM GAS  /tmp/cchWoqJA.s 			page 31


 1682 02a8 06       		.byte	0x6
 1683 02a9 8601     		.2byte	0x186
 1684 02ab 7F020000 		.4byte	0x27f
 1685 02af 14       		.uleb128 0x14
 1686 02b0 2003     		.2byte	0x320
 1687 02b2 06       		.byte	0x6
 1688 02b3 8B01     		.2byte	0x18b
 1689 02b5 E5030000 		.4byte	0x3e5
 1690 02b9 11       		.uleb128 0x11
 1691 02ba 4D435200 		.ascii	"MCR\000"
 1692 02be 06       		.byte	0x6
 1693 02bf 8D01     		.2byte	0x18d
 1694 02c1 DE000000 		.4byte	0xde
 1695 02c5 00       		.byte	0
 1696 02c6 11       		.uleb128 0x11
 1697 02c7 4D535200 		.ascii	"MSR\000"
 1698 02cb 06       		.byte	0x6
 1699 02cc 8E01     		.2byte	0x18e
 1700 02ce DE000000 		.4byte	0xde
 1701 02d2 04       		.byte	0x4
 1702 02d3 11       		.uleb128 0x11
 1703 02d4 54535200 		.ascii	"TSR\000"
 1704 02d8 06       		.byte	0x6
 1705 02d9 8F01     		.2byte	0x18f
 1706 02db DE000000 		.4byte	0xde
 1707 02df 08       		.byte	0x8
 1708 02e0 12       		.uleb128 0x12
 1709 02e1 85010000 		.4byte	.LASF40
 1710 02e5 06       		.byte	0x6
 1711 02e6 9001     		.2byte	0x190
 1712 02e8 DE000000 		.4byte	0xde
 1713 02ec 0C       		.byte	0xc
 1714 02ed 12       		.uleb128 0x12
 1715 02ee 52020000 		.4byte	.LASF41
 1716 02f2 06       		.byte	0x6
 1717 02f3 9101     		.2byte	0x191
 1718 02f5 DE000000 		.4byte	0xde
 1719 02f9 10       		.byte	0x10
 1720 02fa 11       		.uleb128 0x11
 1721 02fb 49455200 		.ascii	"IER\000"
 1722 02ff 06       		.byte	0x6
 1723 0300 9201     		.2byte	0x192
 1724 0302 DE000000 		.4byte	0xde
 1725 0306 14       		.byte	0x14
 1726 0307 11       		.uleb128 0x11
 1727 0308 45535200 		.ascii	"ESR\000"
 1728 030c 06       		.byte	0x6
 1729 030d 9301     		.2byte	0x193
 1730 030f DE000000 		.4byte	0xde
 1731 0313 18       		.byte	0x18
 1732 0314 11       		.uleb128 0x11
 1733 0315 42545200 		.ascii	"BTR\000"
 1734 0319 06       		.byte	0x6
 1735 031a 9401     		.2byte	0x194
 1736 031c DE000000 		.4byte	0xde
 1737 0320 1C       		.byte	0x1c
 1738 0321 12       		.uleb128 0x12
ARM GAS  /tmp/cchWoqJA.s 			page 32


 1739 0322 78030000 		.4byte	.LASF42
 1740 0326 06       		.byte	0x6
 1741 0327 9501     		.2byte	0x195
 1742 0329 E5030000 		.4byte	0x3e5
 1743 032d 20       		.byte	0x20
 1744 032e 15       		.uleb128 0x15
 1745 032f 05000000 		.4byte	.LASF43
 1746 0333 06       		.byte	0x6
 1747 0334 9601     		.2byte	0x196
 1748 0336 F5030000 		.4byte	0x3f5
 1749 033a 8001     		.2byte	0x180
 1750 033c 15       		.uleb128 0x15
 1751 033d ED040000 		.4byte	.LASF44
 1752 0341 06       		.byte	0x6
 1753 0342 9701     		.2byte	0x197
 1754 0344 05040000 		.4byte	0x405
 1755 0348 B001     		.2byte	0x1b0
 1756 034a 15       		.uleb128 0x15
 1757 034b 82030000 		.4byte	.LASF45
 1758 034f 06       		.byte	0x6
 1759 0350 9801     		.2byte	0x198
 1760 0352 15040000 		.4byte	0x415
 1761 0356 D001     		.2byte	0x1d0
 1762 0358 16       		.uleb128 0x16
 1763 0359 464D5200 		.ascii	"FMR\000"
 1764 035d 06       		.byte	0x6
 1765 035e 9901     		.2byte	0x199
 1766 0360 DE000000 		.4byte	0xde
 1767 0364 0002     		.2byte	0x200
 1768 0366 15       		.uleb128 0x15
 1769 0367 96020000 		.4byte	.LASF46
 1770 036b 06       		.byte	0x6
 1771 036c 9A01     		.2byte	0x19a
 1772 036e DE000000 		.4byte	0xde
 1773 0372 0402     		.2byte	0x204
 1774 0374 15       		.uleb128 0x15
 1775 0375 8C030000 		.4byte	.LASF47
 1776 0379 06       		.byte	0x6
 1777 037a 9B01     		.2byte	0x19b
 1778 037c B4000000 		.4byte	0xb4
 1779 0380 0802     		.2byte	0x208
 1780 0382 15       		.uleb128 0x15
 1781 0383 36020000 		.4byte	.LASF48
 1782 0387 06       		.byte	0x6
 1783 0388 9C01     		.2byte	0x19c
 1784 038a DE000000 		.4byte	0xde
 1785 038e 0C02     		.2byte	0x20c
 1786 0390 15       		.uleb128 0x15
 1787 0391 96030000 		.4byte	.LASF49
 1788 0395 06       		.byte	0x6
 1789 0396 9D01     		.2byte	0x19d
 1790 0398 B4000000 		.4byte	0xb4
 1791 039c 1002     		.2byte	0x210
 1792 039e 15       		.uleb128 0x15
 1793 039f 5A030000 		.4byte	.LASF50
 1794 03a3 06       		.byte	0x6
 1795 03a4 9E01     		.2byte	0x19e
ARM GAS  /tmp/cchWoqJA.s 			page 33


 1796 03a6 DE000000 		.4byte	0xde
 1797 03aa 1402     		.2byte	0x214
 1798 03ac 15       		.uleb128 0x15
 1799 03ad 30050000 		.4byte	.LASF51
 1800 03b1 06       		.byte	0x6
 1801 03b2 9F01     		.2byte	0x19f
 1802 03b4 B4000000 		.4byte	0xb4
 1803 03b8 1802     		.2byte	0x218
 1804 03ba 15       		.uleb128 0x15
 1805 03bb B2030000 		.4byte	.LASF52
 1806 03bf 06       		.byte	0x6
 1807 03c0 A001     		.2byte	0x1a0
 1808 03c2 DE000000 		.4byte	0xde
 1809 03c6 1C02     		.2byte	0x21c
 1810 03c8 15       		.uleb128 0x15
 1811 03c9 49040000 		.4byte	.LASF53
 1812 03cd 06       		.byte	0x6
 1813 03ce A101     		.2byte	0x1a1
 1814 03d0 C1010000 		.4byte	0x1c1
 1815 03d4 2002     		.2byte	0x220
 1816 03d6 15       		.uleb128 0x15
 1817 03d7 86020000 		.4byte	.LASF54
 1818 03db 06       		.byte	0x6
 1819 03dc A201     		.2byte	0x1a2
 1820 03de 25040000 		.4byte	0x425
 1821 03e2 4002     		.2byte	0x240
 1822 03e4 00       		.byte	0
 1823 03e5 0E       		.uleb128 0xe
 1824 03e6 B4000000 		.4byte	0xb4
 1825 03ea F5030000 		.4byte	0x3f5
 1826 03ee 0F       		.uleb128 0xf
 1827 03ef E3000000 		.4byte	0xe3
 1828 03f3 57       		.byte	0x57
 1829 03f4 00       		.byte	0
 1830 03f5 0E       		.uleb128 0xe
 1831 03f6 29020000 		.4byte	0x229
 1832 03fa 05040000 		.4byte	0x405
 1833 03fe 0F       		.uleb128 0xf
 1834 03ff E3000000 		.4byte	0xe3
 1835 0403 02       		.byte	0x2
 1836 0404 00       		.byte	0
 1837 0405 0E       		.uleb128 0xe
 1838 0406 73020000 		.4byte	0x273
 1839 040a 15040000 		.4byte	0x415
 1840 040e 0F       		.uleb128 0xf
 1841 040f E3000000 		.4byte	0xe3
 1842 0413 01       		.byte	0x1
 1843 0414 00       		.byte	0
 1844 0415 0E       		.uleb128 0xe
 1845 0416 B4000000 		.4byte	0xb4
 1846 041a 25040000 		.4byte	0x425
 1847 041e 0F       		.uleb128 0xf
 1848 041f E3000000 		.4byte	0xe3
 1849 0423 0B       		.byte	0xb
 1850 0424 00       		.byte	0
 1851 0425 0E       		.uleb128 0xe
 1852 0426 A3020000 		.4byte	0x2a3
ARM GAS  /tmp/cchWoqJA.s 			page 34


 1853 042a 35040000 		.4byte	0x435
 1854 042e 0F       		.uleb128 0xf
 1855 042f E3000000 		.4byte	0xe3
 1856 0433 1B       		.byte	0x1b
 1857 0434 00       		.byte	0
 1858 0435 13       		.uleb128 0x13
 1859 0436 6C000000 		.4byte	.LASF55
 1860 043a 06       		.byte	0x6
 1861 043b A301     		.2byte	0x1a3
 1862 043d AF020000 		.4byte	0x2af
 1863 0441 10       		.uleb128 0x10
 1864 0442 60       		.byte	0x60
 1865 0443 06       		.byte	0x6
 1866 0444 E002     		.2byte	0x2e0
 1867 0446 C2050000 		.4byte	0x5c2
 1868 044a 11       		.uleb128 0x11
 1869 044b 43523100 		.ascii	"CR1\000"
 1870 044f 06       		.byte	0x6
 1871 0450 E202     		.2byte	0x2e2
 1872 0452 E1010000 		.4byte	0x1e1
 1873 0456 00       		.byte	0
 1874 0457 12       		.uleb128 0x12
 1875 0458 78030000 		.4byte	.LASF42
 1876 045c 06       		.byte	0x6
 1877 045d E302     		.2byte	0x2e3
 1878 045f 9E000000 		.4byte	0x9e
 1879 0463 02       		.byte	0x2
 1880 0464 11       		.uleb128 0x11
 1881 0465 43523200 		.ascii	"CR2\000"
 1882 0469 06       		.byte	0x6
 1883 046a E402     		.2byte	0x2e4
 1884 046c DE000000 		.4byte	0xde
 1885 0470 04       		.byte	0x4
 1886 0471 12       		.uleb128 0x12
 1887 0472 4D020000 		.4byte	.LASF56
 1888 0476 06       		.byte	0x6
 1889 0477 E502     		.2byte	0x2e5
 1890 0479 DE000000 		.4byte	0xde
 1891 047d 08       		.byte	0x8
 1892 047e 12       		.uleb128 0x12
 1893 047f 00000000 		.4byte	.LASF57
 1894 0483 06       		.byte	0x6
 1895 0484 E602     		.2byte	0x2e6
 1896 0486 DE000000 		.4byte	0xde
 1897 048a 0C       		.byte	0xc
 1898 048b 11       		.uleb128 0x11
 1899 048c 535200   		.ascii	"SR\000"
 1900 048f 06       		.byte	0x6
 1901 0490 E702     		.2byte	0x2e7
 1902 0492 DE000000 		.4byte	0xde
 1903 0496 10       		.byte	0x10
 1904 0497 11       		.uleb128 0x11
 1905 0498 45475200 		.ascii	"EGR\000"
 1906 049c 06       		.byte	0x6
 1907 049d E802     		.2byte	0x2e8
 1908 049f DE000000 		.4byte	0xde
 1909 04a3 14       		.byte	0x14
ARM GAS  /tmp/cchWoqJA.s 			page 35


 1910 04a4 12       		.uleb128 0x12
 1911 04a5 BF000000 		.4byte	.LASF58
 1912 04a9 06       		.byte	0x6
 1913 04aa E902     		.2byte	0x2e9
 1914 04ac DE000000 		.4byte	0xde
 1915 04b0 18       		.byte	0x18
 1916 04b1 12       		.uleb128 0x12
 1917 04b2 C5000000 		.4byte	.LASF59
 1918 04b6 06       		.byte	0x6
 1919 04b7 EA02     		.2byte	0x2ea
 1920 04b9 DE000000 		.4byte	0xde
 1921 04bd 1C       		.byte	0x1c
 1922 04be 12       		.uleb128 0x12
 1923 04bf 5F010000 		.4byte	.LASF60
 1924 04c3 06       		.byte	0x6
 1925 04c4 EB02     		.2byte	0x2eb
 1926 04c6 DE000000 		.4byte	0xde
 1927 04ca 20       		.byte	0x20
 1928 04cb 11       		.uleb128 0x11
 1929 04cc 434E5400 		.ascii	"CNT\000"
 1930 04d0 06       		.byte	0x6
 1931 04d1 EC02     		.2byte	0x2ec
 1932 04d3 DE000000 		.4byte	0xde
 1933 04d7 24       		.byte	0x24
 1934 04d8 11       		.uleb128 0x11
 1935 04d9 50534300 		.ascii	"PSC\000"
 1936 04dd 06       		.byte	0x6
 1937 04de ED02     		.2byte	0x2ed
 1938 04e0 E1010000 		.4byte	0x1e1
 1939 04e4 28       		.byte	0x28
 1940 04e5 12       		.uleb128 0x12
 1941 04e6 B7030000 		.4byte	.LASF61
 1942 04ea 06       		.byte	0x6
 1943 04eb EE02     		.2byte	0x2ee
 1944 04ed 9E000000 		.4byte	0x9e
 1945 04f1 2A       		.byte	0x2a
 1946 04f2 11       		.uleb128 0x11
 1947 04f3 41525200 		.ascii	"ARR\000"
 1948 04f7 06       		.byte	0x6
 1949 04f8 EF02     		.2byte	0x2ef
 1950 04fa DE000000 		.4byte	0xde
 1951 04fe 2C       		.byte	0x2c
 1952 04ff 11       		.uleb128 0x11
 1953 0500 52435200 		.ascii	"RCR\000"
 1954 0504 06       		.byte	0x6
 1955 0505 F002     		.2byte	0x2f0
 1956 0507 E1010000 		.4byte	0x1e1
 1957 050b 30       		.byte	0x30
 1958 050c 12       		.uleb128 0x12
 1959 050d 06010000 		.4byte	.LASF62
 1960 0511 06       		.byte	0x6
 1961 0512 F102     		.2byte	0x2f1
 1962 0514 9E000000 		.4byte	0x9e
 1963 0518 32       		.byte	0x32
 1964 0519 12       		.uleb128 0x12
 1965 051a 8B000000 		.4byte	.LASF63
 1966 051e 06       		.byte	0x6
ARM GAS  /tmp/cchWoqJA.s 			page 36


 1967 051f F202     		.2byte	0x2f2
 1968 0521 DE000000 		.4byte	0xde
 1969 0525 34       		.byte	0x34
 1970 0526 12       		.uleb128 0x12
 1971 0527 72050000 		.4byte	.LASF64
 1972 052b 06       		.byte	0x6
 1973 052c F302     		.2byte	0x2f3
 1974 052e DE000000 		.4byte	0xde
 1975 0532 38       		.byte	0x38
 1976 0533 12       		.uleb128 0x12
 1977 0534 77050000 		.4byte	.LASF65
 1978 0538 06       		.byte	0x6
 1979 0539 F402     		.2byte	0x2f4
 1980 053b DE000000 		.4byte	0xde
 1981 053f 3C       		.byte	0x3c
 1982 0540 12       		.uleb128 0x12
 1983 0541 7C050000 		.4byte	.LASF66
 1984 0545 06       		.byte	0x6
 1985 0546 F502     		.2byte	0x2f5
 1986 0548 DE000000 		.4byte	0xde
 1987 054c 40       		.byte	0x40
 1988 054d 12       		.uleb128 0x12
 1989 054e C3010000 		.4byte	.LASF67
 1990 0552 06       		.byte	0x6
 1991 0553 F602     		.2byte	0x2f6
 1992 0555 DE000000 		.4byte	0xde
 1993 0559 44       		.byte	0x44
 1994 055a 11       		.uleb128 0x11
 1995 055b 44435200 		.ascii	"DCR\000"
 1996 055f 06       		.byte	0x6
 1997 0560 F702     		.2byte	0x2f7
 1998 0562 E1010000 		.4byte	0x1e1
 1999 0566 48       		.byte	0x48
 2000 0567 12       		.uleb128 0x12
 2001 0568 11010000 		.4byte	.LASF68
 2002 056c 06       		.byte	0x6
 2003 056d F802     		.2byte	0x2f8
 2004 056f 9E000000 		.4byte	0x9e
 2005 0573 4A       		.byte	0x4a
 2006 0574 12       		.uleb128 0x12
 2007 0575 B0040000 		.4byte	.LASF69
 2008 0579 06       		.byte	0x6
 2009 057a F902     		.2byte	0x2f9
 2010 057c E1010000 		.4byte	0x1e1
 2011 0580 4C       		.byte	0x4c
 2012 0581 12       		.uleb128 0x12
 2013 0582 1C010000 		.4byte	.LASF70
 2014 0586 06       		.byte	0x6
 2015 0587 FA02     		.2byte	0x2fa
 2016 0589 9E000000 		.4byte	0x9e
 2017 058d 4E       		.byte	0x4e
 2018 058e 11       		.uleb128 0x11
 2019 058f 4F5200   		.ascii	"OR\000"
 2020 0592 06       		.byte	0x6
 2021 0593 FB02     		.2byte	0x2fb
 2022 0595 E1010000 		.4byte	0x1e1
 2023 0599 50       		.byte	0x50
ARM GAS  /tmp/cchWoqJA.s 			page 37


 2024 059a 12       		.uleb128 0x12
 2025 059b CB000000 		.4byte	.LASF71
 2026 059f 06       		.byte	0x6
 2027 05a0 FC02     		.2byte	0x2fc
 2028 05a2 DE000000 		.4byte	0xde
 2029 05a6 54       		.byte	0x54
 2030 05a7 12       		.uleb128 0x12
 2031 05a8 81050000 		.4byte	.LASF72
 2032 05ac 06       		.byte	0x6
 2033 05ad FD02     		.2byte	0x2fd
 2034 05af DE000000 		.4byte	0xde
 2035 05b3 58       		.byte	0x58
 2036 05b4 12       		.uleb128 0x12
 2037 05b5 86050000 		.4byte	.LASF73
 2038 05b9 06       		.byte	0x6
 2039 05ba FE02     		.2byte	0x2fe
 2040 05bc DE000000 		.4byte	0xde
 2041 05c0 5C       		.byte	0x5c
 2042 05c1 00       		.byte	0
 2043 05c2 13       		.uleb128 0x13
 2044 05c3 78000000 		.4byte	.LASF74
 2045 05c7 06       		.byte	0x6
 2046 05c8 FF02     		.2byte	0x2ff
 2047 05ca 41040000 		.4byte	0x441
 2048 05ce 0E       		.uleb128 0xe
 2049 05cf 93000000 		.4byte	0x93
 2050 05d3 DE050000 		.4byte	0x5de
 2051 05d7 0F       		.uleb128 0xf
 2052 05d8 E3000000 		.4byte	0xe3
 2053 05dc 07       		.byte	0x7
 2054 05dd 00       		.byte	0
 2055 05de 04       		.uleb128 0x4
 2056 05df 76040000 		.4byte	.LASF75
 2057 05e3 07       		.byte	0x7
 2058 05e4 5E       		.byte	0x5e
 2059 05e5 E9050000 		.4byte	0x5e9
 2060 05e9 0A       		.uleb128 0xa
 2061 05ea 76040000 		.4byte	.LASF75
 2062 05ee 1E       		.byte	0x1e
 2063 05ef 07       		.byte	0x7
 2064 05f0 B9       		.byte	0xb9
 2065 05f1 6A060000 		.4byte	0x66a
 2066 05f5 0B       		.uleb128 0xb
 2067 05f6 BA000000 		.4byte	.LASF76
 2068 05fa 07       		.byte	0x7
 2069 05fb BA       		.byte	0xba
 2070 05fc 86060000 		.4byte	0x686
 2071 0600 00       		.byte	0
 2072 0601 0B       		.uleb128 0xb
 2073 0602 8B050000 		.4byte	.LASF77
 2074 0606 07       		.byte	0x7
 2075 0607 BB       		.byte	0xbb
 2076 0608 FD060000 		.4byte	0x6fd
 2077 060c 04       		.byte	0x4
 2078 060d 0B       		.uleb128 0xb
 2079 060e 72020000 		.4byte	.LASF78
 2080 0612 07       		.byte	0x7
ARM GAS  /tmp/cchWoqJA.s 			page 38


 2081 0613 BC       		.byte	0xbc
 2082 0614 6A060000 		.4byte	0x66a
 2083 0618 05       		.byte	0x5
 2084 0619 0B       		.uleb128 0xb
 2085 061a 72010000 		.4byte	.LASF79
 2086 061e 07       		.byte	0x7
 2087 061f BD       		.byte	0xbd
 2088 0620 DC000000 		.4byte	0xdc
 2089 0624 09       		.byte	0x9
 2090 0625 17       		.uleb128 0x17
 2091 0626 78080000 		.4byte	0x878
 2092 062a 0D       		.byte	0xd
 2093 062b 18       		.uleb128 0x18
 2094 062c 696400   		.ascii	"id\000"
 2095 062f 07       		.byte	0x7
 2096 0630 C7       		.byte	0xc7
 2097 0631 08070000 		.4byte	0x708
 2098 0635 11       		.byte	0x11
 2099 0636 0B       		.uleb128 0xb
 2100 0637 DF050000 		.4byte	.LASF80
 2101 063b 07       		.byte	0x7
 2102 063c C8       		.byte	0xc8
 2103 063d 9E000000 		.4byte	0x9e
 2104 0641 13       		.byte	0x13
 2105 0642 0B       		.uleb128 0xb
 2106 0643 48020000 		.4byte	.LASF81
 2107 0647 07       		.byte	0x7
 2108 0648 C9       		.byte	0xc9
 2109 0649 B6010000 		.4byte	0x1b6
 2110 064d 15       		.byte	0x15
 2111 064e 18       		.uleb128 0x18
 2112 064f 70747200 		.ascii	"ptr\000"
 2113 0653 07       		.byte	0x7
 2114 0654 CA       		.byte	0xca
 2115 0655 B0010000 		.4byte	0x1b0
 2116 0659 19       		.byte	0x19
 2117 065a 19       		.uleb128 0x19
 2118 065b 26040000 		.4byte	.LASF114
 2119 065f 07       		.byte	0x7
 2120 0660 CB       		.byte	0xcb
 2121 0661 93000000 		.4byte	0x93
 2122 0665 01       		.byte	0x1
 2123 0666 07       		.byte	0x7
 2124 0667 01       		.byte	0x1
 2125 0668 1D       		.byte	0x1d
 2126 0669 00       		.byte	0
 2127 066a 04       		.uleb128 0x4
 2128 066b 46030000 		.4byte	.LASF82
 2129 066f 07       		.byte	0x7
 2130 0670 63       		.byte	0x63
 2131 0671 75060000 		.4byte	0x675
 2132 0675 07       		.uleb128 0x7
 2133 0676 04       		.byte	0x4
 2134 0677 7B060000 		.4byte	0x67b
 2135 067b 08       		.uleb128 0x8
 2136 067c 86060000 		.4byte	0x686
 2137 0680 09       		.uleb128 0x9
ARM GAS  /tmp/cchWoqJA.s 			page 39


 2138 0681 86060000 		.4byte	0x686
 2139 0685 00       		.byte	0
 2140 0686 07       		.uleb128 0x7
 2141 0687 04       		.byte	0x4
 2142 0688 DE050000 		.4byte	0x5de
 2143 068c 1A       		.uleb128 0x1a
 2144 068d 01       		.byte	0x1
 2145 068e 07       		.byte	0x7
 2146 068f 68       		.byte	0x68
 2147 0690 BF060000 		.4byte	0x6bf
 2148 0694 1B       		.uleb128 0x1b
 2149 0695 16030000 		.4byte	.LASF83
 2150 0699 00       		.sleb128 0
 2151 069a 1B       		.uleb128 0x1b
 2152 069b 10000000 		.4byte	.LASF84
 2153 069f 01       		.sleb128 1
 2154 06a0 1B       		.uleb128 0x1b
 2155 06a1 F9020000 		.4byte	.LASF85
 2156 06a5 02       		.sleb128 2
 2157 06a6 1B       		.uleb128 0x1b
 2158 06a7 BF050000 		.4byte	.LASF86
 2159 06ab 03       		.sleb128 3
 2160 06ac 1B       		.uleb128 0x1b
 2161 06ad 51010000 		.4byte	.LASF87
 2162 06b1 04       		.sleb128 4
 2163 06b2 1B       		.uleb128 0x1b
 2164 06b3 FC010000 		.4byte	.LASF88
 2165 06b7 05       		.sleb128 5
 2166 06b8 1B       		.uleb128 0x1b
 2167 06b9 E4050000 		.4byte	.LASF89
 2168 06bd 06       		.sleb128 6
 2169 06be 00       		.byte	0
 2170 06bf 04       		.uleb128 0x4
 2171 06c0 60030000 		.4byte	.LASF90
 2172 06c4 07       		.byte	0x7
 2173 06c5 70       		.byte	0x70
 2174 06c6 8C060000 		.4byte	0x68c
 2175 06ca 1A       		.uleb128 0x1a
 2176 06cb 01       		.byte	0x1
 2177 06cc 07       		.byte	0x7
 2178 06cd 75       		.byte	0x75
 2179 06ce FD060000 		.4byte	0x6fd
 2180 06d2 1B       		.uleb128 0x1b
 2181 06d3 CD010000 		.4byte	.LASF91
 2182 06d7 00       		.sleb128 0
 2183 06d8 1B       		.uleb128 0x1b
 2184 06d9 0E050000 		.4byte	.LASF92
 2185 06dd 01       		.sleb128 1
 2186 06de 1B       		.uleb128 0x1b
 2187 06df 2F040000 		.4byte	.LASF93
 2188 06e3 02       		.sleb128 2
 2189 06e4 1B       		.uleb128 0x1b
 2190 06e5 15040000 		.4byte	.LASF94
 2191 06e9 03       		.sleb128 3
 2192 06ea 1B       		.uleb128 0x1b
 2193 06eb D1020000 		.4byte	.LASF95
 2194 06ef 04       		.sleb128 4
ARM GAS  /tmp/cchWoqJA.s 			page 40


 2195 06f0 1B       		.uleb128 0x1b
 2196 06f1 A0030000 		.4byte	.LASF96
 2197 06f5 05       		.sleb128 5
 2198 06f6 1B       		.uleb128 0x1b
 2199 06f7 AF020000 		.4byte	.LASF97
 2200 06fb 06       		.sleb128 6
 2201 06fc 00       		.byte	0
 2202 06fd 04       		.uleb128 0x4
 2203 06fe BF020000 		.4byte	.LASF98
 2204 0702 07       		.byte	0x7
 2205 0703 7D       		.byte	0x7d
 2206 0704 CA060000 		.4byte	0x6ca
 2207 0708 04       		.uleb128 0x4
 2208 0709 7B020000 		.4byte	.LASF99
 2209 070d 07       		.byte	0x7
 2210 070e 83       		.byte	0x83
 2211 070f 9E000000 		.4byte	0x9e
 2212 0713 04       		.uleb128 0x4
 2213 0714 AA050000 		.4byte	.LASF100
 2214 0718 07       		.byte	0x7
 2215 0719 88       		.byte	0x88
 2216 071a 93000000 		.4byte	0x93
 2217 071e 04       		.uleb128 0x4
 2218 071f 1A020000 		.4byte	.LASF101
 2219 0723 07       		.byte	0x7
 2220 0724 8D       		.byte	0x8d
 2221 0725 93000000 		.4byte	0x93
 2222 0729 0C       		.uleb128 0xc
 2223 072a 04       		.byte	0x4
 2224 072b 08       		.byte	0x8
 2225 072c 1E       		.byte	0x1e
 2226 072d 3E070000 		.4byte	0x73e
 2227 0731 0B       		.uleb128 0xb
 2228 0732 BA000000 		.4byte	.LASF76
 2229 0736 08       		.byte	0x8
 2230 0737 20       		.byte	0x20
 2231 0738 86060000 		.4byte	0x686
 2232 073c 00       		.byte	0
 2233 073d 00       		.byte	0
 2234 073e 04       		.uleb128 0x4
 2235 073f 50070000 		.4byte	.LASF102
 2236 0743 08       		.byte	0x8
 2237 0744 21       		.byte	0x21
 2238 0745 29070000 		.4byte	0x729
 2239 0749 0A       		.uleb128 0xa
 2240 074a A7000000 		.4byte	.LASF103
 2241 074e 60       		.byte	0x60
 2242 074f 07       		.byte	0x7
 2243 0750 E3       		.byte	0xe3
 2244 0751 C5070000 		.4byte	0x7c5
 2245 0755 0B       		.uleb128 0xb
 2246 0756 27010000 		.4byte	.LASF104
 2247 075a 07       		.byte	0x7
 2248 075b E7       		.byte	0xe7
 2249 075c BF060000 		.4byte	0x6bf
 2250 0760 00       		.byte	0
 2251 0761 0B       		.uleb128 0xb
ARM GAS  /tmp/cchWoqJA.s 			page 41


 2252 0762 80010000 		.4byte	.LASF105
 2253 0766 07       		.byte	0x7
 2254 0767 EB       		.byte	0xeb
 2255 0768 B4000000 		.4byte	0xb4
 2256 076c 04       		.byte	0x4
 2257 076d 0B       		.uleb128 0xb
 2258 076e 65050000 		.4byte	.LASF106
 2259 0772 07       		.byte	0x7
 2260 0773 EF       		.byte	0xef
 2261 0774 B4000000 		.4byte	0xb4
 2262 0778 08       		.byte	0x8
 2263 0779 0B       		.uleb128 0xb
 2264 077a 82040000 		.4byte	.LASF107
 2265 077e 07       		.byte	0x7
 2266 077f F3       		.byte	0xf3
 2267 0780 3E070000 		.4byte	0x73e
 2268 0784 0C       		.byte	0xc
 2269 0785 0B       		.uleb128 0xb
 2270 0786 10030000 		.4byte	.LASF108
 2271 078a 07       		.byte	0x7
 2272 078b F7       		.byte	0xf7
 2273 078c C3080000 		.4byte	0x8c3
 2274 0790 10       		.byte	0x10
 2275 0791 0B       		.uleb128 0xb
 2276 0792 48070000 		.4byte	.LASF109
 2277 0796 07       		.byte	0x7
 2278 0797 FB       		.byte	0xfb
 2279 0798 D3080000 		.4byte	0x8d3
 2280 079c 1C       		.byte	0x1c
 2281 079d 12       		.uleb128 0x12
 2282 079e 9E040000 		.4byte	.LASF110
 2283 07a2 07       		.byte	0x7
 2284 07a3 0901     		.2byte	0x109
 2285 07a5 E3080000 		.4byte	0x8e3
 2286 07a9 54       		.byte	0x54
 2287 07aa 11       		.uleb128 0x11
 2288 07ab 74696D00 		.ascii	"tim\000"
 2289 07af 07       		.byte	0x7
 2290 07b0 0E01     		.2byte	0x10e
 2291 07b2 EE080000 		.4byte	0x8ee
 2292 07b6 58       		.byte	0x58
 2293 07b7 11       		.uleb128 0x11
 2294 07b8 63616E00 		.ascii	"can\000"
 2295 07bc 07       		.byte	0x7
 2296 07bd 1301     		.2byte	0x113
 2297 07bf F4080000 		.4byte	0x8f4
 2298 07c3 5C       		.byte	0x5c
 2299 07c4 00       		.byte	0
 2300 07c5 0E       		.uleb128 0xe
 2301 07c6 9E000000 		.4byte	0x9e
 2302 07ca D5070000 		.4byte	0x7d5
 2303 07ce 0F       		.uleb128 0xf
 2304 07cf E3000000 		.4byte	0xe3
 2305 07d3 03       		.byte	0x3
 2306 07d4 00       		.byte	0
 2307 07d5 1C       		.uleb128 0x1c
 2308 07d6 08       		.byte	0x8
ARM GAS  /tmp/cchWoqJA.s 			page 42


 2309 07d7 07       		.byte	0x7
 2310 07d8 AF       		.byte	0xaf
 2311 07d9 FF070000 		.4byte	0x7ff
 2312 07dd 1D       		.uleb128 0x1d
 2313 07de 23030000 		.4byte	.LASF111
 2314 07e2 07       		.byte	0x7
 2315 07e3 B0       		.byte	0xb0
 2316 07e4 CE050000 		.4byte	0x5ce
 2317 07e8 1D       		.uleb128 0x1d
 2318 07e9 6B050000 		.4byte	.LASF112
 2319 07ed 07       		.byte	0x7
 2320 07ee B1       		.byte	0xb1
 2321 07ef C5070000 		.4byte	0x7c5
 2322 07f3 1D       		.uleb128 0x1d
 2323 07f4 B3000000 		.4byte	.LASF113
 2324 07f8 07       		.byte	0x7
 2325 07f9 B2       		.byte	0xb2
 2326 07fa D1010000 		.4byte	0x1d1
 2327 07fe 00       		.byte	0
 2328 07ff 0C       		.uleb128 0xc
 2329 0800 10       		.byte	0x10
 2330 0801 07       		.byte	0x7
 2331 0802 AB       		.byte	0xab
 2332 0803 37080000 		.4byte	0x837
 2333 0807 1E       		.uleb128 0x1e
 2334 0808 696400   		.ascii	"id\000"
 2335 080b 07       		.byte	0x7
 2336 080c AC       		.byte	0xac
 2337 080d B4000000 		.4byte	0xb4
 2338 0811 04       		.byte	0x4
 2339 0812 1D       		.byte	0x1d
 2340 0813 03       		.byte	0x3
 2341 0814 00       		.byte	0
 2342 0815 1E       		.uleb128 0x1e
 2343 0816 6C656E00 		.ascii	"len\000"
 2344 081a 07       		.byte	0x7
 2345 081b AD       		.byte	0xad
 2346 081c 93000000 		.4byte	0x93
 2347 0820 01       		.byte	0x1
 2348 0821 04       		.byte	0x4
 2349 0822 04       		.byte	0x4
 2350 0823 04       		.byte	0x4
 2351 0824 0B       		.uleb128 0xb
 2352 0825 48050000 		.4byte	.LASF115
 2353 0829 07       		.byte	0x7
 2354 082a AE       		.byte	0xae
 2355 082b 93000000 		.4byte	0x93
 2356 082f 05       		.byte	0x5
 2357 0830 17       		.uleb128 0x17
 2358 0831 D5070000 		.4byte	0x7d5
 2359 0835 08       		.byte	0x8
 2360 0836 00       		.byte	0
 2361 0837 04       		.uleb128 0x4
 2362 0838 05040000 		.4byte	.LASF116
 2363 083c 07       		.byte	0x7
 2364 083d B4       		.byte	0xb4
 2365 083e FF070000 		.4byte	0x7ff
ARM GAS  /tmp/cchWoqJA.s 			page 43


 2366 0842 0C       		.uleb128 0xc
 2367 0843 04       		.byte	0x4
 2368 0844 07       		.byte	0x7
 2369 0845 BF       		.byte	0xbf
 2370 0846 57080000 		.4byte	0x857
 2371 084a 0B       		.uleb128 0xb
 2372 084b 12060000 		.4byte	.LASF117
 2373 084f 07       		.byte	0x7
 2374 0850 C0       		.byte	0xc0
 2375 0851 B4000000 		.4byte	0xb4
 2376 0855 00       		.byte	0
 2377 0856 00       		.byte	0
 2378 0857 0C       		.uleb128 0xc
 2379 0858 04       		.byte	0x4
 2380 0859 07       		.byte	0x7
 2381 085a C2       		.byte	0xc2
 2382 085b 78080000 		.4byte	0x878
 2383 085f 0B       		.uleb128 0xb
 2384 0860 80010000 		.4byte	.LASF105
 2385 0864 07       		.byte	0x7
 2386 0865 C3       		.byte	0xc3
 2387 0866 9E000000 		.4byte	0x9e
 2388 086a 00       		.byte	0
 2389 086b 0B       		.uleb128 0xb
 2390 086c 84000000 		.4byte	.LASF118
 2391 0870 07       		.byte	0x7
 2392 0871 C4       		.byte	0xc4
 2393 0872 9E000000 		.4byte	0x9e
 2394 0876 02       		.byte	0x2
 2395 0877 00       		.byte	0
 2396 0878 1C       		.uleb128 0x1c
 2397 0879 04       		.byte	0x4
 2398 087a 07       		.byte	0x7
 2399 087b BE       		.byte	0xbe
 2400 087c 8B080000 		.4byte	0x88b
 2401 0880 1F       		.uleb128 0x1f
 2402 0881 42080000 		.4byte	0x842
 2403 0885 1F       		.uleb128 0x1f
 2404 0886 57080000 		.4byte	0x857
 2405 088a 00       		.byte	0
 2406 088b 0C       		.uleb128 0xc
 2407 088c 0C       		.byte	0xc
 2408 088d 07       		.byte	0x7
 2409 088e D1       		.byte	0xd1
 2410 088f B8080000 		.4byte	0x8b8
 2411 0893 0B       		.uleb128 0xb
 2412 0894 FD000000 		.4byte	.LASF119
 2413 0898 07       		.byte	0x7
 2414 0899 D5       		.byte	0xd5
 2415 089a B4000000 		.4byte	0xb4
 2416 089e 00       		.byte	0
 2417 089f 0B       		.uleb128 0xb
 2418 08a0 FD050000 		.4byte	.LASF120
 2419 08a4 07       		.byte	0x7
 2420 08a5 D9       		.byte	0xd9
 2421 08a6 B4000000 		.4byte	0xb4
 2422 08aa 04       		.byte	0x4
ARM GAS  /tmp/cchWoqJA.s 			page 44


 2423 08ab 0B       		.uleb128 0xb
 2424 08ac 40030000 		.4byte	.LASF121
 2425 08b0 07       		.byte	0x7
 2426 08b1 DD       		.byte	0xdd
 2427 08b2 B4000000 		.4byte	0xb4
 2428 08b6 08       		.byte	0x8
 2429 08b7 00       		.byte	0
 2430 08b8 04       		.uleb128 0x4
 2431 08b9 F1050000 		.4byte	.LASF122
 2432 08bd 07       		.byte	0x7
 2433 08be DE       		.byte	0xde
 2434 08bf 8B080000 		.4byte	0x88b
 2435 08c3 0E       		.uleb128 0xe
 2436 08c4 86060000 		.4byte	0x686
 2437 08c8 D3080000 		.4byte	0x8d3
 2438 08cc 0F       		.uleb128 0xf
 2439 08cd E3000000 		.4byte	0xe3
 2440 08d1 02       		.byte	0x2
 2441 08d2 00       		.byte	0
 2442 08d3 0E       		.uleb128 0xe
 2443 08d4 86060000 		.4byte	0x686
 2444 08d8 E3080000 		.4byte	0x8e3
 2445 08dc 0F       		.uleb128 0xf
 2446 08dd E3000000 		.4byte	0xe3
 2447 08e1 0D       		.byte	0xd
 2448 08e2 00       		.byte	0
 2449 08e3 07       		.uleb128 0x7
 2450 08e4 04       		.byte	0x4
 2451 08e5 E9080000 		.4byte	0x8e9
 2452 08e9 0D       		.uleb128 0xd
 2453 08ea B8080000 		.4byte	0x8b8
 2454 08ee 07       		.uleb128 0x7
 2455 08ef 04       		.byte	0x4
 2456 08f0 C2050000 		.4byte	0x5c2
 2457 08f4 07       		.uleb128 0x7
 2458 08f5 04       		.byte	0x4
 2459 08f6 35040000 		.4byte	0x435
 2460 08fa 03       		.uleb128 0x3
 2461 08fb 08       		.byte	0x8
 2462 08fc 04       		.byte	0x4
 2463 08fd 79010000 		.4byte	.LASF123
 2464 0901 03       		.uleb128 0x3
 2465 0902 04       		.byte	0x4
 2466 0903 04       		.byte	0x4
 2467 0904 6D030000 		.4byte	.LASF124
 2468 0908 03       		.uleb128 0x3
 2469 0909 08       		.byte	0x8
 2470 090a 04       		.byte	0x4
 2471 090b 95010000 		.4byte	.LASF125
 2472 090f 20       		.uleb128 0x20
 2473 0910 3F040000 		.4byte	.LASF152
 2474 0914 01       		.byte	0x1
 2475 0915 1C       		.byte	0x1c
 2476 0916 93000000 		.4byte	0x93
 2477 091a 00000000 		.4byte	.LFB118
 2478 091e 18000000 		.4byte	.LFE118-.LFB118
 2479 0922 01       		.uleb128 0x1
ARM GAS  /tmp/cchWoqJA.s 			page 45


 2480 0923 9C       		.byte	0x9c
 2481 0924 37090000 		.4byte	0x937
 2482 0928 21       		.uleb128 0x21
 2483 0929 75696400 		.ascii	"uid\000"
 2484 092d 01       		.byte	0x1
 2485 092e 1D       		.byte	0x1d
 2486 092f 37090000 		.4byte	0x937
 2487 0933 02       		.uleb128 0x2
 2488 0934 91       		.byte	0x91
 2489 0935 7C       		.sleb128 -4
 2490 0936 00       		.byte	0
 2491 0937 07       		.uleb128 0x7
 2492 0938 04       		.byte	0x4
 2493 0939 3D090000 		.4byte	0x93d
 2494 093d 0D       		.uleb128 0xd
 2495 093e 7E000000 		.4byte	0x7e
 2496 0942 22       		.uleb128 0x22
 2497 0943 03060000 		.4byte	.LASF153
 2498 0947 01       		.byte	0x1
 2499 0948 22       		.byte	0x22
 2500 0949 BF000000 		.4byte	0xbf
 2501 094d 00000000 		.4byte	.LFB119
 2502 0951 06000000 		.4byte	.LFE119-.LFB119
 2503 0955 01       		.uleb128 0x1
 2504 0956 9C       		.byte	0x9c
 2505 0957 23       		.uleb128 0x23
 2506 0958 D1040000 		.4byte	.LASF126
 2507 095c 01       		.byte	0x1
 2508 095d 42       		.byte	0x42
 2509 095e 00000000 		.4byte	.LFB120
 2510 0962 72000000 		.4byte	.LFE120-.LFB120
 2511 0966 01       		.uleb128 0x1
 2512 0967 9C       		.byte	0x9c
 2513 0968 C8090000 		.4byte	0x9c8
 2514 096c 24       		.uleb128 0x24
 2515 096d 1B000000 		.4byte	.LASF128
 2516 0971 01       		.byte	0x1
 2517 0972 42       		.byte	0x42
 2518 0973 C8090000 		.4byte	0x9c8
 2519 0977 02       		.uleb128 0x2
 2520 0978 91       		.byte	0x91
 2521 0979 74       		.sleb128 -12
 2522 097a 25       		.uleb128 0x25
 2523 097b 06000000 		.4byte	.LBB2
 2524 097f 06000000 		.4byte	.LBE2-.LBB2
 2525 0983 95090000 		.4byte	0x995
 2526 0987 21       		.uleb128 0x21
 2527 0988 746D7000 		.ascii	"tmp\000"
 2528 098c 01       		.byte	0x1
 2529 098d 44       		.byte	0x44
 2530 098e B4000000 		.4byte	0xb4
 2531 0992 01       		.uleb128 0x1
 2532 0993 53       		.byte	0x53
 2533 0994 00       		.byte	0
 2534 0995 25       		.uleb128 0x25
 2535 0996 42000000 		.4byte	.LBB3
 2536 099a 06000000 		.4byte	.LBE3-.LBB3
ARM GAS  /tmp/cchWoqJA.s 			page 46


 2537 099e B0090000 		.4byte	0x9b0
 2538 09a2 21       		.uleb128 0x21
 2539 09a3 746D7000 		.ascii	"tmp\000"
 2540 09a7 01       		.byte	0x1
 2541 09a8 5A       		.byte	0x5a
 2542 09a9 B4000000 		.4byte	0xb4
 2543 09ad 01       		.uleb128 0x1
 2544 09ae 53       		.byte	0x53
 2545 09af 00       		.byte	0
 2546 09b0 26       		.uleb128 0x26
 2547 09b1 66000000 		.4byte	.LBB4
 2548 09b5 06000000 		.4byte	.LBE4-.LBB4
 2549 09b9 21       		.uleb128 0x21
 2550 09ba 746D7000 		.ascii	"tmp\000"
 2551 09be 01       		.byte	0x1
 2552 09bf 70       		.byte	0x70
 2553 09c0 B4000000 		.4byte	0xb4
 2554 09c4 01       		.uleb128 0x1
 2555 09c5 53       		.byte	0x53
 2556 09c6 00       		.byte	0
 2557 09c7 00       		.byte	0
 2558 09c8 07       		.uleb128 0x7
 2559 09c9 04       		.byte	0x4
 2560 09ca 49070000 		.4byte	0x749
 2561 09ce 23       		.uleb128 0x23
 2562 09cf 1B060000 		.4byte	.LASF127
 2563 09d3 01       		.byte	0x1
 2564 09d4 78       		.byte	0x78
 2565 09d5 00000000 		.4byte	.LFB121
 2566 09d9 B0000000 		.4byte	.LFE121-.LFB121
 2567 09dd 01       		.uleb128 0x1
 2568 09de 9C       		.byte	0x9c
 2569 09df 400A0000 		.4byte	0xa40
 2570 09e3 24       		.uleb128 0x24
 2571 09e4 1B000000 		.4byte	.LASF128
 2572 09e8 01       		.byte	0x1
 2573 09e9 78       		.byte	0x78
 2574 09ea C8090000 		.4byte	0x9c8
 2575 09ee 02       		.uleb128 0x2
 2576 09ef 91       		.byte	0x91
 2577 09f0 6C       		.sleb128 -20
 2578 09f1 24       		.uleb128 0x24
 2579 09f2 73030000 		.4byte	.LASF129
 2580 09f6 01       		.byte	0x1
 2581 09f7 78       		.byte	0x78
 2582 09f8 13070000 		.4byte	0x713
 2583 09fc 02       		.uleb128 0x2
 2584 09fd 91       		.byte	0x91
 2585 09fe 6B       		.sleb128 -21
 2586 09ff 27       		.uleb128 0x27
 2587 0a00 A5020000 		.4byte	.LASF130
 2588 0a04 01       		.byte	0x1
 2589 0a05 79       		.byte	0x79
 2590 0a06 86060000 		.4byte	0x686
 2591 0a0a 02       		.uleb128 0x2
 2592 0a0b 91       		.byte	0x91
 2593 0a0c 74       		.sleb128 -12
ARM GAS  /tmp/cchWoqJA.s 			page 47


 2594 0a0d 25       		.uleb128 0x25
 2595 0a0e 0C000000 		.4byte	.LBB5
 2596 0a12 06000000 		.4byte	.LBE5-.LBB5
 2597 0a16 280A0000 		.4byte	0xa28
 2598 0a1a 21       		.uleb128 0x21
 2599 0a1b 746D7000 		.ascii	"tmp\000"
 2600 0a1f 01       		.byte	0x1
 2601 0a20 7B       		.byte	0x7b
 2602 0a21 B4000000 		.4byte	0xb4
 2603 0a25 01       		.uleb128 0x1
 2604 0a26 53       		.byte	0x53
 2605 0a27 00       		.byte	0
 2606 0a28 26       		.uleb128 0x26
 2607 0a29 A4000000 		.4byte	.LBB6
 2608 0a2d 06000000 		.4byte	.LBE6-.LBB6
 2609 0a31 21       		.uleb128 0x21
 2610 0a32 746D7000 		.ascii	"tmp\000"
 2611 0a36 01       		.byte	0x1
 2612 0a37 91       		.byte	0x91
 2613 0a38 B4000000 		.4byte	0xb4
 2614 0a3c 01       		.uleb128 0x1
 2615 0a3d 53       		.byte	0x53
 2616 0a3e 00       		.byte	0
 2617 0a3f 00       		.byte	0
 2618 0a40 23       		.uleb128 0x23
 2619 0a41 FA040000 		.4byte	.LASF131
 2620 0a45 01       		.byte	0x1
 2621 0a46 99       		.byte	0x99
 2622 0a47 00000000 		.4byte	.LFB122
 2623 0a4b 62000000 		.4byte	.LFE122-.LFB122
 2624 0a4f 01       		.uleb128 0x1
 2625 0a50 9C       		.byte	0x9c
 2626 0a51 B20A0000 		.4byte	0xab2
 2627 0a55 24       		.uleb128 0x24
 2628 0a56 1B000000 		.4byte	.LASF128
 2629 0a5a 01       		.byte	0x1
 2630 0a5b 99       		.byte	0x99
 2631 0a5c C8090000 		.4byte	0x9c8
 2632 0a60 02       		.uleb128 0x2
 2633 0a61 91       		.byte	0x91
 2634 0a62 6C       		.sleb128 -20
 2635 0a63 24       		.uleb128 0x24
 2636 0a64 73030000 		.4byte	.LASF129
 2637 0a68 01       		.byte	0x1
 2638 0a69 99       		.byte	0x99
 2639 0a6a 13070000 		.4byte	0x713
 2640 0a6e 02       		.uleb128 0x2
 2641 0a6f 91       		.byte	0x91
 2642 0a70 6B       		.sleb128 -21
 2643 0a71 27       		.uleb128 0x27
 2644 0a72 A5020000 		.4byte	.LASF130
 2645 0a76 01       		.byte	0x1
 2646 0a77 9A       		.byte	0x9a
 2647 0a78 86060000 		.4byte	0x686
 2648 0a7c 02       		.uleb128 0x2
 2649 0a7d 91       		.byte	0x91
 2650 0a7e 74       		.sleb128 -12
ARM GAS  /tmp/cchWoqJA.s 			page 48


 2651 0a7f 25       		.uleb128 0x25
 2652 0a80 0C000000 		.4byte	.LBB7
 2653 0a84 06000000 		.4byte	.LBE7-.LBB7
 2654 0a88 9A0A0000 		.4byte	0xa9a
 2655 0a8c 21       		.uleb128 0x21
 2656 0a8d 746D7000 		.ascii	"tmp\000"
 2657 0a91 01       		.byte	0x1
 2658 0a92 9C       		.byte	0x9c
 2659 0a93 B4000000 		.4byte	0xb4
 2660 0a97 01       		.uleb128 0x1
 2661 0a98 53       		.byte	0x53
 2662 0a99 00       		.byte	0
 2663 0a9a 26       		.uleb128 0x26
 2664 0a9b 56000000 		.4byte	.LBB8
 2665 0a9f 06000000 		.4byte	.LBE8-.LBB8
 2666 0aa3 21       		.uleb128 0x21
 2667 0aa4 746D7000 		.ascii	"tmp\000"
 2668 0aa8 01       		.byte	0x1
 2669 0aa9 B1       		.byte	0xb1
 2670 0aaa B4000000 		.4byte	0xb4
 2671 0aae 01       		.uleb128 0x1
 2672 0aaf 53       		.byte	0x53
 2673 0ab0 00       		.byte	0
 2674 0ab1 00       		.byte	0
 2675 0ab2 23       		.uleb128 0x23
 2676 0ab3 CB050000 		.4byte	.LASF132
 2677 0ab7 01       		.byte	0x1
 2678 0ab8 B9       		.byte	0xb9
 2679 0ab9 00000000 		.4byte	.LFB123
 2680 0abd 6A000000 		.4byte	.LFE123-.LFB123
 2681 0ac1 01       		.uleb128 0x1
 2682 0ac2 9C       		.byte	0x9c
 2683 0ac3 240B0000 		.4byte	0xb24
 2684 0ac7 24       		.uleb128 0x24
 2685 0ac8 1B000000 		.4byte	.LASF128
 2686 0acc 01       		.byte	0x1
 2687 0acd B9       		.byte	0xb9
 2688 0ace C8090000 		.4byte	0x9c8
 2689 0ad2 02       		.uleb128 0x2
 2690 0ad3 91       		.byte	0x91
 2691 0ad4 6C       		.sleb128 -20
 2692 0ad5 24       		.uleb128 0x24
 2693 0ad6 73030000 		.4byte	.LASF129
 2694 0ada 01       		.byte	0x1
 2695 0adb B9       		.byte	0xb9
 2696 0adc 13070000 		.4byte	0x713
 2697 0ae0 02       		.uleb128 0x2
 2698 0ae1 91       		.byte	0x91
 2699 0ae2 6B       		.sleb128 -21
 2700 0ae3 27       		.uleb128 0x27
 2701 0ae4 A5020000 		.4byte	.LASF130
 2702 0ae8 01       		.byte	0x1
 2703 0ae9 BA       		.byte	0xba
 2704 0aea 86060000 		.4byte	0x686
 2705 0aee 02       		.uleb128 0x2
 2706 0aef 91       		.byte	0x91
 2707 0af0 74       		.sleb128 -12
ARM GAS  /tmp/cchWoqJA.s 			page 49


 2708 0af1 25       		.uleb128 0x25
 2709 0af2 0C000000 		.4byte	.LBB9
 2710 0af6 06000000 		.4byte	.LBE9-.LBB9
 2711 0afa 0C0B0000 		.4byte	0xb0c
 2712 0afe 21       		.uleb128 0x21
 2713 0aff 746D7000 		.ascii	"tmp\000"
 2714 0b03 01       		.byte	0x1
 2715 0b04 BC       		.byte	0xbc
 2716 0b05 B4000000 		.4byte	0xb4
 2717 0b09 01       		.uleb128 0x1
 2718 0b0a 53       		.byte	0x53
 2719 0b0b 00       		.byte	0
 2720 0b0c 26       		.uleb128 0x26
 2721 0b0d 5E000000 		.4byte	.LBB10
 2722 0b11 06000000 		.4byte	.LBE10-.LBB10
 2723 0b15 21       		.uleb128 0x21
 2724 0b16 746D7000 		.ascii	"tmp\000"
 2725 0b1a 01       		.byte	0x1
 2726 0b1b D4       		.byte	0xd4
 2727 0b1c B4000000 		.4byte	0xb4
 2728 0b20 01       		.uleb128 0x1
 2729 0b21 53       		.byte	0x53
 2730 0b22 00       		.byte	0
 2731 0b23 00       		.byte	0
 2732 0b24 23       		.uleb128 0x23
 2733 0b25 8C040000 		.4byte	.LASF133
 2734 0b29 01       		.byte	0x1
 2735 0b2a DC       		.byte	0xdc
 2736 0b2b 00000000 		.4byte	.LFB124
 2737 0b2f AE010000 		.4byte	.LFE124-.LFB124
 2738 0b33 01       		.uleb128 0x1
 2739 0b34 9C       		.byte	0x9c
 2740 0b35 2F0C0000 		.4byte	0xc2f
 2741 0b39 24       		.uleb128 0x24
 2742 0b3a 1B000000 		.4byte	.LASF128
 2743 0b3e 01       		.byte	0x1
 2744 0b3f DC       		.byte	0xdc
 2745 0b40 C8090000 		.4byte	0x9c8
 2746 0b44 02       		.uleb128 0x2
 2747 0b45 91       		.byte	0x91
 2748 0b46 54       		.sleb128 -44
 2749 0b47 21       		.uleb128 0x21
 2750 0b48 72786600 		.ascii	"rxf\000"
 2751 0b4c 01       		.byte	0x1
 2752 0b4d DD       		.byte	0xdd
 2753 0b4e 37080000 		.4byte	0x837
 2754 0b52 02       		.uleb128 0x2
 2755 0b53 91       		.byte	0x91
 2756 0b54 5C       		.sleb128 -36
 2757 0b55 27       		.uleb128 0x27
 2758 0b56 A5020000 		.4byte	.LASF130
 2759 0b5a 01       		.byte	0x1
 2760 0b5b DE       		.byte	0xde
 2761 0b5c 86060000 		.4byte	0x686
 2762 0b60 02       		.uleb128 0x2
 2763 0b61 91       		.byte	0x91
 2764 0b62 70       		.sleb128 -16
ARM GAS  /tmp/cchWoqJA.s 			page 50


 2765 0b63 25       		.uleb128 0x25
 2766 0b64 06000000 		.4byte	.LBB11
 2767 0b68 06000000 		.4byte	.LBE11-.LBB11
 2768 0b6c 7E0B0000 		.4byte	0xb7e
 2769 0b70 21       		.uleb128 0x21
 2770 0b71 746D7000 		.ascii	"tmp\000"
 2771 0b75 01       		.byte	0x1
 2772 0b76 E0       		.byte	0xe0
 2773 0b77 B4000000 		.4byte	0xb4
 2774 0b7b 01       		.uleb128 0x1
 2775 0b7c 53       		.byte	0x53
 2776 0b7d 00       		.byte	0
 2777 0b7e 25       		.uleb128 0x25
 2778 0b7f 34000000 		.4byte	.LBB12
 2779 0b83 06000000 		.4byte	.LBE12-.LBB12
 2780 0b87 9A0B0000 		.4byte	0xb9a
 2781 0b8b 28       		.uleb128 0x28
 2782 0b8c 746D7000 		.ascii	"tmp\000"
 2783 0b90 01       		.byte	0x1
 2784 0b91 1401     		.2byte	0x114
 2785 0b93 B4000000 		.4byte	0xb4
 2786 0b97 01       		.uleb128 0x1
 2787 0b98 53       		.byte	0x53
 2788 0b99 00       		.byte	0
 2789 0b9a 25       		.uleb128 0x25
 2790 0b9b AA000000 		.4byte	.LBB13
 2791 0b9f E2000000 		.4byte	.LBE13-.LBB13
 2792 0ba3 160C0000 		.4byte	0xc16
 2793 0ba7 28       		.uleb128 0x28
 2794 0ba8 6900     		.ascii	"i\000"
 2795 0baa 01       		.byte	0x1
 2796 0bab 2801     		.2byte	0x128
 2797 0bad B4000000 		.4byte	0xb4
 2798 0bb1 02       		.uleb128 0x2
 2799 0bb2 91       		.byte	0x91
 2800 0bb3 74       		.sleb128 -12
 2801 0bb4 29       		.uleb128 0x29
 2802 0bb5 E9020000 		.4byte	.LASF134
 2803 0bb9 01       		.byte	0x1
 2804 0bba 2B01     		.2byte	0x12b
 2805 0bbc 93000000 		.4byte	0x93
 2806 0bc0 02       		.uleb128 0x2
 2807 0bc1 91       		.byte	0x91
 2808 0bc2 6F       		.sleb128 -17
 2809 0bc3 29       		.uleb128 0x29
 2810 0bc4 30030000 		.4byte	.LASF135
 2811 0bc8 01       		.byte	0x1
 2812 0bc9 2C01     		.2byte	0x12c
 2813 0bcb 93000000 		.4byte	0x93
 2814 0bcf 02       		.uleb128 0x2
 2815 0bd0 91       		.byte	0x91
 2816 0bd1 6E       		.sleb128 -18
 2817 0bd2 29       		.uleb128 0x29
 2818 0bd3 26040000 		.4byte	.LASF114
 2819 0bd7 01       		.byte	0x1
 2820 0bd8 3401     		.2byte	0x134
 2821 0bda 93000000 		.4byte	0x93
ARM GAS  /tmp/cchWoqJA.s 			page 51


 2822 0bde 02       		.uleb128 0x2
 2823 0bdf 91       		.byte	0x91
 2824 0be0 6D       		.sleb128 -19
 2825 0be1 25       		.uleb128 0x25
 2826 0be2 D2000000 		.4byte	.LBB14
 2827 0be6 06000000 		.4byte	.LBE14-.LBB14
 2828 0bea FD0B0000 		.4byte	0xbfd
 2829 0bee 28       		.uleb128 0x28
 2830 0bef 746D7000 		.ascii	"tmp\000"
 2831 0bf3 01       		.byte	0x1
 2832 0bf4 2F01     		.2byte	0x12f
 2833 0bf6 B4000000 		.4byte	0xb4
 2834 0bfa 01       		.uleb128 0x1
 2835 0bfb 53       		.byte	0x53
 2836 0bfc 00       		.byte	0
 2837 0bfd 26       		.uleb128 0x26
 2838 0bfe 08010000 		.4byte	.LBB15
 2839 0c02 06000000 		.4byte	.LBE15-.LBB15
 2840 0c06 28       		.uleb128 0x28
 2841 0c07 746D7000 		.ascii	"tmp\000"
 2842 0c0b 01       		.byte	0x1
 2843 0c0c 3701     		.2byte	0x137
 2844 0c0e B4000000 		.4byte	0xb4
 2845 0c12 01       		.uleb128 0x1
 2846 0c13 53       		.byte	0x53
 2847 0c14 00       		.byte	0
 2848 0c15 00       		.byte	0
 2849 0c16 26       		.uleb128 0x26
 2850 0c17 A2010000 		.4byte	.LBB16
 2851 0c1b 06000000 		.4byte	.LBE16-.LBB16
 2852 0c1f 28       		.uleb128 0x28
 2853 0c20 746D7000 		.ascii	"tmp\000"
 2854 0c24 01       		.byte	0x1
 2855 0c25 4C01     		.2byte	0x14c
 2856 0c27 B4000000 		.4byte	0xb4
 2857 0c2b 01       		.uleb128 0x1
 2858 0c2c 53       		.byte	0x53
 2859 0c2d 00       		.byte	0
 2860 0c2e 00       		.byte	0
 2861 0c2f 2A       		.uleb128 0x2a
 2862 0c30 AC010000 		.4byte	.LASF145
 2863 0c34 01       		.byte	0x1
 2864 0c35 5401     		.2byte	0x154
 2865 0c37 00000000 		.4byte	.LFB125
 2866 0c3b 08000000 		.4byte	.LFE125-.LFB125
 2867 0c3f 01       		.uleb128 0x1
 2868 0c40 9C       		.byte	0x9c
 2869 0c41 2B       		.uleb128 0x2b
 2870 0c42 A5040000 		.4byte	.LASF136
 2871 0c46 01       		.byte	0x1
 2872 0c47 6301     		.2byte	0x163
 2873 0c49 00000000 		.4byte	.LFB126
 2874 0c4d 60000000 		.4byte	.LFE126-.LFB126
 2875 0c51 01       		.uleb128 0x1
 2876 0c52 9C       		.byte	0x9c
 2877 0c53 740C0000 		.4byte	0xc74
 2878 0c57 2C       		.uleb128 0x2c
ARM GAS  /tmp/cchWoqJA.s 			page 52


 2879 0c58 1B000000 		.4byte	.LASF128
 2880 0c5c 01       		.byte	0x1
 2881 0c5d 6301     		.2byte	0x163
 2882 0c5f C8090000 		.4byte	0x9c8
 2883 0c63 02       		.uleb128 0x2
 2884 0c64 91       		.byte	0x91
 2885 0c65 6C       		.sleb128 -20
 2886 0c66 28       		.uleb128 0x28
 2887 0c67 6900     		.ascii	"i\000"
 2888 0c69 01       		.byte	0x1
 2889 0c6a 6401     		.2byte	0x164
 2890 0c6c 21000000 		.4byte	0x21
 2891 0c70 02       		.uleb128 0x2
 2892 0c71 91       		.byte	0x91
 2893 0c72 74       		.sleb128 -12
 2894 0c73 00       		.byte	0
 2895 0c74 2B       		.uleb128 0x2b
 2896 0c75 DD000000 		.4byte	.LASF137
 2897 0c79 01       		.byte	0x1
 2898 0c7a 8501     		.2byte	0x185
 2899 0c7c 00000000 		.4byte	.LFB127
 2900 0c80 78000000 		.4byte	.LFE127-.LFB127
 2901 0c84 01       		.uleb128 0x1
 2902 0c85 9C       		.byte	0x9c
 2903 0c86 DD0C0000 		.4byte	0xcdd
 2904 0c8a 2C       		.uleb128 0x2c
 2905 0c8b 1B000000 		.4byte	.LASF128
 2906 0c8f 01       		.byte	0x1
 2907 0c90 8501     		.2byte	0x185
 2908 0c92 C8090000 		.4byte	0x9c8
 2909 0c96 02       		.uleb128 0x2
 2910 0c97 91       		.byte	0x91
 2911 0c98 74       		.sleb128 -12
 2912 0c99 2C       		.uleb128 0x2c
 2913 0c9a 9E040000 		.4byte	.LASF110
 2914 0c9e 01       		.byte	0x1
 2915 0c9f 8501     		.2byte	0x185
 2916 0ca1 E3080000 		.4byte	0x8e3
 2917 0ca5 02       		.uleb128 0x2
 2918 0ca6 91       		.byte	0x91
 2919 0ca7 70       		.sleb128 -16
 2920 0ca8 25       		.uleb128 0x25
 2921 0ca9 1A000000 		.4byte	.LBB17
 2922 0cad 06000000 		.4byte	.LBE17-.LBB17
 2923 0cb1 C40C0000 		.4byte	0xcc4
 2924 0cb5 28       		.uleb128 0x28
 2925 0cb6 746D7000 		.ascii	"tmp\000"
 2926 0cba 01       		.byte	0x1
 2927 0cbb 8901     		.2byte	0x189
 2928 0cbd B4000000 		.4byte	0xb4
 2929 0cc1 01       		.uleb128 0x1
 2930 0cc2 53       		.byte	0x53
 2931 0cc3 00       		.byte	0
 2932 0cc4 26       		.uleb128 0x26
 2933 0cc5 56000000 		.4byte	.LBB18
 2934 0cc9 06000000 		.4byte	.LBE18-.LBB18
 2935 0ccd 28       		.uleb128 0x28
ARM GAS  /tmp/cchWoqJA.s 			page 53


 2936 0cce 746D7000 		.ascii	"tmp\000"
 2937 0cd2 01       		.byte	0x1
 2938 0cd3 A701     		.2byte	0x1a7
 2939 0cd5 B4000000 		.4byte	0xb4
 2940 0cd9 01       		.uleb128 0x1
 2941 0cda 53       		.byte	0x53
 2942 0cdb 00       		.byte	0
 2943 0cdc 00       		.byte	0
 2944 0cdd 2B       		.uleb128 0x2b
 2945 0cde 67040000 		.4byte	.LASF138
 2946 0ce2 01       		.byte	0x1
 2947 0ce3 B501     		.2byte	0x1b5
 2948 0ce5 00000000 		.4byte	.LFB128
 2949 0ce9 58000000 		.4byte	.LFE128-.LFB128
 2950 0ced 01       		.uleb128 0x1
 2951 0cee 9C       		.byte	0x9c
 2952 0cef 370D0000 		.4byte	0xd37
 2953 0cf3 2C       		.uleb128 0x2c
 2954 0cf4 1B000000 		.4byte	.LASF128
 2955 0cf8 01       		.byte	0x1
 2956 0cf9 B501     		.2byte	0x1b5
 2957 0cfb C8090000 		.4byte	0x9c8
 2958 0cff 02       		.uleb128 0x2
 2959 0d00 91       		.byte	0x91
 2960 0d01 74       		.sleb128 -12
 2961 0d02 25       		.uleb128 0x25
 2962 0d03 12000000 		.4byte	.LBB19
 2963 0d07 06000000 		.4byte	.LBE19-.LBB19
 2964 0d0b 1E0D0000 		.4byte	0xd1e
 2965 0d0f 28       		.uleb128 0x28
 2966 0d10 746D7000 		.ascii	"tmp\000"
 2967 0d14 01       		.byte	0x1
 2968 0d15 B901     		.2byte	0x1b9
 2969 0d17 B4000000 		.4byte	0xb4
 2970 0d1b 01       		.uleb128 0x1
 2971 0d1c 53       		.byte	0x53
 2972 0d1d 00       		.byte	0
 2973 0d1e 26       		.uleb128 0x26
 2974 0d1f 42000000 		.4byte	.LBB20
 2975 0d23 06000000 		.4byte	.LBE20-.LBB20
 2976 0d27 28       		.uleb128 0x28
 2977 0d28 746D7000 		.ascii	"tmp\000"
 2978 0d2c 01       		.byte	0x1
 2979 0d2d BF01     		.2byte	0x1bf
 2980 0d2f B4000000 		.4byte	0xb4
 2981 0d33 01       		.uleb128 0x1
 2982 0d34 53       		.byte	0x53
 2983 0d35 00       		.byte	0
 2984 0d36 00       		.byte	0
 2985 0d37 2B       		.uleb128 0x2b
 2986 0d38 3A050000 		.4byte	.LASF139
 2987 0d3c 01       		.byte	0x1
 2988 0d3d C701     		.2byte	0x1c7
 2989 0d3f 00000000 		.4byte	.LFB129
 2990 0d43 2E000000 		.4byte	.LFE129-.LFB129
 2991 0d47 01       		.uleb128 0x1
 2992 0d48 9C       		.byte	0x9c
ARM GAS  /tmp/cchWoqJA.s 			page 54


 2993 0d49 AF0D0000 		.4byte	0xdaf
 2994 0d4d 2C       		.uleb128 0x2c
 2995 0d4e 1B000000 		.4byte	.LASF128
 2996 0d52 01       		.byte	0x1
 2997 0d53 C701     		.2byte	0x1c7
 2998 0d55 C8090000 		.4byte	0x9c8
 2999 0d59 02       		.uleb128 0x2
 3000 0d5a 91       		.byte	0x91
 3001 0d5b 74       		.sleb128 -12
 3002 0d5c 2C       		.uleb128 0x2c
 3003 0d5d A5020000 		.4byte	.LASF130
 3004 0d61 01       		.byte	0x1
 3005 0d62 C701     		.2byte	0x1c7
 3006 0d64 86060000 		.4byte	0x686
 3007 0d68 02       		.uleb128 0x2
 3008 0d69 91       		.byte	0x91
 3009 0d6a 70       		.sleb128 -16
 3010 0d6b 2C       		.uleb128 0x2c
 3011 0d6c 29020000 		.4byte	.LASF140
 3012 0d70 01       		.byte	0x1
 3013 0d71 C701     		.2byte	0x1c7
 3014 0d73 B4000000 		.4byte	0xb4
 3015 0d77 02       		.uleb128 0x2
 3016 0d78 91       		.byte	0x91
 3017 0d79 6C       		.sleb128 -20
 3018 0d7a 25       		.uleb128 0x25
 3019 0d7b 0A000000 		.4byte	.LBB21
 3020 0d7f 06000000 		.4byte	.LBE21-.LBB21
 3021 0d83 960D0000 		.4byte	0xd96
 3022 0d87 28       		.uleb128 0x28
 3023 0d88 746D7000 		.ascii	"tmp\000"
 3024 0d8c 01       		.byte	0x1
 3025 0d8d C901     		.2byte	0x1c9
 3026 0d8f B4000000 		.4byte	0xb4
 3027 0d93 01       		.uleb128 0x1
 3028 0d94 53       		.byte	0x53
 3029 0d95 00       		.byte	0
 3030 0d96 26       		.uleb128 0x26
 3031 0d97 22000000 		.4byte	.LBB22
 3032 0d9b 06000000 		.4byte	.LBE22-.LBB22
 3033 0d9f 28       		.uleb128 0x28
 3034 0da0 746D7000 		.ascii	"tmp\000"
 3035 0da4 01       		.byte	0x1
 3036 0da5 CC01     		.2byte	0x1cc
 3037 0da7 B4000000 		.4byte	0xb4
 3038 0dab 01       		.uleb128 0x1
 3039 0dac 53       		.byte	0x53
 3040 0dad 00       		.byte	0
 3041 0dae 00       		.byte	0
 3042 0daf 2B       		.uleb128 0x2b
 3043 0db0 4F050000 		.4byte	.LASF141
 3044 0db4 01       		.byte	0x1
 3045 0db5 D401     		.2byte	0x1d4
 3046 0db7 00000000 		.4byte	.LFB130
 3047 0dbb 88000000 		.4byte	.LFE130-.LFB130
 3048 0dbf 01       		.uleb128 0x1
 3049 0dc0 9C       		.byte	0x9c
ARM GAS  /tmp/cchWoqJA.s 			page 55


 3050 0dc1 F30D0000 		.4byte	0xdf3
 3051 0dc5 2C       		.uleb128 0x2c
 3052 0dc6 1B000000 		.4byte	.LASF128
 3053 0dca 01       		.byte	0x1
 3054 0dcb D401     		.2byte	0x1d4
 3055 0dcd C8090000 		.4byte	0x9c8
 3056 0dd1 02       		.uleb128 0x2
 3057 0dd2 91       		.byte	0x91
 3058 0dd3 74       		.sleb128 -12
 3059 0dd4 2C       		.uleb128 0x2c
 3060 0dd5 A5020000 		.4byte	.LASF130
 3061 0dd9 01       		.byte	0x1
 3062 0dda D401     		.2byte	0x1d4
 3063 0ddc 86060000 		.4byte	0x686
 3064 0de0 02       		.uleb128 0x2
 3065 0de1 91       		.byte	0x91
 3066 0de2 70       		.sleb128 -16
 3067 0de3 2C       		.uleb128 0x2c
 3068 0de4 29020000 		.4byte	.LASF140
 3069 0de8 01       		.byte	0x1
 3070 0de9 D401     		.2byte	0x1d4
 3071 0deb B4000000 		.4byte	0xb4
 3072 0def 02       		.uleb128 0x2
 3073 0df0 91       		.byte	0x91
 3074 0df1 6C       		.sleb128 -20
 3075 0df2 00       		.byte	0
 3076 0df3 2B       		.uleb128 0x2b
 3077 0df4 BA040000 		.4byte	.LASF142
 3078 0df8 01       		.byte	0x1
 3079 0df9 F201     		.2byte	0x1f2
 3080 0dfb 00000000 		.4byte	.LFB131
 3081 0dff 50000000 		.4byte	.LFE131-.LFB131
 3082 0e03 01       		.uleb128 0x1
 3083 0e04 9C       		.byte	0x9c
 3084 0e05 6B0E0000 		.4byte	0xe6b
 3085 0e09 2C       		.uleb128 0x2c
 3086 0e0a 1B000000 		.4byte	.LASF128
 3087 0e0e 01       		.byte	0x1
 3088 0e0f F201     		.2byte	0x1f2
 3089 0e11 C8090000 		.4byte	0x9c8
 3090 0e15 02       		.uleb128 0x2
 3091 0e16 91       		.byte	0x91
 3092 0e17 6C       		.sleb128 -20
 3093 0e18 2C       		.uleb128 0x2c
 3094 0e19 A5020000 		.4byte	.LASF130
 3095 0e1d 01       		.byte	0x1
 3096 0e1e F201     		.2byte	0x1f2
 3097 0e20 86060000 		.4byte	0x686
 3098 0e24 02       		.uleb128 0x2
 3099 0e25 91       		.byte	0x91
 3100 0e26 68       		.sleb128 -24
 3101 0e27 29       		.uleb128 0x29
 3102 0e28 48050000 		.4byte	.LASF115
 3103 0e2c 01       		.byte	0x1
 3104 0e2d F301     		.2byte	0x1f3
 3105 0e2f 1E070000 		.4byte	0x71e
 3106 0e33 02       		.uleb128 0x2
ARM GAS  /tmp/cchWoqJA.s 			page 56


 3107 0e34 91       		.byte	0x91
 3108 0e35 77       		.sleb128 -9
 3109 0e36 25       		.uleb128 0x25
 3110 0e37 08000000 		.4byte	.LBB23
 3111 0e3b 06000000 		.4byte	.LBE23-.LBB23
 3112 0e3f 520E0000 		.4byte	0xe52
 3113 0e43 28       		.uleb128 0x28
 3114 0e44 746D7000 		.ascii	"tmp\000"
 3115 0e48 01       		.byte	0x1
 3116 0e49 F501     		.2byte	0x1f5
 3117 0e4b B4000000 		.4byte	0xb4
 3118 0e4f 01       		.uleb128 0x1
 3119 0e50 53       		.byte	0x53
 3120 0e51 00       		.byte	0
 3121 0e52 26       		.uleb128 0x26
 3122 0e53 40000000 		.4byte	.LBB24
 3123 0e57 06000000 		.4byte	.LBE24-.LBB24
 3124 0e5b 28       		.uleb128 0x28
 3125 0e5c 746D7000 		.ascii	"tmp\000"
 3126 0e60 01       		.byte	0x1
 3127 0e61 FB01     		.2byte	0x1fb
 3128 0e63 B4000000 		.4byte	0xb4
 3129 0e67 01       		.uleb128 0x1
 3130 0e68 53       		.byte	0x53
 3131 0e69 00       		.byte	0
 3132 0e6a 00       		.byte	0
 3133 0e6b 2B       		.uleb128 0x2b
 3134 0e6c F4030000 		.4byte	.LASF143
 3135 0e70 01       		.byte	0x1
 3136 0e71 FE01     		.2byte	0x1fe
 3137 0e73 00000000 		.4byte	.LFB132
 3138 0e77 50000000 		.4byte	.LFE132-.LFB132
 3139 0e7b 01       		.uleb128 0x1
 3140 0e7c 9C       		.byte	0x9c
 3141 0e7d F20E0000 		.4byte	0xef2
 3142 0e81 2C       		.uleb128 0x2c
 3143 0e82 1B000000 		.4byte	.LASF128
 3144 0e86 01       		.byte	0x1
 3145 0e87 FE01     		.2byte	0x1fe
 3146 0e89 C8090000 		.4byte	0x9c8
 3147 0e8d 02       		.uleb128 0x2
 3148 0e8e 91       		.byte	0x91
 3149 0e8f 6C       		.sleb128 -20
 3150 0e90 2C       		.uleb128 0x2c
 3151 0e91 A5020000 		.4byte	.LASF130
 3152 0e95 01       		.byte	0x1
 3153 0e96 FE01     		.2byte	0x1fe
 3154 0e98 86060000 		.4byte	0x686
 3155 0e9c 02       		.uleb128 0x2
 3156 0e9d 91       		.byte	0x91
 3157 0e9e 68       		.sleb128 -24
 3158 0e9f 2C       		.uleb128 0x2c
 3159 0ea0 AA020000 		.4byte	.LASF144
 3160 0ea4 01       		.byte	0x1
 3161 0ea5 FE01     		.2byte	0x1fe
 3162 0ea7 B4000000 		.4byte	0xb4
 3163 0eab 02       		.uleb128 0x2
ARM GAS  /tmp/cchWoqJA.s 			page 57


 3164 0eac 91       		.byte	0x91
 3165 0ead 64       		.sleb128 -28
 3166 0eae 29       		.uleb128 0x29
 3167 0eaf 48050000 		.4byte	.LASF115
 3168 0eb3 01       		.byte	0x1
 3169 0eb4 FF01     		.2byte	0x1ff
 3170 0eb6 1E070000 		.4byte	0x71e
 3171 0eba 02       		.uleb128 0x2
 3172 0ebb 91       		.byte	0x91
 3173 0ebc 77       		.sleb128 -9
 3174 0ebd 25       		.uleb128 0x25
 3175 0ebe 0A000000 		.4byte	.LBB25
 3176 0ec2 06000000 		.4byte	.LBE25-.LBB25
 3177 0ec6 D90E0000 		.4byte	0xed9
 3178 0eca 28       		.uleb128 0x28
 3179 0ecb 746D7000 		.ascii	"tmp\000"
 3180 0ecf 01       		.byte	0x1
 3181 0ed0 0102     		.2byte	0x201
 3182 0ed2 B4000000 		.4byte	0xb4
 3183 0ed6 01       		.uleb128 0x1
 3184 0ed7 53       		.byte	0x53
 3185 0ed8 00       		.byte	0
 3186 0ed9 26       		.uleb128 0x26
 3187 0eda 44000000 		.4byte	.LBB26
 3188 0ede 06000000 		.4byte	.LBE26-.LBB26
 3189 0ee2 28       		.uleb128 0x28
 3190 0ee3 746D7000 		.ascii	"tmp\000"
 3191 0ee7 01       		.byte	0x1
 3192 0ee8 0702     		.2byte	0x207
 3193 0eea B4000000 		.4byte	0xb4
 3194 0eee 01       		.uleb128 0x1
 3195 0eef 53       		.byte	0x53
 3196 0ef0 00       		.byte	0
 3197 0ef1 00       		.byte	0
 3198 0ef2 2D       		.uleb128 0x2d
 3199 0ef3 5E000000 		.4byte	.LASF146
 3200 0ef7 01       		.byte	0x1
 3201 0ef8 2502     		.2byte	0x225
 3202 0efa 00000000 		.4byte	.LFB133
 3203 0efe 02000000 		.4byte	.LFE133-.LFB133
 3204 0f02 01       		.uleb128 0x1
 3205 0f03 9C       		.byte	0x9c
 3206 0f04 2E       		.uleb128 0x2e
 3207 0f05 57000000 		.4byte	.LASF147
 3208 0f09 05       		.byte	0x5
 3209 0f0a F5       		.byte	0xf5
 3210 0f0b 9E010000 		.4byte	0x19e
 3211 0f0f 2F       		.uleb128 0x2f
 3212 0f10 DD030000 		.4byte	.LASF148
 3213 0f14 09       		.byte	0x9
 3214 0f15 9806     		.2byte	0x698
 3215 0f17 E6010000 		.4byte	0x1e6
 3216 0f1b 30       		.uleb128 0x30
 3217 0f1c E8000000 		.4byte	.LASF149
 3218 0f20 01       		.byte	0x1
 3219 0f21 15       		.byte	0x15
 3220 0f22 B4000000 		.4byte	0xb4
ARM GAS  /tmp/cchWoqJA.s 			page 58


 3221 0f26 05       		.uleb128 0x5
 3222 0f27 03       		.byte	0x3
 3223 0f28 00000000 		.4byte	last_sync_tim
 3224 0f2c 00       		.byte	0
 3225              		.section	.debug_abbrev,"",%progbits
 3226              	.Ldebug_abbrev0:
 3227 0000 01       		.uleb128 0x1
 3228 0001 11       		.uleb128 0x11
 3229 0002 01       		.byte	0x1
 3230 0003 25       		.uleb128 0x25
 3231 0004 0E       		.uleb128 0xe
 3232 0005 13       		.uleb128 0x13
 3233 0006 0B       		.uleb128 0xb
 3234 0007 03       		.uleb128 0x3
 3235 0008 0E       		.uleb128 0xe
 3236 0009 55       		.uleb128 0x55
 3237 000a 17       		.uleb128 0x17
 3238 000b 11       		.uleb128 0x11
 3239 000c 01       		.uleb128 0x1
 3240 000d 10       		.uleb128 0x10
 3241 000e 17       		.uleb128 0x17
 3242 000f 00       		.byte	0
 3243 0010 00       		.byte	0
 3244 0011 02       		.uleb128 0x2
 3245 0012 24       		.uleb128 0x24
 3246 0013 00       		.byte	0
 3247 0014 0B       		.uleb128 0xb
 3248 0015 0B       		.uleb128 0xb
 3249 0016 3E       		.uleb128 0x3e
 3250 0017 0B       		.uleb128 0xb
 3251 0018 03       		.uleb128 0x3
 3252 0019 08       		.uleb128 0x8
 3253 001a 00       		.byte	0
 3254 001b 00       		.byte	0
 3255 001c 03       		.uleb128 0x3
 3256 001d 24       		.uleb128 0x24
 3257 001e 00       		.byte	0
 3258 001f 0B       		.uleb128 0xb
 3259 0020 0B       		.uleb128 0xb
 3260 0021 3E       		.uleb128 0x3e
 3261 0022 0B       		.uleb128 0xb
 3262 0023 03       		.uleb128 0x3
 3263 0024 0E       		.uleb128 0xe
 3264 0025 00       		.byte	0
 3265 0026 00       		.byte	0
 3266 0027 04       		.uleb128 0x4
 3267 0028 16       		.uleb128 0x16
 3268 0029 00       		.byte	0
 3269 002a 03       		.uleb128 0x3
 3270 002b 0E       		.uleb128 0xe
 3271 002c 3A       		.uleb128 0x3a
 3272 002d 0B       		.uleb128 0xb
 3273 002e 3B       		.uleb128 0x3b
 3274 002f 0B       		.uleb128 0xb
 3275 0030 49       		.uleb128 0x49
 3276 0031 13       		.uleb128 0x13
 3277 0032 00       		.byte	0
ARM GAS  /tmp/cchWoqJA.s 			page 59


 3278 0033 00       		.byte	0
 3279 0034 05       		.uleb128 0x5
 3280 0035 0F       		.uleb128 0xf
 3281 0036 00       		.byte	0
 3282 0037 0B       		.uleb128 0xb
 3283 0038 0B       		.uleb128 0xb
 3284 0039 00       		.byte	0
 3285 003a 00       		.byte	0
 3286 003b 06       		.uleb128 0x6
 3287 003c 35       		.uleb128 0x35
 3288 003d 00       		.byte	0
 3289 003e 49       		.uleb128 0x49
 3290 003f 13       		.uleb128 0x13
 3291 0040 00       		.byte	0
 3292 0041 00       		.byte	0
 3293 0042 07       		.uleb128 0x7
 3294 0043 0F       		.uleb128 0xf
 3295 0044 00       		.byte	0
 3296 0045 0B       		.uleb128 0xb
 3297 0046 0B       		.uleb128 0xb
 3298 0047 49       		.uleb128 0x49
 3299 0048 13       		.uleb128 0x13
 3300 0049 00       		.byte	0
 3301 004a 00       		.byte	0
 3302 004b 08       		.uleb128 0x8
 3303 004c 15       		.uleb128 0x15
 3304 004d 01       		.byte	0x1
 3305 004e 27       		.uleb128 0x27
 3306 004f 19       		.uleb128 0x19
 3307 0050 01       		.uleb128 0x1
 3308 0051 13       		.uleb128 0x13
 3309 0052 00       		.byte	0
 3310 0053 00       		.byte	0
 3311 0054 09       		.uleb128 0x9
 3312 0055 05       		.uleb128 0x5
 3313 0056 00       		.byte	0
 3314 0057 49       		.uleb128 0x49
 3315 0058 13       		.uleb128 0x13
 3316 0059 00       		.byte	0
 3317 005a 00       		.byte	0
 3318 005b 0A       		.uleb128 0xa
 3319 005c 13       		.uleb128 0x13
 3320 005d 01       		.byte	0x1
 3321 005e 03       		.uleb128 0x3
 3322 005f 0E       		.uleb128 0xe
 3323 0060 0B       		.uleb128 0xb
 3324 0061 0B       		.uleb128 0xb
 3325 0062 3A       		.uleb128 0x3a
 3326 0063 0B       		.uleb128 0xb
 3327 0064 3B       		.uleb128 0x3b
 3328 0065 0B       		.uleb128 0xb
 3329 0066 01       		.uleb128 0x1
 3330 0067 13       		.uleb128 0x13
 3331 0068 00       		.byte	0
 3332 0069 00       		.byte	0
 3333 006a 0B       		.uleb128 0xb
 3334 006b 0D       		.uleb128 0xd
ARM GAS  /tmp/cchWoqJA.s 			page 60


 3335 006c 00       		.byte	0
 3336 006d 03       		.uleb128 0x3
 3337 006e 0E       		.uleb128 0xe
 3338 006f 3A       		.uleb128 0x3a
 3339 0070 0B       		.uleb128 0xb
 3340 0071 3B       		.uleb128 0x3b
 3341 0072 0B       		.uleb128 0xb
 3342 0073 49       		.uleb128 0x49
 3343 0074 13       		.uleb128 0x13
 3344 0075 38       		.uleb128 0x38
 3345 0076 0B       		.uleb128 0xb
 3346 0077 00       		.byte	0
 3347 0078 00       		.byte	0
 3348 0079 0C       		.uleb128 0xc
 3349 007a 13       		.uleb128 0x13
 3350 007b 01       		.byte	0x1
 3351 007c 0B       		.uleb128 0xb
 3352 007d 0B       		.uleb128 0xb
 3353 007e 3A       		.uleb128 0x3a
 3354 007f 0B       		.uleb128 0xb
 3355 0080 3B       		.uleb128 0x3b
 3356 0081 0B       		.uleb128 0xb
 3357 0082 01       		.uleb128 0x1
 3358 0083 13       		.uleb128 0x13
 3359 0084 00       		.byte	0
 3360 0085 00       		.byte	0
 3361 0086 0D       		.uleb128 0xd
 3362 0087 26       		.uleb128 0x26
 3363 0088 00       		.byte	0
 3364 0089 49       		.uleb128 0x49
 3365 008a 13       		.uleb128 0x13
 3366 008b 00       		.byte	0
 3367 008c 00       		.byte	0
 3368 008d 0E       		.uleb128 0xe
 3369 008e 01       		.uleb128 0x1
 3370 008f 01       		.byte	0x1
 3371 0090 49       		.uleb128 0x49
 3372 0091 13       		.uleb128 0x13
 3373 0092 01       		.uleb128 0x1
 3374 0093 13       		.uleb128 0x13
 3375 0094 00       		.byte	0
 3376 0095 00       		.byte	0
 3377 0096 0F       		.uleb128 0xf
 3378 0097 21       		.uleb128 0x21
 3379 0098 00       		.byte	0
 3380 0099 49       		.uleb128 0x49
 3381 009a 13       		.uleb128 0x13
 3382 009b 2F       		.uleb128 0x2f
 3383 009c 0B       		.uleb128 0xb
 3384 009d 00       		.byte	0
 3385 009e 00       		.byte	0
 3386 009f 10       		.uleb128 0x10
 3387 00a0 13       		.uleb128 0x13
 3388 00a1 01       		.byte	0x1
 3389 00a2 0B       		.uleb128 0xb
 3390 00a3 0B       		.uleb128 0xb
 3391 00a4 3A       		.uleb128 0x3a
ARM GAS  /tmp/cchWoqJA.s 			page 61


 3392 00a5 0B       		.uleb128 0xb
 3393 00a6 3B       		.uleb128 0x3b
 3394 00a7 05       		.uleb128 0x5
 3395 00a8 01       		.uleb128 0x1
 3396 00a9 13       		.uleb128 0x13
 3397 00aa 00       		.byte	0
 3398 00ab 00       		.byte	0
 3399 00ac 11       		.uleb128 0x11
 3400 00ad 0D       		.uleb128 0xd
 3401 00ae 00       		.byte	0
 3402 00af 03       		.uleb128 0x3
 3403 00b0 08       		.uleb128 0x8
 3404 00b1 3A       		.uleb128 0x3a
 3405 00b2 0B       		.uleb128 0xb
 3406 00b3 3B       		.uleb128 0x3b
 3407 00b4 05       		.uleb128 0x5
 3408 00b5 49       		.uleb128 0x49
 3409 00b6 13       		.uleb128 0x13
 3410 00b7 38       		.uleb128 0x38
 3411 00b8 0B       		.uleb128 0xb
 3412 00b9 00       		.byte	0
 3413 00ba 00       		.byte	0
 3414 00bb 12       		.uleb128 0x12
 3415 00bc 0D       		.uleb128 0xd
 3416 00bd 00       		.byte	0
 3417 00be 03       		.uleb128 0x3
 3418 00bf 0E       		.uleb128 0xe
 3419 00c0 3A       		.uleb128 0x3a
 3420 00c1 0B       		.uleb128 0xb
 3421 00c2 3B       		.uleb128 0x3b
 3422 00c3 05       		.uleb128 0x5
 3423 00c4 49       		.uleb128 0x49
 3424 00c5 13       		.uleb128 0x13
 3425 00c6 38       		.uleb128 0x38
 3426 00c7 0B       		.uleb128 0xb
 3427 00c8 00       		.byte	0
 3428 00c9 00       		.byte	0
 3429 00ca 13       		.uleb128 0x13
 3430 00cb 16       		.uleb128 0x16
 3431 00cc 00       		.byte	0
 3432 00cd 03       		.uleb128 0x3
 3433 00ce 0E       		.uleb128 0xe
 3434 00cf 3A       		.uleb128 0x3a
 3435 00d0 0B       		.uleb128 0xb
 3436 00d1 3B       		.uleb128 0x3b
 3437 00d2 05       		.uleb128 0x5
 3438 00d3 49       		.uleb128 0x49
 3439 00d4 13       		.uleb128 0x13
 3440 00d5 00       		.byte	0
 3441 00d6 00       		.byte	0
 3442 00d7 14       		.uleb128 0x14
 3443 00d8 13       		.uleb128 0x13
 3444 00d9 01       		.byte	0x1
 3445 00da 0B       		.uleb128 0xb
 3446 00db 05       		.uleb128 0x5
 3447 00dc 3A       		.uleb128 0x3a
 3448 00dd 0B       		.uleb128 0xb
ARM GAS  /tmp/cchWoqJA.s 			page 62


 3449 00de 3B       		.uleb128 0x3b
 3450 00df 05       		.uleb128 0x5
 3451 00e0 01       		.uleb128 0x1
 3452 00e1 13       		.uleb128 0x13
 3453 00e2 00       		.byte	0
 3454 00e3 00       		.byte	0
 3455 00e4 15       		.uleb128 0x15
 3456 00e5 0D       		.uleb128 0xd
 3457 00e6 00       		.byte	0
 3458 00e7 03       		.uleb128 0x3
 3459 00e8 0E       		.uleb128 0xe
 3460 00e9 3A       		.uleb128 0x3a
 3461 00ea 0B       		.uleb128 0xb
 3462 00eb 3B       		.uleb128 0x3b
 3463 00ec 05       		.uleb128 0x5
 3464 00ed 49       		.uleb128 0x49
 3465 00ee 13       		.uleb128 0x13
 3466 00ef 38       		.uleb128 0x38
 3467 00f0 05       		.uleb128 0x5
 3468 00f1 00       		.byte	0
 3469 00f2 00       		.byte	0
 3470 00f3 16       		.uleb128 0x16
 3471 00f4 0D       		.uleb128 0xd
 3472 00f5 00       		.byte	0
 3473 00f6 03       		.uleb128 0x3
 3474 00f7 08       		.uleb128 0x8
 3475 00f8 3A       		.uleb128 0x3a
 3476 00f9 0B       		.uleb128 0xb
 3477 00fa 3B       		.uleb128 0x3b
 3478 00fb 05       		.uleb128 0x5
 3479 00fc 49       		.uleb128 0x49
 3480 00fd 13       		.uleb128 0x13
 3481 00fe 38       		.uleb128 0x38
 3482 00ff 05       		.uleb128 0x5
 3483 0100 00       		.byte	0
 3484 0101 00       		.byte	0
 3485 0102 17       		.uleb128 0x17
 3486 0103 0D       		.uleb128 0xd
 3487 0104 00       		.byte	0
 3488 0105 49       		.uleb128 0x49
 3489 0106 13       		.uleb128 0x13
 3490 0107 38       		.uleb128 0x38
 3491 0108 0B       		.uleb128 0xb
 3492 0109 00       		.byte	0
 3493 010a 00       		.byte	0
 3494 010b 18       		.uleb128 0x18
 3495 010c 0D       		.uleb128 0xd
 3496 010d 00       		.byte	0
 3497 010e 03       		.uleb128 0x3
 3498 010f 08       		.uleb128 0x8
 3499 0110 3A       		.uleb128 0x3a
 3500 0111 0B       		.uleb128 0xb
 3501 0112 3B       		.uleb128 0x3b
 3502 0113 0B       		.uleb128 0xb
 3503 0114 49       		.uleb128 0x49
 3504 0115 13       		.uleb128 0x13
 3505 0116 38       		.uleb128 0x38
ARM GAS  /tmp/cchWoqJA.s 			page 63


 3506 0117 0B       		.uleb128 0xb
 3507 0118 00       		.byte	0
 3508 0119 00       		.byte	0
 3509 011a 19       		.uleb128 0x19
 3510 011b 0D       		.uleb128 0xd
 3511 011c 00       		.byte	0
 3512 011d 03       		.uleb128 0x3
 3513 011e 0E       		.uleb128 0xe
 3514 011f 3A       		.uleb128 0x3a
 3515 0120 0B       		.uleb128 0xb
 3516 0121 3B       		.uleb128 0x3b
 3517 0122 0B       		.uleb128 0xb
 3518 0123 49       		.uleb128 0x49
 3519 0124 13       		.uleb128 0x13
 3520 0125 0B       		.uleb128 0xb
 3521 0126 0B       		.uleb128 0xb
 3522 0127 0D       		.uleb128 0xd
 3523 0128 0B       		.uleb128 0xb
 3524 0129 0C       		.uleb128 0xc
 3525 012a 0B       		.uleb128 0xb
 3526 012b 38       		.uleb128 0x38
 3527 012c 0B       		.uleb128 0xb
 3528 012d 00       		.byte	0
 3529 012e 00       		.byte	0
 3530 012f 1A       		.uleb128 0x1a
 3531 0130 04       		.uleb128 0x4
 3532 0131 01       		.byte	0x1
 3533 0132 0B       		.uleb128 0xb
 3534 0133 0B       		.uleb128 0xb
 3535 0134 3A       		.uleb128 0x3a
 3536 0135 0B       		.uleb128 0xb
 3537 0136 3B       		.uleb128 0x3b
 3538 0137 0B       		.uleb128 0xb
 3539 0138 01       		.uleb128 0x1
 3540 0139 13       		.uleb128 0x13
 3541 013a 00       		.byte	0
 3542 013b 00       		.byte	0
 3543 013c 1B       		.uleb128 0x1b
 3544 013d 28       		.uleb128 0x28
 3545 013e 00       		.byte	0
 3546 013f 03       		.uleb128 0x3
 3547 0140 0E       		.uleb128 0xe
 3548 0141 1C       		.uleb128 0x1c
 3549 0142 0D       		.uleb128 0xd
 3550 0143 00       		.byte	0
 3551 0144 00       		.byte	0
 3552 0145 1C       		.uleb128 0x1c
 3553 0146 17       		.uleb128 0x17
 3554 0147 01       		.byte	0x1
 3555 0148 0B       		.uleb128 0xb
 3556 0149 0B       		.uleb128 0xb
 3557 014a 3A       		.uleb128 0x3a
 3558 014b 0B       		.uleb128 0xb
 3559 014c 3B       		.uleb128 0x3b
 3560 014d 0B       		.uleb128 0xb
 3561 014e 01       		.uleb128 0x1
 3562 014f 13       		.uleb128 0x13
ARM GAS  /tmp/cchWoqJA.s 			page 64


 3563 0150 00       		.byte	0
 3564 0151 00       		.byte	0
 3565 0152 1D       		.uleb128 0x1d
 3566 0153 0D       		.uleb128 0xd
 3567 0154 00       		.byte	0
 3568 0155 03       		.uleb128 0x3
 3569 0156 0E       		.uleb128 0xe
 3570 0157 3A       		.uleb128 0x3a
 3571 0158 0B       		.uleb128 0xb
 3572 0159 3B       		.uleb128 0x3b
 3573 015a 0B       		.uleb128 0xb
 3574 015b 49       		.uleb128 0x49
 3575 015c 13       		.uleb128 0x13
 3576 015d 00       		.byte	0
 3577 015e 00       		.byte	0
 3578 015f 1E       		.uleb128 0x1e
 3579 0160 0D       		.uleb128 0xd
 3580 0161 00       		.byte	0
 3581 0162 03       		.uleb128 0x3
 3582 0163 08       		.uleb128 0x8
 3583 0164 3A       		.uleb128 0x3a
 3584 0165 0B       		.uleb128 0xb
 3585 0166 3B       		.uleb128 0x3b
 3586 0167 0B       		.uleb128 0xb
 3587 0168 49       		.uleb128 0x49
 3588 0169 13       		.uleb128 0x13
 3589 016a 0B       		.uleb128 0xb
 3590 016b 0B       		.uleb128 0xb
 3591 016c 0D       		.uleb128 0xd
 3592 016d 0B       		.uleb128 0xb
 3593 016e 0C       		.uleb128 0xc
 3594 016f 0B       		.uleb128 0xb
 3595 0170 38       		.uleb128 0x38
 3596 0171 0B       		.uleb128 0xb
 3597 0172 00       		.byte	0
 3598 0173 00       		.byte	0
 3599 0174 1F       		.uleb128 0x1f
 3600 0175 0D       		.uleb128 0xd
 3601 0176 00       		.byte	0
 3602 0177 49       		.uleb128 0x49
 3603 0178 13       		.uleb128 0x13
 3604 0179 00       		.byte	0
 3605 017a 00       		.byte	0
 3606 017b 20       		.uleb128 0x20
 3607 017c 2E       		.uleb128 0x2e
 3608 017d 01       		.byte	0x1
 3609 017e 3F       		.uleb128 0x3f
 3610 017f 19       		.uleb128 0x19
 3611 0180 03       		.uleb128 0x3
 3612 0181 0E       		.uleb128 0xe
 3613 0182 3A       		.uleb128 0x3a
 3614 0183 0B       		.uleb128 0xb
 3615 0184 3B       		.uleb128 0x3b
 3616 0185 0B       		.uleb128 0xb
 3617 0186 27       		.uleb128 0x27
 3618 0187 19       		.uleb128 0x19
 3619 0188 49       		.uleb128 0x49
ARM GAS  /tmp/cchWoqJA.s 			page 65


 3620 0189 13       		.uleb128 0x13
 3621 018a 11       		.uleb128 0x11
 3622 018b 01       		.uleb128 0x1
 3623 018c 12       		.uleb128 0x12
 3624 018d 06       		.uleb128 0x6
 3625 018e 40       		.uleb128 0x40
 3626 018f 18       		.uleb128 0x18
 3627 0190 9742     		.uleb128 0x2117
 3628 0192 19       		.uleb128 0x19
 3629 0193 01       		.uleb128 0x1
 3630 0194 13       		.uleb128 0x13
 3631 0195 00       		.byte	0
 3632 0196 00       		.byte	0
 3633 0197 21       		.uleb128 0x21
 3634 0198 34       		.uleb128 0x34
 3635 0199 00       		.byte	0
 3636 019a 03       		.uleb128 0x3
 3637 019b 08       		.uleb128 0x8
 3638 019c 3A       		.uleb128 0x3a
 3639 019d 0B       		.uleb128 0xb
 3640 019e 3B       		.uleb128 0x3b
 3641 019f 0B       		.uleb128 0xb
 3642 01a0 49       		.uleb128 0x49
 3643 01a1 13       		.uleb128 0x13
 3644 01a2 02       		.uleb128 0x2
 3645 01a3 18       		.uleb128 0x18
 3646 01a4 00       		.byte	0
 3647 01a5 00       		.byte	0
 3648 01a6 22       		.uleb128 0x22
 3649 01a7 2E       		.uleb128 0x2e
 3650 01a8 00       		.byte	0
 3651 01a9 3F       		.uleb128 0x3f
 3652 01aa 19       		.uleb128 0x19
 3653 01ab 03       		.uleb128 0x3
 3654 01ac 0E       		.uleb128 0xe
 3655 01ad 3A       		.uleb128 0x3a
 3656 01ae 0B       		.uleb128 0xb
 3657 01af 3B       		.uleb128 0x3b
 3658 01b0 0B       		.uleb128 0xb
 3659 01b1 27       		.uleb128 0x27
 3660 01b2 19       		.uleb128 0x19
 3661 01b3 49       		.uleb128 0x49
 3662 01b4 13       		.uleb128 0x13
 3663 01b5 11       		.uleb128 0x11
 3664 01b6 01       		.uleb128 0x1
 3665 01b7 12       		.uleb128 0x12
 3666 01b8 06       		.uleb128 0x6
 3667 01b9 40       		.uleb128 0x40
 3668 01ba 18       		.uleb128 0x18
 3669 01bb 9742     		.uleb128 0x2117
 3670 01bd 19       		.uleb128 0x19
 3671 01be 00       		.byte	0
 3672 01bf 00       		.byte	0
 3673 01c0 23       		.uleb128 0x23
 3674 01c1 2E       		.uleb128 0x2e
 3675 01c2 01       		.byte	0x1
 3676 01c3 3F       		.uleb128 0x3f
ARM GAS  /tmp/cchWoqJA.s 			page 66


 3677 01c4 19       		.uleb128 0x19
 3678 01c5 03       		.uleb128 0x3
 3679 01c6 0E       		.uleb128 0xe
 3680 01c7 3A       		.uleb128 0x3a
 3681 01c8 0B       		.uleb128 0xb
 3682 01c9 3B       		.uleb128 0x3b
 3683 01ca 0B       		.uleb128 0xb
 3684 01cb 27       		.uleb128 0x27
 3685 01cc 19       		.uleb128 0x19
 3686 01cd 11       		.uleb128 0x11
 3687 01ce 01       		.uleb128 0x1
 3688 01cf 12       		.uleb128 0x12
 3689 01d0 06       		.uleb128 0x6
 3690 01d1 40       		.uleb128 0x40
 3691 01d2 18       		.uleb128 0x18
 3692 01d3 9642     		.uleb128 0x2116
 3693 01d5 19       		.uleb128 0x19
 3694 01d6 01       		.uleb128 0x1
 3695 01d7 13       		.uleb128 0x13
 3696 01d8 00       		.byte	0
 3697 01d9 00       		.byte	0
 3698 01da 24       		.uleb128 0x24
 3699 01db 05       		.uleb128 0x5
 3700 01dc 00       		.byte	0
 3701 01dd 03       		.uleb128 0x3
 3702 01de 0E       		.uleb128 0xe
 3703 01df 3A       		.uleb128 0x3a
 3704 01e0 0B       		.uleb128 0xb
 3705 01e1 3B       		.uleb128 0x3b
 3706 01e2 0B       		.uleb128 0xb
 3707 01e3 49       		.uleb128 0x49
 3708 01e4 13       		.uleb128 0x13
 3709 01e5 02       		.uleb128 0x2
 3710 01e6 18       		.uleb128 0x18
 3711 01e7 00       		.byte	0
 3712 01e8 00       		.byte	0
 3713 01e9 25       		.uleb128 0x25
 3714 01ea 0B       		.uleb128 0xb
 3715 01eb 01       		.byte	0x1
 3716 01ec 11       		.uleb128 0x11
 3717 01ed 01       		.uleb128 0x1
 3718 01ee 12       		.uleb128 0x12
 3719 01ef 06       		.uleb128 0x6
 3720 01f0 01       		.uleb128 0x1
 3721 01f1 13       		.uleb128 0x13
 3722 01f2 00       		.byte	0
 3723 01f3 00       		.byte	0
 3724 01f4 26       		.uleb128 0x26
 3725 01f5 0B       		.uleb128 0xb
 3726 01f6 01       		.byte	0x1
 3727 01f7 11       		.uleb128 0x11
 3728 01f8 01       		.uleb128 0x1
 3729 01f9 12       		.uleb128 0x12
 3730 01fa 06       		.uleb128 0x6
 3731 01fb 00       		.byte	0
 3732 01fc 00       		.byte	0
 3733 01fd 27       		.uleb128 0x27
ARM GAS  /tmp/cchWoqJA.s 			page 67


 3734 01fe 34       		.uleb128 0x34
 3735 01ff 00       		.byte	0
 3736 0200 03       		.uleb128 0x3
 3737 0201 0E       		.uleb128 0xe
 3738 0202 3A       		.uleb128 0x3a
 3739 0203 0B       		.uleb128 0xb
 3740 0204 3B       		.uleb128 0x3b
 3741 0205 0B       		.uleb128 0xb
 3742 0206 49       		.uleb128 0x49
 3743 0207 13       		.uleb128 0x13
 3744 0208 02       		.uleb128 0x2
 3745 0209 18       		.uleb128 0x18
 3746 020a 00       		.byte	0
 3747 020b 00       		.byte	0
 3748 020c 28       		.uleb128 0x28
 3749 020d 34       		.uleb128 0x34
 3750 020e 00       		.byte	0
 3751 020f 03       		.uleb128 0x3
 3752 0210 08       		.uleb128 0x8
 3753 0211 3A       		.uleb128 0x3a
 3754 0212 0B       		.uleb128 0xb
 3755 0213 3B       		.uleb128 0x3b
 3756 0214 05       		.uleb128 0x5
 3757 0215 49       		.uleb128 0x49
 3758 0216 13       		.uleb128 0x13
 3759 0217 02       		.uleb128 0x2
 3760 0218 18       		.uleb128 0x18
 3761 0219 00       		.byte	0
 3762 021a 00       		.byte	0
 3763 021b 29       		.uleb128 0x29
 3764 021c 34       		.uleb128 0x34
 3765 021d 00       		.byte	0
 3766 021e 03       		.uleb128 0x3
 3767 021f 0E       		.uleb128 0xe
 3768 0220 3A       		.uleb128 0x3a
 3769 0221 0B       		.uleb128 0xb
 3770 0222 3B       		.uleb128 0x3b
 3771 0223 05       		.uleb128 0x5
 3772 0224 49       		.uleb128 0x49
 3773 0225 13       		.uleb128 0x13
 3774 0226 02       		.uleb128 0x2
 3775 0227 18       		.uleb128 0x18
 3776 0228 00       		.byte	0
 3777 0229 00       		.byte	0
 3778 022a 2A       		.uleb128 0x2a
 3779 022b 2E       		.uleb128 0x2e
 3780 022c 00       		.byte	0
 3781 022d 3F       		.uleb128 0x3f
 3782 022e 19       		.uleb128 0x19
 3783 022f 03       		.uleb128 0x3
 3784 0230 0E       		.uleb128 0xe
 3785 0231 3A       		.uleb128 0x3a
 3786 0232 0B       		.uleb128 0xb
 3787 0233 3B       		.uleb128 0x3b
 3788 0234 05       		.uleb128 0x5
 3789 0235 27       		.uleb128 0x27
 3790 0236 19       		.uleb128 0x19
ARM GAS  /tmp/cchWoqJA.s 			page 68


 3791 0237 11       		.uleb128 0x11
 3792 0238 01       		.uleb128 0x1
 3793 0239 12       		.uleb128 0x12
 3794 023a 06       		.uleb128 0x6
 3795 023b 40       		.uleb128 0x40
 3796 023c 18       		.uleb128 0x18
 3797 023d 9642     		.uleb128 0x2116
 3798 023f 19       		.uleb128 0x19
 3799 0240 00       		.byte	0
 3800 0241 00       		.byte	0
 3801 0242 2B       		.uleb128 0x2b
 3802 0243 2E       		.uleb128 0x2e
 3803 0244 01       		.byte	0x1
 3804 0245 3F       		.uleb128 0x3f
 3805 0246 19       		.uleb128 0x19
 3806 0247 03       		.uleb128 0x3
 3807 0248 0E       		.uleb128 0xe
 3808 0249 3A       		.uleb128 0x3a
 3809 024a 0B       		.uleb128 0xb
 3810 024b 3B       		.uleb128 0x3b
 3811 024c 05       		.uleb128 0x5
 3812 024d 27       		.uleb128 0x27
 3813 024e 19       		.uleb128 0x19
 3814 024f 11       		.uleb128 0x11
 3815 0250 01       		.uleb128 0x1
 3816 0251 12       		.uleb128 0x12
 3817 0252 06       		.uleb128 0x6
 3818 0253 40       		.uleb128 0x40
 3819 0254 18       		.uleb128 0x18
 3820 0255 9642     		.uleb128 0x2116
 3821 0257 19       		.uleb128 0x19
 3822 0258 01       		.uleb128 0x1
 3823 0259 13       		.uleb128 0x13
 3824 025a 00       		.byte	0
 3825 025b 00       		.byte	0
 3826 025c 2C       		.uleb128 0x2c
 3827 025d 05       		.uleb128 0x5
 3828 025e 00       		.byte	0
 3829 025f 03       		.uleb128 0x3
 3830 0260 0E       		.uleb128 0xe
 3831 0261 3A       		.uleb128 0x3a
 3832 0262 0B       		.uleb128 0xb
 3833 0263 3B       		.uleb128 0x3b
 3834 0264 05       		.uleb128 0x5
 3835 0265 49       		.uleb128 0x49
 3836 0266 13       		.uleb128 0x13
 3837 0267 02       		.uleb128 0x2
 3838 0268 18       		.uleb128 0x18
 3839 0269 00       		.byte	0
 3840 026a 00       		.byte	0
 3841 026b 2D       		.uleb128 0x2d
 3842 026c 2E       		.uleb128 0x2e
 3843 026d 00       		.byte	0
 3844 026e 3F       		.uleb128 0x3f
 3845 026f 19       		.uleb128 0x19
 3846 0270 03       		.uleb128 0x3
 3847 0271 0E       		.uleb128 0xe
ARM GAS  /tmp/cchWoqJA.s 			page 69


 3848 0272 3A       		.uleb128 0x3a
 3849 0273 0B       		.uleb128 0xb
 3850 0274 3B       		.uleb128 0x3b
 3851 0275 05       		.uleb128 0x5
 3852 0276 27       		.uleb128 0x27
 3853 0277 19       		.uleb128 0x19
 3854 0278 11       		.uleb128 0x11
 3855 0279 01       		.uleb128 0x1
 3856 027a 12       		.uleb128 0x12
 3857 027b 06       		.uleb128 0x6
 3858 027c 40       		.uleb128 0x40
 3859 027d 18       		.uleb128 0x18
 3860 027e 9742     		.uleb128 0x2117
 3861 0280 19       		.uleb128 0x19
 3862 0281 00       		.byte	0
 3863 0282 00       		.byte	0
 3864 0283 2E       		.uleb128 0x2e
 3865 0284 34       		.uleb128 0x34
 3866 0285 00       		.byte	0
 3867 0286 03       		.uleb128 0x3
 3868 0287 0E       		.uleb128 0xe
 3869 0288 3A       		.uleb128 0x3a
 3870 0289 0B       		.uleb128 0xb
 3871 028a 3B       		.uleb128 0x3b
 3872 028b 0B       		.uleb128 0xb
 3873 028c 49       		.uleb128 0x49
 3874 028d 13       		.uleb128 0x13
 3875 028e 3F       		.uleb128 0x3f
 3876 028f 19       		.uleb128 0x19
 3877 0290 3C       		.uleb128 0x3c
 3878 0291 19       		.uleb128 0x19
 3879 0292 00       		.byte	0
 3880 0293 00       		.byte	0
 3881 0294 2F       		.uleb128 0x2f
 3882 0295 34       		.uleb128 0x34
 3883 0296 00       		.byte	0
 3884 0297 03       		.uleb128 0x3
 3885 0298 0E       		.uleb128 0xe
 3886 0299 3A       		.uleb128 0x3a
 3887 029a 0B       		.uleb128 0xb
 3888 029b 3B       		.uleb128 0x3b
 3889 029c 05       		.uleb128 0x5
 3890 029d 49       		.uleb128 0x49
 3891 029e 13       		.uleb128 0x13
 3892 029f 3F       		.uleb128 0x3f
 3893 02a0 19       		.uleb128 0x19
 3894 02a1 3C       		.uleb128 0x3c
 3895 02a2 19       		.uleb128 0x19
 3896 02a3 00       		.byte	0
 3897 02a4 00       		.byte	0
 3898 02a5 30       		.uleb128 0x30
 3899 02a6 34       		.uleb128 0x34
 3900 02a7 00       		.byte	0
 3901 02a8 03       		.uleb128 0x3
 3902 02a9 0E       		.uleb128 0xe
 3903 02aa 3A       		.uleb128 0x3a
 3904 02ab 0B       		.uleb128 0xb
ARM GAS  /tmp/cchWoqJA.s 			page 70


 3905 02ac 3B       		.uleb128 0x3b
 3906 02ad 0B       		.uleb128 0xb
 3907 02ae 49       		.uleb128 0x49
 3908 02af 13       		.uleb128 0x13
 3909 02b0 3F       		.uleb128 0x3f
 3910 02b1 19       		.uleb128 0x19
 3911 02b2 02       		.uleb128 0x2
 3912 02b3 18       		.uleb128 0x18
 3913 02b4 00       		.byte	0
 3914 02b5 00       		.byte	0
 3915 02b6 00       		.byte	0
 3916              		.section	.debug_aranges,"",%progbits
 3917 0000 94000000 		.4byte	0x94
 3918 0004 0200     		.2byte	0x2
 3919 0006 00000000 		.4byte	.Ldebug_info0
 3920 000a 04       		.byte	0x4
 3921 000b 00       		.byte	0
 3922 000c 0000     		.2byte	0
 3923 000e 0000     		.2byte	0
 3924 0010 00000000 		.4byte	.LFB118
 3925 0014 18000000 		.4byte	.LFE118-.LFB118
 3926 0018 00000000 		.4byte	.LFB119
 3927 001c 06000000 		.4byte	.LFE119-.LFB119
 3928 0020 00000000 		.4byte	.LFB120
 3929 0024 72000000 		.4byte	.LFE120-.LFB120
 3930 0028 00000000 		.4byte	.LFB121
 3931 002c B0000000 		.4byte	.LFE121-.LFB121
 3932 0030 00000000 		.4byte	.LFB122
 3933 0034 62000000 		.4byte	.LFE122-.LFB122
 3934 0038 00000000 		.4byte	.LFB123
 3935 003c 6A000000 		.4byte	.LFE123-.LFB123
 3936 0040 00000000 		.4byte	.LFB124
 3937 0044 AE010000 		.4byte	.LFE124-.LFB124
 3938 0048 00000000 		.4byte	.LFB125
 3939 004c 08000000 		.4byte	.LFE125-.LFB125
 3940 0050 00000000 		.4byte	.LFB126
 3941 0054 60000000 		.4byte	.LFE126-.LFB126
 3942 0058 00000000 		.4byte	.LFB127
 3943 005c 78000000 		.4byte	.LFE127-.LFB127
 3944 0060 00000000 		.4byte	.LFB128
 3945 0064 58000000 		.4byte	.LFE128-.LFB128
 3946 0068 00000000 		.4byte	.LFB129
 3947 006c 2E000000 		.4byte	.LFE129-.LFB129
 3948 0070 00000000 		.4byte	.LFB130
 3949 0074 88000000 		.4byte	.LFE130-.LFB130
 3950 0078 00000000 		.4byte	.LFB131
 3951 007c 50000000 		.4byte	.LFE131-.LFB131
 3952 0080 00000000 		.4byte	.LFB132
 3953 0084 50000000 		.4byte	.LFE132-.LFB132
 3954 0088 00000000 		.4byte	.LFB133
 3955 008c 02000000 		.4byte	.LFE133-.LFB133
 3956 0090 00000000 		.4byte	0
 3957 0094 00000000 		.4byte	0
 3958              		.section	.debug_ranges,"",%progbits
 3959              	.Ldebug_ranges0:
 3960 0000 00000000 		.4byte	.LFB118
 3961 0004 18000000 		.4byte	.LFE118
ARM GAS  /tmp/cchWoqJA.s 			page 71


 3962 0008 00000000 		.4byte	.LFB119
 3963 000c 06000000 		.4byte	.LFE119
 3964 0010 00000000 		.4byte	.LFB120
 3965 0014 72000000 		.4byte	.LFE120
 3966 0018 00000000 		.4byte	.LFB121
 3967 001c B0000000 		.4byte	.LFE121
 3968 0020 00000000 		.4byte	.LFB122
 3969 0024 62000000 		.4byte	.LFE122
 3970 0028 00000000 		.4byte	.LFB123
 3971 002c 6A000000 		.4byte	.LFE123
 3972 0030 00000000 		.4byte	.LFB124
 3973 0034 AE010000 		.4byte	.LFE124
 3974 0038 00000000 		.4byte	.LFB125
 3975 003c 08000000 		.4byte	.LFE125
 3976 0040 00000000 		.4byte	.LFB126
 3977 0044 60000000 		.4byte	.LFE126
 3978 0048 00000000 		.4byte	.LFB127
 3979 004c 78000000 		.4byte	.LFE127
 3980 0050 00000000 		.4byte	.LFB128
 3981 0054 58000000 		.4byte	.LFE128
 3982 0058 00000000 		.4byte	.LFB129
 3983 005c 2E000000 		.4byte	.LFE129
 3984 0060 00000000 		.4byte	.LFB130
 3985 0064 88000000 		.4byte	.LFE130
 3986 0068 00000000 		.4byte	.LFB131
 3987 006c 50000000 		.4byte	.LFE131
 3988 0070 00000000 		.4byte	.LFB132
 3989 0074 50000000 		.4byte	.LFE132
 3990 0078 00000000 		.4byte	.LFB133
 3991 007c 02000000 		.4byte	.LFE133
 3992 0080 00000000 		.4byte	0
 3993 0084 00000000 		.4byte	0
 3994              		.section	.debug_line,"",%progbits
 3995              	.Ldebug_line0:
 3996 0000 63040000 		.section	.debug_str,"MS",%progbits,1
 3996      02006102 
 3996      00000201 
 3996      FB0E0D00 
 3996      01010101 
 3997              	.LASF57:
 3998 0000 44494552 		.ascii	"DIER\000"
 3998      00
 3999              	.LASF43:
 4000 0005 7354784D 		.ascii	"sTxMailBox\000"
 4000      61696C42 
 4000      6F7800
 4001              	.LASF84:
 4002 0010 52544341 		.ascii	"RTCAN_STOP\000"
 4002      4E5F5354 
 4002      4F5000
 4003              	.LASF128:
 4004 001b 72746361 		.ascii	"rtcanp\000"
 4004      6E7000
 4005              	.LASF151:
 4006 0022 2F686F6D 		.ascii	"/home/ergae/r2p-sdk/core/RTCAN/src/rtcan.c\000"
 4006      652F6572 
 4006      6761652F 
ARM GAS  /tmp/cchWoqJA.s 			page 72


 4006      7232702D 
 4006      73646B2F 
 4007              	.LASF4:
 4008 004d 5F5F7569 		.ascii	"__uint8_t\000"
 4008      6E74385F 
 4008      7400
 4009              	.LASF147:
 4010 0057 76746C69 		.ascii	"vtlist\000"
 4010      737400
 4011              	.LASF146:
 4012 005e 72746361 		.ascii	"rtcan_blinker\000"
 4012      6E5F626C 
 4012      696E6B65 
 4012      7200
 4013              	.LASF55:
 4014 006c 43414E5F 		.ascii	"CAN_TypeDef\000"
 4014      54797065 
 4014      44656600 
 4015              	.LASF74:
 4016 0078 54494D5F 		.ascii	"TIM_TypeDef\000"
 4016      54797065 
 4016      44656600 
 4017              	.LASF118:
 4018 0084 70657269 		.ascii	"period\000"
 4018      6F6400
 4019              	.LASF63:
 4020 008b 43435231 		.ascii	"CCR1\000"
 4020      00
 4021              	.LASF12:
 4022 0090 6C6F6E67 		.ascii	"long long unsigned int\000"
 4022      206C6F6E 
 4022      6720756E 
 4022      7369676E 
 4022      65642069 
 4023              	.LASF103:
 4024 00a7 52544341 		.ascii	"RTCANDriver\000"
 4024      4E447269 
 4024      76657200 
 4025              	.LASF113:
 4026 00b3 64617461 		.ascii	"data32\000"
 4026      333200
 4027              	.LASF76:
 4028 00ba 6E657874 		.ascii	"next\000"
 4028      00
 4029              	.LASF58:
 4030 00bf 43434D52 		.ascii	"CCMR1\000"
 4030      3100
 4031              	.LASF59:
 4032 00c5 43434D52 		.ascii	"CCMR2\000"
 4032      3200
 4033              	.LASF71:
 4034 00cb 43434D52 		.ascii	"CCMR3\000"
 4034      3300
 4035              	.LASF1:
 4036 00d1 7369676E 		.ascii	"signed char\000"
 4036      65642063 
 4036      68617200 
ARM GAS  /tmp/cchWoqJA.s 			page 73


 4037              	.LASF137:
 4038 00dd 72746361 		.ascii	"rtcanStart\000"
 4038      6E537461 
 4038      727400
 4039              	.LASF149:
 4040 00e8 6C617374 		.ascii	"last_sync_tim\000"
 4040      5F73796E 
 4040      635F7469 
 4040      6D00
 4041              	.LASF17:
 4042 00f6 626F6F6C 		.ascii	"bool_t\000"
 4042      5F7400
 4043              	.LASF119:
 4044 00fd 62617564 		.ascii	"baudrate\000"
 4044      72617465 
 4044      00
 4045              	.LASF62:
 4046 0106 52455345 		.ascii	"RESERVED10\000"
 4046      52564544 
 4046      313000
 4047              	.LASF68:
 4048 0111 52455345 		.ascii	"RESERVED12\000"
 4048      52564544 
 4048      313200
 4049              	.LASF70:
 4050 011c 52455345 		.ascii	"RESERVED13\000"
 4050      52564544 
 4050      313300
 4051              	.LASF104:
 4052 0127 73746174 		.ascii	"state\000"
 4052      6500
 4053              	.LASF32:
 4054 012d 54444C52 		.ascii	"TDLR\000"
 4054      00
 4055              	.LASF8:
 4056 0132 6C6F6E67 		.ascii	"long int\000"
 4056      20696E74 
 4056      00
 4057              	.LASF34:
 4058 013b 43414E5F 		.ascii	"CAN_TxMailBox_TypeDef\000"
 4058      54784D61 
 4058      696C426F 
 4058      785F5479 
 4058      70654465 
 4059              	.LASF87:
 4060 0151 52544341 		.ascii	"RTCAN_SYNCING\000"
 4060      4E5F5359 
 4060      4E43494E 
 4060      4700
 4061              	.LASF60:
 4062 015f 43434552 		.ascii	"CCER\000"
 4062      00
 4063              	.LASF11:
 4064 0164 6C6F6E67 		.ascii	"long long int\000"
 4064      206C6F6E 
 4064      6720696E 
 4064      7400
ARM GAS  /tmp/cchWoqJA.s 			page 74


 4065              	.LASF79:
 4066 0172 70617261 		.ascii	"params\000"
 4066      6D7300
 4067              	.LASF123:
 4068 0179 646F7562 		.ascii	"double\000"
 4068      6C6500
 4069              	.LASF105:
 4070 0180 736C6F74 		.ascii	"slot\000"
 4070      00
 4071              	.LASF40:
 4072 0185 52463052 		.ascii	"RF0R\000"
 4072      00
 4073              	.LASF5:
 4074 018a 5F5F7569 		.ascii	"__uint16_t\000"
 4074      6E743136 
 4074      5F7400
 4075              	.LASF125:
 4076 0195 6C6F6E67 		.ascii	"long double\000"
 4076      20646F75 
 4076      626C6500 
 4077              	.LASF9:
 4078 01a1 5F5F7569 		.ascii	"__uint32_t\000"
 4078      6E743332 
 4078      5F7400
 4079              	.LASF145:
 4080 01ac 72746361 		.ascii	"rtcanInit\000"
 4080      6E496E69 
 4080      7400
 4081              	.LASF24:
 4082 01b6 76745F70 		.ascii	"vt_prev\000"
 4082      72657600 
 4083              	.LASF31:
 4084 01be 54445452 		.ascii	"TDTR\000"
 4084      00
 4085              	.LASF67:
 4086 01c3 42445452 		.ascii	"BDTR\000"
 4086      00
 4087              	.LASF36:
 4088 01c8 52444C52 		.ascii	"RDLR\000"
 4088      00
 4089              	.LASF91:
 4090 01cd 52544341 		.ascii	"RTCAN_MSG_UNINIT\000"
 4090      4E5F4D53 
 4090      475F554E 
 4090      494E4954 
 4090      00
 4091              	.LASF0:
 4092 01de 756E7369 		.ascii	"unsigned int\000"
 4092      676E6564 
 4092      20696E74 
 4092      00
 4093              	.LASF23:
 4094 01eb 76745F6E 		.ascii	"vt_next\000"
 4094      65787400 
 4095              	.LASF14:
 4096 01f3 75696E74 		.ascii	"uint16_t\000"
 4096      31365F74 
ARM GAS  /tmp/cchWoqJA.s 			page 75


 4096      00
 4097              	.LASF88:
 4098 01fc 52544341 		.ascii	"RTCAN_SLAVE\000"
 4098      4E5F534C 
 4098      41564500 
 4099              	.LASF10:
 4100 0208 6C6F6E67 		.ascii	"long unsigned int\000"
 4100      20756E73 
 4100      69676E65 
 4100      6420696E 
 4100      7400
 4101              	.LASF101:
 4102 021a 72746361 		.ascii	"rtcan_filter_t\000"
 4102      6E5F6669 
 4102      6C746572 
 4102      5F7400
 4103              	.LASF140:
 4104 0229 74696D65 		.ascii	"timeout\000"
 4104      6F757400 
 4105              	.LASF35:
 4106 0231 52445452 		.ascii	"RDTR\000"
 4106      00
 4107              	.LASF48:
 4108 0236 46533152 		.ascii	"FS1R\000"
 4108      00
 4109              	.LASF22:
 4110 023b 56697274 		.ascii	"VirtualTimer\000"
 4110      75616C54 
 4110      696D6572 
 4110      00
 4111              	.LASF81:
 4112 0248 64617461 		.ascii	"data\000"
 4112      00
 4113              	.LASF56:
 4114 024d 534D4352 		.ascii	"SMCR\000"
 4114      00
 4115              	.LASF41:
 4116 0252 52463152 		.ascii	"RF1R\000"
 4116      00
 4117              	.LASF39:
 4118 0257 43414E5F 		.ascii	"CAN_FilterRegister_TypeDef\000"
 4118      46696C74 
 4118      65725265 
 4118      67697374 
 4118      65725F54 
 4119              	.LASF78:
 4120 0272 63616C6C 		.ascii	"callback\000"
 4120      6261636B 
 4120      00
 4121              	.LASF99:
 4122 027b 72746361 		.ascii	"rtcan_id_t\000"
 4122      6E5F6964 
 4122      5F7400
 4123              	.LASF54:
 4124 0286 7346696C 		.ascii	"sFilterRegister\000"
 4124      74657252 
 4124      65676973 
ARM GAS  /tmp/cchWoqJA.s 			page 76


 4124      74657200 
 4125              	.LASF46:
 4126 0296 464D3152 		.ascii	"FM1R\000"
 4126      00
 4127              	.LASF7:
 4128 029b 5F5F696E 		.ascii	"__int32_t\000"
 4128      7433325F 
 4128      7400
 4129              	.LASF130:
 4130 02a5 6D736770 		.ascii	"msgp\000"
 4130      00
 4131              	.LASF144:
 4132 02aa 6D61736B 		.ascii	"mask\000"
 4132      00
 4133              	.LASF97:
 4134 02af 52544341 		.ascii	"RTCAN_MSG_ERROR\000"
 4134      4E5F4D53 
 4134      475F4552 
 4134      524F5200 
 4135              	.LASF98:
 4136 02bf 72746361 		.ascii	"rtcan_msgstatus_t\000"
 4136      6E5F6D73 
 4136      67737461 
 4136      7475735F 
 4136      7400
 4137              	.LASF95:
 4138 02d1 52544341 		.ascii	"RTCAN_MSG_ONAIR\000"
 4138      4E5F4D53 
 4138      475F4F4E 
 4138      41495200 
 4139              	.LASF25:
 4140 02e1 76745F74 		.ascii	"vt_time\000"
 4140      696D6500 
 4141              	.LASF134:
 4142 02e9 736F7572 		.ascii	"source\000"
 4142      636500
 4143              	.LASF20:
 4144 02f0 73697A65 		.ascii	"sizetype\000"
 4144      74797065 
 4144      00
 4145              	.LASF85:
 4146 02f9 52544341 		.ascii	"RTCAN_STARTING\000"
 4146      4E5F5354 
 4146      41525449 
 4146      4E4700
 4147              	.LASF26:
 4148 0308 76745F66 		.ascii	"vt_func\000"
 4148      756E6300 
 4149              	.LASF108:
 4150 0310 6F6E6169 		.ascii	"onair\000"
 4150      7200
 4151              	.LASF83:
 4152 0316 52544341 		.ascii	"RTCAN_UNINIT\000"
 4152      4E5F554E 
 4152      494E4954 
 4152      00
 4153              	.LASF111:
ARM GAS  /tmp/cchWoqJA.s 			page 77


 4154 0323 64617461 		.ascii	"data8\000"
 4154      3800
 4155              	.LASF29:
 4156 0329 56544C69 		.ascii	"VTList\000"
 4156      737400
 4157              	.LASF135:
 4158 0330 70726576 		.ascii	"prevsource\000"
 4158      736F7572 
 4158      636500
 4159              	.LASF33:
 4160 033b 54444852 		.ascii	"TDHR\000"
 4160      00
 4161              	.LASF121:
 4162 0340 736C6F74 		.ascii	"slots\000"
 4162      7300
 4163              	.LASF82:
 4164 0346 72746361 		.ascii	"rtcan_msgcallback_t\000"
 4164      6E5F6D73 
 4164      6763616C 
 4164      6C626163 
 4164      6B5F7400 
 4165              	.LASF50:
 4166 035a 46464131 		.ascii	"FFA1R\000"
 4166      5200
 4167              	.LASF90:
 4168 0360 72746361 		.ascii	"rtcanstate_t\000"
 4168      6E737461 
 4168      74655F74 
 4168      00
 4169              	.LASF124:
 4170 036d 666C6F61 		.ascii	"float\000"
 4170      7400
 4171              	.LASF129:
 4172 0373 6D626F78 		.ascii	"mbox\000"
 4172      00
 4173              	.LASF42:
 4174 0378 52455345 		.ascii	"RESERVED0\000"
 4174      52564544 
 4174      3000
 4175              	.LASF45:
 4176 0382 52455345 		.ascii	"RESERVED1\000"
 4176      52564544 
 4176      3100
 4177              	.LASF47:
 4178 038c 52455345 		.ascii	"RESERVED2\000"
 4178      52564544 
 4178      3200
 4179              	.LASF49:
 4180 0396 52455345 		.ascii	"RESERVED3\000"
 4180      52564544 
 4180      3300
 4181              	.LASF96:
 4182 03a0 52544341 		.ascii	"RTCAN_MSG_TIMEOUT\000"
 4182      4E5F4D53 
 4182      475F5449 
 4182      4D454F55 
 4182      5400
ARM GAS  /tmp/cchWoqJA.s 			page 78


 4183              	.LASF52:
 4184 03b2 46413152 		.ascii	"FA1R\000"
 4184      00
 4185              	.LASF61:
 4186 03b7 52455345 		.ascii	"RESERVED9\000"
 4186      52564544 
 4186      3900
 4187              	.LASF18:
 4188 03c1 5F426F6F 		.ascii	"_Bool\000"
 4188      6C00
 4189              	.LASF15:
 4190 03c7 696E7433 		.ascii	"int32_t\000"
 4190      325F7400 
 4191              	.LASF2:
 4192 03cf 756E7369 		.ascii	"unsigned char\000"
 4192      676E6564 
 4192      20636861 
 4192      7200
 4193              	.LASF148:
 4194 03dd 49544D5F 		.ascii	"ITM_RxBuffer\000"
 4194      52784275 
 4194      66666572 
 4194      00
 4195              	.LASF3:
 4196 03ea 73686F72 		.ascii	"short int\000"
 4196      7420696E 
 4196      7400
 4197              	.LASF143:
 4198 03f4 72746361 		.ascii	"rtcanReceiveMask\000"
 4198      6E526563 
 4198      65697665 
 4198      4D61736B 
 4198      00
 4199              	.LASF116:
 4200 0405 72746361 		.ascii	"rtcan_rxframe_t\000"
 4200      6E5F7278 
 4200      6672616D 
 4200      655F7400 
 4201              	.LASF94:
 4202 0415 52544341 		.ascii	"RTCAN_MSG_QUEUED\000"
 4202      4E5F4D53 
 4202      475F5155 
 4202      45554544 
 4202      00
 4203              	.LASF114:
 4204 0426 66726167 		.ascii	"fragment\000"
 4204      6D656E74 
 4204      00
 4205              	.LASF93:
 4206 042f 52544341 		.ascii	"RTCAN_MSG_READY\000"
 4206      4E5F4D53 
 4206      475F5245 
 4206      41445900 
 4207              	.LASF152:
 4208 043f 73746D33 		.ascii	"stm32_id8\000"
 4208      325F6964 
 4208      3800
ARM GAS  /tmp/cchWoqJA.s 			page 79


 4209              	.LASF53:
 4210 0449 52455345 		.ascii	"RESERVED5\000"
 4210      52564544 
 4210      3500
 4211              	.LASF16:
 4212 0453 75696E74 		.ascii	"uint32_t\000"
 4212      33325F74 
 4212      00
 4213              	.LASF28:
 4214 045c 76745F73 		.ascii	"vt_systime\000"
 4214      79737469 
 4214      6D6500
 4215              	.LASF138:
 4216 0467 72746361 		.ascii	"rtcanStop\000"
 4216      6E53746F 
 4216      7000
 4217              	.LASF30:
 4218 0471 63686172 		.ascii	"char\000"
 4218      00
 4219              	.LASF75:
 4220 0476 72746361 		.ascii	"rtcan_msg_t\000"
 4220      6E5F6D73 
 4220      675F7400 
 4221              	.LASF107:
 4222 0482 7372745F 		.ascii	"srt_queue\000"
 4222      71756575 
 4222      6500
 4223              	.LASF133:
 4224 048c 72746361 		.ascii	"rtcan_rx_isr_code\000"
 4224      6E5F7278 
 4224      5F697372 
 4224      5F636F64 
 4224      6500
 4225              	.LASF110:
 4226 049e 636F6E66 		.ascii	"config\000"
 4226      696700
 4227              	.LASF136:
 4228 04a5 72746361 		.ascii	"rtcanReset\000"
 4228      6E526573 
 4228      657400
 4229              	.LASF69:
 4230 04b0 444D4152 		.ascii	"DMAR\000"
 4230      00
 4231              	.LASF37:
 4232 04b5 52444852 		.ascii	"RDHR\000"
 4232      00
 4233              	.LASF142:
 4234 04ba 72746361 		.ascii	"rtcanReceive\000"
 4234      6E526563 
 4234      65697665 
 4234      00
 4235              	.LASF19:
 4236 04c7 73797374 		.ascii	"systime_t\000"
 4236      696D655F 
 4236      7400
 4237              	.LASF126:
 4238 04d1 72746361 		.ascii	"rtcan_tim_isr_code\000"
ARM GAS  /tmp/cchWoqJA.s 			page 80


 4238      6E5F7469 
 4238      6D5F6973 
 4238      725F636F 
 4238      646500
 4239              	.LASF21:
 4240 04e4 76746675 		.ascii	"vtfunc_t\000"
 4240      6E635F74 
 4240      00
 4241              	.LASF44:
 4242 04ed 73464946 		.ascii	"sFIFOMailBox\000"
 4242      4F4D6169 
 4242      6C426F78 
 4242      00
 4243              	.LASF131:
 4244 04fa 72746361 		.ascii	"rtcan_alst_isr_code\000"
 4244      6E5F616C 
 4244      73745F69 
 4244      73725F63 
 4244      6F646500 
 4245              	.LASF92:
 4246 050e 52544341 		.ascii	"RTCAN_MSG_BUSY\000"
 4246      4E5F4D53 
 4246      475F4255 
 4246      535900
 4247              	.LASF6:
 4248 051d 73686F72 		.ascii	"short unsigned int\000"
 4248      7420756E 
 4248      7369676E 
 4248      65642069 
 4248      6E7400
 4249              	.LASF51:
 4250 0530 52455345 		.ascii	"RESERVED4\000"
 4250      52564544 
 4250      3400
 4251              	.LASF139:
 4252 053a 72746361 		.ascii	"rtcanTransmit\000"
 4252      6E547261 
 4252      6E736D69 
 4252      7400
 4253              	.LASF115:
 4254 0548 66696C74 		.ascii	"filter\000"
 4254      657200
 4255              	.LASF141:
 4256 054f 72746361 		.ascii	"rtcanTransmitI\000"
 4256      6E547261 
 4256      6E736D69 
 4256      744900
 4257              	.LASF27:
 4258 055e 76745F70 		.ascii	"vt_par\000"
 4258      617200
 4259              	.LASF106:
 4260 0565 6379636C 		.ascii	"cycle\000"
 4260      6500
 4261              	.LASF112:
 4262 056b 64617461 		.ascii	"data16\000"
 4262      313600
 4263              	.LASF64:
ARM GAS  /tmp/cchWoqJA.s 			page 81


 4264 0572 43435232 		.ascii	"CCR2\000"
 4264      00
 4265              	.LASF65:
 4266 0577 43435233 		.ascii	"CCR3\000"
 4266      00
 4267              	.LASF66:
 4268 057c 43435234 		.ascii	"CCR4\000"
 4268      00
 4269              	.LASF72:
 4270 0581 43435235 		.ascii	"CCR5\000"
 4270      00
 4271              	.LASF73:
 4272 0586 43435236 		.ascii	"CCR6\000"
 4272      00
 4273              	.LASF77:
 4274 058b 73746174 		.ascii	"status\000"
 4274      757300
 4275              	.LASF38:
 4276 0592 43414E5F 		.ascii	"CAN_FIFOMailBox_TypeDef\000"
 4276      4649464F 
 4276      4D61696C 
 4276      426F785F 
 4276      54797065 
 4277              	.LASF100:
 4278 05aa 72746361 		.ascii	"rtcan_mbox_t\000"
 4278      6E5F6D62 
 4278      6F785F74 
 4278      00
 4279              	.LASF13:
 4280 05b7 75696E74 		.ascii	"uint8_t\000"
 4280      385F7400 
 4281              	.LASF86:
 4282 05bf 52544341 		.ascii	"RTCAN_ERROR\000"
 4282      4E5F4552 
 4282      524F5200 
 4283              	.LASF132:
 4284 05cb 72746361 		.ascii	"rtcan_terr_isr_code\000"
 4284      6E5F7465 
 4284      72725F69 
 4284      73725F63 
 4284      6F646500 
 4285              	.LASF80:
 4286 05df 73697A65 		.ascii	"size\000"
 4286      00
 4287              	.LASF89:
 4288 05e4 52544341 		.ascii	"RTCAN_MASTER\000"
 4288      4E5F4D41 
 4288      53544552 
 4288      00
 4289              	.LASF122:
 4290 05f1 52544341 		.ascii	"RTCANConfig\000"
 4290      4E436F6E 
 4290      66696700 
 4291              	.LASF120:
 4292 05fd 636C6F63 		.ascii	"clock\000"
 4292      6B00
 4293              	.LASF153:
ARM GAS  /tmp/cchWoqJA.s 			page 82


 4294 0603 72746361 		.ascii	"rtcan_ismaster\000"
 4294      6E5F6973 
 4294      6D617374 
 4294      657200
 4295              	.LASF117:
 4296 0612 64656164 		.ascii	"deadline\000"
 4296      6C696E65 
 4296      00
 4297              	.LASF127:
 4298 061b 72746361 		.ascii	"rtcan_txok_isr_code\000"
 4298      6E5F7478 
 4298      6F6B5F69 
 4298      73725F63 
 4298      6F646500 
 4299              	.LASF150:
 4300 062f 474E5520 		.ascii	"GNU C 4.9.3 20141119 (release) [ARM/embedded-4_9-br"
 4300      4320342E 
 4300      392E3320 
 4300      32303134 
 4300      31313139 
 4301 0662 616E6368 		.ascii	"anch revision 218278] -mcpu=cortex-m4 -mfloat-abi=h"
 4301      20726576 
 4301      6973696F 
 4301      6E203231 
 4301      38323738 
 4302 0695 61726420 		.ascii	"ard -mfpu=fpv4-sp-d16 -mno-thumb-interwork -mthumb "
 4302      2D6D6670 
 4302      753D6670 
 4302      76342D73 
 4302      702D6431 
 4303 06c8 2D676764 		.ascii	"-ggdb -O0 -fomit-frame-pointer -falign-functions=16"
 4303      62202D4F 
 4303      30202D66 
 4303      6F6D6974 
 4303      2D667261 
 4304 06fb 202D6666 		.ascii	" -ffunction-sections -fdata-sections -fno-common -f"
 4304      756E6374 
 4304      696F6E2D 
 4304      73656374 
 4304      696F6E73 
 4305 072e 73696E67 		.ascii	"single-precision-constant\000"
 4305      6C652D70 
 4305      72656369 
 4305      73696F6E 
 4305      2D636F6E 
 4306              	.LASF109:
 4307 0748 66696C74 		.ascii	"filters\000"
 4307      65727300 
 4308              	.LASF102:
 4309 0750 6D736771 		.ascii	"msgqueue_t\000"
 4309      75657565 
 4309      5F7400
 4310              		.ident	"GCC: (GNU Tools for ARM Embedded Processors) 4.9.3 20141119 (release) [ARM/embedded-4_9-br
ARM GAS  /tmp/cchWoqJA.s 			page 83


DEFINED SYMBOLS
                            *ABS*:00000000 rtcan.c
     /tmp/cchWoqJA.s:25     .bss.last_sync_tim:00000000 last_sync_tim
     /tmp/cchWoqJA.s:22     .bss.last_sync_tim:00000000 $d
     /tmp/cchWoqJA.s:28     .text.stm32_id8:00000000 $t
     /tmp/cchWoqJA.s:34     .text.stm32_id8:00000000 stm32_id8
     /tmp/cchWoqJA.s:61     .text.stm32_id8:00000014 $d
     /tmp/cchWoqJA.s:66     .text.rtcan_ismaster:00000000 $t
     /tmp/cchWoqJA.s:72     .text.rtcan_ismaster:00000000 rtcan_ismaster
     /tmp/cchWoqJA.s:88     .text.rtcan_tim_isr_code:00000000 $t
     /tmp/cchWoqJA.s:94     .text.rtcan_tim_isr_code:00000000 rtcan_tim_isr_code
     /tmp/cchWoqJA.s:192    .text.rtcan_txok_isr_code:00000000 $t
     /tmp/cchWoqJA.s:198    .text.rtcan_txok_isr_code:00000000 rtcan_txok_isr_code
     /tmp/cchWoqJA.s:306    .text.rtcan_alst_isr_code:00000000 $t
     /tmp/cchWoqJA.s:312    .text.rtcan_alst_isr_code:00000000 rtcan_alst_isr_code
     /tmp/cchWoqJA.s:386    .text.rtcan_terr_isr_code:00000000 $t
     /tmp/cchWoqJA.s:392    .text.rtcan_terr_isr_code:00000000 rtcan_terr_isr_code
     /tmp/cchWoqJA.s:471    .text.rtcan_rx_isr_code:00000000 $t
     /tmp/cchWoqJA.s:477    .text.rtcan_rx_isr_code:00000000 rtcan_rx_isr_code
     /tmp/cchWoqJA.s:740    .text.rtcanInit:00000000 $t
     /tmp/cchWoqJA.s:746    .text.rtcanInit:00000000 rtcanInit
     /tmp/cchWoqJA.s:764    .text.rtcanReset:00000000 $t
     /tmp/cchWoqJA.s:770    .text.rtcanReset:00000000 rtcanReset
     /tmp/cchWoqJA.s:846    .rodata:00000000 $d
     /tmp/cchWoqJA.s:853    .text.rtcanStart:00000000 $t
     /tmp/cchWoqJA.s:859    .text.rtcanStart:00000000 rtcanStart
     /tmp/cchWoqJA.s:1330   .text.rtcan_blinker:00000000 rtcan_blinker
     /tmp/cchWoqJA.s:951    .text.rtcanStart:00000070 $d
     /tmp/cchWoqJA.s:964    .text.rtcanStop:00000000 $t
     /tmp/cchWoqJA.s:970    .text.rtcanStop:00000000 rtcanStop
     /tmp/cchWoqJA.s:1037   .text.rtcanStop:00000050 $d
     /tmp/cchWoqJA.s:1043   .text.rtcanTransmit:00000000 $t
     /tmp/cchWoqJA.s:1049   .text.rtcanTransmit:00000000 rtcanTransmit
     /tmp/cchWoqJA.s:1101   .text.rtcanTransmitI:00000000 rtcanTransmitI
     /tmp/cchWoqJA.s:1095   .text.rtcanTransmitI:00000000 $t
     /tmp/cchWoqJA.s:1183   .text.rtcanTransmitI:00000084 $d
     /tmp/cchWoqJA.s:1188   .text.rtcanReceive:00000000 $t
     /tmp/cchWoqJA.s:1194   .text.rtcanReceive:00000000 rtcanReceive
     /tmp/cchWoqJA.s:1252   .text.rtcanReceive:0000004c $d
     /tmp/cchWoqJA.s:1257   .text.rtcanReceiveMask:00000000 $t
     /tmp/cchWoqJA.s:1263   .text.rtcanReceiveMask:00000000 rtcanReceiveMask
     /tmp/cchWoqJA.s:1324   .text.rtcan_blinker:00000000 $t
                     .debug_frame:00000010 $d
     /tmp/cchWoqJA.s:65     .text.stm32_id8:00000018 $t
     /tmp/cchWoqJA.s:956    .text.rtcanStart:00000078 $t
     /tmp/cchWoqJA.s:1042   .text.rtcanStop:00000058 $t
     /tmp/cchWoqJA.s:1187   .text.rtcanTransmitI:00000088 $t

UNDEFINED SYMBOLS
dbg_check_lock_from_isr
dbg_check_unlock_from_isr
srt_transmit
msgqueue_insert
rtcan_lld_can_receive
rtcan_lld_can_init
msgqueue_init
chDbgPanic
ARM GAS  /tmp/cchWoqJA.s 			page 84


dbg_check_lock
rtcan_lld_can_start
dbg_check_unlock
rtcan_lld_can_stop
vtlist
rtcan_lld_can_addfilter
