ARM GAS  /tmp/ccfWo18f.s 			page 1


   1              		.syntax unified
   2              		.cpu cortex-m4
   3              		.eabi_attribute 27, 3
   4              		.eabi_attribute 28, 1
   5              		.fpu fpv4-sp-d16
   6              		.eabi_attribute 20, 1
   7              		.eabi_attribute 21, 1
   8              		.eabi_attribute 23, 3
   9              		.eabi_attribute 24, 1
  10              		.eabi_attribute 25, 1
  11              		.eabi_attribute 26, 1
  12              		.eabi_attribute 30, 6
  13              		.eabi_attribute 34, 1
  14              		.eabi_attribute 18, 4
  15              		.thumb
  16              		.file	"RTCANTransport.cpp"
  17              		.text
  18              	.Ltext0:
  19              		.cfi_sections	.debug_frame
  20              		.section	.text._ZN3r2p10UncopyableC2Ev,"axG",%progbits,_ZN3r2p10UncopyableC5Ev,comdat
  21              		.align	2
  22              		.p2align 4,,15
  23              		.weak	_ZN3r2p10UncopyableC2Ev
  24              		.thumb
  25              		.thumb_func
  26              		.type	_ZN3r2p10UncopyableC2Ev, %function
  27              	_ZN3r2p10UncopyableC2Ev:
  28              	.LFB6:
  29              		.file 1 "/home/ergae/r2p-sdk/core/Middleware/include/r2p/Uncopyable.hpp"
  30              		.loc 1 20 0
  31              		.cfi_startproc
  32              		@ args = 0, pretend = 0, frame = 8
  33              		@ frame_needed = 0, uses_anonymous_args = 0
  34              		@ link register save eliminated.
  35 0000 82B0     		sub	sp, sp, #8
  36              		.cfi_def_cfa_offset 8
  37 0002 0190     		str	r0, [sp, #4]
  38              		.loc 1 20 0
  39 0004 019B     		ldr	r3, [sp, #4]
  40 0006 1846     		mov	r0, r3
  41 0008 02B0     		add	sp, sp, #8
  42              		.cfi_def_cfa_offset 0
  43              		@ sp needed
  44 000a 7047     		bx	lr
  45              		.cfi_endproc
  46              	.LFE6:
  47              		.size	_ZN3r2p10UncopyableC2Ev, .-_ZN3r2p10UncopyableC2Ev
  48              		.weak	_ZN3r2p10UncopyableC1Ev
  49              		.thumb_set _ZN3r2p10UncopyableC1Ev,_ZN3r2p10UncopyableC2Ev
  50 000c AFF30080 		.section	.text._ZN3r2p10UncopyableD2Ev,"axG",%progbits,_ZN3r2p10UncopyableD5Ev,comdat
  51              		.align	2
  52              		.p2align 4,,15
  53              		.weak	_ZN3r2p10UncopyableD2Ev
  54              		.thumb
  55              		.thumb_func
  56              		.type	_ZN3r2p10UncopyableD2Ev, %function
  57              	_ZN3r2p10UncopyableD2Ev:
ARM GAS  /tmp/ccfWo18f.s 			page 2


  58              	.LFB9:
  59              		.loc 1 21 0
  60              		.cfi_startproc
  61              		@ args = 0, pretend = 0, frame = 8
  62              		@ frame_needed = 0, uses_anonymous_args = 0
  63              		@ link register save eliminated.
  64 0000 82B0     		sub	sp, sp, #8
  65              		.cfi_def_cfa_offset 8
  66 0002 0190     		str	r0, [sp, #4]
  67              		.loc 1 21 0
  68 0004 019B     		ldr	r3, [sp, #4]
  69 0006 1846     		mov	r0, r3
  70 0008 02B0     		add	sp, sp, #8
  71              		.cfi_def_cfa_offset 0
  72              		@ sp needed
  73 000a 7047     		bx	lr
  74              		.cfi_endproc
  75              	.LFE9:
  76              		.size	_ZN3r2p10UncopyableD2Ev, .-_ZN3r2p10UncopyableD2Ev
  77              		.weak	_ZN3r2p10UncopyableD1Ev
  78              		.thumb_set _ZN3r2p10UncopyableD1Ev,_ZN3r2p10UncopyableD2Ev
  79 000c AFF30080 		.section	.text._ZN3r2p8SysLock_7acquireEv,"axG",%progbits,_ZN3r2p8SysLock_7acquireEv,comdat
  80              		.align	2
  81              		.p2align 4,,15
  82              		.weak	_ZN3r2p8SysLock_7acquireEv
  83              		.thumb
  84              		.thumb_func
  85              		.type	_ZN3r2p8SysLock_7acquireEv, %function
  86              	_ZN3r2p8SysLock_7acquireEv:
  87              	.LFB18:
  88              		.file 2 "/home/ergae/r2p-sdk/core/Middleware/port/chibios/include/r2p/impl/SysLock_.hpp"
  89              		.loc 2 20 0
  90              		.cfi_startproc
  91              		@ args = 0, pretend = 0, frame = 0
  92              		@ frame_needed = 0, uses_anonymous_args = 0
  93 0000 08B5     		push	{r3, lr}
  94              		.cfi_def_cfa_offset 8
  95              		.cfi_offset 3, -8
  96              		.cfi_offset 14, -4
  97              	.LBB5:
  98              	.LBB6:
  99              	.LBB7:
 100              		.loc 2 22 0
 101 0002 2023     		movs	r3, #32
 102              	@ 22 "/home/ergae/r2p-sdk/core/Middleware/port/chibios/include/r2p/impl/SysLock_.hpp" 1
 103 0004 83F31188 		msr     BASEPRI, r3
 104              	@ 0 "" 2
 105              		.thumb
 106              	.LBE7:
 107 0008 FFF7FEFF 		bl	dbg_check_lock
 108              	.LBE6:
 109              	.LBE5:
 110              		.loc 2 23 0
 111 000c 08BD     		pop	{r3, pc}
 112              		.cfi_endproc
 113              	.LFE18:
 114              		.size	_ZN3r2p8SysLock_7acquireEv, .-_ZN3r2p8SysLock_7acquireEv
ARM GAS  /tmp/ccfWo18f.s 			page 3


 115 000e 00BF     		.section	.text._ZN3r2p8SysLock_7releaseEv,"axG",%progbits,_ZN3r2p8SysLock_7releaseEv,comdat
 116              		.align	2
 117              		.p2align 4,,15
 118              		.weak	_ZN3r2p8SysLock_7releaseEv
 119              		.thumb
 120              		.thumb_func
 121              		.type	_ZN3r2p8SysLock_7releaseEv, %function
 122              	_ZN3r2p8SysLock_7releaseEv:
 123              	.LFB19:
 124              		.loc 2 27 0
 125              		.cfi_startproc
 126              		@ args = 0, pretend = 0, frame = 0
 127              		@ frame_needed = 0, uses_anonymous_args = 0
 128 0000 08B5     		push	{r3, lr}
 129              		.cfi_def_cfa_offset 8
 130              		.cfi_offset 3, -8
 131              		.cfi_offset 14, -4
 132              	.LBB8:
 133              	.LBB9:
 134              		.loc 2 29 0
 135 0002 FFF7FEFF 		bl	dbg_check_unlock
 136              	.LBB10:
 137 0006 0023     		movs	r3, #0
 138              	@ 29 "/home/ergae/r2p-sdk/core/Middleware/port/chibios/include/r2p/impl/SysLock_.hpp" 1
 139 0008 83F31188 		msr     BASEPRI, r3
 140              	@ 0 "" 2
 141              		.thumb
 142              	.LBE10:
 143              	.LBE9:
 144              	.LBE8:
 145              		.loc 2 30 0
 146 000c 08BD     		pop	{r3, pc}
 147              		.cfi_endproc
 148              	.LFE19:
 149              		.size	_ZN3r2p8SysLock_7releaseEv, .-_ZN3r2p8SysLock_7releaseEv
 150 000e 00BF     		.section	.text._ZN3r2p7SysLock7acquireEv,"axG",%progbits,_ZN3r2p7SysLock7acquireEv,comdat
 151              		.align	2
 152              		.p2align 4,,15
 153              		.weak	_ZN3r2p7SysLock7acquireEv
 154              		.thumb
 155              		.thumb_func
 156              		.type	_ZN3r2p7SysLock7acquireEv, %function
 157              	_ZN3r2p7SysLock7acquireEv:
 158              	.LFB26:
 159              		.file 3 "/home/ergae/r2p-sdk/core/Middleware/include/r2p/SysLock.hpp"
 160              		.loc 3 27 0
 161              		.cfi_startproc
 162              		@ args = 0, pretend = 0, frame = 0
 163              		@ frame_needed = 0, uses_anonymous_args = 0
 164 0000 08B5     		push	{r3, lr}
 165              		.cfi_def_cfa_offset 8
 166              		.cfi_offset 3, -8
 167              		.cfi_offset 14, -4
 168              		.loc 3 29 0
 169 0002 FFF7FEFF 		bl	_ZN3r2p8SysLock_7acquireEv
 170              		.loc 3 30 0
 171 0006 08BD     		pop	{r3, pc}
ARM GAS  /tmp/ccfWo18f.s 			page 4


 172              		.cfi_endproc
 173              	.LFE26:
 174              		.size	_ZN3r2p7SysLock7acquireEv, .-_ZN3r2p7SysLock7acquireEv
 175 0008 AFF30080 		.section	.text._ZN3r2p7SysLock7releaseEv,"axG",%progbits,_ZN3r2p7SysLock7releaseEv,comdat
 175      AFF30080 
 176              		.align	2
 177              		.p2align 4,,15
 178              		.weak	_ZN3r2p7SysLock7releaseEv
 179              		.thumb
 180              		.thumb_func
 181              		.type	_ZN3r2p7SysLock7releaseEv, %function
 182              	_ZN3r2p7SysLock7releaseEv:
 183              	.LFB27:
 184              		.loc 3 34 0
 185              		.cfi_startproc
 186              		@ args = 0, pretend = 0, frame = 0
 187              		@ frame_needed = 0, uses_anonymous_args = 0
 188 0000 08B5     		push	{r3, lr}
 189              		.cfi_def_cfa_offset 8
 190              		.cfi_offset 3, -8
 191              		.cfi_offset 14, -4
 192              		.loc 3 36 0
 193 0002 FFF7FEFF 		bl	_ZN3r2p8SysLock_7releaseEv
 194              		.loc 3 37 0
 195 0006 08BD     		pop	{r3, pc}
 196              		.cfi_endproc
 197              	.LFE27:
 198              		.size	_ZN3r2p7SysLock7releaseEv, .-_ZN3r2p7SysLock7releaseEv
 199              		.section	.text._ZN3r2p4TimeC2Ev,"axG",%progbits,_ZN3r2p4TimeC5Ev,comdat
 200              		.align	2
 201              		.p2align 4,,15
 202              		.weak	_ZN3r2p4TimeC2Ev
 203              		.thumb
 204              		.thumb_func
 205              		.type	_ZN3r2p4TimeC2Ev, %function
 206              	_ZN3r2p4TimeC2Ev:
 207              	.LFB144:
 208              		.file 4 "/home/ergae/r2p-sdk/core/Middleware/include/r2p/Time.hpp"
 209              		.loc 4 155 0
 210              		.cfi_startproc
 211              		@ args = 0, pretend = 0, frame = 8
 212              		@ frame_needed = 0, uses_anonymous_args = 0
 213              		@ link register save eliminated.
 214 0000 82B0     		sub	sp, sp, #8
 215              		.cfi_def_cfa_offset 8
 216 0002 0190     		str	r0, [sp, #4]
 217              	.LBB11:
 218              		.loc 4 155 0
 219 0004 019B     		ldr	r3, [sp, #4]
 220 0006 0022     		movs	r2, #0
 221 0008 1A60     		str	r2, [r3]
 222              	.LBE11:
 223 000a 019B     		ldr	r3, [sp, #4]
 224 000c 1846     		mov	r0, r3
 225 000e 02B0     		add	sp, sp, #8
 226              		.cfi_def_cfa_offset 0
 227              		@ sp needed
ARM GAS  /tmp/ccfWo18f.s 			page 5


 228 0010 7047     		bx	lr
 229              		.cfi_endproc
 230              	.LFE144:
 231              		.size	_ZN3r2p4TimeC2Ev, .-_ZN3r2p4TimeC2Ev
 232              		.weak	_ZN3r2p4TimeC1Ev
 233              		.thumb_set _ZN3r2p4TimeC1Ev,_ZN3r2p4TimeC2Ev
 234 0012 00BFAFF3 		.section	.text._ZN3r2p22TimestampedMsgPtrQueue5EntryC2Ev,"axG",%progbits,_ZN3r2p22TimestampedMsgPt
 234      0080AFF3 
 234      0080AFF3 
 234      0080
 235              		.align	2
 236              		.p2align 4,,15
 237              		.weak	_ZN3r2p22TimestampedMsgPtrQueue5EntryC2Ev
 238              		.thumb
 239              		.thumb_func
 240              		.type	_ZN3r2p22TimestampedMsgPtrQueue5EntryC2Ev, %function
 241              	_ZN3r2p22TimestampedMsgPtrQueue5EntryC2Ev:
 242              	.LFB180:
 243              		.file 5 "/home/ergae/r2p-sdk/core/Middleware/include/r2p/TimestampedMsgPtrQueue.hpp"
 244              		.loc 5 106 0
 245              		.cfi_startproc
 246              		@ args = 0, pretend = 0, frame = 8
 247              		@ frame_needed = 0, uses_anonymous_args = 0
 248 0000 00B5     		push	{lr}
 249              		.cfi_def_cfa_offset 4
 250              		.cfi_offset 14, -4
 251 0002 83B0     		sub	sp, sp, #12
 252              		.cfi_def_cfa_offset 16
 253 0004 0190     		str	r0, [sp, #4]
 254              	.LBB12:
 255              		.loc 5 108 0
 256 0006 019B     		ldr	r3, [sp, #4]
 257 0008 0022     		movs	r2, #0
 258 000a 1A60     		str	r2, [r3]
 259 000c 019B     		ldr	r3, [sp, #4]
 260 000e 0433     		adds	r3, r3, #4
 261 0010 1846     		mov	r0, r3
 262 0012 FFF7FEFF 		bl	_ZN3r2p4TimeC1Ev
 263              	.LBE12:
 264              		.loc 5 109 0
 265 0016 019B     		ldr	r3, [sp, #4]
 266 0018 1846     		mov	r0, r3
 267 001a 03B0     		add	sp, sp, #12
 268              		.cfi_def_cfa_offset 4
 269              		@ sp needed
 270 001c 5DF804FB 		ldr	pc, [sp], #4
 271              		.cfi_endproc
 272              	.LFE180:
 273              		.size	_ZN3r2p22TimestampedMsgPtrQueue5EntryC2Ev, .-_ZN3r2p22TimestampedMsgPtrQueue5EntryC2Ev
 274              		.weak	_ZN3r2p22TimestampedMsgPtrQueue5EntryC1Ev
 275              		.thumb_set _ZN3r2p22TimestampedMsgPtrQueue5EntryC1Ev,_ZN3r2p22TimestampedMsgPtrQueue5EntryC2Ev
 276              		.section	.text._ZNK3r2p7Message12get_raw_dataEv,"axG",%progbits,_ZNK3r2p7Message12get_raw_dataEv,c
 277              		.align	2
 278              		.p2align 4,,15
 279              		.weak	_ZNK3r2p7Message12get_raw_dataEv
 280              		.thumb
 281              		.thumb_func
ARM GAS  /tmp/ccfWo18f.s 			page 6


 282              		.type	_ZNK3r2p7Message12get_raw_dataEv, %function
 283              	_ZNK3r2p7Message12get_raw_dataEv:
 284              	.LFB208:
 285              		.file 6 "/home/ergae/r2p-sdk/core/Middleware/include/r2p/Message.hpp"
 286              		.loc 6 67 0
 287              		.cfi_startproc
 288              		@ args = 0, pretend = 0, frame = 8
 289              		@ frame_needed = 0, uses_anonymous_args = 0
 290              		@ link register save eliminated.
 291 0000 82B0     		sub	sp, sp, #8
 292              		.cfi_def_cfa_offset 8
 293 0002 0190     		str	r0, [sp, #4]
 294              		.loc 6 69 0
 295 0004 019B     		ldr	r3, [sp, #4]
 296 0006 0233     		adds	r3, r3, #2
 297              		.loc 6 70 0
 298 0008 1846     		mov	r0, r3
 299 000a 02B0     		add	sp, sp, #8
 300              		.cfi_def_cfa_offset 0
 301              		@ sp needed
 302 000c 7047     		bx	lr
 303              		.cfi_endproc
 304              	.LFE208:
 305              		.size	_ZNK3r2p7Message12get_raw_dataEv, .-_ZNK3r2p7Message12get_raw_dataEv
 306 000e 00BF     		.section	.text._ZN3r2p7Message21get_msg_from_raw_dataEPKh,"axG",%progbits,_ZN3r2p7Message21get_msg
 307              		.align	2
 308              		.p2align 4,,15
 309              		.weak	_ZN3r2p7Message21get_msg_from_raw_dataEPKh
 310              		.thumb
 311              		.thumb_func
 312              		.type	_ZN3r2p7Message21get_msg_from_raw_dataEPKh, %function
 313              	_ZN3r2p7Message21get_msg_from_raw_dataEPKh:
 314              	.LFB209:
 315              		.loc 6 74 0
 316              		.cfi_startproc
 317              		@ args = 0, pretend = 0, frame = 8
 318              		@ frame_needed = 0, uses_anonymous_args = 0
 319              		@ link register save eliminated.
 320 0000 82B0     		sub	sp, sp, #8
 321              		.cfi_def_cfa_offset 8
 322 0002 0190     		str	r0, [sp, #4]
 323              		.loc 6 80 0
 324 0004 6FF00102 		mvn	r2, #1
 325 0008 019B     		ldr	r3, [sp, #4]
 326 000a 1344     		add	r3, r3, r2
 327              		.loc 6 82 0
 328 000c 1846     		mov	r0, r3
 329 000e 02B0     		add	sp, sp, #8
 330              		.cfi_def_cfa_offset 0
 331              		@ sp needed
 332 0010 7047     		bx	lr
 333              		.cfi_endproc
 334              	.LFE209:
 335              		.size	_ZN3r2p7Message21get_msg_from_raw_dataEPKh, .-_ZN3r2p7Message21get_msg_from_raw_dataEPKh
 336 0012 00BFAFF3 		.section	.text._ZN3r2p7Message12reset_unsafeEv,"axG",%progbits,_ZN3r2p7Message12reset_unsafeEv,com
 336      0080AFF3 
 336      0080AFF3 
ARM GAS  /tmp/ccfWo18f.s 			page 7


 336      0080
 337              		.align	2
 338              		.p2align 4,,15
 339              		.weak	_ZN3r2p7Message12reset_unsafeEv
 340              		.thumb
 341              		.thumb_func
 342              		.type	_ZN3r2p7Message12reset_unsafeEv, %function
 343              	_ZN3r2p7Message12reset_unsafeEv:
 344              	.LFB212:
 345              		.loc 6 122 0
 346              		.cfi_startproc
 347              		@ args = 0, pretend = 0, frame = 8
 348              		@ frame_needed = 0, uses_anonymous_args = 0
 349              		@ link register save eliminated.
 350 0000 82B0     		sub	sp, sp, #8
 351              		.cfi_def_cfa_offset 8
 352 0002 0190     		str	r0, [sp, #4]
 353              		.loc 6 127 0
 354 0004 019B     		ldr	r3, [sp, #4]
 355 0006 0022     		movs	r2, #0
 356 0008 1A70     		strb	r2, [r3]
 357 000a 0022     		movs	r2, #0
 358 000c 5A70     		strb	r2, [r3, #1]
 359              		.loc 6 128 0
 360 000e 02B0     		add	sp, sp, #8
 361              		.cfi_def_cfa_offset 0
 362              		@ sp needed
 363 0010 7047     		bx	lr
 364              		.cfi_endproc
 365              	.LFE212:
 366              		.size	_ZN3r2p7Message12reset_unsafeEv, .-_ZN3r2p7Message12reset_unsafeEv
 367 0012 00BFAFF3 		.section	.text._ZN3r2p7MessageC2Ev,"axG",%progbits,_ZN3r2p7MessageC5Ev,comdat
 367      0080AFF3 
 367      0080AFF3 
 367      0080
 368              		.align	2
 369              		.p2align 4,,15
 370              		.weak	_ZN3r2p7MessageC2Ev
 371              		.thumb
 372              		.thumb_func
 373              		.type	_ZN3r2p7MessageC2Ev, %function
 374              	_ZN3r2p7MessageC2Ev:
 375              	.LFB214:
 376              		.loc 6 132 0
 377              		.cfi_startproc
 378              		@ args = 0, pretend = 0, frame = 8
 379              		@ frame_needed = 0, uses_anonymous_args = 0
 380              		@ link register save eliminated.
 381 0000 82B0     		sub	sp, sp, #8
 382              		.cfi_def_cfa_offset 8
 383 0002 0190     		str	r0, [sp, #4]
 384              	.LBB13:
 385              		.loc 6 137 0
 386 0004 019B     		ldr	r3, [sp, #4]
 387 0006 0022     		movs	r2, #0
 388 0008 1A70     		strb	r2, [r3]
 389 000a 0022     		movs	r2, #0
ARM GAS  /tmp/ccfWo18f.s 			page 8


 390 000c 5A70     		strb	r2, [r3, #1]
 391              	.LBE13:
 392              		.loc 6 138 0
 393 000e 019B     		ldr	r3, [sp, #4]
 394 0010 1846     		mov	r0, r3
 395 0012 02B0     		add	sp, sp, #8
 396              		.cfi_def_cfa_offset 0
 397              		@ sp needed
 398 0014 7047     		bx	lr
 399              		.cfi_endproc
 400              	.LFE214:
 401              		.size	_ZN3r2p7MessageC2Ev, .-_ZN3r2p7MessageC2Ev
 402              		.weak	_ZN3r2p7MessageC1Ev
 403              		.thumb_set _ZN3r2p7MessageC1Ev,_ZN3r2p7MessageC2Ev
 404 0016 00BFAFF3 		.section	.text._ZN3r2p7Message16get_payload_sizeEj,"axG",%progbits,_ZN3r2p7Message16get_payload_si
 404      0080AFF3 
 404      0080
 405              		.align	2
 406              		.p2align 4,,15
 407              		.weak	_ZN3r2p7Message16get_payload_sizeEj
 408              		.thumb
 409              		.thumb_func
 410              		.type	_ZN3r2p7Message16get_payload_sizeEj, %function
 411              	_ZN3r2p7Message16get_payload_sizeEj:
 412              	.LFB216:
 413              		.loc 6 142 0
 414              		.cfi_startproc
 415              		@ args = 0, pretend = 0, frame = 8
 416              		@ frame_needed = 0, uses_anonymous_args = 0
 417              		@ link register save eliminated.
 418 0000 82B0     		sub	sp, sp, #8
 419              		.cfi_def_cfa_offset 8
 420 0002 0190     		str	r0, [sp, #4]
 421              		.loc 6 147 0
 422 0004 019B     		ldr	r3, [sp, #4]
 423 0006 023B     		subs	r3, r3, #2
 424              		.loc 6 149 0
 425 0008 1846     		mov	r0, r3
 426 000a 02B0     		add	sp, sp, #8
 427              		.cfi_def_cfa_offset 0
 428              		@ sp needed
 429 000c 7047     		bx	lr
 430              		.cfi_endproc
 431              	.LFE216:
 432              		.size	_ZN3r2p7Message16get_payload_sizeEj, .-_ZN3r2p7Message16get_payload_sizeEj
 433 000e 00BF     		.section	.text._ZNK3r2p11MemoryPool_13get_item_sizeEv,"axG",%progbits,_ZNK3r2p11MemoryPool_13get_i
 434              		.align	2
 435              		.p2align 4,,15
 436              		.weak	_ZNK3r2p11MemoryPool_13get_item_sizeEv
 437              		.thumb
 438              		.thumb_func
 439              		.type	_ZNK3r2p11MemoryPool_13get_item_sizeEv, %function
 440              	_ZNK3r2p11MemoryPool_13get_item_sizeEv:
 441              	.LFB297:
 442              		.file 7 "/home/ergae/r2p-sdk/core/Middleware/port/chibios/include/r2p/impl/MemoryPool_.hpp"
 443              		.loc 7 39 0
 444              		.cfi_startproc
ARM GAS  /tmp/ccfWo18f.s 			page 9


 445              		@ args = 0, pretend = 0, frame = 8
 446              		@ frame_needed = 0, uses_anonymous_args = 0
 447              		@ link register save eliminated.
 448 0000 82B0     		sub	sp, sp, #8
 449              		.cfi_def_cfa_offset 8
 450 0002 0190     		str	r0, [sp, #4]
 451              		.loc 7 41 0
 452 0004 019B     		ldr	r3, [sp, #4]
 453 0006 5B68     		ldr	r3, [r3, #4]
 454              		.loc 7 42 0
 455 0008 1846     		mov	r0, r3
 456 000a 02B0     		add	sp, sp, #8
 457              		.cfi_def_cfa_offset 0
 458              		@ sp needed
 459 000c 7047     		bx	lr
 460              		.cfi_endproc
 461              	.LFE297:
 462              		.size	_ZNK3r2p11MemoryPool_13get_item_sizeEv, .-_ZNK3r2p11MemoryPool_13get_item_sizeEv
 463 000e 00BF     		.section	.text._ZN3r2p11MemoryPool_12alloc_unsafeEv,"axG",%progbits,_ZN3r2p11MemoryPool_12alloc_un
 464              		.align	2
 465              		.p2align 4,,15
 466              		.weak	_ZN3r2p11MemoryPool_12alloc_unsafeEv
 467              		.thumb
 468              		.thumb_func
 469              		.type	_ZN3r2p11MemoryPool_12alloc_unsafeEv, %function
 470              	_ZN3r2p11MemoryPool_12alloc_unsafeEv:
 471              	.LFB299:
 472              		.loc 7 53 0
 473              		.cfi_startproc
 474              		@ args = 0, pretend = 0, frame = 8
 475              		@ frame_needed = 0, uses_anonymous_args = 0
 476 0000 00B5     		push	{lr}
 477              		.cfi_def_cfa_offset 4
 478              		.cfi_offset 14, -4
 479 0002 83B0     		sub	sp, sp, #12
 480              		.cfi_def_cfa_offset 16
 481 0004 0190     		str	r0, [sp, #4]
 482              		.loc 7 55 0
 483 0006 019B     		ldr	r3, [sp, #4]
 484 0008 1846     		mov	r0, r3
 485 000a FFF7FEFF 		bl	chPoolAllocI
 486 000e 0346     		mov	r3, r0
 487              		.loc 7 56 0
 488 0010 1846     		mov	r0, r3
 489 0012 03B0     		add	sp, sp, #12
 490              		.cfi_def_cfa_offset 4
 491              		@ sp needed
 492 0014 5DF804FB 		ldr	pc, [sp], #4
 493              		.cfi_endproc
 494              	.LFE299:
 495              		.size	_ZN3r2p11MemoryPool_12alloc_unsafeEv, .-_ZN3r2p11MemoryPool_12alloc_unsafeEv
 496 0018 AFF30080 		.section	.text._ZN3r2p11MemoryPool_11free_unsafeEPv,"axG",%progbits,_ZN3r2p11MemoryPool_11free_uns
 496      AFF30080 
 497              		.align	2
 498              		.p2align 4,,15
 499              		.weak	_ZN3r2p11MemoryPool_11free_unsafeEPv
 500              		.thumb
ARM GAS  /tmp/ccfWo18f.s 			page 10


 501              		.thumb_func
 502              		.type	_ZN3r2p11MemoryPool_11free_unsafeEPv, %function
 503              	_ZN3r2p11MemoryPool_11free_unsafeEPv:
 504              	.LFB300:
 505              		.loc 7 60 0
 506              		.cfi_startproc
 507              		@ args = 0, pretend = 0, frame = 8
 508              		@ frame_needed = 0, uses_anonymous_args = 0
 509 0000 00B5     		push	{lr}
 510              		.cfi_def_cfa_offset 4
 511              		.cfi_offset 14, -4
 512 0002 83B0     		sub	sp, sp, #12
 513              		.cfi_def_cfa_offset 16
 514 0004 0190     		str	r0, [sp, #4]
 515 0006 0091     		str	r1, [sp]
 516              		.loc 7 62 0
 517 0008 009B     		ldr	r3, [sp]
 518 000a 002B     		cmp	r3, #0
 519 000c 04D0     		beq	.L31
 520              		.loc 7 63 0
 521 000e 019B     		ldr	r3, [sp, #4]
 522 0010 1846     		mov	r0, r3
 523 0012 0099     		ldr	r1, [sp]
 524 0014 FFF7FEFF 		bl	chPoolFreeI
 525              	.L31:
 526              		.loc 7 65 0
 527 0018 03B0     		add	sp, sp, #12
 528              		.cfi_def_cfa_offset 4
 529              		@ sp needed
 530 001a 5DF804FB 		ldr	pc, [sp], #4
 531              		.cfi_endproc
 532              	.LFE300:
 533              		.size	_ZN3r2p11MemoryPool_11free_unsafeEPv, .-_ZN3r2p11MemoryPool_11free_unsafeEPv
 534 001e 00BF     		.section	.text._ZN3r2p11MemoryPool_6extendEPvj,"axG",%progbits,_ZN3r2p11MemoryPool_6extendEPvj,com
 535              		.align	2
 536              		.p2align 4,,15
 537              		.weak	_ZN3r2p11MemoryPool_6extendEPvj
 538              		.thumb
 539              		.thumb_func
 540              		.type	_ZN3r2p11MemoryPool_6extendEPvj, %function
 541              	_ZN3r2p11MemoryPool_6extendEPvj:
 542              	.LFB303:
 543              		.loc 7 85 0
 544              		.cfi_startproc
 545              		@ args = 0, pretend = 0, frame = 16
 546              		@ frame_needed = 0, uses_anonymous_args = 0
 547 0000 00B5     		push	{lr}
 548              		.cfi_def_cfa_offset 4
 549              		.cfi_offset 14, -4
 550 0002 85B0     		sub	sp, sp, #20
 551              		.cfi_def_cfa_offset 24
 552 0004 0390     		str	r0, [sp, #12]
 553 0006 0291     		str	r1, [sp, #8]
 554 0008 0192     		str	r2, [sp, #4]
 555              		.loc 7 87 0
 556 000a 039B     		ldr	r3, [sp, #12]
 557 000c 1846     		mov	r0, r3
ARM GAS  /tmp/ccfWo18f.s 			page 11


 558 000e 0299     		ldr	r1, [sp, #8]
 559 0010 019A     		ldr	r2, [sp, #4]
 560 0012 FFF7FEFF 		bl	chPoolLoadArray
 561              		.loc 7 88 0
 562 0016 05B0     		add	sp, sp, #20
 563              		.cfi_def_cfa_offset 4
 564              		@ sp needed
 565 0018 5DF804FB 		ldr	pc, [sp], #4
 566              		.cfi_endproc
 567              	.LFE303:
 568              		.size	_ZN3r2p11MemoryPool_6extendEPvj, .-_ZN3r2p11MemoryPool_6extendEPvj
 569 001c AFF30080 		.section	.text._ZN3r2p11MemoryPool_C2EPvjj,"axG",%progbits,_ZN3r2p11MemoryPool_C5EPvjj,comdat
 570              		.align	2
 571              		.p2align 4,,15
 572              		.weak	_ZN3r2p11MemoryPool_C2EPvjj
 573              		.thumb
 574              		.thumb_func
 575              		.type	_ZN3r2p11MemoryPool_C2EPvjj, %function
 576              	_ZN3r2p11MemoryPool_C2EPvjj:
 577              	.LFB309:
 578              		.loc 7 106 0
 579              		.cfi_startproc
 580              		@ args = 0, pretend = 0, frame = 16
 581              		@ frame_needed = 0, uses_anonymous_args = 0
 582 0000 00B5     		push	{lr}
 583              		.cfi_def_cfa_offset 4
 584              		.cfi_offset 14, -4
 585 0002 85B0     		sub	sp, sp, #20
 586              		.cfi_def_cfa_offset 24
 587 0004 0390     		str	r0, [sp, #12]
 588 0006 0291     		str	r1, [sp, #8]
 589 0008 0192     		str	r2, [sp, #4]
 590 000a 0093     		str	r3, [sp]
 591              	.LBB14:
 592              		.loc 7 106 0
 593 000c 0398     		ldr	r0, [sp, #12]
 594 000e FFF7FEFF 		bl	_ZN3r2p10UncopyableC2Ev
 595              		.loc 7 108 0
 596 0012 039B     		ldr	r3, [sp, #12]
 597 0014 1846     		mov	r0, r3
 598 0016 0099     		ldr	r1, [sp]
 599 0018 0022     		movs	r2, #0
 600 001a FFF7FEFF 		bl	chPoolInit
 601              		.loc 7 109 0
 602 001e 0398     		ldr	r0, [sp, #12]
 603 0020 0299     		ldr	r1, [sp, #8]
 604 0022 019A     		ldr	r2, [sp, #4]
 605 0024 FFF7FEFF 		bl	_ZN3r2p11MemoryPool_6extendEPvj
 606              	.LBE14:
 607              		.loc 7 110 0
 608 0028 039B     		ldr	r3, [sp, #12]
 609 002a 1846     		mov	r0, r3
 610 002c 05B0     		add	sp, sp, #20
 611              		.cfi_def_cfa_offset 4
 612              		@ sp needed
 613 002e 5DF804FB 		ldr	pc, [sp], #4
 614              		.cfi_endproc
ARM GAS  /tmp/ccfWo18f.s 			page 12


 615              	.LFE309:
 616              		.size	_ZN3r2p11MemoryPool_C2EPvjj, .-_ZN3r2p11MemoryPool_C2EPvjj
 617              		.weak	_ZN3r2p11MemoryPool_C1EPvjj
 618              		.thumb_set _ZN3r2p11MemoryPool_C1EPvjj,_ZN3r2p11MemoryPool_C2EPvjj
 619 0032 00BFAFF3 		.section	.text._ZNK3r2p14BaseSubscriber9get_topicEv,"axG",%progbits,_ZNK3r2p14BaseSubscriber9get_t
 619      0080AFF3 
 619      0080AFF3 
 619      0080
 620              		.align	2
 621              		.p2align 4,,15
 622              		.weak	_ZNK3r2p14BaseSubscriber9get_topicEv
 623              		.thumb
 624              		.thumb_func
 625              		.type	_ZNK3r2p14BaseSubscriber9get_topicEv, %function
 626              	_ZNK3r2p14BaseSubscriber9get_topicEv:
 627              	.LFB462:
 628              		.file 8 "/home/ergae/r2p-sdk/core/Middleware/include/r2p/BaseSubscriber.hpp"
 629              		.loc 8 42 0
 630              		.cfi_startproc
 631              		@ args = 0, pretend = 0, frame = 8
 632              		@ frame_needed = 0, uses_anonymous_args = 0
 633              		@ link register save eliminated.
 634 0000 82B0     		sub	sp, sp, #8
 635              		.cfi_def_cfa_offset 8
 636 0002 0190     		str	r0, [sp, #4]
 637              		.loc 8 44 0
 638 0004 019B     		ldr	r3, [sp, #4]
 639 0006 5B68     		ldr	r3, [r3, #4]
 640              		.loc 8 45 0
 641 0008 1846     		mov	r0, r3
 642 000a 02B0     		add	sp, sp, #8
 643              		.cfi_def_cfa_offset 0
 644              		@ sp needed
 645 000c 7047     		bx	lr
 646              		.cfi_endproc
 647              	.LFE462:
 648              		.size	_ZNK3r2p14BaseSubscriber9get_topicEv, .-_ZNK3r2p14BaseSubscriber9get_topicEv
 649 000e 00BF     		.section	.text._ZNK3r2p16RemoteSubscriber13get_transportEv,"axG",%progbits,_ZNK3r2p16RemoteSubscri
 650              		.align	2
 651              		.p2align 4,,15
 652              		.weak	_ZNK3r2p16RemoteSubscriber13get_transportEv
 653              		.thumb
 654              		.thumb_func
 655              		.type	_ZNK3r2p16RemoteSubscriber13get_transportEv, %function
 656              	_ZNK3r2p16RemoteSubscriber13get_transportEv:
 657              	.LFB505:
 658              		.file 9 "/home/ergae/r2p-sdk/core/Middleware/include/r2p/RemoteSubscriber.hpp"
 659              		.loc 9 31 0
 660              		.cfi_startproc
 661              		@ args = 0, pretend = 0, frame = 8
 662              		@ frame_needed = 0, uses_anonymous_args = 0
 663              		@ link register save eliminated.
 664 0000 82B0     		sub	sp, sp, #8
 665              		.cfi_def_cfa_offset 8
 666 0002 0190     		str	r0, [sp, #4]
 667              		.loc 9 33 0
 668 0004 019B     		ldr	r3, [sp, #4]
ARM GAS  /tmp/ccfWo18f.s 			page 13


 669 0006 9B68     		ldr	r3, [r3, #8]
 670              		.loc 9 34 0
 671 0008 1846     		mov	r0, r3
 672 000a 02B0     		add	sp, sp, #8
 673              		.cfi_def_cfa_offset 0
 674              		@ sp needed
 675 000c 7047     		bx	lr
 676              		.cfi_endproc
 677              	.LFE505:
 678              		.size	_ZNK3r2p16RemoteSubscriber13get_transportEv, .-_ZNK3r2p16RemoteSubscriber13get_transportEv
 679 000e 00BF     		.section	.text._ZNK3r2p5Topic8get_nameEv,"axG",%progbits,_ZNK3r2p5Topic8get_nameEv,comdat
 680              		.align	2
 681              		.p2align 4,,15
 682              		.weak	_ZNK3r2p5Topic8get_nameEv
 683              		.thumb
 684              		.thumb_func
 685              		.type	_ZNK3r2p5Topic8get_nameEv, %function
 686              	_ZNK3r2p5Topic8get_nameEv:
 687              	.LFB506:
 688              		.file 10 "/home/ergae/r2p-sdk/core/Middleware/include/r2p/Topic.hpp"
 689              		.loc 10 131 0
 690              		.cfi_startproc
 691              		@ args = 0, pretend = 0, frame = 8
 692              		@ frame_needed = 0, uses_anonymous_args = 0
 693              		@ link register save eliminated.
 694 0000 82B0     		sub	sp, sp, #8
 695              		.cfi_def_cfa_offset 8
 696 0002 0190     		str	r0, [sp, #4]
 697              		.loc 10 133 0
 698 0004 019B     		ldr	r3, [sp, #4]
 699 0006 1B68     		ldr	r3, [r3]
 700              		.loc 10 134 0
 701 0008 1846     		mov	r0, r3
 702 000a 02B0     		add	sp, sp, #8
 703              		.cfi_def_cfa_offset 0
 704              		@ sp needed
 705 000c 7047     		bx	lr
 706              		.cfi_endproc
 707              	.LFE506:
 708              		.size	_ZNK3r2p5Topic8get_nameEv, .-_ZNK3r2p5Topic8get_nameEv
 709 000e 00BF     		.section	.text._ZNK3r2p5Topic16get_payload_sizeEv,"axG",%progbits,_ZNK3r2p5Topic16get_payload_size
 710              		.align	2
 711              		.p2align 4,,15
 712              		.weak	_ZNK3r2p5Topic16get_payload_sizeEv
 713              		.thumb
 714              		.thumb_func
 715              		.type	_ZNK3r2p5Topic16get_payload_sizeEv, %function
 716              	_ZNK3r2p5Topic16get_payload_sizeEv:
 717              	.LFB509:
 718              		.loc 10 152 0
 719              		.cfi_startproc
 720              		@ args = 0, pretend = 0, frame = 8
 721              		@ frame_needed = 0, uses_anonymous_args = 0
 722 0000 00B5     		push	{lr}
 723              		.cfi_def_cfa_offset 4
 724              		.cfi_offset 14, -4
 725 0002 83B0     		sub	sp, sp, #12
ARM GAS  /tmp/ccfWo18f.s 			page 14


 726              		.cfi_def_cfa_offset 16
 727 0004 0190     		str	r0, [sp, #4]
 728              		.loc 10 154 0
 729 0006 019B     		ldr	r3, [sp, #4]
 730 0008 0833     		adds	r3, r3, #8
 731 000a 1846     		mov	r0, r3
 732 000c FFF7FEFF 		bl	_ZNK3r2p11MemoryPool_13get_item_sizeEv
 733 0010 0346     		mov	r3, r0
 734 0012 1846     		mov	r0, r3
 735 0014 FFF7FEFF 		bl	_ZN3r2p7Message16get_payload_sizeEj
 736 0018 0346     		mov	r3, r0
 737              		.loc 10 155 0
 738 001a 1846     		mov	r0, r3
 739 001c 03B0     		add	sp, sp, #12
 740              		.cfi_def_cfa_offset 4
 741              		@ sp needed
 742 001e 5DF804FB 		ldr	pc, [sp], #4
 743              		.cfi_endproc
 744              	.LFE509:
 745              		.size	_ZNK3r2p5Topic16get_payload_sizeEv, .-_ZNK3r2p5Topic16get_payload_sizeEv
 746 0022 00BFAFF3 		.section	.text._ZN3r2p5Topic12alloc_unsafeEv,"axG",%progbits,_ZN3r2p5Topic12alloc_unsafeEv,comdat
 746      0080AFF3 
 746      0080AFF3 
 746      0080
 747              		.align	2
 748              		.p2align 4,,15
 749              		.weak	_ZN3r2p5Topic12alloc_unsafeEv
 750              		.thumb
 751              		.thumb_func
 752              		.type	_ZN3r2p5Topic12alloc_unsafeEv, %function
 753              	_ZN3r2p5Topic12alloc_unsafeEv:
 754              	.LFB522:
 755              		.loc 10 250 0
 756              		.cfi_startproc
 757              		@ args = 0, pretend = 0, frame = 8
 758              		@ frame_needed = 0, uses_anonymous_args = 0
 759 0000 10B5     		push	{r4, lr}
 760              		.cfi_def_cfa_offset 8
 761              		.cfi_offset 4, -8
 762              		.cfi_offset 14, -4
 763 0002 82B0     		sub	sp, sp, #8
 764              		.cfi_def_cfa_offset 16
 765 0004 0190     		str	r0, [sp, #4]
 766              	.LBB15:
 767              		.loc 10 252 0
 768 0006 019B     		ldr	r3, [sp, #4]
 769 0008 0833     		adds	r3, r3, #8
 770 000a 1846     		mov	r0, r3
 771 000c FFF7FEFF 		bl	_ZN3r2p11MemoryPool_12alloc_unsafeEv
 772 0010 0446     		mov	r4, r0
 773              		.loc 10 253 0
 774 0012 002C     		cmp	r4, #0
 775 0014 04D0     		beq	.L46
 776              		.loc 10 254 0
 777 0016 2046     		mov	r0, r4
 778 0018 FFF7FEFF 		bl	_ZN3r2p7Message12reset_unsafeEv
 779              		.loc 10 255 0
ARM GAS  /tmp/ccfWo18f.s 			page 15


 780 001c 2346     		mov	r3, r4
 781 001e 00E0     		b	.L47
 782              	.L46:
 783              		.loc 10 257 0
 784 0020 0023     		movs	r3, #0
 785              	.L47:
 786              	.LBE15:
 787              		.loc 10 258 0
 788 0022 1846     		mov	r0, r3
 789 0024 02B0     		add	sp, sp, #8
 790              		.cfi_def_cfa_offset 8
 791              		@ sp needed
 792 0026 10BD     		pop	{r4, pc}
 793              		.cfi_endproc
 794              	.LFE522:
 795              		.size	_ZN3r2p5Topic12alloc_unsafeEv, .-_ZN3r2p5Topic12alloc_unsafeEv
 796 0028 AFF30080 		.section	.text._ZN3r2p5Topic8has_nameERKS0_PKc,"axG",%progbits,_ZN3r2p5Topic8has_nameERKS0_PKc,com
 796      AFF30080 
 797              		.align	2
 798              		.p2align 4,,15
 799              		.weak	_ZN3r2p5Topic8has_nameERKS0_PKc
 800              		.thumb
 801              		.thumb_func
 802              		.type	_ZN3r2p5Topic8has_nameERKS0_PKc, %function
 803              	_ZN3r2p5Topic8has_nameERKS0_PKc:
 804              	.LFB532:
 805              		.loc 10 337 0
 806              		.cfi_startproc
 807              		@ args = 0, pretend = 0, frame = 8
 808              		@ frame_needed = 0, uses_anonymous_args = 0
 809 0000 00B5     		push	{lr}
 810              		.cfi_def_cfa_offset 4
 811              		.cfi_offset 14, -4
 812 0002 83B0     		sub	sp, sp, #12
 813              		.cfi_def_cfa_offset 16
 814 0004 0190     		str	r0, [sp, #4]
 815 0006 0091     		str	r1, [sp]
 816              		.loc 10 339 0
 817 0008 009B     		ldr	r3, [sp]
 818 000a 002B     		cmp	r3, #0
 819 000c 0DD0     		beq	.L49
 820              		.loc 10 340 0 discriminator 1
 821 000e 0198     		ldr	r0, [sp, #4]
 822 0010 FFF7FEFF 		bl	_ZNK3r2p5Topic8get_nameEv
 823 0014 0346     		mov	r3, r0
 824 0016 1846     		mov	r0, r3
 825 0018 0099     		ldr	r1, [sp]
 826 001a 1022     		movs	r2, #16
 827 001c FFF7FEFF 		bl	strncmp
 828 0020 0346     		mov	r3, r0
 829              		.loc 10 339 0 discriminator 1
 830 0022 002B     		cmp	r3, #0
 831 0024 01D1     		bne	.L49
 832              		.loc 10 339 0 is_stmt 0 discriminator 3
 833 0026 0123     		movs	r3, #1
 834 0028 00E0     		b	.L50
 835              	.L49:
ARM GAS  /tmp/ccfWo18f.s 			page 16


 836              		.loc 10 339 0 discriminator 4
 837 002a 0023     		movs	r3, #0
 838              	.L50:
 839              		.loc 10 341 0 is_stmt 1
 840 002c 1846     		mov	r0, r3
 841 002e 03B0     		add	sp, sp, #12
 842              		.cfi_def_cfa_offset 4
 843              		@ sp needed
 844 0030 5DF804FB 		ldr	pc, [sp], #4
 845              		.cfi_endproc
 846              	.LFE532:
 847              		.size	_ZN3r2p5Topic8has_nameERKS0_PKc, .-_ZN3r2p5Topic8has_nameERKS0_PKc
 848 0034 AFF30080 		.section	.rodata
 848      AFF30080 
 848      AFF30080 
 849              		.align	2
 850              	.LC0:
 851 0000 5232505F 		.ascii	"R2P_ASSERT()\000"
 851      41535345 
 851      52542829 
 851      00
 852              		.section	.text._ZN3r2p13BasePublisher12alloc_unsafeERPNS_7MessageE,"axG",%progbits,_ZN3r2p13BasePu
 853              		.align	2
 854              		.p2align 4,,15
 855              		.weak	_ZN3r2p13BasePublisher12alloc_unsafeERPNS_7MessageE
 856              		.thumb
 857              		.thumb_func
 858              		.type	_ZN3r2p13BasePublisher12alloc_unsafeERPNS_7MessageE, %function
 859              	_ZN3r2p13BasePublisher12alloc_unsafeERPNS_7MessageE:
 860              	.LFB547:
 861              		.file 11 "/home/ergae/r2p-sdk/core/Middleware/include/r2p/BasePublisher.hpp"
 862              		.loc 11 64 0
 863              		.cfi_startproc
 864              		@ args = 0, pretend = 0, frame = 8
 865              		@ frame_needed = 0, uses_anonymous_args = 0
 866 0000 00B5     		push	{lr}
 867              		.cfi_def_cfa_offset 4
 868              		.cfi_offset 14, -4
 869 0002 83B0     		sub	sp, sp, #12
 870              		.cfi_def_cfa_offset 16
 871 0004 0190     		str	r0, [sp, #4]
 872 0006 0091     		str	r1, [sp]
 873              		.loc 11 66 0
 874 0008 019B     		ldr	r3, [sp, #4]
 875 000a 5B68     		ldr	r3, [r3, #4]
 876 000c 002B     		cmp	r3, #0
 877 000e 02D1     		bne	.L53
 878              		.loc 11 66 0 is_stmt 0 discriminator 1
 879 0010 0A48     		ldr	r0, .L55
 880 0012 FFF7FEFF 		bl	chDbgPanic
 881              	.L53:
 882              		.loc 11 68 0 is_stmt 1
 883 0016 019B     		ldr	r3, [sp, #4]
 884 0018 5B68     		ldr	r3, [r3, #4]
 885 001a 1846     		mov	r0, r3
 886 001c FFF7FEFF 		bl	_ZN3r2p5Topic12alloc_unsafeEv
 887 0020 0246     		mov	r2, r0
ARM GAS  /tmp/ccfWo18f.s 			page 17


 888 0022 009B     		ldr	r3, [sp]
 889 0024 1A60     		str	r2, [r3]
 890              		.loc 11 69 0
 891 0026 009B     		ldr	r3, [sp]
 892 0028 1B68     		ldr	r3, [r3]
 893 002a 002B     		cmp	r3, #0
 894 002c 14BF     		ite	ne
 895 002e 0123     		movne	r3, #1
 896 0030 0023     		moveq	r3, #0
 897 0032 DBB2     		uxtb	r3, r3
 898              		.loc 11 70 0
 899 0034 1846     		mov	r0, r3
 900 0036 03B0     		add	sp, sp, #12
 901              		.cfi_def_cfa_offset 4
 902              		@ sp needed
 903 0038 5DF804FB 		ldr	pc, [sp], #4
 904              	.L56:
 905              		.align	2
 906              	.L55:
 907 003c 00000000 		.word	.LC0
 908              		.cfi_endproc
 909              	.LFE547:
 910              		.size	_ZN3r2p13BasePublisher12alloc_unsafeERPNS_7MessageE, .-_ZN3r2p13BasePublisher12alloc_unsafeE
 911              		.section	.text._ZNK3r2p10Middleware10get_topicsEv,"axG",%progbits,_ZNK3r2p10Middleware10get_topics
 912              		.align	2
 913              		.p2align 4,,15
 914              		.weak	_ZNK3r2p10Middleware10get_topicsEv
 915              		.thumb
 916              		.thumb_func
 917              		.type	_ZNK3r2p10Middleware10get_topicsEv, %function
 918              	_ZNK3r2p10Middleware10get_topicsEv:
 919              	.LFB591:
 920              		.file 12 "/home/ergae/r2p-sdk/core/Middleware/include/r2p/Middleware.hpp"
 921              		.loc 12 184 0
 922              		.cfi_startproc
 923              		@ args = 0, pretend = 0, frame = 8
 924              		@ frame_needed = 0, uses_anonymous_args = 0
 925              		@ link register save eliminated.
 926 0000 82B0     		sub	sp, sp, #8
 927              		.cfi_def_cfa_offset 8
 928 0002 0190     		str	r0, [sp, #4]
 929              		.loc 12 186 0
 930 0004 019B     		ldr	r3, [sp, #4]
 931 0006 0833     		adds	r3, r3, #8
 932              		.loc 12 187 0
 933 0008 1846     		mov	r0, r3
 934 000a 02B0     		add	sp, sp, #8
 935              		.cfi_def_cfa_offset 0
 936              		@ sp needed
 937 000c 7047     		bx	lr
 938              		.cfi_endproc
 939              	.LFE591:
 940              		.size	_ZNK3r2p10Middleware10get_topicsEv, .-_ZNK3r2p10Middleware10get_topicsEv
 941 000e 00BF     		.section	.text._ZN3r2p10Middleware14get_mgmt_topicEv,"axG",%progbits,_ZN3r2p10Middleware14get_mgmt
 942              		.align	2
 943              		.p2align 4,,15
 944              		.weak	_ZN3r2p10Middleware14get_mgmt_topicEv
ARM GAS  /tmp/ccfWo18f.s 			page 18


 945              		.thumb
 946              		.thumb_func
 947              		.type	_ZN3r2p10Middleware14get_mgmt_topicEv, %function
 948              	_ZN3r2p10Middleware14get_mgmt_topicEv:
 949              	.LFB593:
 950              		.loc 12 198 0
 951              		.cfi_startproc
 952              		@ args = 0, pretend = 0, frame = 8
 953              		@ frame_needed = 0, uses_anonymous_args = 0
 954              		@ link register save eliminated.
 955 0000 82B0     		sub	sp, sp, #8
 956              		.cfi_def_cfa_offset 8
 957 0002 0190     		str	r0, [sp, #4]
 958              		.loc 12 200 0
 959 0004 019B     		ldr	r3, [sp, #4]
 960 0006 2833     		adds	r3, r3, #40
 961              		.loc 12 201 0
 962 0008 1846     		mov	r0, r3
 963 000a 02B0     		add	sp, sp, #8
 964              		.cfi_def_cfa_offset 0
 965              		@ sp needed
 966 000c 7047     		bx	lr
 967              		.cfi_endproc
 968              	.LFE593:
 969              		.size	_ZN3r2p10Middleware14get_mgmt_topicEv, .-_ZN3r2p10Middleware14get_mgmt_topicEv
 970 000e 00BF     		.section	.text._ZN3r2p14RTCANTransport4sendEPNS_7MessageEPNS_15RTCANSubscriberE,"ax",%progbits
 971              		.align	2
 972              		.p2align 4,,15
 973              		.global	_ZN3r2p14RTCANTransport4sendEPNS_7MessageEPNS_15RTCANSubscriberE
 974              		.thumb
 975              		.thumb_func
 976              		.type	_ZN3r2p14RTCANTransport4sendEPNS_7MessageEPNS_15RTCANSubscriberE, %function
 977              	_ZN3r2p14RTCANTransport4sendEPNS_7MessageEPNS_15RTCANSubscriberE:
 978              	.LFB596:
 979              		.file 13 "/home/ergae/r2p-sdk/core/Middleware/src/transport/RTCANTransport.cpp"
 980              		.loc 13 14 0
 981              		.cfi_startproc
 982              		@ args = 0, pretend = 0, frame = 24
 983              		@ frame_needed = 0, uses_anonymous_args = 0
 984 0000 00B5     		push	{lr}
 985              		.cfi_def_cfa_offset 4
 986              		.cfi_offset 14, -4
 987 0002 87B0     		sub	sp, sp, #28
 988              		.cfi_def_cfa_offset 32
 989 0004 0390     		str	r0, [sp, #12]
 990 0006 0291     		str	r1, [sp, #8]
 991 0008 0192     		str	r2, [sp, #4]
 992              	.LBB16:
 993              		.loc 13 22 0
 994 000a 039B     		ldr	r3, [sp, #12]
 995 000c 03F5B873 		add	r3, r3, #368
 996 0010 1846     		mov	r0, r3
 997 0012 FFF7FEFF 		bl	_ZN3r2p10MemoryPoolI11rtcan_msg_tE12alloc_unsafeEv
 998 0016 0590     		str	r0, [sp, #20]
 999              		.loc 13 23 0
 1000 0018 059B     		ldr	r3, [sp, #20]
 1001 001a 002B     		cmp	r3, #0
ARM GAS  /tmp/ccfWo18f.s 			page 19


 1002 001c 01D1     		bne	.L62
 1003              		.loc 13 24 0
 1004 001e 0023     		movs	r3, #0
 1005 0020 2BE0     		b	.L63
 1006              	.L62:
 1007              		.loc 13 26 0
 1008 0022 019B     		ldr	r3, [sp, #4]
 1009 0024 9A8B     		ldrh	r2, [r3, #28]
 1010 0026 059B     		ldr	r3, [sp, #20]
 1011 0028 A3F81120 		strh	r2, [r3, #17]	@ unaligned
 1012              		.loc 13 27 0
 1013 002c 059B     		ldr	r3, [sp, #20]
 1014 002e 154A     		ldr	r2, .L64
 1015 0030 C3F80520 		str	r2, [r3, #5]	@ unaligned
 1016              		.loc 13 28 0
 1017 0034 059B     		ldr	r3, [sp, #20]
 1018 0036 019A     		ldr	r2, [sp, #4]
 1019 0038 C3F80920 		str	r2, [r3, #9]	@ unaligned
 1020              		.loc 13 29 0
 1021 003c 019B     		ldr	r3, [sp, #4]
 1022 003e 1846     		mov	r0, r3
 1023 0040 FFF7FEFF 		bl	_ZNK3r2p14BaseSubscriber9get_topicEv
 1024 0044 0346     		mov	r3, r0
 1025 0046 1846     		mov	r0, r3
 1026 0048 FFF7FEFF 		bl	_ZNK3r2p5Topic16get_payload_sizeEv
 1027 004c 0346     		mov	r3, r0
 1028 004e 9AB2     		uxth	r2, r3
 1029 0050 059B     		ldr	r3, [sp, #20]
 1030 0052 A3F81320 		strh	r2, [r3, #19]	@ unaligned
 1031              		.loc 13 30 0
 1032 0056 0298     		ldr	r0, [sp, #8]
 1033 0058 FFF7FEFF 		bl	_ZNK3r2p7Message12get_raw_dataEv
 1034 005c 0246     		mov	r2, r0
 1035 005e 059B     		ldr	r3, [sp, #20]
 1036 0060 C3F81520 		str	r2, [r3, #21]	@ unaligned
 1037              		.loc 13 31 0
 1038 0064 059B     		ldr	r3, [sp, #20]
 1039 0066 0222     		movs	r2, #2
 1040 0068 1A71     		strb	r2, [r3, #4]
 1041              		.loc 13 33 0
 1042 006a 039B     		ldr	r3, [sp, #12]
 1043 006c 1B6C     		ldr	r3, [r3, #64]
 1044 006e 1846     		mov	r0, r3
 1045 0070 0599     		ldr	r1, [sp, #20]
 1046 0072 3222     		movs	r2, #50
 1047 0074 FFF7FEFF 		bl	rtcanTransmitI
 1048              		.loc 13 34 0
 1049 0078 0123     		movs	r3, #1
 1050              	.L63:
 1051              	.LBE16:
 1052              		.loc 13 35 0
 1053 007a 1846     		mov	r0, r3
 1054 007c 07B0     		add	sp, sp, #28
 1055              		.cfi_def_cfa_offset 4
 1056              		@ sp needed
 1057 007e 5DF804FB 		ldr	pc, [sp], #4
 1058              	.L65:
ARM GAS  /tmp/ccfWo18f.s 			page 20


 1059 0082 00BF     		.align	2
 1060              	.L64:
 1061 0084 00000000 		.word	_ZN3r2p14RTCANTransport7send_cbER11rtcan_msg_t
 1062              		.cfi_endproc
 1063              	.LFE596:
 1064              		.size	_ZN3r2p14RTCANTransport4sendEPNS_7MessageEPNS_15RTCANSubscriberE, .-_ZN3r2p14RTCANTransport4
 1065 0088 AFF30080 		.section	.text._ZN3r2p14RTCANTransport7send_cbER11rtcan_msg_t,"ax",%progbits
 1065      AFF30080 
 1066              		.align	2
 1067              		.p2align 4,,15
 1068              		.global	_ZN3r2p14RTCANTransport7send_cbER11rtcan_msg_t
 1069              		.thumb
 1070              		.thumb_func
 1071              		.type	_ZN3r2p14RTCANTransport7send_cbER11rtcan_msg_t, %function
 1072              	_ZN3r2p14RTCANTransport7send_cbER11rtcan_msg_t:
 1073              	.LFB597:
 1074              		.loc 13 37 0
 1075              		.cfi_startproc
 1076              		@ args = 0, pretend = 0, frame = 24
 1077              		@ frame_needed = 0, uses_anonymous_args = 0
 1078 0000 00B5     		push	{lr}
 1079              		.cfi_def_cfa_offset 4
 1080              		.cfi_offset 14, -4
 1081 0002 87B0     		sub	sp, sp, #28
 1082              		.cfi_def_cfa_offset 32
 1083 0004 0190     		str	r0, [sp, #4]
 1084              	.LBB17:
 1085              		.loc 13 38 0
 1086 0006 019B     		ldr	r3, [sp, #4]
 1087 0008 D3F80930 		ldr	r3, [r3, #9]	@ unaligned
 1088 000c 0593     		str	r3, [sp, #20]
 1089              		.loc 13 39 0
 1090 000e 059B     		ldr	r3, [sp, #20]
 1091 0010 1846     		mov	r0, r3
 1092 0012 FFF7FEFF 		bl	_ZNK3r2p16RemoteSubscriber13get_transportEv
 1093 0016 0490     		str	r0, [sp, #16]
 1094              		.loc 13 40 0
 1095 0018 019B     		ldr	r3, [sp, #4]
 1096 001a D3F81530 		ldr	r3, [r3, #21]	@ unaligned
 1097 001e 1846     		mov	r0, r3
 1098 0020 FFF7FEFF 		bl	_ZN3r2p7Message21get_msg_from_raw_dataEPKh
 1099 0024 0390     		str	r0, [sp, #12]
 1100              		.loc 13 42 0
 1101 0026 059B     		ldr	r3, [sp, #20]
 1102 0028 1846     		mov	r0, r3
 1103 002a 0399     		ldr	r1, [sp, #12]
 1104 002c FFF7FEFF 		bl	_ZN3r2p14BaseSubscriber14release_unsafeERNS_7MessageE
 1105              		.loc 13 43 0
 1106 0030 049B     		ldr	r3, [sp, #16]
 1107 0032 03F5B873 		add	r3, r3, #368
 1108 0036 1846     		mov	r0, r3
 1109 0038 0199     		ldr	r1, [sp, #4]
 1110 003a FFF7FEFF 		bl	_ZN3r2p10MemoryPoolI11rtcan_msg_tE11free_unsafeEPS1_
 1111              	.LBE17:
 1112              		.loc 13 44 0
 1113 003e 07B0     		add	sp, sp, #28
 1114              		.cfi_def_cfa_offset 4
ARM GAS  /tmp/ccfWo18f.s 			page 21


 1115              		@ sp needed
 1116 0040 5DF804FB 		ldr	pc, [sp], #4
 1117              		.cfi_endproc
 1118              	.LFE597:
 1119              		.size	_ZN3r2p14RTCANTransport7send_cbER11rtcan_msg_t, .-_ZN3r2p14RTCANTransport7send_cbER11rtcan_m
 1120 0044 AFF30080 		.section	.text._ZN3r2p14RTCANTransport7recv_cbER11rtcan_msg_t,"ax",%progbits
 1120      AFF30080 
 1120      AFF30080 
 1121              		.align	2
 1122              		.p2align 4,,15
 1123              		.global	_ZN3r2p14RTCANTransport7recv_cbER11rtcan_msg_t
 1124              		.thumb
 1125              		.thumb_func
 1126              		.type	_ZN3r2p14RTCANTransport7recv_cbER11rtcan_msg_t, %function
 1127              	_ZN3r2p14RTCANTransport7recv_cbER11rtcan_msg_t:
 1128              	.LFB598:
 1129              		.loc 13 46 0
 1130              		.cfi_startproc
 1131              		@ args = 0, pretend = 0, frame = 16
 1132              		@ frame_needed = 0, uses_anonymous_args = 0
 1133 0000 00B5     		push	{lr}
 1134              		.cfi_def_cfa_offset 4
 1135              		.cfi_offset 14, -4
 1136 0002 85B0     		sub	sp, sp, #20
 1137              		.cfi_def_cfa_offset 24
 1138 0004 0190     		str	r0, [sp, #4]
 1139              	.LBB18:
 1140              		.loc 13 47 0
 1141 0006 019B     		ldr	r3, [sp, #4]
 1142 0008 D3F80930 		ldr	r3, [r3, #9]	@ unaligned
 1143 000c 0393     		str	r3, [sp, #12]
 1144              		.loc 13 48 0
 1145 000e 019B     		ldr	r3, [sp, #4]
 1146 0010 D3F81530 		ldr	r3, [r3, #21]	@ unaligned
 1147 0014 1846     		mov	r0, r3
 1148 0016 FFF7FEFF 		bl	_ZN3r2p7Message21get_msg_from_raw_dataEPKh
 1149 001a 0346     		mov	r3, r0
 1150 001c 0293     		str	r3, [sp, #8]
 1151              		.loc 13 50 0
 1152 001e 019B     		ldr	r3, [sp, #4]
 1153 0020 1B79     		ldrb	r3, [r3, #4]	@ zero_extendqisi2
 1154 0022 012B     		cmp	r3, #1
 1155 0024 05D1     		bne	.L68
 1156              		.loc 13 60 0
 1157 0026 039A     		ldr	r2, [sp, #12]
 1158 0028 029B     		ldr	r3, [sp, #8]
 1159 002a 1046     		mov	r0, r2
 1160 002c 1946     		mov	r1, r3
 1161 002e FFF7FEFF 		bl	_ZN3r2p13BasePublisher22publish_locally_unsafeERNS_7MessageE
 1162              	.L68:
 1163              		.loc 13 65 0
 1164 0032 039A     		ldr	r2, [sp, #12]
 1165 0034 02AB     		add	r3, sp, #8
 1166 0036 1046     		mov	r0, r2
 1167 0038 1946     		mov	r1, r3
 1168 003a FFF7FEFF 		bl	_ZN3r2p13BasePublisher12alloc_unsafeERPNS_7MessageE
 1169 003e 0346     		mov	r3, r0
ARM GAS  /tmp/ccfWo18f.s 			page 22


 1170 0040 002B     		cmp	r3, #0
 1171 0042 0BD0     		beq	.L69
 1172              		.loc 13 66 0
 1173 0044 029B     		ldr	r3, [sp, #8]
 1174 0046 1846     		mov	r0, r3
 1175 0048 FFF7FEFF 		bl	_ZNK3r2p7Message12get_raw_dataEv
 1176 004c 0246     		mov	r2, r0
 1177 004e 019B     		ldr	r3, [sp, #4]
 1178 0050 C3F81520 		str	r2, [r3, #21]	@ unaligned
 1179              		.loc 13 67 0
 1180 0054 019B     		ldr	r3, [sp, #4]
 1181 0056 0222     		movs	r2, #2
 1182 0058 1A71     		strb	r2, [r3, #4]
 1183 005a 02E0     		b	.L67
 1184              	.L69:
 1185              		.loc 13 69 0
 1186 005c 019B     		ldr	r3, [sp, #4]
 1187 005e 0622     		movs	r2, #6
 1188 0060 1A71     		strb	r2, [r3, #4]
 1189              	.L67:
 1190              	.LBE18:
 1191              		.loc 13 72 0
 1192 0062 05B0     		add	sp, sp, #20
 1193              		.cfi_def_cfa_offset 4
 1194              		@ sp needed
 1195 0064 5DF804FB 		ldr	pc, [sp], #4
 1196              		.cfi_endproc
 1197              	.LFE598:
 1198              		.size	_ZN3r2p14RTCANTransport7recv_cbER11rtcan_msg_t, .-_ZN3r2p14RTCANTransport7recv_cbER11rtcan_m
 1199 0068 AFF30080 		.section	.text._ZN3r2p14RTCANTransport11free_headerER11rtcan_msg_t,"ax",%progbits
 1199      AFF30080 
 1200              		.align	2
 1201              		.p2align 4,,15
 1202              		.global	_ZN3r2p14RTCANTransport11free_headerER11rtcan_msg_t
 1203              		.thumb
 1204              		.thumb_func
 1205              		.type	_ZN3r2p14RTCANTransport11free_headerER11rtcan_msg_t, %function
 1206              	_ZN3r2p14RTCANTransport11free_headerER11rtcan_msg_t:
 1207              	.LFB599:
 1208              		.loc 13 74 0
 1209              		.cfi_startproc
 1210              		@ args = 0, pretend = 0, frame = 16
 1211              		@ frame_needed = 0, uses_anonymous_args = 0
 1212 0000 00B5     		push	{lr}
 1213              		.cfi_def_cfa_offset 4
 1214              		.cfi_offset 14, -4
 1215 0002 85B0     		sub	sp, sp, #20
 1216              		.cfi_def_cfa_offset 24
 1217 0004 0190     		str	r0, [sp, #4]
 1218              	.LBB19:
 1219              		.loc 13 75 0
 1220 0006 019B     		ldr	r3, [sp, #4]
 1221 0008 D3F80930 		ldr	r3, [r3, #9]	@ unaligned
 1222 000c 0393     		str	r3, [sp, #12]
 1223              		.loc 13 76 0
 1224 000e 039B     		ldr	r3, [sp, #12]
 1225 0010 03F5B873 		add	r3, r3, #368
ARM GAS  /tmp/ccfWo18f.s 			page 23


 1226 0014 1846     		mov	r0, r3
 1227 0016 0199     		ldr	r1, [sp, #4]
 1228 0018 FFF7FEFF 		bl	_ZN3r2p10MemoryPoolI11rtcan_msg_tE11free_unsafeEPS1_
 1229              	.LBE19:
 1230              		.loc 13 77 0
 1231 001c 05B0     		add	sp, sp, #20
 1232              		.cfi_def_cfa_offset 4
 1233              		@ sp needed
 1234 001e 5DF804FB 		ldr	pc, [sp], #4
 1235              		.cfi_endproc
 1236              	.LFE599:
 1237              		.size	_ZN3r2p14RTCANTransport11free_headerER11rtcan_msg_t, .-_ZN3r2p14RTCANTransport11free_headerE
 1238 0022 00BFAFF3 		.section	.text._ZNK3r2p14RTCANTransport16create_publisherERNS_5TopicEPKh,"ax",%progbits
 1238      0080AFF3 
 1238      0080AFF3 
 1238      0080
 1239              		.align	2
 1240              		.p2align 4,,15
 1241              		.global	_ZNK3r2p14RTCANTransport16create_publisherERNS_5TopicEPKh
 1242              		.thumb
 1243              		.thumb_func
 1244              		.type	_ZNK3r2p14RTCANTransport16create_publisherERNS_5TopicEPKh, %function
 1245              	_ZNK3r2p14RTCANTransport16create_publisherERNS_5TopicEPKh:
 1246              	.LFB600:
 1247              		.loc 13 79 0
 1248              		.cfi_startproc
 1249              		@ args = 0, pretend = 0, frame = 32
 1250              		@ frame_needed = 0, uses_anonymous_args = 0
 1251 0000 10B5     		push	{r4, lr}
 1252              		.cfi_def_cfa_offset 8
 1253              		.cfi_offset 4, -8
 1254              		.cfi_offset 14, -4
 1255 0002 88B0     		sub	sp, sp, #32
 1256              		.cfi_def_cfa_offset 40
 1257 0004 0390     		str	r0, [sp, #12]
 1258 0006 0291     		str	r1, [sp, #8]
 1259 0008 0192     		str	r2, [sp, #4]
 1260              	.LBB20:
 1261              		.loc 13 80 0
 1262 000a 3420     		movs	r0, #52
 1263 000c FFF7FEFF 		bl	_Znwj
 1264 0010 0446     		mov	r4, r0
 1265 0012 039B     		ldr	r3, [sp, #12]
 1266 0014 2046     		mov	r0, r4
 1267 0016 1946     		mov	r1, r3
 1268 0018 FFF7FEFF 		bl	_ZN3r2p14RTCANPublisherC1ERNS_9TransportE
 1269 001c 0794     		str	r4, [sp, #28]
 1270              		.loc 13 84 0
 1271 001e 079B     		ldr	r3, [sp, #28]
 1272 0020 002B     		cmp	r3, #0
 1273 0022 02D1     		bne	.L73
 1274              		.loc 13 84 0 is_stmt 0 discriminator 1
 1275 0024 2048     		ldr	r0, .L76
 1276 0026 FFF7FEFF 		bl	chDbgPanic
 1277              	.L73:
 1278              		.loc 13 86 0 is_stmt 1
 1279 002a 04AB     		add	r3, sp, #16
ARM GAS  /tmp/ccfWo18f.s 			page 24


 1280 002c 0298     		ldr	r0, [sp, #8]
 1281 002e 1946     		mov	r1, r3
 1282 0030 FFF7FEFF 		bl	_ZN3r2p5Topic5allocINS_7MessageEEEbRPT_
 1283 0034 0346     		mov	r3, r0
 1284 0036 8DF81B30 		strb	r3, [sp, #27]
 1285              		.loc 13 87 0
 1286 003a 9DF81B30 		ldrb	r3, [sp, #27]
 1287 003e 83F00103 		eor	r3, r3, #1
 1288 0042 DBB2     		uxtb	r3, r3
 1289 0044 002B     		cmp	r3, #0
 1290 0046 02D0     		beq	.L74
 1291              		.loc 13 87 0 is_stmt 0 discriminator 1
 1292 0048 1748     		ldr	r0, .L76
 1293 004a FFF7FEFF 		bl	chDbgPanic
 1294              	.L74:
 1295              		.loc 13 89 0 is_stmt 1
 1296 004e 079B     		ldr	r3, [sp, #28]
 1297 0050 1433     		adds	r3, r3, #20
 1298 0052 0593     		str	r3, [sp, #20]
 1299              		.loc 13 90 0
 1300 0054 019B     		ldr	r3, [sp, #4]
 1301 0056 1A88     		ldrh	r2, [r3]
 1302 0058 059B     		ldr	r3, [sp, #20]
 1303 005a A3F81120 		strh	r2, [r3, #17]	@ unaligned
 1304              		.loc 13 91 0
 1305 005e 059B     		ldr	r3, [sp, #20]
 1306 0060 124A     		ldr	r2, .L76+4
 1307 0062 C3F80520 		str	r2, [r3, #5]	@ unaligned
 1308              		.loc 13 92 0
 1309 0066 059B     		ldr	r3, [sp, #20]
 1310 0068 079A     		ldr	r2, [sp, #28]
 1311 006a C3F80920 		str	r2, [r3, #9]	@ unaligned
 1312              		.loc 13 93 0
 1313 006e 0298     		ldr	r0, [sp, #8]
 1314 0070 FFF7FEFF 		bl	_ZNK3r2p5Topic16get_payload_sizeEv
 1315 0074 0346     		mov	r3, r0
 1316 0076 9AB2     		uxth	r2, r3
 1317 0078 059B     		ldr	r3, [sp, #20]
 1318 007a A3F81320 		strh	r2, [r3, #19]	@ unaligned
 1319              		.loc 13 94 0
 1320 007e 049B     		ldr	r3, [sp, #16]
 1321 0080 1846     		mov	r0, r3
 1322 0082 FFF7FEFF 		bl	_ZNK3r2p7Message12get_raw_dataEv
 1323 0086 0246     		mov	r2, r0
 1324 0088 059B     		ldr	r3, [sp, #20]
 1325 008a C3F81520 		str	r2, [r3, #21]	@ unaligned
 1326              		.loc 13 96 0
 1327 008e 059B     		ldr	r3, [sp, #20]
 1328 0090 0222     		movs	r2, #2
 1329 0092 1A71     		strb	r2, [r3, #4]
 1330              		.loc 13 98 0
 1331 0094 0648     		ldr	r0, .L76+8
 1332 0096 0599     		ldr	r1, [sp, #20]
 1333 0098 4FF47F42 		mov	r2, #65280
 1334 009c FFF7FEFF 		bl	rtcanReceiveMask
 1335              		.loc 13 99 0
 1336 00a0 079B     		ldr	r3, [sp, #28]
ARM GAS  /tmp/ccfWo18f.s 			page 25


 1337              	.LBE20:
 1338              		.loc 13 100 0
 1339 00a2 1846     		mov	r0, r3
 1340 00a4 08B0     		add	sp, sp, #32
 1341              		.cfi_def_cfa_offset 8
 1342              		@ sp needed
 1343 00a6 10BD     		pop	{r4, pc}
 1344              	.L77:
 1345              		.align	2
 1346              	.L76:
 1347 00a8 00000000 		.word	.LC0
 1348 00ac 00000000 		.word	_ZN3r2p14RTCANTransport7recv_cbER11rtcan_msg_t
 1349 00b0 00000000 		.word	RTCAND1
 1350              		.cfi_endproc
 1351              	.LFE600:
 1352              		.size	_ZNK3r2p14RTCANTransport16create_publisherERNS_5TopicEPKh, .-_ZNK3r2p14RTCANTransport16creat
 1353 00b4 AFF30080 		.section	.text._ZNK3r2p14RTCANTransport17create_subscriberERNS_5TopicEPNS_22TimestampedMsgPtrQueue
 1353      AFF30080 
 1353      AFF30080 
 1354              		.align	2
 1355              		.p2align 4,,15
 1356              		.global	_ZNK3r2p14RTCANTransport17create_subscriberERNS_5TopicEPNS_22TimestampedMsgPtrQueue5EntryE
 1357              		.thumb
 1358              		.thumb_func
 1359              		.type	_ZNK3r2p14RTCANTransport17create_subscriberERNS_5TopicEPNS_22TimestampedMsgPtrQueue5EntryEj,
 1360              	_ZNK3r2p14RTCANTransport17create_subscriberERNS_5TopicEPNS_22TimestampedMsgPtrQueue5EntryEj:
 1361              	.LFB601:
 1362              		.loc 13 103 0
 1363              		.cfi_startproc
 1364              		@ args = 0, pretend = 0, frame = 24
 1365              		@ frame_needed = 0, uses_anonymous_args = 0
 1366 0000 10B5     		push	{r4, lr}
 1367              		.cfi_def_cfa_offset 8
 1368              		.cfi_offset 4, -8
 1369              		.cfi_offset 14, -4
 1370 0002 86B0     		sub	sp, sp, #24
 1371              		.cfi_def_cfa_offset 32
 1372 0004 0390     		str	r0, [sp, #12]
 1373 0006 0291     		str	r1, [sp, #8]
 1374 0008 0192     		str	r2, [sp, #4]
 1375 000a 0093     		str	r3, [sp]
 1376              	.LBB21:
 1377              		.loc 13 104 0
 1378 000c 2020     		movs	r0, #32
 1379 000e FFF7FEFF 		bl	_Znwj
 1380 0012 0446     		mov	r4, r0
 1381 0014 2046     		mov	r0, r4
 1382 0016 0399     		ldr	r1, [sp, #12]
 1383 0018 019A     		ldr	r2, [sp, #4]
 1384 001a 009B     		ldr	r3, [sp]
 1385 001c FFF7FEFF 		bl	_ZN3r2p15RTCANSubscriberC1ERNS_14RTCANTransportEPNS_22TimestampedMsgPtrQueue5EntryEj
 1386 0020 0594     		str	r4, [sp, #20]
 1387              		.loc 13 108 0
 1388 0022 0398     		ldr	r0, [sp, #12]
 1389 0024 0299     		ldr	r1, [sp, #8]
 1390 0026 FFF7FEFF 		bl	_ZNK3r2p14RTCANTransport8topic_idERKNS_5TopicE
 1391 002a 0346     		mov	r3, r0
ARM GAS  /tmp/ccfWo18f.s 			page 26


 1392 002c 1A46     		mov	r2, r3
 1393 002e 059B     		ldr	r3, [sp, #20]
 1394 0030 9A83     		strh	r2, [r3, #28]	@ movhi
 1395              		.loc 13 110 0
 1396 0032 059B     		ldr	r3, [sp, #20]
 1397              	.LBE21:
 1398              		.loc 13 111 0
 1399 0034 1846     		mov	r0, r3
 1400 0036 06B0     		add	sp, sp, #24
 1401              		.cfi_def_cfa_offset 8
 1402              		@ sp needed
 1403 0038 10BD     		pop	{r4, pc}
 1404              		.cfi_endproc
 1405              	.LFE601:
 1406              		.size	_ZNK3r2p14RTCANTransport17create_subscriberERNS_5TopicEPNS_22TimestampedMsgPtrQueue5EntryEj,
 1407 003a 00BFAFF3 		.section	.text._ZN3r2p14RTCANTransport15fill_raw_paramsERKNS_5TopicEPh,"ax",%progbits
 1407      0080
 1408              		.align	2
 1409              		.p2align 4,,15
 1410              		.global	_ZN3r2p14RTCANTransport15fill_raw_paramsERKNS_5TopicEPh
 1411              		.thumb
 1412              		.thumb_func
 1413              		.type	_ZN3r2p14RTCANTransport15fill_raw_paramsERKNS_5TopicEPh, %function
 1414              	_ZN3r2p14RTCANTransport15fill_raw_paramsERKNS_5TopicEPh:
 1415              	.LFB602:
 1416              		.loc 13 113 0
 1417              		.cfi_startproc
 1418              		@ args = 0, pretend = 0, frame = 16
 1419              		@ frame_needed = 0, uses_anonymous_args = 0
 1420 0000 00B5     		push	{lr}
 1421              		.cfi_def_cfa_offset 4
 1422              		.cfi_offset 14, -4
 1423 0002 85B0     		sub	sp, sp, #20
 1424              		.cfi_def_cfa_offset 24
 1425 0004 0390     		str	r0, [sp, #12]
 1426 0006 0291     		str	r1, [sp, #8]
 1427 0008 0192     		str	r2, [sp, #4]
 1428              		.loc 13 114 0
 1429 000a 0398     		ldr	r0, [sp, #12]
 1430 000c 0299     		ldr	r1, [sp, #8]
 1431 000e FFF7FEFF 		bl	_ZNK3r2p14RTCANTransport8topic_idERKNS_5TopicE
 1432 0012 0346     		mov	r3, r0
 1433 0014 1A46     		mov	r2, r3
 1434 0016 019B     		ldr	r3, [sp, #4]
 1435 0018 1A80     		strh	r2, [r3]	@ movhi
 1436              		.loc 13 115 0
 1437 001a 05B0     		add	sp, sp, #20
 1438              		.cfi_def_cfa_offset 4
 1439              		@ sp needed
 1440 001c 5DF804FB 		ldr	pc, [sp], #4
 1441              		.cfi_endproc
 1442              	.LFE602:
 1443              		.size	_ZN3r2p14RTCANTransport15fill_raw_paramsERKNS_5TopicEPh, .-_ZN3r2p14RTCANTransport15fill_raw
 1444              		.section	.rodata
 1445 000d 000000   		.align	2
 1446              	.LC1:
 1447 0010 52325000 		.ascii	"R2P\000"
ARM GAS  /tmp/ccfWo18f.s 			page 27


 1448              		.section	.text._ZN3r2p14RTCANTransport10initializeERK11RTCANConfig,"ax",%progbits
 1449              		.align	2
 1450              		.p2align 4,,15
 1451              		.global	_ZN3r2p14RTCANTransport10initializeERK11RTCANConfig
 1452              		.thumb
 1453              		.thumb_func
 1454              		.type	_ZN3r2p14RTCANTransport10initializeERK11RTCANConfig, %function
 1455              	_ZN3r2p14RTCANTransport10initializeERK11RTCANConfig:
 1456              	.LFB603:
 1457              		.loc 13 117 0
 1458              		.cfi_startproc
 1459              		@ args = 0, pretend = 0, frame = 16
 1460              		@ frame_needed = 0, uses_anonymous_args = 0
 1461 0000 10B5     		push	{r4, lr}
 1462              		.cfi_def_cfa_offset 8
 1463              		.cfi_offset 4, -8
 1464              		.cfi_offset 14, -4
 1465 0002 86B0     		sub	sp, sp, #24
 1466              		.cfi_def_cfa_offset 32
 1467 0004 0390     		str	r0, [sp, #12]
 1468 0006 0291     		str	r1, [sp, #8]
 1469              	.LBB22:
 1470              		.loc 13 118 0
 1471 0008 2948     		ldr	r0, .L82
 1472 000a FFF7FEFF 		bl	_ZN3r2p10Middleware14get_mgmt_topicEv
 1473 000e 0590     		str	r0, [sp, #20]
 1474              		.loc 13 119 0
 1475 0010 0398     		ldr	r0, [sp, #12]
 1476 0012 0599     		ldr	r1, [sp, #20]
 1477 0014 FFF7FEFF 		bl	_ZNK3r2p14RTCANTransport8topic_idERKNS_5TopicE
 1478 0018 0346     		mov	r3, r0
 1479 001a ADF81230 		strh	r3, [sp, #18]	@ movhi
 1480              		.loc 13 121 0
 1481 001e FFF7FEFF 		bl	rtcanInit
 1482              		.loc 13 122 0
 1483 0022 039B     		ldr	r3, [sp, #12]
 1484 0024 1B6C     		ldr	r3, [r3, #64]
 1485 0026 1846     		mov	r0, r3
 1486 0028 0299     		ldr	r1, [sp, #8]
 1487 002a FFF7FEFF 		bl	rtcanStart
 1488              		.loc 13 124 0
 1489 002e 039B     		ldr	r3, [sp, #12]
 1490 0030 1B68     		ldr	r3, [r3]
 1491 0032 0833     		adds	r3, r3, #8
 1492 0034 1C68     		ldr	r4, [r3]
 1493 0036 039B     		ldr	r3, [sp, #12]
 1494 0038 03F50573 		add	r3, r3, #532
 1495 003c 0398     		ldr	r0, [sp, #12]
 1496 003e 0599     		ldr	r1, [sp, #20]
 1497 0040 1A46     		mov	r2, r3
 1498 0042 0423     		movs	r3, #4
 1499 0044 A047     		blx	r4
 1500 0046 0246     		mov	r2, r0
 1501 0048 039B     		ldr	r3, [sp, #12]
 1502 004a C3F83422 		str	r2, [r3, #564]
 1503              		.loc 13 125 0
 1504 004e 039A     		ldr	r2, [sp, #12]
ARM GAS  /tmp/ccfWo18f.s 			page 28


 1505 0050 039B     		ldr	r3, [sp, #12]
 1506 0052 D3F83432 		ldr	r3, [r3, #564]
 1507 0056 1946     		mov	r1, r3
 1508 0058 039B     		ldr	r3, [sp, #12]
 1509 005a 03F5C674 		add	r4, r3, #396
 1510 005e 0423     		movs	r3, #4
 1511 0060 0093     		str	r3, [sp]
 1512 0062 2223     		movs	r3, #34
 1513 0064 0193     		str	r3, [sp, #4]
 1514 0066 1046     		mov	r0, r2
 1515 0068 124A     		ldr	r2, .L82+4
 1516 006a 2346     		mov	r3, r4
 1517 006c FFF7FEFF 		bl	_ZN3r2p9Transport9subscribeERNS_16RemoteSubscriberEPKcPNS_7MessageEjj
 1518              		.loc 13 127 0
 1519 0070 039B     		ldr	r3, [sp, #12]
 1520 0072 1B68     		ldr	r3, [r3]
 1521 0074 0433     		adds	r3, r3, #4
 1522 0076 1B68     		ldr	r3, [r3]
 1523 0078 0DF11202 		add	r2, sp, #18
 1524 007c 0398     		ldr	r0, [sp, #12]
 1525 007e 0599     		ldr	r1, [sp, #20]
 1526 0080 9847     		blx	r3
 1527 0082 0246     		mov	r2, r0
 1528 0084 039B     		ldr	r3, [sp, #12]
 1529 0086 C3F83822 		str	r2, [r3, #568]
 1530              		.loc 13 128 0
 1531 008a 039A     		ldr	r2, [sp, #12]
 1532 008c 039B     		ldr	r3, [sp, #12]
 1533 008e D3F83832 		ldr	r3, [r3, #568]
 1534 0092 1946     		mov	r1, r3
 1535 0094 2223     		movs	r3, #34
 1536 0096 0093     		str	r3, [sp]
 1537 0098 1046     		mov	r0, r2
 1538 009a 064A     		ldr	r2, .L82+4
 1539 009c 064B     		ldr	r3, .L82+8
 1540 009e FFF7FEFF 		bl	_ZN3r2p9Transport9advertiseERNS_15RemotePublisherEPKcRKNS_4TimeEj
 1541              		.loc 13 130 0
 1542 00a2 039B     		ldr	r3, [sp, #12]
 1543 00a4 0248     		ldr	r0, .L82
 1544 00a6 1946     		mov	r1, r3
 1545 00a8 FFF7FEFF 		bl	_ZN3r2p10Middleware3addERNS_9TransportE
 1546              	.LBE22:
 1547              		.loc 13 131 0
 1548 00ac 06B0     		add	sp, sp, #24
 1549              		.cfi_def_cfa_offset 8
 1550              		@ sp needed
 1551 00ae 10BD     		pop	{r4, pc}
 1552              	.L83:
 1553              		.align	2
 1554              	.L82:
 1555 00b0 00000000 		.word	_ZN3r2p10Middleware8instanceE
 1556 00b4 10000000 		.word	.LC1
 1557 00b8 00000000 		.word	_ZN3r2p4Time8INFINITEE
 1558              		.cfi_endproc
 1559              	.LFE603:
 1560              		.size	_ZN3r2p14RTCANTransport10initializeERK11RTCANConfig, .-_ZN3r2p14RTCANTransport10initializeER
 1561 00bc AFF30080 		.section	.text._ZN3r2p11MemoryPool_D2Ev,"axG",%progbits,_ZN3r2p11MemoryPool_D5Ev,comdat
ARM GAS  /tmp/ccfWo18f.s 			page 29


 1562              		.align	2
 1563              		.p2align 4,,15
 1564              		.weak	_ZN3r2p11MemoryPool_D2Ev
 1565              		.thumb
 1566              		.thumb_func
 1567              		.type	_ZN3r2p11MemoryPool_D2Ev, %function
 1568              	_ZN3r2p11MemoryPool_D2Ev:
 1569              	.LFB607:
 1570              		.loc 7 9 0
 1571              		.cfi_startproc
 1572              		@ args = 0, pretend = 0, frame = 8
 1573              		@ frame_needed = 0, uses_anonymous_args = 0
 1574 0000 00B5     		push	{lr}
 1575              		.cfi_def_cfa_offset 4
 1576              		.cfi_offset 14, -4
 1577 0002 83B0     		sub	sp, sp, #12
 1578              		.cfi_def_cfa_offset 16
 1579 0004 0190     		str	r0, [sp, #4]
 1580              	.LBB23:
 1581              		.loc 7 9 0
 1582 0006 0198     		ldr	r0, [sp, #4]
 1583 0008 FFF7FEFF 		bl	_ZN3r2p10UncopyableD2Ev
 1584              	.LBE23:
 1585 000c 019B     		ldr	r3, [sp, #4]
 1586 000e 1846     		mov	r0, r3
 1587 0010 03B0     		add	sp, sp, #12
 1588              		.cfi_def_cfa_offset 4
 1589              		@ sp needed
 1590 0012 5DF804FB 		ldr	pc, [sp], #4
 1591              		.cfi_endproc
 1592              	.LFE607:
 1593              		.size	_ZN3r2p11MemoryPool_D2Ev, .-_ZN3r2p11MemoryPool_D2Ev
 1594              		.weak	_ZN3r2p11MemoryPool_D1Ev
 1595              		.thumb_set _ZN3r2p11MemoryPool_D1Ev,_ZN3r2p11MemoryPool_D2Ev
 1596 0016 00BFAFF3 		.section	.text._ZN3r2p10MemoryPoolI11rtcan_msg_tED2Ev,"axG",%progbits,_ZN3r2p10MemoryPoolI11rtcan_
 1596      0080AFF3 
 1596      0080
 1597              		.align	2
 1598              		.p2align 4,,15
 1599              		.weak	_ZN3r2p10MemoryPoolI11rtcan_msg_tED2Ev
 1600              		.thumb
 1601              		.thumb_func
 1602              		.type	_ZN3r2p10MemoryPoolI11rtcan_msg_tED2Ev, %function
 1603              	_ZN3r2p10MemoryPoolI11rtcan_msg_tED2Ev:
 1604              	.LFB609:
 1605              		.file 14 "/home/ergae/r2p-sdk/core/Middleware/include/r2p/MemoryPool.hpp"
 1606              		.loc 14 10 0
 1607              		.cfi_startproc
 1608              		@ args = 0, pretend = 0, frame = 8
 1609              		@ frame_needed = 0, uses_anonymous_args = 0
 1610 0000 00B5     		push	{lr}
 1611              		.cfi_def_cfa_offset 4
 1612              		.cfi_offset 14, -4
 1613 0002 83B0     		sub	sp, sp, #12
 1614              		.cfi_def_cfa_offset 16
 1615 0004 0190     		str	r0, [sp, #4]
 1616              	.LBB24:
ARM GAS  /tmp/ccfWo18f.s 			page 30


 1617              		.loc 14 10 0
 1618 0006 019B     		ldr	r3, [sp, #4]
 1619 0008 0433     		adds	r3, r3, #4
 1620 000a 1846     		mov	r0, r3
 1621 000c FFF7FEFF 		bl	_ZN3r2p11MemoryPool_D1Ev
 1622 0010 0198     		ldr	r0, [sp, #4]
 1623 0012 FFF7FEFF 		bl	_ZN3r2p10UncopyableD2Ev
 1624              	.LBE24:
 1625 0016 019B     		ldr	r3, [sp, #4]
 1626 0018 1846     		mov	r0, r3
 1627 001a 03B0     		add	sp, sp, #12
 1628              		.cfi_def_cfa_offset 4
 1629              		@ sp needed
 1630 001c 5DF804FB 		ldr	pc, [sp], #4
 1631              		.cfi_endproc
 1632              	.LFE609:
 1633              		.size	_ZN3r2p10MemoryPoolI11rtcan_msg_tED2Ev, .-_ZN3r2p10MemoryPoolI11rtcan_msg_tED2Ev
 1634              		.weak	_ZN3r2p10MemoryPoolI11rtcan_msg_tED1Ev
 1635              		.thumb_set _ZN3r2p10MemoryPoolI11rtcan_msg_tED1Ev,_ZN3r2p10MemoryPoolI11rtcan_msg_tED2Ev
 1636              		.section	.text._ZN3r2p12StaticQueue_D2Ev,"axG",%progbits,_ZN3r2p12StaticQueue_D5Ev,comdat
 1637              		.align	2
 1638              		.p2align 4,,15
 1639              		.weak	_ZN3r2p12StaticQueue_D2Ev
 1640              		.thumb
 1641              		.thumb_func
 1642              		.type	_ZN3r2p12StaticQueue_D2Ev, %function
 1643              	_ZN3r2p12StaticQueue_D2Ev:
 1644              	.LFB614:
 1645              		.file 15 "/home/ergae/r2p-sdk/core/Middleware/include/r2p/impl/StaticQueue_.hpp"
 1646              		.loc 15 10 0
 1647              		.cfi_startproc
 1648              		@ args = 0, pretend = 0, frame = 8
 1649              		@ frame_needed = 0, uses_anonymous_args = 0
 1650 0000 00B5     		push	{lr}
 1651              		.cfi_def_cfa_offset 4
 1652              		.cfi_offset 14, -4
 1653 0002 83B0     		sub	sp, sp, #12
 1654              		.cfi_def_cfa_offset 16
 1655 0004 0190     		str	r0, [sp, #4]
 1656              	.LBB25:
 1657              		.loc 15 10 0
 1658 0006 0198     		ldr	r0, [sp, #4]
 1659 0008 FFF7FEFF 		bl	_ZN3r2p10UncopyableD2Ev
 1660              	.LBE25:
 1661 000c 019B     		ldr	r3, [sp, #4]
 1662 000e 1846     		mov	r0, r3
 1663 0010 03B0     		add	sp, sp, #12
 1664              		.cfi_def_cfa_offset 4
 1665              		@ sp needed
 1666 0012 5DF804FB 		ldr	pc, [sp], #4
 1667              		.cfi_endproc
 1668              	.LFE614:
 1669              		.size	_ZN3r2p12StaticQueue_D2Ev, .-_ZN3r2p12StaticQueue_D2Ev
 1670              		.weak	_ZN3r2p12StaticQueue_D1Ev
 1671              		.thumb_set _ZN3r2p12StaticQueue_D1Ev,_ZN3r2p12StaticQueue_D2Ev
 1672 0016 00BFAFF3 		.section	.text._ZN3r2p11StaticQueueINS_14BaseSubscriberEED2Ev,"axG",%progbits,_ZN3r2p11StaticQueue
 1672      0080AFF3 
ARM GAS  /tmp/ccfWo18f.s 			page 31


 1672      0080
 1673              		.align	2
 1674              		.p2align 4,,15
 1675              		.weak	_ZN3r2p11StaticQueueINS_14BaseSubscriberEED2Ev
 1676              		.thumb
 1677              		.thumb_func
 1678              		.type	_ZN3r2p11StaticQueueINS_14BaseSubscriberEED2Ev, %function
 1679              	_ZN3r2p11StaticQueueINS_14BaseSubscriberEED2Ev:
 1680              	.LFB616:
 1681              		.file 16 "/home/ergae/r2p-sdk/core/Middleware/include/r2p/StaticQueue.hpp"
 1682              		.loc 16 10 0
 1683              		.cfi_startproc
 1684              		@ args = 0, pretend = 0, frame = 8
 1685              		@ frame_needed = 0, uses_anonymous_args = 0
 1686 0000 00B5     		push	{lr}
 1687              		.cfi_def_cfa_offset 4
 1688              		.cfi_offset 14, -4
 1689 0002 83B0     		sub	sp, sp, #12
 1690              		.cfi_def_cfa_offset 16
 1691 0004 0190     		str	r0, [sp, #4]
 1692              	.LBB26:
 1693              		.loc 16 10 0
 1694 0006 019B     		ldr	r3, [sp, #4]
 1695 0008 0433     		adds	r3, r3, #4
 1696 000a 1846     		mov	r0, r3
 1697 000c FFF7FEFF 		bl	_ZN3r2p12StaticQueue_D1Ev
 1698 0010 0198     		ldr	r0, [sp, #4]
 1699 0012 FFF7FEFF 		bl	_ZN3r2p10UncopyableD2Ev
 1700              	.LBE26:
 1701 0016 019B     		ldr	r3, [sp, #4]
 1702 0018 1846     		mov	r0, r3
 1703 001a 03B0     		add	sp, sp, #12
 1704              		.cfi_def_cfa_offset 4
 1705              		@ sp needed
 1706 001c 5DF804FB 		ldr	pc, [sp], #4
 1707              		.cfi_endproc
 1708              	.LFE616:
 1709              		.size	_ZN3r2p11StaticQueueINS_14BaseSubscriberEED2Ev, .-_ZN3r2p11StaticQueueINS_14BaseSubscriberEE
 1710              		.weak	_ZN3r2p11StaticQueueINS_14BaseSubscriberEED1Ev
 1711              		.thumb_set _ZN3r2p11StaticQueueINS_14BaseSubscriberEED1Ev,_ZN3r2p11StaticQueueINS_14BaseSubscriber
 1712              		.section	.text._ZN3r2p19BaseSubscriberQueueD2Ev,"axG",%progbits,_ZN3r2p19BaseSubscriberQueueD5Ev,c
 1713              		.align	2
 1714              		.p2align 4,,15
 1715              		.weak	_ZN3r2p19BaseSubscriberQueueD2Ev
 1716              		.thumb
 1717              		.thumb_func
 1718              		.type	_ZN3r2p19BaseSubscriberQueueD2Ev, %function
 1719              	_ZN3r2p19BaseSubscriberQueueD2Ev:
 1720              	.LFB618:
 1721              		.file 17 "/home/ergae/r2p-sdk/core/Middleware/include/r2p/BaseSubscriberQueue.hpp"
 1722              		.loc 17 11 0
 1723              		.cfi_startproc
 1724              		@ args = 0, pretend = 0, frame = 8
 1725              		@ frame_needed = 0, uses_anonymous_args = 0
 1726 0000 00B5     		push	{lr}
 1727              		.cfi_def_cfa_offset 4
 1728              		.cfi_offset 14, -4
ARM GAS  /tmp/ccfWo18f.s 			page 32


 1729 0002 83B0     		sub	sp, sp, #12
 1730              		.cfi_def_cfa_offset 16
 1731 0004 0190     		str	r0, [sp, #4]
 1732              	.LBB27:
 1733              		.loc 17 11 0
 1734 0006 019B     		ldr	r3, [sp, #4]
 1735 0008 1846     		mov	r0, r3
 1736 000a FFF7FEFF 		bl	_ZN3r2p11StaticQueueINS_14BaseSubscriberEED2Ev
 1737              	.LBE27:
 1738 000e 019B     		ldr	r3, [sp, #4]
 1739 0010 1846     		mov	r0, r3
 1740 0012 03B0     		add	sp, sp, #12
 1741              		.cfi_def_cfa_offset 4
 1742              		@ sp needed
 1743 0014 5DF804FB 		ldr	pc, [sp], #4
 1744              		.cfi_endproc
 1745              	.LFE618:
 1746              		.size	_ZN3r2p19BaseSubscriberQueueD2Ev, .-_ZN3r2p19BaseSubscriberQueueD2Ev
 1747              		.weak	_ZN3r2p19BaseSubscriberQueueD1Ev
 1748              		.thumb_set _ZN3r2p19BaseSubscriberQueueD1Ev,_ZN3r2p19BaseSubscriberQueueD2Ev
 1749 0018 AFF30080 		.section	.text._ZN3r2p7MgmtMsgC2Ev,"axG",%progbits,_ZN3r2p7MgmtMsgC5Ev,comdat
 1749      AFF30080 
 1750              		.align	2
 1751              		.p2align 4,,15
 1752              		.weak	_ZN3r2p7MgmtMsgC2Ev
 1753              		.thumb
 1754              		.thumb_func
 1755              		.type	_ZN3r2p7MgmtMsgC2Ev, %function
 1756              	_ZN3r2p7MgmtMsgC2Ev:
 1757              	.LFB621:
 1758              		.file 18 "/home/ergae/r2p-sdk/core/Middleware/include/r2p/MgmtMsg.hpp"
 1759              		.loc 18 12 0
 1760              		.cfi_startproc
 1761              		@ args = 0, pretend = 0, frame = 8
 1762              		@ frame_needed = 0, uses_anonymous_args = 0
 1763 0000 00B5     		push	{lr}
 1764              		.cfi_def_cfa_offset 4
 1765              		.cfi_offset 14, -4
 1766 0002 83B0     		sub	sp, sp, #12
 1767              		.cfi_def_cfa_offset 16
 1768 0004 0190     		str	r0, [sp, #4]
 1769              	.LBB28:
 1770              		.loc 18 12 0
 1771 0006 019B     		ldr	r3, [sp, #4]
 1772 0008 1846     		mov	r0, r3
 1773 000a FFF7FEFF 		bl	_ZN3r2p7MessageC2Ev
 1774              	.LBE28:
 1775 000e 019B     		ldr	r3, [sp, #4]
 1776 0010 1846     		mov	r0, r3
 1777 0012 03B0     		add	sp, sp, #12
 1778              		.cfi_def_cfa_offset 4
 1779              		@ sp needed
 1780 0014 5DF804FB 		ldr	pc, [sp], #4
 1781              		.cfi_endproc
 1782              	.LFE621:
 1783              		.size	_ZN3r2p7MgmtMsgC2Ev, .-_ZN3r2p7MgmtMsgC2Ev
 1784              		.weak	_ZN3r2p7MgmtMsgC1Ev
ARM GAS  /tmp/ccfWo18f.s 			page 33


 1785              		.thumb_set _ZN3r2p7MgmtMsgC1Ev,_ZN3r2p7MgmtMsgC2Ev
 1786 0018 AFF30080 		.section	.rodata
 1786      AFF30080 
 1787              		.align	2
 1788              	.LC2:
 1789 0014 72746361 		.ascii	"rtcan\000"
 1789      6E00
 1790              		.section	.text._ZN3r2p14RTCANTransportC2ER11RTCANDriver,"ax",%progbits
 1791              		.align	2
 1792              		.p2align 4,,15
 1793              		.global	_ZN3r2p14RTCANTransportC2ER11RTCANDriver
 1794              		.thumb
 1795              		.thumb_func
 1796              		.type	_ZN3r2p14RTCANTransportC2ER11RTCANDriver, %function
 1797              	_ZN3r2p14RTCANTransportC2ER11RTCANDriver:
 1798              	.LFB623:
 1799              		.loc 13 133 0
 1800              		.cfi_startproc
 1801              		@ args = 0, pretend = 0, frame = 8
 1802              		@ frame_needed = 0, uses_anonymous_args = 0
 1803 0000 30B5     		push	{r4, r5, lr}
 1804              		.cfi_def_cfa_offset 12
 1805              		.cfi_offset 4, -12
 1806              		.cfi_offset 5, -8
 1807              		.cfi_offset 14, -4
 1808 0002 83B0     		sub	sp, sp, #12
 1809              		.cfi_def_cfa_offset 24
 1810 0004 0190     		str	r0, [sp, #4]
 1811 0006 0091     		str	r1, [sp]
 1812              	.LBB29:
 1813              		.loc 13 134 0
 1814 0008 019B     		ldr	r3, [sp, #4]
 1815 000a 1846     		mov	r0, r3
 1816 000c 2049     		ldr	r1, .L109
 1817 000e FFF7FEFF 		bl	_ZN3r2p9TransportC2EPKc
 1818 0012 019B     		ldr	r3, [sp, #4]
 1819 0014 1F4A     		ldr	r2, .L109+4
 1820 0016 1A60     		str	r2, [r3]
 1821 0018 019B     		ldr	r3, [sp, #4]
 1822 001a 009A     		ldr	r2, [sp]
 1823 001c 1A64     		str	r2, [r3, #64]
 1824 001e 019B     		ldr	r3, [sp, #4]
 1825 0020 03F5B872 		add	r2, r3, #368
 1826 0024 019B     		ldr	r3, [sp, #4]
 1827 0026 4433     		adds	r3, r3, #68
 1828 0028 1046     		mov	r0, r2
 1829 002a 1946     		mov	r1, r3
 1830 002c 0A22     		movs	r2, #10
 1831 002e FFF7FEFF 		bl	_ZN3r2p10MemoryPoolI11rtcan_msg_tEC1EPS1_j
 1832 0032 019B     		ldr	r3, [sp, #4]
 1833 0034 03F5C073 		add	r3, r3, #384
 1834 0038 1846     		mov	r0, r3
 1835 003a FFF7FEFF 		bl	_ZN3r2p19BaseSubscriberQueueC1Ev
 1836 003e 019B     		ldr	r3, [sp, #4]
 1837 0040 03F5C673 		add	r3, r3, #396
 1838 0044 0324     		movs	r4, #3
 1839 0046 1D46     		mov	r5, r3
ARM GAS  /tmp/ccfWo18f.s 			page 34


 1840 0048 04E0     		b	.L103
 1841              	.L104:
 1842              		.loc 13 134 0 is_stmt 0 discriminator 3
 1843 004a 2846     		mov	r0, r5
 1844 004c FFF7FEFF 		bl	_ZN3r2p7MgmtMsgC1Ev
 1845 0050 2235     		adds	r5, r5, #34
 1846 0052 013C     		subs	r4, r4, #1
 1847              	.L103:
 1848              		.loc 13 134 0 discriminator 1
 1849 0054 B4F1FF3F 		cmp	r4, #-1
 1850 0058 F7D1     		bne	.L104
 1851              		.loc 13 134 0 discriminator 4
 1852 005a 019B     		ldr	r3, [sp, #4]
 1853 005c 03F50573 		add	r3, r3, #532
 1854 0060 0324     		movs	r4, #3
 1855 0062 1D46     		mov	r5, r3
 1856 0064 04E0     		b	.L105
 1857              	.L106:
 1858              		.loc 13 134 0 discriminator 7
 1859 0066 2846     		mov	r0, r5
 1860 0068 FFF7FEFF 		bl	_ZN3r2p22TimestampedMsgPtrQueue5EntryC1Ev
 1861 006c 0835     		adds	r5, r5, #8
 1862 006e 013C     		subs	r4, r4, #1
 1863              	.L105:
 1864              		.loc 13 134 0 discriminator 5
 1865 0070 B4F1FF3F 		cmp	r4, #-1
 1866 0074 F7D1     		bne	.L106
 1867              		.loc 13 134 0 discriminator 8
 1868 0076 019B     		ldr	r3, [sp, #4]
 1869 0078 0022     		movs	r2, #0
 1870 007a C3F83422 		str	r2, [r3, #564]
 1871 007e 019B     		ldr	r3, [sp, #4]
 1872 0080 0022     		movs	r2, #0
 1873 0082 C3F83822 		str	r2, [r3, #568]
 1874              	.LBE29:
 1875              		.loc 13 135 0 is_stmt 1 discriminator 8
 1876 0086 019B     		ldr	r3, [sp, #4]
 1877 0088 1846     		mov	r0, r3
 1878 008a 03B0     		add	sp, sp, #12
 1879              		.cfi_def_cfa_offset 12
 1880              		@ sp needed
 1881 008c 30BD     		pop	{r4, r5, pc}
 1882              	.L110:
 1883 008e 00BF     		.align	2
 1884              	.L109:
 1885 0090 14000000 		.word	.LC2
 1886 0094 08000000 		.word	_ZTVN3r2p14RTCANTransportE+8
 1887              		.cfi_endproc
 1888              	.LFE623:
 1889              		.size	_ZN3r2p14RTCANTransportC2ER11RTCANDriver, .-_ZN3r2p14RTCANTransportC2ER11RTCANDriver
 1890              		.global	_ZN3r2p14RTCANTransportC1ER11RTCANDriver
 1891              		.thumb_set _ZN3r2p14RTCANTransportC1ER11RTCANDriver,_ZN3r2p14RTCANTransportC2ER11RTCANDriver
 1892 0098 AFF30080 		.section	.text._ZN3r2p14RTCANTransportD2Ev,"ax",%progbits
 1892      AFF30080 
 1893              		.align	2
 1894              		.p2align 4,,15
 1895              		.global	_ZN3r2p14RTCANTransportD2Ev
ARM GAS  /tmp/ccfWo18f.s 			page 35


 1896              		.thumb
 1897              		.thumb_func
 1898              		.type	_ZN3r2p14RTCANTransportD2Ev, %function
 1899              	_ZN3r2p14RTCANTransportD2Ev:
 1900              	.LFB626:
 1901              		.loc 13 137 0
 1902              		.cfi_startproc
 1903              		@ args = 0, pretend = 0, frame = 8
 1904              		@ frame_needed = 0, uses_anonymous_args = 0
 1905 0000 00B5     		push	{lr}
 1906              		.cfi_def_cfa_offset 4
 1907              		.cfi_offset 14, -4
 1908 0002 83B0     		sub	sp, sp, #12
 1909              		.cfi_def_cfa_offset 16
 1910 0004 0190     		str	r0, [sp, #4]
 1911              	.LBB30:
 1912              		.loc 13 137 0
 1913 0006 019B     		ldr	r3, [sp, #4]
 1914 0008 0E4A     		ldr	r2, .L115
 1915 000a 1A60     		str	r2, [r3]
 1916 000c 019B     		ldr	r3, [sp, #4]
 1917 000e 03F5C073 		add	r3, r3, #384
 1918 0012 1846     		mov	r0, r3
 1919 0014 FFF7FEFF 		bl	_ZN3r2p19BaseSubscriberQueueD1Ev
 1920 0018 019B     		ldr	r3, [sp, #4]
 1921 001a 03F5B873 		add	r3, r3, #368
 1922 001e 1846     		mov	r0, r3
 1923 0020 FFF7FEFF 		bl	_ZN3r2p10MemoryPoolI11rtcan_msg_tED1Ev
 1924 0024 019B     		ldr	r3, [sp, #4]
 1925 0026 1846     		mov	r0, r3
 1926 0028 FFF7FEFF 		bl	_ZN3r2p9TransportD2Ev
 1927              	.LBE30:
 1928              		.loc 13 138 0
 1929 002c 0023     		movs	r3, #0
 1930 002e 002B     		cmp	r3, #0
 1931 0030 02D0     		beq	.L113
 1932              		.loc 13 138 0 is_stmt 0 discriminator 2
 1933 0032 0198     		ldr	r0, [sp, #4]
 1934 0034 FFF7FEFF 		bl	_ZdlPv
 1935              	.L113:
 1936              		.loc 13 138 0 discriminator 4
 1937 0038 019B     		ldr	r3, [sp, #4]
 1938 003a 1846     		mov	r0, r3
 1939 003c 03B0     		add	sp, sp, #12
 1940              		.cfi_def_cfa_offset 4
 1941              		@ sp needed
 1942 003e 5DF804FB 		ldr	pc, [sp], #4
 1943              	.L116:
 1944 0042 00BF     		.align	2
 1945              	.L115:
 1946 0044 08000000 		.word	_ZTVN3r2p14RTCANTransportE+8
 1947              		.cfi_endproc
 1948              	.LFE626:
 1949              		.size	_ZN3r2p14RTCANTransportD2Ev, .-_ZN3r2p14RTCANTransportD2Ev
 1950              		.global	_ZN3r2p14RTCANTransportD1Ev
 1951              		.thumb_set _ZN3r2p14RTCANTransportD1Ev,_ZN3r2p14RTCANTransportD2Ev
 1952 0048 AFF30080 		.section	.text._ZN3r2p14RTCANTransportD0Ev,"ax",%progbits
ARM GAS  /tmp/ccfWo18f.s 			page 36


 1952      AFF30080 
 1953              		.align	2
 1954              		.p2align 4,,15
 1955              		.global	_ZN3r2p14RTCANTransportD0Ev
 1956              		.thumb
 1957              		.thumb_func
 1958              		.type	_ZN3r2p14RTCANTransportD0Ev, %function
 1959              	_ZN3r2p14RTCANTransportD0Ev:
 1960              	.LFB628:
 1961              		.loc 13 137 0 is_stmt 1
 1962              		.cfi_startproc
 1963              		@ args = 0, pretend = 0, frame = 8
 1964              		@ frame_needed = 0, uses_anonymous_args = 0
 1965 0000 00B5     		push	{lr}
 1966              		.cfi_def_cfa_offset 4
 1967              		.cfi_offset 14, -4
 1968 0002 83B0     		sub	sp, sp, #12
 1969              		.cfi_def_cfa_offset 16
 1970 0004 0190     		str	r0, [sp, #4]
 1971              		.loc 13 138 0
 1972 0006 0198     		ldr	r0, [sp, #4]
 1973 0008 FFF7FEFF 		bl	_ZN3r2p14RTCANTransportD2Ev
 1974 000c 0198     		ldr	r0, [sp, #4]
 1975 000e FFF7FEFF 		bl	_ZdlPv
 1976 0012 019B     		ldr	r3, [sp, #4]
 1977 0014 1846     		mov	r0, r3
 1978 0016 03B0     		add	sp, sp, #12
 1979              		.cfi_def_cfa_offset 4
 1980              		@ sp needed
 1981 0018 5DF804FB 		ldr	pc, [sp], #4
 1982              		.cfi_endproc
 1983              	.LFE628:
 1984              		.size	_ZN3r2p14RTCANTransportD0Ev, .-_ZN3r2p14RTCANTransportD0Ev
 1985 001c AFF30080 		.section	.rodata
 1986 001a 0000     		.align	2
 1987              	.LC3:
 1988 001c 74657374 		.ascii	"test\000"
 1988      00
 1989 0021 000000   		.section	.text._ZNK3r2p14RTCANTransport8topic_idERKNS_5TopicE,"ax",%progbits
 1990              		.align	2
 1991              		.p2align 4,,15
 1992              		.global	_ZNK3r2p14RTCANTransport8topic_idERKNS_5TopicE
 1993              		.thumb
 1994              		.thumb_func
 1995              		.type	_ZNK3r2p14RTCANTransport8topic_idERKNS_5TopicE, %function
 1996              	_ZNK3r2p14RTCANTransport8topic_idERKNS_5TopicE:
 1997              	.LFB629:
 1998              		.loc 13 141 0
 1999              		.cfi_startproc
 2000              		@ args = 0, pretend = 0, frame = 24
 2001              		@ frame_needed = 0, uses_anonymous_args = 0
 2002 0000 10B5     		push	{r4, lr}
 2003              		.cfi_def_cfa_offset 8
 2004              		.cfi_offset 4, -8
 2005              		.cfi_offset 14, -4
 2006 0002 86B0     		sub	sp, sp, #24
 2007              		.cfi_def_cfa_offset 32
ARM GAS  /tmp/ccfWo18f.s 			page 37


 2008 0004 0190     		str	r0, [sp, #4]
 2009 0006 0091     		str	r1, [sp]
 2010              	.LBB31:
 2011              		.loc 13 142 0
 2012 0008 2348     		ldr	r0, .L125
 2013 000a FFF7FEFF 		bl	_ZNK3r2p10Middleware10get_topicsEv
 2014 000e 0590     		str	r0, [sp, #20]
 2015              		.loc 13 143 0
 2016 0010 2148     		ldr	r0, .L125
 2017 0012 FFF7FEFF 		bl	_ZN3r2p10Middleware14get_mgmt_topicEv
 2018 0016 0490     		str	r0, [sp, #16]
 2019              		.loc 13 144 0
 2020 0018 0598     		ldr	r0, [sp, #20]
 2021 001a 0099     		ldr	r1, [sp]
 2022 001c FFF7FEFF 		bl	_ZNK3r2p10StaticListINS_5TopicEE8index_ofERKS1_
 2023 0020 0390     		str	r0, [sp, #12]
 2024              		.loc 13 148 0
 2025 0022 009A     		ldr	r2, [sp]
 2026 0024 049B     		ldr	r3, [sp, #16]
 2027 0026 9A42     		cmp	r2, r3
 2028 0028 04D1     		bne	.L121
 2029              		.loc 13 148 0 is_stmt 0 discriminator 1
 2030 002a FFF7FEFF 		bl	stm32_id8
 2031 002e 0346     		mov	r3, r0
 2032 0030 9BB2     		uxth	r3, r3
 2033 0032 2EE0     		b	.L122
 2034              	.L121:
 2035              		.loc 13 151 0 is_stmt 1
 2036 0034 0098     		ldr	r0, [sp]
 2037 0036 1949     		ldr	r1, .L125+4
 2038 0038 FFF7FEFF 		bl	_ZN3r2p5Topic8has_nameERKS0_PKc
 2039 003c 0346     		mov	r3, r0
 2040 003e 002B     		cmp	r3, #0
 2041 0040 09D0     		beq	.L123
 2042              		.loc 13 151 0 is_stmt 0 discriminator 1
 2043 0042 FFF7FEFF 		bl	stm32_id8
 2044 0046 0346     		mov	r3, r0
 2045 0048 9BB2     		uxth	r3, r3
 2046 004a 6FEAC353 		mvn	r3, r3, lsl #23
 2047 004e 6FEAD353 		mvn	r3, r3, lsr #23
 2048 0052 9BB2     		uxth	r3, r3
 2049 0054 1DE0     		b	.L122
 2050              	.L123:
 2051              		.loc 13 153 0 is_stmt 1
 2052 0056 039B     		ldr	r3, [sp, #12]
 2053 0058 002B     		cmp	r3, #0
 2054 005a 02DA     		bge	.L124
 2055              		.loc 13 153 0 is_stmt 0 discriminator 1
 2056 005c 4FF47F43 		mov	r3, #65280
 2057 0060 17E0     		b	.L122
 2058              	.L124:
 2059              		.loc 13 155 0 is_stmt 1
 2060 0062 039B     		ldr	r3, [sp, #12]
 2061 0064 1B03     		lsls	r3, r3, #12
 2062 0066 9CB2     		uxth	r4, r3
 2063 0068 FFF7FEFF 		bl	stm32_id8
 2064 006c 0346     		mov	r3, r0
ARM GAS  /tmp/ccfWo18f.s 			page 38


 2065 006e 03F00F03 		and	r3, r3, #15
 2066 0072 1B02     		lsls	r3, r3, #8
 2067 0074 9BB2     		uxth	r3, r3
 2068 0076 2246     		mov	r2, r4	@ movhi
 2069 0078 1343     		orrs	r3, r3, r2
 2070 007a 9CB2     		uxth	r4, r3
 2071 007c FFF7FEFF 		bl	stm32_id8
 2072 0080 0346     		mov	r3, r0
 2073 0082 9BB2     		uxth	r3, r3
 2074 0084 2246     		mov	r2, r4	@ movhi
 2075 0086 1343     		orrs	r3, r3, r2
 2076 0088 9BB2     		uxth	r3, r3
 2077 008a ADF80A30 		strh	r3, [sp, #10]	@ movhi
 2078              		.loc 13 156 0
 2079 008e BDF80A30 		ldrh	r3, [sp, #10]
 2080              	.L122:
 2081              	.LBE31:
 2082              		.loc 13 157 0
 2083 0092 1846     		mov	r0, r3
 2084 0094 06B0     		add	sp, sp, #24
 2085              		.cfi_def_cfa_offset 8
 2086              		@ sp needed
 2087 0096 10BD     		pop	{r4, pc}
 2088              	.L126:
 2089              		.align	2
 2090              	.L125:
 2091 0098 00000000 		.word	_ZN3r2p10Middleware8instanceE
 2092 009c 1C000000 		.word	.LC3
 2093              		.cfi_endproc
 2094              	.LFE629:
 2095              		.size	_ZNK3r2p14RTCANTransport8topic_idERKNS_5TopicE, .-_ZNK3r2p14RTCANTransport8topic_idERKNS_5To
 2096              		.section	.text._ZN3r2p10MemoryPoolI11rtcan_msg_tE12alloc_unsafeEv,"axG",%progbits,_ZN3r2p10MemoryP
 2097              		.align	2
 2098              		.p2align 4,,15
 2099              		.weak	_ZN3r2p10MemoryPoolI11rtcan_msg_tE12alloc_unsafeEv
 2100              		.thumb
 2101              		.thumb_func
 2102              		.type	_ZN3r2p10MemoryPoolI11rtcan_msg_tE12alloc_unsafeEv, %function
 2103              	_ZN3r2p10MemoryPoolI11rtcan_msg_tE12alloc_unsafeEv:
 2104              	.LFB651:
 2105              		.loc 14 58 0
 2106              		.cfi_startproc
 2107              		@ args = 0, pretend = 0, frame = 8
 2108              		@ frame_needed = 0, uses_anonymous_args = 0
 2109 0000 00B5     		push	{lr}
 2110              		.cfi_def_cfa_offset 4
 2111              		.cfi_offset 14, -4
 2112 0002 83B0     		sub	sp, sp, #12
 2113              		.cfi_def_cfa_offset 16
 2114 0004 0190     		str	r0, [sp, #4]
 2115              		.loc 14 60 0
 2116 0006 019B     		ldr	r3, [sp, #4]
 2117 0008 0433     		adds	r3, r3, #4
 2118 000a 1846     		mov	r0, r3
 2119 000c FFF7FEFF 		bl	_ZN3r2p11MemoryPool_12alloc_unsafeEv
 2120 0010 0346     		mov	r3, r0
 2121              		.loc 14 61 0
ARM GAS  /tmp/ccfWo18f.s 			page 39


 2122 0012 1846     		mov	r0, r3
 2123 0014 03B0     		add	sp, sp, #12
 2124              		.cfi_def_cfa_offset 4
 2125              		@ sp needed
 2126 0016 5DF804FB 		ldr	pc, [sp], #4
 2127              		.cfi_endproc
 2128              	.LFE651:
 2129              		.size	_ZN3r2p10MemoryPoolI11rtcan_msg_tE12alloc_unsafeEv, .-_ZN3r2p10MemoryPoolI11rtcan_msg_tE12al
 2130 001a 00BFAFF3 		.section	.text._ZN3r2p10MemoryPoolI11rtcan_msg_tE11free_unsafeEPS1_,"axG",%progbits,_ZN3r2p10Memor
 2130      0080
 2131              		.align	2
 2132              		.p2align 4,,15
 2133              		.weak	_ZN3r2p10MemoryPoolI11rtcan_msg_tE11free_unsafeEPS1_
 2134              		.thumb
 2135              		.thumb_func
 2136              		.type	_ZN3r2p10MemoryPoolI11rtcan_msg_tE11free_unsafeEPS1_, %function
 2137              	_ZN3r2p10MemoryPoolI11rtcan_msg_tE11free_unsafeEPS1_:
 2138              	.LFB652:
 2139              		.loc 14 66 0
 2140              		.cfi_startproc
 2141              		@ args = 0, pretend = 0, frame = 8
 2142              		@ frame_needed = 0, uses_anonymous_args = 0
 2143 0000 00B5     		push	{lr}
 2144              		.cfi_def_cfa_offset 4
 2145              		.cfi_offset 14, -4
 2146 0002 83B0     		sub	sp, sp, #12
 2147              		.cfi_def_cfa_offset 16
 2148 0004 0190     		str	r0, [sp, #4]
 2149 0006 0091     		str	r1, [sp]
 2150              		.loc 14 68 0
 2151 0008 019B     		ldr	r3, [sp, #4]
 2152 000a 0433     		adds	r3, r3, #4
 2153 000c 1846     		mov	r0, r3
 2154 000e 0099     		ldr	r1, [sp]
 2155 0010 FFF7FEFF 		bl	_ZN3r2p11MemoryPool_11free_unsafeEPv
 2156              		.loc 14 69 0
 2157 0014 03B0     		add	sp, sp, #12
 2158              		.cfi_def_cfa_offset 4
 2159              		@ sp needed
 2160 0016 5DF804FB 		ldr	pc, [sp], #4
 2161              		.cfi_endproc
 2162              	.LFE652:
 2163              		.size	_ZN3r2p10MemoryPoolI11rtcan_msg_tE11free_unsafeEPS1_, .-_ZN3r2p10MemoryPoolI11rtcan_msg_tE11
 2164 001a 00BFAFF3 		.section	.text._ZN3r2p5Topic5allocINS_7MessageEEEbRPT_,"axG",%progbits,_ZN3r2p5Topic5allocINS_7Mes
 2164      0080
 2165              		.align	2
 2166              		.p2align 4,,15
 2167              		.weak	_ZN3r2p5Topic5allocINS_7MessageEEEbRPT_
 2168              		.thumb
 2169              		.thumb_func
 2170              		.type	_ZN3r2p5Topic5allocINS_7MessageEEEbRPT_, %function
 2171              	_ZN3r2p5Topic5allocINS_7MessageEEEbRPT_:
 2172              	.LFB653:
 2173              		.loc 10 305 0
 2174              		.cfi_startproc
 2175              		@ args = 0, pretend = 0, frame = 8
 2176              		@ frame_needed = 0, uses_anonymous_args = 0
ARM GAS  /tmp/ccfWo18f.s 			page 40


 2177 0000 00B5     		push	{lr}
 2178              		.cfi_def_cfa_offset 4
 2179              		.cfi_offset 14, -4
 2180 0002 83B0     		sub	sp, sp, #12
 2181              		.cfi_def_cfa_offset 16
 2182 0004 0190     		str	r0, [sp, #4]
 2183 0006 0091     		str	r1, [sp]
 2184              		.loc 10 308 0
 2185 0008 0198     		ldr	r0, [sp, #4]
 2186 000a FFF7FEFF 		bl	_ZN3r2p5Topic5allocEv
 2187 000e 0246     		mov	r2, r0
 2188 0010 009B     		ldr	r3, [sp]
 2189 0012 1A60     		str	r2, [r3]
 2190 0014 009B     		ldr	r3, [sp]
 2191 0016 1B68     		ldr	r3, [r3]
 2192 0018 002B     		cmp	r3, #0
 2193 001a 14BF     		ite	ne
 2194 001c 0123     		movne	r3, #1
 2195 001e 0023     		moveq	r3, #0
 2196 0020 DBB2     		uxtb	r3, r3
 2197              		.loc 10 309 0
 2198 0022 1846     		mov	r0, r3
 2199 0024 03B0     		add	sp, sp, #12
 2200              		.cfi_def_cfa_offset 4
 2201              		@ sp needed
 2202 0026 5DF804FB 		ldr	pc, [sp], #4
 2203              		.cfi_endproc
 2204              	.LFE653:
 2205              		.size	_ZN3r2p5Topic5allocINS_7MessageEEEbRPT_, .-_ZN3r2p5Topic5allocINS_7MessageEEEbRPT_
 2206 002a 00BFAFF3 		.section	.text._ZN3r2p10MemoryPoolI11rtcan_msg_tEC2EPS1_j,"axG",%progbits,_ZN3r2p10MemoryPoolI11rt
 2206      0080
 2207              		.align	2
 2208              		.p2align 4,,15
 2209              		.weak	_ZN3r2p10MemoryPoolI11rtcan_msg_tEC2EPS1_j
 2210              		.thumb
 2211              		.thumb_func
 2212              		.type	_ZN3r2p10MemoryPoolI11rtcan_msg_tEC2EPS1_j, %function
 2213              	_ZN3r2p10MemoryPoolI11rtcan_msg_tEC2EPS1_j:
 2214              	.LFB655:
 2215              		.loc 14 108 0
 2216              		.cfi_startproc
 2217              		@ args = 0, pretend = 0, frame = 16
 2218              		@ frame_needed = 0, uses_anonymous_args = 0
 2219 0000 00B5     		push	{lr}
 2220              		.cfi_def_cfa_offset 4
 2221              		.cfi_offset 14, -4
 2222 0002 85B0     		sub	sp, sp, #20
 2223              		.cfi_def_cfa_offset 24
 2224 0004 0390     		str	r0, [sp, #12]
 2225 0006 0291     		str	r1, [sp, #8]
 2226 0008 0192     		str	r2, [sp, #4]
 2227              	.LBB32:
 2228              		.loc 14 110 0
 2229 000a 0398     		ldr	r0, [sp, #12]
 2230 000c FFF7FEFF 		bl	_ZN3r2p10UncopyableC2Ev
 2231 0010 039B     		ldr	r3, [sp, #12]
 2232 0012 0433     		adds	r3, r3, #4
ARM GAS  /tmp/ccfWo18f.s 			page 41


 2233 0014 1846     		mov	r0, r3
 2234 0016 0299     		ldr	r1, [sp, #8]
 2235 0018 019A     		ldr	r2, [sp, #4]
 2236 001a 1E23     		movs	r3, #30
 2237 001c FFF7FEFF 		bl	_ZN3r2p11MemoryPool_C1EPvjj
 2238              	.LBE32:
 2239              		.loc 14 113 0
 2240 0020 039B     		ldr	r3, [sp, #12]
 2241 0022 1846     		mov	r0, r3
 2242 0024 05B0     		add	sp, sp, #20
 2243              		.cfi_def_cfa_offset 4
 2244              		@ sp needed
 2245 0026 5DF804FB 		ldr	pc, [sp], #4
 2246              		.cfi_endproc
 2247              	.LFE655:
 2248              		.size	_ZN3r2p10MemoryPoolI11rtcan_msg_tEC2EPS1_j, .-_ZN3r2p10MemoryPoolI11rtcan_msg_tEC2EPS1_j
 2249              		.weak	_ZN3r2p10MemoryPoolI11rtcan_msg_tEC1EPS1_j
 2250              		.thumb_set _ZN3r2p10MemoryPoolI11rtcan_msg_tEC1EPS1_j,_ZN3r2p10MemoryPoolI11rtcan_msg_tEC2EPS1_j
 2251 002a 00BFAFF3 		.section	.text._ZNK3r2p10StaticListINS_5TopicEE8index_ofERKS1_,"axG",%progbits,_ZNK3r2p10StaticLis
 2251      0080
 2252              		.align	2
 2253              		.p2align 4,,15
 2254              		.weak	_ZNK3r2p10StaticListINS_5TopicEE8index_ofERKS1_
 2255              		.thumb
 2256              		.thumb_func
 2257              		.type	_ZNK3r2p10StaticListINS_5TopicEE8index_ofERKS1_, %function
 2258              	_ZNK3r2p10StaticListINS_5TopicEE8index_ofERKS1_:
 2259              	.LFB657:
 2260              		.file 19 "/home/ergae/r2p-sdk/core/Middleware/include/r2p/StaticList.hpp"
 2261              		.loc 19 650 0
 2262              		.cfi_startproc
 2263              		@ args = 0, pretend = 0, frame = 16
 2264              		@ frame_needed = 0, uses_anonymous_args = 0
 2265 0000 00B5     		push	{lr}
 2266              		.cfi_def_cfa_offset 4
 2267              		.cfi_offset 14, -4
 2268 0002 85B0     		sub	sp, sp, #20
 2269              		.cfi_def_cfa_offset 24
 2270 0004 0190     		str	r0, [sp, #4]
 2271 0006 0091     		str	r1, [sp]
 2272              	.LBB33:
 2273              		.loc 19 652 0
 2274 0008 0023     		movs	r3, #0
 2275 000a 0393     		str	r3, [sp, #12]
 2276              		.loc 19 653 0
 2277 000c FFF7FEFF 		bl	_ZN3r2p7SysLock7acquireEv
 2278              	.LBB34:
 2279              		.loc 19 654 0
 2280 0010 019B     		ldr	r3, [sp, #4]
 2281 0012 1B68     		ldr	r3, [r3]
 2282 0014 0293     		str	r3, [sp, #8]
 2283 0016 10E0     		b	.L136
 2284              	.L139:
 2285              		.loc 19 655 0
 2286 0018 FFF7FEFF 		bl	_ZN3r2p7SysLock7releaseEv
 2287              		.loc 19 656 0
 2288 001c 029B     		ldr	r3, [sp, #8]
ARM GAS  /tmp/ccfWo18f.s 			page 42


 2289 001e 5A68     		ldr	r2, [r3, #4]
 2290 0020 009B     		ldr	r3, [sp]
 2291 0022 9A42     		cmp	r2, r3
 2292 0024 01D1     		bne	.L137
 2293              		.loc 19 657 0
 2294 0026 039B     		ldr	r3, [sp, #12]
 2295 0028 0EE0     		b	.L138
 2296              	.L137:
 2297              		.loc 19 659 0 discriminator 2
 2298 002a FFF7FEFF 		bl	_ZN3r2p7SysLock7acquireEv
 2299              		.loc 19 654 0 discriminator 2
 2300 002e 039B     		ldr	r3, [sp, #12]
 2301 0030 0133     		adds	r3, r3, #1
 2302 0032 0393     		str	r3, [sp, #12]
 2303 0034 029B     		ldr	r3, [sp, #8]
 2304 0036 1B68     		ldr	r3, [r3]
 2305 0038 0293     		str	r3, [sp, #8]
 2306              	.L136:
 2307              		.loc 19 654 0 is_stmt 0 discriminator 1
 2308 003a 029B     		ldr	r3, [sp, #8]
 2309 003c 002B     		cmp	r3, #0
 2310 003e EBD1     		bne	.L139
 2311              	.LBE34:
 2312              		.loc 19 661 0 is_stmt 1
 2313 0040 FFF7FEFF 		bl	_ZN3r2p7SysLock7releaseEv
 2314              		.loc 19 662 0
 2315 0044 4FF0FF33 		mov	r3, #-1
 2316              	.L138:
 2317              	.LBE33:
 2318              		.loc 19 663 0
 2319 0048 1846     		mov	r0, r3
 2320 004a 05B0     		add	sp, sp, #20
 2321              		.cfi_def_cfa_offset 4
 2322              		@ sp needed
 2323 004c 5DF804FB 		ldr	pc, [sp], #4
 2324              		.cfi_endproc
 2325              	.LFE657:
 2326              		.size	_ZNK3r2p10StaticListINS_5TopicEE8index_ofERKS1_, .-_ZNK3r2p10StaticListINS_5TopicEE8index_of
 2327              		.global	_ZTVN3r2p14RTCANTransportE
 2328              		.section	.rodata._ZTVN3r2p14RTCANTransportE,"a",%progbits
 2329              		.align	3
 2330              		.type	_ZTVN3r2p14RTCANTransportE, %object
 2331              		.size	_ZTVN3r2p14RTCANTransportE, 28
 2332              	_ZTVN3r2p14RTCANTransportE:
 2333 0000 00000000 		.word	0
 2334 0004 00000000 		.word	0
 2335 0008 00000000 		.word	_ZN3r2p14RTCANTransport15fill_raw_paramsERKNS_5TopicEPh
 2336 000c 00000000 		.word	_ZNK3r2p14RTCANTransport16create_publisherERNS_5TopicEPKh
 2337 0010 00000000 		.word	_ZNK3r2p14RTCANTransport17create_subscriberERNS_5TopicEPNS_22TimestampedMsgPtrQueue5EntryEj
 2338 0014 00000000 		.word	_ZN3r2p14RTCANTransportD1Ev
 2339 0018 00000000 		.word	_ZN3r2p14RTCANTransportD0Ev
 2340 001c 00000000 		.text
 2341              	.Letext0:
 2342              		.file 20 "/home/ergae/r2p-sdk/tools/gcc-arm-none-eabi-4_9-2014q4/lib/gcc/arm-none-eabi/4.9.3/inclu
 2343              		.file 21 "/home/ergae/r2p-sdk/tools/gcc-arm-none-eabi-4_9-2014q4/arm-none-eabi/include/machine/_de
 2344              		.file 22 "/home/ergae/r2p-sdk/tools/gcc-arm-none-eabi-4_9-2014q4/arm-none-eabi/include/c++/4.9.3/c
 2345              		.file 23 "/home/ergae/r2p-sdk/tools/gcc-arm-none-eabi-4_9-2014q4/arm-none-eabi/include/string.h"
ARM GAS  /tmp/ccfWo18f.s 			page 43


 2346              		.file 24 "<built-in>"
 2347              		.file 25 "/home/ergae/r2p-sdk/core/Middleware/include/r2p/ArrayQueue.hpp"
 2348              		.file 26 "/home/ergae/r2p-sdk/core/Middleware/port/chibios/include/r2p/impl/Mutex_.hpp"
 2349              		.file 27 "/home/ergae/r2p-sdk/core/Middleware/include/r2p/Mutex.hpp"
 2350              		.file 28 "/home/ergae/r2p-sdk/core/Middleware/port/chibios/include/r2p/impl/Thread_.hpp"
 2351              		.file 29 "/home/ergae/r2p-sdk/core/Middleware/include/r2p/Thread.hpp"
 2352              		.file 30 "/home/ergae/r2p-sdk/core/Middleware/port/chibios/include/r2p/impl/SpinEvent_.hpp"
 2353              		.file 31 "/home/ergae/r2p-sdk/core/Middleware/include/r2p/SpinEvent.hpp"
 2354              		.file 32 "/home/ergae/r2p-sdk/core/Middleware/include/r2p/Node.hpp"
 2355              		.file 33 "/home/ergae/r2p-sdk/core/Middleware/include/r2p/transport/RTCANTransport.hpp"
 2356              		.file 34 "/home/ergae/r2p-sdk/core/Middleware/include/r2p/ReMutex.hpp"
 2357              		.file 35 "/home/ergae/r2p-sdk/core/Middleware/include/r2p/common.hpp"
 2358              		.file 36 "/home/ergae/r2p-sdk/tools/gcc-arm-none-eabi-4_9-2014q4/arm-none-eabi/include/stdint.h"
 2359              		.file 37 "/home/ergae/r2p-sdk/core/ChibiOS/os/ports/GCC/ARMCMx/chtypes.h"
 2360              		.file 38 "/home/ergae/r2p-sdk/core/ChibiOS/os/kernel/include/chlists.h"
 2361              		.file 39 "/home/ergae/r2p-sdk/core/ChibiOS/os/kernel/include/chthreads.h"
 2362              		.file 40 "/home/ergae/r2p-sdk/core/ChibiOS/os/ports/GCC/ARMCMx/chcore_v7m.h"
 2363              		.file 41 "/home/ergae/r2p-sdk/core/ChibiOS/os/kernel/include/chschd.h"
 2364              		.file 42 "/home/ergae/r2p-sdk/core/ChibiOS/os/kernel/include/chmtx.h"
 2365              		.file 43 "/home/ergae/r2p-sdk/core/ChibiOS/os/kernel/include/chmemcore.h"
 2366              		.file 44 "/home/ergae/r2p-sdk/core/ChibiOS/os/kernel/include/chmempools.h"
 2367              		.file 45 "/home/ergae/r2p-sdk/core/ChibiOS/os/hal/platforms/STM32F30x/stm32f30x.h"
 2368              		.file 46 "/home/ergae/r2p-sdk/core/RTCAN/include/rtcan.h"
 2369              		.file 47 "/home/ergae/r2p-sdk/core/RTCAN/include/msgqueue.h"
 2370              		.file 48 "/home/ergae/r2p-sdk/core/RTCAN/include/hrt.h"
 2371              		.file 49 "/home/ergae/r2p-sdk/core/ChibiOS/os/ports/common/ARMCMx/CMSIS/include/core_cm4.h"
 2372              		.file 50 "/home/ergae/r2p-sdk/core/RTCAN/platforms/STM32/rtcan_lld_can.h"
 2373              		.section	.debug_info,"",%progbits
 2374              	.Ldebug_info0:
 2375 0000 C26B0000 		.4byte	0x6bc2
 2376 0004 0400     		.2byte	0x4
 2377 0006 00000000 		.4byte	.Ldebug_abbrev0
 2378 000a 04       		.byte	0x4
 2379 000b 01       		.uleb128 0x1
 2380 000c 290B0000 		.4byte	.LASF972
 2381 0010 04       		.byte	0x4
 2382 0011 4C260000 		.4byte	.LASF973
 2383 0015 50680000 		.4byte	.LASF974
 2384 0019 00000000 		.4byte	.Ldebug_ranges0+0
 2385 001d 00000000 		.4byte	0
 2386 0021 00000000 		.4byte	.Ldebug_line0
 2387 0025 02       		.uleb128 0x2
 2388 0026 04       		.byte	0x4
 2389 0027 05       		.byte	0x5
 2390 0028 696E7400 		.ascii	"int\000"
 2391 002c 03       		.uleb128 0x3
 2392 002d 15240000 		.4byte	.LASF2
 2393 0031 14       		.byte	0x14
 2394 0032 D4       		.byte	0xd4
 2395 0033 37000000 		.4byte	0x37
 2396 0037 04       		.uleb128 0x4
 2397 0038 04       		.byte	0x4
 2398 0039 07       		.byte	0x7
 2399 003a 4B6D0000 		.4byte	.LASF0
 2400 003e 04       		.uleb128 0x4
 2401 003f 01       		.byte	0x1
 2402 0040 06       		.byte	0x6
ARM GAS  /tmp/ccfWo18f.s 			page 44


 2403 0041 2C3A0000 		.4byte	.LASF1
 2404 0045 03       		.uleb128 0x3
 2405 0046 F4020000 		.4byte	.LASF3
 2406 004a 15       		.byte	0x15
 2407 004b 1D       		.byte	0x1d
 2408 004c 50000000 		.4byte	0x50
 2409 0050 04       		.uleb128 0x4
 2410 0051 01       		.byte	0x1
 2411 0052 08       		.byte	0x8
 2412 0053 3C190000 		.4byte	.LASF4
 2413 0057 04       		.uleb128 0x4
 2414 0058 02       		.byte	0x2
 2415 0059 05       		.byte	0x5
 2416 005a 326E0000 		.4byte	.LASF5
 2417 005e 03       		.uleb128 0x3
 2418 005f CC150000 		.4byte	.LASF6
 2419 0063 15       		.byte	0x15
 2420 0064 2B       		.byte	0x2b
 2421 0065 69000000 		.4byte	0x69
 2422 0069 04       		.uleb128 0x4
 2423 006a 02       		.byte	0x2
 2424 006b 07       		.byte	0x7
 2425 006c 193A0000 		.4byte	.LASF7
 2426 0070 03       		.uleb128 0x3
 2427 0071 2F560000 		.4byte	.LASF8
 2428 0075 15       		.byte	0x15
 2429 0076 3F       		.byte	0x3f
 2430 0077 7B000000 		.4byte	0x7b
 2431 007b 04       		.uleb128 0x4
 2432 007c 04       		.byte	0x4
 2433 007d 05       		.byte	0x5
 2434 007e E2420000 		.4byte	.LASF9
 2435 0082 03       		.uleb128 0x3
 2436 0083 7F560000 		.4byte	.LASF10
 2437 0087 15       		.byte	0x15
 2438 0088 41       		.byte	0x41
 2439 0089 8D000000 		.4byte	0x8d
 2440 008d 04       		.uleb128 0x4
 2441 008e 04       		.byte	0x4
 2442 008f 07       		.byte	0x7
 2443 0090 6B470000 		.4byte	.LASF11
 2444 0094 04       		.uleb128 0x4
 2445 0095 08       		.byte	0x8
 2446 0096 05       		.byte	0x5
 2447 0097 8C640000 		.4byte	.LASF12
 2448 009b 03       		.uleb128 0x3
 2449 009c 072E0000 		.4byte	.LASF13
 2450 00a0 15       		.byte	0x15
 2451 00a1 5B       		.byte	0x5b
 2452 00a2 A6000000 		.4byte	0xa6
 2453 00a6 04       		.uleb128 0x4
 2454 00a7 08       		.byte	0x8
 2455 00a8 07       		.byte	0x7
 2456 00a9 765C0000 		.4byte	.LASF14
 2457 00ad 04       		.uleb128 0x4
 2458 00ae 04       		.byte	0x4
 2459 00af 07       		.byte	0x7
ARM GAS  /tmp/ccfWo18f.s 			page 45


 2460 00b0 18390000 		.4byte	.LASF15
 2461 00b4 05       		.uleb128 0x5
 2462 00b5 04       		.byte	0x4
 2463 00b6 06       		.uleb128 0x6
 2464 00b7 04       		.byte	0x4
 2465 00b8 BC000000 		.4byte	0xbc
 2466 00bc 04       		.uleb128 0x4
 2467 00bd 01       		.byte	0x1
 2468 00be 08       		.byte	0x8
 2469 00bf C7490000 		.4byte	.LASF16
 2470 00c3 06       		.uleb128 0x6
 2471 00c4 04       		.byte	0x4
 2472 00c5 C9000000 		.4byte	0xc9
 2473 00c9 07       		.uleb128 0x7
 2474 00ca BC000000 		.4byte	0xbc
 2475 00ce 08       		.uleb128 0x8
 2476 00cf BC000000 		.4byte	0xbc
 2477 00d3 DE000000 		.4byte	0xde
 2478 00d7 09       		.uleb128 0x9
 2479 00d8 AD000000 		.4byte	0xad
 2480 00dc 07       		.byte	0x7
 2481 00dd 00       		.byte	0
 2482 00de 0A       		.uleb128 0xa
 2483 00df 73746400 		.ascii	"std\000"
 2484 00e3 18       		.byte	0x18
 2485 00e4 00       		.byte	0
 2486 00e5 06010000 		.4byte	0x106
 2487 00e9 0B       		.uleb128 0xb
 2488 00ea 16       		.byte	0x16
 2489 00eb 52       		.byte	0x52
 2490 00ec 06010000 		.4byte	0x106
 2491 00f0 0B       		.uleb128 0xb
 2492 00f1 16       		.byte	0x16
 2493 00f2 55       		.byte	0x55
 2494 00f3 20010000 		.4byte	0x120
 2495 00f7 0B       		.uleb128 0xb
 2496 00f8 16       		.byte	0x16
 2497 00f9 5B       		.byte	0x5b
 2498 00fa 35010000 		.4byte	0x135
 2499 00fe 0B       		.uleb128 0xb
 2500 00ff 16       		.byte	0x16
 2501 0100 5C       		.byte	0x5c
 2502 0101 4F010000 		.4byte	0x14f
 2503 0105 00       		.byte	0
 2504 0106 0C       		.uleb128 0xc
 2505 0107 C70C0000 		.4byte	.LASF17
 2506 010b 17       		.byte	0x17
 2507 010c 1D       		.byte	0x1d
 2508 010d 25000000 		.4byte	0x25
 2509 0111 20010000 		.4byte	0x120
 2510 0115 0D       		.uleb128 0xd
 2511 0116 C3000000 		.4byte	0xc3
 2512 011a 0D       		.uleb128 0xd
 2513 011b C3000000 		.4byte	0xc3
 2514 011f 00       		.byte	0
 2515 0120 0C       		.uleb128 0xc
 2516 0121 5E310000 		.4byte	.LASF18
ARM GAS  /tmp/ccfWo18f.s 			page 46


 2517 0125 17       		.byte	0x17
 2518 0126 20       		.byte	0x20
 2519 0127 B6000000 		.4byte	0xb6
 2520 012b 35010000 		.4byte	0x135
 2521 012f 0D       		.uleb128 0xd
 2522 0130 25000000 		.4byte	0x25
 2523 0134 00       		.byte	0
 2524 0135 0C       		.uleb128 0xc
 2525 0136 50460000 		.4byte	.LASF19
 2526 013a 17       		.byte	0x17
 2527 013b 2A       		.byte	0x2a
 2528 013c B6000000 		.4byte	0xb6
 2529 0140 4F010000 		.4byte	0x14f
 2530 0144 0D       		.uleb128 0xd
 2531 0145 B6000000 		.4byte	0xb6
 2532 0149 0D       		.uleb128 0xd
 2533 014a C3000000 		.4byte	0xc3
 2534 014e 00       		.byte	0
 2535 014f 0C       		.uleb128 0xc
 2536 0150 CF310000 		.4byte	.LASF20
 2537 0154 17       		.byte	0x17
 2538 0155 2C       		.byte	0x2c
 2539 0156 2C000000 		.4byte	0x2c
 2540 015a 6E010000 		.4byte	0x16e
 2541 015e 0D       		.uleb128 0xd
 2542 015f B6000000 		.4byte	0xb6
 2543 0163 0D       		.uleb128 0xd
 2544 0164 C3000000 		.4byte	0xc3
 2545 0168 0D       		.uleb128 0xd
 2546 0169 2C000000 		.4byte	0x2c
 2547 016d 00       		.byte	0
 2548 016e 0A       		.uleb128 0xa
 2549 016f 72327000 		.ascii	"r2p\000"
 2550 0173 01       		.byte	0x1
 2551 0174 03       		.byte	0x3
 2552 0175 194D0000 		.4byte	0x4d19
 2553 0179 0E       		.uleb128 0xe
 2554 017a D2320000 		.4byte	.LASF21
 2555 017e 01       		.byte	0x1
 2556 017f 01       		.byte	0x1
 2557 0180 06       		.byte	0x6
 2558 0181 D9010000 		.4byte	0x1d9
 2559 0185 0F       		.uleb128 0xf
 2560 0186 D2320000 		.4byte	.LASF21
 2561 018a 01       		.byte	0x1
 2562 018b 09       		.byte	0x9
 2563 018c 194D0000 		.4byte	0x4d19
 2564 0190 98010000 		.4byte	0x198
 2565 0194 A3010000 		.4byte	0x1a3
 2566 0198 10       		.uleb128 0x10
 2567 0199 194D0000 		.4byte	0x4d19
 2568 019d 0D       		.uleb128 0xd
 2569 019e 1F4D0000 		.4byte	0x4d1f
 2570 01a2 00       		.byte	0
 2571 01a3 11       		.uleb128 0x11
 2572 01a4 D2320000 		.4byte	.LASF21
 2573 01a8 01       		.byte	0x1
ARM GAS  /tmp/ccfWo18f.s 			page 47


 2574 01a9 14       		.byte	0x14
 2575 01aa 194D0000 		.4byte	0x4d19
 2576 01ae 02       		.byte	0x2
 2577 01af B7010000 		.4byte	0x1b7
 2578 01b3 BD010000 		.4byte	0x1bd
 2579 01b7 10       		.uleb128 0x10
 2580 01b8 194D0000 		.4byte	0x4d19
 2581 01bc 00       		.byte	0
 2582 01bd 12       		.uleb128 0x12
 2583 01be 7B6D0000 		.4byte	.LASF22
 2584 01c2 01       		.byte	0x1
 2585 01c3 15       		.byte	0x15
 2586 01c4 B4000000 		.4byte	0xb4
 2587 01c8 02       		.byte	0x2
 2588 01c9 CD010000 		.4byte	0x1cd
 2589 01cd 10       		.uleb128 0x10
 2590 01ce 194D0000 		.4byte	0x4d19
 2591 01d2 10       		.uleb128 0x10
 2592 01d3 25000000 		.4byte	0x25
 2593 01d7 00       		.byte	0
 2594 01d8 00       		.byte	0
 2595 01d9 07       		.uleb128 0x7
 2596 01da 79010000 		.4byte	0x179
 2597 01de 0E       		.uleb128 0xe
 2598 01df EE490000 		.4byte	.LASF23
 2599 01e3 01       		.byte	0x1
 2600 01e4 02       		.byte	0x2
 2601 01e5 09       		.byte	0x9
 2602 01e6 22020000 		.4byte	0x222
 2603 01ea 13       		.uleb128 0x13
 2604 01eb 79010000 		.4byte	0x179
 2605 01ef 00       		.byte	0
 2606 01f0 0F       		.uleb128 0xf
 2607 01f1 EE490000 		.4byte	.LASF23
 2608 01f5 02       		.byte	0x2
 2609 01f6 0B       		.byte	0xb
 2610 01f7 5B520000 		.4byte	0x525b
 2611 01fb 03020000 		.4byte	0x203
 2612 01ff 09020000 		.4byte	0x209
 2613 0203 10       		.uleb128 0x10
 2614 0204 5B520000 		.4byte	0x525b
 2615 0208 00       		.byte	0
 2616 0209 14       		.uleb128 0x14
 2617 020a 3D230000 		.4byte	.LASF24
 2618 020e 02       		.byte	0x2
 2619 020f 0E       		.byte	0xe
 2620 0210 7B150000 		.4byte	.LASF26
 2621 0214 01       		.byte	0x1
 2622 0215 14       		.uleb128 0x14
 2623 0216 44540000 		.4byte	.LASF25
 2624 021a 02       		.byte	0x2
 2625 021b 0F       		.byte	0xf
 2626 021c CB190000 		.4byte	.LASF27
 2627 0220 01       		.byte	0x1
 2628 0221 00       		.byte	0
 2629 0222 0E       		.uleb128 0xe
 2630 0223 8C5D0000 		.4byte	.LASF28
ARM GAS  /tmp/ccfWo18f.s 			page 48


 2631 0227 01       		.byte	0x1
 2632 0228 03       		.byte	0x3
 2633 0229 09       		.byte	0x9
 2634 022a 66020000 		.4byte	0x266
 2635 022e 13       		.uleb128 0x13
 2636 022f 79010000 		.4byte	0x179
 2637 0233 00       		.byte	0
 2638 0234 0F       		.uleb128 0xf
 2639 0235 8C5D0000 		.4byte	.LASF28
 2640 0239 03       		.byte	0x3
 2641 023a 12       		.byte	0x12
 2642 023b 61520000 		.4byte	0x5261
 2643 023f 47020000 		.4byte	0x247
 2644 0243 4D020000 		.4byte	0x24d
 2645 0247 10       		.uleb128 0x10
 2646 0248 61520000 		.4byte	0x5261
 2647 024c 00       		.byte	0
 2648 024d 14       		.uleb128 0x14
 2649 024e 3D230000 		.4byte	.LASF24
 2650 0252 03       		.byte	0x3
 2651 0253 15       		.byte	0x15
 2652 0254 994F0000 		.4byte	.LASF29
 2653 0258 01       		.byte	0x1
 2654 0259 14       		.uleb128 0x14
 2655 025a 44540000 		.4byte	.LASF25
 2656 025e 03       		.byte	0x3
 2657 025f 16       		.byte	0x16
 2658 0260 A3540000 		.4byte	.LASF30
 2659 0264 01       		.byte	0x1
 2660 0265 00       		.byte	0
 2661 0266 0E       		.uleb128 0xe
 2662 0267 BC500000 		.4byte	.LASF31
 2663 026b 04       		.byte	0x4
 2664 026c 04       		.byte	0x4
 2665 026d 08       		.byte	0x8
 2666 026e EC040000 		.4byte	0x4ec
 2667 0272 15       		.uleb128 0x15
 2668 0273 C5220000 		.4byte	.LASF82
 2669 0277 04       		.byte	0x4
 2670 0278 0A       		.byte	0xa
 2671 0279 3B4D0000 		.4byte	0x4d3b
 2672 027d 01       		.byte	0x1
 2673 027e 16       		.uleb128 0x16
 2674 027f 72617700 		.ascii	"raw\000"
 2675 0283 04       		.byte	0x4
 2676 0284 1B       		.byte	0x1b
 2677 0285 72020000 		.4byte	0x272
 2678 0289 00       		.byte	0
 2679 028a 01       		.byte	0x1
 2680 028b 17       		.uleb128 0x17
 2681 028c E2240000 		.4byte	.LASF32
 2682 0290 04       		.byte	0x4
 2683 0291 3B       		.byte	0x3b
 2684 0292 EC040000 		.4byte	0x4ec
 2685 0296 01       		.byte	0x1
 2686 0297 17       		.uleb128 0x17
 2687 0298 EC210000 		.4byte	.LASF33
ARM GAS  /tmp/ccfWo18f.s 			page 49


 2688 029c 04       		.byte	0x4
 2689 029d 3C       		.byte	0x3c
 2690 029e EC040000 		.4byte	0x4ec
 2691 02a2 01       		.byte	0x1
 2692 02a3 17       		.uleb128 0x17
 2693 02a4 F86E0000 		.4byte	.LASF34
 2694 02a8 04       		.byte	0x4
 2695 02a9 3D       		.byte	0x3d
 2696 02aa EC040000 		.4byte	0x4ec
 2697 02ae 01       		.byte	0x1
 2698 02af 18       		.uleb128 0x18
 2699 02b0 2E2B0000 		.4byte	.LASF35
 2700 02b4 04       		.byte	0x4
 2701 02b5 1E       		.byte	0x1e
 2702 02b6 F5690000 		.4byte	.LASF37
 2703 02ba 72020000 		.4byte	0x272
 2704 02be 01       		.byte	0x1
 2705 02bf C7020000 		.4byte	0x2c7
 2706 02c3 CD020000 		.4byte	0x2cd
 2707 02c7 10       		.uleb128 0x10
 2708 02c8 6E520000 		.4byte	0x526e
 2709 02cc 00       		.byte	0
 2710 02cd 18       		.uleb128 0x18
 2711 02ce D5460000 		.4byte	.LASF36
 2712 02d2 04       		.byte	0x4
 2713 02d3 1F       		.byte	0x1f
 2714 02d4 76220000 		.4byte	.LASF38
 2715 02d8 72020000 		.4byte	0x272
 2716 02dc 01       		.byte	0x1
 2717 02dd E5020000 		.4byte	0x2e5
 2718 02e1 EB020000 		.4byte	0x2eb
 2719 02e5 10       		.uleb128 0x10
 2720 02e6 6E520000 		.4byte	0x526e
 2721 02ea 00       		.byte	0
 2722 02eb 18       		.uleb128 0x18
 2723 02ec 3F060000 		.4byte	.LASF39
 2724 02f0 04       		.byte	0x4
 2725 02f1 20       		.byte	0x20
 2726 02f2 4F620000 		.4byte	.LASF40
 2727 02f6 72020000 		.4byte	0x272
 2728 02fa 01       		.byte	0x1
 2729 02fb 03030000 		.4byte	0x303
 2730 02ff 09030000 		.4byte	0x309
 2731 0303 10       		.uleb128 0x10
 2732 0304 6E520000 		.4byte	0x526e
 2733 0308 00       		.byte	0
 2734 0309 18       		.uleb128 0x18
 2735 030a 19140000 		.4byte	.LASF41
 2736 030e 04       		.byte	0x4
 2737 030f 21       		.byte	0x21
 2738 0310 6A420000 		.4byte	.LASF42
 2739 0314 72020000 		.4byte	0x272
 2740 0318 01       		.byte	0x1
 2741 0319 21030000 		.4byte	0x321
 2742 031d 27030000 		.4byte	0x327
 2743 0321 10       		.uleb128 0x10
 2744 0322 6E520000 		.4byte	0x526e
ARM GAS  /tmp/ccfWo18f.s 			page 50


 2745 0326 00       		.byte	0
 2746 0327 18       		.uleb128 0x18
 2747 0328 0C1F0000 		.4byte	.LASF43
 2748 032c 04       		.byte	0x4
 2749 032d 23       		.byte	0x23
 2750 032e 9D070000 		.4byte	.LASF44
 2751 0332 74520000 		.4byte	0x5274
 2752 0336 01       		.byte	0x1
 2753 0337 3F030000 		.4byte	0x33f
 2754 033b 45030000 		.4byte	0x345
 2755 033f 10       		.uleb128 0x10
 2756 0340 6E520000 		.4byte	0x526e
 2757 0344 00       		.byte	0
 2758 0345 18       		.uleb128 0x18
 2759 0346 73130000 		.4byte	.LASF45
 2760 034a 04       		.byte	0x4
 2761 034b 24       		.byte	0x24
 2762 034c 50160000 		.4byte	.LASF46
 2763 0350 74520000 		.4byte	0x5274
 2764 0354 01       		.byte	0x1
 2765 0355 5D030000 		.4byte	0x35d
 2766 0359 63030000 		.4byte	0x363
 2767 035d 10       		.uleb128 0x10
 2768 035e 6E520000 		.4byte	0x526e
 2769 0362 00       		.byte	0
 2770 0363 18       		.uleb128 0x18
 2771 0364 F56B0000 		.4byte	.LASF47
 2772 0368 04       		.byte	0x4
 2773 0369 25       		.byte	0x25
 2774 036a 0F600000 		.4byte	.LASF48
 2775 036e 74520000 		.4byte	0x5274
 2776 0372 01       		.byte	0x1
 2777 0373 7B030000 		.4byte	0x37b
 2778 0377 81030000 		.4byte	0x381
 2779 037b 10       		.uleb128 0x10
 2780 037c 6E520000 		.4byte	0x526e
 2781 0380 00       		.byte	0
 2782 0381 18       		.uleb128 0x18
 2783 0382 D06B0000 		.4byte	.LASF49
 2784 0386 04       		.byte	0x4
 2785 0387 26       		.byte	0x26
 2786 0388 FE1C0000 		.4byte	.LASF50
 2787 038c 74520000 		.4byte	0x5274
 2788 0390 01       		.byte	0x1
 2789 0391 99030000 		.4byte	0x399
 2790 0395 9F030000 		.4byte	0x39f
 2791 0399 10       		.uleb128 0x10
 2792 039a 6E520000 		.4byte	0x526e
 2793 039e 00       		.byte	0
 2794 039f 18       		.uleb128 0x18
 2795 03a0 B6150000 		.4byte	.LASF51
 2796 03a4 04       		.byte	0x4
 2797 03a5 28       		.byte	0x28
 2798 03a6 5F400000 		.4byte	.LASF52
 2799 03aa 7B520000 		.4byte	0x527b
 2800 03ae 01       		.byte	0x1
 2801 03af B7030000 		.4byte	0x3b7
ARM GAS  /tmp/ccfWo18f.s 			page 51


 2802 03b3 C2030000 		.4byte	0x3c2
 2803 03b7 10       		.uleb128 0x10
 2804 03b8 81520000 		.4byte	0x5281
 2805 03bc 0D       		.uleb128 0xd
 2806 03bd 87520000 		.4byte	0x5287
 2807 03c1 00       		.byte	0
 2808 03c2 18       		.uleb128 0x18
 2809 03c3 EF470000 		.4byte	.LASF53
 2810 03c7 04       		.byte	0x4
 2811 03c8 29       		.byte	0x29
 2812 03c9 A3600000 		.4byte	.LASF54
 2813 03cd 7B520000 		.4byte	0x527b
 2814 03d1 01       		.byte	0x1
 2815 03d2 DA030000 		.4byte	0x3da
 2816 03d6 E5030000 		.4byte	0x3e5
 2817 03da 10       		.uleb128 0x10
 2818 03db 81520000 		.4byte	0x5281
 2819 03df 0D       		.uleb128 0xd
 2820 03e0 87520000 		.4byte	0x5287
 2821 03e4 00       		.byte	0
 2822 03e5 18       		.uleb128 0x18
 2823 03e6 0B4C0000 		.4byte	.LASF55
 2824 03ea 04       		.byte	0x4
 2825 03eb 2A       		.byte	0x2a
 2826 03ec ED120000 		.4byte	.LASF56
 2827 03f0 7B520000 		.4byte	0x527b
 2828 03f4 01       		.byte	0x1
 2829 03f5 FD030000 		.4byte	0x3fd
 2830 03f9 08040000 		.4byte	0x408
 2831 03fd 10       		.uleb128 0x10
 2832 03fe 81520000 		.4byte	0x5281
 2833 0402 0D       		.uleb128 0xd
 2834 0403 87520000 		.4byte	0x5287
 2835 0407 00       		.byte	0
 2836 0408 11       		.uleb128 0x11
 2837 0409 BC500000 		.4byte	.LASF31
 2838 040d 04       		.byte	0x4
 2839 040e 2D       		.byte	0x2d
 2840 040f 81520000 		.4byte	0x5281
 2841 0413 01       		.byte	0x1
 2842 0414 1C040000 		.4byte	0x41c
 2843 0418 22040000 		.4byte	0x422
 2844 041c 10       		.uleb128 0x10
 2845 041d 81520000 		.4byte	0x5281
 2846 0421 00       		.byte	0
 2847 0422 19       		.uleb128 0x19
 2848 0423 BC500000 		.4byte	.LASF31
 2849 0427 04       		.byte	0x4
 2850 0428 2F       		.byte	0x2f
 2851 0429 81520000 		.4byte	0x5281
 2852 042d 01       		.byte	0x1
 2853 042e 36040000 		.4byte	0x436
 2854 0432 41040000 		.4byte	0x441
 2855 0436 10       		.uleb128 0x10
 2856 0437 81520000 		.4byte	0x5281
 2857 043b 0D       		.uleb128 0xd
 2858 043c 74520000 		.4byte	0x5274
ARM GAS  /tmp/ccfWo18f.s 			page 52


 2859 0440 00       		.byte	0
 2860 0441 11       		.uleb128 0x11
 2861 0442 BC500000 		.4byte	.LASF31
 2862 0446 04       		.byte	0x4
 2863 0447 30       		.byte	0x30
 2864 0448 81520000 		.4byte	0x5281
 2865 044c 01       		.byte	0x1
 2866 044d 55040000 		.4byte	0x455
 2867 0451 60040000 		.4byte	0x460
 2868 0455 10       		.uleb128 0x10
 2869 0456 81520000 		.4byte	0x5281
 2870 045a 0D       		.uleb128 0xd
 2871 045b 87520000 		.4byte	0x5287
 2872 045f 00       		.byte	0
 2873 0460 1A       		.uleb128 0x1a
 2874 0461 757300   		.ascii	"us\000"
 2875 0464 04       		.byte	0x4
 2876 0465 33       		.byte	0x33
 2877 0466 56390000 		.4byte	.LASF57
 2878 046a 66020000 		.4byte	0x266
 2879 046e 01       		.byte	0x1
 2880 046f 79040000 		.4byte	0x479
 2881 0473 0D       		.uleb128 0xd
 2882 0474 72020000 		.4byte	0x272
 2883 0478 00       		.byte	0
 2884 0479 1A       		.uleb128 0x1a
 2885 047a 6D7300   		.ascii	"ms\000"
 2886 047d 04       		.byte	0x4
 2887 047e 34       		.byte	0x34
 2888 047f A5480000 		.4byte	.LASF58
 2889 0483 66020000 		.4byte	0x266
 2890 0487 01       		.byte	0x1
 2891 0488 92040000 		.4byte	0x492
 2892 048c 0D       		.uleb128 0xd
 2893 048d 72020000 		.4byte	0x272
 2894 0491 00       		.byte	0
 2895 0492 1A       		.uleb128 0x1a
 2896 0493 7300     		.ascii	"s\000"
 2897 0495 04       		.byte	0x4
 2898 0496 35       		.byte	0x35
 2899 0497 1D540000 		.4byte	.LASF59
 2900 049b 66020000 		.4byte	0x266
 2901 049f 01       		.byte	0x1
 2902 04a0 AA040000 		.4byte	0x4aa
 2903 04a4 0D       		.uleb128 0xd
 2904 04a5 72020000 		.4byte	0x272
 2905 04a9 00       		.byte	0
 2906 04aa 1A       		.uleb128 0x1a
 2907 04ab 6D00     		.ascii	"m\000"
 2908 04ad 04       		.byte	0x4
 2909 04ae 36       		.byte	0x36
 2910 04af 6D140000 		.4byte	.LASF60
 2911 04b3 66020000 		.4byte	0x266
 2912 04b7 01       		.byte	0x1
 2913 04b8 C2040000 		.4byte	0x4c2
 2914 04bc 0D       		.uleb128 0xd
 2915 04bd 72020000 		.4byte	0x272
ARM GAS  /tmp/ccfWo18f.s 			page 53


 2916 04c1 00       		.byte	0
 2917 04c2 1A       		.uleb128 0x1a
 2918 04c3 687A00   		.ascii	"hz\000"
 2919 04c6 04       		.byte	0x4
 2920 04c7 37       		.byte	0x37
 2921 04c8 7F680000 		.4byte	.LASF61
 2922 04cc 66020000 		.4byte	0x266
 2923 04d0 01       		.byte	0x1
 2924 04d1 DB040000 		.4byte	0x4db
 2925 04d5 0D       		.uleb128 0xd
 2926 04d6 74520000 		.4byte	0x5274
 2927 04da 00       		.byte	0
 2928 04db 1B       		.uleb128 0x1b
 2929 04dc 6E6F7700 		.ascii	"now\000"
 2930 04e0 04       		.byte	0x4
 2931 04e1 38       		.byte	0x38
 2932 04e2 21680000 		.4byte	.LASF975
 2933 04e6 66020000 		.4byte	0x266
 2934 04ea 01       		.byte	0x1
 2935 04eb 00       		.byte	0
 2936 04ec 07       		.uleb128 0x7
 2937 04ed 66020000 		.4byte	0x266
 2938 04f1 0E       		.uleb128 0xe
 2939 04f2 70200000 		.4byte	.LASF62
 2940 04f6 14       		.byte	0x14
 2941 04f7 05       		.byte	0x5
 2942 04f8 0C       		.byte	0xc
 2943 04f9 95060000 		.4byte	0x695
 2944 04fd 1C       		.uleb128 0x1c
 2945 04fe 9B450000 		.4byte	.LASF65
 2946 0502 08       		.byte	0x8
 2947 0503 05       		.byte	0x5
 2948 0504 0E       		.byte	0xe
 2949 0505 01       		.byte	0x1
 2950 0506 7D050000 		.4byte	0x57d
 2951 050a 1D       		.uleb128 0x1d
 2952 050b A9470000 		.4byte	.LASF63
 2953 050f 05       		.byte	0x5
 2954 0510 0F       		.byte	0xf
 2955 0511 8D520000 		.4byte	0x528d
 2956 0515 00       		.byte	0
 2957 0516 1D       		.uleb128 0x1d
 2958 0517 542D0000 		.4byte	.LASF64
 2959 051b 05       		.byte	0x5
 2960 051c 10       		.byte	0x10
 2961 051d 66020000 		.4byte	0x266
 2962 0521 04       		.byte	0x4
 2963 0522 1E       		.uleb128 0x1e
 2964 0523 B6150000 		.4byte	.LASF51
 2965 0527 05       		.byte	0x5
 2966 0528 12       		.byte	0x12
 2967 0529 0C060000 		.4byte	.LASF88
 2968 052d 93520000 		.4byte	0x5293
 2969 0531 39050000 		.4byte	0x539
 2970 0535 44050000 		.4byte	0x544
 2971 0539 10       		.uleb128 0x10
 2972 053a 99520000 		.4byte	0x5299
ARM GAS  /tmp/ccfWo18f.s 			page 54


 2973 053e 0D       		.uleb128 0xd
 2974 053f 9F520000 		.4byte	0x529f
 2975 0543 00       		.byte	0
 2976 0544 0F       		.uleb128 0xf
 2977 0545 9B450000 		.4byte	.LASF65
 2978 0549 05       		.byte	0x5
 2979 054a 14       		.byte	0x14
 2980 054b 99520000 		.4byte	0x5299
 2981 054f 57050000 		.4byte	0x557
 2982 0553 5D050000 		.4byte	0x55d
 2983 0557 10       		.uleb128 0x10
 2984 0558 99520000 		.4byte	0x5299
 2985 055c 00       		.byte	0
 2986 055d 1F       		.uleb128 0x1f
 2987 055e 9B450000 		.4byte	.LASF65
 2988 0562 05       		.byte	0x5
 2989 0563 15       		.byte	0x15
 2990 0564 99520000 		.4byte	0x5299
 2991 0568 6C050000 		.4byte	0x56c
 2992 056c 10       		.uleb128 0x10
 2993 056d 99520000 		.4byte	0x5299
 2994 0571 0D       		.uleb128 0xd
 2995 0572 8D520000 		.4byte	0x528d
 2996 0576 0D       		.uleb128 0xd
 2997 0577 87520000 		.4byte	0x5287
 2998 057b 00       		.byte	0
 2999 057c 00       		.byte	0
 3000 057d 07       		.uleb128 0x7
 3001 057e FD040000 		.4byte	0x4fd
 3002 0582 1D       		.uleb128 0x1d
 3003 0583 121F0000 		.4byte	.LASF66
 3004 0587 05       		.byte	0x5
 3005 0588 19       		.byte	0x19
 3006 0589 00080000 		.4byte	0x800
 3007 058d 00       		.byte	0
 3008 058e 18       		.uleb128 0x18
 3009 058f 48060000 		.4byte	.LASF67
 3010 0593 05       		.byte	0x5
 3011 0594 1C       		.byte	0x1c
 3012 0595 21390000 		.4byte	.LASF68
 3013 0599 2C000000 		.4byte	0x2c
 3014 059d 01       		.byte	0x1
 3015 059e A6050000 		.4byte	0x5a6
 3016 05a2 AC050000 		.4byte	0x5ac
 3017 05a6 10       		.uleb128 0x10
 3018 05a7 B1520000 		.4byte	0x52b1
 3019 05ab 00       		.byte	0
 3020 05ac 18       		.uleb128 0x18
 3021 05ad 08490000 		.4byte	.LASF69
 3022 05b1 05       		.byte	0x5
 3023 05b2 1D       		.byte	0x1d
 3024 05b3 9B350000 		.4byte	.LASF70
 3025 05b7 5C4D0000 		.4byte	0x4d5c
 3026 05bb 01       		.byte	0x1
 3027 05bc C4050000 		.4byte	0x5c4
 3028 05c0 CF050000 		.4byte	0x5cf
 3029 05c4 10       		.uleb128 0x10
ARM GAS  /tmp/ccfWo18f.s 			page 55


 3030 05c5 B7520000 		.4byte	0x52b7
 3031 05c9 0D       		.uleb128 0xd
 3032 05ca 93520000 		.4byte	0x5293
 3033 05ce 00       		.byte	0
 3034 05cf 18       		.uleb128 0x18
 3035 05d0 A73D0000 		.4byte	.LASF71
 3036 05d4 05       		.byte	0x5
 3037 05d5 1E       		.byte	0x1e
 3038 05d6 E2530000 		.4byte	.LASF72
 3039 05da 5C4D0000 		.4byte	0x4d5c
 3040 05de 01       		.byte	0x1
 3041 05df E7050000 		.4byte	0x5e7
 3042 05e3 F2050000 		.4byte	0x5f2
 3043 05e7 10       		.uleb128 0x10
 3044 05e8 B7520000 		.4byte	0x52b7
 3045 05ec 0D       		.uleb128 0xd
 3046 05ed 93520000 		.4byte	0x5293
 3047 05f1 00       		.byte	0
 3048 05f2 18       		.uleb128 0x18
 3049 05f3 69320000 		.4byte	.LASF73
 3050 05f7 05       		.byte	0x5
 3051 05f8 20       		.byte	0x20
 3052 05f9 3D500000 		.4byte	.LASF74
 3053 05fd 2C000000 		.4byte	0x2c
 3054 0601 01       		.byte	0x1
 3055 0602 0A060000 		.4byte	0x60a
 3056 0606 10060000 		.4byte	0x610
 3057 060a 10       		.uleb128 0x10
 3058 060b B1520000 		.4byte	0x52b1
 3059 060f 00       		.byte	0
 3060 0610 18       		.uleb128 0x18
 3061 0611 8E390000 		.4byte	.LASF75
 3062 0615 05       		.byte	0x5
 3063 0616 21       		.byte	0x21
 3064 0617 CA580000 		.4byte	.LASF76
 3065 061b 2C000000 		.4byte	0x2c
 3066 061f 01       		.byte	0x1
 3067 0620 28060000 		.4byte	0x628
 3068 0624 2E060000 		.4byte	0x62e
 3069 0628 10       		.uleb128 0x10
 3070 0629 B1520000 		.4byte	0x52b1
 3071 062d 00       		.byte	0
 3072 062e 18       		.uleb128 0x18
 3073 062f 92660000 		.4byte	.LASF77
 3074 0633 05       		.byte	0x5
 3075 0634 22       		.byte	0x22
 3076 0635 CE3C0000 		.4byte	.LASF78
 3077 0639 5C4D0000 		.4byte	0x4d5c
 3078 063d 01       		.byte	0x1
 3079 063e 46060000 		.4byte	0x646
 3080 0642 51060000 		.4byte	0x651
 3081 0646 10       		.uleb128 0x10
 3082 0647 B7520000 		.4byte	0x52b7
 3083 064b 0D       		.uleb128 0xd
 3084 064c 93520000 		.4byte	0x5293
 3085 0650 00       		.byte	0
 3086 0651 18       		.uleb128 0x18
ARM GAS  /tmp/ccfWo18f.s 			page 56


 3087 0652 D3280000 		.4byte	.LASF79
 3088 0656 05       		.byte	0x5
 3089 0657 23       		.byte	0x23
 3090 0658 CF0C0000 		.4byte	.LASF80
 3091 065c 5C4D0000 		.4byte	0x4d5c
 3092 0660 01       		.byte	0x1
 3093 0661 69060000 		.4byte	0x669
 3094 0665 74060000 		.4byte	0x674
 3095 0669 10       		.uleb128 0x10
 3096 066a B7520000 		.4byte	0x52b7
 3097 066e 0D       		.uleb128 0xd
 3098 066f 93520000 		.4byte	0x5293
 3099 0673 00       		.byte	0
 3100 0674 12       		.uleb128 0x12
 3101 0675 70200000 		.4byte	.LASF62
 3102 0679 05       		.byte	0x5
 3103 067a 26       		.byte	0x26
 3104 067b B7520000 		.4byte	0x52b7
 3105 067f 01       		.byte	0x1
 3106 0680 84060000 		.4byte	0x684
 3107 0684 10       		.uleb128 0x10
 3108 0685 B7520000 		.4byte	0x52b7
 3109 0689 0D       		.uleb128 0xd
 3110 068a 99520000 		.4byte	0x5299
 3111 068e 0D       		.uleb128 0xd
 3112 068f 2C000000 		.4byte	0x2c
 3113 0693 00       		.byte	0
 3114 0694 00       		.byte	0
 3115 0695 0E       		.uleb128 0xe
 3116 0696 D2520000 		.4byte	.LASF81
 3117 069a 02       		.byte	0x2
 3118 069b 06       		.byte	0x6
 3119 069c 14       		.byte	0x14
 3120 069d 00080000 		.4byte	0x800
 3121 06a1 15       		.uleb128 0x15
 3122 06a2 160A0000 		.4byte	.LASF83
 3123 06a6 06       		.byte	0x6
 3124 06a7 16       		.byte	0x16
 3125 06a8 304D0000 		.4byte	0x4d30
 3126 06ac 01       		.byte	0x1
 3127 06ad 1D       		.uleb128 0x1d
 3128 06ae FE2D0000 		.4byte	.LASF84
 3129 06b2 06       		.byte	0x6
 3130 06b3 1D       		.byte	0x1d
 3131 06b4 A1060000 		.4byte	0x6a1
 3132 06b8 00       		.byte	0
 3133 06b9 18       		.uleb128 0x18
 3134 06ba BE0E0000 		.4byte	.LASF85
 3135 06be 06       		.byte	0x6
 3136 06bf 20       		.byte	0x20
 3137 06c0 42100000 		.4byte	.LASF86
 3138 06c4 50520000 		.4byte	0x5250
 3139 06c8 01       		.byte	0x1
 3140 06c9 D1060000 		.4byte	0x6d1
 3141 06cd D7060000 		.4byte	0x6d7
 3142 06d1 10       		.uleb128 0x10
 3143 06d2 C2530000 		.4byte	0x53c2
ARM GAS  /tmp/ccfWo18f.s 			page 57


 3144 06d6 00       		.byte	0
 3145 06d7 20       		.uleb128 0x20
 3146 06d8 39560000 		.4byte	.LASF87
 3147 06dc 06       		.byte	0x6
 3148 06dd 26       		.byte	0x26
 3149 06de E6190000 		.4byte	.LASF89
 3150 06e2 01       		.byte	0x1
 3151 06e3 EB060000 		.4byte	0x6eb
 3152 06e7 F1060000 		.4byte	0x6f1
 3153 06eb 10       		.uleb128 0x10
 3154 06ec 8D520000 		.4byte	0x528d
 3155 06f0 00       		.byte	0
 3156 06f1 18       		.uleb128 0x18
 3157 06f2 7E2D0000 		.4byte	.LASF90
 3158 06f6 06       		.byte	0x6
 3159 06f7 27       		.byte	0x27
 3160 06f8 8F320000 		.4byte	.LASF91
 3161 06fc 5C4D0000 		.4byte	0x4d5c
 3162 0700 01       		.byte	0x1
 3163 0701 09070000 		.4byte	0x709
 3164 0705 0F070000 		.4byte	0x70f
 3165 0709 10       		.uleb128 0x10
 3166 070a 8D520000 		.4byte	0x528d
 3167 070e 00       		.byte	0
 3168 070f 20       		.uleb128 0x20
 3169 0710 7D380000 		.4byte	.LASF92
 3170 0714 06       		.byte	0x6
 3171 0715 28       		.byte	0x28
 3172 0716 2C030000 		.4byte	.LASF93
 3173 071a 01       		.byte	0x1
 3174 071b 23070000 		.4byte	0x723
 3175 071f 29070000 		.4byte	0x729
 3176 0723 10       		.uleb128 0x10
 3177 0724 8D520000 		.4byte	0x528d
 3178 0728 00       		.byte	0
 3179 0729 20       		.uleb128 0x20
 3180 072a 3D230000 		.4byte	.LASF24
 3181 072e 06       		.byte	0x6
 3182 072f 2A       		.byte	0x2a
 3183 0730 3D350000 		.4byte	.LASF94
 3184 0734 01       		.byte	0x1
 3185 0735 3D070000 		.4byte	0x73d
 3186 0739 43070000 		.4byte	0x743
 3187 073d 10       		.uleb128 0x10
 3188 073e 8D520000 		.4byte	0x528d
 3189 0742 00       		.byte	0
 3190 0743 18       		.uleb128 0x18
 3191 0744 44540000 		.4byte	.LASF25
 3192 0748 06       		.byte	0x6
 3193 0749 2B       		.byte	0x2b
 3194 074a 010B0000 		.4byte	.LASF95
 3195 074e 5C4D0000 		.4byte	0x4d5c
 3196 0752 01       		.byte	0x1
 3197 0753 5B070000 		.4byte	0x75b
 3198 0757 61070000 		.4byte	0x761
 3199 075b 10       		.uleb128 0x10
 3200 075c 8D520000 		.4byte	0x528d
ARM GAS  /tmp/ccfWo18f.s 			page 58


 3201 0760 00       		.byte	0
 3202 0761 20       		.uleb128 0x20
 3203 0762 8A380000 		.4byte	.LASF96
 3204 0766 06       		.byte	0x6
 3205 0767 2C       		.byte	0x2c
 3206 0768 BC390000 		.4byte	.LASF97
 3207 076c 01       		.byte	0x1
 3208 076d 75070000 		.4byte	0x775
 3209 0771 7B070000 		.4byte	0x77b
 3210 0775 10       		.uleb128 0x10
 3211 0776 8D520000 		.4byte	0x528d
 3212 077a 00       		.byte	0
 3213 077b 11       		.uleb128 0x11
 3214 077c D2520000 		.4byte	.LASF81
 3215 0780 06       		.byte	0x6
 3216 0781 2F       		.byte	0x2f
 3217 0782 8D520000 		.4byte	0x528d
 3218 0786 02       		.byte	0x2
 3219 0787 8F070000 		.4byte	0x78f
 3220 078b 95070000 		.4byte	0x795
 3221 078f 10       		.uleb128 0x10
 3222 0790 8D520000 		.4byte	0x528d
 3223 0794 00       		.byte	0
 3224 0795 21       		.uleb128 0x21
 3225 0796 20420000 		.4byte	.LASF98
 3226 079a 06       		.byte	0x6
 3227 079b 32       		.byte	0x32
 3228 079c 752E0000 		.4byte	.LASF104
 3229 07a0 01       		.byte	0x1
 3230 07a1 B5070000 		.4byte	0x7b5
 3231 07a5 0D       		.uleb128 0xd
 3232 07a6 C8530000 		.4byte	0x53c8
 3233 07aa 0D       		.uleb128 0xd
 3234 07ab CE530000 		.4byte	0x53ce
 3235 07af 0D       		.uleb128 0xd
 3236 07b0 2C000000 		.4byte	0x2c
 3237 07b4 00       		.byte	0
 3238 07b5 22       		.uleb128 0x22
 3239 07b6 F3060000 		.4byte	.LASF99
 3240 07ba 06       		.byte	0x6
 3241 07bb 33       		.byte	0x33
 3242 07bc EA230000 		.4byte	.LASF100
 3243 07c0 CE530000 		.4byte	0x53ce
 3244 07c4 01       		.byte	0x1
 3245 07c5 CF070000 		.4byte	0x7cf
 3246 07c9 0D       		.uleb128 0xd
 3247 07ca 50520000 		.4byte	0x5250
 3248 07ce 00       		.byte	0
 3249 07cf 22       		.uleb128 0x22
 3250 07d0 96690000 		.4byte	.LASF101
 3251 07d4 06       		.byte	0x6
 3252 07d5 34       		.byte	0x34
 3253 07d6 E2010000 		.4byte	.LASF102
 3254 07da 2C000000 		.4byte	0x2c
 3255 07de 01       		.byte	0x1
 3256 07df E9070000 		.4byte	0x7e9
 3257 07e3 0D       		.uleb128 0xd
ARM GAS  /tmp/ccfWo18f.s 			page 59


 3258 07e4 2C000000 		.4byte	0x2c
 3259 07e8 00       		.byte	0
 3260 07e9 23       		.uleb128 0x23
 3261 07ea 4D610000 		.4byte	.LASF103
 3262 07ee 06       		.byte	0x6
 3263 07ef 35       		.byte	0x35
 3264 07f0 1C240000 		.4byte	.LASF105
 3265 07f4 2C000000 		.4byte	0x2c
 3266 07f8 01       		.byte	0x1
 3267 07f9 0D       		.uleb128 0xd
 3268 07fa 2C000000 		.4byte	0x2c
 3269 07fe 00       		.byte	0
 3270 07ff 00       		.byte	0
 3271 0800 0E       		.uleb128 0xe
 3272 0801 844B0000 		.4byte	.LASF106
 3273 0805 14       		.byte	0x14
 3274 0806 19       		.byte	0x19
 3275 0807 09       		.byte	0x9
 3276 0808 80090000 		.4byte	0x980
 3277 080c 13       		.uleb128 0x13
 3278 080d 79010000 		.4byte	0x179
 3279 0811 00       		.byte	0
 3280 0812 1D       		.uleb128 0x1d
 3281 0813 C16E0000 		.4byte	.LASF107
 3282 0817 19       		.byte	0x19
 3283 0818 0B       		.byte	0xb
 3284 0819 99520000 		.4byte	0x5299
 3285 081d 00       		.byte	0
 3286 081e 1D       		.uleb128 0x1d
 3287 081f 8E070000 		.4byte	.LASF108
 3288 0823 19       		.byte	0x19
 3289 0824 0C       		.byte	0xc
 3290 0825 2C000000 		.4byte	0x2c
 3291 0829 04       		.byte	0x4
 3292 082a 1D       		.uleb128 0x1d
 3293 082b 043B0000 		.4byte	.LASF109
 3294 082f 19       		.byte	0x19
 3295 0830 0D       		.byte	0xd
 3296 0831 2C000000 		.4byte	0x2c
 3297 0835 08       		.byte	0x8
 3298 0836 1D       		.uleb128 0x1d
 3299 0837 1B150000 		.4byte	.LASF110
 3300 083b 19       		.byte	0x19
 3301 083c 0E       		.byte	0xe
 3302 083d 99520000 		.4byte	0x5299
 3303 0841 0C       		.byte	0xc
 3304 0842 1D       		.uleb128 0x1d
 3305 0843 46260000 		.4byte	.LASF111
 3306 0847 19       		.byte	0x19
 3307 0848 0F       		.byte	0xf
 3308 0849 99520000 		.4byte	0x5299
 3309 084d 10       		.byte	0x10
 3310 084e 18       		.uleb128 0x18
 3311 084f 08490000 		.4byte	.LASF69
 3312 0853 19       		.byte	0x19
 3313 0854 25       		.byte	0x25
 3314 0855 AE640000 		.4byte	.LASF112
ARM GAS  /tmp/ccfWo18f.s 			page 60


 3315 0859 5C4D0000 		.4byte	0x4d5c
 3316 085d 01       		.byte	0x1
 3317 085e 66080000 		.4byte	0x866
 3318 0862 71080000 		.4byte	0x871
 3319 0866 10       		.uleb128 0x10
 3320 0867 A5520000 		.4byte	0x52a5
 3321 086b 0D       		.uleb128 0xd
 3322 086c FD040000 		.4byte	0x4fd
 3323 0870 00       		.byte	0
 3324 0871 18       		.uleb128 0x18
 3325 0872 A73D0000 		.4byte	.LASF71
 3326 0876 19       		.byte	0x19
 3327 0877 34       		.byte	0x34
 3328 0878 910F0000 		.4byte	.LASF113
 3329 087c 5C4D0000 		.4byte	0x4d5c
 3330 0880 01       		.byte	0x1
 3331 0881 89080000 		.4byte	0x889
 3332 0885 94080000 		.4byte	0x894
 3333 0889 10       		.uleb128 0x10
 3334 088a A5520000 		.4byte	0x52a5
 3335 088e 0D       		.uleb128 0xd
 3336 088f 93520000 		.4byte	0x5293
 3337 0893 00       		.byte	0
 3338 0894 18       		.uleb128 0x18
 3339 0895 EE410000 		.4byte	.LASF114
 3340 0899 19       		.byte	0x19
 3341 089a 43       		.byte	0x43
 3342 089b 96290000 		.4byte	.LASF115
 3343 089f 5C4D0000 		.4byte	0x4d5c
 3344 08a3 01       		.byte	0x1
 3345 08a4 AC080000 		.4byte	0x8ac
 3346 08a8 B2080000 		.4byte	0x8b2
 3347 08ac 10       		.uleb128 0x10
 3348 08ad A5520000 		.4byte	0x52a5
 3349 08b1 00       		.byte	0
 3350 08b2 18       		.uleb128 0x18
 3351 08b3 69320000 		.4byte	.LASF73
 3352 08b7 19       		.byte	0x19
 3353 08b8 51       		.byte	0x51
 3354 08b9 09590000 		.4byte	.LASF116
 3355 08bd 2C000000 		.4byte	0x2c
 3356 08c1 01       		.byte	0x1
 3357 08c2 CA080000 		.4byte	0x8ca
 3358 08c6 D0080000 		.4byte	0x8d0
 3359 08ca 10       		.uleb128 0x10
 3360 08cb AB520000 		.4byte	0x52ab
 3361 08cf 00       		.byte	0
 3362 08d0 18       		.uleb128 0x18
 3363 08d1 8E390000 		.4byte	.LASF75
 3364 08d5 19       		.byte	0x19
 3365 08d6 58       		.byte	0x58
 3366 08d7 A1400000 		.4byte	.LASF117
 3367 08db 2C000000 		.4byte	0x2c
 3368 08df 01       		.byte	0x1
 3369 08e0 E8080000 		.4byte	0x8e8
 3370 08e4 EE080000 		.4byte	0x8ee
 3371 08e8 10       		.uleb128 0x10
ARM GAS  /tmp/ccfWo18f.s 			page 61


 3372 08e9 AB520000 		.4byte	0x52ab
 3373 08ed 00       		.byte	0
 3374 08ee 18       		.uleb128 0x18
 3375 08ef 92660000 		.4byte	.LASF77
 3376 08f3 19       		.byte	0x19
 3377 08f4 5F       		.byte	0x5f
 3378 08f5 FD430000 		.4byte	.LASF118
 3379 08f9 5C4D0000 		.4byte	0x4d5c
 3380 08fd 01       		.byte	0x1
 3381 08fe 06090000 		.4byte	0x906
 3382 0902 11090000 		.4byte	0x911
 3383 0906 10       		.uleb128 0x10
 3384 0907 A5520000 		.4byte	0x52a5
 3385 090b 0D       		.uleb128 0xd
 3386 090c FD040000 		.4byte	0x4fd
 3387 0910 00       		.byte	0
 3388 0911 18       		.uleb128 0x18
 3389 0912 D3280000 		.4byte	.LASF79
 3390 0916 19       		.byte	0x19
 3391 0917 69       		.byte	0x69
 3392 0918 696F0000 		.4byte	.LASF119
 3393 091c 5C4D0000 		.4byte	0x4d5c
 3394 0920 01       		.byte	0x1
 3395 0921 29090000 		.4byte	0x929
 3396 0925 34090000 		.4byte	0x934
 3397 0929 10       		.uleb128 0x10
 3398 092a A5520000 		.4byte	0x52a5
 3399 092e 0D       		.uleb128 0xd
 3400 092f 93520000 		.4byte	0x5293
 3401 0933 00       		.byte	0
 3402 0934 18       		.uleb128 0x18
 3403 0935 C6190000 		.4byte	.LASF120
 3404 0939 19       		.byte	0x19
 3405 093a 73       		.byte	0x73
 3406 093b 66530000 		.4byte	.LASF121
 3407 093f 5C4D0000 		.4byte	0x4d5c
 3408 0943 01       		.byte	0x1
 3409 0944 4C090000 		.4byte	0x94c
 3410 0948 52090000 		.4byte	0x952
 3411 094c 10       		.uleb128 0x10
 3412 094d A5520000 		.4byte	0x52a5
 3413 0951 00       		.byte	0
 3414 0952 11       		.uleb128 0x11
 3415 0953 945D0000 		.4byte	.LASF122
 3416 0957 19       		.byte	0x19
 3417 0958 7D       		.byte	0x7d
 3418 0959 A5520000 		.4byte	0x52a5
 3419 095d 01       		.byte	0x1
 3420 095e 66090000 		.4byte	0x966
 3421 0962 76090000 		.4byte	0x976
 3422 0966 10       		.uleb128 0x10
 3423 0967 A5520000 		.4byte	0x52a5
 3424 096b 0D       		.uleb128 0xd
 3425 096c 99520000 		.4byte	0x5299
 3426 0970 0D       		.uleb128 0xd
 3427 0971 2C000000 		.4byte	0x2c
 3428 0975 00       		.byte	0
ARM GAS  /tmp/ccfWo18f.s 			page 62


 3429 0976 24       		.uleb128 0x24
 3430 0977 19260000 		.4byte	.LASF202
 3431 097b FD040000 		.4byte	0x4fd
 3432 097f 00       		.byte	0
 3433 0980 07       		.uleb128 0x7
 3434 0981 00080000 		.4byte	0x800
 3435 0985 07       		.uleb128 0x7
 3436 0986 F1040000 		.4byte	0x4f1
 3437 098a 0E       		.uleb128 0xe
 3438 098b A4660000 		.4byte	.LASF123
 3439 098f 10       		.byte	0x10
 3440 0990 1A       		.byte	0x1a
 3441 0991 09       		.byte	0x9
 3442 0992 7E0A0000 		.4byte	0xa7e
 3443 0996 13       		.uleb128 0x13
 3444 0997 79010000 		.4byte	0x179
 3445 099b 00       		.byte	0
 3446 099c 1D       		.uleb128 0x1d
 3447 099d 121F0000 		.4byte	.LASF66
 3448 09a1 1A       		.byte	0x1a
 3449 09a2 0B       		.byte	0xb
 3450 09a3 92510000 		.4byte	0x5192
 3451 09a7 00       		.byte	0
 3452 09a8 20       		.uleb128 0x20
 3453 09a9 A5530000 		.4byte	.LASF124
 3454 09ad 1A       		.byte	0x1a
 3455 09ae 0E       		.byte	0xe
 3456 09af 70290000 		.4byte	.LASF125
 3457 09b3 01       		.byte	0x1
 3458 09b4 BC090000 		.4byte	0x9bc
 3459 09b8 C2090000 		.4byte	0x9c2
 3460 09bc 10       		.uleb128 0x10
 3461 09bd BD520000 		.4byte	0x52bd
 3462 09c1 00       		.byte	0
 3463 09c2 20       		.uleb128 0x20
 3464 09c3 39560000 		.4byte	.LASF87
 3465 09c7 1A       		.byte	0x1a
 3466 09c8 10       		.byte	0x10
 3467 09c9 B3070000 		.4byte	.LASF126
 3468 09cd 01       		.byte	0x1
 3469 09ce D6090000 		.4byte	0x9d6
 3470 09d2 DC090000 		.4byte	0x9dc
 3471 09d6 10       		.uleb128 0x10
 3472 09d7 BD520000 		.4byte	0x52bd
 3473 09db 00       		.byte	0
 3474 09dc 20       		.uleb128 0x20
 3475 09dd 7E2D0000 		.4byte	.LASF90
 3476 09e1 1A       		.byte	0x1a
 3477 09e2 11       		.byte	0x11
 3478 09e3 EB1E0000 		.4byte	.LASF127
 3479 09e7 01       		.byte	0x1
 3480 09e8 F0090000 		.4byte	0x9f0
 3481 09ec F6090000 		.4byte	0x9f6
 3482 09f0 10       		.uleb128 0x10
 3483 09f1 BD520000 		.4byte	0x52bd
 3484 09f5 00       		.byte	0
 3485 09f6 20       		.uleb128 0x20
ARM GAS  /tmp/ccfWo18f.s 			page 63


 3486 09f7 3D230000 		.4byte	.LASF24
 3487 09fb 1A       		.byte	0x1a
 3488 09fc 13       		.byte	0x13
 3489 09fd B8600000 		.4byte	.LASF128
 3490 0a01 01       		.byte	0x1
 3491 0a02 0A0A0000 		.4byte	0xa0a
 3492 0a06 100A0000 		.4byte	0xa10
 3493 0a0a 10       		.uleb128 0x10
 3494 0a0b BD520000 		.4byte	0x52bd
 3495 0a0f 00       		.byte	0
 3496 0a10 20       		.uleb128 0x20
 3497 0a11 44540000 		.4byte	.LASF25
 3498 0a15 1A       		.byte	0x1a
 3499 0a16 14       		.byte	0x14
 3500 0a17 B6330000 		.4byte	.LASF129
 3501 0a1b 01       		.byte	0x1
 3502 0a1c 240A0000 		.4byte	0xa24
 3503 0a20 2A0A0000 		.4byte	0xa2a
 3504 0a24 10       		.uleb128 0x10
 3505 0a25 BD520000 		.4byte	0x52bd
 3506 0a29 00       		.byte	0
 3507 0a2a 18       		.uleb128 0x18
 3508 0a2b 8D290000 		.4byte	.LASF130
 3509 0a2f 1A       		.byte	0x1a
 3510 0a30 16       		.byte	0x16
 3511 0a31 7F610000 		.4byte	.LASF131
 3512 0a35 C3520000 		.4byte	0x52c3
 3513 0a39 01       		.byte	0x1
 3514 0a3a 420A0000 		.4byte	0xa42
 3515 0a3e 480A0000 		.4byte	0xa48
 3516 0a42 10       		.uleb128 0x10
 3517 0a43 BD520000 		.4byte	0x52bd
 3518 0a47 00       		.byte	0
 3519 0a48 11       		.uleb128 0x11
 3520 0a49 A4660000 		.4byte	.LASF123
 3521 0a4d 1A       		.byte	0x1a
 3522 0a4e 19       		.byte	0x19
 3523 0a4f BD520000 		.4byte	0x52bd
 3524 0a53 01       		.byte	0x1
 3525 0a54 5C0A0000 		.4byte	0xa5c
 3526 0a58 620A0000 		.4byte	0xa62
 3527 0a5c 10       		.uleb128 0x10
 3528 0a5d BD520000 		.4byte	0x52bd
 3529 0a61 00       		.byte	0
 3530 0a62 25       		.uleb128 0x25
 3531 0a63 A4660000 		.4byte	.LASF123
 3532 0a67 1A       		.byte	0x1a
 3533 0a68 1A       		.byte	0x1a
 3534 0a69 BD520000 		.4byte	0x52bd
 3535 0a6d 01       		.byte	0x1
 3536 0a6e 720A0000 		.4byte	0xa72
 3537 0a72 10       		.uleb128 0x10
 3538 0a73 BD520000 		.4byte	0x52bd
 3539 0a77 0D       		.uleb128 0xd
 3540 0a78 5C4D0000 		.4byte	0x4d5c
 3541 0a7c 00       		.byte	0
 3542 0a7d 00       		.byte	0
ARM GAS  /tmp/ccfWo18f.s 			page 64


 3543 0a7e 0E       		.uleb128 0xe
 3544 0a7f F9200000 		.4byte	.LASF132
 3545 0a83 14       		.byte	0x14
 3546 0a84 1B       		.byte	0x1b
 3547 0a85 09       		.byte	0x9
 3548 0a86 540B0000 		.4byte	0xb54
 3549 0a8a 13       		.uleb128 0x13
 3550 0a8b 79010000 		.4byte	0x179
 3551 0a8f 00       		.byte	0
 3552 0a90 1D       		.uleb128 0x1d
 3553 0a91 121F0000 		.4byte	.LASF66
 3554 0a95 1B       		.byte	0x1b
 3555 0a96 0B       		.byte	0xb
 3556 0a97 8A090000 		.4byte	0x98a
 3557 0a9b 04       		.byte	0x4
 3558 0a9c 20       		.uleb128 0x20
 3559 0a9d A5530000 		.4byte	.LASF124
 3560 0aa1 1B       		.byte	0x1b
 3561 0aa2 0E       		.byte	0xe
 3562 0aa3 DD5A0000 		.4byte	.LASF133
 3563 0aa7 01       		.byte	0x1
 3564 0aa8 B00A0000 		.4byte	0xab0
 3565 0aac B60A0000 		.4byte	0xab6
 3566 0ab0 10       		.uleb128 0x10
 3567 0ab1 C9520000 		.4byte	0x52c9
 3568 0ab5 00       		.byte	0
 3569 0ab6 20       		.uleb128 0x20
 3570 0ab7 39560000 		.4byte	.LASF87
 3571 0abb 1B       		.byte	0x1b
 3572 0abc 10       		.byte	0x10
 3573 0abd D86E0000 		.4byte	.LASF134
 3574 0ac1 01       		.byte	0x1
 3575 0ac2 CA0A0000 		.4byte	0xaca
 3576 0ac6 D00A0000 		.4byte	0xad0
 3577 0aca 10       		.uleb128 0x10
 3578 0acb C9520000 		.4byte	0x52c9
 3579 0acf 00       		.byte	0
 3580 0ad0 20       		.uleb128 0x20
 3581 0ad1 7E2D0000 		.4byte	.LASF90
 3582 0ad5 1B       		.byte	0x1b
 3583 0ad6 11       		.byte	0x11
 3584 0ad7 3F320000 		.4byte	.LASF135
 3585 0adb 01       		.byte	0x1
 3586 0adc E40A0000 		.4byte	0xae4
 3587 0ae0 EA0A0000 		.4byte	0xaea
 3588 0ae4 10       		.uleb128 0x10
 3589 0ae5 C9520000 		.4byte	0x52c9
 3590 0ae9 00       		.byte	0
 3591 0aea 20       		.uleb128 0x20
 3592 0aeb 3D230000 		.4byte	.LASF24
 3593 0aef 1B       		.byte	0x1b
 3594 0af0 13       		.byte	0x13
 3595 0af1 DE1A0000 		.4byte	.LASF136
 3596 0af5 01       		.byte	0x1
 3597 0af6 FE0A0000 		.4byte	0xafe
 3598 0afa 040B0000 		.4byte	0xb04
 3599 0afe 10       		.uleb128 0x10
ARM GAS  /tmp/ccfWo18f.s 			page 65


 3600 0aff C9520000 		.4byte	0x52c9
 3601 0b03 00       		.byte	0
 3602 0b04 20       		.uleb128 0x20
 3603 0b05 44540000 		.4byte	.LASF25
 3604 0b09 1B       		.byte	0x1b
 3605 0b0a 14       		.byte	0x14
 3606 0b0b 87200000 		.4byte	.LASF137
 3607 0b0f 01       		.byte	0x1
 3608 0b10 180B0000 		.4byte	0xb18
 3609 0b14 1E0B0000 		.4byte	0xb1e
 3610 0b18 10       		.uleb128 0x10
 3611 0b19 C9520000 		.4byte	0x52c9
 3612 0b1d 00       		.byte	0
 3613 0b1e 11       		.uleb128 0x11
 3614 0b1f F9200000 		.4byte	.LASF132
 3615 0b23 1B       		.byte	0x1b
 3616 0b24 17       		.byte	0x17
 3617 0b25 C9520000 		.4byte	0x52c9
 3618 0b29 01       		.byte	0x1
 3619 0b2a 320B0000 		.4byte	0xb32
 3620 0b2e 380B0000 		.4byte	0xb38
 3621 0b32 10       		.uleb128 0x10
 3622 0b33 C9520000 		.4byte	0x52c9
 3623 0b37 00       		.byte	0
 3624 0b38 25       		.uleb128 0x25
 3625 0b39 F9200000 		.4byte	.LASF132
 3626 0b3d 1B       		.byte	0x1b
 3627 0b3e 18       		.byte	0x18
 3628 0b3f C9520000 		.4byte	0x52c9
 3629 0b43 01       		.byte	0x1
 3630 0b44 480B0000 		.4byte	0xb48
 3631 0b48 10       		.uleb128 0x10
 3632 0b49 C9520000 		.4byte	0x52c9
 3633 0b4d 0D       		.uleb128 0xd
 3634 0b4e 5C4D0000 		.4byte	0x4d5c
 3635 0b52 00       		.byte	0
 3636 0b53 00       		.byte	0
 3637 0b54 26       		.uleb128 0x26
 3638 0b55 82020000 		.4byte	.LASF142
 3639 0b59 0E       		.uleb128 0xe
 3640 0b5a 4A5B0000 		.4byte	.LASF138
 3641 0b5e 04       		.byte	0x4
 3642 0b5f 13       		.byte	0x13
 3643 0b60 0F       		.byte	0xf
 3644 0b61 26100000 		.4byte	0x1026
 3645 0b65 13       		.uleb128 0x13
 3646 0b66 79010000 		.4byte	0x179
 3647 0b6a 00       		.byte	0
 3648 0b6b 1C       		.uleb128 0x1c
 3649 0b6c C7630000 		.4byte	.LASF139
 3650 0b70 08       		.byte	0x8
 3651 0b71 13       		.byte	0x13
 3652 0b72 11       		.byte	0x11
 3653 0b73 01       		.byte	0x1
 3654 0b74 AB0B0000 		.4byte	0xbab
 3655 0b78 1D       		.uleb128 0x1d
 3656 0b79 DD320000 		.4byte	.LASF140
ARM GAS  /tmp/ccfWo18f.s 			page 66


 3657 0b7d 13       		.byte	0x13
 3658 0b7e 12       		.byte	0x12
 3659 0b7f D5520000 		.4byte	0x52d5
 3660 0b83 00       		.byte	0
 3661 0b84 1D       		.uleb128 0x1d
 3662 0b85 FE1B0000 		.4byte	.LASF141
 3663 0b89 13       		.byte	0x13
 3664 0b8a 13       		.byte	0x13
 3665 0b8b 805D0000 		.4byte	0x5d80
 3666 0b8f 04       		.byte	0x4
 3667 0b90 1F       		.uleb128 0x1f
 3668 0b91 C7630000 		.4byte	.LASF139
 3669 0b95 13       		.byte	0x13
 3670 0b96 15       		.byte	0x15
 3671 0b97 D5520000 		.4byte	0x52d5
 3672 0b9b 9F0B0000 		.4byte	0xb9f
 3673 0b9f 10       		.uleb128 0x10
 3674 0ba0 D5520000 		.4byte	0x52d5
 3675 0ba4 0D       		.uleb128 0xd
 3676 0ba5 535C0000 		.4byte	0x5c53
 3677 0ba9 00       		.byte	0
 3678 0baa 00       		.byte	0
 3679 0bab 27       		.uleb128 0x27
 3680 0bac 1B150000 		.4byte	.LASF110
 3681 0bb0 13       		.byte	0x13
 3682 0bb1 8A01     		.2byte	0x18a
 3683 0bb3 D5520000 		.4byte	0x52d5
 3684 0bb7 00       		.byte	0
 3685 0bb8 26       		.uleb128 0x26
 3686 0bb9 2E230000 		.4byte	.LASF143
 3687 0bbd 26       		.uleb128 0x26
 3688 0bbe 0C350000 		.4byte	.LASF144
 3689 0bc2 26       		.uleb128 0x26
 3690 0bc3 535C0000 		.4byte	.LASF145
 3691 0bc7 26       		.uleb128 0x26
 3692 0bc8 65450000 		.4byte	.LASF146
 3693 0bcc 28       		.uleb128 0x28
 3694 0bcd A4430000 		.4byte	.LASF147
 3695 0bd1 13       		.byte	0x13
 3696 0bd2 8601     		.2byte	0x186
 3697 0bd4 DB520000 		.4byte	0x52db
 3698 0bd8 28       		.uleb128 0x28
 3699 0bd9 7E140000 		.4byte	.LASF148
 3700 0bdd 13       		.byte	0x13
 3701 0bde 8701     		.2byte	0x187
 3702 0be0 F6520000 		.4byte	0x52f6
 3703 0be4 29       		.uleb128 0x29
 3704 0be5 C86E0000 		.4byte	.LASF149
 3705 0be9 13       		.byte	0x13
 3706 0bea 8D01     		.2byte	0x18d
 3707 0bec CA220000 		.4byte	.LASF151
 3708 0bf0 10530000 		.4byte	0x5310
 3709 0bf4 01       		.byte	0x1
 3710 0bf5 FD0B0000 		.4byte	0xbfd
 3711 0bf9 030C0000 		.4byte	0xc03
 3712 0bfd 10       		.uleb128 0x10
 3713 0bfe 16530000 		.4byte	0x5316
ARM GAS  /tmp/ccfWo18f.s 			page 67


 3714 0c02 00       		.byte	0
 3715 0c03 07       		.uleb128 0x7
 3716 0c04 6B0B0000 		.4byte	0xb6b
 3717 0c08 29       		.uleb128 0x29
 3718 0c09 C23E0000 		.4byte	.LASF150
 3719 0c0d 13       		.byte	0x13
 3720 0c0e 9101     		.2byte	0x191
 3721 0c10 64430000 		.4byte	.LASF152
 3722 0c14 5C4D0000 		.4byte	0x4d5c
 3723 0c18 01       		.byte	0x1
 3724 0c19 210C0000 		.4byte	0xc21
 3725 0c1d 270C0000 		.4byte	0xc27
 3726 0c21 10       		.uleb128 0x10
 3727 0c22 16530000 		.4byte	0x5316
 3728 0c26 00       		.byte	0
 3729 0c27 29       		.uleb128 0x29
 3730 0c28 64220000 		.4byte	.LASF153
 3731 0c2c 13       		.byte	0x13
 3732 0c2d 0302     		.2byte	0x203
 3733 0c2f 5E1D0000 		.4byte	.LASF154
 3734 0c33 2C000000 		.4byte	0x2c
 3735 0c37 01       		.byte	0x1
 3736 0c38 400C0000 		.4byte	0xc40
 3737 0c3c 460C0000 		.4byte	0xc46
 3738 0c40 10       		.uleb128 0x10
 3739 0c41 16530000 		.4byte	0x5316
 3740 0c45 00       		.byte	0
 3741 0c46 2A       		.uleb128 0x2a
 3742 0c47 EB500000 		.4byte	.LASF155
 3743 0c4b 13       		.byte	0x13
 3744 0c4c 9701     		.2byte	0x197
 3745 0c4e 9B1D0000 		.4byte	.LASF157
 3746 0c52 01       		.byte	0x1
 3747 0c53 5B0C0000 		.4byte	0xc5b
 3748 0c57 660C0000 		.4byte	0xc66
 3749 0c5b 10       		.uleb128 0x10
 3750 0c5c 1C530000 		.4byte	0x531c
 3751 0c60 0D       		.uleb128 0xd
 3752 0c61 22530000 		.4byte	0x5322
 3753 0c65 00       		.byte	0
 3754 0c66 2A       		.uleb128 0x2a
 3755 0c67 7D5B0000 		.4byte	.LASF156
 3756 0c6b 13       		.byte	0x13
 3757 0c6c 9F01     		.2byte	0x19f
 3758 0c6e 600A0000 		.4byte	.LASF158
 3759 0c72 01       		.byte	0x1
 3760 0c73 7B0C0000 		.4byte	0xc7b
 3761 0c77 860C0000 		.4byte	0xc86
 3762 0c7b 10       		.uleb128 0x10
 3763 0c7c 1C530000 		.4byte	0x531c
 3764 0c80 0D       		.uleb128 0xd
 3765 0c81 22530000 		.4byte	0x5322
 3766 0c85 00       		.byte	0
 3767 0c86 29       		.uleb128 0x29
 3768 0c87 AE2E0000 		.4byte	.LASF159
 3769 0c8b 13       		.byte	0x13
 3770 0c8c 0E02     		.2byte	0x20e
ARM GAS  /tmp/ccfWo18f.s 			page 68


 3771 0c8e 67310000 		.4byte	.LASF160
 3772 0c92 5C4D0000 		.4byte	0x4d5c
 3773 0c96 01       		.byte	0x1
 3774 0c97 9F0C0000 		.4byte	0xc9f
 3775 0c9b AA0C0000 		.4byte	0xcaa
 3776 0c9f 10       		.uleb128 0x10
 3777 0ca0 1C530000 		.4byte	0x531c
 3778 0ca4 0D       		.uleb128 0xd
 3779 0ca5 22530000 		.4byte	0x5322
 3780 0ca9 00       		.byte	0
 3781 0caa 29       		.uleb128 0x29
 3782 0cab 353E0000 		.4byte	.LASF161
 3783 0caf 13       		.byte	0x13
 3784 0cb0 1F02     		.2byte	0x21f
 3785 0cb2 AE5F0000 		.4byte	.LASF162
 3786 0cb6 25000000 		.4byte	0x25
 3787 0cba 01       		.byte	0x1
 3788 0cbb C30C0000 		.4byte	0xcc3
 3789 0cbf CE0C0000 		.4byte	0xcce
 3790 0cc3 10       		.uleb128 0x10
 3791 0cc4 16530000 		.4byte	0x5316
 3792 0cc8 0D       		.uleb128 0xd
 3793 0cc9 F0520000 		.4byte	0x52f0
 3794 0ccd 00       		.byte	0
 3795 0cce 29       		.uleb128 0x29
 3796 0ccf A1570000 		.4byte	.LASF163
 3797 0cd3 13       		.byte	0x13
 3798 0cd4 2C02     		.2byte	0x22c
 3799 0cd6 E6400000 		.4byte	.LASF164
 3800 0cda 5C4D0000 		.4byte	0x4d5c
 3801 0cde 01       		.byte	0x1
 3802 0cdf E70C0000 		.4byte	0xce7
 3803 0ce3 F20C0000 		.4byte	0xcf2
 3804 0ce7 10       		.uleb128 0x10
 3805 0ce8 16530000 		.4byte	0x5316
 3806 0cec 0D       		.uleb128 0xd
 3807 0ced F0520000 		.4byte	0x52f0
 3808 0cf1 00       		.byte	0
 3809 0cf2 29       		.uleb128 0x29
 3810 0cf3 9C3A0000 		.4byte	.LASF165
 3811 0cf7 13       		.byte	0x13
 3812 0cf8 3802     		.2byte	0x238
 3813 0cfa 09070000 		.4byte	.LASF166
 3814 0cfe 28530000 		.4byte	0x5328
 3815 0d02 01       		.byte	0x1
 3816 0d03 0B0D0000 		.4byte	0xd0b
 3817 0d07 160D0000 		.4byte	0xd16
 3818 0d0b 10       		.uleb128 0x10
 3819 0d0c 16530000 		.4byte	0x5316
 3820 0d10 0D       		.uleb128 0xd
 3821 0d11 CC0B0000 		.4byte	0xbcc
 3822 0d15 00       		.byte	0
 3823 0d16 29       		.uleb128 0x29
 3824 0d17 9C3A0000 		.4byte	.LASF165
 3825 0d1b 13       		.byte	0x13
 3826 0d1c 4402     		.2byte	0x244
 3827 0d1e 0C510000 		.4byte	.LASF167
ARM GAS  /tmp/ccfWo18f.s 			page 69


 3828 0d22 28530000 		.4byte	0x5328
 3829 0d26 01       		.byte	0x1
 3830 0d27 2F0D0000 		.4byte	0xd2f
 3831 0d2b 3F0D0000 		.4byte	0xd3f
 3832 0d2f 10       		.uleb128 0x10
 3833 0d30 16530000 		.4byte	0x5316
 3834 0d34 0D       		.uleb128 0xd
 3835 0d35 D80B0000 		.4byte	0xbd8
 3836 0d39 0D       		.uleb128 0xd
 3837 0d3a 67520000 		.4byte	0x5267
 3838 0d3e 00       		.byte	0
 3839 0d3f 29       		.uleb128 0x29
 3840 0d40 7B110000 		.4byte	.LASF168
 3841 0d44 13       		.byte	0x13
 3842 0d45 B301     		.2byte	0x1b3
 3843 0d47 475E0000 		.4byte	.LASF169
 3844 0d4b 5E0D0000 		.4byte	0xd5e
 3845 0d4f 01       		.byte	0x1
 3846 0d50 580D0000 		.4byte	0xd58
 3847 0d54 5E0D0000 		.4byte	0xd5e
 3848 0d58 10       		.uleb128 0x10
 3849 0d59 1C530000 		.4byte	0x531c
 3850 0d5d 00       		.byte	0
 3851 0d5e 07       		.uleb128 0x7
 3852 0d5f B80B0000 		.4byte	0xbb8
 3853 0d63 29       		.uleb128 0x29
 3854 0d64 EE360000 		.4byte	.LASF170
 3855 0d68 13       		.byte	0x13
 3856 0d69 B701     		.2byte	0x1b7
 3857 0d6b FB080000 		.4byte	.LASF171
 3858 0d6f 5E0D0000 		.4byte	0xd5e
 3859 0d73 01       		.byte	0x1
 3860 0d74 7C0D0000 		.4byte	0xd7c
 3861 0d78 820D0000 		.4byte	0xd82
 3862 0d7c 10       		.uleb128 0x10
 3863 0d7d 1C530000 		.4byte	0x531c
 3864 0d81 00       		.byte	0
 3865 0d82 2A       		.uleb128 0x2a
 3866 0d83 026F0000 		.4byte	.LASF172
 3867 0d87 13       		.byte	0x13
 3868 0d88 BB01     		.2byte	0x1bb
 3869 0d8a 90380000 		.4byte	.LASF173
 3870 0d8e 01       		.byte	0x1
 3871 0d8f 970D0000 		.4byte	0xd97
 3872 0d93 A20D0000 		.4byte	0xda2
 3873 0d97 10       		.uleb128 0x10
 3874 0d98 1C530000 		.4byte	0x531c
 3875 0d9c 0D       		.uleb128 0xd
 3876 0d9d 2E530000 		.4byte	0x532e
 3877 0da1 00       		.byte	0
 3878 0da2 29       		.uleb128 0x29
 3879 0da3 7B110000 		.4byte	.LASF168
 3880 0da7 13       		.byte	0x13
 3881 0da8 BF01     		.2byte	0x1bf
 3882 0daa 230A0000 		.4byte	.LASF174
 3883 0dae C10D0000 		.4byte	0xdc1
 3884 0db2 01       		.byte	0x1
ARM GAS  /tmp/ccfWo18f.s 			page 70


 3885 0db3 BB0D0000 		.4byte	0xdbb
 3886 0db7 C10D0000 		.4byte	0xdc1
 3887 0dbb 10       		.uleb128 0x10
 3888 0dbc 16530000 		.4byte	0x5316
 3889 0dc0 00       		.byte	0
 3890 0dc1 07       		.uleb128 0x7
 3891 0dc2 BD0B0000 		.4byte	0xbbd
 3892 0dc6 29       		.uleb128 0x29
 3893 0dc7 EE360000 		.4byte	.LASF170
 3894 0dcb 13       		.byte	0x13
 3895 0dcc C301     		.2byte	0x1c3
 3896 0dce 29220000 		.4byte	.LASF175
 3897 0dd2 C10D0000 		.4byte	0xdc1
 3898 0dd6 01       		.byte	0x1
 3899 0dd7 DF0D0000 		.4byte	0xddf
 3900 0ddb E50D0000 		.4byte	0xde5
 3901 0ddf 10       		.uleb128 0x10
 3902 0de0 16530000 		.4byte	0x5316
 3903 0de4 00       		.byte	0
 3904 0de5 2A       		.uleb128 0x2a
 3905 0de6 026F0000 		.4byte	.LASF172
 3906 0dea 13       		.byte	0x13
 3907 0deb C701     		.2byte	0x1c7
 3908 0ded 0A520000 		.4byte	.LASF176
 3909 0df1 01       		.byte	0x1
 3910 0df2 FA0D0000 		.4byte	0xdfa
 3911 0df6 050E0000 		.4byte	0xe05
 3912 0dfa 10       		.uleb128 0x10
 3913 0dfb 16530000 		.4byte	0x5316
 3914 0dff 0D       		.uleb128 0xd
 3915 0e00 34530000 		.4byte	0x5334
 3916 0e04 00       		.byte	0
 3917 0e05 29       		.uleb128 0x29
 3918 0e06 30640000 		.4byte	.LASF177
 3919 0e0a 13       		.byte	0x13
 3920 0e0b 5302     		.2byte	0x253
 3921 0e0d 12280000 		.4byte	.LASF178
 3922 0e11 10530000 		.4byte	0x5310
 3923 0e15 01       		.byte	0x1
 3924 0e16 1E0E0000 		.4byte	0xe1e
 3925 0e1a 240E0000 		.4byte	0xe24
 3926 0e1e 10       		.uleb128 0x10
 3927 0e1f 16530000 		.4byte	0x5316
 3928 0e23 00       		.byte	0
 3929 0e24 29       		.uleb128 0x29
 3930 0e25 D94E0000 		.4byte	.LASF179
 3931 0e29 13       		.byte	0x13
 3932 0e2a 5D02     		.2byte	0x25d
 3933 0e2c 1F4F0000 		.4byte	.LASF180
 3934 0e30 5C4D0000 		.4byte	0x4d5c
 3935 0e34 01       		.byte	0x1
 3936 0e35 3D0E0000 		.4byte	0xe3d
 3937 0e39 430E0000 		.4byte	0xe43
 3938 0e3d 10       		.uleb128 0x10
 3939 0e3e 16530000 		.4byte	0x5316
 3940 0e42 00       		.byte	0
 3941 0e43 29       		.uleb128 0x29
ARM GAS  /tmp/ccfWo18f.s 			page 71


 3942 0e44 043B0000 		.4byte	.LASF109
 3943 0e48 13       		.byte	0x13
 3944 0e49 6702     		.2byte	0x267
 3945 0e4b 9F5D0000 		.4byte	.LASF181
 3946 0e4f 2C000000 		.4byte	0x2c
 3947 0e53 01       		.byte	0x1
 3948 0e54 5C0E0000 		.4byte	0xe5c
 3949 0e58 620E0000 		.4byte	0xe62
 3950 0e5c 10       		.uleb128 0x10
 3951 0e5d 16530000 		.4byte	0x5316
 3952 0e61 00       		.byte	0
 3953 0e62 2A       		.uleb128 0x2a
 3954 0e63 71220000 		.4byte	.LASF182
 3955 0e67 13       		.byte	0x13
 3956 0e68 7602     		.2byte	0x276
 3957 0e6a B1620000 		.4byte	.LASF183
 3958 0e6e 01       		.byte	0x1
 3959 0e6f 770E0000 		.4byte	0xe77
 3960 0e73 820E0000 		.4byte	0xe82
 3961 0e77 10       		.uleb128 0x10
 3962 0e78 1C530000 		.4byte	0x531c
 3963 0e7c 0D       		.uleb128 0xd
 3964 0e7d 22530000 		.4byte	0x5322
 3965 0e81 00       		.byte	0
 3966 0e82 29       		.uleb128 0x29
 3967 0e83 6A150000 		.4byte	.LASF184
 3968 0e87 13       		.byte	0x13
 3969 0e88 8002     		.2byte	0x280
 3970 0e8a 08180000 		.4byte	.LASF185
 3971 0e8e 5C4D0000 		.4byte	0x4d5c
 3972 0e92 01       		.byte	0x1
 3973 0e93 9B0E0000 		.4byte	0xe9b
 3974 0e97 A60E0000 		.4byte	0xea6
 3975 0e9b 10       		.uleb128 0x10
 3976 0e9c 1C530000 		.4byte	0x531c
 3977 0ea0 0D       		.uleb128 0xd
 3978 0ea1 22530000 		.4byte	0x5322
 3979 0ea5 00       		.byte	0
 3980 0ea6 29       		.uleb128 0x29
 3981 0ea7 56400000 		.4byte	.LASF186
 3982 0eab 13       		.byte	0x13
 3983 0eac 8A02     		.2byte	0x28a
 3984 0eae D45D0000 		.4byte	.LASF187
 3985 0eb2 25000000 		.4byte	0x25
 3986 0eb6 01       		.byte	0x1
 3987 0eb7 BF0E0000 		.4byte	0xebf
 3988 0ebb CA0E0000 		.4byte	0xeca
 3989 0ebf 10       		.uleb128 0x10
 3990 0ec0 16530000 		.4byte	0x5316
 3991 0ec4 0D       		.uleb128 0xd
 3992 0ec5 F0520000 		.4byte	0x52f0
 3993 0ec9 00       		.byte	0
 3994 0eca 29       		.uleb128 0x29
 3995 0ecb 3C290000 		.4byte	.LASF188
 3996 0ecf 13       		.byte	0x13
 3997 0ed0 9B02     		.2byte	0x29b
 3998 0ed2 56660000 		.4byte	.LASF189
ARM GAS  /tmp/ccfWo18f.s 			page 72


 3999 0ed6 5C4D0000 		.4byte	0x4d5c
 4000 0eda 01       		.byte	0x1
 4001 0edb E30E0000 		.4byte	0xee3
 4002 0edf EE0E0000 		.4byte	0xeee
 4003 0ee3 10       		.uleb128 0x10
 4004 0ee4 16530000 		.4byte	0x5316
 4005 0ee8 0D       		.uleb128 0xd
 4006 0ee9 F0520000 		.4byte	0x52f0
 4007 0eed 00       		.byte	0
 4008 0eee 29       		.uleb128 0x29
 4009 0eef F2430000 		.4byte	.LASF190
 4010 0ef3 13       		.byte	0x13
 4011 0ef4 AC02     		.2byte	0x2ac
 4012 0ef6 84630000 		.4byte	.LASF191
 4013 0efa 28530000 		.4byte	0x5328
 4014 0efe 01       		.byte	0x1
 4015 0eff 070F0000 		.4byte	0xf07
 4016 0f03 120F0000 		.4byte	0xf12
 4017 0f07 10       		.uleb128 0x10
 4018 0f08 16530000 		.4byte	0x5316
 4019 0f0c 0D       		.uleb128 0xd
 4020 0f0d CC0B0000 		.4byte	0xbcc
 4021 0f11 00       		.byte	0
 4022 0f12 29       		.uleb128 0x29
 4023 0f13 F2430000 		.4byte	.LASF190
 4024 0f17 13       		.byte	0x13
 4025 0f18 BC02     		.2byte	0x2bc
 4026 0f1a 5A540000 		.4byte	.LASF192
 4027 0f1e 28530000 		.4byte	0x5328
 4028 0f22 01       		.byte	0x1
 4029 0f23 2B0F0000 		.4byte	0xf2b
 4030 0f27 3B0F0000 		.4byte	0xf3b
 4031 0f2b 10       		.uleb128 0x10
 4032 0f2c 16530000 		.4byte	0x5316
 4033 0f30 0D       		.uleb128 0xd
 4034 0f31 D80B0000 		.4byte	0xbd8
 4035 0f35 0D       		.uleb128 0xd
 4036 0f36 67520000 		.4byte	0x5267
 4037 0f3a 00       		.byte	0
 4038 0f3b 29       		.uleb128 0x29
 4039 0f3c 3C6E0000 		.4byte	.LASF193
 4040 0f40 13       		.byte	0x13
 4041 0f41 E001     		.2byte	0x1e0
 4042 0f43 B9160000 		.4byte	.LASF194
 4043 0f47 5A0F0000 		.4byte	0xf5a
 4044 0f4b 01       		.byte	0x1
 4045 0f4c 540F0000 		.4byte	0xf54
 4046 0f50 5A0F0000 		.4byte	0xf5a
 4047 0f54 10       		.uleb128 0x10
 4048 0f55 1C530000 		.4byte	0x531c
 4049 0f59 00       		.byte	0
 4050 0f5a 07       		.uleb128 0x7
 4051 0f5b C20B0000 		.4byte	0xbc2
 4052 0f5f 2B       		.uleb128 0x2b
 4053 0f60 656E6400 		.ascii	"end\000"
 4054 0f64 13       		.byte	0x13
 4055 0f65 E401     		.2byte	0x1e4
ARM GAS  /tmp/ccfWo18f.s 			page 73


 4056 0f67 6A170000 		.4byte	.LASF198
 4057 0f6b 5A0F0000 		.4byte	0xf5a
 4058 0f6f 01       		.byte	0x1
 4059 0f70 780F0000 		.4byte	0xf78
 4060 0f74 7E0F0000 		.4byte	0xf7e
 4061 0f78 10       		.uleb128 0x10
 4062 0f79 1C530000 		.4byte	0x531c
 4063 0f7d 00       		.byte	0
 4064 0f7e 2A       		.uleb128 0x2a
 4065 0f7f 11140000 		.4byte	.LASF195
 4066 0f83 13       		.byte	0x13
 4067 0f84 E801     		.2byte	0x1e8
 4068 0f86 751A0000 		.4byte	.LASF196
 4069 0f8a 01       		.byte	0x1
 4070 0f8b 930F0000 		.4byte	0xf93
 4071 0f8f 9E0F0000 		.4byte	0xf9e
 4072 0f93 10       		.uleb128 0x10
 4073 0f94 1C530000 		.4byte	0x531c
 4074 0f98 0D       		.uleb128 0xd
 4075 0f99 3A530000 		.4byte	0x533a
 4076 0f9d 00       		.byte	0
 4077 0f9e 29       		.uleb128 0x29
 4078 0f9f 3C6E0000 		.4byte	.LASF193
 4079 0fa3 13       		.byte	0x13
 4080 0fa4 EC01     		.2byte	0x1ec
 4081 0fa6 13470000 		.4byte	.LASF197
 4082 0faa BD0F0000 		.4byte	0xfbd
 4083 0fae 01       		.byte	0x1
 4084 0faf B70F0000 		.4byte	0xfb7
 4085 0fb3 BD0F0000 		.4byte	0xfbd
 4086 0fb7 10       		.uleb128 0x10
 4087 0fb8 16530000 		.4byte	0x5316
 4088 0fbc 00       		.byte	0
 4089 0fbd 07       		.uleb128 0x7
 4090 0fbe C70B0000 		.4byte	0xbc7
 4091 0fc2 2B       		.uleb128 0x2b
 4092 0fc3 656E6400 		.ascii	"end\000"
 4093 0fc7 13       		.byte	0x13
 4094 0fc8 F201     		.2byte	0x1f2
 4095 0fca 533F0000 		.4byte	.LASF199
 4096 0fce BD0F0000 		.4byte	0xfbd
 4097 0fd2 01       		.byte	0x1
 4098 0fd3 DB0F0000 		.4byte	0xfdb
 4099 0fd7 E10F0000 		.4byte	0xfe1
 4100 0fdb 10       		.uleb128 0x10
 4101 0fdc 16530000 		.4byte	0x5316
 4102 0fe0 00       		.byte	0
 4103 0fe1 2A       		.uleb128 0x2a
 4104 0fe2 11140000 		.4byte	.LASF195
 4105 0fe6 13       		.byte	0x13
 4106 0fe7 F601     		.2byte	0x1f6
 4107 0fe9 77370000 		.4byte	.LASF200
 4108 0fed 01       		.byte	0x1
 4109 0fee F60F0000 		.4byte	0xff6
 4110 0ff2 01100000 		.4byte	0x1001
 4111 0ff6 10       		.uleb128 0x10
 4112 0ff7 16530000 		.4byte	0x5316
ARM GAS  /tmp/ccfWo18f.s 			page 74


 4113 0ffb 0D       		.uleb128 0xd
 4114 0ffc 40530000 		.4byte	0x5340
 4115 1000 00       		.byte	0
 4116 1001 2C       		.uleb128 0x2c
 4117 1002 AF110000 		.4byte	.LASF201
 4118 1006 13       		.byte	0x13
 4119 1007 FA01     		.2byte	0x1fa
 4120 1009 1C530000 		.4byte	0x531c
 4121 100d 01       		.byte	0x1
 4122 100e 16100000 		.4byte	0x1016
 4123 1012 1C100000 		.4byte	0x101c
 4124 1016 10       		.uleb128 0x10
 4125 1017 1C530000 		.4byte	0x531c
 4126 101b 00       		.byte	0
 4127 101c 24       		.uleb128 0x24
 4128 101d 19260000 		.4byte	.LASF202
 4129 1021 2B100000 		.4byte	0x102b
 4130 1025 00       		.byte	0
 4131 1026 07       		.uleb128 0x7
 4132 1027 2B100000 		.4byte	0x102b
 4133 102b 2D       		.uleb128 0x2d
 4134 102c 6C5B0000 		.4byte	.LASF677
 4135 1030 4F100000 		.4byte	0x104f
 4136 1034 2E       		.uleb128 0x2e
 4137 1035 1B0B0000 		.4byte	.LASF203
 4138 1039 09       		.byte	0x9
 4139 103a 1F       		.byte	0x1f
 4140 103b 7B250000 		.4byte	.LASF204
 4141 103f 99530000 		.4byte	0x5399
 4142 1043 01       		.byte	0x1
 4143 1044 48100000 		.4byte	0x1048
 4144 1048 10       		.uleb128 0x10
 4145 1049 B5620000 		.4byte	0x62b5
 4146 104d 00       		.byte	0
 4147 104e 00       		.byte	0
 4148 104f 07       		.uleb128 0x7
 4149 1050 590B0000 		.4byte	0xb59
 4150 1054 0E       		.uleb128 0xe
 4151 1055 67020000 		.4byte	.LASF205
 4152 1059 04       		.byte	0x4
 4153 105a 13       		.byte	0x13
 4154 105b 0F       		.byte	0xf
 4155 105c 21150000 		.4byte	0x1521
 4156 1060 13       		.uleb128 0x13
 4157 1061 79010000 		.4byte	0x179
 4158 1065 00       		.byte	0
 4159 1066 1C       		.uleb128 0x1c
 4160 1067 C7630000 		.4byte	.LASF139
 4161 106b 08       		.byte	0x8
 4162 106c 13       		.byte	0x13
 4163 106d 11       		.byte	0x11
 4164 106e 01       		.byte	0x1
 4165 106f A6100000 		.4byte	0x10a6
 4166 1073 1D       		.uleb128 0x1d
 4167 1074 DD320000 		.4byte	.LASF140
 4168 1078 13       		.byte	0x13
 4169 1079 12       		.byte	0x12
ARM GAS  /tmp/ccfWo18f.s 			page 75


 4170 107a 46530000 		.4byte	0x5346
 4171 107e 00       		.byte	0
 4172 107f 1D       		.uleb128 0x1d
 4173 1080 FE1B0000 		.4byte	.LASF141
 4174 1084 13       		.byte	0x13
 4175 1085 13       		.byte	0x13
 4176 1086 B7530000 		.4byte	0x53b7
 4177 108a 04       		.byte	0x4
 4178 108b 1F       		.uleb128 0x1f
 4179 108c C7630000 		.4byte	.LASF139
 4180 1090 13       		.byte	0x13
 4181 1091 15       		.byte	0x15
 4182 1092 46530000 		.4byte	0x5346
 4183 1096 9A100000 		.4byte	0x109a
 4184 109a 10       		.uleb128 0x10
 4185 109b 46530000 		.4byte	0x5346
 4186 109f 0D       		.uleb128 0xd
 4187 10a0 BC530000 		.4byte	0x53bc
 4188 10a4 00       		.byte	0
 4189 10a5 00       		.byte	0
 4190 10a6 27       		.uleb128 0x27
 4191 10a7 1B150000 		.4byte	.LASF110
 4192 10ab 13       		.byte	0x13
 4193 10ac 8A01     		.2byte	0x18a
 4194 10ae 46530000 		.4byte	0x5346
 4195 10b2 00       		.byte	0
 4196 10b3 26       		.uleb128 0x26
 4197 10b4 2E230000 		.4byte	.LASF143
 4198 10b8 26       		.uleb128 0x26
 4199 10b9 0C350000 		.4byte	.LASF144
 4200 10bd 26       		.uleb128 0x26
 4201 10be 535C0000 		.4byte	.LASF145
 4202 10c2 26       		.uleb128 0x26
 4203 10c3 65450000 		.4byte	.LASF146
 4204 10c7 28       		.uleb128 0x28
 4205 10c8 A4430000 		.4byte	.LASF147
 4206 10cc 13       		.byte	0x13
 4207 10cd 8601     		.2byte	0x186
 4208 10cf 4C530000 		.4byte	0x534c
 4209 10d3 28       		.uleb128 0x28
 4210 10d4 7E140000 		.4byte	.LASF148
 4211 10d8 13       		.byte	0x13
 4212 10d9 8701     		.2byte	0x187
 4213 10db 67530000 		.4byte	0x5367
 4214 10df 29       		.uleb128 0x29
 4215 10e0 C86E0000 		.4byte	.LASF149
 4216 10e4 13       		.byte	0x13
 4217 10e5 8D01     		.2byte	0x18d
 4218 10e7 18130000 		.4byte	.LASF206
 4219 10eb 81530000 		.4byte	0x5381
 4220 10ef 01       		.byte	0x1
 4221 10f0 F8100000 		.4byte	0x10f8
 4222 10f4 FE100000 		.4byte	0x10fe
 4223 10f8 10       		.uleb128 0x10
 4224 10f9 87530000 		.4byte	0x5387
 4225 10fd 00       		.byte	0
 4226 10fe 07       		.uleb128 0x7
ARM GAS  /tmp/ccfWo18f.s 			page 76


 4227 10ff 66100000 		.4byte	0x1066
 4228 1103 29       		.uleb128 0x29
 4229 1104 C23E0000 		.4byte	.LASF150
 4230 1108 13       		.byte	0x13
 4231 1109 9101     		.2byte	0x191
 4232 110b 20010000 		.4byte	.LASF207
 4233 110f 5C4D0000 		.4byte	0x4d5c
 4234 1113 01       		.byte	0x1
 4235 1114 1C110000 		.4byte	0x111c
 4236 1118 22110000 		.4byte	0x1122
 4237 111c 10       		.uleb128 0x10
 4238 111d 87530000 		.4byte	0x5387
 4239 1121 00       		.byte	0
 4240 1122 29       		.uleb128 0x29
 4241 1123 64220000 		.4byte	.LASF153
 4242 1127 13       		.byte	0x13
 4243 1128 0302     		.2byte	0x203
 4244 112a 90220000 		.4byte	.LASF208
 4245 112e 2C000000 		.4byte	0x2c
 4246 1132 01       		.byte	0x1
 4247 1133 3B110000 		.4byte	0x113b
 4248 1137 41110000 		.4byte	0x1141
 4249 113b 10       		.uleb128 0x10
 4250 113c 87530000 		.4byte	0x5387
 4251 1140 00       		.byte	0
 4252 1141 2A       		.uleb128 0x2a
 4253 1142 EB500000 		.4byte	.LASF155
 4254 1146 13       		.byte	0x13
 4255 1147 9701     		.2byte	0x197
 4256 1149 00500000 		.4byte	.LASF209
 4257 114d 01       		.byte	0x1
 4258 114e 56110000 		.4byte	0x1156
 4259 1152 61110000 		.4byte	0x1161
 4260 1156 10       		.uleb128 0x10
 4261 1157 8D530000 		.4byte	0x538d
 4262 115b 0D       		.uleb128 0xd
 4263 115c 93530000 		.4byte	0x5393
 4264 1160 00       		.byte	0
 4265 1161 2A       		.uleb128 0x2a
 4266 1162 7D5B0000 		.4byte	.LASF156
 4267 1166 13       		.byte	0x13
 4268 1167 9F01     		.2byte	0x19f
 4269 1169 06570000 		.4byte	.LASF210
 4270 116d 01       		.byte	0x1
 4271 116e 76110000 		.4byte	0x1176
 4272 1172 81110000 		.4byte	0x1181
 4273 1176 10       		.uleb128 0x10
 4274 1177 8D530000 		.4byte	0x538d
 4275 117b 0D       		.uleb128 0xd
 4276 117c 93530000 		.4byte	0x5393
 4277 1180 00       		.byte	0
 4278 1181 29       		.uleb128 0x29
 4279 1182 AE2E0000 		.4byte	.LASF159
 4280 1186 13       		.byte	0x13
 4281 1187 0E02     		.2byte	0x20e
 4282 1189 62080000 		.4byte	.LASF211
 4283 118d 5C4D0000 		.4byte	0x4d5c
ARM GAS  /tmp/ccfWo18f.s 			page 77


 4284 1191 01       		.byte	0x1
 4285 1192 9A110000 		.4byte	0x119a
 4286 1196 A5110000 		.4byte	0x11a5
 4287 119a 10       		.uleb128 0x10
 4288 119b 8D530000 		.4byte	0x538d
 4289 119f 0D       		.uleb128 0xd
 4290 11a0 93530000 		.4byte	0x5393
 4291 11a4 00       		.byte	0
 4292 11a5 29       		.uleb128 0x29
 4293 11a6 353E0000 		.4byte	.LASF161
 4294 11aa 13       		.byte	0x13
 4295 11ab 1F02     		.2byte	0x21f
 4296 11ad 221D0000 		.4byte	.LASF212
 4297 11b1 25000000 		.4byte	0x25
 4298 11b5 01       		.byte	0x1
 4299 11b6 BE110000 		.4byte	0x11be
 4300 11ba C9110000 		.4byte	0x11c9
 4301 11be 10       		.uleb128 0x10
 4302 11bf 87530000 		.4byte	0x5387
 4303 11c3 0D       		.uleb128 0xd
 4304 11c4 61530000 		.4byte	0x5361
 4305 11c8 00       		.byte	0
 4306 11c9 29       		.uleb128 0x29
 4307 11ca A1570000 		.4byte	.LASF163
 4308 11ce 13       		.byte	0x13
 4309 11cf 2C02     		.2byte	0x22c
 4310 11d1 4D210000 		.4byte	.LASF213
 4311 11d5 5C4D0000 		.4byte	0x4d5c
 4312 11d9 01       		.byte	0x1
 4313 11da E2110000 		.4byte	0x11e2
 4314 11de ED110000 		.4byte	0x11ed
 4315 11e2 10       		.uleb128 0x10
 4316 11e3 87530000 		.4byte	0x5387
 4317 11e7 0D       		.uleb128 0xd
 4318 11e8 61530000 		.4byte	0x5361
 4319 11ec 00       		.byte	0
 4320 11ed 29       		.uleb128 0x29
 4321 11ee 9C3A0000 		.4byte	.LASF165
 4322 11f2 13       		.byte	0x13
 4323 11f3 3802     		.2byte	0x238
 4324 11f5 3A6B0000 		.4byte	.LASF214
 4325 11f9 99530000 		.4byte	0x5399
 4326 11fd 01       		.byte	0x1
 4327 11fe 06120000 		.4byte	0x1206
 4328 1202 11120000 		.4byte	0x1211
 4329 1206 10       		.uleb128 0x10
 4330 1207 87530000 		.4byte	0x5387
 4331 120b 0D       		.uleb128 0xd
 4332 120c C7100000 		.4byte	0x10c7
 4333 1210 00       		.byte	0
 4334 1211 29       		.uleb128 0x29
 4335 1212 9C3A0000 		.4byte	.LASF165
 4336 1216 13       		.byte	0x13
 4337 1217 4402     		.2byte	0x244
 4338 1219 CE090000 		.4byte	.LASF215
 4339 121d 99530000 		.4byte	0x5399
 4340 1221 01       		.byte	0x1
ARM GAS  /tmp/ccfWo18f.s 			page 78


 4341 1222 2A120000 		.4byte	0x122a
 4342 1226 3A120000 		.4byte	0x123a
 4343 122a 10       		.uleb128 0x10
 4344 122b 87530000 		.4byte	0x5387
 4345 122f 0D       		.uleb128 0xd
 4346 1230 D3100000 		.4byte	0x10d3
 4347 1234 0D       		.uleb128 0xd
 4348 1235 67520000 		.4byte	0x5267
 4349 1239 00       		.byte	0
 4350 123a 29       		.uleb128 0x29
 4351 123b 7B110000 		.4byte	.LASF168
 4352 123f 13       		.byte	0x13
 4353 1240 B301     		.2byte	0x1b3
 4354 1242 544C0000 		.4byte	.LASF216
 4355 1246 59120000 		.4byte	0x1259
 4356 124a 01       		.byte	0x1
 4357 124b 53120000 		.4byte	0x1253
 4358 124f 59120000 		.4byte	0x1259
 4359 1253 10       		.uleb128 0x10
 4360 1254 8D530000 		.4byte	0x538d
 4361 1258 00       		.byte	0
 4362 1259 07       		.uleb128 0x7
 4363 125a B3100000 		.4byte	0x10b3
 4364 125e 29       		.uleb128 0x29
 4365 125f EE360000 		.4byte	.LASF170
 4366 1263 13       		.byte	0x13
 4367 1264 B701     		.2byte	0x1b7
 4368 1266 7C5F0000 		.4byte	.LASF217
 4369 126a 59120000 		.4byte	0x1259
 4370 126e 01       		.byte	0x1
 4371 126f 77120000 		.4byte	0x1277
 4372 1273 7D120000 		.4byte	0x127d
 4373 1277 10       		.uleb128 0x10
 4374 1278 8D530000 		.4byte	0x538d
 4375 127c 00       		.byte	0
 4376 127d 2A       		.uleb128 0x2a
 4377 127e 026F0000 		.4byte	.LASF172
 4378 1282 13       		.byte	0x13
 4379 1283 BB01     		.2byte	0x1bb
 4380 1285 833C0000 		.4byte	.LASF218
 4381 1289 01       		.byte	0x1
 4382 128a 92120000 		.4byte	0x1292
 4383 128e 9D120000 		.4byte	0x129d
 4384 1292 10       		.uleb128 0x10
 4385 1293 8D530000 		.4byte	0x538d
 4386 1297 0D       		.uleb128 0xd
 4387 1298 9F530000 		.4byte	0x539f
 4388 129c 00       		.byte	0
 4389 129d 29       		.uleb128 0x29
 4390 129e 7B110000 		.4byte	.LASF168
 4391 12a2 13       		.byte	0x13
 4392 12a3 BF01     		.2byte	0x1bf
 4393 12a5 63100000 		.4byte	.LASF219
 4394 12a9 BC120000 		.4byte	0x12bc
 4395 12ad 01       		.byte	0x1
 4396 12ae B6120000 		.4byte	0x12b6
 4397 12b2 BC120000 		.4byte	0x12bc
ARM GAS  /tmp/ccfWo18f.s 			page 79


 4398 12b6 10       		.uleb128 0x10
 4399 12b7 87530000 		.4byte	0x5387
 4400 12bb 00       		.byte	0
 4401 12bc 07       		.uleb128 0x7
 4402 12bd B8100000 		.4byte	0x10b8
 4403 12c1 29       		.uleb128 0x29
 4404 12c2 EE360000 		.4byte	.LASF170
 4405 12c6 13       		.byte	0x13
 4406 12c7 C301     		.2byte	0x1c3
 4407 12c9 6B550000 		.4byte	.LASF220
 4408 12cd BC120000 		.4byte	0x12bc
 4409 12d1 01       		.byte	0x1
 4410 12d2 DA120000 		.4byte	0x12da
 4411 12d6 E0120000 		.4byte	0x12e0
 4412 12da 10       		.uleb128 0x10
 4413 12db 87530000 		.4byte	0x5387
 4414 12df 00       		.byte	0
 4415 12e0 2A       		.uleb128 0x2a
 4416 12e1 026F0000 		.4byte	.LASF172
 4417 12e5 13       		.byte	0x13
 4418 12e6 C701     		.2byte	0x1c7
 4419 12e8 8A3B0000 		.4byte	.LASF221
 4420 12ec 01       		.byte	0x1
 4421 12ed F5120000 		.4byte	0x12f5
 4422 12f1 00130000 		.4byte	0x1300
 4423 12f5 10       		.uleb128 0x10
 4424 12f6 87530000 		.4byte	0x5387
 4425 12fa 0D       		.uleb128 0xd
 4426 12fb A5530000 		.4byte	0x53a5
 4427 12ff 00       		.byte	0
 4428 1300 29       		.uleb128 0x29
 4429 1301 30640000 		.4byte	.LASF177
 4430 1305 13       		.byte	0x13
 4431 1306 5302     		.2byte	0x253
 4432 1308 3D240000 		.4byte	.LASF222
 4433 130c 81530000 		.4byte	0x5381
 4434 1310 01       		.byte	0x1
 4435 1311 19130000 		.4byte	0x1319
 4436 1315 1F130000 		.4byte	0x131f
 4437 1319 10       		.uleb128 0x10
 4438 131a 87530000 		.4byte	0x5387
 4439 131e 00       		.byte	0
 4440 131f 29       		.uleb128 0x29
 4441 1320 D94E0000 		.4byte	.LASF179
 4442 1324 13       		.byte	0x13
 4443 1325 5D02     		.2byte	0x25d
 4444 1327 D04A0000 		.4byte	.LASF223
 4445 132b 5C4D0000 		.4byte	0x4d5c
 4446 132f 01       		.byte	0x1
 4447 1330 38130000 		.4byte	0x1338
 4448 1334 3E130000 		.4byte	0x133e
 4449 1338 10       		.uleb128 0x10
 4450 1339 87530000 		.4byte	0x5387
 4451 133d 00       		.byte	0
 4452 133e 29       		.uleb128 0x29
 4453 133f 043B0000 		.4byte	.LASF109
 4454 1343 13       		.byte	0x13
ARM GAS  /tmp/ccfWo18f.s 			page 80


 4455 1344 6702     		.2byte	0x267
 4456 1346 1F040000 		.4byte	.LASF224
 4457 134a 2C000000 		.4byte	0x2c
 4458 134e 01       		.byte	0x1
 4459 134f 57130000 		.4byte	0x1357
 4460 1353 5D130000 		.4byte	0x135d
 4461 1357 10       		.uleb128 0x10
 4462 1358 87530000 		.4byte	0x5387
 4463 135c 00       		.byte	0
 4464 135d 2A       		.uleb128 0x2a
 4465 135e 71220000 		.4byte	.LASF182
 4466 1362 13       		.byte	0x13
 4467 1363 7602     		.2byte	0x276
 4468 1365 B53A0000 		.4byte	.LASF225
 4469 1369 01       		.byte	0x1
 4470 136a 72130000 		.4byte	0x1372
 4471 136e 7D130000 		.4byte	0x137d
 4472 1372 10       		.uleb128 0x10
 4473 1373 8D530000 		.4byte	0x538d
 4474 1377 0D       		.uleb128 0xd
 4475 1378 93530000 		.4byte	0x5393
 4476 137c 00       		.byte	0
 4477 137d 29       		.uleb128 0x29
 4478 137e 6A150000 		.4byte	.LASF184
 4479 1382 13       		.byte	0x13
 4480 1383 8002     		.2byte	0x280
 4481 1385 EB420000 		.4byte	.LASF226
 4482 1389 5C4D0000 		.4byte	0x4d5c
 4483 138d 01       		.byte	0x1
 4484 138e 96130000 		.4byte	0x1396
 4485 1392 A1130000 		.4byte	0x13a1
 4486 1396 10       		.uleb128 0x10
 4487 1397 8D530000 		.4byte	0x538d
 4488 139b 0D       		.uleb128 0xd
 4489 139c 93530000 		.4byte	0x5393
 4490 13a0 00       		.byte	0
 4491 13a1 29       		.uleb128 0x29
 4492 13a2 56400000 		.4byte	.LASF186
 4493 13a6 13       		.byte	0x13
 4494 13a7 8A02     		.2byte	0x28a
 4495 13a9 1A360000 		.4byte	.LASF227
 4496 13ad 25000000 		.4byte	0x25
 4497 13b1 01       		.byte	0x1
 4498 13b2 BA130000 		.4byte	0x13ba
 4499 13b6 C5130000 		.4byte	0x13c5
 4500 13ba 10       		.uleb128 0x10
 4501 13bb 87530000 		.4byte	0x5387
 4502 13bf 0D       		.uleb128 0xd
 4503 13c0 61530000 		.4byte	0x5361
 4504 13c4 00       		.byte	0
 4505 13c5 29       		.uleb128 0x29
 4506 13c6 3C290000 		.4byte	.LASF188
 4507 13ca 13       		.byte	0x13
 4508 13cb 9B02     		.2byte	0x29b
 4509 13cd 003D0000 		.4byte	.LASF228
 4510 13d1 5C4D0000 		.4byte	0x4d5c
 4511 13d5 01       		.byte	0x1
ARM GAS  /tmp/ccfWo18f.s 			page 81


 4512 13d6 DE130000 		.4byte	0x13de
 4513 13da E9130000 		.4byte	0x13e9
 4514 13de 10       		.uleb128 0x10
 4515 13df 87530000 		.4byte	0x5387
 4516 13e3 0D       		.uleb128 0xd
 4517 13e4 61530000 		.4byte	0x5361
 4518 13e8 00       		.byte	0
 4519 13e9 29       		.uleb128 0x29
 4520 13ea F2430000 		.4byte	.LASF190
 4521 13ee 13       		.byte	0x13
 4522 13ef AC02     		.2byte	0x2ac
 4523 13f1 4B6C0000 		.4byte	.LASF229
 4524 13f5 99530000 		.4byte	0x5399
 4525 13f9 01       		.byte	0x1
 4526 13fa 02140000 		.4byte	0x1402
 4527 13fe 0D140000 		.4byte	0x140d
 4528 1402 10       		.uleb128 0x10
 4529 1403 87530000 		.4byte	0x5387
 4530 1407 0D       		.uleb128 0xd
 4531 1408 C7100000 		.4byte	0x10c7
 4532 140c 00       		.byte	0
 4533 140d 29       		.uleb128 0x29
 4534 140e F2430000 		.4byte	.LASF190
 4535 1412 13       		.byte	0x13
 4536 1413 BC02     		.2byte	0x2bc
 4537 1415 E4520000 		.4byte	.LASF230
 4538 1419 99530000 		.4byte	0x5399
 4539 141d 01       		.byte	0x1
 4540 141e 26140000 		.4byte	0x1426
 4541 1422 36140000 		.4byte	0x1436
 4542 1426 10       		.uleb128 0x10
 4543 1427 87530000 		.4byte	0x5387
 4544 142b 0D       		.uleb128 0xd
 4545 142c D3100000 		.4byte	0x10d3
 4546 1430 0D       		.uleb128 0xd
 4547 1431 67520000 		.4byte	0x5267
 4548 1435 00       		.byte	0
 4549 1436 29       		.uleb128 0x29
 4550 1437 3C6E0000 		.4byte	.LASF193
 4551 143b 13       		.byte	0x13
 4552 143c E001     		.2byte	0x1e0
 4553 143e D4070000 		.4byte	.LASF231
 4554 1442 55140000 		.4byte	0x1455
 4555 1446 01       		.byte	0x1
 4556 1447 4F140000 		.4byte	0x144f
 4557 144b 55140000 		.4byte	0x1455
 4558 144f 10       		.uleb128 0x10
 4559 1450 8D530000 		.4byte	0x538d
 4560 1454 00       		.byte	0
 4561 1455 07       		.uleb128 0x7
 4562 1456 BD100000 		.4byte	0x10bd
 4563 145a 2B       		.uleb128 0x2b
 4564 145b 656E6400 		.ascii	"end\000"
 4565 145f 13       		.byte	0x13
 4566 1460 E401     		.2byte	0x1e4
 4567 1462 A95B0000 		.4byte	.LASF232
 4568 1466 55140000 		.4byte	0x1455
ARM GAS  /tmp/ccfWo18f.s 			page 82


 4569 146a 01       		.byte	0x1
 4570 146b 73140000 		.4byte	0x1473
 4571 146f 79140000 		.4byte	0x1479
 4572 1473 10       		.uleb128 0x10
 4573 1474 8D530000 		.4byte	0x538d
 4574 1478 00       		.byte	0
 4575 1479 2A       		.uleb128 0x2a
 4576 147a 11140000 		.4byte	.LASF195
 4577 147e 13       		.byte	0x13
 4578 147f E801     		.2byte	0x1e8
 4579 1481 E5670000 		.4byte	.LASF233
 4580 1485 01       		.byte	0x1
 4581 1486 8E140000 		.4byte	0x148e
 4582 148a 99140000 		.4byte	0x1499
 4583 148e 10       		.uleb128 0x10
 4584 148f 8D530000 		.4byte	0x538d
 4585 1493 0D       		.uleb128 0xd
 4586 1494 AB530000 		.4byte	0x53ab
 4587 1498 00       		.byte	0
 4588 1499 29       		.uleb128 0x29
 4589 149a 3C6E0000 		.4byte	.LASF193
 4590 149e 13       		.byte	0x13
 4591 149f EC01     		.2byte	0x1ec
 4592 14a1 2B1C0000 		.4byte	.LASF234
 4593 14a5 B8140000 		.4byte	0x14b8
 4594 14a9 01       		.byte	0x1
 4595 14aa B2140000 		.4byte	0x14b2
 4596 14ae B8140000 		.4byte	0x14b8
 4597 14b2 10       		.uleb128 0x10
 4598 14b3 87530000 		.4byte	0x5387
 4599 14b7 00       		.byte	0
 4600 14b8 07       		.uleb128 0x7
 4601 14b9 C2100000 		.4byte	0x10c2
 4602 14bd 2B       		.uleb128 0x2b
 4603 14be 656E6400 		.ascii	"end\000"
 4604 14c2 13       		.byte	0x13
 4605 14c3 F201     		.2byte	0x1f2
 4606 14c5 C0260000 		.4byte	.LASF235
 4607 14c9 B8140000 		.4byte	0x14b8
 4608 14cd 01       		.byte	0x1
 4609 14ce D6140000 		.4byte	0x14d6
 4610 14d2 DC140000 		.4byte	0x14dc
 4611 14d6 10       		.uleb128 0x10
 4612 14d7 87530000 		.4byte	0x5387
 4613 14db 00       		.byte	0
 4614 14dc 2A       		.uleb128 0x2a
 4615 14dd 11140000 		.4byte	.LASF195
 4616 14e1 13       		.byte	0x13
 4617 14e2 F601     		.2byte	0x1f6
 4618 14e4 4E0F0000 		.4byte	.LASF236
 4619 14e8 01       		.byte	0x1
 4620 14e9 F1140000 		.4byte	0x14f1
 4621 14ed FC140000 		.4byte	0x14fc
 4622 14f1 10       		.uleb128 0x10
 4623 14f2 87530000 		.4byte	0x5387
 4624 14f6 0D       		.uleb128 0xd
 4625 14f7 B1530000 		.4byte	0x53b1
ARM GAS  /tmp/ccfWo18f.s 			page 83


 4626 14fb 00       		.byte	0
 4627 14fc 2C       		.uleb128 0x2c
 4628 14fd AF110000 		.4byte	.LASF201
 4629 1501 13       		.byte	0x13
 4630 1502 FA01     		.2byte	0x1fa
 4631 1504 8D530000 		.4byte	0x538d
 4632 1508 01       		.byte	0x1
 4633 1509 11150000 		.4byte	0x1511
 4634 150d 17150000 		.4byte	0x1517
 4635 1511 10       		.uleb128 0x10
 4636 1512 8D530000 		.4byte	0x538d
 4637 1516 00       		.byte	0
 4638 1517 24       		.uleb128 0x24
 4639 1518 19260000 		.4byte	.LASF202
 4640 151c 26150000 		.4byte	0x1526
 4641 1520 00       		.byte	0
 4642 1521 07       		.uleb128 0x7
 4643 1522 26150000 		.4byte	0x1526
 4644 1526 26       		.uleb128 0x26
 4645 1527 14490000 		.4byte	.LASF237
 4646 152b 07       		.uleb128 0x7
 4647 152c 54100000 		.4byte	0x1054
 4648 1530 07       		.uleb128 0x7
 4649 1531 95060000 		.4byte	0x695
 4650 1535 0E       		.uleb128 0xe
 4651 1536 FB2A0000 		.4byte	.LASF238
 4652 153a 08       		.byte	0x8
 4653 153b 0F       		.byte	0xf
 4654 153c 0A       		.byte	0xa
 4655 153d 92170000 		.4byte	0x1792
 4656 1541 1C       		.uleb128 0x1c
 4657 1542 C7630000 		.4byte	.LASF139
 4658 1546 08       		.byte	0x8
 4659 1547 0F       		.byte	0xf
 4660 1548 0C       		.byte	0xc
 4661 1549 01       		.byte	0x1
 4662 154a 81150000 		.4byte	0x1581
 4663 154e 1D       		.uleb128 0x1d
 4664 154f DD320000 		.4byte	.LASF140
 4665 1553 0F       		.byte	0xf
 4666 1554 0D       		.byte	0xd
 4667 1555 D4530000 		.4byte	0x53d4
 4668 1559 00       		.byte	0
 4669 155a 1D       		.uleb128 0x1d
 4670 155b A1580000 		.4byte	.LASF239
 4671 155f 0F       		.byte	0xf
 4672 1560 0E       		.byte	0xe
 4673 1561 B4000000 		.4byte	0xb4
 4674 1565 04       		.byte	0x4
 4675 1566 1F       		.uleb128 0x1f
 4676 1567 C7630000 		.4byte	.LASF139
 4677 156b 0F       		.byte	0xf
 4678 156c 10       		.byte	0x10
 4679 156d D4530000 		.4byte	0x53d4
 4680 1571 75150000 		.4byte	0x1575
 4681 1575 10       		.uleb128 0x10
 4682 1576 D4530000 		.4byte	0x53d4
ARM GAS  /tmp/ccfWo18f.s 			page 84


 4683 157a 0D       		.uleb128 0xd
 4684 157b B4000000 		.4byte	0xb4
 4685 157f 00       		.byte	0
 4686 1580 00       		.byte	0
 4687 1581 13       		.uleb128 0x13
 4688 1582 79010000 		.4byte	0x179
 4689 1586 00       		.byte	0
 4690 1587 1D       		.uleb128 0x1d
 4691 1588 1B150000 		.4byte	.LASF110
 4692 158c 0F       		.byte	0xf
 4693 158d 17       		.byte	0x17
 4694 158e D4530000 		.4byte	0x53d4
 4695 1592 00       		.byte	0
 4696 1593 1D       		.uleb128 0x1d
 4697 1594 46260000 		.4byte	.LASF111
 4698 1598 0F       		.byte	0xf
 4699 1599 18       		.byte	0x18
 4700 159a D4530000 		.4byte	0x53d4
 4701 159e 04       		.byte	0x4
 4702 159f 18       		.uleb128 0x18
 4703 15a0 C86E0000 		.4byte	.LASF149
 4704 15a4 0F       		.byte	0xf
 4705 15a5 1B       		.byte	0x1b
 4706 15a6 071E0000 		.4byte	.LASF240
 4707 15aa DA530000 		.4byte	0x53da
 4708 15ae 01       		.byte	0x1
 4709 15af B7150000 		.4byte	0x15b7
 4710 15b3 BD150000 		.4byte	0x15bd
 4711 15b7 10       		.uleb128 0x10
 4712 15b8 E0530000 		.4byte	0x53e0
 4713 15bc 00       		.byte	0
 4714 15bd 07       		.uleb128 0x7
 4715 15be 41150000 		.4byte	0x1541
 4716 15c2 18       		.uleb128 0x18
 4717 15c3 7C6B0000 		.4byte	.LASF241
 4718 15c7 0F       		.byte	0xf
 4719 15c8 1C       		.byte	0x1c
 4720 15c9 6A190000 		.4byte	.LASF242
 4721 15cd DA530000 		.4byte	0x53da
 4722 15d1 01       		.byte	0x1
 4723 15d2 DA150000 		.4byte	0x15da
 4724 15d6 E0150000 		.4byte	0x15e0
 4725 15da 10       		.uleb128 0x10
 4726 15db E0530000 		.4byte	0x53e0
 4727 15df 00       		.byte	0
 4728 15e0 18       		.uleb128 0x18
 4729 15e1 C23E0000 		.4byte	.LASF150
 4730 15e5 0F       		.byte	0xf
 4731 15e6 1D       		.byte	0x1d
 4732 15e7 E80F0000 		.4byte	.LASF243
 4733 15eb 5C4D0000 		.4byte	0x4d5c
 4734 15ef 01       		.byte	0x1
 4735 15f0 F8150000 		.4byte	0x15f8
 4736 15f4 FE150000 		.4byte	0x15fe
 4737 15f8 10       		.uleb128 0x10
 4738 15f9 E0530000 		.4byte	0x53e0
 4739 15fd 00       		.byte	0
ARM GAS  /tmp/ccfWo18f.s 			page 85


 4740 15fe 20       		.uleb128 0x20
 4741 15ff 08490000 		.4byte	.LASF69
 4742 1603 0F       		.byte	0xf
 4743 1604 1E       		.byte	0x1e
 4744 1605 311E0000 		.4byte	.LASF244
 4745 1609 01       		.byte	0x1
 4746 160a 12160000 		.4byte	0x1612
 4747 160e 1D160000 		.4byte	0x161d
 4748 1612 10       		.uleb128 0x10
 4749 1613 E6530000 		.4byte	0x53e6
 4750 1617 0D       		.uleb128 0xd
 4751 1618 EC530000 		.4byte	0x53ec
 4752 161c 00       		.byte	0
 4753 161d 18       		.uleb128 0x18
 4754 161e 99440000 		.4byte	.LASF245
 4755 1622 0F       		.byte	0xf
 4756 1623 1F       		.byte	0x1f
 4757 1624 EE300000 		.4byte	.LASF246
 4758 1628 5C4D0000 		.4byte	0x4d5c
 4759 162c 01       		.byte	0x1
 4760 162d 35160000 		.4byte	0x1635
 4761 1631 40160000 		.4byte	0x1640
 4762 1635 10       		.uleb128 0x10
 4763 1636 E0530000 		.4byte	0x53e0
 4764 163a 0D       		.uleb128 0xd
 4765 163b F2530000 		.4byte	0x53f2
 4766 163f 00       		.byte	0
 4767 1640 18       		.uleb128 0x18
 4768 1641 A73D0000 		.4byte	.LASF71
 4769 1645 0F       		.byte	0xf
 4770 1646 20       		.byte	0x20
 4771 1647 9E550000 		.4byte	.LASF247
 4772 164b 5C4D0000 		.4byte	0x4d5c
 4773 164f 01       		.byte	0x1
 4774 1650 58160000 		.4byte	0x1658
 4775 1654 63160000 		.4byte	0x1663
 4776 1658 10       		.uleb128 0x10
 4777 1659 E6530000 		.4byte	0x53e6
 4778 165d 0D       		.uleb128 0xd
 4779 165e EC530000 		.4byte	0x53ec
 4780 1662 00       		.byte	0
 4781 1663 18       		.uleb128 0x18
 4782 1664 EE410000 		.4byte	.LASF114
 4783 1668 0F       		.byte	0xf
 4784 1669 21       		.byte	0x21
 4785 166a 611C0000 		.4byte	.LASF248
 4786 166e 5C4D0000 		.4byte	0x4d5c
 4787 1672 01       		.byte	0x1
 4788 1673 7B160000 		.4byte	0x167b
 4789 1677 81160000 		.4byte	0x1681
 4790 167b 10       		.uleb128 0x10
 4791 167c E6530000 		.4byte	0x53e6
 4792 1680 00       		.byte	0
 4793 1681 18       		.uleb128 0x18
 4794 1682 30640000 		.4byte	.LASF177
 4795 1686 0F       		.byte	0xf
 4796 1687 23       		.byte	0x23
ARM GAS  /tmp/ccfWo18f.s 			page 86


 4797 1688 D46D0000 		.4byte	.LASF249
 4798 168c DA530000 		.4byte	0x53da
 4799 1690 01       		.byte	0x1
 4800 1691 99160000 		.4byte	0x1699
 4801 1695 9F160000 		.4byte	0x169f
 4802 1699 10       		.uleb128 0x10
 4803 169a E0530000 		.4byte	0x53e0
 4804 169e 00       		.byte	0
 4805 169f 18       		.uleb128 0x18
 4806 16a0 122E0000 		.4byte	.LASF250
 4807 16a4 0F       		.byte	0xf
 4808 16a5 24       		.byte	0x24
 4809 16a6 E3660000 		.4byte	.LASF251
 4810 16aa DA530000 		.4byte	0x53da
 4811 16ae 01       		.byte	0x1
 4812 16af B7160000 		.4byte	0x16b7
 4813 16b3 BD160000 		.4byte	0x16bd
 4814 16b7 10       		.uleb128 0x10
 4815 16b8 E0530000 		.4byte	0x53e0
 4816 16bc 00       		.byte	0
 4817 16bd 18       		.uleb128 0x18
 4818 16be D94E0000 		.4byte	.LASF179
 4819 16c2 0F       		.byte	0xf
 4820 16c3 25       		.byte	0x25
 4821 16c4 4E200000 		.4byte	.LASF252
 4822 16c8 5C4D0000 		.4byte	0x4d5c
 4823 16cc 01       		.byte	0x1
 4824 16cd D5160000 		.4byte	0x16d5
 4825 16d1 DB160000 		.4byte	0x16db
 4826 16d5 10       		.uleb128 0x10
 4827 16d6 E0530000 		.4byte	0x53e0
 4828 16da 00       		.byte	0
 4829 16db 20       		.uleb128 0x20
 4830 16dc 92660000 		.4byte	.LASF77
 4831 16e0 0F       		.byte	0xf
 4832 16e1 26       		.byte	0x26
 4833 16e2 8F330000 		.4byte	.LASF253
 4834 16e6 01       		.byte	0x1
 4835 16e7 EF160000 		.4byte	0x16ef
 4836 16eb FA160000 		.4byte	0x16fa
 4837 16ef 10       		.uleb128 0x10
 4838 16f0 E6530000 		.4byte	0x53e6
 4839 16f4 0D       		.uleb128 0xd
 4840 16f5 EC530000 		.4byte	0x53ec
 4841 16f9 00       		.byte	0
 4842 16fa 18       		.uleb128 0x18
 4843 16fb 714F0000 		.4byte	.LASF254
 4844 16ff 0F       		.byte	0xf
 4845 1700 27       		.byte	0x27
 4846 1701 726E0000 		.4byte	.LASF255
 4847 1705 5C4D0000 		.4byte	0x4d5c
 4848 1709 01       		.byte	0x1
 4849 170a 12170000 		.4byte	0x1712
 4850 170e 1D170000 		.4byte	0x171d
 4851 1712 10       		.uleb128 0x10
 4852 1713 E0530000 		.4byte	0x53e0
 4853 1717 0D       		.uleb128 0xd
ARM GAS  /tmp/ccfWo18f.s 			page 87


 4854 1718 F2530000 		.4byte	0x53f2
 4855 171c 00       		.byte	0
 4856 171d 18       		.uleb128 0x18
 4857 171e D3280000 		.4byte	.LASF79
 4858 1722 0F       		.byte	0xf
 4859 1723 28       		.byte	0x28
 4860 1724 580E0000 		.4byte	.LASF256
 4861 1728 5C4D0000 		.4byte	0x4d5c
 4862 172c 01       		.byte	0x1
 4863 172d 35170000 		.4byte	0x1735
 4864 1731 40170000 		.4byte	0x1740
 4865 1735 10       		.uleb128 0x10
 4866 1736 E6530000 		.4byte	0x53e6
 4867 173a 0D       		.uleb128 0xd
 4868 173b EC530000 		.4byte	0x53ec
 4869 173f 00       		.byte	0
 4870 1740 18       		.uleb128 0x18
 4871 1741 C6190000 		.4byte	.LASF120
 4872 1745 0F       		.byte	0xf
 4873 1746 29       		.byte	0x29
 4874 1747 45290000 		.4byte	.LASF257
 4875 174b 5C4D0000 		.4byte	0x4d5c
 4876 174f 01       		.byte	0x1
 4877 1750 58170000 		.4byte	0x1758
 4878 1754 5E170000 		.4byte	0x175e
 4879 1758 10       		.uleb128 0x10
 4880 1759 E6530000 		.4byte	0x53e6
 4881 175d 00       		.byte	0
 4882 175e 11       		.uleb128 0x11
 4883 175f FB2A0000 		.4byte	.LASF238
 4884 1763 0F       		.byte	0xf
 4885 1764 2C       		.byte	0x2c
 4886 1765 E6530000 		.4byte	0x53e6
 4887 1769 01       		.byte	0x1
 4888 176a 72170000 		.4byte	0x1772
 4889 176e 78170000 		.4byte	0x1778
 4890 1772 10       		.uleb128 0x10
 4891 1773 E6530000 		.4byte	0x53e6
 4892 1777 00       		.byte	0
 4893 1778 2F       		.uleb128 0x2f
 4894 1779 695D0000 		.4byte	.LASF258
 4895 177d B4000000 		.4byte	0xb4
 4896 1781 01       		.byte	0x1
 4897 1782 86170000 		.4byte	0x1786
 4898 1786 10       		.uleb128 0x10
 4899 1787 E6530000 		.4byte	0x53e6
 4900 178b 10       		.uleb128 0x10
 4901 178c 25000000 		.4byte	0x25
 4902 1790 00       		.byte	0
 4903 1791 00       		.byte	0
 4904 1792 07       		.uleb128 0x7
 4905 1793 35150000 		.4byte	0x1535
 4906 1797 0E       		.uleb128 0xe
 4907 1798 D4690000 		.4byte	.LASF259
 4908 179c 0C       		.byte	0xc
 4909 179d 10       		.byte	0x10
 4910 179e 0A       		.byte	0xa
ARM GAS  /tmp/ccfWo18f.s 			page 88


 4911 179f 061A0000 		.4byte	0x1a06
 4912 17a3 13       		.uleb128 0x13
 4913 17a4 79010000 		.4byte	0x179
 4914 17a8 00       		.byte	0
 4915 17a9 1D       		.uleb128 0x1d
 4916 17aa 121F0000 		.4byte	.LASF66
 4917 17ae 10       		.byte	0x10
 4918 17af 72       		.byte	0x72
 4919 17b0 35150000 		.4byte	0x1535
 4920 17b4 04       		.byte	0x4
 4921 17b5 1C       		.uleb128 0x1c
 4922 17b6 C7630000 		.4byte	.LASF139
 4923 17ba 08       		.byte	0x8
 4924 17bb 10       		.byte	0x10
 4925 17bc 0C       		.byte	0xc
 4926 17bd 01       		.byte	0x1
 4927 17be 0E180000 		.4byte	0x180e
 4928 17c2 1D       		.uleb128 0x1d
 4929 17c3 DD320000 		.4byte	.LASF140
 4930 17c7 10       		.byte	0x10
 4931 17c8 0D       		.byte	0xd
 4932 17c9 975D0000 		.4byte	0x5d97
 4933 17cd 00       		.byte	0
 4934 17ce 1D       		.uleb128 0x1d
 4935 17cf FE1B0000 		.4byte	.LASF141
 4936 17d3 10       		.byte	0x10
 4937 17d4 0E       		.byte	0xe
 4938 17d5 9D5D0000 		.4byte	0x5d9d
 4939 17d9 04       		.byte	0x4
 4940 17da 0F       		.uleb128 0xf
 4941 17db C7630000 		.4byte	.LASF139
 4942 17df 10       		.byte	0x10
 4943 17e0 10       		.byte	0x10
 4944 17e1 975D0000 		.4byte	0x5d97
 4945 17e5 ED170000 		.4byte	0x17ed
 4946 17e9 F3170000 		.4byte	0x17f3
 4947 17ed 10       		.uleb128 0x10
 4948 17ee 975D0000 		.4byte	0x5d97
 4949 17f2 00       		.byte	0
 4950 17f3 1F       		.uleb128 0x1f
 4951 17f4 C7630000 		.4byte	.LASF139
 4952 17f8 10       		.byte	0x10
 4953 17f9 11       		.byte	0x11
 4954 17fa 975D0000 		.4byte	0x5d97
 4955 17fe 02180000 		.4byte	0x1802
 4956 1802 10       		.uleb128 0x10
 4957 1803 975D0000 		.4byte	0x5d97
 4958 1807 0D       		.uleb128 0xd
 4959 1808 A85D0000 		.4byte	0x5da8
 4960 180c 00       		.byte	0
 4961 180d 00       		.byte	0
 4962 180e 26       		.uleb128 0x26
 4963 180f 2E230000 		.4byte	.LASF143
 4964 1813 26       		.uleb128 0x26
 4965 1814 535C0000 		.4byte	.LASF145
 4966 1818 18       		.uleb128 0x18
 4967 1819 C23E0000 		.4byte	.LASF150
ARM GAS  /tmp/ccfWo18f.s 			page 89


 4968 181d 10       		.byte	0x10
 4969 181e 75       		.byte	0x75
 4970 181f C95E0000 		.4byte	.LASF260
 4971 1823 5C4D0000 		.4byte	0x4d5c
 4972 1827 01       		.byte	0x1
 4973 1828 30180000 		.4byte	0x1830
 4974 182c 36180000 		.4byte	0x1836
 4975 1830 10       		.uleb128 0x10
 4976 1831 F8530000 		.4byte	0x53f8
 4977 1835 00       		.byte	0
 4978 1836 20       		.uleb128 0x20
 4979 1837 08490000 		.4byte	.LASF69
 4980 183b 10       		.byte	0x10
 4981 183c 79       		.byte	0x79
 4982 183d 1E080000 		.4byte	.LASF261
 4983 1841 01       		.byte	0x1
 4984 1842 4A180000 		.4byte	0x184a
 4985 1846 55180000 		.4byte	0x1855
 4986 184a 10       		.uleb128 0x10
 4987 184b FE530000 		.4byte	0x53fe
 4988 184f 0D       		.uleb128 0xd
 4989 1850 04540000 		.4byte	0x5404
 4990 1854 00       		.byte	0
 4991 1855 18       		.uleb128 0x18
 4992 1856 99440000 		.4byte	.LASF245
 4993 185a 10       		.byte	0x10
 4994 185b 7D       		.byte	0x7d
 4995 185c 876D0000 		.4byte	.LASF262
 4996 1860 5C4D0000 		.4byte	0x4d5c
 4997 1864 01       		.byte	0x1
 4998 1865 6D180000 		.4byte	0x186d
 4999 1869 78180000 		.4byte	0x1878
 5000 186d 10       		.uleb128 0x10
 5001 186e F8530000 		.4byte	0x53f8
 5002 1872 0D       		.uleb128 0xd
 5003 1873 0A540000 		.4byte	0x540a
 5004 1877 00       		.byte	0
 5005 1878 07       		.uleb128 0x7
 5006 1879 B5170000 		.4byte	0x17b5
 5007 187d 18       		.uleb128 0x18
 5008 187e A73D0000 		.4byte	.LASF71
 5009 1882 10       		.byte	0x10
 5010 1883 83       		.byte	0x83
 5011 1884 D9280000 		.4byte	.LASF263
 5012 1888 5C4D0000 		.4byte	0x4d5c
 5013 188c 01       		.byte	0x1
 5014 188d 95180000 		.4byte	0x1895
 5015 1891 A0180000 		.4byte	0x18a0
 5016 1895 10       		.uleb128 0x10
 5017 1896 FE530000 		.4byte	0x53fe
 5018 189a 0D       		.uleb128 0xd
 5019 189b 04540000 		.4byte	0x5404
 5020 189f 00       		.byte	0
 5021 18a0 18       		.uleb128 0x18
 5022 18a1 EE410000 		.4byte	.LASF114
 5023 18a5 10       		.byte	0x10
 5024 18a6 87       		.byte	0x87
ARM GAS  /tmp/ccfWo18f.s 			page 90


 5025 18a7 2B170000 		.4byte	.LASF264
 5026 18ab 5C4D0000 		.4byte	0x4d5c
 5027 18af 01       		.byte	0x1
 5028 18b0 B8180000 		.4byte	0x18b8
 5029 18b4 BE180000 		.4byte	0x18be
 5030 18b8 10       		.uleb128 0x10
 5031 18b9 FE530000 		.4byte	0x53fe
 5032 18bd 00       		.byte	0
 5033 18be 18       		.uleb128 0x18
 5034 18bf 7B110000 		.4byte	.LASF168
 5035 18c3 10       		.byte	0x10
 5036 18c4 8B       		.byte	0x8b
 5037 18c5 991B0000 		.4byte	.LASF265
 5038 18c9 DC180000 		.4byte	0x18dc
 5039 18cd 01       		.byte	0x1
 5040 18ce D6180000 		.4byte	0x18d6
 5041 18d2 DC180000 		.4byte	0x18dc
 5042 18d6 10       		.uleb128 0x10
 5043 18d7 F8530000 		.4byte	0x53f8
 5044 18db 00       		.byte	0
 5045 18dc 07       		.uleb128 0x7
 5046 18dd 0E180000 		.4byte	0x180e
 5047 18e1 18       		.uleb128 0x18
 5048 18e2 EE360000 		.4byte	.LASF170
 5049 18e6 10       		.byte	0x10
 5050 18e7 91       		.byte	0x91
 5051 18e8 06270000 		.4byte	.LASF266
 5052 18ec DC180000 		.4byte	0x18dc
 5053 18f0 01       		.byte	0x1
 5054 18f1 F9180000 		.4byte	0x18f9
 5055 18f5 FF180000 		.4byte	0x18ff
 5056 18f9 10       		.uleb128 0x10
 5057 18fa F8530000 		.4byte	0x53f8
 5058 18fe 00       		.byte	0
 5059 18ff 18       		.uleb128 0x18
 5060 1900 D94E0000 		.4byte	.LASF179
 5061 1904 10       		.byte	0x10
 5062 1905 95       		.byte	0x95
 5063 1906 BE6A0000 		.4byte	.LASF267
 5064 190a 5C4D0000 		.4byte	0x4d5c
 5065 190e 01       		.byte	0x1
 5066 190f 17190000 		.4byte	0x1917
 5067 1913 1D190000 		.4byte	0x191d
 5068 1917 10       		.uleb128 0x10
 5069 1918 F8530000 		.4byte	0x53f8
 5070 191c 00       		.byte	0
 5071 191d 20       		.uleb128 0x20
 5072 191e 92660000 		.4byte	.LASF77
 5073 1922 10       		.byte	0x10
 5074 1923 99       		.byte	0x99
 5075 1924 D82B0000 		.4byte	.LASF268
 5076 1928 01       		.byte	0x1
 5077 1929 31190000 		.4byte	0x1931
 5078 192d 3C190000 		.4byte	0x193c
 5079 1931 10       		.uleb128 0x10
 5080 1932 FE530000 		.4byte	0x53fe
 5081 1936 0D       		.uleb128 0xd
ARM GAS  /tmp/ccfWo18f.s 			page 91


 5082 1937 04540000 		.4byte	0x5404
 5083 193b 00       		.byte	0
 5084 193c 18       		.uleb128 0x18
 5085 193d 714F0000 		.4byte	.LASF254
 5086 1941 10       		.byte	0x10
 5087 1942 9D       		.byte	0x9d
 5088 1943 9A510000 		.4byte	.LASF269
 5089 1947 5C4D0000 		.4byte	0x4d5c
 5090 194b 01       		.byte	0x1
 5091 194c 54190000 		.4byte	0x1954
 5092 1950 5F190000 		.4byte	0x195f
 5093 1954 10       		.uleb128 0x10
 5094 1955 F8530000 		.4byte	0x53f8
 5095 1959 0D       		.uleb128 0xd
 5096 195a 0A540000 		.4byte	0x540a
 5097 195e 00       		.byte	0
 5098 195f 18       		.uleb128 0x18
 5099 1960 D3280000 		.4byte	.LASF79
 5100 1964 10       		.byte	0x10
 5101 1965 A1       		.byte	0xa1
 5102 1966 9F200000 		.4byte	.LASF270
 5103 196a 5C4D0000 		.4byte	0x4d5c
 5104 196e 01       		.byte	0x1
 5105 196f 77190000 		.4byte	0x1977
 5106 1973 82190000 		.4byte	0x1982
 5107 1977 10       		.uleb128 0x10
 5108 1978 FE530000 		.4byte	0x53fe
 5109 197c 0D       		.uleb128 0xd
 5110 197d 04540000 		.4byte	0x5404
 5111 1981 00       		.byte	0
 5112 1982 18       		.uleb128 0x18
 5113 1983 C6190000 		.4byte	.LASF120
 5114 1987 10       		.byte	0x10
 5115 1988 A5       		.byte	0xa5
 5116 1989 984D0000 		.4byte	.LASF271
 5117 198d 5C4D0000 		.4byte	0x4d5c
 5118 1991 01       		.byte	0x1
 5119 1992 9A190000 		.4byte	0x199a
 5120 1996 A0190000 		.4byte	0x19a0
 5121 199a 10       		.uleb128 0x10
 5122 199b FE530000 		.4byte	0x53fe
 5123 199f 00       		.byte	0
 5124 19a0 18       		.uleb128 0x18
 5125 19a1 3C6E0000 		.4byte	.LASF193
 5126 19a5 10       		.byte	0x10
 5127 19a6 A9       		.byte	0xa9
 5128 19a7 1F3F0000 		.4byte	.LASF272
 5129 19ab BE190000 		.4byte	0x19be
 5130 19af 01       		.byte	0x1
 5131 19b0 B8190000 		.4byte	0x19b8
 5132 19b4 BE190000 		.4byte	0x19be
 5133 19b8 10       		.uleb128 0x10
 5134 19b9 F8530000 		.4byte	0x53f8
 5135 19bd 00       		.byte	0
 5136 19be 07       		.uleb128 0x7
 5137 19bf 13180000 		.4byte	0x1813
 5138 19c3 30       		.uleb128 0x30
ARM GAS  /tmp/ccfWo18f.s 			page 92


 5139 19c4 656E6400 		.ascii	"end\000"
 5140 19c8 10       		.byte	0x10
 5141 19c9 AD       		.byte	0xad
 5142 19ca 22430000 		.4byte	.LASF976
 5143 19ce BE190000 		.4byte	0x19be
 5144 19d2 01       		.byte	0x1
 5145 19d3 DB190000 		.4byte	0x19db
 5146 19d7 E1190000 		.4byte	0x19e1
 5147 19db 10       		.uleb128 0x10
 5148 19dc F8530000 		.4byte	0x53f8
 5149 19e0 00       		.byte	0
 5150 19e1 31       		.uleb128 0x31
 5151 19e2 B91A0000 		.4byte	.LASF273
 5152 19e6 B4000000 		.4byte	0xb4
 5153 19ea 01       		.byte	0x1
 5154 19eb F3190000 		.4byte	0x19f3
 5155 19ef FE190000 		.4byte	0x19fe
 5156 19f3 10       		.uleb128 0x10
 5157 19f4 FE530000 		.4byte	0x53fe
 5158 19f8 10       		.uleb128 0x10
 5159 19f9 25000000 		.4byte	0x25
 5160 19fd 00       		.byte	0
 5161 19fe 32       		.uleb128 0x32
 5162 19ff 5400     		.ascii	"T\000"
 5163 1a01 7B460000 		.4byte	0x467b
 5164 1a05 00       		.byte	0
 5165 1a06 07       		.uleb128 0x7
 5166 1a07 97170000 		.4byte	0x1797
 5167 1a0b 0E       		.uleb128 0xe
 5168 1a0c 2C2A0000 		.4byte	.LASF274
 5169 1a10 0C       		.byte	0xc
 5170 1a11 11       		.byte	0x11
 5171 1a12 0B       		.byte	0xb
 5172 1a13 521A0000 		.4byte	0x1a52
 5173 1a17 33       		.uleb128 0x33
 5174 1a18 97170000 		.4byte	0x1797
 5175 1a1c 00       		.byte	0
 5176 1a1d 01       		.byte	0x1
 5177 1a1e 11       		.uleb128 0x11
 5178 1a1f 2C2A0000 		.4byte	.LASF274
 5179 1a23 11       		.byte	0x11
 5180 1a24 0D       		.byte	0xd
 5181 1a25 16540000 		.4byte	0x5416
 5182 1a29 01       		.byte	0x1
 5183 1a2a 321A0000 		.4byte	0x1a32
 5184 1a2e 381A0000 		.4byte	0x1a38
 5185 1a32 10       		.uleb128 0x10
 5186 1a33 16540000 		.4byte	0x5416
 5187 1a37 00       		.byte	0
 5188 1a38 2F       		.uleb128 0x2f
 5189 1a39 041C0000 		.4byte	.LASF275
 5190 1a3d B4000000 		.4byte	0xb4
 5191 1a41 01       		.byte	0x1
 5192 1a42 461A0000 		.4byte	0x1a46
 5193 1a46 10       		.uleb128 0x10
 5194 1a47 16540000 		.4byte	0x5416
 5195 1a4b 10       		.uleb128 0x10
ARM GAS  /tmp/ccfWo18f.s 			page 93


 5196 1a4c 25000000 		.4byte	0x25
 5197 1a50 00       		.byte	0
 5198 1a51 00       		.byte	0
 5199 1a52 0E       		.uleb128 0xe
 5200 1a53 B6410000 		.4byte	.LASF276
 5201 1a57 22       		.byte	0x22
 5202 1a58 12       		.byte	0x12
 5203 1a59 0C       		.byte	0xc
 5204 1a5a AB1B0000 		.4byte	0x1bab
 5205 1a5e 1C       		.uleb128 0x1c
 5206 1a5f EC100000 		.4byte	.LASF277
 5207 1a63 1F       		.byte	0x1f
 5208 1a64 12       		.byte	0x12
 5209 1a65 22       		.byte	0x22
 5210 1a66 01       		.byte	0x1
 5211 1a67 901A0000 		.4byte	0x1a90
 5212 1a6b 1D       		.uleb128 0x1d
 5213 1a6c 9A400000 		.4byte	.LASF278
 5214 1a70 12       		.byte	0x12
 5215 1a71 23       		.byte	0x23
 5216 1a72 1C540000 		.4byte	0x541c
 5217 1a76 00       		.byte	0
 5218 1a77 1D       		.uleb128 0x1d
 5219 1a78 674D0000 		.4byte	.LASF279
 5220 1a7c 12       		.byte	0x12
 5221 1a7d 24       		.byte	0x24
 5222 1a7e CE000000 		.4byte	0xce
 5223 1a82 07       		.byte	0x7
 5224 1a83 1D       		.uleb128 0x1d
 5225 1a84 8D510000 		.4byte	.LASF280
 5226 1a88 12       		.byte	0x12
 5227 1a89 25       		.byte	0x25
 5228 1a8a 2C540000 		.4byte	0x542c
 5229 1a8e 0F       		.byte	0xf
 5230 1a8f 00       		.byte	0
 5231 1a90 1C       		.uleb128 0x1c
 5232 1a91 7E5D0000 		.4byte	.LASF281
 5233 1a95 1E       		.byte	0x1e
 5234 1a96 12       		.byte	0x12
 5235 1a97 28       		.byte	0x28
 5236 1a98 01       		.byte	0x1
 5237 1a99 CE1A0000 		.4byte	0x1ace
 5238 1a9d 1D       		.uleb128 0x1d
 5239 1a9e 8D510000 		.4byte	.LASF280
 5240 1aa2 12       		.byte	0x12
 5241 1aa3 2B       		.byte	0x2b
 5242 1aa4 2C540000 		.4byte	0x542c
 5243 1aa8 00       		.byte	0
 5244 1aa9 1D       		.uleb128 0x1d
 5245 1aaa 9E150000 		.4byte	.LASF282
 5246 1aae 12       		.byte	0x12
 5247 1aaf 2C       		.byte	0x2c
 5248 1ab0 304D0000 		.4byte	0x4d30
 5249 1ab4 10       		.byte	0x10
 5250 1ab5 1D       		.uleb128 0x1d
 5251 1ab6 0E400000 		.4byte	.LASF283
 5252 1aba 12       		.byte	0x12
ARM GAS  /tmp/ccfWo18f.s 			page 94


 5253 1abb 2D       		.byte	0x2d
 5254 1abc 304D0000 		.4byte	0x4d30
 5255 1ac0 12       		.byte	0x12
 5256 1ac1 1D       		.uleb128 0x1d
 5257 1ac2 F8600000 		.4byte	.LASF284
 5258 1ac6 12       		.byte	0x12
 5259 1ac7 2E       		.byte	0x2e
 5260 1ac8 3C540000 		.4byte	0x543c
 5261 1acc 14       		.byte	0x14
 5262 1acd 00       		.byte	0
 5263 1ace 1C       		.uleb128 0x1c
 5264 1acf 344A0000 		.4byte	.LASF285
 5265 1ad3 09       		.byte	0x9
 5266 1ad4 12       		.byte	0x12
 5267 1ad5 31       		.byte	0x31
 5268 1ad6 01       		.byte	0x1
 5269 1ad7 451B0000 		.4byte	0x1b45
 5270 1adb 34       		.uleb128 0x34
 5271 1adc 01       		.byte	0x1
 5272 1add 12       		.byte	0x12
 5273 1ade 34       		.byte	0x34
 5274 1adf 201B0000 		.4byte	0x1b20
 5275 1ae3 35       		.uleb128 0x35
 5276 1ae4 262B0000 		.4byte	.LASF286
 5277 1ae8 12       		.byte	0x12
 5278 1ae9 35       		.byte	0x35
 5279 1aea 37000000 		.4byte	0x37
 5280 1aee 04       		.byte	0x4
 5281 1aef 01       		.byte	0x1
 5282 1af0 1F       		.byte	0x1f
 5283 1af1 00       		.byte	0
 5284 1af2 35       		.uleb128 0x35
 5285 1af3 133C0000 		.4byte	.LASF287
 5286 1af7 12       		.byte	0x12
 5287 1af8 36       		.byte	0x36
 5288 1af9 37000000 		.4byte	0x37
 5289 1afd 04       		.byte	0x4
 5290 1afe 01       		.byte	0x1
 5291 1aff 1E       		.byte	0x1e
 5292 1b00 00       		.byte	0
 5293 1b01 35       		.uleb128 0x35
 5294 1b02 5F320000 		.4byte	.LASF288
 5295 1b06 12       		.byte	0x12
 5296 1b07 37       		.byte	0x37
 5297 1b08 37000000 		.4byte	0x37
 5298 1b0c 04       		.byte	0x4
 5299 1b0d 01       		.byte	0x1
 5300 1b0e 1D       		.byte	0x1d
 5301 1b0f 00       		.byte	0
 5302 1b10 35       		.uleb128 0x35
 5303 1b11 F3050000 		.4byte	.LASF289
 5304 1b15 12       		.byte	0x12
 5305 1b16 38       		.byte	0x38
 5306 1b17 37000000 		.4byte	0x37
 5307 1b1b 04       		.byte	0x4
 5308 1b1c 05       		.byte	0x5
 5309 1b1d 18       		.byte	0x18
ARM GAS  /tmp/ccfWo18f.s 			page 95


 5310 1b1e 00       		.byte	0
 5311 1b1f 00       		.byte	0
 5312 1b20 1D       		.uleb128 0x1d
 5313 1b21 D3360000 		.4byte	.LASF290
 5314 1b25 12       		.byte	0x12
 5315 1b26 32       		.byte	0x32
 5316 1b27 1C540000 		.4byte	0x541c
 5317 1b2b 00       		.byte	0
 5318 1b2c 1D       		.uleb128 0x1d
 5319 1b2d F3050000 		.4byte	.LASF289
 5320 1b31 12       		.byte	0x12
 5321 1b32 33       		.byte	0x33
 5322 1b33 254D0000 		.4byte	0x4d25
 5323 1b37 07       		.byte	0x7
 5324 1b38 1D       		.uleb128 0x1d
 5325 1b39 116F0000 		.4byte	.LASF291
 5326 1b3d 12       		.byte	0x12
 5327 1b3e 39       		.byte	0x39
 5328 1b3f DB1A0000 		.4byte	0x1adb
 5329 1b43 08       		.byte	0x8
 5330 1b44 00       		.byte	0
 5331 1b45 36       		.uleb128 0x36
 5332 1b46 1F       		.byte	0x1f
 5333 1b47 12       		.byte	0x12
 5334 1b48 3D       		.byte	0x3d
 5335 1b49 01       		.byte	0x1
 5336 1b4a 7B1B0000 		.4byte	0x1b7b
 5337 1b4e 37       		.uleb128 0x37
 5338 1b4f 24030000 		.4byte	.LASF292
 5339 1b53 12       		.byte	0x12
 5340 1b54 3E       		.byte	0x3e
 5341 1b55 4C540000 		.4byte	0x544c
 5342 1b59 37       		.uleb128 0x37
 5343 1b5a 1A3F0000 		.4byte	.LASF293
 5344 1b5e 12       		.byte	0x12
 5345 1b5f 3F       		.byte	0x3f
 5346 1b60 5E1A0000 		.4byte	0x1a5e
 5347 1b64 37       		.uleb128 0x37
 5348 1b65 D7150000 		.4byte	.LASF294
 5349 1b69 12       		.byte	0x12
 5350 1b6a 40       		.byte	0x40
 5351 1b6b 901A0000 		.4byte	0x1a90
 5352 1b6f 37       		.uleb128 0x37
 5353 1b70 9A400000 		.4byte	.LASF278
 5354 1b74 12       		.byte	0x12
 5355 1b75 41       		.byte	0x41
 5356 1b76 CE1A0000 		.4byte	0x1ace
 5357 1b7a 00       		.byte	0
 5358 1b7b 33       		.uleb128 0x33
 5359 1b7c 95060000 		.4byte	0x695
 5360 1b80 00       		.byte	0
 5361 1b81 01       		.byte	0x1
 5362 1b82 38       		.uleb128 0x38
 5363 1b83 451B0000 		.4byte	0x1b45
 5364 1b87 02       		.byte	0x2
 5365 1b88 01       		.byte	0x1
 5366 1b89 39       		.uleb128 0x39
ARM GAS  /tmp/ccfWo18f.s 			page 96


 5367 1b8a 65150000 		.4byte	.LASF295
 5368 1b8e 12       		.byte	0x12
 5369 1b8f 43       		.byte	0x43
 5370 1b90 254D0000 		.4byte	0x4d25
 5371 1b94 21       		.byte	0x21
 5372 1b95 01       		.byte	0x1
 5373 1b96 2F       		.uleb128 0x2f
 5374 1b97 B6410000 		.4byte	.LASF276
 5375 1b9b 185E0000 		.4byte	0x5e18
 5376 1b9f 01       		.byte	0x1
 5377 1ba0 A41B0000 		.4byte	0x1ba4
 5378 1ba4 10       		.uleb128 0x10
 5379 1ba5 185E0000 		.4byte	0x5e18
 5380 1ba9 00       		.byte	0
 5381 1baa 00       		.byte	0
 5382 1bab 0E       		.uleb128 0xe
 5383 1bac E9380000 		.4byte	.LASF296
 5384 1bb0 4C       		.byte	0x4c
 5385 1bb1 1C       		.byte	0x1c
 5386 1bb2 0C       		.byte	0xc
 5387 1bb3 651D0000 		.4byte	0x1d65
 5388 1bb7 1D       		.uleb128 0x1d
 5389 1bb8 121F0000 		.4byte	.LASF66
 5390 1bbc 1C       		.byte	0x1c
 5391 1bbd 0E       		.byte	0xe
 5392 1bbe BB4D0000 		.4byte	0x4dbb
 5393 1bc2 00       		.byte	0
 5394 1bc3 15       		.uleb128 0x15
 5395 1bc4 62470000 		.4byte	.LASF297
 5396 1bc8 1C       		.byte	0x1c
 5397 1bc9 1C       		.byte	0x1c
 5398 1bca 8F4D0000 		.4byte	0x4d8f
 5399 1bce 01       		.byte	0x1
 5400 1bcf 15       		.uleb128 0x15
 5401 1bd0 523C0000 		.4byte	.LASF298
 5402 1bd4 1C       		.byte	0x1c
 5403 1bd5 1D       		.byte	0x1d
 5404 1bd6 2A520000 		.4byte	0x522a
 5405 1bda 01       		.byte	0x1
 5406 1bdb 15       		.uleb128 0x15
 5407 1bdc 50130000 		.4byte	.LASF299
 5408 1be0 1C       		.byte	0x1c
 5409 1be1 1E       		.byte	0x1e
 5410 1be2 9A4D0000 		.4byte	0x4d9a
 5411 1be6 01       		.byte	0x1
 5412 1be7 15       		.uleb128 0x15
 5413 1be8 AE310000 		.4byte	.LASF300
 5414 1bec 1C       		.byte	0x1c
 5415 1bed 1F       		.byte	0x1f
 5416 1bee B4000000 		.4byte	0xb4
 5417 1bf2 01       		.byte	0x1
 5418 1bf3 18       		.uleb128 0x18
 5419 1bf4 09420000 		.4byte	.LASF301
 5420 1bf8 1C       		.byte	0x1c
 5421 1bf9 22       		.byte	0x22
 5422 1bfa 82230000 		.4byte	.LASF302
 5423 1bfe C3000000 		.4byte	0xc3
ARM GAS  /tmp/ccfWo18f.s 			page 97


 5424 1c02 01       		.byte	0x1
 5425 1c03 0B1C0000 		.4byte	0x1c0b
 5426 1c07 111C0000 		.4byte	0x1c11
 5427 1c0b 10       		.uleb128 0x10
 5428 1c0c 5C540000 		.4byte	0x545c
 5429 1c10 00       		.byte	0
 5430 1c11 18       		.uleb128 0x18
 5431 1c12 8D290000 		.4byte	.LASF130
 5432 1c16 1C       		.byte	0x1c
 5433 1c17 24       		.byte	0x24
 5434 1c18 8E5B0000 		.4byte	.LASF303
 5435 1c1c 62540000 		.4byte	0x5462
 5436 1c20 01       		.byte	0x1
 5437 1c21 291C0000 		.4byte	0x1c29
 5438 1c25 2F1C0000 		.4byte	0x1c2f
 5439 1c29 10       		.uleb128 0x10
 5440 1c2a 68540000 		.4byte	0x5468
 5441 1c2e 00       		.byte	0
 5442 1c2f 0F       		.uleb128 0xf
 5443 1c30 E9380000 		.4byte	.LASF296
 5444 1c34 1C       		.byte	0x1c
 5445 1c35 27       		.byte	0x27
 5446 1c36 68540000 		.4byte	0x5468
 5447 1c3a 421C0000 		.4byte	0x1c42
 5448 1c3e 481C0000 		.4byte	0x1c48
 5449 1c42 10       		.uleb128 0x10
 5450 1c43 68540000 		.4byte	0x5468
 5451 1c47 00       		.byte	0
 5452 1c48 22       		.uleb128 0x22
 5453 1c49 F61A0000 		.4byte	.LASF304
 5454 1c4d 1C       		.byte	0x1c
 5455 1c4e 2A       		.byte	0x2a
 5456 1c4f AA6B0000 		.4byte	.LASF305
 5457 1c53 2C000000 		.4byte	0x2c
 5458 1c57 01       		.byte	0x1
 5459 1c58 621C0000 		.4byte	0x1c62
 5460 1c5c 0D       		.uleb128 0xd
 5461 1c5d 2C000000 		.4byte	0x2c
 5462 1c61 00       		.byte	0
 5463 1c62 22       		.uleb128 0x22
 5464 1c63 012F0000 		.4byte	.LASF306
 5465 1c67 1C       		.byte	0x1c
 5466 1c68 2B       		.byte	0x2b
 5467 1c69 3A490000 		.4byte	.LASF307
 5468 1c6d 68540000 		.4byte	0x5468
 5469 1c71 01       		.byte	0x1
 5470 1c72 951C0000 		.4byte	0x1c95
 5471 1c76 0D       		.uleb128 0xd
 5472 1c77 B4000000 		.4byte	0xb4
 5473 1c7b 0D       		.uleb128 0xd
 5474 1c7c 2C000000 		.4byte	0x2c
 5475 1c80 0D       		.uleb128 0xd
 5476 1c81 C31B0000 		.4byte	0x1bc3
 5477 1c85 0D       		.uleb128 0xd
 5478 1c86 CF1B0000 		.4byte	0x1bcf
 5479 1c8a 0D       		.uleb128 0xd
 5480 1c8b B4000000 		.4byte	0xb4
ARM GAS  /tmp/ccfWo18f.s 			page 98


 5481 1c8f 0D       		.uleb128 0xd
 5482 1c90 C3000000 		.4byte	0xc3
 5483 1c94 00       		.byte	0
 5484 1c95 22       		.uleb128 0x22
 5485 1c96 BF450000 		.4byte	.LASF308
 5486 1c9a 1C       		.byte	0x1c
 5487 1c9b 2F       		.byte	0x2f
 5488 1c9c F7640000 		.4byte	.LASF309
 5489 1ca0 68540000 		.4byte	0x5468
 5490 1ca4 01       		.byte	0x1
 5491 1ca5 C81C0000 		.4byte	0x1cc8
 5492 1ca9 0D       		.uleb128 0xd
 5493 1caa B4000000 		.4byte	0xb4
 5494 1cae 0D       		.uleb128 0xd
 5495 1caf 2C000000 		.4byte	0x2c
 5496 1cb3 0D       		.uleb128 0xd
 5497 1cb4 C31B0000 		.4byte	0x1bc3
 5498 1cb8 0D       		.uleb128 0xd
 5499 1cb9 CF1B0000 		.4byte	0x1bcf
 5500 1cbd 0D       		.uleb128 0xd
 5501 1cbe B4000000 		.4byte	0xb4
 5502 1cc2 0D       		.uleb128 0xd
 5503 1cc3 C3000000 		.4byte	0xc3
 5504 1cc7 00       		.byte	0
 5505 1cc8 22       		.uleb128 0x22
 5506 1cc9 31420000 		.4byte	.LASF310
 5507 1ccd 1C       		.byte	0x1c
 5508 1cce 32       		.byte	0x32
 5509 1ccf 5E350000 		.4byte	.LASF311
 5510 1cd3 68540000 		.4byte	0x5468
 5511 1cd7 01       		.byte	0x1
 5512 1cd8 F61C0000 		.4byte	0x1cf6
 5513 1cdc 0D       		.uleb128 0xd
 5514 1cdd 6E540000 		.4byte	0x546e
 5515 1ce1 0D       		.uleb128 0xd
 5516 1ce2 C31B0000 		.4byte	0x1bc3
 5517 1ce6 0D       		.uleb128 0xd
 5518 1ce7 CF1B0000 		.4byte	0x1bcf
 5519 1ceb 0D       		.uleb128 0xd
 5520 1cec B4000000 		.4byte	0xb4
 5521 1cf0 0D       		.uleb128 0xd
 5522 1cf1 C3000000 		.4byte	0xc3
 5523 1cf5 00       		.byte	0
 5524 1cf6 3A       		.uleb128 0x3a
 5525 1cf7 574F0000 		.4byte	.LASF312
 5526 1cfb 1C       		.byte	0x1c
 5527 1cfc 35       		.byte	0x35
 5528 1cfd 83090000 		.4byte	.LASF314
 5529 1d01 74540000 		.4byte	0x5474
 5530 1d05 01       		.byte	0x1
 5531 1d06 3A       		.uleb128 0x3a
 5532 1d07 FE4B0000 		.4byte	.LASF313
 5533 1d0b 1C       		.byte	0x1c
 5534 1d0c 36       		.byte	0x36
 5535 1d0d B04A0000 		.4byte	.LASF315
 5536 1d11 C31B0000 		.4byte	0x1bc3
 5537 1d15 01       		.byte	0x1
ARM GAS  /tmp/ccfWo18f.s 			page 99


 5538 1d16 21       		.uleb128 0x21
 5539 1d17 150E0000 		.4byte	.LASF316
 5540 1d1b 1C       		.byte	0x1c
 5541 1d1c 37       		.byte	0x37
 5542 1d1d 4A280000 		.4byte	.LASF317
 5543 1d21 01       		.byte	0x1
 5544 1d22 2C1D0000 		.4byte	0x1d2c
 5545 1d26 0D       		.uleb128 0xd
 5546 1d27 C31B0000 		.4byte	0x1bc3
 5547 1d2b 00       		.byte	0
 5548 1d2c 14       		.uleb128 0x14
 5549 1d2d DD290000 		.4byte	.LASF318
 5550 1d31 1C       		.byte	0x1c
 5551 1d32 38       		.byte	0x38
 5552 1d33 863F0000 		.4byte	.LASF319
 5553 1d37 01       		.byte	0x1
 5554 1d38 21       		.uleb128 0x21
 5555 1d39 C35E0000 		.4byte	.LASF320
 5556 1d3d 1C       		.byte	0x1c
 5557 1d3e 39       		.byte	0x39
 5558 1d3f 91060000 		.4byte	.LASF321
 5559 1d43 01       		.byte	0x1
 5560 1d44 4E1D0000 		.4byte	0x1d4e
 5561 1d48 0D       		.uleb128 0xd
 5562 1d49 87520000 		.4byte	0x5287
 5563 1d4d 00       		.byte	0
 5564 1d4e 23       		.uleb128 0x23
 5565 1d4f F25F0000 		.4byte	.LASF322
 5566 1d53 1C       		.byte	0x1c
 5567 1d54 3A       		.byte	0x3a
 5568 1d55 EA3A0000 		.4byte	.LASF323
 5569 1d59 5C4D0000 		.4byte	0x4d5c
 5570 1d5d 01       		.byte	0x1
 5571 1d5e 0D       		.uleb128 0xd
 5572 1d5f 74540000 		.4byte	0x5474
 5573 1d63 00       		.byte	0
 5574 1d64 00       		.byte	0
 5575 1d65 07       		.uleb128 0x7
 5576 1d66 AB1B0000 		.4byte	0x1bab
 5577 1d6a 0E       		.uleb128 0xe
 5578 1d6b 80640000 		.4byte	.LASF324
 5579 1d6f 0C       		.byte	0xc
 5580 1d70 07       		.byte	0x7
 5581 1d71 09       		.byte	0x9
 5582 1d72 401F0000 		.4byte	0x1f40
 5583 1d76 13       		.uleb128 0x13
 5584 1d77 79010000 		.4byte	0x179
 5585 1d7b 00       		.byte	0
 5586 1d7c 1D       		.uleb128 0x1d
 5587 1d7d 121F0000 		.4byte	.LASF66
 5588 1d81 07       		.byte	0x7
 5589 1d82 0E       		.byte	0xe
 5590 1d83 0D520000 		.4byte	0x520d
 5591 1d87 00       		.byte	0
 5592 1d88 15       		.uleb128 0x15
 5593 1d89 79000000 		.4byte	.LASF325
 5594 1d8d 07       		.byte	0x7
ARM GAS  /tmp/ccfWo18f.s 			page 100


 5595 1d8e 0B       		.byte	0xb
 5596 1d8f 9D510000 		.4byte	0x519d
 5597 1d93 01       		.byte	0x1
 5598 1d94 18       		.uleb128 0x18
 5599 1d95 CB4E0000 		.4byte	.LASF326
 5600 1d99 07       		.byte	0x7
 5601 1d9a 11       		.byte	0x11
 5602 1d9b BB530000 		.4byte	.LASF327
 5603 1d9f 2C000000 		.4byte	0x2c
 5604 1da3 01       		.byte	0x1
 5605 1da4 AC1D0000 		.4byte	0x1dac
 5606 1da8 B21D0000 		.4byte	0x1db2
 5607 1dac 10       		.uleb128 0x10
 5608 1dad 7A540000 		.4byte	0x547a
 5609 1db1 00       		.byte	0
 5610 1db2 18       		.uleb128 0x18
 5611 1db3 2E2E0000 		.4byte	.LASF328
 5612 1db7 07       		.byte	0x7
 5613 1db8 12       		.byte	0x12
 5614 1db9 621F0000 		.4byte	.LASF329
 5615 1dbd 881D0000 		.4byte	0x1d88
 5616 1dc1 01       		.byte	0x1
 5617 1dc2 CA1D0000 		.4byte	0x1dca
 5618 1dc6 D01D0000 		.4byte	0x1dd0
 5619 1dca 10       		.uleb128 0x10
 5620 1dcb 7A540000 		.4byte	0x547a
 5621 1dcf 00       		.byte	0
 5622 1dd0 18       		.uleb128 0x18
 5623 1dd1 0F2F0000 		.4byte	.LASF330
 5624 1dd5 07       		.byte	0x7
 5625 1dd6 14       		.byte	0x14
 5626 1dd7 E93F0000 		.4byte	.LASF331
 5627 1ddb B4000000 		.4byte	0xb4
 5628 1ddf 01       		.byte	0x1
 5629 1de0 E81D0000 		.4byte	0x1de8
 5630 1de4 EE1D0000 		.4byte	0x1dee
 5631 1de8 10       		.uleb128 0x10
 5632 1de9 80540000 		.4byte	0x5480
 5633 1ded 00       		.byte	0
 5634 1dee 20       		.uleb128 0x20
 5635 1def F1170000 		.4byte	.LASF332
 5636 1df3 07       		.byte	0x7
 5637 1df4 15       		.byte	0x15
 5638 1df5 DB130000 		.4byte	.LASF333
 5639 1df9 01       		.byte	0x1
 5640 1dfa 021E0000 		.4byte	0x1e02
 5641 1dfe 0D1E0000 		.4byte	0x1e0d
 5642 1e02 10       		.uleb128 0x10
 5643 1e03 80540000 		.4byte	0x5480
 5644 1e07 0D       		.uleb128 0xd
 5645 1e08 B4000000 		.4byte	0xb4
 5646 1e0c 00       		.byte	0
 5647 1e0d 18       		.uleb128 0x18
 5648 1e0e AE430000 		.4byte	.LASF334
 5649 1e12 07       		.byte	0x7
 5650 1e13 17       		.byte	0x17
 5651 1e14 DC200000 		.4byte	.LASF335
ARM GAS  /tmp/ccfWo18f.s 			page 101


 5652 1e18 B4000000 		.4byte	0xb4
 5653 1e1c 01       		.byte	0x1
 5654 1e1d 251E0000 		.4byte	0x1e25
 5655 1e21 2B1E0000 		.4byte	0x1e2b
 5656 1e25 10       		.uleb128 0x10
 5657 1e26 80540000 		.4byte	0x5480
 5658 1e2a 00       		.byte	0
 5659 1e2b 20       		.uleb128 0x20
 5660 1e2c AA110000 		.4byte	.LASF336
 5661 1e30 07       		.byte	0x7
 5662 1e31 18       		.byte	0x18
 5663 1e32 022A0000 		.4byte	.LASF337
 5664 1e36 01       		.byte	0x1
 5665 1e37 3F1E0000 		.4byte	0x1e3f
 5666 1e3b 4A1E0000 		.4byte	0x1e4a
 5667 1e3f 10       		.uleb128 0x10
 5668 1e40 80540000 		.4byte	0x5480
 5669 1e44 0D       		.uleb128 0xd
 5670 1e45 B4000000 		.4byte	0xb4
 5671 1e49 00       		.byte	0
 5672 1e4a 20       		.uleb128 0x20
 5673 1e4b 855D0000 		.4byte	.LASF338
 5674 1e4f 07       		.byte	0x7
 5675 1e50 19       		.byte	0x19
 5676 1e51 CF470000 		.4byte	.LASF339
 5677 1e55 01       		.byte	0x1
 5678 1e56 5E1E0000 		.4byte	0x1e5e
 5679 1e5a 6E1E0000 		.4byte	0x1e6e
 5680 1e5e 10       		.uleb128 0x10
 5681 1e5f 80540000 		.4byte	0x5480
 5682 1e63 0D       		.uleb128 0xd
 5683 1e64 B4000000 		.4byte	0xb4
 5684 1e68 0D       		.uleb128 0xd
 5685 1e69 2C000000 		.4byte	0x2c
 5686 1e6d 00       		.byte	0
 5687 1e6e 18       		.uleb128 0x18
 5688 1e6f 8D290000 		.4byte	.LASF130
 5689 1e73 07       		.byte	0x7
 5690 1e74 1B       		.byte	0x1b
 5691 1e75 4A190000 		.4byte	.LASF340
 5692 1e79 86540000 		.4byte	0x5486
 5693 1e7d 01       		.byte	0x1
 5694 1e7e 861E0000 		.4byte	0x1e86
 5695 1e82 8C1E0000 		.4byte	0x1e8c
 5696 1e86 10       		.uleb128 0x10
 5697 1e87 80540000 		.4byte	0x5480
 5698 1e8b 00       		.byte	0
 5699 1e8c 11       		.uleb128 0x11
 5700 1e8d 80640000 		.4byte	.LASF324
 5701 1e91 07       		.byte	0x7
 5702 1e92 1E       		.byte	0x1e
 5703 1e93 80540000 		.4byte	0x5480
 5704 1e97 01       		.byte	0x1
 5705 1e98 A01E0000 		.4byte	0x1ea0
 5706 1e9c AB1E0000 		.4byte	0x1eab
 5707 1ea0 10       		.uleb128 0x10
 5708 1ea1 80540000 		.4byte	0x5480
ARM GAS  /tmp/ccfWo18f.s 			page 102


 5709 1ea5 0D       		.uleb128 0xd
 5710 1ea6 2C000000 		.4byte	0x2c
 5711 1eaa 00       		.byte	0
 5712 1eab 11       		.uleb128 0x11
 5713 1eac 80640000 		.4byte	.LASF324
 5714 1eb0 07       		.byte	0x7
 5715 1eb1 1F       		.byte	0x1f
 5716 1eb2 80540000 		.4byte	0x5480
 5717 1eb6 01       		.byte	0x1
 5718 1eb7 BF1E0000 		.4byte	0x1ebf
 5719 1ebb D41E0000 		.4byte	0x1ed4
 5720 1ebf 10       		.uleb128 0x10
 5721 1ec0 80540000 		.4byte	0x5480
 5722 1ec4 0D       		.uleb128 0xd
 5723 1ec5 B4000000 		.4byte	0xb4
 5724 1ec9 0D       		.uleb128 0xd
 5725 1eca 2C000000 		.4byte	0x2c
 5726 1ece 0D       		.uleb128 0xd
 5727 1ecf 2C000000 		.4byte	0x2c
 5728 1ed3 00       		.byte	0
 5729 1ed4 11       		.uleb128 0x11
 5730 1ed5 80640000 		.4byte	.LASF324
 5731 1ed9 07       		.byte	0x7
 5732 1eda 20       		.byte	0x20
 5733 1edb 80540000 		.4byte	0x5480
 5734 1edf 01       		.byte	0x1
 5735 1ee0 E81E0000 		.4byte	0x1ee8
 5736 1ee4 F81E0000 		.4byte	0x1ef8
 5737 1ee8 10       		.uleb128 0x10
 5738 1ee9 80540000 		.4byte	0x5480
 5739 1eed 0D       		.uleb128 0xd
 5740 1eee 2C000000 		.4byte	0x2c
 5741 1ef2 0D       		.uleb128 0xd
 5742 1ef3 881D0000 		.4byte	0x1d88
 5743 1ef7 00       		.byte	0
 5744 1ef8 11       		.uleb128 0x11
 5745 1ef9 80640000 		.4byte	.LASF324
 5746 1efd 07       		.byte	0x7
 5747 1efe 21       		.byte	0x21
 5748 1eff 80540000 		.4byte	0x5480
 5749 1f03 01       		.byte	0x1
 5750 1f04 0C1F0000 		.4byte	0x1f0c
 5751 1f08 261F0000 		.4byte	0x1f26
 5752 1f0c 10       		.uleb128 0x10
 5753 1f0d 80540000 		.4byte	0x5480
 5754 1f11 0D       		.uleb128 0xd
 5755 1f12 B4000000 		.4byte	0xb4
 5756 1f16 0D       		.uleb128 0xd
 5757 1f17 2C000000 		.4byte	0x2c
 5758 1f1b 0D       		.uleb128 0xd
 5759 1f1c 2C000000 		.4byte	0x2c
 5760 1f20 0D       		.uleb128 0xd
 5761 1f21 881D0000 		.4byte	0x1d88
 5762 1f25 00       		.byte	0
 5763 1f26 2F       		.uleb128 0x2f
 5764 1f27 7D470000 		.4byte	.LASF341
 5765 1f2b B4000000 		.4byte	0xb4
ARM GAS  /tmp/ccfWo18f.s 			page 103


 5766 1f2f 01       		.byte	0x1
 5767 1f30 341F0000 		.4byte	0x1f34
 5768 1f34 10       		.uleb128 0x10
 5769 1f35 80540000 		.4byte	0x5480
 5770 1f39 10       		.uleb128 0x10
 5771 1f3a 25000000 		.4byte	0x25
 5772 1f3e 00       		.byte	0
 5773 1f3f 00       		.byte	0
 5774 1f40 07       		.uleb128 0x7
 5775 1f41 6A1D0000 		.4byte	0x1d6a
 5776 1f45 0E       		.uleb128 0xe
 5777 1f46 F71C0000 		.4byte	.LASF342
 5778 1f4a 4C       		.byte	0x4c
 5779 1f4b 1D       		.byte	0x1d
 5780 1f4c 0C       		.byte	0xc
 5781 1f4d B9200000 		.4byte	0x20b9
 5782 1f51 13       		.uleb128 0x13
 5783 1f52 79010000 		.4byte	0x179
 5784 1f56 00       		.byte	0
 5785 1f57 1D       		.uleb128 0x1d
 5786 1f58 121F0000 		.4byte	.LASF66
 5787 1f5c 1D       		.byte	0x1d
 5788 1f5d 1F       		.byte	0x1f
 5789 1f5e AB1B0000 		.4byte	0x1bab
 5790 1f62 00       		.byte	0
 5791 1f63 15       		.uleb128 0x15
 5792 1f64 62470000 		.4byte	.LASF297
 5793 1f68 1D       		.byte	0x1d
 5794 1f69 19       		.byte	0x19
 5795 1f6a C31B0000 		.4byte	0x1bc3
 5796 1f6e 01       		.byte	0x1
 5797 1f6f 15       		.uleb128 0x15
 5798 1f70 523C0000 		.4byte	.LASF298
 5799 1f74 1D       		.byte	0x1d
 5800 1f75 1A       		.byte	0x1a
 5801 1f76 CF1B0000 		.4byte	0x1bcf
 5802 1f7a 01       		.byte	0x1
 5803 1f7b 15       		.uleb128 0x15
 5804 1f7c 50130000 		.4byte	.LASF299
 5805 1f80 1D       		.byte	0x1d
 5806 1f81 1B       		.byte	0x1b
 5807 1f82 DB1B0000 		.4byte	0x1bdb
 5808 1f86 01       		.byte	0x1
 5809 1f87 15       		.uleb128 0x15
 5810 1f88 AE310000 		.4byte	.LASF300
 5811 1f8c 1D       		.byte	0x1d
 5812 1f8d 1C       		.byte	0x1c
 5813 1f8e E71B0000 		.4byte	0x1be7
 5814 1f92 01       		.byte	0x1
 5815 1f93 18       		.uleb128 0x18
 5816 1f94 09420000 		.4byte	.LASF301
 5817 1f98 1D       		.byte	0x1d
 5818 1f99 23       		.byte	0x23
 5819 1f9a 1C2F0000 		.4byte	.LASF343
 5820 1f9e C3000000 		.4byte	0xc3
 5821 1fa2 01       		.byte	0x1
 5822 1fa3 AB1F0000 		.4byte	0x1fab
ARM GAS  /tmp/ccfWo18f.s 			page 104


 5823 1fa7 B11F0000 		.4byte	0x1fb1
 5824 1fab 10       		.uleb128 0x10
 5825 1fac 8C540000 		.4byte	0x548c
 5826 1fb0 00       		.byte	0
 5827 1fb1 0F       		.uleb128 0xf
 5828 1fb2 F71C0000 		.4byte	.LASF342
 5829 1fb6 1D       		.byte	0x1d
 5830 1fb7 26       		.byte	0x26
 5831 1fb8 92540000 		.4byte	0x5492
 5832 1fbc C41F0000 		.4byte	0x1fc4
 5833 1fc0 CA1F0000 		.4byte	0x1fca
 5834 1fc4 10       		.uleb128 0x10
 5835 1fc5 92540000 		.4byte	0x5492
 5836 1fc9 00       		.byte	0
 5837 1fca 22       		.uleb128 0x22
 5838 1fcb F61A0000 		.4byte	.LASF304
 5839 1fcf 1D       		.byte	0x1d
 5840 1fd0 29       		.byte	0x29
 5841 1fd1 7C570000 		.4byte	.LASF344
 5842 1fd5 2C000000 		.4byte	0x2c
 5843 1fd9 01       		.byte	0x1
 5844 1fda E41F0000 		.4byte	0x1fe4
 5845 1fde 0D       		.uleb128 0xd
 5846 1fdf 2C000000 		.4byte	0x2c
 5847 1fe3 00       		.byte	0
 5848 1fe4 22       		.uleb128 0x22
 5849 1fe5 012F0000 		.4byte	.LASF306
 5850 1fe9 1D       		.byte	0x1d
 5851 1fea 2A       		.byte	0x2a
 5852 1feb 426E0000 		.4byte	.LASF345
 5853 1fef 92540000 		.4byte	0x5492
 5854 1ff3 01       		.byte	0x1
 5855 1ff4 17200000 		.4byte	0x2017
 5856 1ff8 0D       		.uleb128 0xd
 5857 1ff9 B4000000 		.4byte	0xb4
 5858 1ffd 0D       		.uleb128 0xd
 5859 1ffe 2C000000 		.4byte	0x2c
 5860 2002 0D       		.uleb128 0xd
 5861 2003 631F0000 		.4byte	0x1f63
 5862 2007 0D       		.uleb128 0xd
 5863 2008 6F1F0000 		.4byte	0x1f6f
 5864 200c 0D       		.uleb128 0xd
 5865 200d B4000000 		.4byte	0xb4
 5866 2011 0D       		.uleb128 0xd
 5867 2012 C3000000 		.4byte	0xc3
 5868 2016 00       		.byte	0
 5869 2017 22       		.uleb128 0x22
 5870 2018 BF450000 		.4byte	.LASF308
 5871 201c 1D       		.byte	0x1d
 5872 201d 2D       		.byte	0x2d
 5873 201e 9F1F0000 		.4byte	.LASF346
 5874 2022 92540000 		.4byte	0x5492
 5875 2026 01       		.byte	0x1
 5876 2027 4A200000 		.4byte	0x204a
 5877 202b 0D       		.uleb128 0xd
 5878 202c B4000000 		.4byte	0xb4
 5879 2030 0D       		.uleb128 0xd
ARM GAS  /tmp/ccfWo18f.s 			page 105


 5880 2031 2C000000 		.4byte	0x2c
 5881 2035 0D       		.uleb128 0xd
 5882 2036 631F0000 		.4byte	0x1f63
 5883 203a 0D       		.uleb128 0xd
 5884 203b 6F1F0000 		.4byte	0x1f6f
 5885 203f 0D       		.uleb128 0xd
 5886 2040 B4000000 		.4byte	0xb4
 5887 2044 0D       		.uleb128 0xd
 5888 2045 C3000000 		.4byte	0xc3
 5889 2049 00       		.byte	0
 5890 204a 3A       		.uleb128 0x3a
 5891 204b 574F0000 		.4byte	.LASF312
 5892 204f 1D       		.byte	0x1d
 5893 2050 36       		.byte	0x36
 5894 2051 891F0000 		.4byte	.LASF347
 5895 2055 98540000 		.4byte	0x5498
 5896 2059 01       		.byte	0x1
 5897 205a 3A       		.uleb128 0x3a
 5898 205b FE4B0000 		.4byte	.LASF313
 5899 205f 1D       		.byte	0x1d
 5900 2060 37       		.byte	0x37
 5901 2061 E3290000 		.4byte	.LASF348
 5902 2065 631F0000 		.4byte	0x1f63
 5903 2069 01       		.byte	0x1
 5904 206a 21       		.uleb128 0x21
 5905 206b 150E0000 		.4byte	.LASF316
 5906 206f 1D       		.byte	0x1d
 5907 2070 38       		.byte	0x38
 5908 2071 8A470000 		.4byte	.LASF349
 5909 2075 01       		.byte	0x1
 5910 2076 80200000 		.4byte	0x2080
 5911 207a 0D       		.uleb128 0xd
 5912 207b 631F0000 		.4byte	0x1f63
 5913 207f 00       		.byte	0
 5914 2080 14       		.uleb128 0x14
 5915 2081 DD290000 		.4byte	.LASF318
 5916 2085 1D       		.byte	0x1d
 5917 2086 39       		.byte	0x39
 5918 2087 39160000 		.4byte	.LASF350
 5919 208b 01       		.byte	0x1
 5920 208c 21       		.uleb128 0x21
 5921 208d C35E0000 		.4byte	.LASF320
 5922 2091 1D       		.byte	0x1d
 5923 2092 3A       		.byte	0x3a
 5924 2093 D3020000 		.4byte	.LASF351
 5925 2097 01       		.byte	0x1
 5926 2098 A2200000 		.4byte	0x20a2
 5927 209c 0D       		.uleb128 0xd
 5928 209d 87520000 		.4byte	0x5287
 5929 20a1 00       		.byte	0
 5930 20a2 23       		.uleb128 0x23
 5931 20a3 F25F0000 		.4byte	.LASF322
 5932 20a7 1D       		.byte	0x1d
 5933 20a8 3B       		.byte	0x3b
 5934 20a9 9E3F0000 		.4byte	.LASF352
 5935 20ad 5C4D0000 		.4byte	0x4d5c
 5936 20b1 01       		.byte	0x1
ARM GAS  /tmp/ccfWo18f.s 			page 106


 5937 20b2 0D       		.uleb128 0xd
 5938 20b3 98540000 		.4byte	0x5498
 5939 20b7 00       		.byte	0
 5940 20b8 00       		.byte	0
 5941 20b9 07       		.uleb128 0x7
 5942 20ba 451F0000 		.4byte	0x1f45
 5943 20be 0E       		.uleb128 0xe
 5944 20bf B1320000 		.4byte	.LASF353
 5945 20c3 04       		.byte	0x4
 5946 20c4 13       		.byte	0x13
 5947 20c5 0F       		.byte	0xf
 5948 20c6 00270000 		.4byte	0x2700
 5949 20ca 13       		.uleb128 0x13
 5950 20cb 79010000 		.4byte	0x179
 5951 20cf 00       		.byte	0
 5952 20d0 1C       		.uleb128 0x1c
 5953 20d1 C7630000 		.4byte	.LASF139
 5954 20d5 08       		.byte	0x8
 5955 20d6 13       		.byte	0x13
 5956 20d7 11       		.byte	0x11
 5957 20d8 01       		.byte	0x1
 5958 20d9 10210000 		.4byte	0x2110
 5959 20dd 1D       		.uleb128 0x1d
 5960 20de DD320000 		.4byte	.LASF140
 5961 20e2 13       		.byte	0x13
 5962 20e3 12       		.byte	0x12
 5963 20e4 495B0000 		.4byte	0x5b49
 5964 20e8 00       		.byte	0
 5965 20e9 1D       		.uleb128 0x1d
 5966 20ea FE1B0000 		.4byte	.LASF141
 5967 20ee 13       		.byte	0x13
 5968 20ef 13       		.byte	0x13
 5969 20f0 D55C0000 		.4byte	0x5cd5
 5970 20f4 04       		.byte	0x4
 5971 20f5 1F       		.uleb128 0x1f
 5972 20f6 C7630000 		.4byte	.LASF139
 5973 20fa 13       		.byte	0x13
 5974 20fb 15       		.byte	0x15
 5975 20fc 495B0000 		.4byte	0x5b49
 5976 2100 04210000 		.4byte	0x2104
 5977 2104 10       		.uleb128 0x10
 5978 2105 495B0000 		.4byte	0x5b49
 5979 2109 0D       		.uleb128 0xd
 5980 210a 4D5C0000 		.4byte	0x5c4d
 5981 210e 00       		.byte	0
 5982 210f 00       		.byte	0
 5983 2110 27       		.uleb128 0x27
 5984 2111 1B150000 		.4byte	.LASF110
 5985 2115 13       		.byte	0x13
 5986 2116 8A01     		.2byte	0x18a
 5987 2118 495B0000 		.4byte	0x5b49
 5988 211c 00       		.byte	0
 5989 211d 3B       		.uleb128 0x3b
 5990 211e 552E0000 		.4byte	.LASF509
 5991 2122 26       		.uleb128 0x26
 5992 2123 2E230000 		.4byte	.LASF143
 5993 2127 26       		.uleb128 0x26
ARM GAS  /tmp/ccfWo18f.s 			page 107


 5994 2128 0C350000 		.4byte	.LASF144
 5995 212c 26       		.uleb128 0x26
 5996 212d 535C0000 		.4byte	.LASF145
 5997 2131 3C       		.uleb128 0x3c
 5998 2132 65450000 		.4byte	.LASF146
 5999 2136 04       		.byte	0x4
 6000 2137 13       		.byte	0x13
 6001 2138 C0       		.byte	0xc0
 6002 2139 01       		.byte	0x1
 6003 213a A1220000 		.4byte	0x22a1
 6004 213e 1D       		.uleb128 0x1d
 6005 213f 2B160000 		.4byte	.LASF354
 6006 2143 13       		.byte	0x13
 6007 2144 C4       		.byte	0xc4
 6008 2145 EA5D0000 		.4byte	0x5dea
 6009 2149 00       		.byte	0
 6010 214a 11       		.uleb128 0x11
 6011 214b 65450000 		.4byte	.LASF146
 6012 214f 13       		.byte	0x13
 6013 2150 C7       		.byte	0xc7
 6014 2151 F05D0000 		.4byte	0x5df0
 6015 2155 01       		.byte	0x1
 6016 2156 5E210000 		.4byte	0x215e
 6017 215a 64210000 		.4byte	0x2164
 6018 215e 10       		.uleb128 0x10
 6019 215f F05D0000 		.4byte	0x5df0
 6020 2163 00       		.byte	0
 6021 2164 11       		.uleb128 0x11
 6022 2165 65450000 		.4byte	.LASF146
 6023 2169 13       		.byte	0x13
 6024 216a C8       		.byte	0xc8
 6025 216b F05D0000 		.4byte	0x5df0
 6026 216f 01       		.byte	0x1
 6027 2170 78210000 		.4byte	0x2178
 6028 2174 83210000 		.4byte	0x2183
 6029 2178 10       		.uleb128 0x10
 6030 2179 F05D0000 		.4byte	0x5df0
 6031 217d 0D       		.uleb128 0xd
 6032 217e F65D0000 		.4byte	0x5df6
 6033 2182 00       		.byte	0
 6034 2183 0F       		.uleb128 0xf
 6035 2184 65450000 		.4byte	.LASF146
 6036 2188 13       		.byte	0x13
 6037 2189 CB       		.byte	0xcb
 6038 218a F05D0000 		.4byte	0x5df0
 6039 218e 96210000 		.4byte	0x2196
 6040 2192 A1210000 		.4byte	0x21a1
 6041 2196 10       		.uleb128 0x10
 6042 2197 F05D0000 		.4byte	0x5df0
 6043 219b 0D       		.uleb128 0xd
 6044 219c EA5D0000 		.4byte	0x5dea
 6045 21a0 00       		.byte	0
 6046 21a1 1E       		.uleb128 0x1e
 6047 21a2 B6150000 		.4byte	.LASF51
 6048 21a6 13       		.byte	0x13
 6049 21a7 CE       		.byte	0xce
 6050 21a8 592A0000 		.4byte	.LASF355
ARM GAS  /tmp/ccfWo18f.s 			page 108


 6051 21ac B45B0000 		.4byte	0x5bb4
 6052 21b0 B8210000 		.4byte	0x21b8
 6053 21b4 C3210000 		.4byte	0x21c3
 6054 21b8 10       		.uleb128 0x10
 6055 21b9 F05D0000 		.4byte	0x5df0
 6056 21bd 0D       		.uleb128 0xd
 6057 21be F65D0000 		.4byte	0x5df6
 6058 21c2 00       		.byte	0
 6059 21c3 18       		.uleb128 0x18
 6060 21c4 164C0000 		.4byte	.LASF356
 6061 21c8 13       		.byte	0x13
 6062 21c9 D4       		.byte	0xd4
 6063 21ca 0F5F0000 		.4byte	.LASF357
 6064 21ce FC5D0000 		.4byte	0x5dfc
 6065 21d2 01       		.byte	0x1
 6066 21d3 DB210000 		.4byte	0x21db
 6067 21d7 E1210000 		.4byte	0x21e1
 6068 21db 10       		.uleb128 0x10
 6069 21dc 025E0000 		.4byte	0x5e02
 6070 21e0 00       		.byte	0
 6071 21e1 18       		.uleb128 0x18
 6072 21e2 71150000 		.4byte	.LASF358
 6073 21e6 13       		.byte	0x13
 6074 21e7 D8       		.byte	0xd8
 6075 21e8 21150000 		.4byte	.LASF359
 6076 21ec 645B0000 		.4byte	0x5b64
 6077 21f0 01       		.byte	0x1
 6078 21f1 F9210000 		.4byte	0x21f9
 6079 21f5 FF210000 		.4byte	0x21ff
 6080 21f9 10       		.uleb128 0x10
 6081 21fa 025E0000 		.4byte	0x5e02
 6082 21fe 00       		.byte	0
 6083 21ff 18       		.uleb128 0x18
 6084 2200 704A0000 		.4byte	.LASF360
 6085 2204 13       		.byte	0x13
 6086 2205 DC       		.byte	0xdc
 6087 2206 B9140000 		.4byte	.LASF361
 6088 220a B45B0000 		.4byte	0x5bb4
 6089 220e 01       		.byte	0x1
 6090 220f 17220000 		.4byte	0x2217
 6091 2213 1D220000 		.4byte	0x221d
 6092 2217 10       		.uleb128 0x10
 6093 2218 F05D0000 		.4byte	0x5df0
 6094 221c 00       		.byte	0
 6095 221d 18       		.uleb128 0x18
 6096 221e 704A0000 		.4byte	.LASF360
 6097 2222 13       		.byte	0x13
 6098 2223 E3       		.byte	0xe3
 6099 2224 F54D0000 		.4byte	.LASF362
 6100 2228 92260000 		.4byte	0x2692
 6101 222c 01       		.byte	0x1
 6102 222d 35220000 		.4byte	0x2235
 6103 2231 40220000 		.4byte	0x2240
 6104 2235 10       		.uleb128 0x10
 6105 2236 F05D0000 		.4byte	0x5df0
 6106 223a 0D       		.uleb128 0xd
 6107 223b 25000000 		.4byte	0x25
ARM GAS  /tmp/ccfWo18f.s 			page 109


 6108 223f 00       		.byte	0
 6109 2240 18       		.uleb128 0x18
 6110 2241 FA6B0000 		.4byte	.LASF363
 6111 2245 13       		.byte	0x13
 6112 2246 EB       		.byte	0xeb
 6113 2247 2F650000 		.4byte	.LASF364
 6114 224b 5C4D0000 		.4byte	0x4d5c
 6115 224f 01       		.byte	0x1
 6116 2250 58220000 		.4byte	0x2258
 6117 2254 63220000 		.4byte	0x2263
 6118 2258 10       		.uleb128 0x10
 6119 2259 025E0000 		.4byte	0x5e02
 6120 225d 0D       		.uleb128 0xd
 6121 225e F65D0000 		.4byte	0x5df6
 6122 2262 00       		.byte	0
 6123 2263 18       		.uleb128 0x18
 6124 2264 E3360000 		.4byte	.LASF365
 6125 2268 13       		.byte	0x13
 6126 2269 EF       		.byte	0xef
 6127 226a 0A3B0000 		.4byte	.LASF366
 6128 226e 5C4D0000 		.4byte	0x4d5c
 6129 2272 01       		.byte	0x1
 6130 2273 7B220000 		.4byte	0x227b
 6131 2277 86220000 		.4byte	0x2286
 6132 227b 10       		.uleb128 0x10
 6133 227c 025E0000 		.4byte	0x5e02
 6134 2280 0D       		.uleb128 0xd
 6135 2281 F65D0000 		.4byte	0x5df6
 6136 2285 00       		.byte	0
 6137 2286 2E       		.uleb128 0x2e
 6138 2287 BE490000 		.4byte	.LASF367
 6139 228b 13       		.byte	0x13
 6140 228c F3       		.byte	0xf3
 6141 228d BA2C0000 		.4byte	.LASF368
 6142 2291 5C4D0000 		.4byte	0x4d5c
 6143 2295 01       		.byte	0x1
 6144 2296 9A220000 		.4byte	0x229a
 6145 229a 10       		.uleb128 0x10
 6146 229b 025E0000 		.4byte	0x5e02
 6147 229f 00       		.byte	0
 6148 22a0 00       		.byte	0
 6149 22a1 28       		.uleb128 0x28
 6150 22a2 A4430000 		.4byte	.LASF147
 6151 22a6 13       		.byte	0x13
 6152 22a7 8601     		.2byte	0x186
 6153 22a9 4F5B0000 		.4byte	0x5b4f
 6154 22ad 28       		.uleb128 0x28
 6155 22ae 7E140000 		.4byte	.LASF148
 6156 22b2 13       		.byte	0x13
 6157 22b3 8701     		.2byte	0x187
 6158 22b5 6A5B0000 		.4byte	0x5b6a
 6159 22b9 29       		.uleb128 0x29
 6160 22ba C86E0000 		.4byte	.LASF149
 6161 22be 13       		.byte	0x13
 6162 22bf 8D01     		.2byte	0x18d
 6163 22c1 DB450000 		.4byte	.LASF369
 6164 22c5 845B0000 		.4byte	0x5b84
ARM GAS  /tmp/ccfWo18f.s 			page 110


 6165 22c9 01       		.byte	0x1
 6166 22ca D2220000 		.4byte	0x22d2
 6167 22ce D8220000 		.4byte	0x22d8
 6168 22d2 10       		.uleb128 0x10
 6169 22d3 8A5B0000 		.4byte	0x5b8a
 6170 22d7 00       		.byte	0
 6171 22d8 07       		.uleb128 0x7
 6172 22d9 D0200000 		.4byte	0x20d0
 6173 22dd 29       		.uleb128 0x29
 6174 22de C23E0000 		.4byte	.LASF150
 6175 22e2 13       		.byte	0x13
 6176 22e3 9101     		.2byte	0x191
 6177 22e5 73670000 		.4byte	.LASF370
 6178 22e9 5C4D0000 		.4byte	0x4d5c
 6179 22ed 01       		.byte	0x1
 6180 22ee F6220000 		.4byte	0x22f6
 6181 22f2 FC220000 		.4byte	0x22fc
 6182 22f6 10       		.uleb128 0x10
 6183 22f7 8A5B0000 		.4byte	0x5b8a
 6184 22fb 00       		.byte	0
 6185 22fc 29       		.uleb128 0x29
 6186 22fd 64220000 		.4byte	.LASF153
 6187 2301 13       		.byte	0x13
 6188 2302 0302     		.2byte	0x203
 6189 2304 1C5A0000 		.4byte	.LASF371
 6190 2308 2C000000 		.4byte	0x2c
 6191 230c 01       		.byte	0x1
 6192 230d 15230000 		.4byte	0x2315
 6193 2311 1B230000 		.4byte	0x231b
 6194 2315 10       		.uleb128 0x10
 6195 2316 8A5B0000 		.4byte	0x5b8a
 6196 231a 00       		.byte	0
 6197 231b 2A       		.uleb128 0x2a
 6198 231c EB500000 		.4byte	.LASF155
 6199 2320 13       		.byte	0x13
 6200 2321 9701     		.2byte	0x197
 6201 2323 FC1F0000 		.4byte	.LASF372
 6202 2327 01       		.byte	0x1
 6203 2328 30230000 		.4byte	0x2330
 6204 232c 3B230000 		.4byte	0x233b
 6205 2330 10       		.uleb128 0x10
 6206 2331 905B0000 		.4byte	0x5b90
 6207 2335 0D       		.uleb128 0xd
 6208 2336 965B0000 		.4byte	0x5b96
 6209 233a 00       		.byte	0
 6210 233b 2A       		.uleb128 0x2a
 6211 233c 7D5B0000 		.4byte	.LASF156
 6212 2340 13       		.byte	0x13
 6213 2341 9F01     		.2byte	0x19f
 6214 2343 30000000 		.4byte	.LASF373
 6215 2347 01       		.byte	0x1
 6216 2348 50230000 		.4byte	0x2350
 6217 234c 5B230000 		.4byte	0x235b
 6218 2350 10       		.uleb128 0x10
 6219 2351 905B0000 		.4byte	0x5b90
 6220 2355 0D       		.uleb128 0xd
 6221 2356 965B0000 		.4byte	0x5b96
ARM GAS  /tmp/ccfWo18f.s 			page 111


 6222 235a 00       		.byte	0
 6223 235b 29       		.uleb128 0x29
 6224 235c AE2E0000 		.4byte	.LASF159
 6225 2360 13       		.byte	0x13
 6226 2361 0E02     		.2byte	0x20e
 6227 2363 6C500000 		.4byte	.LASF374
 6228 2367 5C4D0000 		.4byte	0x4d5c
 6229 236b 01       		.byte	0x1
 6230 236c 74230000 		.4byte	0x2374
 6231 2370 7F230000 		.4byte	0x237f
 6232 2374 10       		.uleb128 0x10
 6233 2375 905B0000 		.4byte	0x5b90
 6234 2379 0D       		.uleb128 0xd
 6235 237a 965B0000 		.4byte	0x5b96
 6236 237e 00       		.byte	0
 6237 237f 29       		.uleb128 0x29
 6238 2380 353E0000 		.4byte	.LASF161
 6239 2384 13       		.byte	0x13
 6240 2385 1F02     		.2byte	0x21f
 6241 2387 24480000 		.4byte	.LASF375
 6242 238b 25000000 		.4byte	0x25
 6243 238f 01       		.byte	0x1
 6244 2390 98230000 		.4byte	0x2398
 6245 2394 A3230000 		.4byte	0x23a3
 6246 2398 10       		.uleb128 0x10
 6247 2399 8A5B0000 		.4byte	0x5b8a
 6248 239d 0D       		.uleb128 0xd
 6249 239e 645B0000 		.4byte	0x5b64
 6250 23a2 00       		.byte	0
 6251 23a3 29       		.uleb128 0x29
 6252 23a4 A1570000 		.4byte	.LASF163
 6253 23a8 13       		.byte	0x13
 6254 23a9 2C02     		.2byte	0x22c
 6255 23ab BB4B0000 		.4byte	.LASF376
 6256 23af 5C4D0000 		.4byte	0x4d5c
 6257 23b3 01       		.byte	0x1
 6258 23b4 BC230000 		.4byte	0x23bc
 6259 23b8 C7230000 		.4byte	0x23c7
 6260 23bc 10       		.uleb128 0x10
 6261 23bd 8A5B0000 		.4byte	0x5b8a
 6262 23c1 0D       		.uleb128 0xd
 6263 23c2 645B0000 		.4byte	0x5b64
 6264 23c6 00       		.byte	0
 6265 23c7 29       		.uleb128 0x29
 6266 23c8 9C3A0000 		.4byte	.LASF165
 6267 23cc 13       		.byte	0x13
 6268 23cd 3802     		.2byte	0x238
 6269 23cf 58010000 		.4byte	.LASF377
 6270 23d3 9C5B0000 		.4byte	0x5b9c
 6271 23d7 01       		.byte	0x1
 6272 23d8 E0230000 		.4byte	0x23e0
 6273 23dc EB230000 		.4byte	0x23eb
 6274 23e0 10       		.uleb128 0x10
 6275 23e1 8A5B0000 		.4byte	0x5b8a
 6276 23e5 0D       		.uleb128 0xd
 6277 23e6 A1220000 		.4byte	0x22a1
 6278 23ea 00       		.byte	0
ARM GAS  /tmp/ccfWo18f.s 			page 112


 6279 23eb 29       		.uleb128 0x29
 6280 23ec 9C3A0000 		.4byte	.LASF165
 6281 23f0 13       		.byte	0x13
 6282 23f1 4402     		.2byte	0x244
 6283 23f3 FF0E0000 		.4byte	.LASF378
 6284 23f7 9C5B0000 		.4byte	0x5b9c
 6285 23fb 01       		.byte	0x1
 6286 23fc 04240000 		.4byte	0x2404
 6287 2400 14240000 		.4byte	0x2414
 6288 2404 10       		.uleb128 0x10
 6289 2405 8A5B0000 		.4byte	0x5b8a
 6290 2409 0D       		.uleb128 0xd
 6291 240a AD220000 		.4byte	0x22ad
 6292 240e 0D       		.uleb128 0xd
 6293 240f 67520000 		.4byte	0x5267
 6294 2413 00       		.byte	0
 6295 2414 29       		.uleb128 0x29
 6296 2415 7B110000 		.4byte	.LASF168
 6297 2419 13       		.byte	0x13
 6298 241a B301     		.2byte	0x1b3
 6299 241c 1B400000 		.4byte	.LASF379
 6300 2420 33240000 		.4byte	0x2433
 6301 2424 01       		.byte	0x1
 6302 2425 2D240000 		.4byte	0x242d
 6303 2429 33240000 		.4byte	0x2433
 6304 242d 10       		.uleb128 0x10
 6305 242e 905B0000 		.4byte	0x5b90
 6306 2432 00       		.byte	0
 6307 2433 07       		.uleb128 0x7
 6308 2434 22210000 		.4byte	0x2122
 6309 2438 29       		.uleb128 0x29
 6310 2439 EE360000 		.4byte	.LASF170
 6311 243d 13       		.byte	0x13
 6312 243e B701     		.2byte	0x1b7
 6313 2440 9A360000 		.4byte	.LASF380
 6314 2444 33240000 		.4byte	0x2433
 6315 2448 01       		.byte	0x1
 6316 2449 51240000 		.4byte	0x2451
 6317 244d 57240000 		.4byte	0x2457
 6318 2451 10       		.uleb128 0x10
 6319 2452 905B0000 		.4byte	0x5b90
 6320 2456 00       		.byte	0
 6321 2457 2A       		.uleb128 0x2a
 6322 2458 026F0000 		.4byte	.LASF172
 6323 245c 13       		.byte	0x13
 6324 245d BB01     		.2byte	0x1bb
 6325 245f 912F0000 		.4byte	.LASF381
 6326 2463 01       		.byte	0x1
 6327 2464 6C240000 		.4byte	0x246c
 6328 2468 77240000 		.4byte	0x2477
 6329 246c 10       		.uleb128 0x10
 6330 246d 905B0000 		.4byte	0x5b90
 6331 2471 0D       		.uleb128 0xd
 6332 2472 A25B0000 		.4byte	0x5ba2
 6333 2476 00       		.byte	0
 6334 2477 29       		.uleb128 0x29
 6335 2478 7B110000 		.4byte	.LASF168
ARM GAS  /tmp/ccfWo18f.s 			page 113


 6336 247c 13       		.byte	0x13
 6337 247d BF01     		.2byte	0x1bf
 6338 247f 3E440000 		.4byte	.LASF382
 6339 2483 96240000 		.4byte	0x2496
 6340 2487 01       		.byte	0x1
 6341 2488 90240000 		.4byte	0x2490
 6342 248c 96240000 		.4byte	0x2496
 6343 2490 10       		.uleb128 0x10
 6344 2491 8A5B0000 		.4byte	0x5b8a
 6345 2495 00       		.byte	0
 6346 2496 07       		.uleb128 0x7
 6347 2497 27210000 		.4byte	0x2127
 6348 249b 29       		.uleb128 0x29
 6349 249c EE360000 		.4byte	.LASF170
 6350 24a0 13       		.byte	0x13
 6351 24a1 C301     		.2byte	0x1c3
 6352 24a3 63340000 		.4byte	.LASF383
 6353 24a7 96240000 		.4byte	0x2496
 6354 24ab 01       		.byte	0x1
 6355 24ac B4240000 		.4byte	0x24b4
 6356 24b0 BA240000 		.4byte	0x24ba
 6357 24b4 10       		.uleb128 0x10
 6358 24b5 8A5B0000 		.4byte	0x5b8a
 6359 24b9 00       		.byte	0
 6360 24ba 2A       		.uleb128 0x2a
 6361 24bb 026F0000 		.4byte	.LASF172
 6362 24bf 13       		.byte	0x13
 6363 24c0 C701     		.2byte	0x1c7
 6364 24c2 89210000 		.4byte	.LASF384
 6365 24c6 01       		.byte	0x1
 6366 24c7 CF240000 		.4byte	0x24cf
 6367 24cb DA240000 		.4byte	0x24da
 6368 24cf 10       		.uleb128 0x10
 6369 24d0 8A5B0000 		.4byte	0x5b8a
 6370 24d4 0D       		.uleb128 0xd
 6371 24d5 A85B0000 		.4byte	0x5ba8
 6372 24d9 00       		.byte	0
 6373 24da 29       		.uleb128 0x29
 6374 24db 30640000 		.4byte	.LASF177
 6375 24df 13       		.byte	0x13
 6376 24e0 5302     		.2byte	0x253
 6377 24e2 876A0000 		.4byte	.LASF385
 6378 24e6 845B0000 		.4byte	0x5b84
 6379 24ea 01       		.byte	0x1
 6380 24eb F3240000 		.4byte	0x24f3
 6381 24ef F9240000 		.4byte	0x24f9
 6382 24f3 10       		.uleb128 0x10
 6383 24f4 8A5B0000 		.4byte	0x5b8a
 6384 24f8 00       		.byte	0
 6385 24f9 29       		.uleb128 0x29
 6386 24fa D94E0000 		.4byte	.LASF179
 6387 24fe 13       		.byte	0x13
 6388 24ff 5D02     		.2byte	0x25d
 6389 2501 63120000 		.4byte	.LASF386
 6390 2505 5C4D0000 		.4byte	0x4d5c
 6391 2509 01       		.byte	0x1
 6392 250a 12250000 		.4byte	0x2512
ARM GAS  /tmp/ccfWo18f.s 			page 114


 6393 250e 18250000 		.4byte	0x2518
 6394 2512 10       		.uleb128 0x10
 6395 2513 8A5B0000 		.4byte	0x5b8a
 6396 2517 00       		.byte	0
 6397 2518 29       		.uleb128 0x29
 6398 2519 043B0000 		.4byte	.LASF109
 6399 251d 13       		.byte	0x13
 6400 251e 6702     		.2byte	0x267
 6401 2520 E6000000 		.4byte	.LASF387
 6402 2524 2C000000 		.4byte	0x2c
 6403 2528 01       		.byte	0x1
 6404 2529 31250000 		.4byte	0x2531
 6405 252d 37250000 		.4byte	0x2537
 6406 2531 10       		.uleb128 0x10
 6407 2532 8A5B0000 		.4byte	0x5b8a
 6408 2536 00       		.byte	0
 6409 2537 2A       		.uleb128 0x2a
 6410 2538 71220000 		.4byte	.LASF182
 6411 253c 13       		.byte	0x13
 6412 253d 7602     		.2byte	0x276
 6413 253f 0A380000 		.4byte	.LASF388
 6414 2543 01       		.byte	0x1
 6415 2544 4C250000 		.4byte	0x254c
 6416 2548 57250000 		.4byte	0x2557
 6417 254c 10       		.uleb128 0x10
 6418 254d 905B0000 		.4byte	0x5b90
 6419 2551 0D       		.uleb128 0xd
 6420 2552 965B0000 		.4byte	0x5b96
 6421 2556 00       		.byte	0
 6422 2557 29       		.uleb128 0x29
 6423 2558 6A150000 		.4byte	.LASF184
 6424 255c 13       		.byte	0x13
 6425 255d 8002     		.2byte	0x280
 6426 255f B4430000 		.4byte	.LASF389
 6427 2563 5C4D0000 		.4byte	0x4d5c
 6428 2567 01       		.byte	0x1
 6429 2568 70250000 		.4byte	0x2570
 6430 256c 7B250000 		.4byte	0x257b
 6431 2570 10       		.uleb128 0x10
 6432 2571 905B0000 		.4byte	0x5b90
 6433 2575 0D       		.uleb128 0xd
 6434 2576 965B0000 		.4byte	0x5b96
 6435 257a 00       		.byte	0
 6436 257b 29       		.uleb128 0x29
 6437 257c 56400000 		.4byte	.LASF186
 6438 2580 13       		.byte	0x13
 6439 2581 8A02     		.2byte	0x28a
 6440 2583 DA110000 		.4byte	.LASF390
 6441 2587 25000000 		.4byte	0x25
 6442 258b 01       		.byte	0x1
 6443 258c 94250000 		.4byte	0x2594
 6444 2590 9F250000 		.4byte	0x259f
 6445 2594 10       		.uleb128 0x10
 6446 2595 8A5B0000 		.4byte	0x5b8a
 6447 2599 0D       		.uleb128 0xd
 6448 259a 645B0000 		.4byte	0x5b64
 6449 259e 00       		.byte	0
ARM GAS  /tmp/ccfWo18f.s 			page 115


 6450 259f 29       		.uleb128 0x29
 6451 25a0 3C290000 		.4byte	.LASF188
 6452 25a4 13       		.byte	0x13
 6453 25a5 9B02     		.2byte	0x29b
 6454 25a7 1B450000 		.4byte	.LASF391
 6455 25ab 5C4D0000 		.4byte	0x4d5c
 6456 25af 01       		.byte	0x1
 6457 25b0 B8250000 		.4byte	0x25b8
 6458 25b4 C3250000 		.4byte	0x25c3
 6459 25b8 10       		.uleb128 0x10
 6460 25b9 8A5B0000 		.4byte	0x5b8a
 6461 25bd 0D       		.uleb128 0xd
 6462 25be 645B0000 		.4byte	0x5b64
 6463 25c2 00       		.byte	0
 6464 25c3 29       		.uleb128 0x29
 6465 25c4 F2430000 		.4byte	.LASF190
 6466 25c8 13       		.byte	0x13
 6467 25c9 AC02     		.2byte	0x2ac
 6468 25cb 1A5D0000 		.4byte	.LASF392
 6469 25cf 9C5B0000 		.4byte	0x5b9c
 6470 25d3 01       		.byte	0x1
 6471 25d4 DC250000 		.4byte	0x25dc
 6472 25d8 E7250000 		.4byte	0x25e7
 6473 25dc 10       		.uleb128 0x10
 6474 25dd 8A5B0000 		.4byte	0x5b8a
 6475 25e1 0D       		.uleb128 0xd
 6476 25e2 A1220000 		.4byte	0x22a1
 6477 25e6 00       		.byte	0
 6478 25e7 29       		.uleb128 0x29
 6479 25e8 F2430000 		.4byte	.LASF190
 6480 25ec 13       		.byte	0x13
 6481 25ed BC02     		.2byte	0x2bc
 6482 25ef A9180000 		.4byte	.LASF393
 6483 25f3 9C5B0000 		.4byte	0x5b9c
 6484 25f7 01       		.byte	0x1
 6485 25f8 00260000 		.4byte	0x2600
 6486 25fc 10260000 		.4byte	0x2610
 6487 2600 10       		.uleb128 0x10
 6488 2601 8A5B0000 		.4byte	0x5b8a
 6489 2605 0D       		.uleb128 0xd
 6490 2606 AD220000 		.4byte	0x22ad
 6491 260a 0D       		.uleb128 0xd
 6492 260b 67520000 		.4byte	0x5267
 6493 260f 00       		.byte	0
 6494 2610 29       		.uleb128 0x29
 6495 2611 3C6E0000 		.4byte	.LASF193
 6496 2615 13       		.byte	0x13
 6497 2616 E001     		.2byte	0x1e0
 6498 2618 FF2F0000 		.4byte	.LASF394
 6499 261c 2F260000 		.4byte	0x262f
 6500 2620 01       		.byte	0x1
 6501 2621 29260000 		.4byte	0x2629
 6502 2625 2F260000 		.4byte	0x262f
 6503 2629 10       		.uleb128 0x10
 6504 262a 905B0000 		.4byte	0x5b90
 6505 262e 00       		.byte	0
 6506 262f 07       		.uleb128 0x7
ARM GAS  /tmp/ccfWo18f.s 			page 116


 6507 2630 2C210000 		.4byte	0x212c
 6508 2634 2B       		.uleb128 0x2b
 6509 2635 656E6400 		.ascii	"end\000"
 6510 2639 13       		.byte	0x13
 6511 263a E401     		.2byte	0x1e4
 6512 263c 002D0000 		.4byte	.LASF395
 6513 2640 2F260000 		.4byte	0x262f
 6514 2644 01       		.byte	0x1
 6515 2645 4D260000 		.4byte	0x264d
 6516 2649 53260000 		.4byte	0x2653
 6517 264d 10       		.uleb128 0x10
 6518 264e 905B0000 		.4byte	0x5b90
 6519 2652 00       		.byte	0
 6520 2653 2A       		.uleb128 0x2a
 6521 2654 11140000 		.4byte	.LASF195
 6522 2658 13       		.byte	0x13
 6523 2659 E801     		.2byte	0x1e8
 6524 265b F9360000 		.4byte	.LASF396
 6525 265f 01       		.byte	0x1
 6526 2660 68260000 		.4byte	0x2668
 6527 2664 73260000 		.4byte	0x2673
 6528 2668 10       		.uleb128 0x10
 6529 2669 905B0000 		.4byte	0x5b90
 6530 266d 0D       		.uleb128 0xd
 6531 266e AE5B0000 		.4byte	0x5bae
 6532 2672 00       		.byte	0
 6533 2673 29       		.uleb128 0x29
 6534 2674 3C6E0000 		.4byte	.LASF193
 6535 2678 13       		.byte	0x13
 6536 2679 EC01     		.2byte	0x1ec
 6537 267b 081A0000 		.4byte	.LASF397
 6538 267f 92260000 		.4byte	0x2692
 6539 2683 01       		.byte	0x1
 6540 2684 8C260000 		.4byte	0x268c
 6541 2688 92260000 		.4byte	0x2692
 6542 268c 10       		.uleb128 0x10
 6543 268d 8A5B0000 		.4byte	0x5b8a
 6544 2691 00       		.byte	0
 6545 2692 07       		.uleb128 0x7
 6546 2693 31210000 		.4byte	0x2131
 6547 2697 2B       		.uleb128 0x2b
 6548 2698 656E6400 		.ascii	"end\000"
 6549 269c 13       		.byte	0x13
 6550 269d F201     		.2byte	0x1f2
 6551 269f F66D0000 		.4byte	.LASF398
 6552 26a3 92260000 		.4byte	0x2692
 6553 26a7 01       		.byte	0x1
 6554 26a8 B0260000 		.4byte	0x26b0
 6555 26ac B6260000 		.4byte	0x26b6
 6556 26b0 10       		.uleb128 0x10
 6557 26b1 8A5B0000 		.4byte	0x5b8a
 6558 26b5 00       		.byte	0
 6559 26b6 2A       		.uleb128 0x2a
 6560 26b7 11140000 		.4byte	.LASF195
 6561 26bb 13       		.byte	0x13
 6562 26bc F601     		.2byte	0x1f6
 6563 26be DF610000 		.4byte	.LASF399
ARM GAS  /tmp/ccfWo18f.s 			page 117


 6564 26c2 01       		.byte	0x1
 6565 26c3 CB260000 		.4byte	0x26cb
 6566 26c7 D6260000 		.4byte	0x26d6
 6567 26cb 10       		.uleb128 0x10
 6568 26cc 8A5B0000 		.4byte	0x5b8a
 6569 26d0 0D       		.uleb128 0xd
 6570 26d1 B45B0000 		.4byte	0x5bb4
 6571 26d5 00       		.byte	0
 6572 26d6 2C       		.uleb128 0x2c
 6573 26d7 AF110000 		.4byte	.LASF201
 6574 26db 13       		.byte	0x13
 6575 26dc FA01     		.2byte	0x1fa
 6576 26de 905B0000 		.4byte	0x5b90
 6577 26e2 01       		.byte	0x1
 6578 26e3 EB260000 		.4byte	0x26eb
 6579 26e7 F1260000 		.4byte	0x26f1
 6580 26eb 10       		.uleb128 0x10
 6581 26ec 905B0000 		.4byte	0x5b90
 6582 26f0 00       		.byte	0
 6583 26f1 07       		.uleb128 0x7
 6584 26f2 1D210000 		.4byte	0x211d
 6585 26f6 24       		.uleb128 0x24
 6586 26f7 19260000 		.4byte	.LASF202
 6587 26fb 05270000 		.4byte	0x2705
 6588 26ff 00       		.byte	0
 6589 2700 07       		.uleb128 0x7
 6590 2701 05270000 		.4byte	0x2705
 6591 2705 26       		.uleb128 0x26
 6592 2706 D56B0000 		.4byte	.LASF400
 6593 270a 07       		.uleb128 0x7
 6594 270b BE200000 		.4byte	0x20be
 6595 270f 0E       		.uleb128 0xe
 6596 2710 035D0000 		.4byte	.LASF401
 6597 2714 04       		.byte	0x4
 6598 2715 13       		.byte	0x13
 6599 2716 0F       		.byte	0xf
 6600 2717 DC2B0000 		.4byte	0x2bdc
 6601 271b 13       		.uleb128 0x13
 6602 271c 79010000 		.4byte	0x179
 6603 2720 00       		.byte	0
 6604 2721 1C       		.uleb128 0x1c
 6605 2722 C7630000 		.4byte	.LASF139
 6606 2726 08       		.byte	0x8
 6607 2727 13       		.byte	0x13
 6608 2728 11       		.byte	0x11
 6609 2729 01       		.byte	0x1
 6610 272a 61270000 		.4byte	0x2761
 6611 272e 1D       		.uleb128 0x1d
 6612 272f DD320000 		.4byte	.LASF140
 6613 2733 13       		.byte	0x13
 6614 2734 12       		.byte	0x12
 6615 2735 BA5B0000 		.4byte	0x5bba
 6616 2739 00       		.byte	0
 6617 273a 1D       		.uleb128 0x1d
 6618 273b FE1B0000 		.4byte	.LASF141
 6619 273f 13       		.byte	0x13
 6620 2740 13       		.byte	0x13
ARM GAS  /tmp/ccfWo18f.s 			page 118


 6621 2741 2B5C0000 		.4byte	0x5c2b
 6622 2745 04       		.byte	0x4
 6623 2746 1F       		.uleb128 0x1f
 6624 2747 C7630000 		.4byte	.LASF139
 6625 274b 13       		.byte	0x13
 6626 274c 15       		.byte	0x15
 6627 274d BA5B0000 		.4byte	0x5bba
 6628 2751 55270000 		.4byte	0x2755
 6629 2755 10       		.uleb128 0x10
 6630 2756 BA5B0000 		.4byte	0x5bba
 6631 275a 0D       		.uleb128 0xd
 6632 275b 305C0000 		.4byte	0x5c30
 6633 275f 00       		.byte	0
 6634 2760 00       		.byte	0
 6635 2761 27       		.uleb128 0x27
 6636 2762 1B150000 		.4byte	.LASF110
 6637 2766 13       		.byte	0x13
 6638 2767 8A01     		.2byte	0x18a
 6639 2769 BA5B0000 		.4byte	0x5bba
 6640 276d 00       		.byte	0
 6641 276e 26       		.uleb128 0x26
 6642 276f 2E230000 		.4byte	.LASF143
 6643 2773 26       		.uleb128 0x26
 6644 2774 0C350000 		.4byte	.LASF144
 6645 2778 26       		.uleb128 0x26
 6646 2779 535C0000 		.4byte	.LASF145
 6647 277d 26       		.uleb128 0x26
 6648 277e 65450000 		.4byte	.LASF146
 6649 2782 28       		.uleb128 0x28
 6650 2783 A4430000 		.4byte	.LASF147
 6651 2787 13       		.byte	0x13
 6652 2788 8601     		.2byte	0x186
 6653 278a C05B0000 		.4byte	0x5bc0
 6654 278e 28       		.uleb128 0x28
 6655 278f 7E140000 		.4byte	.LASF148
 6656 2793 13       		.byte	0x13
 6657 2794 8701     		.2byte	0x187
 6658 2796 DB5B0000 		.4byte	0x5bdb
 6659 279a 29       		.uleb128 0x29
 6660 279b C86E0000 		.4byte	.LASF149
 6661 279f 13       		.byte	0x13
 6662 27a0 8D01     		.2byte	0x18d
 6663 27a2 683A0000 		.4byte	.LASF402
 6664 27a6 F55B0000 		.4byte	0x5bf5
 6665 27aa 01       		.byte	0x1
 6666 27ab B3270000 		.4byte	0x27b3
 6667 27af B9270000 		.4byte	0x27b9
 6668 27b3 10       		.uleb128 0x10
 6669 27b4 FB5B0000 		.4byte	0x5bfb
 6670 27b8 00       		.byte	0
 6671 27b9 07       		.uleb128 0x7
 6672 27ba 21270000 		.4byte	0x2721
 6673 27be 29       		.uleb128 0x29
 6674 27bf C23E0000 		.4byte	.LASF150
 6675 27c3 13       		.byte	0x13
 6676 27c4 9101     		.2byte	0x191
 6677 27c6 2F340000 		.4byte	.LASF403
ARM GAS  /tmp/ccfWo18f.s 			page 119


 6678 27ca 5C4D0000 		.4byte	0x4d5c
 6679 27ce 01       		.byte	0x1
 6680 27cf D7270000 		.4byte	0x27d7
 6681 27d3 DD270000 		.4byte	0x27dd
 6682 27d7 10       		.uleb128 0x10
 6683 27d8 FB5B0000 		.4byte	0x5bfb
 6684 27dc 00       		.byte	0
 6685 27dd 29       		.uleb128 0x29
 6686 27de 64220000 		.4byte	.LASF153
 6687 27e2 13       		.byte	0x13
 6688 27e3 0302     		.2byte	0x203
 6689 27e5 DF310000 		.4byte	.LASF404
 6690 27e9 2C000000 		.4byte	0x2c
 6691 27ed 01       		.byte	0x1
 6692 27ee F6270000 		.4byte	0x27f6
 6693 27f2 FC270000 		.4byte	0x27fc
 6694 27f6 10       		.uleb128 0x10
 6695 27f7 FB5B0000 		.4byte	0x5bfb
 6696 27fb 00       		.byte	0
 6697 27fc 2A       		.uleb128 0x2a
 6698 27fd EB500000 		.4byte	.LASF155
 6699 2801 13       		.byte	0x13
 6700 2802 9701     		.2byte	0x197
 6701 2804 C8560000 		.4byte	.LASF405
 6702 2808 01       		.byte	0x1
 6703 2809 11280000 		.4byte	0x2811
 6704 280d 1C280000 		.4byte	0x281c
 6705 2811 10       		.uleb128 0x10
 6706 2812 015C0000 		.4byte	0x5c01
 6707 2816 0D       		.uleb128 0xd
 6708 2817 075C0000 		.4byte	0x5c07
 6709 281b 00       		.byte	0
 6710 281c 2A       		.uleb128 0x2a
 6711 281d 7D5B0000 		.4byte	.LASF156
 6712 2821 13       		.byte	0x13
 6713 2822 9F01     		.2byte	0x19f
 6714 2824 20310000 		.4byte	.LASF406
 6715 2828 01       		.byte	0x1
 6716 2829 31280000 		.4byte	0x2831
 6717 282d 3C280000 		.4byte	0x283c
 6718 2831 10       		.uleb128 0x10
 6719 2832 015C0000 		.4byte	0x5c01
 6720 2836 0D       		.uleb128 0xd
 6721 2837 075C0000 		.4byte	0x5c07
 6722 283b 00       		.byte	0
 6723 283c 29       		.uleb128 0x29
 6724 283d AE2E0000 		.4byte	.LASF159
 6725 2841 13       		.byte	0x13
 6726 2842 0E02     		.2byte	0x20e
 6727 2844 6D240000 		.4byte	.LASF407
 6728 2848 5C4D0000 		.4byte	0x4d5c
 6729 284c 01       		.byte	0x1
 6730 284d 55280000 		.4byte	0x2855
 6731 2851 60280000 		.4byte	0x2860
 6732 2855 10       		.uleb128 0x10
 6733 2856 015C0000 		.4byte	0x5c01
 6734 285a 0D       		.uleb128 0xd
ARM GAS  /tmp/ccfWo18f.s 			page 120


 6735 285b 075C0000 		.4byte	0x5c07
 6736 285f 00       		.byte	0
 6737 2860 29       		.uleb128 0x29
 6738 2861 353E0000 		.4byte	.LASF161
 6739 2865 13       		.byte	0x13
 6740 2866 1F02     		.2byte	0x21f
 6741 2868 D35B0000 		.4byte	.LASF408
 6742 286c 25000000 		.4byte	0x25
 6743 2870 01       		.byte	0x1
 6744 2871 79280000 		.4byte	0x2879
 6745 2875 84280000 		.4byte	0x2884
 6746 2879 10       		.uleb128 0x10
 6747 287a FB5B0000 		.4byte	0x5bfb
 6748 287e 0D       		.uleb128 0xd
 6749 287f D55B0000 		.4byte	0x5bd5
 6750 2883 00       		.byte	0
 6751 2884 29       		.uleb128 0x29
 6752 2885 A1570000 		.4byte	.LASF163
 6753 2889 13       		.byte	0x13
 6754 288a 2C02     		.2byte	0x22c
 6755 288c 8B5E0000 		.4byte	.LASF409
 6756 2890 5C4D0000 		.4byte	0x4d5c
 6757 2894 01       		.byte	0x1
 6758 2895 9D280000 		.4byte	0x289d
 6759 2899 A8280000 		.4byte	0x28a8
 6760 289d 10       		.uleb128 0x10
 6761 289e FB5B0000 		.4byte	0x5bfb
 6762 28a2 0D       		.uleb128 0xd
 6763 28a3 D55B0000 		.4byte	0x5bd5
 6764 28a7 00       		.byte	0
 6765 28a8 29       		.uleb128 0x29
 6766 28a9 9C3A0000 		.4byte	.LASF165
 6767 28ad 13       		.byte	0x13
 6768 28ae 3802     		.2byte	0x238
 6769 28b0 E43D0000 		.4byte	.LASF410
 6770 28b4 0D5C0000 		.4byte	0x5c0d
 6771 28b8 01       		.byte	0x1
 6772 28b9 C1280000 		.4byte	0x28c1
 6773 28bd CC280000 		.4byte	0x28cc
 6774 28c1 10       		.uleb128 0x10
 6775 28c2 FB5B0000 		.4byte	0x5bfb
 6776 28c6 0D       		.uleb128 0xd
 6777 28c7 82270000 		.4byte	0x2782
 6778 28cb 00       		.byte	0
 6779 28cc 29       		.uleb128 0x29
 6780 28cd 9C3A0000 		.4byte	.LASF165
 6781 28d1 13       		.byte	0x13
 6782 28d2 4402     		.2byte	0x244
 6783 28d4 47300000 		.4byte	.LASF411
 6784 28d8 0D5C0000 		.4byte	0x5c0d
 6785 28dc 01       		.byte	0x1
 6786 28dd E5280000 		.4byte	0x28e5
 6787 28e1 F5280000 		.4byte	0x28f5
 6788 28e5 10       		.uleb128 0x10
 6789 28e6 FB5B0000 		.4byte	0x5bfb
 6790 28ea 0D       		.uleb128 0xd
 6791 28eb 8E270000 		.4byte	0x278e
ARM GAS  /tmp/ccfWo18f.s 			page 121


 6792 28ef 0D       		.uleb128 0xd
 6793 28f0 67520000 		.4byte	0x5267
 6794 28f4 00       		.byte	0
 6795 28f5 29       		.uleb128 0x29
 6796 28f6 7B110000 		.4byte	.LASF168
 6797 28fa 13       		.byte	0x13
 6798 28fb B301     		.2byte	0x1b3
 6799 28fd 19050000 		.4byte	.LASF412
 6800 2901 14290000 		.4byte	0x2914
 6801 2905 01       		.byte	0x1
 6802 2906 0E290000 		.4byte	0x290e
 6803 290a 14290000 		.4byte	0x2914
 6804 290e 10       		.uleb128 0x10
 6805 290f 015C0000 		.4byte	0x5c01
 6806 2913 00       		.byte	0
 6807 2914 07       		.uleb128 0x7
 6808 2915 6E270000 		.4byte	0x276e
 6809 2919 29       		.uleb128 0x29
 6810 291a EE360000 		.4byte	.LASF170
 6811 291e 13       		.byte	0x13
 6812 291f B701     		.2byte	0x1b7
 6813 2921 AF300000 		.4byte	.LASF413
 6814 2925 14290000 		.4byte	0x2914
 6815 2929 01       		.byte	0x1
 6816 292a 32290000 		.4byte	0x2932
 6817 292e 38290000 		.4byte	0x2938
 6818 2932 10       		.uleb128 0x10
 6819 2933 015C0000 		.4byte	0x5c01
 6820 2937 00       		.byte	0
 6821 2938 2A       		.uleb128 0x2a
 6822 2939 026F0000 		.4byte	.LASF172
 6823 293d 13       		.byte	0x13
 6824 293e BB01     		.2byte	0x1bb
 6825 2940 E4150000 		.4byte	.LASF414
 6826 2944 01       		.byte	0x1
 6827 2945 4D290000 		.4byte	0x294d
 6828 2949 58290000 		.4byte	0x2958
 6829 294d 10       		.uleb128 0x10
 6830 294e 015C0000 		.4byte	0x5c01
 6831 2952 0D       		.uleb128 0xd
 6832 2953 135C0000 		.4byte	0x5c13
 6833 2957 00       		.byte	0
 6834 2958 29       		.uleb128 0x29
 6835 2959 7B110000 		.4byte	.LASF168
 6836 295d 13       		.byte	0x13
 6837 295e BF01     		.2byte	0x1bf
 6838 2960 681B0000 		.4byte	.LASF415
 6839 2964 77290000 		.4byte	0x2977
 6840 2968 01       		.byte	0x1
 6841 2969 71290000 		.4byte	0x2971
 6842 296d 77290000 		.4byte	0x2977
 6843 2971 10       		.uleb128 0x10
 6844 2972 FB5B0000 		.4byte	0x5bfb
 6845 2976 00       		.byte	0
 6846 2977 07       		.uleb128 0x7
 6847 2978 73270000 		.4byte	0x2773
 6848 297c 29       		.uleb128 0x29
ARM GAS  /tmp/ccfWo18f.s 			page 122


 6849 297d EE360000 		.4byte	.LASF170
 6850 2981 13       		.byte	0x13
 6851 2982 C301     		.2byte	0x1c3
 6852 2984 0A580000 		.4byte	.LASF416
 6853 2988 77290000 		.4byte	0x2977
 6854 298c 01       		.byte	0x1
 6855 298d 95290000 		.4byte	0x2995
 6856 2991 9B290000 		.4byte	0x299b
 6857 2995 10       		.uleb128 0x10
 6858 2996 FB5B0000 		.4byte	0x5bfb
 6859 299a 00       		.byte	0
 6860 299b 2A       		.uleb128 0x2a
 6861 299c 026F0000 		.4byte	.LASF172
 6862 29a0 13       		.byte	0x13
 6863 29a1 C701     		.2byte	0x1c7
 6864 29a3 9A120000 		.4byte	.LASF417
 6865 29a7 01       		.byte	0x1
 6866 29a8 B0290000 		.4byte	0x29b0
 6867 29ac BB290000 		.4byte	0x29bb
 6868 29b0 10       		.uleb128 0x10
 6869 29b1 FB5B0000 		.4byte	0x5bfb
 6870 29b5 0D       		.uleb128 0xd
 6871 29b6 195C0000 		.4byte	0x5c19
 6872 29ba 00       		.byte	0
 6873 29bb 29       		.uleb128 0x29
 6874 29bc 30640000 		.4byte	.LASF177
 6875 29c0 13       		.byte	0x13
 6876 29c1 5302     		.2byte	0x253
 6877 29c3 6C4D0000 		.4byte	.LASF418
 6878 29c7 F55B0000 		.4byte	0x5bf5
 6879 29cb 01       		.byte	0x1
 6880 29cc D4290000 		.4byte	0x29d4
 6881 29d0 DA290000 		.4byte	0x29da
 6882 29d4 10       		.uleb128 0x10
 6883 29d5 FB5B0000 		.4byte	0x5bfb
 6884 29d9 00       		.byte	0
 6885 29da 29       		.uleb128 0x29
 6886 29db D94E0000 		.4byte	.LASF179
 6887 29df 13       		.byte	0x13
 6888 29e0 5D02     		.2byte	0x25d
 6889 29e2 CA040000 		.4byte	.LASF419
 6890 29e6 5C4D0000 		.4byte	0x4d5c
 6891 29ea 01       		.byte	0x1
 6892 29eb F3290000 		.4byte	0x29f3
 6893 29ef F9290000 		.4byte	0x29f9
 6894 29f3 10       		.uleb128 0x10
 6895 29f4 FB5B0000 		.4byte	0x5bfb
 6896 29f8 00       		.byte	0
 6897 29f9 29       		.uleb128 0x29
 6898 29fa 043B0000 		.4byte	.LASF109
 6899 29fe 13       		.byte	0x13
 6900 29ff 6702     		.2byte	0x267
 6901 2a01 BD000000 		.4byte	.LASF420
 6902 2a05 2C000000 		.4byte	0x2c
 6903 2a09 01       		.byte	0x1
 6904 2a0a 122A0000 		.4byte	0x2a12
 6905 2a0e 182A0000 		.4byte	0x2a18
ARM GAS  /tmp/ccfWo18f.s 			page 123


 6906 2a12 10       		.uleb128 0x10
 6907 2a13 FB5B0000 		.4byte	0x5bfb
 6908 2a17 00       		.byte	0
 6909 2a18 2A       		.uleb128 0x2a
 6910 2a19 71220000 		.4byte	.LASF182
 6911 2a1d 13       		.byte	0x13
 6912 2a1e 7602     		.2byte	0x276
 6913 2a20 A4230000 		.4byte	.LASF421
 6914 2a24 01       		.byte	0x1
 6915 2a25 2D2A0000 		.4byte	0x2a2d
 6916 2a29 382A0000 		.4byte	0x2a38
 6917 2a2d 10       		.uleb128 0x10
 6918 2a2e 015C0000 		.4byte	0x5c01
 6919 2a32 0D       		.uleb128 0xd
 6920 2a33 075C0000 		.4byte	0x5c07
 6921 2a37 00       		.byte	0
 6922 2a38 29       		.uleb128 0x29
 6923 2a39 6A150000 		.4byte	.LASF184
 6924 2a3d 13       		.byte	0x13
 6925 2a3e 8002     		.2byte	0x280
 6926 2a40 5E3D0000 		.4byte	.LASF422
 6927 2a44 5C4D0000 		.4byte	0x4d5c
 6928 2a48 01       		.byte	0x1
 6929 2a49 512A0000 		.4byte	0x2a51
 6930 2a4d 5C2A0000 		.4byte	0x2a5c
 6931 2a51 10       		.uleb128 0x10
 6932 2a52 015C0000 		.4byte	0x5c01
 6933 2a56 0D       		.uleb128 0xd
 6934 2a57 075C0000 		.4byte	0x5c07
 6935 2a5b 00       		.byte	0
 6936 2a5c 29       		.uleb128 0x29
 6937 2a5d 56400000 		.4byte	.LASF186
 6938 2a61 13       		.byte	0x13
 6939 2a62 8A02     		.2byte	0x28a
 6940 2a64 58070000 		.4byte	.LASF423
 6941 2a68 25000000 		.4byte	0x25
 6942 2a6c 01       		.byte	0x1
 6943 2a6d 752A0000 		.4byte	0x2a75
 6944 2a71 802A0000 		.4byte	0x2a80
 6945 2a75 10       		.uleb128 0x10
 6946 2a76 FB5B0000 		.4byte	0x5bfb
 6947 2a7a 0D       		.uleb128 0xd
 6948 2a7b D55B0000 		.4byte	0x5bd5
 6949 2a7f 00       		.byte	0
 6950 2a80 29       		.uleb128 0x29
 6951 2a81 3C290000 		.4byte	.LASF188
 6952 2a85 13       		.byte	0x13
 6953 2a86 9B02     		.2byte	0x29b
 6954 2a88 12100000 		.4byte	.LASF424
 6955 2a8c 5C4D0000 		.4byte	0x4d5c
 6956 2a90 01       		.byte	0x1
 6957 2a91 992A0000 		.4byte	0x2a99
 6958 2a95 A42A0000 		.4byte	0x2aa4
 6959 2a99 10       		.uleb128 0x10
 6960 2a9a FB5B0000 		.4byte	0x5bfb
 6961 2a9e 0D       		.uleb128 0xd
 6962 2a9f D55B0000 		.4byte	0x5bd5
ARM GAS  /tmp/ccfWo18f.s 			page 124


 6963 2aa3 00       		.byte	0
 6964 2aa4 29       		.uleb128 0x29
 6965 2aa5 F2430000 		.4byte	.LASF190
 6966 2aa9 13       		.byte	0x13
 6967 2aaa AC02     		.2byte	0x2ac
 6968 2aac 3C330000 		.4byte	.LASF425
 6969 2ab0 0D5C0000 		.4byte	0x5c0d
 6970 2ab4 01       		.byte	0x1
 6971 2ab5 BD2A0000 		.4byte	0x2abd
 6972 2ab9 C82A0000 		.4byte	0x2ac8
 6973 2abd 10       		.uleb128 0x10
 6974 2abe FB5B0000 		.4byte	0x5bfb
 6975 2ac2 0D       		.uleb128 0xd
 6976 2ac3 82270000 		.4byte	0x2782
 6977 2ac7 00       		.byte	0
 6978 2ac8 29       		.uleb128 0x29
 6979 2ac9 F2430000 		.4byte	.LASF190
 6980 2acd 13       		.byte	0x13
 6981 2ace BC02     		.2byte	0x2bc
 6982 2ad0 F7490000 		.4byte	.LASF426
 6983 2ad4 0D5C0000 		.4byte	0x5c0d
 6984 2ad8 01       		.byte	0x1
 6985 2ad9 E12A0000 		.4byte	0x2ae1
 6986 2add F12A0000 		.4byte	0x2af1
 6987 2ae1 10       		.uleb128 0x10
 6988 2ae2 FB5B0000 		.4byte	0x5bfb
 6989 2ae6 0D       		.uleb128 0xd
 6990 2ae7 8E270000 		.4byte	0x278e
 6991 2aeb 0D       		.uleb128 0xd
 6992 2aec 67520000 		.4byte	0x5267
 6993 2af0 00       		.byte	0
 6994 2af1 29       		.uleb128 0x29
 6995 2af2 3C6E0000 		.4byte	.LASF193
 6996 2af6 13       		.byte	0x13
 6997 2af7 E001     		.2byte	0x1e0
 6998 2af9 5B3C0000 		.4byte	.LASF427
 6999 2afd 102B0000 		.4byte	0x2b10
 7000 2b01 01       		.byte	0x1
 7001 2b02 0A2B0000 		.4byte	0x2b0a
 7002 2b06 102B0000 		.4byte	0x2b10
 7003 2b0a 10       		.uleb128 0x10
 7004 2b0b 015C0000 		.4byte	0x5c01
 7005 2b0f 00       		.byte	0
 7006 2b10 07       		.uleb128 0x7
 7007 2b11 78270000 		.4byte	0x2778
 7008 2b15 2B       		.uleb128 0x2b
 7009 2b16 656E6400 		.ascii	"end\000"
 7010 2b1a 13       		.byte	0x13
 7011 2b1b E401     		.2byte	0x1e4
 7012 2b1d EC270000 		.4byte	.LASF428
 7013 2b21 102B0000 		.4byte	0x2b10
 7014 2b25 01       		.byte	0x1
 7015 2b26 2E2B0000 		.4byte	0x2b2e
 7016 2b2a 342B0000 		.4byte	0x2b34
 7017 2b2e 10       		.uleb128 0x10
 7018 2b2f 015C0000 		.4byte	0x5c01
 7019 2b33 00       		.byte	0
ARM GAS  /tmp/ccfWo18f.s 			page 125


 7020 2b34 2A       		.uleb128 0x2a
 7021 2b35 11140000 		.4byte	.LASF195
 7022 2b39 13       		.byte	0x13
 7023 2b3a E801     		.2byte	0x1e8
 7024 2b3c 82520000 		.4byte	.LASF429
 7025 2b40 01       		.byte	0x1
 7026 2b41 492B0000 		.4byte	0x2b49
 7027 2b45 542B0000 		.4byte	0x2b54
 7028 2b49 10       		.uleb128 0x10
 7029 2b4a 015C0000 		.4byte	0x5c01
 7030 2b4e 0D       		.uleb128 0xd
 7031 2b4f 1F5C0000 		.4byte	0x5c1f
 7032 2b53 00       		.byte	0
 7033 2b54 29       		.uleb128 0x29
 7034 2b55 3C6E0000 		.4byte	.LASF193
 7035 2b59 13       		.byte	0x13
 7036 2b5a EC01     		.2byte	0x1ec
 7037 2b5c 8D410000 		.4byte	.LASF430
 7038 2b60 732B0000 		.4byte	0x2b73
 7039 2b64 01       		.byte	0x1
 7040 2b65 6D2B0000 		.4byte	0x2b6d
 7041 2b69 732B0000 		.4byte	0x2b73
 7042 2b6d 10       		.uleb128 0x10
 7043 2b6e FB5B0000 		.4byte	0x5bfb
 7044 2b72 00       		.byte	0
 7045 2b73 07       		.uleb128 0x7
 7046 2b74 7D270000 		.4byte	0x277d
 7047 2b78 2B       		.uleb128 0x2b
 7048 2b79 656E6400 		.ascii	"end\000"
 7049 2b7d 13       		.byte	0x13
 7050 2b7e F201     		.2byte	0x1f2
 7051 2b80 09640000 		.4byte	.LASF431
 7052 2b84 732B0000 		.4byte	0x2b73
 7053 2b88 01       		.byte	0x1
 7054 2b89 912B0000 		.4byte	0x2b91
 7055 2b8d 972B0000 		.4byte	0x2b97
 7056 2b91 10       		.uleb128 0x10
 7057 2b92 FB5B0000 		.4byte	0x5bfb
 7058 2b96 00       		.byte	0
 7059 2b97 2A       		.uleb128 0x2a
 7060 2b98 11140000 		.4byte	.LASF195
 7061 2b9c 13       		.byte	0x13
 7062 2b9d F601     		.2byte	0x1f6
 7063 2b9f C45C0000 		.4byte	.LASF432
 7064 2ba3 01       		.byte	0x1
 7065 2ba4 AC2B0000 		.4byte	0x2bac
 7066 2ba8 B72B0000 		.4byte	0x2bb7
 7067 2bac 10       		.uleb128 0x10
 7068 2bad FB5B0000 		.4byte	0x5bfb
 7069 2bb1 0D       		.uleb128 0xd
 7070 2bb2 255C0000 		.4byte	0x5c25
 7071 2bb6 00       		.byte	0
 7072 2bb7 2C       		.uleb128 0x2c
 7073 2bb8 AF110000 		.4byte	.LASF201
 7074 2bbc 13       		.byte	0x13
 7075 2bbd FA01     		.2byte	0x1fa
 7076 2bbf 015C0000 		.4byte	0x5c01
ARM GAS  /tmp/ccfWo18f.s 			page 126


 7077 2bc3 01       		.byte	0x1
 7078 2bc4 CC2B0000 		.4byte	0x2bcc
 7079 2bc8 D22B0000 		.4byte	0x2bd2
 7080 2bcc 10       		.uleb128 0x10
 7081 2bcd 015C0000 		.4byte	0x5c01
 7082 2bd1 00       		.byte	0
 7083 2bd2 24       		.uleb128 0x24
 7084 2bd3 19260000 		.4byte	.LASF202
 7085 2bd7 E12B0000 		.4byte	0x2be1
 7086 2bdb 00       		.byte	0
 7087 2bdc 07       		.uleb128 0x7
 7088 2bdd E12B0000 		.4byte	0x2be1
 7089 2be1 0E       		.uleb128 0xe
 7090 2be2 F11C0000 		.4byte	.LASF433
 7091 2be6 30       		.byte	0x30
 7092 2be7 0A       		.byte	0xa
 7093 2be8 17       		.byte	0x17
 7094 2be9 7E310000 		.4byte	0x317e
 7095 2bed 13       		.uleb128 0x13
 7096 2bee 79010000 		.4byte	0x179
 7097 2bf2 00       		.byte	0
 7098 2bf3 1D       		.uleb128 0x1d
 7099 2bf4 23220000 		.4byte	.LASF434
 7100 2bf8 0A       		.byte	0xa
 7101 2bf9 1B       		.byte	0x1b
 7102 2bfa 365C0000 		.4byte	0x5c36
 7103 2bfe 00       		.byte	0
 7104 2bff 1D       		.uleb128 0x1d
 7105 2c00 B86C0000 		.4byte	.LASF435
 7106 2c04 0A       		.byte	0xa
 7107 2c05 1C       		.byte	0x1c
 7108 2c06 66020000 		.4byte	0x266
 7109 2c0a 04       		.byte	0x4
 7110 2c0b 1D       		.uleb128 0x1d
 7111 2c0c 6A280000 		.4byte	.LASF436
 7112 2c10 0A       		.byte	0xa
 7113 2c11 1D       		.byte	0x1d
 7114 2c12 6A1D0000 		.4byte	0x1d6a
 7115 2c16 08       		.byte	0x8
 7116 2c17 1D       		.uleb128 0x1d
 7117 2c18 D5650000 		.4byte	.LASF437
 7118 2c1c 0A       		.byte	0xa
 7119 2c1d 1E       		.byte	0x1e
 7120 2c1e 2C000000 		.4byte	0x2c
 7121 2c22 14       		.byte	0x14
 7122 2c23 1D       		.uleb128 0x1d
 7123 2c24 C7100000 		.4byte	.LASF438
 7124 2c28 0A       		.byte	0xa
 7125 2c29 1F       		.byte	0x1f
 7126 2c2a 2C000000 		.4byte	0x2c
 7127 2c2e 18       		.byte	0x18
 7128 2c2f 1D       		.uleb128 0x1d
 7129 2c30 E32F0000 		.4byte	.LASF439
 7130 2c34 0A       		.byte	0xa
 7131 2c35 20       		.byte	0x20
 7132 2c36 BE200000 		.4byte	0x20be
 7133 2c3a 1C       		.byte	0x1c
ARM GAS  /tmp/ccfWo18f.s 			page 127


 7134 2c3b 1D       		.uleb128 0x1d
 7135 2c3c 1B2E0000 		.4byte	.LASF440
 7136 2c40 0A       		.byte	0xa
 7137 2c41 21       		.byte	0x21
 7138 2c42 590B0000 		.4byte	0xb59
 7139 2c46 20       		.byte	0x20
 7140 2c47 1D       		.uleb128 0x1d
 7141 2c48 434A0000 		.4byte	.LASF441
 7142 2c4c 0A       		.byte	0xa
 7143 2c4d 22       		.byte	0x22
 7144 2c4e 2C000000 		.4byte	0x2c
 7145 2c52 24       		.byte	0x24
 7146 2c53 1D       		.uleb128 0x1d
 7147 2c54 F75F0000 		.4byte	.LASF442
 7148 2c58 0A       		.byte	0xa
 7149 2c59 27       		.byte	0x27
 7150 2c5a 21270000 		.4byte	0x2721
 7151 2c5e 28       		.byte	0x28
 7152 2c5f 18       		.uleb128 0x18
 7153 2c60 09420000 		.4byte	.LASF301
 7154 2c64 0A       		.byte	0xa
 7155 2c65 2A       		.byte	0x2a
 7156 2c66 2A410000 		.4byte	.LASF443
 7157 2c6a C3000000 		.4byte	0xc3
 7158 2c6e 01       		.byte	0x1
 7159 2c6f 772C0000 		.4byte	0x2c77
 7160 2c73 7D2C0000 		.4byte	0x2c7d
 7161 2c77 10       		.uleb128 0x10
 7162 2c78 3B5C0000 		.4byte	0x5c3b
 7163 2c7c 00       		.byte	0
 7164 2c7d 18       		.uleb128 0x18
 7165 2c7e 9A640000 		.4byte	.LASF444
 7166 2c82 0A       		.byte	0xa
 7167 2c83 2B       		.byte	0x2b
 7168 2c84 29620000 		.4byte	.LASF445
 7169 2c88 87520000 		.4byte	0x5287
 7170 2c8c 01       		.byte	0x1
 7171 2c8d 952C0000 		.4byte	0x2c95
 7172 2c91 9B2C0000 		.4byte	0x2c9b
 7173 2c95 10       		.uleb128 0x10
 7174 2c96 3B5C0000 		.4byte	0x5c3b
 7175 2c9a 00       		.byte	0
 7176 2c9b 18       		.uleb128 0x18
 7177 2c9c 4D610000 		.4byte	.LASF103
 7178 2ca0 0A       		.byte	0xa
 7179 2ca1 2C       		.byte	0x2c
 7180 2ca2 BA110000 		.4byte	.LASF446
 7181 2ca6 2C000000 		.4byte	0x2c
 7182 2caa 01       		.byte	0x1
 7183 2cab B32C0000 		.4byte	0x2cb3
 7184 2caf B92C0000 		.4byte	0x2cb9
 7185 2cb3 10       		.uleb128 0x10
 7186 2cb4 3B5C0000 		.4byte	0x5c3b
 7187 2cb8 00       		.byte	0
 7188 2cb9 18       		.uleb128 0x18
 7189 2cba 96690000 		.4byte	.LASF101
 7190 2cbe 0A       		.byte	0xa
ARM GAS  /tmp/ccfWo18f.s 			page 128


 7191 2cbf 2D       		.byte	0x2d
 7192 2cc0 34530000 		.4byte	.LASF447
 7193 2cc4 2C000000 		.4byte	0x2c
 7194 2cc8 01       		.byte	0x1
 7195 2cc9 D12C0000 		.4byte	0x2cd1
 7196 2ccd D72C0000 		.4byte	0x2cd7
 7197 2cd1 10       		.uleb128 0x10
 7198 2cd2 3B5C0000 		.4byte	0x5c3b
 7199 2cd6 00       		.byte	0
 7200 2cd7 18       		.uleb128 0x18
 7201 2cd8 A71C0000 		.4byte	.LASF448
 7202 2cdc 0A       		.byte	0xa
 7203 2cdd 2E       		.byte	0x2e
 7204 2cde D1600000 		.4byte	.LASF449
 7205 2ce2 2C000000 		.4byte	0x2c
 7206 2ce6 01       		.byte	0x1
 7207 2ce7 EF2C0000 		.4byte	0x2cef
 7208 2ceb F52C0000 		.4byte	0x2cf5
 7209 2cef 10       		.uleb128 0x10
 7210 2cf0 3B5C0000 		.4byte	0x5c3b
 7211 2cf4 00       		.byte	0
 7212 2cf5 18       		.uleb128 0x18
 7213 2cf6 EB260000 		.4byte	.LASF450
 7214 2cfa 0A       		.byte	0xa
 7215 2cfb 2F       		.byte	0x2f
 7216 2cfc 83000000 		.4byte	.LASF451
 7217 2d00 5C4D0000 		.4byte	0x4d5c
 7218 2d04 01       		.byte	0x1
 7219 2d05 0D2D0000 		.4byte	0x2d0d
 7220 2d09 132D0000 		.4byte	0x2d13
 7221 2d0d 10       		.uleb128 0x10
 7222 2d0e 3B5C0000 		.4byte	0x5c3b
 7223 2d12 00       		.byte	0
 7224 2d13 18       		.uleb128 0x18
 7225 2d14 F5370000 		.4byte	.LASF452
 7226 2d18 0A       		.byte	0xa
 7227 2d19 31       		.byte	0x31
 7228 2d1a EE620000 		.4byte	.LASF453
 7229 2d1e 5C4D0000 		.4byte	0x4d5c
 7230 2d22 01       		.byte	0x1
 7231 2d23 2B2D0000 		.4byte	0x2d2b
 7232 2d27 312D0000 		.4byte	0x2d31
 7233 2d2b 10       		.uleb128 0x10
 7234 2d2c 3B5C0000 		.4byte	0x5c3b
 7235 2d30 00       		.byte	0
 7236 2d31 18       		.uleb128 0x18
 7237 2d32 A1080000 		.4byte	.LASF454
 7238 2d36 0A       		.byte	0xa
 7239 2d37 32       		.byte	0x32
 7240 2d38 E3320000 		.4byte	.LASF455
 7241 2d3c 5C4D0000 		.4byte	0x4d5c
 7242 2d40 01       		.byte	0x1
 7243 2d41 492D0000 		.4byte	0x2d49
 7244 2d45 4F2D0000 		.4byte	0x2d4f
 7245 2d49 10       		.uleb128 0x10
 7246 2d4a 3B5C0000 		.4byte	0x5c3b
 7247 2d4e 00       		.byte	0
ARM GAS  /tmp/ccfWo18f.s 			page 129


 7248 2d4f 18       		.uleb128 0x18
 7249 2d50 662E0000 		.4byte	.LASF456
 7250 2d54 0A       		.byte	0xa
 7251 2d55 33       		.byte	0x33
 7252 2d56 E04C0000 		.4byte	.LASF457
 7253 2d5a 5C4D0000 		.4byte	0x4d5c
 7254 2d5e 01       		.byte	0x1
 7255 2d5f 672D0000 		.4byte	0x2d67
 7256 2d63 6D2D0000 		.4byte	0x2d6d
 7257 2d67 10       		.uleb128 0x10
 7258 2d68 3B5C0000 		.4byte	0x5c3b
 7259 2d6c 00       		.byte	0
 7260 2d6d 18       		.uleb128 0x18
 7261 2d6e 913D0000 		.4byte	.LASF458
 7262 2d72 0A       		.byte	0xa
 7263 2d73 34       		.byte	0x34
 7264 2d74 42420000 		.4byte	.LASF459
 7265 2d78 5C4D0000 		.4byte	0x4d5c
 7266 2d7c 01       		.byte	0x1
 7267 2d7d 852D0000 		.4byte	0x2d85
 7268 2d81 8B2D0000 		.4byte	0x2d8b
 7269 2d85 10       		.uleb128 0x10
 7270 2d86 3B5C0000 		.4byte	0x5c3b
 7271 2d8a 00       		.byte	0
 7272 2d8b 18       		.uleb128 0x18
 7273 2d8c BD690000 		.4byte	.LASF460
 7274 2d90 0A       		.byte	0xa
 7275 2d91 35       		.byte	0x35
 7276 2d92 9E100000 		.4byte	.LASF461
 7277 2d96 5C4D0000 		.4byte	0x4d5c
 7278 2d9a 01       		.byte	0x1
 7279 2d9b A32D0000 		.4byte	0x2da3
 7280 2d9f A92D0000 		.4byte	0x2da9
 7281 2da3 10       		.uleb128 0x10
 7282 2da4 3B5C0000 		.4byte	0x5c3b
 7283 2da8 00       		.byte	0
 7284 2da9 18       		.uleb128 0x18
 7285 2daa B9280000 		.4byte	.LASF462
 7286 2dae 0A       		.byte	0xa
 7287 2daf 36       		.byte	0x36
 7288 2db0 88110000 		.4byte	.LASF463
 7289 2db4 5C4D0000 		.4byte	0x4d5c
 7290 2db8 01       		.byte	0x1
 7291 2db9 C12D0000 		.4byte	0x2dc1
 7292 2dbd C72D0000 		.4byte	0x2dc7
 7293 2dc1 10       		.uleb128 0x10
 7294 2dc2 3B5C0000 		.4byte	0x5c3b
 7295 2dc6 00       		.byte	0
 7296 2dc7 18       		.uleb128 0x18
 7297 2dc8 46550000 		.4byte	.LASF464
 7298 2dcc 0A       		.byte	0xa
 7299 2dcd 37       		.byte	0x37
 7300 2dce 84620000 		.4byte	.LASF465
 7301 2dd2 5C4D0000 		.4byte	0x4d5c
 7302 2dd6 01       		.byte	0x1
 7303 2dd7 DF2D0000 		.4byte	0x2ddf
 7304 2ddb E52D0000 		.4byte	0x2de5
ARM GAS  /tmp/ccfWo18f.s 			page 130


 7305 2ddf 10       		.uleb128 0x10
 7306 2de0 3B5C0000 		.4byte	0x5c3b
 7307 2de4 00       		.byte	0
 7308 2de5 18       		.uleb128 0x18
 7309 2de6 00360000 		.4byte	.LASF466
 7310 2dea 0A       		.byte	0xa
 7311 2deb 38       		.byte	0x38
 7312 2dec 48560000 		.4byte	.LASF467
 7313 2df0 5C4D0000 		.4byte	0x4d5c
 7314 2df4 01       		.byte	0x1
 7315 2df5 FD2D0000 		.4byte	0x2dfd
 7316 2df9 032E0000 		.4byte	0x2e03
 7317 2dfd 10       		.uleb128 0x10
 7318 2dfe 3B5C0000 		.4byte	0x5c3b
 7319 2e02 00       		.byte	0
 7320 2e03 18       		.uleb128 0x18
 7321 2e04 7B4A0000 		.4byte	.LASF468
 7322 2e08 0A       		.byte	0xa
 7323 2e09 3A       		.byte	0x3a
 7324 2e0a CD2E0000 		.4byte	.LASF469
 7325 2e0e EC040000 		.4byte	0x4ec
 7326 2e12 01       		.byte	0x1
 7327 2e13 1B2E0000 		.4byte	0x2e1b
 7328 2e17 262E0000 		.4byte	0x2e26
 7329 2e1b 10       		.uleb128 0x10
 7330 2e1c 3B5C0000 		.4byte	0x5c3b
 7331 2e20 0D       		.uleb128 0xd
 7332 2e21 87520000 		.4byte	0x5287
 7333 2e25 00       		.byte	0
 7334 2e26 18       		.uleb128 0x18
 7335 2e27 7B4A0000 		.4byte	.LASF468
 7336 2e2b 0A       		.byte	0xa
 7337 2e2c 3B       		.byte	0x3b
 7338 2e2d 63410000 		.4byte	.LASF470
 7339 2e31 EC040000 		.4byte	0x4ec
 7340 2e35 01       		.byte	0x1
 7341 2e36 3E2E0000 		.4byte	0x2e3e
 7342 2e3a 442E0000 		.4byte	0x2e44
 7343 2e3e 10       		.uleb128 0x10
 7344 2e3f 3B5C0000 		.4byte	0x5c3b
 7345 2e43 00       		.byte	0
 7346 2e44 18       		.uleb128 0x18
 7347 2e45 0F2F0000 		.4byte	.LASF330
 7348 2e49 0A       		.byte	0xa
 7349 2e4a 3C       		.byte	0x3c
 7350 2e4b A1450000 		.4byte	.LASF471
 7351 2e4f 8D520000 		.4byte	0x528d
 7352 2e53 01       		.byte	0x1
 7353 2e54 5C2E0000 		.4byte	0x2e5c
 7354 2e58 622E0000 		.4byte	0x2e62
 7355 2e5c 10       		.uleb128 0x10
 7356 2e5d 0D5C0000 		.4byte	0x5c0d
 7357 2e61 00       		.byte	0
 7358 2e62 18       		.uleb128 0x18
 7359 2e63 7E2D0000 		.4byte	.LASF90
 7360 2e67 0A       		.byte	0xa
 7361 2e68 3E       		.byte	0x3e
ARM GAS  /tmp/ccfWo18f.s 			page 131


 7362 2e69 1F120000 		.4byte	.LASF472
 7363 2e6d 5C4D0000 		.4byte	0x4d5c
 7364 2e71 01       		.byte	0x1
 7365 2e72 7A2E0000 		.4byte	0x2e7a
 7366 2e76 852E0000 		.4byte	0x2e85
 7367 2e7a 10       		.uleb128 0x10
 7368 2e7b 0D5C0000 		.4byte	0x5c0d
 7369 2e7f 0D       		.uleb128 0xd
 7370 2e80 C8530000 		.4byte	0x53c8
 7371 2e84 00       		.byte	0
 7372 2e85 20       		.uleb128 0x20
 7373 2e86 F1170000 		.4byte	.LASF332
 7374 2e8a 0A       		.byte	0xa
 7375 2e8b 3F       		.byte	0x3f
 7376 2e8c E5460000 		.4byte	.LASF473
 7377 2e90 01       		.byte	0x1
 7378 2e91 992E0000 		.4byte	0x2e99
 7379 2e95 A42E0000 		.4byte	0x2ea4
 7380 2e99 10       		.uleb128 0x10
 7381 2e9a 0D5C0000 		.4byte	0x5c0d
 7382 2e9e 0D       		.uleb128 0xd
 7383 2e9f C8530000 		.4byte	0x53c8
 7384 2ea3 00       		.byte	0
 7385 2ea4 18       		.uleb128 0x18
 7386 2ea5 5C4F0000 		.4byte	.LASF474
 7387 2ea9 0A       		.byte	0xa
 7388 2eaa 40       		.byte	0x40
 7389 2eab 4D3B0000 		.4byte	.LASF475
 7390 2eaf 5C4D0000 		.4byte	0x4d5c
 7391 2eb3 01       		.byte	0x1
 7392 2eb4 BC2E0000 		.4byte	0x2ebc
 7393 2eb8 CC2E0000 		.4byte	0x2ecc
 7394 2ebc 10       		.uleb128 0x10
 7395 2ebd 0D5C0000 		.4byte	0x5c0d
 7396 2ec1 0D       		.uleb128 0xd
 7397 2ec2 C8530000 		.4byte	0x53c8
 7398 2ec6 0D       		.uleb128 0xd
 7399 2ec7 87520000 		.4byte	0x5287
 7400 2ecb 00       		.byte	0
 7401 2ecc 18       		.uleb128 0x18
 7402 2ecd A7690000 		.4byte	.LASF476
 7403 2ed1 0A       		.byte	0xa
 7404 2ed2 41       		.byte	0x41
 7405 2ed3 67480000 		.4byte	.LASF477
 7406 2ed7 5C4D0000 		.4byte	0x4d5c
 7407 2edb 01       		.byte	0x1
 7408 2edc E42E0000 		.4byte	0x2ee4
 7409 2ee0 F42E0000 		.4byte	0x2ef4
 7410 2ee4 10       		.uleb128 0x10
 7411 2ee5 0D5C0000 		.4byte	0x5c0d
 7412 2ee9 0D       		.uleb128 0xd
 7413 2eea C8530000 		.4byte	0x53c8
 7414 2eee 0D       		.uleb128 0xd
 7415 2eef 87520000 		.4byte	0x5287
 7416 2ef3 00       		.byte	0
 7417 2ef4 18       		.uleb128 0x18
 7418 2ef5 AF0D0000 		.4byte	.LASF478
ARM GAS  /tmp/ccfWo18f.s 			page 132


 7419 2ef9 0A       		.byte	0xa
 7420 2efa 42       		.byte	0x42
 7421 2efb 05670000 		.4byte	.LASF479
 7422 2eff 5C4D0000 		.4byte	0x4d5c
 7423 2f03 01       		.byte	0x1
 7424 2f04 0C2F0000 		.4byte	0x2f0c
 7425 2f08 1C2F0000 		.4byte	0x2f1c
 7426 2f0c 10       		.uleb128 0x10
 7427 2f0d 0D5C0000 		.4byte	0x5c0d
 7428 2f11 0D       		.uleb128 0xd
 7429 2f12 CE530000 		.4byte	0x53ce
 7430 2f16 0D       		.uleb128 0xd
 7431 2f17 87520000 		.4byte	0x5287
 7432 2f1b 00       		.byte	0
 7433 2f1c 18       		.uleb128 0x18
 7434 2f1d ED2D0000 		.4byte	.LASF480
 7435 2f21 0A       		.byte	0xa
 7436 2f22 45       		.byte	0x45
 7437 2f23 D6590000 		.4byte	.LASF481
 7438 2f27 EC040000 		.4byte	0x4ec
 7439 2f2b 01       		.byte	0x1
 7440 2f2c 342F0000 		.4byte	0x2f34
 7441 2f30 3F2F0000 		.4byte	0x2f3f
 7442 2f34 10       		.uleb128 0x10
 7443 2f35 3B5C0000 		.4byte	0x5c3b
 7444 2f39 0D       		.uleb128 0xd
 7445 2f3a 87520000 		.4byte	0x5287
 7446 2f3e 00       		.byte	0
 7447 2f3f 18       		.uleb128 0x18
 7448 2f40 ED2D0000 		.4byte	.LASF480
 7449 2f44 0A       		.byte	0xa
 7450 2f45 46       		.byte	0x46
 7451 2f46 312D0000 		.4byte	.LASF482
 7452 2f4a EC040000 		.4byte	0x4ec
 7453 2f4e 01       		.byte	0x1
 7454 2f4f 572F0000 		.4byte	0x2f57
 7455 2f53 5D2F0000 		.4byte	0x2f5d
 7456 2f57 10       		.uleb128 0x10
 7457 2f58 3B5C0000 		.4byte	0x5c3b
 7458 2f5c 00       		.byte	0
 7459 2f5d 18       		.uleb128 0x18
 7460 2f5e AE430000 		.4byte	.LASF334
 7461 2f62 0A       		.byte	0xa
 7462 2f63 47       		.byte	0x47
 7463 2f64 05150000 		.4byte	.LASF483
 7464 2f68 8D520000 		.4byte	0x528d
 7465 2f6c 01       		.byte	0x1
 7466 2f6d 752F0000 		.4byte	0x2f75
 7467 2f71 7B2F0000 		.4byte	0x2f7b
 7468 2f75 10       		.uleb128 0x10
 7469 2f76 0D5C0000 		.4byte	0x5c0d
 7470 2f7a 00       		.byte	0
 7471 2f7b 18       		.uleb128 0x18
 7472 2f7c 44540000 		.4byte	.LASF25
 7473 2f80 0A       		.byte	0xa
 7474 2f81 49       		.byte	0x49
 7475 2f82 8B300000 		.4byte	.LASF484
ARM GAS  /tmp/ccfWo18f.s 			page 133


 7476 2f86 5C4D0000 		.4byte	0x4d5c
 7477 2f8a 01       		.byte	0x1
 7478 2f8b 932F0000 		.4byte	0x2f93
 7479 2f8f 9E2F0000 		.4byte	0x2f9e
 7480 2f93 10       		.uleb128 0x10
 7481 2f94 0D5C0000 		.4byte	0x5c0d
 7482 2f98 0D       		.uleb128 0xd
 7483 2f99 C8530000 		.4byte	0x53c8
 7484 2f9d 00       		.byte	0
 7485 2f9e 20       		.uleb128 0x20
 7486 2f9f AA110000 		.4byte	.LASF336
 7487 2fa3 0A       		.byte	0xa
 7488 2fa4 4A       		.byte	0x4a
 7489 2fa5 2F460000 		.4byte	.LASF485
 7490 2fa9 01       		.byte	0x1
 7491 2faa B22F0000 		.4byte	0x2fb2
 7492 2fae BD2F0000 		.4byte	0x2fbd
 7493 2fb2 10       		.uleb128 0x10
 7494 2fb3 0D5C0000 		.4byte	0x5c0d
 7495 2fb7 0D       		.uleb128 0xd
 7496 2fb8 C8530000 		.4byte	0x53c8
 7497 2fbc 00       		.byte	0
 7498 2fbd 18       		.uleb128 0x18
 7499 2fbe EA650000 		.4byte	.LASF486
 7500 2fc2 0A       		.byte	0xa
 7501 2fc3 4B       		.byte	0x4b
 7502 2fc4 1C3C0000 		.4byte	.LASF487
 7503 2fc8 5C4D0000 		.4byte	0x4d5c
 7504 2fcc 01       		.byte	0x1
 7505 2fcd D52F0000 		.4byte	0x2fd5
 7506 2fd1 E52F0000 		.4byte	0x2fe5
 7507 2fd5 10       		.uleb128 0x10
 7508 2fd6 0D5C0000 		.4byte	0x5c0d
 7509 2fda 0D       		.uleb128 0xd
 7510 2fdb C8530000 		.4byte	0x53c8
 7511 2fdf 0D       		.uleb128 0xd
 7512 2fe0 87520000 		.4byte	0x5287
 7513 2fe4 00       		.byte	0
 7514 2fe5 18       		.uleb128 0x18
 7515 2fe6 131D0000 		.4byte	.LASF488
 7516 2fea 0A       		.byte	0xa
 7517 2feb 4C       		.byte	0x4c
 7518 2fec B5270000 		.4byte	.LASF489
 7519 2ff0 5C4D0000 		.4byte	0x4d5c
 7520 2ff4 01       		.byte	0x1
 7521 2ff5 FD2F0000 		.4byte	0x2ffd
 7522 2ff9 0D300000 		.4byte	0x300d
 7523 2ffd 10       		.uleb128 0x10
 7524 2ffe 0D5C0000 		.4byte	0x5c0d
 7525 3002 0D       		.uleb128 0xd
 7526 3003 C8530000 		.4byte	0x53c8
 7527 3007 0D       		.uleb128 0xd
 7528 3008 87520000 		.4byte	0x5287
 7529 300c 00       		.byte	0
 7530 300d 18       		.uleb128 0x18
 7531 300e 49050000 		.4byte	.LASF490
 7532 3012 0A       		.byte	0xa
ARM GAS  /tmp/ccfWo18f.s 			page 134


 7533 3013 4D       		.byte	0x4d
 7534 3014 196A0000 		.4byte	.LASF491
 7535 3018 5C4D0000 		.4byte	0x4d5c
 7536 301c 01       		.byte	0x1
 7537 301d 25300000 		.4byte	0x3025
 7538 3021 35300000 		.4byte	0x3035
 7539 3025 10       		.uleb128 0x10
 7540 3026 0D5C0000 		.4byte	0x5c0d
 7541 302a 0D       		.uleb128 0xd
 7542 302b CE530000 		.4byte	0x53ce
 7543 302f 0D       		.uleb128 0xd
 7544 3030 87520000 		.4byte	0x5287
 7545 3034 00       		.byte	0
 7546 3035 20       		.uleb128 0x20
 7547 3036 6B090000 		.4byte	.LASF492
 7548 303a 0A       		.byte	0xa
 7549 303b 4E       		.byte	0x4e
 7550 303c C1500000 		.4byte	.LASF493
 7551 3040 01       		.byte	0x1
 7552 3041 49300000 		.4byte	0x3049
 7553 3045 59300000 		.4byte	0x3059
 7554 3049 10       		.uleb128 0x10
 7555 304a 0D5C0000 		.4byte	0x5c0d
 7556 304e 0D       		.uleb128 0xd
 7557 304f 8D520000 		.4byte	0x528d
 7558 3053 0D       		.uleb128 0xd
 7559 3054 2C000000 		.4byte	0x2c
 7560 3058 00       		.byte	0
 7561 3059 20       		.uleb128 0x20
 7562 305a B2500000 		.4byte	.LASF494
 7563 305e 0A       		.byte	0xa
 7564 305f 50       		.byte	0x50
 7565 3060 8E0C0000 		.4byte	.LASF495
 7566 3064 01       		.byte	0x1
 7567 3065 6D300000 		.4byte	0x306d
 7568 3069 7D300000 		.4byte	0x307d
 7569 306d 10       		.uleb128 0x10
 7570 306e 0D5C0000 		.4byte	0x5c0d
 7571 3072 0D       		.uleb128 0xd
 7572 3073 415C0000 		.4byte	0x5c41
 7573 3077 0D       		.uleb128 0xd
 7574 3078 87520000 		.4byte	0x5287
 7575 307c 00       		.byte	0
 7576 307d 20       		.uleb128 0x20
 7577 307e B2500000 		.4byte	.LASF494
 7578 3082 0A       		.byte	0xa
 7579 3083 51       		.byte	0x51
 7580 3084 056C0000 		.4byte	.LASF496
 7581 3088 01       		.byte	0x1
 7582 3089 91300000 		.4byte	0x3091
 7583 308d A1300000 		.4byte	0x30a1
 7584 3091 10       		.uleb128 0x10
 7585 3092 0D5C0000 		.4byte	0x5c0d
 7586 3096 0D       		.uleb128 0xd
 7587 3097 475C0000 		.4byte	0x5c47
 7588 309b 0D       		.uleb128 0xd
 7589 309c 87520000 		.4byte	0x5287
ARM GAS  /tmp/ccfWo18f.s 			page 135


 7590 30a0 00       		.byte	0
 7591 30a1 20       		.uleb128 0x20
 7592 30a2 0F6A0000 		.4byte	.LASF497
 7593 30a6 0A       		.byte	0xa
 7594 30a7 52       		.byte	0x52
 7595 30a8 00000000 		.4byte	.LASF498
 7596 30ac 01       		.byte	0x1
 7597 30ad B5300000 		.4byte	0x30b5
 7598 30b1 C5300000 		.4byte	0x30c5
 7599 30b5 10       		.uleb128 0x10
 7600 30b6 0D5C0000 		.4byte	0x5c0d
 7601 30ba 0D       		.uleb128 0xd
 7602 30bb 4D5C0000 		.4byte	0x5c4d
 7603 30bf 0D       		.uleb128 0xd
 7604 30c0 2C000000 		.4byte	0x2c
 7605 30c4 00       		.byte	0
 7606 30c5 20       		.uleb128 0x20
 7607 30c6 0F6A0000 		.4byte	.LASF497
 7608 30ca 0A       		.byte	0xa
 7609 30cb 53       		.byte	0x53
 7610 30cc 5C510000 		.4byte	.LASF499
 7611 30d0 01       		.byte	0x1
 7612 30d1 D9300000 		.4byte	0x30d9
 7613 30d5 E9300000 		.4byte	0x30e9
 7614 30d9 10       		.uleb128 0x10
 7615 30da 0D5C0000 		.4byte	0x5c0d
 7616 30de 0D       		.uleb128 0xd
 7617 30df 535C0000 		.4byte	0x5c53
 7618 30e3 0D       		.uleb128 0xd
 7619 30e4 2C000000 		.4byte	0x2c
 7620 30e8 00       		.byte	0
 7621 30e9 3D       		.uleb128 0x3d
 7622 30ea CC410000 		.4byte	.LASF500
 7623 30ee 0A       		.byte	0xa
 7624 30ef 56       		.byte	0x56
 7625 30f0 63580000 		.4byte	.LASF501
 7626 30f4 FC300000 		.4byte	0x30fc
 7627 30f8 0C310000 		.4byte	0x310c
 7628 30fc 10       		.uleb128 0x10
 7629 30fd 3B5C0000 		.4byte	0x5c3b
 7630 3101 0D       		.uleb128 0xd
 7631 3102 C8530000 		.4byte	0x53c8
 7632 3106 0D       		.uleb128 0xd
 7633 3107 BC530000 		.4byte	0x53bc
 7634 310b 00       		.byte	0
 7635 310c 11       		.uleb128 0x11
 7636 310d F11C0000 		.4byte	.LASF433
 7637 3111 0A       		.byte	0xa
 7638 3112 59       		.byte	0x59
 7639 3113 0D5C0000 		.4byte	0x5c0d
 7640 3117 01       		.byte	0x1
 7641 3118 20310000 		.4byte	0x3120
 7642 311c 35310000 		.4byte	0x3135
 7643 3120 10       		.uleb128 0x10
 7644 3121 0D5C0000 		.4byte	0x5c0d
 7645 3125 0D       		.uleb128 0xd
 7646 3126 C3000000 		.4byte	0xc3
ARM GAS  /tmp/ccfWo18f.s 			page 136


 7647 312a 0D       		.uleb128 0xd
 7648 312b 2C000000 		.4byte	0x2c
 7649 312f 0D       		.uleb128 0xd
 7650 3130 5C4D0000 		.4byte	0x4d5c
 7651 3134 00       		.byte	0
 7652 3135 22       		.uleb128 0x22
 7653 3136 04560000 		.4byte	.LASF502
 7654 313a 0A       		.byte	0xa
 7655 313b 5D       		.byte	0x5d
 7656 313c A7250000 		.4byte	.LASF503
 7657 3140 5C4D0000 		.4byte	0x4d5c
 7658 3144 01       		.byte	0x1
 7659 3145 54310000 		.4byte	0x3154
 7660 3149 0D       		.uleb128 0xd
 7661 314a D55B0000 		.4byte	0x5bd5
 7662 314e 0D       		.uleb128 0xd
 7663 314f C3000000 		.4byte	0xc3
 7664 3153 00       		.byte	0
 7665 3154 3E       		.uleb128 0x3e
 7666 3155 15230000 		.4byte	.LASF504
 7667 3159 0A       		.byte	0xa
 7668 315a 3101     		.2byte	0x131
 7669 315c C52D0000 		.4byte	.LASF505
 7670 3160 5C4D0000 		.4byte	0x4d5c
 7671 3164 01       		.byte	0x1
 7672 3165 72310000 		.4byte	0x3172
 7673 3169 24       		.uleb128 0x24
 7674 316a CF130000 		.4byte	.LASF506
 7675 316e 95060000 		.4byte	0x695
 7676 3172 10       		.uleb128 0x10
 7677 3173 0D5C0000 		.4byte	0x5c0d
 7678 3177 0D       		.uleb128 0xd
 7679 3178 CF5C0000 		.4byte	0x5ccf
 7680 317c 00       		.byte	0
 7681 317d 00       		.byte	0
 7682 317e 07       		.uleb128 0x7
 7683 317f 0F270000 		.4byte	0x270f
 7684 3183 26       		.uleb128 0x26
 7685 3184 C0130000 		.4byte	.LASF507
 7686 3188 0E       		.uleb128 0xe
 7687 3189 A1010000 		.4byte	.LASF508
 7688 318d 04       		.byte	0x4
 7689 318e 13       		.byte	0x13
 7690 318f 0F       		.byte	0xf
 7691 3190 CA370000 		.4byte	0x37ca
 7692 3194 13       		.uleb128 0x13
 7693 3195 79010000 		.4byte	0x179
 7694 3199 00       		.byte	0
 7695 319a 1C       		.uleb128 0x1c
 7696 319b C7630000 		.4byte	.LASF139
 7697 319f 08       		.byte	0x8
 7698 31a0 13       		.byte	0x13
 7699 31a1 11       		.byte	0x11
 7700 31a2 01       		.byte	0x1
 7701 31a3 DA310000 		.4byte	0x31da
 7702 31a7 1D       		.uleb128 0x1d
 7703 31a8 DD320000 		.4byte	.LASF140
ARM GAS  /tmp/ccfWo18f.s 			page 137


 7704 31ac 13       		.byte	0x13
 7705 31ad 12       		.byte	0x12
 7706 31ae 595C0000 		.4byte	0x5c59
 7707 31b2 00       		.byte	0
 7708 31b3 1D       		.uleb128 0x1d
 7709 31b4 FE1B0000 		.4byte	.LASF141
 7710 31b8 13       		.byte	0x13
 7711 31b9 13       		.byte	0x13
 7712 31ba CA5C0000 		.4byte	0x5cca
 7713 31be 04       		.byte	0x4
 7714 31bf 1F       		.uleb128 0x1f
 7715 31c0 C7630000 		.4byte	.LASF139
 7716 31c4 13       		.byte	0x13
 7717 31c5 15       		.byte	0x15
 7718 31c6 595C0000 		.4byte	0x5c59
 7719 31ca CE310000 		.4byte	0x31ce
 7720 31ce 10       		.uleb128 0x10
 7721 31cf 595C0000 		.4byte	0x5c59
 7722 31d3 0D       		.uleb128 0xd
 7723 31d4 415C0000 		.4byte	0x5c41
 7724 31d8 00       		.byte	0
 7725 31d9 00       		.byte	0
 7726 31da 27       		.uleb128 0x27
 7727 31db 1B150000 		.4byte	.LASF110
 7728 31df 13       		.byte	0x13
 7729 31e0 8A01     		.2byte	0x18a
 7730 31e2 595C0000 		.4byte	0x5c59
 7731 31e6 00       		.byte	0
 7732 31e7 3B       		.uleb128 0x3b
 7733 31e8 552E0000 		.4byte	.LASF509
 7734 31ec 26       		.uleb128 0x26
 7735 31ed 2E230000 		.4byte	.LASF143
 7736 31f1 26       		.uleb128 0x26
 7737 31f2 0C350000 		.4byte	.LASF144
 7738 31f6 26       		.uleb128 0x26
 7739 31f7 535C0000 		.4byte	.LASF145
 7740 31fb 3C       		.uleb128 0x3c
 7741 31fc 65450000 		.4byte	.LASF146
 7742 3200 04       		.byte	0x4
 7743 3201 13       		.byte	0x13
 7744 3202 C0       		.byte	0xc0
 7745 3203 01       		.byte	0x1
 7746 3204 6B330000 		.4byte	0x336b
 7747 3208 1D       		.uleb128 0x1d
 7748 3209 2B160000 		.4byte	.LASF354
 7749 320d 13       		.byte	0x13
 7750 320e C4       		.byte	0xc4
 7751 320f CC5D0000 		.4byte	0x5dcc
 7752 3213 00       		.byte	0
 7753 3214 11       		.uleb128 0x11
 7754 3215 65450000 		.4byte	.LASF146
 7755 3219 13       		.byte	0x13
 7756 321a C7       		.byte	0xc7
 7757 321b D25D0000 		.4byte	0x5dd2
 7758 321f 01       		.byte	0x1
 7759 3220 28320000 		.4byte	0x3228
 7760 3224 2E320000 		.4byte	0x322e
ARM GAS  /tmp/ccfWo18f.s 			page 138


 7761 3228 10       		.uleb128 0x10
 7762 3229 D25D0000 		.4byte	0x5dd2
 7763 322d 00       		.byte	0
 7764 322e 11       		.uleb128 0x11
 7765 322f 65450000 		.4byte	.LASF146
 7766 3233 13       		.byte	0x13
 7767 3234 C8       		.byte	0xc8
 7768 3235 D25D0000 		.4byte	0x5dd2
 7769 3239 01       		.byte	0x1
 7770 323a 42320000 		.4byte	0x3242
 7771 323e 4D320000 		.4byte	0x324d
 7772 3242 10       		.uleb128 0x10
 7773 3243 D25D0000 		.4byte	0x5dd2
 7774 3247 0D       		.uleb128 0xd
 7775 3248 D85D0000 		.4byte	0x5dd8
 7776 324c 00       		.byte	0
 7777 324d 0F       		.uleb128 0xf
 7778 324e 65450000 		.4byte	.LASF146
 7779 3252 13       		.byte	0x13
 7780 3253 CB       		.byte	0xcb
 7781 3254 D25D0000 		.4byte	0x5dd2
 7782 3258 60320000 		.4byte	0x3260
 7783 325c 6B320000 		.4byte	0x326b
 7784 3260 10       		.uleb128 0x10
 7785 3261 D25D0000 		.4byte	0x5dd2
 7786 3265 0D       		.uleb128 0xd
 7787 3266 CC5D0000 		.4byte	0x5dcc
 7788 326a 00       		.byte	0
 7789 326b 1E       		.uleb128 0x1e
 7790 326c B6150000 		.4byte	.LASF51
 7791 3270 13       		.byte	0x13
 7792 3271 CE       		.byte	0xce
 7793 3272 92020000 		.4byte	.LASF510
 7794 3276 C45C0000 		.4byte	0x5cc4
 7795 327a 82320000 		.4byte	0x3282
 7796 327e 8D320000 		.4byte	0x328d
 7797 3282 10       		.uleb128 0x10
 7798 3283 D25D0000 		.4byte	0x5dd2
 7799 3287 0D       		.uleb128 0xd
 7800 3288 D85D0000 		.4byte	0x5dd8
 7801 328c 00       		.byte	0
 7802 328d 18       		.uleb128 0x18
 7803 328e 164C0000 		.4byte	.LASF356
 7804 3292 13       		.byte	0x13
 7805 3293 D4       		.byte	0xd4
 7806 3294 8A560000 		.4byte	.LASF511
 7807 3298 DE5D0000 		.4byte	0x5dde
 7808 329c 01       		.byte	0x1
 7809 329d A5320000 		.4byte	0x32a5
 7810 32a1 AB320000 		.4byte	0x32ab
 7811 32a5 10       		.uleb128 0x10
 7812 32a6 E45D0000 		.4byte	0x5de4
 7813 32aa 00       		.byte	0
 7814 32ab 18       		.uleb128 0x18
 7815 32ac 71150000 		.4byte	.LASF358
 7816 32b0 13       		.byte	0x13
 7817 32b1 D8       		.byte	0xd8
ARM GAS  /tmp/ccfWo18f.s 			page 139


 7818 32b2 5A2B0000 		.4byte	.LASF512
 7819 32b6 745C0000 		.4byte	0x5c74
 7820 32ba 01       		.byte	0x1
 7821 32bb C3320000 		.4byte	0x32c3
 7822 32bf C9320000 		.4byte	0x32c9
 7823 32c3 10       		.uleb128 0x10
 7824 32c4 E45D0000 		.4byte	0x5de4
 7825 32c8 00       		.byte	0
 7826 32c9 18       		.uleb128 0x18
 7827 32ca 704A0000 		.4byte	.LASF360
 7828 32ce 13       		.byte	0x13
 7829 32cf DC       		.byte	0xdc
 7830 32d0 0D5B0000 		.4byte	.LASF513
 7831 32d4 C45C0000 		.4byte	0x5cc4
 7832 32d8 01       		.byte	0x1
 7833 32d9 E1320000 		.4byte	0x32e1
 7834 32dd E7320000 		.4byte	0x32e7
 7835 32e1 10       		.uleb128 0x10
 7836 32e2 D25D0000 		.4byte	0x5dd2
 7837 32e6 00       		.byte	0
 7838 32e7 18       		.uleb128 0x18
 7839 32e8 704A0000 		.4byte	.LASF360
 7840 32ec 13       		.byte	0x13
 7841 32ed E3       		.byte	0xe3
 7842 32ee A05A0000 		.4byte	.LASF514
 7843 32f2 5C370000 		.4byte	0x375c
 7844 32f6 01       		.byte	0x1
 7845 32f7 FF320000 		.4byte	0x32ff
 7846 32fb 0A330000 		.4byte	0x330a
 7847 32ff 10       		.uleb128 0x10
 7848 3300 D25D0000 		.4byte	0x5dd2
 7849 3304 0D       		.uleb128 0xd
 7850 3305 25000000 		.4byte	0x25
 7851 3309 00       		.byte	0
 7852 330a 18       		.uleb128 0x18
 7853 330b FA6B0000 		.4byte	.LASF363
 7854 330f 13       		.byte	0x13
 7855 3310 EB       		.byte	0xeb
 7856 3311 1F630000 		.4byte	.LASF515
 7857 3315 5C4D0000 		.4byte	0x4d5c
 7858 3319 01       		.byte	0x1
 7859 331a 22330000 		.4byte	0x3322
 7860 331e 2D330000 		.4byte	0x332d
 7861 3322 10       		.uleb128 0x10
 7862 3323 E45D0000 		.4byte	0x5de4
 7863 3327 0D       		.uleb128 0xd
 7864 3328 D85D0000 		.4byte	0x5dd8
 7865 332c 00       		.byte	0
 7866 332d 18       		.uleb128 0x18
 7867 332e E3360000 		.4byte	.LASF365
 7868 3332 13       		.byte	0x13
 7869 3333 EF       		.byte	0xef
 7870 3334 6C1E0000 		.4byte	.LASF516
 7871 3338 5C4D0000 		.4byte	0x4d5c
 7872 333c 01       		.byte	0x1
 7873 333d 45330000 		.4byte	0x3345
 7874 3341 50330000 		.4byte	0x3350
ARM GAS  /tmp/ccfWo18f.s 			page 140


 7875 3345 10       		.uleb128 0x10
 7876 3346 E45D0000 		.4byte	0x5de4
 7877 334a 0D       		.uleb128 0xd
 7878 334b D85D0000 		.4byte	0x5dd8
 7879 334f 00       		.byte	0
 7880 3350 2E       		.uleb128 0x2e
 7881 3351 BE490000 		.4byte	.LASF367
 7882 3355 13       		.byte	0x13
 7883 3356 F3       		.byte	0xf3
 7884 3357 11660000 		.4byte	.LASF517
 7885 335b 5C4D0000 		.4byte	0x4d5c
 7886 335f 01       		.byte	0x1
 7887 3360 64330000 		.4byte	0x3364
 7888 3364 10       		.uleb128 0x10
 7889 3365 E45D0000 		.4byte	0x5de4
 7890 3369 00       		.byte	0
 7891 336a 00       		.byte	0
 7892 336b 28       		.uleb128 0x28
 7893 336c A4430000 		.4byte	.LASF147
 7894 3370 13       		.byte	0x13
 7895 3371 8601     		.2byte	0x186
 7896 3373 5F5C0000 		.4byte	0x5c5f
 7897 3377 28       		.uleb128 0x28
 7898 3378 7E140000 		.4byte	.LASF148
 7899 337c 13       		.byte	0x13
 7900 337d 8701     		.2byte	0x187
 7901 337f 7A5C0000 		.4byte	0x5c7a
 7902 3383 29       		.uleb128 0x29
 7903 3384 C86E0000 		.4byte	.LASF149
 7904 3388 13       		.byte	0x13
 7905 3389 8D01     		.2byte	0x18d
 7906 338b DC3E0000 		.4byte	.LASF518
 7907 338f 945C0000 		.4byte	0x5c94
 7908 3393 01       		.byte	0x1
 7909 3394 9C330000 		.4byte	0x339c
 7910 3398 A2330000 		.4byte	0x33a2
 7911 339c 10       		.uleb128 0x10
 7912 339d 9A5C0000 		.4byte	0x5c9a
 7913 33a1 00       		.byte	0
 7914 33a2 07       		.uleb128 0x7
 7915 33a3 9A310000 		.4byte	0x319a
 7916 33a7 29       		.uleb128 0x29
 7917 33a8 C23E0000 		.4byte	.LASF150
 7918 33ac 13       		.byte	0x13
 7919 33ad 9101     		.2byte	0x191
 7920 33af 08550000 		.4byte	.LASF519
 7921 33b3 5C4D0000 		.4byte	0x4d5c
 7922 33b7 01       		.byte	0x1
 7923 33b8 C0330000 		.4byte	0x33c0
 7924 33bc C6330000 		.4byte	0x33c6
 7925 33c0 10       		.uleb128 0x10
 7926 33c1 9A5C0000 		.4byte	0x5c9a
 7927 33c5 00       		.byte	0
 7928 33c6 29       		.uleb128 0x29
 7929 33c7 64220000 		.4byte	.LASF153
 7930 33cb 13       		.byte	0x13
 7931 33cc 0302     		.2byte	0x203
ARM GAS  /tmp/ccfWo18f.s 			page 141


 7932 33ce 884C0000 		.4byte	.LASF520
 7933 33d2 2C000000 		.4byte	0x2c
 7934 33d6 01       		.byte	0x1
 7935 33d7 DF330000 		.4byte	0x33df
 7936 33db E5330000 		.4byte	0x33e5
 7937 33df 10       		.uleb128 0x10
 7938 33e0 9A5C0000 		.4byte	0x5c9a
 7939 33e4 00       		.byte	0
 7940 33e5 2A       		.uleb128 0x2a
 7941 33e6 EB500000 		.4byte	.LASF155
 7942 33ea 13       		.byte	0x13
 7943 33eb 9701     		.2byte	0x197
 7944 33ed 372F0000 		.4byte	.LASF521
 7945 33f1 01       		.byte	0x1
 7946 33f2 FA330000 		.4byte	0x33fa
 7947 33f6 05340000 		.4byte	0x3405
 7948 33fa 10       		.uleb128 0x10
 7949 33fb A05C0000 		.4byte	0x5ca0
 7950 33ff 0D       		.uleb128 0xd
 7951 3400 A65C0000 		.4byte	0x5ca6
 7952 3404 00       		.byte	0
 7953 3405 2A       		.uleb128 0x2a
 7954 3406 7D5B0000 		.4byte	.LASF156
 7955 340a 13       		.byte	0x13
 7956 340b 9F01     		.2byte	0x19f
 7957 340d CD0D0000 		.4byte	.LASF522
 7958 3411 01       		.byte	0x1
 7959 3412 1A340000 		.4byte	0x341a
 7960 3416 25340000 		.4byte	0x3425
 7961 341a 10       		.uleb128 0x10
 7962 341b A05C0000 		.4byte	0x5ca0
 7963 341f 0D       		.uleb128 0xd
 7964 3420 A65C0000 		.4byte	0x5ca6
 7965 3424 00       		.byte	0
 7966 3425 29       		.uleb128 0x29
 7967 3426 AE2E0000 		.4byte	.LASF159
 7968 342a 13       		.byte	0x13
 7969 342b 0E02     		.2byte	0x20e
 7970 342d D4250000 		.4byte	.LASF523
 7971 3431 5C4D0000 		.4byte	0x4d5c
 7972 3435 01       		.byte	0x1
 7973 3436 3E340000 		.4byte	0x343e
 7974 343a 49340000 		.4byte	0x3449
 7975 343e 10       		.uleb128 0x10
 7976 343f A05C0000 		.4byte	0x5ca0
 7977 3443 0D       		.uleb128 0xd
 7978 3444 A65C0000 		.4byte	0x5ca6
 7979 3448 00       		.byte	0
 7980 3449 29       		.uleb128 0x29
 7981 344a 353E0000 		.4byte	.LASF161
 7982 344e 13       		.byte	0x13
 7983 344f 1F02     		.2byte	0x21f
 7984 3451 68460000 		.4byte	.LASF524
 7985 3455 25000000 		.4byte	0x25
 7986 3459 01       		.byte	0x1
 7987 345a 62340000 		.4byte	0x3462
 7988 345e 6D340000 		.4byte	0x346d
ARM GAS  /tmp/ccfWo18f.s 			page 142


 7989 3462 10       		.uleb128 0x10
 7990 3463 9A5C0000 		.4byte	0x5c9a
 7991 3467 0D       		.uleb128 0xd
 7992 3468 745C0000 		.4byte	0x5c74
 7993 346c 00       		.byte	0
 7994 346d 29       		.uleb128 0x29
 7995 346e A1570000 		.4byte	.LASF163
 7996 3472 13       		.byte	0x13
 7997 3473 2C02     		.2byte	0x22c
 7998 3475 77160000 		.4byte	.LASF525
 7999 3479 5C4D0000 		.4byte	0x4d5c
 8000 347d 01       		.byte	0x1
 8001 347e 86340000 		.4byte	0x3486
 8002 3482 91340000 		.4byte	0x3491
 8003 3486 10       		.uleb128 0x10
 8004 3487 9A5C0000 		.4byte	0x5c9a
 8005 348b 0D       		.uleb128 0xd
 8006 348c 745C0000 		.4byte	0x5c74
 8007 3490 00       		.byte	0
 8008 3491 29       		.uleb128 0x29
 8009 3492 9C3A0000 		.4byte	.LASF165
 8010 3496 13       		.byte	0x13
 8011 3497 3802     		.2byte	0x238
 8012 3499 6B490000 		.4byte	.LASF526
 8013 349d AC5C0000 		.4byte	0x5cac
 8014 34a1 01       		.byte	0x1
 8015 34a2 AA340000 		.4byte	0x34aa
 8016 34a6 B5340000 		.4byte	0x34b5
 8017 34aa 10       		.uleb128 0x10
 8018 34ab 9A5C0000 		.4byte	0x5c9a
 8019 34af 0D       		.uleb128 0xd
 8020 34b0 6B330000 		.4byte	0x336b
 8021 34b4 00       		.byte	0
 8022 34b5 29       		.uleb128 0x29
 8023 34b6 9C3A0000 		.4byte	.LASF165
 8024 34ba 13       		.byte	0x13
 8025 34bb 4402     		.2byte	0x244
 8026 34bd FF200000 		.4byte	.LASF527
 8027 34c1 AC5C0000 		.4byte	0x5cac
 8028 34c5 01       		.byte	0x1
 8029 34c6 CE340000 		.4byte	0x34ce
 8030 34ca DE340000 		.4byte	0x34de
 8031 34ce 10       		.uleb128 0x10
 8032 34cf 9A5C0000 		.4byte	0x5c9a
 8033 34d3 0D       		.uleb128 0xd
 8034 34d4 77330000 		.4byte	0x3377
 8035 34d8 0D       		.uleb128 0xd
 8036 34d9 67520000 		.4byte	0x5267
 8037 34dd 00       		.byte	0
 8038 34de 29       		.uleb128 0x29
 8039 34df 7B110000 		.4byte	.LASF168
 8040 34e3 13       		.byte	0x13
 8041 34e4 B301     		.2byte	0x1b3
 8042 34e6 7F280000 		.4byte	.LASF528
 8043 34ea FD340000 		.4byte	0x34fd
 8044 34ee 01       		.byte	0x1
 8045 34ef F7340000 		.4byte	0x34f7
ARM GAS  /tmp/ccfWo18f.s 			page 143


 8046 34f3 FD340000 		.4byte	0x34fd
 8047 34f7 10       		.uleb128 0x10
 8048 34f8 A05C0000 		.4byte	0x5ca0
 8049 34fc 00       		.byte	0
 8050 34fd 07       		.uleb128 0x7
 8051 34fe EC310000 		.4byte	0x31ec
 8052 3502 29       		.uleb128 0x29
 8053 3503 EE360000 		.4byte	.LASF170
 8054 3507 13       		.byte	0x13
 8055 3508 B701     		.2byte	0x1b7
 8056 350a 43110000 		.4byte	.LASF529
 8057 350e FD340000 		.4byte	0x34fd
 8058 3512 01       		.byte	0x1
 8059 3513 1B350000 		.4byte	0x351b
 8060 3517 21350000 		.4byte	0x3521
 8061 351b 10       		.uleb128 0x10
 8062 351c A05C0000 		.4byte	0x5ca0
 8063 3520 00       		.byte	0
 8064 3521 2A       		.uleb128 0x2a
 8065 3522 026F0000 		.4byte	.LASF172
 8066 3526 13       		.byte	0x13
 8067 3527 BB01     		.2byte	0x1bb
 8068 3529 B7480000 		.4byte	.LASF530
 8069 352d 01       		.byte	0x1
 8070 352e 36350000 		.4byte	0x3536
 8071 3532 41350000 		.4byte	0x3541
 8072 3536 10       		.uleb128 0x10
 8073 3537 A05C0000 		.4byte	0x5ca0
 8074 353b 0D       		.uleb128 0xd
 8075 353c B25C0000 		.4byte	0x5cb2
 8076 3540 00       		.byte	0
 8077 3541 29       		.uleb128 0x29
 8078 3542 7B110000 		.4byte	.LASF168
 8079 3546 13       		.byte	0x13
 8080 3547 BF01     		.2byte	0x1bf
 8081 3549 F56A0000 		.4byte	.LASF531
 8082 354d 60350000 		.4byte	0x3560
 8083 3551 01       		.byte	0x1
 8084 3552 5A350000 		.4byte	0x355a
 8085 3556 60350000 		.4byte	0x3560
 8086 355a 10       		.uleb128 0x10
 8087 355b 9A5C0000 		.4byte	0x5c9a
 8088 355f 00       		.byte	0
 8089 3560 07       		.uleb128 0x7
 8090 3561 F1310000 		.4byte	0x31f1
 8091 3565 29       		.uleb128 0x29
 8092 3566 EE360000 		.4byte	.LASF170
 8093 356a 13       		.byte	0x13
 8094 356b C301     		.2byte	0x1c3
 8095 356d 754E0000 		.4byte	.LASF532
 8096 3571 60350000 		.4byte	0x3560
 8097 3575 01       		.byte	0x1
 8098 3576 7E350000 		.4byte	0x357e
 8099 357a 84350000 		.4byte	0x3584
 8100 357e 10       		.uleb128 0x10
 8101 357f 9A5C0000 		.4byte	0x5c9a
 8102 3583 00       		.byte	0
ARM GAS  /tmp/ccfWo18f.s 			page 144


 8103 3584 2A       		.uleb128 0x2a
 8104 3585 026F0000 		.4byte	.LASF172
 8105 3589 13       		.byte	0x13
 8106 358a C701     		.2byte	0x1c7
 8107 358c 59270000 		.4byte	.LASF533
 8108 3590 01       		.byte	0x1
 8109 3591 99350000 		.4byte	0x3599
 8110 3595 A4350000 		.4byte	0x35a4
 8111 3599 10       		.uleb128 0x10
 8112 359a 9A5C0000 		.4byte	0x5c9a
 8113 359e 0D       		.uleb128 0xd
 8114 359f B85C0000 		.4byte	0x5cb8
 8115 35a3 00       		.byte	0
 8116 35a4 29       		.uleb128 0x29
 8117 35a5 30640000 		.4byte	.LASF177
 8118 35a9 13       		.byte	0x13
 8119 35aa 5302     		.2byte	0x253
 8120 35ac CE550000 		.4byte	.LASF534
 8121 35b0 945C0000 		.4byte	0x5c94
 8122 35b4 01       		.byte	0x1
 8123 35b5 BD350000 		.4byte	0x35bd
 8124 35b9 C3350000 		.4byte	0x35c3
 8125 35bd 10       		.uleb128 0x10
 8126 35be 9A5C0000 		.4byte	0x5c9a
 8127 35c2 00       		.byte	0
 8128 35c3 29       		.uleb128 0x29
 8129 35c4 D94E0000 		.4byte	.LASF179
 8130 35c8 13       		.byte	0x13
 8131 35c9 5D02     		.2byte	0x25d
 8132 35cb 220E0000 		.4byte	.LASF535
 8133 35cf 5C4D0000 		.4byte	0x4d5c
 8134 35d3 01       		.byte	0x1
 8135 35d4 DC350000 		.4byte	0x35dc
 8136 35d8 E2350000 		.4byte	0x35e2
 8137 35dc 10       		.uleb128 0x10
 8138 35dd 9A5C0000 		.4byte	0x5c9a
 8139 35e1 00       		.byte	0
 8140 35e2 29       		.uleb128 0x29
 8141 35e3 043B0000 		.4byte	.LASF109
 8142 35e7 13       		.byte	0x13
 8143 35e8 6702     		.2byte	0x267
 8144 35ea 214C0000 		.4byte	.LASF536
 8145 35ee 2C000000 		.4byte	0x2c
 8146 35f2 01       		.byte	0x1
 8147 35f3 FB350000 		.4byte	0x35fb
 8148 35f7 01360000 		.4byte	0x3601
 8149 35fb 10       		.uleb128 0x10
 8150 35fc 9A5C0000 		.4byte	0x5c9a
 8151 3600 00       		.byte	0
 8152 3601 2A       		.uleb128 0x2a
 8153 3602 71220000 		.4byte	.LASF182
 8154 3606 13       		.byte	0x13
 8155 3607 7602     		.2byte	0x276
 8156 3609 B7080000 		.4byte	.LASF537
 8157 360d 01       		.byte	0x1
 8158 360e 16360000 		.4byte	0x3616
 8159 3612 21360000 		.4byte	0x3621
ARM GAS  /tmp/ccfWo18f.s 			page 145


 8160 3616 10       		.uleb128 0x10
 8161 3617 A05C0000 		.4byte	0x5ca0
 8162 361b 0D       		.uleb128 0xd
 8163 361c A65C0000 		.4byte	0x5ca6
 8164 3620 00       		.byte	0
 8165 3621 29       		.uleb128 0x29
 8166 3622 6A150000 		.4byte	.LASF184
 8167 3626 13       		.byte	0x13
 8168 3627 8002     		.2byte	0x280
 8169 3629 AE1E0000 		.4byte	.LASF538
 8170 362d 5C4D0000 		.4byte	0x4d5c
 8171 3631 01       		.byte	0x1
 8172 3632 3A360000 		.4byte	0x363a
 8173 3636 45360000 		.4byte	0x3645
 8174 363a 10       		.uleb128 0x10
 8175 363b A05C0000 		.4byte	0x5ca0
 8176 363f 0D       		.uleb128 0xd
 8177 3640 A65C0000 		.4byte	0x5ca6
 8178 3644 00       		.byte	0
 8179 3645 29       		.uleb128 0x29
 8180 3646 56400000 		.4byte	.LASF186
 8181 364a 13       		.byte	0x13
 8182 364b 8A02     		.2byte	0x28a
 8183 364d 4C030000 		.4byte	.LASF539
 8184 3651 25000000 		.4byte	0x25
 8185 3655 01       		.byte	0x1
 8186 3656 5E360000 		.4byte	0x365e
 8187 365a 69360000 		.4byte	0x3669
 8188 365e 10       		.uleb128 0x10
 8189 365f 9A5C0000 		.4byte	0x5c9a
 8190 3663 0D       		.uleb128 0xd
 8191 3664 745C0000 		.4byte	0x5c74
 8192 3668 00       		.byte	0
 8193 3669 29       		.uleb128 0x29
 8194 366a 3C290000 		.4byte	.LASF188
 8195 366e 13       		.byte	0x13
 8196 366f 9B02     		.2byte	0x29b
 8197 3671 AA0A0000 		.4byte	.LASF540
 8198 3675 5C4D0000 		.4byte	0x4d5c
 8199 3679 01       		.byte	0x1
 8200 367a 82360000 		.4byte	0x3682
 8201 367e 8D360000 		.4byte	0x368d
 8202 3682 10       		.uleb128 0x10
 8203 3683 9A5C0000 		.4byte	0x5c9a
 8204 3687 0D       		.uleb128 0xd
 8205 3688 745C0000 		.4byte	0x5c74
 8206 368c 00       		.byte	0
 8207 368d 29       		.uleb128 0x29
 8208 368e F2430000 		.4byte	.LASF190
 8209 3692 13       		.byte	0x13
 8210 3693 AC02     		.2byte	0x2ac
 8211 3695 125C0000 		.4byte	.LASF541
 8212 3699 AC5C0000 		.4byte	0x5cac
 8213 369d 01       		.byte	0x1
 8214 369e A6360000 		.4byte	0x36a6
 8215 36a2 B1360000 		.4byte	0x36b1
 8216 36a6 10       		.uleb128 0x10
ARM GAS  /tmp/ccfWo18f.s 			page 146


 8217 36a7 9A5C0000 		.4byte	0x5c9a
 8218 36ab 0D       		.uleb128 0xd
 8219 36ac 6B330000 		.4byte	0x336b
 8220 36b0 00       		.byte	0
 8221 36b1 29       		.uleb128 0x29
 8222 36b2 F2430000 		.4byte	.LASF190
 8223 36b6 13       		.byte	0x13
 8224 36b7 BC02     		.2byte	0x2bc
 8225 36b9 91680000 		.4byte	.LASF542
 8226 36bd AC5C0000 		.4byte	0x5cac
 8227 36c1 01       		.byte	0x1
 8228 36c2 CA360000 		.4byte	0x36ca
 8229 36c6 DA360000 		.4byte	0x36da
 8230 36ca 10       		.uleb128 0x10
 8231 36cb 9A5C0000 		.4byte	0x5c9a
 8232 36cf 0D       		.uleb128 0xd
 8233 36d0 77330000 		.4byte	0x3377
 8234 36d4 0D       		.uleb128 0xd
 8235 36d5 67520000 		.4byte	0x5267
 8236 36d9 00       		.byte	0
 8237 36da 29       		.uleb128 0x29
 8238 36db 3C6E0000 		.4byte	.LASF193
 8239 36df 13       		.byte	0x13
 8240 36e0 E001     		.2byte	0x1e0
 8241 36e2 B73F0000 		.4byte	.LASF543
 8242 36e6 F9360000 		.4byte	0x36f9
 8243 36ea 01       		.byte	0x1
 8244 36eb F3360000 		.4byte	0x36f3
 8245 36ef F9360000 		.4byte	0x36f9
 8246 36f3 10       		.uleb128 0x10
 8247 36f4 A05C0000 		.4byte	0x5ca0
 8248 36f8 00       		.byte	0
 8249 36f9 07       		.uleb128 0x7
 8250 36fa F6310000 		.4byte	0x31f6
 8251 36fe 2B       		.uleb128 0x2b
 8252 36ff 656E6400 		.ascii	"end\000"
 8253 3703 13       		.byte	0x13
 8254 3704 E401     		.2byte	0x1e4
 8255 3706 104D0000 		.4byte	.LASF544
 8256 370a F9360000 		.4byte	0x36f9
 8257 370e 01       		.byte	0x1
 8258 370f 17370000 		.4byte	0x3717
 8259 3713 1D370000 		.4byte	0x371d
 8260 3717 10       		.uleb128 0x10
 8261 3718 A05C0000 		.4byte	0x5ca0
 8262 371c 00       		.byte	0
 8263 371d 2A       		.uleb128 0x2a
 8264 371e 11140000 		.4byte	.LASF195
 8265 3722 13       		.byte	0x13
 8266 3723 E801     		.2byte	0x1e8
 8267 3725 334E0000 		.4byte	.LASF545
 8268 3729 01       		.byte	0x1
 8269 372a 32370000 		.4byte	0x3732
 8270 372e 3D370000 		.4byte	0x373d
 8271 3732 10       		.uleb128 0x10
 8272 3733 A05C0000 		.4byte	0x5ca0
 8273 3737 0D       		.uleb128 0xd
ARM GAS  /tmp/ccfWo18f.s 			page 147


 8274 3738 BE5C0000 		.4byte	0x5cbe
 8275 373c 00       		.byte	0
 8276 373d 29       		.uleb128 0x29
 8277 373e 3C6E0000 		.4byte	.LASF193
 8278 3742 13       		.byte	0x13
 8279 3743 EC01     		.2byte	0x1ec
 8280 3745 3C370000 		.4byte	.LASF546
 8281 3749 5C370000 		.4byte	0x375c
 8282 374d 01       		.byte	0x1
 8283 374e 56370000 		.4byte	0x3756
 8284 3752 5C370000 		.4byte	0x375c
 8285 3756 10       		.uleb128 0x10
 8286 3757 9A5C0000 		.4byte	0x5c9a
 8287 375b 00       		.byte	0
 8288 375c 07       		.uleb128 0x7
 8289 375d FB310000 		.4byte	0x31fb
 8290 3761 2B       		.uleb128 0x2b
 8291 3762 656E6400 		.ascii	"end\000"
 8292 3766 13       		.byte	0x13
 8293 3767 F201     		.2byte	0x1f2
 8294 3769 42670000 		.4byte	.LASF547
 8295 376d 5C370000 		.4byte	0x375c
 8296 3771 01       		.byte	0x1
 8297 3772 7A370000 		.4byte	0x377a
 8298 3776 80370000 		.4byte	0x3780
 8299 377a 10       		.uleb128 0x10
 8300 377b 9A5C0000 		.4byte	0x5c9a
 8301 377f 00       		.byte	0
 8302 3780 2A       		.uleb128 0x2a
 8303 3781 11140000 		.4byte	.LASF195
 8304 3785 13       		.byte	0x13
 8305 3786 F601     		.2byte	0x1f6
 8306 3788 793E0000 		.4byte	.LASF548
 8307 378c 01       		.byte	0x1
 8308 378d 95370000 		.4byte	0x3795
 8309 3791 A0370000 		.4byte	0x37a0
 8310 3795 10       		.uleb128 0x10
 8311 3796 9A5C0000 		.4byte	0x5c9a
 8312 379a 0D       		.uleb128 0xd
 8313 379b C45C0000 		.4byte	0x5cc4
 8314 379f 00       		.byte	0
 8315 37a0 2C       		.uleb128 0x2c
 8316 37a1 AF110000 		.4byte	.LASF201
 8317 37a5 13       		.byte	0x13
 8318 37a6 FA01     		.2byte	0x1fa
 8319 37a8 A05C0000 		.4byte	0x5ca0
 8320 37ac 01       		.byte	0x1
 8321 37ad B5370000 		.4byte	0x37b5
 8322 37b1 BB370000 		.4byte	0x37bb
 8323 37b5 10       		.uleb128 0x10
 8324 37b6 A05C0000 		.4byte	0x5ca0
 8325 37ba 00       		.byte	0
 8326 37bb 07       		.uleb128 0x7
 8327 37bc E7310000 		.4byte	0x31e7
 8328 37c0 24       		.uleb128 0x24
 8329 37c1 19260000 		.4byte	.LASF202
 8330 37c5 83310000 		.4byte	0x3183
ARM GAS  /tmp/ccfWo18f.s 			page 148


 8331 37c9 00       		.byte	0
 8332 37ca 07       		.uleb128 0x7
 8333 37cb 83310000 		.4byte	0x3183
 8334 37cf 07       		.uleb128 0x7
 8335 37d0 88310000 		.4byte	0x3188
 8336 37d4 0E       		.uleb128 0xe
 8337 37d5 CE1A0000 		.4byte	.LASF549
 8338 37d9 04       		.byte	0x4
 8339 37da 1E       		.byte	0x1e
 8340 37db 0B       		.byte	0xb
 8341 37dc B2380000 		.4byte	0x38b2
 8342 37e0 1D       		.uleb128 0x1d
 8343 37e1 9C170000 		.4byte	.LASF550
 8344 37e5 1E       		.byte	0x1e
 8345 37e6 13       		.byte	0x13
 8346 37e7 92540000 		.4byte	0x5492
 8347 37eb 00       		.byte	0
 8348 37ec 15       		.uleb128 0x15
 8349 37ed 6B4A0000 		.4byte	.LASF551
 8350 37f1 1E       		.byte	0x1e
 8351 37f2 0D       		.byte	0xd
 8352 37f3 A54D0000 		.4byte	0x4da5
 8353 37f7 01       		.byte	0x1
 8354 37f8 18       		.uleb128 0x18
 8355 37f9 24460000 		.4byte	.LASF552
 8356 37fd 1E       		.byte	0x1e
 8357 37fe 16       		.byte	0x16
 8358 37ff F6040000 		.4byte	.LASF553
 8359 3803 92540000 		.4byte	0x5492
 8360 3807 01       		.byte	0x1
 8361 3808 10380000 		.4byte	0x3810
 8362 380c 16380000 		.4byte	0x3816
 8363 3810 10       		.uleb128 0x10
 8364 3811 DA5C0000 		.4byte	0x5cda
 8365 3815 00       		.byte	0
 8366 3816 20       		.uleb128 0x20
 8367 3817 E1210000 		.4byte	.LASF554
 8368 381b 1E       		.byte	0x1e
 8369 381c 17       		.byte	0x17
 8370 381d AD440000 		.4byte	.LASF555
 8371 3821 01       		.byte	0x1
 8372 3822 2A380000 		.4byte	0x382a
 8373 3826 35380000 		.4byte	0x3835
 8374 382a 10       		.uleb128 0x10
 8375 382b E05C0000 		.4byte	0x5ce0
 8376 382f 0D       		.uleb128 0xd
 8377 3830 92540000 		.4byte	0x5492
 8378 3834 00       		.byte	0
 8379 3835 20       		.uleb128 0x20
 8380 3836 D2170000 		.4byte	.LASF556
 8381 383a 1E       		.byte	0x1e
 8382 383b 19       		.byte	0x19
 8383 383c D9510000 		.4byte	.LASF557
 8384 3840 01       		.byte	0x1
 8385 3841 49380000 		.4byte	0x3849
 8386 3845 54380000 		.4byte	0x3854
 8387 3849 10       		.uleb128 0x10
ARM GAS  /tmp/ccfWo18f.s 			page 149


 8388 384a E05C0000 		.4byte	0x5ce0
 8389 384e 0D       		.uleb128 0xd
 8390 384f 37000000 		.4byte	0x37
 8391 3853 00       		.byte	0
 8392 3854 20       		.uleb128 0x20
 8393 3855 64090000 		.4byte	.LASF558
 8394 3859 1E       		.byte	0x1e
 8395 385a 1B       		.byte	0x1b
 8396 385b 20350000 		.4byte	.LASF559
 8397 385f 01       		.byte	0x1
 8398 3860 68380000 		.4byte	0x3868
 8399 3864 73380000 		.4byte	0x3873
 8400 3868 10       		.uleb128 0x10
 8401 3869 E05C0000 		.4byte	0x5ce0
 8402 386d 0D       		.uleb128 0xd
 8403 386e 37000000 		.4byte	0x37
 8404 3872 00       		.byte	0
 8405 3873 18       		.uleb128 0x18
 8406 3874 59060000 		.4byte	.LASF560
 8407 3878 1E       		.byte	0x1e
 8408 3879 1C       		.byte	0x1c
 8409 387a 0B330000 		.4byte	.LASF561
 8410 387e EC370000 		.4byte	0x37ec
 8411 3882 01       		.byte	0x1
 8412 3883 8B380000 		.4byte	0x388b
 8413 3887 96380000 		.4byte	0x3896
 8414 388b 10       		.uleb128 0x10
 8415 388c E05C0000 		.4byte	0x5ce0
 8416 3890 0D       		.uleb128 0xd
 8417 3891 87520000 		.4byte	0x5287
 8418 3895 00       		.byte	0
 8419 3896 12       		.uleb128 0x12
 8420 3897 CE1A0000 		.4byte	.LASF549
 8421 389b 1E       		.byte	0x1e
 8422 389c 1F       		.byte	0x1f
 8423 389d E05C0000 		.4byte	0x5ce0
 8424 38a1 01       		.byte	0x1
 8425 38a2 A6380000 		.4byte	0x38a6
 8426 38a6 10       		.uleb128 0x10
 8427 38a7 E05C0000 		.4byte	0x5ce0
 8428 38ab 0D       		.uleb128 0xd
 8429 38ac 92540000 		.4byte	0x5492
 8430 38b0 00       		.byte	0
 8431 38b1 00       		.byte	0
 8432 38b2 07       		.uleb128 0x7
 8433 38b3 D4370000 		.4byte	0x37d4
 8434 38b7 0E       		.uleb128 0xe
 8435 38b8 61550000 		.4byte	.LASF562
 8436 38bc 04       		.byte	0x4
 8437 38bd 1F       		.byte	0x1f
 8438 38be 0B       		.byte	0xb
 8439 38bf 9B390000 		.4byte	0x399b
 8440 38c3 13       		.uleb128 0x13
 8441 38c4 79010000 		.4byte	0x179
 8442 38c8 00       		.byte	0
 8443 38c9 1D       		.uleb128 0x1d
 8444 38ca 121F0000 		.4byte	.LASF66
ARM GAS  /tmp/ccfWo18f.s 			page 150


 8445 38ce 1F       		.byte	0x1f
 8446 38cf 12       		.byte	0x12
 8447 38d0 D4370000 		.4byte	0x37d4
 8448 38d4 00       		.byte	0
 8449 38d5 15       		.uleb128 0x15
 8450 38d6 6B4A0000 		.4byte	.LASF551
 8451 38da 1F       		.byte	0x1f
 8452 38db 0D       		.byte	0xd
 8453 38dc EC370000 		.4byte	0x37ec
 8454 38e0 01       		.byte	0x1
 8455 38e1 18       		.uleb128 0x18
 8456 38e2 24460000 		.4byte	.LASF552
 8457 38e6 1F       		.byte	0x1f
 8458 38e7 15       		.byte	0x15
 8459 38e8 C1010000 		.4byte	.LASF563
 8460 38ec 92540000 		.4byte	0x5492
 8461 38f0 01       		.byte	0x1
 8462 38f1 F9380000 		.4byte	0x38f9
 8463 38f5 FF380000 		.4byte	0x38ff
 8464 38f9 10       		.uleb128 0x10
 8465 38fa E65C0000 		.4byte	0x5ce6
 8466 38fe 00       		.byte	0
 8467 38ff 20       		.uleb128 0x20
 8468 3900 E1210000 		.4byte	.LASF554
 8469 3904 1F       		.byte	0x1f
 8470 3905 16       		.byte	0x16
 8471 3906 D5350000 		.4byte	.LASF564
 8472 390a 01       		.byte	0x1
 8473 390b 13390000 		.4byte	0x3913
 8474 390f 1E390000 		.4byte	0x391e
 8475 3913 10       		.uleb128 0x10
 8476 3914 EC5C0000 		.4byte	0x5cec
 8477 3918 0D       		.uleb128 0xd
 8478 3919 92540000 		.4byte	0x5492
 8479 391d 00       		.byte	0
 8480 391e 20       		.uleb128 0x20
 8481 391f D2170000 		.4byte	.LASF556
 8482 3923 1F       		.byte	0x1f
 8483 3924 18       		.byte	0x18
 8484 3925 D7340000 		.4byte	.LASF565
 8485 3929 01       		.byte	0x1
 8486 392a 32390000 		.4byte	0x3932
 8487 392e 3D390000 		.4byte	0x393d
 8488 3932 10       		.uleb128 0x10
 8489 3933 EC5C0000 		.4byte	0x5cec
 8490 3937 0D       		.uleb128 0xd
 8491 3938 37000000 		.4byte	0x37
 8492 393c 00       		.byte	0
 8493 393d 20       		.uleb128 0x20
 8494 393e 64090000 		.4byte	.LASF558
 8495 3942 1F       		.byte	0x1f
 8496 3943 1A       		.byte	0x1a
 8497 3944 171F0000 		.4byte	.LASF566
 8498 3948 01       		.byte	0x1
 8499 3949 51390000 		.4byte	0x3951
 8500 394d 5C390000 		.4byte	0x395c
 8501 3951 10       		.uleb128 0x10
ARM GAS  /tmp/ccfWo18f.s 			page 151


 8502 3952 EC5C0000 		.4byte	0x5cec
 8503 3956 0D       		.uleb128 0xd
 8504 3957 37000000 		.4byte	0x37
 8505 395b 00       		.byte	0
 8506 395c 18       		.uleb128 0x18
 8507 395d 59060000 		.4byte	.LASF560
 8508 3961 1F       		.byte	0x1f
 8509 3962 1B       		.byte	0x1b
 8510 3963 586D0000 		.4byte	.LASF567
 8511 3967 D5380000 		.4byte	0x38d5
 8512 396b 01       		.byte	0x1
 8513 396c 74390000 		.4byte	0x3974
 8514 3970 7F390000 		.4byte	0x397f
 8515 3974 10       		.uleb128 0x10
 8516 3975 EC5C0000 		.4byte	0x5cec
 8517 3979 0D       		.uleb128 0xd
 8518 397a 87520000 		.4byte	0x5287
 8519 397e 00       		.byte	0
 8520 397f 12       		.uleb128 0x12
 8521 3980 61550000 		.4byte	.LASF562
 8522 3984 1F       		.byte	0x1f
 8523 3985 1E       		.byte	0x1e
 8524 3986 EC5C0000 		.4byte	0x5cec
 8525 398a 01       		.byte	0x1
 8526 398b 8F390000 		.4byte	0x398f
 8527 398f 10       		.uleb128 0x10
 8528 3990 EC5C0000 		.4byte	0x5cec
 8529 3994 0D       		.uleb128 0xd
 8530 3995 92540000 		.4byte	0x5492
 8531 3999 00       		.byte	0
 8532 399a 00       		.byte	0
 8533 399b 07       		.uleb128 0x7
 8534 399c B7380000 		.4byte	0x38b7
 8535 39a0 0E       		.uleb128 0xe
 8536 39a1 B3650000 		.4byte	.LASF568
 8537 39a5 04       		.byte	0x4
 8538 39a6 13       		.byte	0x13
 8539 39a7 0F       		.byte	0xf
 8540 39a8 E23F0000 		.4byte	0x3fe2
 8541 39ac 13       		.uleb128 0x13
 8542 39ad 79010000 		.4byte	0x179
 8543 39b1 00       		.byte	0
 8544 39b2 1C       		.uleb128 0x1c
 8545 39b3 C7630000 		.4byte	.LASF139
 8546 39b7 08       		.byte	0x8
 8547 39b8 13       		.byte	0x13
 8548 39b9 11       		.byte	0x11
 8549 39ba 01       		.byte	0x1
 8550 39bb F2390000 		.4byte	0x39f2
 8551 39bf 1D       		.uleb128 0x1d
 8552 39c0 DD320000 		.4byte	.LASF140
 8553 39c4 13       		.byte	0x13
 8554 39c5 12       		.byte	0x12
 8555 39c6 F25C0000 		.4byte	0x5cf2
 8556 39ca 00       		.byte	0
 8557 39cb 1D       		.uleb128 0x1d
 8558 39cc FE1B0000 		.4byte	.LASF141
ARM GAS  /tmp/ccfWo18f.s 			page 152


 8559 39d0 13       		.byte	0x13
 8560 39d1 13       		.byte	0x13
 8561 39d2 635D0000 		.4byte	0x5d63
 8562 39d6 04       		.byte	0x4
 8563 39d7 1F       		.uleb128 0x1f
 8564 39d8 C7630000 		.4byte	.LASF139
 8565 39dc 13       		.byte	0x13
 8566 39dd 15       		.byte	0x15
 8567 39de F25C0000 		.4byte	0x5cf2
 8568 39e2 E6390000 		.4byte	0x39e6
 8569 39e6 10       		.uleb128 0x10
 8570 39e7 F25C0000 		.4byte	0x5cf2
 8571 39eb 0D       		.uleb128 0xd
 8572 39ec 685D0000 		.4byte	0x5d68
 8573 39f0 00       		.byte	0
 8574 39f1 00       		.byte	0
 8575 39f2 27       		.uleb128 0x27
 8576 39f3 1B150000 		.4byte	.LASF110
 8577 39f7 13       		.byte	0x13
 8578 39f8 8A01     		.2byte	0x18a
 8579 39fa F25C0000 		.4byte	0x5cf2
 8580 39fe 00       		.byte	0
 8581 39ff 3B       		.uleb128 0x3b
 8582 3a00 552E0000 		.4byte	.LASF509
 8583 3a04 26       		.uleb128 0x26
 8584 3a05 2E230000 		.4byte	.LASF143
 8585 3a09 26       		.uleb128 0x26
 8586 3a0a 0C350000 		.4byte	.LASF144
 8587 3a0e 26       		.uleb128 0x26
 8588 3a0f 535C0000 		.4byte	.LASF145
 8589 3a13 3C       		.uleb128 0x3c
 8590 3a14 65450000 		.4byte	.LASF146
 8591 3a18 04       		.byte	0x4
 8592 3a19 13       		.byte	0x13
 8593 3a1a C0       		.byte	0xc0
 8594 3a1b 01       		.byte	0x1
 8595 3a1c 833B0000 		.4byte	0x3b83
 8596 3a20 1D       		.uleb128 0x1d
 8597 3a21 2B160000 		.4byte	.LASF354
 8598 3a25 13       		.byte	0x13
 8599 3a26 C4       		.byte	0xc4
 8600 3a27 B45D0000 		.4byte	0x5db4
 8601 3a2b 00       		.byte	0
 8602 3a2c 11       		.uleb128 0x11
 8603 3a2d 65450000 		.4byte	.LASF146
 8604 3a31 13       		.byte	0x13
 8605 3a32 C7       		.byte	0xc7
 8606 3a33 BA5D0000 		.4byte	0x5dba
 8607 3a37 01       		.byte	0x1
 8608 3a38 403A0000 		.4byte	0x3a40
 8609 3a3c 463A0000 		.4byte	0x3a46
 8610 3a40 10       		.uleb128 0x10
 8611 3a41 BA5D0000 		.4byte	0x5dba
 8612 3a45 00       		.byte	0
 8613 3a46 11       		.uleb128 0x11
 8614 3a47 65450000 		.4byte	.LASF146
 8615 3a4b 13       		.byte	0x13
ARM GAS  /tmp/ccfWo18f.s 			page 153


 8616 3a4c C8       		.byte	0xc8
 8617 3a4d BA5D0000 		.4byte	0x5dba
 8618 3a51 01       		.byte	0x1
 8619 3a52 5A3A0000 		.4byte	0x3a5a
 8620 3a56 653A0000 		.4byte	0x3a65
 8621 3a5a 10       		.uleb128 0x10
 8622 3a5b BA5D0000 		.4byte	0x5dba
 8623 3a5f 0D       		.uleb128 0xd
 8624 3a60 C05D0000 		.4byte	0x5dc0
 8625 3a64 00       		.byte	0
 8626 3a65 0F       		.uleb128 0xf
 8627 3a66 65450000 		.4byte	.LASF146
 8628 3a6a 13       		.byte	0x13
 8629 3a6b CB       		.byte	0xcb
 8630 3a6c BA5D0000 		.4byte	0x5dba
 8631 3a70 783A0000 		.4byte	0x3a78
 8632 3a74 833A0000 		.4byte	0x3a83
 8633 3a78 10       		.uleb128 0x10
 8634 3a79 BA5D0000 		.4byte	0x5dba
 8635 3a7d 0D       		.uleb128 0xd
 8636 3a7e B45D0000 		.4byte	0x5db4
 8637 3a82 00       		.byte	0
 8638 3a83 1E       		.uleb128 0x1e
 8639 3a84 B6150000 		.4byte	.LASF51
 8640 3a88 13       		.byte	0x13
 8641 3a89 CE       		.byte	0xce
 8642 3a8a 24600000 		.4byte	.LASF569
 8643 3a8e 5D5D0000 		.4byte	0x5d5d
 8644 3a92 9A3A0000 		.4byte	0x3a9a
 8645 3a96 A53A0000 		.4byte	0x3aa5
 8646 3a9a 10       		.uleb128 0x10
 8647 3a9b BA5D0000 		.4byte	0x5dba
 8648 3a9f 0D       		.uleb128 0xd
 8649 3aa0 C05D0000 		.4byte	0x5dc0
 8650 3aa4 00       		.byte	0
 8651 3aa5 18       		.uleb128 0x18
 8652 3aa6 164C0000 		.4byte	.LASF356
 8653 3aaa 13       		.byte	0x13
 8654 3aab D4       		.byte	0xd4
 8655 3aac B2670000 		.4byte	.LASF570
 8656 3ab0 6E5D0000 		.4byte	0x5d6e
 8657 3ab4 01       		.byte	0x1
 8658 3ab5 BD3A0000 		.4byte	0x3abd
 8659 3ab9 C33A0000 		.4byte	0x3ac3
 8660 3abd 10       		.uleb128 0x10
 8661 3abe C65D0000 		.4byte	0x5dc6
 8662 3ac2 00       		.byte	0
 8663 3ac3 18       		.uleb128 0x18
 8664 3ac4 71150000 		.4byte	.LASF358
 8665 3ac8 13       		.byte	0x13
 8666 3ac9 D8       		.byte	0xd8
 8667 3aca B5030000 		.4byte	.LASF571
 8668 3ace 0D5D0000 		.4byte	0x5d0d
 8669 3ad2 01       		.byte	0x1
 8670 3ad3 DB3A0000 		.4byte	0x3adb
 8671 3ad7 E13A0000 		.4byte	0x3ae1
 8672 3adb 10       		.uleb128 0x10
ARM GAS  /tmp/ccfWo18f.s 			page 154


 8673 3adc C65D0000 		.4byte	0x5dc6
 8674 3ae0 00       		.byte	0
 8675 3ae1 18       		.uleb128 0x18
 8676 3ae2 704A0000 		.4byte	.LASF360
 8677 3ae6 13       		.byte	0x13
 8678 3ae7 DC       		.byte	0xdc
 8679 3ae8 196D0000 		.4byte	.LASF572
 8680 3aec 5D5D0000 		.4byte	0x5d5d
 8681 3af0 01       		.byte	0x1
 8682 3af1 F93A0000 		.4byte	0x3af9
 8683 3af5 FF3A0000 		.4byte	0x3aff
 8684 3af9 10       		.uleb128 0x10
 8685 3afa BA5D0000 		.4byte	0x5dba
 8686 3afe 00       		.byte	0
 8687 3aff 18       		.uleb128 0x18
 8688 3b00 704A0000 		.4byte	.LASF360
 8689 3b04 13       		.byte	0x13
 8690 3b05 E3       		.byte	0xe3
 8691 3b06 866C0000 		.4byte	.LASF573
 8692 3b0a 743F0000 		.4byte	0x3f74
 8693 3b0e 01       		.byte	0x1
 8694 3b0f 173B0000 		.4byte	0x3b17
 8695 3b13 223B0000 		.4byte	0x3b22
 8696 3b17 10       		.uleb128 0x10
 8697 3b18 BA5D0000 		.4byte	0x5dba
 8698 3b1c 0D       		.uleb128 0xd
 8699 3b1d 25000000 		.4byte	0x25
 8700 3b21 00       		.byte	0
 8701 3b22 18       		.uleb128 0x18
 8702 3b23 FA6B0000 		.4byte	.LASF363
 8703 3b27 13       		.byte	0x13
 8704 3b28 EB       		.byte	0xeb
 8705 3b29 8D5C0000 		.4byte	.LASF574
 8706 3b2d 5C4D0000 		.4byte	0x4d5c
 8707 3b31 01       		.byte	0x1
 8708 3b32 3A3B0000 		.4byte	0x3b3a
 8709 3b36 453B0000 		.4byte	0x3b45
 8710 3b3a 10       		.uleb128 0x10
 8711 3b3b C65D0000 		.4byte	0x5dc6
 8712 3b3f 0D       		.uleb128 0xd
 8713 3b40 C05D0000 		.4byte	0x5dc0
 8714 3b44 00       		.byte	0
 8715 3b45 18       		.uleb128 0x18
 8716 3b46 E3360000 		.4byte	.LASF365
 8717 3b4a 13       		.byte	0x13
 8718 3b4b EF       		.byte	0xef
 8719 3b4c DF330000 		.4byte	.LASF575
 8720 3b50 5C4D0000 		.4byte	0x4d5c
 8721 3b54 01       		.byte	0x1
 8722 3b55 5D3B0000 		.4byte	0x3b5d
 8723 3b59 683B0000 		.4byte	0x3b68
 8724 3b5d 10       		.uleb128 0x10
 8725 3b5e C65D0000 		.4byte	0x5dc6
 8726 3b62 0D       		.uleb128 0xd
 8727 3b63 C05D0000 		.4byte	0x5dc0
 8728 3b67 00       		.byte	0
 8729 3b68 2E       		.uleb128 0x2e
ARM GAS  /tmp/ccfWo18f.s 			page 155


 8730 3b69 BE490000 		.4byte	.LASF367
 8731 3b6d 13       		.byte	0x13
 8732 3b6e F3       		.byte	0xf3
 8733 3b6f 750D0000 		.4byte	.LASF576
 8734 3b73 5C4D0000 		.4byte	0x4d5c
 8735 3b77 01       		.byte	0x1
 8736 3b78 7C3B0000 		.4byte	0x3b7c
 8737 3b7c 10       		.uleb128 0x10
 8738 3b7d C65D0000 		.4byte	0x5dc6
 8739 3b81 00       		.byte	0
 8740 3b82 00       		.byte	0
 8741 3b83 28       		.uleb128 0x28
 8742 3b84 A4430000 		.4byte	.LASF147
 8743 3b88 13       		.byte	0x13
 8744 3b89 8601     		.2byte	0x186
 8745 3b8b F85C0000 		.4byte	0x5cf8
 8746 3b8f 28       		.uleb128 0x28
 8747 3b90 7E140000 		.4byte	.LASF148
 8748 3b94 13       		.byte	0x13
 8749 3b95 8701     		.2byte	0x187
 8750 3b97 135D0000 		.4byte	0x5d13
 8751 3b9b 29       		.uleb128 0x29
 8752 3b9c C86E0000 		.4byte	.LASF149
 8753 3ba0 13       		.byte	0x13
 8754 3ba1 8D01     		.2byte	0x18d
 8755 3ba3 5E060000 		.4byte	.LASF577
 8756 3ba7 2D5D0000 		.4byte	0x5d2d
 8757 3bab 01       		.byte	0x1
 8758 3bac B43B0000 		.4byte	0x3bb4
 8759 3bb0 BA3B0000 		.4byte	0x3bba
 8760 3bb4 10       		.uleb128 0x10
 8761 3bb5 335D0000 		.4byte	0x5d33
 8762 3bb9 00       		.byte	0
 8763 3bba 07       		.uleb128 0x7
 8764 3bbb B2390000 		.4byte	0x39b2
 8765 3bbf 29       		.uleb128 0x29
 8766 3bc0 C23E0000 		.4byte	.LASF150
 8767 3bc4 13       		.byte	0x13
 8768 3bc5 9101     		.2byte	0x191
 8769 3bc7 72650000 		.4byte	.LASF578
 8770 3bcb 5C4D0000 		.4byte	0x4d5c
 8771 3bcf 01       		.byte	0x1
 8772 3bd0 D83B0000 		.4byte	0x3bd8
 8773 3bd4 DE3B0000 		.4byte	0x3bde
 8774 3bd8 10       		.uleb128 0x10
 8775 3bd9 335D0000 		.4byte	0x5d33
 8776 3bdd 00       		.byte	0
 8777 3bde 29       		.uleb128 0x29
 8778 3bdf 64220000 		.4byte	.LASF153
 8779 3be3 13       		.byte	0x13
 8780 3be4 0302     		.2byte	0x203
 8781 3be6 B43D0000 		.4byte	.LASF579
 8782 3bea 2C000000 		.4byte	0x2c
 8783 3bee 01       		.byte	0x1
 8784 3bef F73B0000 		.4byte	0x3bf7
 8785 3bf3 FD3B0000 		.4byte	0x3bfd
 8786 3bf7 10       		.uleb128 0x10
ARM GAS  /tmp/ccfWo18f.s 			page 156


 8787 3bf8 335D0000 		.4byte	0x5d33
 8788 3bfc 00       		.byte	0
 8789 3bfd 2A       		.uleb128 0x2a
 8790 3bfe EB500000 		.4byte	.LASF155
 8791 3c02 13       		.byte	0x13
 8792 3c03 9701     		.2byte	0x197
 8793 3c05 8D2D0000 		.4byte	.LASF580
 8794 3c09 01       		.byte	0x1
 8795 3c0a 123C0000 		.4byte	0x3c12
 8796 3c0e 1D3C0000 		.4byte	0x3c1d
 8797 3c12 10       		.uleb128 0x10
 8798 3c13 395D0000 		.4byte	0x5d39
 8799 3c17 0D       		.uleb128 0xd
 8800 3c18 3F5D0000 		.4byte	0x5d3f
 8801 3c1c 00       		.byte	0
 8802 3c1d 2A       		.uleb128 0x2a
 8803 3c1e 7D5B0000 		.4byte	.LASF156
 8804 3c22 13       		.byte	0x13
 8805 3c23 9F01     		.2byte	0x19f
 8806 3c25 6D2C0000 		.4byte	.LASF581
 8807 3c29 01       		.byte	0x1
 8808 3c2a 323C0000 		.4byte	0x3c32
 8809 3c2e 3D3C0000 		.4byte	0x3c3d
 8810 3c32 10       		.uleb128 0x10
 8811 3c33 395D0000 		.4byte	0x5d39
 8812 3c37 0D       		.uleb128 0xd
 8813 3c38 3F5D0000 		.4byte	0x5d3f
 8814 3c3c 00       		.byte	0
 8815 3c3d 29       		.uleb128 0x29
 8816 3c3e AE2E0000 		.4byte	.LASF159
 8817 3c42 13       		.byte	0x13
 8818 3c43 0E02     		.2byte	0x20e
 8819 3c45 9D340000 		.4byte	.LASF582
 8820 3c49 5C4D0000 		.4byte	0x4d5c
 8821 3c4d 01       		.byte	0x1
 8822 3c4e 563C0000 		.4byte	0x3c56
 8823 3c52 613C0000 		.4byte	0x3c61
 8824 3c56 10       		.uleb128 0x10
 8825 3c57 395D0000 		.4byte	0x5d39
 8826 3c5b 0D       		.uleb128 0xd
 8827 3c5c 3F5D0000 		.4byte	0x5d3f
 8828 3c60 00       		.byte	0
 8829 3c61 29       		.uleb128 0x29
 8830 3c62 353E0000 		.4byte	.LASF161
 8831 3c66 13       		.byte	0x13
 8832 3c67 1F02     		.2byte	0x21f
 8833 3c69 E8030000 		.4byte	.LASF583
 8834 3c6d 25000000 		.4byte	0x25
 8835 3c71 01       		.byte	0x1
 8836 3c72 7A3C0000 		.4byte	0x3c7a
 8837 3c76 853C0000 		.4byte	0x3c85
 8838 3c7a 10       		.uleb128 0x10
 8839 3c7b 335D0000 		.4byte	0x5d33
 8840 3c7f 0D       		.uleb128 0xd
 8841 3c80 0D5D0000 		.4byte	0x5d0d
 8842 3c84 00       		.byte	0
 8843 3c85 29       		.uleb128 0x29
ARM GAS  /tmp/ccfWo18f.s 			page 157


 8844 3c86 A1570000 		.4byte	.LASF163
 8845 3c8a 13       		.byte	0x13
 8846 3c8b 2C02     		.2byte	0x22c
 8847 3c8d BC060000 		.4byte	.LASF584
 8848 3c91 5C4D0000 		.4byte	0x4d5c
 8849 3c95 01       		.byte	0x1
 8850 3c96 9E3C0000 		.4byte	0x3c9e
 8851 3c9a A93C0000 		.4byte	0x3ca9
 8852 3c9e 10       		.uleb128 0x10
 8853 3c9f 335D0000 		.4byte	0x5d33
 8854 3ca3 0D       		.uleb128 0xd
 8855 3ca4 0D5D0000 		.4byte	0x5d0d
 8856 3ca8 00       		.byte	0
 8857 3ca9 29       		.uleb128 0x29
 8858 3caa 9C3A0000 		.4byte	.LASF165
 8859 3cae 13       		.byte	0x13
 8860 3caf 3802     		.2byte	0x238
 8861 3cb1 300D0000 		.4byte	.LASF585
 8862 3cb5 455D0000 		.4byte	0x5d45
 8863 3cb9 01       		.byte	0x1
 8864 3cba C23C0000 		.4byte	0x3cc2
 8865 3cbe CD3C0000 		.4byte	0x3ccd
 8866 3cc2 10       		.uleb128 0x10
 8867 3cc3 335D0000 		.4byte	0x5d33
 8868 3cc7 0D       		.uleb128 0xd
 8869 3cc8 833B0000 		.4byte	0x3b83
 8870 3ccc 00       		.byte	0
 8871 3ccd 29       		.uleb128 0x29
 8872 3cce 9C3A0000 		.4byte	.LASF165
 8873 3cd2 13       		.byte	0x13
 8874 3cd3 4402     		.2byte	0x244
 8875 3cd5 B0050000 		.4byte	.LASF586
 8876 3cd9 455D0000 		.4byte	0x5d45
 8877 3cdd 01       		.byte	0x1
 8878 3cde E63C0000 		.4byte	0x3ce6
 8879 3ce2 F63C0000 		.4byte	0x3cf6
 8880 3ce6 10       		.uleb128 0x10
 8881 3ce7 335D0000 		.4byte	0x5d33
 8882 3ceb 0D       		.uleb128 0xd
 8883 3cec 8F3B0000 		.4byte	0x3b8f
 8884 3cf0 0D       		.uleb128 0xd
 8885 3cf1 67520000 		.4byte	0x5267
 8886 3cf5 00       		.byte	0
 8887 3cf6 29       		.uleb128 0x29
 8888 3cf7 7B110000 		.4byte	.LASF168
 8889 3cfb 13       		.byte	0x13
 8890 3cfc B301     		.2byte	0x1b3
 8891 3cfe AB420000 		.4byte	.LASF587
 8892 3d02 153D0000 		.4byte	0x3d15
 8893 3d06 01       		.byte	0x1
 8894 3d07 0F3D0000 		.4byte	0x3d0f
 8895 3d0b 153D0000 		.4byte	0x3d15
 8896 3d0f 10       		.uleb128 0x10
 8897 3d10 395D0000 		.4byte	0x5d39
 8898 3d14 00       		.byte	0
 8899 3d15 07       		.uleb128 0x7
 8900 3d16 043A0000 		.4byte	0x3a04
ARM GAS  /tmp/ccfWo18f.s 			page 158


 8901 3d1a 29       		.uleb128 0x29
 8902 3d1b EE360000 		.4byte	.LASF170
 8903 3d1f 13       		.byte	0x13
 8904 3d20 B701     		.2byte	0x1b7
 8905 3d22 F1100000 		.4byte	.LASF588
 8906 3d26 153D0000 		.4byte	0x3d15
 8907 3d2a 01       		.byte	0x1
 8908 3d2b 333D0000 		.4byte	0x3d33
 8909 3d2f 393D0000 		.4byte	0x3d39
 8910 3d33 10       		.uleb128 0x10
 8911 3d34 395D0000 		.4byte	0x5d39
 8912 3d38 00       		.byte	0
 8913 3d39 2A       		.uleb128 0x2a
 8914 3d3a 026F0000 		.4byte	.LASF172
 8915 3d3e 13       		.byte	0x13
 8916 3d3f BB01     		.2byte	0x1bb
 8917 3d41 99610000 		.4byte	.LASF589
 8918 3d45 01       		.byte	0x1
 8919 3d46 4E3D0000 		.4byte	0x3d4e
 8920 3d4a 593D0000 		.4byte	0x3d59
 8921 3d4e 10       		.uleb128 0x10
 8922 3d4f 395D0000 		.4byte	0x5d39
 8923 3d53 0D       		.uleb128 0xd
 8924 3d54 4B5D0000 		.4byte	0x5d4b
 8925 3d58 00       		.byte	0
 8926 3d59 29       		.uleb128 0x29
 8927 3d5a 7B110000 		.4byte	.LASF168
 8928 3d5e 13       		.byte	0x13
 8929 3d5f BF01     		.2byte	0x1bf
 8930 3d61 B3660000 		.4byte	.LASF590
 8931 3d65 783D0000 		.4byte	0x3d78
 8932 3d69 01       		.byte	0x1
 8933 3d6a 723D0000 		.4byte	0x3d72
 8934 3d6e 783D0000 		.4byte	0x3d78
 8935 3d72 10       		.uleb128 0x10
 8936 3d73 335D0000 		.4byte	0x5d33
 8937 3d77 00       		.byte	0
 8938 3d78 07       		.uleb128 0x7
 8939 3d79 093A0000 		.4byte	0x3a09
 8940 3d7d 29       		.uleb128 0x29
 8941 3d7e EE360000 		.4byte	.LASF170
 8942 3d82 13       		.byte	0x13
 8943 3d83 C301     		.2byte	0x1c3
 8944 3d85 45230000 		.4byte	.LASF591
 8945 3d89 783D0000 		.4byte	0x3d78
 8946 3d8d 01       		.byte	0x1
 8947 3d8e 963D0000 		.4byte	0x3d96
 8948 3d92 9C3D0000 		.4byte	0x3d9c
 8949 3d96 10       		.uleb128 0x10
 8950 3d97 335D0000 		.4byte	0x5d33
 8951 3d9b 00       		.byte	0
 8952 3d9c 2A       		.uleb128 0x2a
 8953 3d9d 026F0000 		.4byte	.LASF172
 8954 3da1 13       		.byte	0x13
 8955 3da2 C701     		.2byte	0x1c7
 8956 3da4 64050000 		.4byte	.LASF592
 8957 3da8 01       		.byte	0x1
ARM GAS  /tmp/ccfWo18f.s 			page 159


 8958 3da9 B13D0000 		.4byte	0x3db1
 8959 3dad BC3D0000 		.4byte	0x3dbc
 8960 3db1 10       		.uleb128 0x10
 8961 3db2 335D0000 		.4byte	0x5d33
 8962 3db6 0D       		.uleb128 0xd
 8963 3db7 515D0000 		.4byte	0x5d51
 8964 3dbb 00       		.byte	0
 8965 3dbc 29       		.uleb128 0x29
 8966 3dbd 30640000 		.4byte	.LASF177
 8967 3dc1 13       		.byte	0x13
 8968 3dc2 5302     		.2byte	0x253
 8969 3dc4 DB3B0000 		.4byte	.LASF593
 8970 3dc8 2D5D0000 		.4byte	0x5d2d
 8971 3dcc 01       		.byte	0x1
 8972 3dcd D53D0000 		.4byte	0x3dd5
 8973 3dd1 DB3D0000 		.4byte	0x3ddb
 8974 3dd5 10       		.uleb128 0x10
 8975 3dd6 335D0000 		.4byte	0x5d33
 8976 3dda 00       		.byte	0
 8977 3ddb 29       		.uleb128 0x29
 8978 3ddc D94E0000 		.4byte	.LASF179
 8979 3de0 13       		.byte	0x13
 8980 3de1 5D02     		.2byte	0x25d
 8981 3de3 CC630000 		.4byte	.LASF594
 8982 3de7 5C4D0000 		.4byte	0x4d5c
 8983 3deb 01       		.byte	0x1
 8984 3dec F43D0000 		.4byte	0x3df4
 8985 3df0 FA3D0000 		.4byte	0x3dfa
 8986 3df4 10       		.uleb128 0x10
 8987 3df5 335D0000 		.4byte	0x5d33
 8988 3df9 00       		.byte	0
 8989 3dfa 29       		.uleb128 0x29
 8990 3dfb 043B0000 		.4byte	.LASF109
 8991 3dff 13       		.byte	0x13
 8992 3e00 6702     		.2byte	0x267
 8993 3e02 1E260000 		.4byte	.LASF595
 8994 3e06 2C000000 		.4byte	0x2c
 8995 3e0a 01       		.byte	0x1
 8996 3e0b 133E0000 		.4byte	0x3e13
 8997 3e0f 193E0000 		.4byte	0x3e19
 8998 3e13 10       		.uleb128 0x10
 8999 3e14 335D0000 		.4byte	0x5d33
 9000 3e18 00       		.byte	0
 9001 3e19 2A       		.uleb128 0x2a
 9002 3e1a 71220000 		.4byte	.LASF182
 9003 3e1e 13       		.byte	0x13
 9004 3e1f 7602     		.2byte	0x276
 9005 3e21 D8680000 		.4byte	.LASF596
 9006 3e25 01       		.byte	0x1
 9007 3e26 2E3E0000 		.4byte	0x3e2e
 9008 3e2a 393E0000 		.4byte	0x3e39
 9009 3e2e 10       		.uleb128 0x10
 9010 3e2f 395D0000 		.4byte	0x5d39
 9011 3e33 0D       		.uleb128 0xd
 9012 3e34 3F5D0000 		.4byte	0x5d3f
 9013 3e38 00       		.byte	0
 9014 3e39 29       		.uleb128 0x29
ARM GAS  /tmp/ccfWo18f.s 			page 160


 9015 3e3a 6A150000 		.4byte	.LASF184
 9016 3e3e 13       		.byte	0x13
 9017 3e3f 8002     		.2byte	0x280
 9018 3e41 03610000 		.4byte	.LASF597
 9019 3e45 5C4D0000 		.4byte	0x4d5c
 9020 3e49 01       		.byte	0x1
 9021 3e4a 523E0000 		.4byte	0x3e52
 9022 3e4e 5D3E0000 		.4byte	0x3e5d
 9023 3e52 10       		.uleb128 0x10
 9024 3e53 395D0000 		.4byte	0x5d39
 9025 3e57 0D       		.uleb128 0xd
 9026 3e58 3F5D0000 		.4byte	0x5d3f
 9027 3e5c 00       		.byte	0
 9028 3e5d 29       		.uleb128 0x29
 9029 3e5e 56400000 		.4byte	.LASF186
 9030 3e62 13       		.byte	0x13
 9031 3e63 8A02     		.2byte	0x28a
 9032 3e65 CD1F0000 		.4byte	.LASF598
 9033 3e69 25000000 		.4byte	0x25
 9034 3e6d 01       		.byte	0x1
 9035 3e6e 763E0000 		.4byte	0x3e76
 9036 3e72 813E0000 		.4byte	0x3e81
 9037 3e76 10       		.uleb128 0x10
 9038 3e77 335D0000 		.4byte	0x5d33
 9039 3e7b 0D       		.uleb128 0xd
 9040 3e7c 0D5D0000 		.4byte	0x5d0d
 9041 3e80 00       		.byte	0
 9042 3e81 29       		.uleb128 0x29
 9043 3e82 3C290000 		.4byte	.LASF188
 9044 3e86 13       		.byte	0x13
 9045 3e87 9B02     		.2byte	0x29b
 9046 3e89 91260000 		.4byte	.LASF599
 9047 3e8d 5C4D0000 		.4byte	0x4d5c
 9048 3e91 01       		.byte	0x1
 9049 3e92 9A3E0000 		.4byte	0x3e9a
 9050 3e96 A53E0000 		.4byte	0x3ea5
 9051 3e9a 10       		.uleb128 0x10
 9052 3e9b 335D0000 		.4byte	0x5d33
 9053 3e9f 0D       		.uleb128 0xd
 9054 3ea0 0D5D0000 		.4byte	0x5d0d
 9055 3ea4 00       		.byte	0
 9056 3ea5 29       		.uleb128 0x29
 9057 3ea6 F2430000 		.4byte	.LASF190
 9058 3eaa 13       		.byte	0x13
 9059 3eab AC02     		.2byte	0x2ac
 9060 3ead 5F600000 		.4byte	.LASF600
 9061 3eb1 455D0000 		.4byte	0x5d45
 9062 3eb5 01       		.byte	0x1
 9063 3eb6 BE3E0000 		.4byte	0x3ebe
 9064 3eba C93E0000 		.4byte	0x3ec9
 9065 3ebe 10       		.uleb128 0x10
 9066 3ebf 335D0000 		.4byte	0x5d33
 9067 3ec3 0D       		.uleb128 0xd
 9068 3ec4 833B0000 		.4byte	0x3b83
 9069 3ec8 00       		.byte	0
 9070 3ec9 29       		.uleb128 0x29
 9071 3eca F2430000 		.4byte	.LASF190
ARM GAS  /tmp/ccfWo18f.s 			page 161


 9072 3ece 13       		.byte	0x13
 9073 3ecf BC02     		.2byte	0x2bc
 9074 3ed1 8E040000 		.4byte	.LASF601
 9075 3ed5 455D0000 		.4byte	0x5d45
 9076 3ed9 01       		.byte	0x1
 9077 3eda E23E0000 		.4byte	0x3ee2
 9078 3ede F23E0000 		.4byte	0x3ef2
 9079 3ee2 10       		.uleb128 0x10
 9080 3ee3 335D0000 		.4byte	0x5d33
 9081 3ee7 0D       		.uleb128 0xd
 9082 3ee8 8F3B0000 		.4byte	0x3b8f
 9083 3eec 0D       		.uleb128 0xd
 9084 3eed 67520000 		.4byte	0x5267
 9085 3ef1 00       		.byte	0
 9086 3ef2 29       		.uleb128 0x29
 9087 3ef3 3C6E0000 		.4byte	.LASF193
 9088 3ef7 13       		.byte	0x13
 9089 3ef8 E001     		.2byte	0x1e0
 9090 3efa E1540000 		.4byte	.LASF602
 9091 3efe 113F0000 		.4byte	0x3f11
 9092 3f02 01       		.byte	0x1
 9093 3f03 0B3F0000 		.4byte	0x3f0b
 9094 3f07 113F0000 		.4byte	0x3f11
 9095 3f0b 10       		.uleb128 0x10
 9096 3f0c 395D0000 		.4byte	0x5d39
 9097 3f10 00       		.byte	0
 9098 3f11 07       		.uleb128 0x7
 9099 3f12 0E3A0000 		.4byte	0x3a0e
 9100 3f16 2B       		.uleb128 0x2b
 9101 3f17 656E6400 		.ascii	"end\000"
 9102 3f1b 13       		.byte	0x13
 9103 3f1c E401     		.2byte	0x1e4
 9104 3f1e D50E0000 		.4byte	.LASF603
 9105 3f22 113F0000 		.4byte	0x3f11
 9106 3f26 01       		.byte	0x1
 9107 3f27 2F3F0000 		.4byte	0x3f2f
 9108 3f2b 353F0000 		.4byte	0x3f35
 9109 3f2f 10       		.uleb128 0x10
 9110 3f30 395D0000 		.4byte	0x5d39
 9111 3f34 00       		.byte	0
 9112 3f35 2A       		.uleb128 0x2a
 9113 3f36 11140000 		.4byte	.LASF195
 9114 3f3a 13       		.byte	0x13
 9115 3f3b E801     		.2byte	0x1e8
 9116 3f3d 105E0000 		.4byte	.LASF604
 9117 3f41 01       		.byte	0x1
 9118 3f42 4A3F0000 		.4byte	0x3f4a
 9119 3f46 553F0000 		.4byte	0x3f55
 9120 3f4a 10       		.uleb128 0x10
 9121 3f4b 395D0000 		.4byte	0x5d39
 9122 3f4f 0D       		.uleb128 0xd
 9123 3f50 575D0000 		.4byte	0x5d57
 9124 3f54 00       		.byte	0
 9125 3f55 29       		.uleb128 0x29
 9126 3f56 3C6E0000 		.4byte	.LASF193
 9127 3f5a 13       		.byte	0x13
 9128 3f5b EC01     		.2byte	0x1ec
ARM GAS  /tmp/ccfWo18f.s 			page 162


 9129 3f5d 83420000 		.4byte	.LASF605
 9130 3f61 743F0000 		.4byte	0x3f74
 9131 3f65 01       		.byte	0x1
 9132 3f66 6E3F0000 		.4byte	0x3f6e
 9133 3f6a 743F0000 		.4byte	0x3f74
 9134 3f6e 10       		.uleb128 0x10
 9135 3f6f 335D0000 		.4byte	0x5d33
 9136 3f73 00       		.byte	0
 9137 3f74 07       		.uleb128 0x7
 9138 3f75 133A0000 		.4byte	0x3a13
 9139 3f79 2B       		.uleb128 0x2b
 9140 3f7a 656E6400 		.ascii	"end\000"
 9141 3f7e 13       		.byte	0x13
 9142 3f7f F201     		.2byte	0x1f2
 9143 3f81 2F2C0000 		.4byte	.LASF606
 9144 3f85 743F0000 		.4byte	0x3f74
 9145 3f89 01       		.byte	0x1
 9146 3f8a 923F0000 		.4byte	0x3f92
 9147 3f8e 983F0000 		.4byte	0x3f98
 9148 3f92 10       		.uleb128 0x10
 9149 3f93 335D0000 		.4byte	0x5d33
 9150 3f97 00       		.byte	0
 9151 3f98 2A       		.uleb128 0x2a
 9152 3f99 11140000 		.4byte	.LASF195
 9153 3f9d 13       		.byte	0x13
 9154 3f9e F601     		.2byte	0x1f6
 9155 3fa0 800E0000 		.4byte	.LASF607
 9156 3fa4 01       		.byte	0x1
 9157 3fa5 AD3F0000 		.4byte	0x3fad
 9158 3fa9 B83F0000 		.4byte	0x3fb8
 9159 3fad 10       		.uleb128 0x10
 9160 3fae 335D0000 		.4byte	0x5d33
 9161 3fb2 0D       		.uleb128 0xd
 9162 3fb3 5D5D0000 		.4byte	0x5d5d
 9163 3fb7 00       		.byte	0
 9164 3fb8 2C       		.uleb128 0x2c
 9165 3fb9 AF110000 		.4byte	.LASF201
 9166 3fbd 13       		.byte	0x13
 9167 3fbe FA01     		.2byte	0x1fa
 9168 3fc0 395D0000 		.4byte	0x5d39
 9169 3fc4 01       		.byte	0x1
 9170 3fc5 CD3F0000 		.4byte	0x3fcd
 9171 3fc9 D33F0000 		.4byte	0x3fd3
 9172 3fcd 10       		.uleb128 0x10
 9173 3fce 395D0000 		.4byte	0x5d39
 9174 3fd2 00       		.byte	0
 9175 3fd3 07       		.uleb128 0x7
 9176 3fd4 FF390000 		.4byte	0x39ff
 9177 3fd8 24       		.uleb128 0x24
 9178 3fd9 19260000 		.4byte	.LASF202
 9179 3fdd E73F0000 		.4byte	0x3fe7
 9180 3fe1 00       		.byte	0
 9181 3fe2 07       		.uleb128 0x7
 9182 3fe3 E73F0000 		.4byte	0x3fe7
 9183 3fe7 0E       		.uleb128 0xe
 9184 3fe8 D51B0000 		.4byte	.LASF608
 9185 3fec 1C       		.byte	0x1c
ARM GAS  /tmp/ccfWo18f.s 			page 163


 9186 3fed 20       		.byte	0x20
 9187 3fee 15       		.byte	0x15
 9188 3fef 2E420000 		.4byte	0x422e
 9189 3ff3 13       		.uleb128 0x13
 9190 3ff4 79010000 		.4byte	0x179
 9191 3ff8 00       		.byte	0
 9192 3ff9 1D       		.uleb128 0x1d
 9193 3ffa 23220000 		.4byte	.LASF434
 9194 3ffe 20       		.byte	0x20
 9195 3fff 19       		.byte	0x19
 9196 4000 365C0000 		.4byte	0x5c36
 9197 4004 00       		.byte	0
 9198 4005 1D       		.uleb128 0x1d
 9199 4006 D8360000 		.4byte	.LASF609
 9200 400a 20       		.byte	0x20
 9201 400b 1A       		.byte	0x1a
 9202 400c 88310000 		.4byte	0x3188
 9203 4010 04       		.byte	0x4
 9204 4011 1D       		.uleb128 0x1d
 9205 4012 601E0000 		.4byte	.LASF610
 9206 4016 20       		.byte	0x20
 9207 4017 1B       		.byte	0x1b
 9208 4018 BE200000 		.4byte	0x20be
 9209 401c 08       		.byte	0x8
 9210 401d 1D       		.uleb128 0x1d
 9211 401e AB000000 		.4byte	.LASF611
 9212 4022 20       		.byte	0x20
 9213 4023 1C       		.byte	0x1c
 9214 4024 B7380000 		.4byte	0x38b7
 9215 4028 0C       		.byte	0xc
 9216 4029 1D       		.uleb128 0x1d
 9217 402a E61B0000 		.4byte	.LASF612
 9218 402e 20       		.byte	0x20
 9219 402f 1D       		.byte	0x1d
 9220 4030 66020000 		.4byte	0x266
 9221 4034 10       		.byte	0x10
 9222 4035 1D       		.uleb128 0x1d
 9223 4036 F75F0000 		.4byte	.LASF442
 9224 403a 20       		.byte	0x20
 9225 403b 1F       		.byte	0x1f
 9226 403c B2390000 		.4byte	0x39b2
 9227 4040 14       		.byte	0x14
 9228 4041 18       		.uleb128 0x18
 9229 4042 09420000 		.4byte	.LASF301
 9230 4046 20       		.byte	0x20
 9231 4047 22       		.byte	0x22
 9232 4048 F8650000 		.4byte	.LASF613
 9233 404c C3000000 		.4byte	0xc3
 9234 4050 01       		.byte	0x1
 9235 4051 59400000 		.4byte	0x4059
 9236 4055 5F400000 		.4byte	0x405f
 9237 4059 10       		.uleb128 0x10
 9238 405a 6E5D0000 		.4byte	0x5d6e
 9239 405e 00       		.byte	0
 9240 405f 18       		.uleb128 0x18
 9241 4060 1E690000 		.4byte	.LASF614
 9242 4064 20       		.byte	0x20
ARM GAS  /tmp/ccfWo18f.s 			page 164


 9243 4065 23       		.byte	0x23
 9244 4066 5E2D0000 		.4byte	.LASF615
 9245 406a 745D0000 		.4byte	0x5d74
 9246 406e 01       		.byte	0x1
 9247 406f 77400000 		.4byte	0x4077
 9248 4073 7D400000 		.4byte	0x407d
 9249 4077 10       		.uleb128 0x10
 9250 4078 6E5D0000 		.4byte	0x5d6e
 9251 407c 00       		.byte	0
 9252 407d 18       		.uleb128 0x18
 9253 407e A2390000 		.4byte	.LASF616
 9254 4082 20       		.byte	0x20
 9255 4083 24       		.byte	0x24
 9256 4084 AE470000 		.4byte	.LASF617
 9257 4088 7A5D0000 		.4byte	0x5d7a
 9258 408c 01       		.byte	0x1
 9259 408d 95400000 		.4byte	0x4095
 9260 4091 9B400000 		.4byte	0x409b
 9261 4095 10       		.uleb128 0x10
 9262 4096 6E5D0000 		.4byte	0x5d6e
 9263 409a 00       		.byte	0
 9264 409b 18       		.uleb128 0x18
 9265 409c 3F6C0000 		.4byte	.LASF618
 9266 40a0 20       		.byte	0x20
 9267 40a1 25       		.byte	0x25
 9268 40a2 E40A0000 		.4byte	.LASF619
 9269 40a6 5C4D0000 		.4byte	0x4d5c
 9270 40aa 01       		.byte	0x1
 9271 40ab B3400000 		.4byte	0x40b3
 9272 40af B9400000 		.4byte	0x40b9
 9273 40b3 10       		.uleb128 0x10
 9274 40b4 6E5D0000 		.4byte	0x5d6e
 9275 40b8 00       		.byte	0
 9276 40b9 20       		.uleb128 0x20
 9277 40ba 593E0000 		.4byte	.LASF620
 9278 40be 20       		.byte	0x20
 9279 40bf 26       		.byte	0x26
 9280 40c0 F1180000 		.4byte	.LASF621
 9281 40c4 01       		.byte	0x1
 9282 40c5 CD400000 		.4byte	0x40cd
 9283 40c9 D8400000 		.4byte	0x40d8
 9284 40cd 10       		.uleb128 0x10
 9285 40ce 455D0000 		.4byte	0x5d45
 9286 40d2 0D       		.uleb128 0xd
 9287 40d3 5C4D0000 		.4byte	0x4d5c
 9288 40d7 00       		.byte	0
 9289 40d8 20       		.uleb128 0x20
 9290 40d9 62290000 		.4byte	.LASF622
 9291 40dd 20       		.byte	0x20
 9292 40de 32       		.byte	0x32
 9293 40df A8190000 		.4byte	.LASF623
 9294 40e3 01       		.byte	0x1
 9295 40e4 EC400000 		.4byte	0x40ec
 9296 40e8 F7400000 		.4byte	0x40f7
 9297 40ec 10       		.uleb128 0x10
 9298 40ed 455D0000 		.4byte	0x5d45
 9299 40f1 0D       		.uleb128 0xd
ARM GAS  /tmp/ccfWo18f.s 			page 165


 9300 40f2 37000000 		.4byte	0x37
 9301 40f6 00       		.byte	0
 9302 40f7 20       		.uleb128 0x20
 9303 40f8 132B0000 		.4byte	.LASF624
 9304 40fc 20       		.byte	0x20
 9305 40fd 33       		.byte	0x33
 9306 40fe 451B0000 		.4byte	.LASF625
 9307 4102 01       		.byte	0x1
 9308 4103 0B410000 		.4byte	0x410b
 9309 4107 11410000 		.4byte	0x4111
 9310 410b 10       		.uleb128 0x10
 9311 410c 455D0000 		.4byte	0x5d45
 9312 4110 00       		.byte	0
 9313 4111 20       		.uleb128 0x20
 9314 4112 88320000 		.4byte	.LASF626
 9315 4116 20       		.byte	0x20
 9316 4117 35       		.byte	0x35
 9317 4118 2E540000 		.4byte	.LASF627
 9318 411c 01       		.byte	0x1
 9319 411d 25410000 		.4byte	0x4125
 9320 4121 30410000 		.4byte	0x4130
 9321 4125 10       		.uleb128 0x10
 9322 4126 455D0000 		.4byte	0x5d45
 9323 412a 0D       		.uleb128 0xd
 9324 412b 37000000 		.4byte	0x37
 9325 412f 00       		.byte	0
 9326 4130 20       		.uleb128 0x20
 9327 4131 291B0000 		.4byte	.LASF628
 9328 4135 20       		.byte	0x20
 9329 4136 36       		.byte	0x36
 9330 4137 68620000 		.4byte	.LASF629
 9331 413b 01       		.byte	0x1
 9332 413c 44410000 		.4byte	0x4144
 9333 4140 4A410000 		.4byte	0x414a
 9334 4144 10       		.uleb128 0x10
 9335 4145 455D0000 		.4byte	0x5d45
 9336 4149 00       		.byte	0
 9337 414a 18       		.uleb128 0x18
 9338 414b F7500000 		.4byte	.LASF630
 9339 414f 20       		.byte	0x20
 9340 4150 38       		.byte	0x38
 9341 4151 1E290000 		.4byte	.LASF631
 9342 4155 5C4D0000 		.4byte	0x4d5c
 9343 4159 01       		.byte	0x1
 9344 415a 62410000 		.4byte	0x4162
 9345 415e 6D410000 		.4byte	0x416d
 9346 4162 10       		.uleb128 0x10
 9347 4163 455D0000 		.4byte	0x5d45
 9348 4167 0D       		.uleb128 0xd
 9349 4168 87520000 		.4byte	0x5287
 9350 416c 00       		.byte	0
 9351 416d 1E       		.uleb128 0x1e
 9352 416e B2500000 		.4byte	.LASF494
 9353 4172 20       		.byte	0x20
 9354 4173 3B       		.byte	0x3b
 9355 4174 6D180000 		.4byte	.LASF632
 9356 4178 5C4D0000 		.4byte	0x4d5c
ARM GAS  /tmp/ccfWo18f.s 			page 166


 9357 417c 84410000 		.4byte	0x4184
 9358 4180 9E410000 		.4byte	0x419e
 9359 4184 10       		.uleb128 0x10
 9360 4185 455D0000 		.4byte	0x5d45
 9361 4189 0D       		.uleb128 0xd
 9362 418a 415C0000 		.4byte	0x5c41
 9363 418e 0D       		.uleb128 0xd
 9364 418f C3000000 		.4byte	0xc3
 9365 4193 0D       		.uleb128 0xd
 9366 4194 87520000 		.4byte	0x5287
 9367 4198 0D       		.uleb128 0xd
 9368 4199 2C000000 		.4byte	0x2c
 9369 419d 00       		.byte	0
 9370 419e 1E       		.uleb128 0x1e
 9371 419f 0F6A0000 		.4byte	.LASF497
 9372 41a3 20       		.byte	0x20
 9373 41a4 3D       		.byte	0x3d
 9374 41a5 DA6C0000 		.4byte	.LASF633
 9375 41a9 5C4D0000 		.4byte	0x4d5c
 9376 41ad B5410000 		.4byte	0x41b5
 9377 41b1 CF410000 		.4byte	0x41cf
 9378 41b5 10       		.uleb128 0x10
 9379 41b6 455D0000 		.4byte	0x5d45
 9380 41ba 0D       		.uleb128 0xd
 9381 41bb 4D5C0000 		.4byte	0x5c4d
 9382 41bf 0D       		.uleb128 0xd
 9383 41c0 C3000000 		.4byte	0xc3
 9384 41c4 0D       		.uleb128 0xd
 9385 41c5 8D520000 		.4byte	0x528d
 9386 41c9 0D       		.uleb128 0xd
 9387 41ca 2C000000 		.4byte	0x2c
 9388 41ce 00       		.byte	0
 9389 41cf 11       		.uleb128 0x11
 9390 41d0 D51B0000 		.4byte	.LASF608
 9391 41d4 20       		.byte	0x20
 9392 41d5 41       		.byte	0x41
 9393 41d6 455D0000 		.4byte	0x5d45
 9394 41da 01       		.byte	0x1
 9395 41db E3410000 		.4byte	0x41e3
 9396 41df F3410000 		.4byte	0x41f3
 9397 41e3 10       		.uleb128 0x10
 9398 41e4 455D0000 		.4byte	0x5d45
 9399 41e8 0D       		.uleb128 0xd
 9400 41e9 C3000000 		.4byte	0xc3
 9401 41ed 0D       		.uleb128 0xd
 9402 41ee 5C4D0000 		.4byte	0x4d5c
 9403 41f2 00       		.byte	0
 9404 41f3 11       		.uleb128 0x11
 9405 41f4 C6410000 		.4byte	.LASF634
 9406 41f8 20       		.byte	0x20
 9407 41f9 42       		.byte	0x42
 9408 41fa B4000000 		.4byte	0xb4
 9409 41fe 01       		.byte	0x1
 9410 41ff 07420000 		.4byte	0x4207
 9411 4203 12420000 		.4byte	0x4212
 9412 4207 10       		.uleb128 0x10
 9413 4208 455D0000 		.4byte	0x5d45
ARM GAS  /tmp/ccfWo18f.s 			page 167


 9414 420c 10       		.uleb128 0x10
 9415 420d 25000000 		.4byte	0x25
 9416 4211 00       		.byte	0
 9417 4212 23       		.uleb128 0x23
 9418 4213 04560000 		.4byte	.LASF502
 9419 4217 20       		.byte	0x20
 9420 4218 45       		.byte	0x45
 9421 4219 44410000 		.4byte	.LASF635
 9422 421d 5C4D0000 		.4byte	0x4d5c
 9423 4221 01       		.byte	0x1
 9424 4222 0D       		.uleb128 0xd
 9425 4223 0D5D0000 		.4byte	0x5d0d
 9426 4227 0D       		.uleb128 0xd
 9427 4228 C3000000 		.4byte	0xc3
 9428 422c 00       		.byte	0
 9429 422d 00       		.byte	0
 9430 422e 07       		.uleb128 0x7
 9431 422f A0390000 		.4byte	0x39a0
 9432 4233 0E       		.uleb128 0xe
 9433 4234 020D0000 		.4byte	.LASF636
 9434 4238 10       		.byte	0x10
 9435 4239 0E       		.byte	0xe
 9436 423a 0A       		.byte	0xa
 9437 423b 72430000 		.4byte	0x4372
 9438 423f 13       		.uleb128 0x13
 9439 4240 79010000 		.4byte	0x179
 9440 4244 00       		.byte	0
 9441 4245 1D       		.uleb128 0x1d
 9442 4246 121F0000 		.4byte	.LASF66
 9443 424a 0E       		.byte	0xe
 9444 424b 0C       		.byte	0xc
 9445 424c 6A1D0000 		.4byte	0x1d6a
 9446 4250 04       		.byte	0x4
 9447 4251 18       		.uleb128 0x18
 9448 4252 CB4E0000 		.4byte	.LASF326
 9449 4256 0E       		.byte	0xe
 9450 4257 29       		.byte	0x29
 9451 4258 BC1C0000 		.4byte	.LASF637
 9452 425c 2C000000 		.4byte	0x2c
 9453 4260 01       		.byte	0x1
 9454 4261 69420000 		.4byte	0x4269
 9455 4265 6F420000 		.4byte	0x426f
 9456 4269 10       		.uleb128 0x10
 9457 426a 855D0000 		.4byte	0x5d85
 9458 426e 00       		.byte	0
 9459 426f 18       		.uleb128 0x18
 9460 4270 0F2F0000 		.4byte	.LASF330
 9461 4274 0E       		.byte	0xe
 9462 4275 3A       		.byte	0x3a
 9463 4276 EC4E0000 		.4byte	.LASF638
 9464 427a D05A0000 		.4byte	0x5ad0
 9465 427e 01       		.byte	0x1
 9466 427f 87420000 		.4byte	0x4287
 9467 4283 8D420000 		.4byte	0x428d
 9468 4287 10       		.uleb128 0x10
 9469 4288 8B5D0000 		.4byte	0x5d8b
 9470 428c 00       		.byte	0
ARM GAS  /tmp/ccfWo18f.s 			page 168


 9471 428d 20       		.uleb128 0x20
 9472 428e F1170000 		.4byte	.LASF332
 9473 4292 0E       		.byte	0xe
 9474 4293 42       		.byte	0x42
 9475 4294 176F0000 		.4byte	.LASF639
 9476 4298 01       		.byte	0x1
 9477 4299 A1420000 		.4byte	0x42a1
 9478 429d AC420000 		.4byte	0x42ac
 9479 42a1 10       		.uleb128 0x10
 9480 42a2 8B5D0000 		.4byte	0x5d8b
 9481 42a6 0D       		.uleb128 0xd
 9482 42a7 D05A0000 		.4byte	0x5ad0
 9483 42ab 00       		.byte	0
 9484 42ac 18       		.uleb128 0x18
 9485 42ad AE430000 		.4byte	.LASF334
 9486 42b1 0E       		.byte	0xe
 9487 42b2 4A       		.byte	0x4a
 9488 42b3 AA460000 		.4byte	.LASF640
 9489 42b7 D05A0000 		.4byte	0x5ad0
 9490 42bb 01       		.byte	0x1
 9491 42bc C4420000 		.4byte	0x42c4
 9492 42c0 CA420000 		.4byte	0x42ca
 9493 42c4 10       		.uleb128 0x10
 9494 42c5 8B5D0000 		.4byte	0x5d8b
 9495 42c9 00       		.byte	0
 9496 42ca 20       		.uleb128 0x20
 9497 42cb AA110000 		.4byte	.LASF336
 9498 42cf 0E       		.byte	0xe
 9499 42d0 52       		.byte	0x52
 9500 42d1 50380000 		.4byte	.LASF641
 9501 42d5 01       		.byte	0x1
 9502 42d6 DE420000 		.4byte	0x42de
 9503 42da E9420000 		.4byte	0x42e9
 9504 42de 10       		.uleb128 0x10
 9505 42df 8B5D0000 		.4byte	0x5d8b
 9506 42e3 0D       		.uleb128 0xd
 9507 42e4 D05A0000 		.4byte	0x5ad0
 9508 42e8 00       		.byte	0
 9509 42e9 20       		.uleb128 0x20
 9510 42ea 855D0000 		.4byte	.LASF338
 9511 42ee 0E       		.byte	0xe
 9512 42ef 5A       		.byte	0x5a
 9513 42f0 321F0000 		.4byte	.LASF642
 9514 42f4 01       		.byte	0x1
 9515 42f5 FD420000 		.4byte	0x42fd
 9516 42f9 0D430000 		.4byte	0x430d
 9517 42fd 10       		.uleb128 0x10
 9518 42fe 8B5D0000 		.4byte	0x5d8b
 9519 4302 0D       		.uleb128 0xd
 9520 4303 D05A0000 		.4byte	0x5ad0
 9521 4307 0D       		.uleb128 0xd
 9522 4308 2C000000 		.4byte	0x2c
 9523 430c 00       		.byte	0
 9524 430d 11       		.uleb128 0x11
 9525 430e 77520000 		.4byte	.LASF643
 9526 4312 0E       		.byte	0xe
 9527 4313 62       		.byte	0x62
ARM GAS  /tmp/ccfWo18f.s 			page 169


 9528 4314 8B5D0000 		.4byte	0x5d8b
 9529 4318 01       		.byte	0x1
 9530 4319 21430000 		.4byte	0x4321
 9531 431d 27430000 		.4byte	0x4327
 9532 4321 10       		.uleb128 0x10
 9533 4322 8B5D0000 		.4byte	0x5d8b
 9534 4326 00       		.byte	0
 9535 4327 11       		.uleb128 0x11
 9536 4328 77520000 		.4byte	.LASF643
 9537 432c 0E       		.byte	0xe
 9538 432d 6C       		.byte	0x6c
 9539 432e 8B5D0000 		.4byte	0x5d8b
 9540 4332 01       		.byte	0x1
 9541 4333 3B430000 		.4byte	0x433b
 9542 4337 4B430000 		.4byte	0x434b
 9543 433b 10       		.uleb128 0x10
 9544 433c 8B5D0000 		.4byte	0x5d8b
 9545 4340 0D       		.uleb128 0xd
 9546 4341 D05A0000 		.4byte	0x5ad0
 9547 4345 0D       		.uleb128 0xd
 9548 4346 2C000000 		.4byte	0x2c
 9549 434a 00       		.byte	0
 9550 434b 31       		.uleb128 0x31
 9551 434c 5F4A0000 		.4byte	.LASF644
 9552 4350 B4000000 		.4byte	0xb4
 9553 4354 01       		.byte	0x1
 9554 4355 5D430000 		.4byte	0x435d
 9555 4359 68430000 		.4byte	0x4368
 9556 435d 10       		.uleb128 0x10
 9557 435e 8B5D0000 		.4byte	0x5d8b
 9558 4362 10       		.uleb128 0x10
 9559 4363 25000000 		.4byte	0x25
 9560 4367 00       		.byte	0
 9561 4368 24       		.uleb128 0x24
 9562 4369 19260000 		.4byte	.LASF202
 9563 436d AA580000 		.4byte	0x58aa
 9564 4371 00       		.byte	0
 9565 4372 07       		.uleb128 0x7
 9566 4373 33420000 		.4byte	0x4233
 9567 4377 3F       		.uleb128 0x3f
 9568 4378 73230000 		.4byte	.LASF645
 9569 437c 3C02     		.2byte	0x23c
 9570 437e 21       		.byte	0x21
 9571 437f 16       		.byte	0x16
 9572 4380 26150000 		.4byte	0x1526
 9573 4384 99450000 		.4byte	0x4599
 9574 4388 40       		.uleb128 0x40
 9575 4389 01       		.byte	0x1
 9576 438a 21       		.byte	0x21
 9577 438b 1F       		.byte	0x1f
 9578 438c 97430000 		.4byte	0x4397
 9579 4390 41       		.uleb128 0x41
 9580 4391 223E0000 		.4byte	.LASF898
 9581 4395 04       		.sleb128 4
 9582 4396 00       		.byte	0
 9583 4397 33       		.uleb128 0x33
 9584 4398 26150000 		.4byte	0x1526
ARM GAS  /tmp/ccfWo18f.s 			page 170


 9585 439c 00       		.byte	0
 9586 439d 01       		.byte	0x1
 9587 439e 1D       		.uleb128 0x1d
 9588 439f 98100000 		.4byte	.LASF646
 9589 43a3 21       		.byte	0x21
 9590 43a4 18       		.byte	0x18
 9591 43a5 525E0000 		.4byte	0x5e52
 9592 43a9 40       		.byte	0x40
 9593 43aa 1D       		.uleb128 0x1d
 9594 43ab 9C6B0000 		.4byte	.LASF647
 9595 43af 21       		.byte	0x21
 9596 43b0 1A       		.byte	0x1a
 9597 43b1 5D5E0000 		.4byte	0x5e5d
 9598 43b5 44       		.byte	0x44
 9599 43b6 42       		.uleb128 0x42
 9600 43b7 AF170000 		.4byte	.LASF648
 9601 43bb 21       		.byte	0x21
 9602 43bc 1B       		.byte	0x1b
 9603 43bd 33420000 		.4byte	0x4233
 9604 43c1 7001     		.2byte	0x170
 9605 43c3 42       		.uleb128 0x42
 9606 43c4 082B0000 		.4byte	.LASF649
 9607 43c8 21       		.byte	0x21
 9608 43c9 1D       		.byte	0x1d
 9609 43ca 0B1A0000 		.4byte	0x1a0b
 9610 43ce 8001     		.2byte	0x180
 9611 43d0 42       		.uleb128 0x42
 9612 43d1 035A0000 		.4byte	.LASF650
 9613 43d5 21       		.byte	0x21
 9614 43d6 20       		.byte	0x20
 9615 43d7 6D5E0000 		.4byte	0x5e6d
 9616 43db 8C01     		.2byte	0x18c
 9617 43dd 42       		.uleb128 0x42
 9618 43de F7580000 		.4byte	.LASF651
 9619 43e2 21       		.byte	0x21
 9620 43e3 21       		.byte	0x21
 9621 43e4 7D5E0000 		.4byte	0x5e7d
 9622 43e8 1402     		.2byte	0x214
 9623 43ea 42       		.uleb128 0x42
 9624 43eb 98390000 		.4byte	.LASF652
 9625 43ef 21       		.byte	0x21
 9626 43f0 22       		.byte	0x22
 9627 43f1 8D5E0000 		.4byte	0x5e8d
 9628 43f5 3402     		.2byte	0x234
 9629 43f7 42       		.uleb128 0x42
 9630 43f8 286E0000 		.4byte	.LASF653
 9631 43fc 21       		.byte	0x21
 9632 43fd 23       		.byte	0x23
 9633 43fe 935E0000 		.4byte	0x5e93
 9634 4402 3802     		.2byte	0x238
 9635 4404 31       		.uleb128 0x31
 9636 4405 73230000 		.4byte	.LASF645
 9637 4409 995E0000 		.4byte	0x5e99
 9638 440d 01       		.byte	0x1
 9639 440e 16440000 		.4byte	0x4416
 9640 4412 21440000 		.4byte	0x4421
 9641 4416 10       		.uleb128 0x10
ARM GAS  /tmp/ccfWo18f.s 			page 171


 9642 4417 995E0000 		.4byte	0x5e99
 9643 441b 0D       		.uleb128 0xd
 9644 441c 9F5E0000 		.4byte	0x5e9f
 9645 4420 00       		.byte	0
 9646 4421 18       		.uleb128 0x18
 9647 4422 72520000 		.4byte	.LASF654
 9648 4426 0D       		.byte	0xd
 9649 4427 0E       		.byte	0xe
 9650 4428 DA440000 		.4byte	.LASF655
 9651 442c 5C4D0000 		.4byte	0x4d5c
 9652 4430 01       		.byte	0x1
 9653 4431 39440000 		.4byte	0x4439
 9654 4435 49440000 		.4byte	0x4449
 9655 4439 10       		.uleb128 0x10
 9656 443a 995E0000 		.4byte	0x5e99
 9657 443e 0D       		.uleb128 0xd
 9658 443f 8D520000 		.4byte	0x528d
 9659 4443 0D       		.uleb128 0xd
 9660 4444 8D5E0000 		.4byte	0x5e8d
 9661 4448 00       		.byte	0
 9662 4449 18       		.uleb128 0x18
 9663 444a F2080000 		.4byte	.LASF656
 9664 444e 0D       		.byte	0xd
 9665 444f 8D       		.byte	0x8d
 9666 4450 35090000 		.4byte	.LASF657
 9667 4454 1A5A0000 		.4byte	0x5a1a
 9668 4458 01       		.byte	0x1
 9669 4459 61440000 		.4byte	0x4461
 9670 445d 6C440000 		.4byte	0x446c
 9671 4461 10       		.uleb128 0x10
 9672 4462 A55E0000 		.4byte	0x5ea5
 9673 4466 0D       		.uleb128 0xd
 9674 4467 D55B0000 		.4byte	0x5bd5
 9675 446b 00       		.byte	0
 9676 446c 20       		.uleb128 0x20
 9677 446d A5530000 		.4byte	.LASF124
 9678 4471 0D       		.byte	0xd
 9679 4472 75       		.byte	0x75
 9680 4473 62690000 		.4byte	.LASF658
 9681 4477 01       		.byte	0x1
 9682 4478 80440000 		.4byte	0x4480
 9683 447c 8B440000 		.4byte	0x448b
 9684 4480 10       		.uleb128 0x10
 9685 4481 995E0000 		.4byte	0x5e99
 9686 4485 0D       		.uleb128 0xd
 9687 4486 AB5E0000 		.4byte	0x5eab
 9688 448a 00       		.byte	0
 9689 448b 43       		.uleb128 0x43
 9690 448c 57130000 		.4byte	.LASF659
 9691 4490 0D       		.byte	0xd
 9692 4491 71       		.byte	0x71
 9693 4492 E1390000 		.4byte	.LASF661
 9694 4496 01       		.byte	0x1
 9695 4497 02       		.uleb128 0x2
 9696 4498 10       		.byte	0x10
 9697 4499 00       		.uleb128 0
 9698 449a 77430000 		.4byte	0x4377
ARM GAS  /tmp/ccfWo18f.s 			page 172


 9699 449e 01       		.byte	0x1
 9700 449f A7440000 		.4byte	0x44a7
 9701 44a3 B7440000 		.4byte	0x44b7
 9702 44a7 10       		.uleb128 0x10
 9703 44a8 995E0000 		.4byte	0x5e99
 9704 44ac 0D       		.uleb128 0xd
 9705 44ad D55B0000 		.4byte	0x5bd5
 9706 44b1 0D       		.uleb128 0xd
 9707 44b2 4A520000 		.4byte	0x524a
 9708 44b6 00       		.byte	0
 9709 44b7 44       		.uleb128 0x44
 9710 44b8 C34C0000 		.4byte	.LASF660
 9711 44bc 0D       		.byte	0xd
 9712 44bd 4F       		.byte	0x4f
 9713 44be 9E2B0000 		.4byte	.LASF662
 9714 44c2 CF520000 		.4byte	0x52cf
 9715 44c6 01       		.byte	0x1
 9716 44c7 02       		.uleb128 0x2
 9717 44c8 10       		.byte	0x10
 9718 44c9 01       		.uleb128 0x1
 9719 44ca 77430000 		.4byte	0x4377
 9720 44ce D6440000 		.4byte	0x44d6
 9721 44d2 E6440000 		.4byte	0x44e6
 9722 44d6 10       		.uleb128 0x10
 9723 44d7 A55E0000 		.4byte	0x5ea5
 9724 44db 0D       		.uleb128 0xd
 9725 44dc 305C0000 		.4byte	0x5c30
 9726 44e0 0D       		.uleb128 0xd
 9727 44e1 50520000 		.4byte	0x5250
 9728 44e5 00       		.byte	0
 9729 44e6 44       		.uleb128 0x44
 9730 44e7 191C0000 		.4byte	.LASF663
 9731 44eb 0D       		.byte	0xd
 9732 44ec 66       		.byte	0x66
 9733 44ed 0B020000 		.4byte	.LASF664
 9734 44f1 28530000 		.4byte	0x5328
 9735 44f5 01       		.byte	0x1
 9736 44f6 02       		.uleb128 0x2
 9737 44f7 10       		.byte	0x10
 9738 44f8 02       		.uleb128 0x2
 9739 44f9 77430000 		.4byte	0x4377
 9740 44fd 05450000 		.4byte	0x4505
 9741 4501 1A450000 		.4byte	0x451a
 9742 4505 10       		.uleb128 0x10
 9743 4506 A55E0000 		.4byte	0x5ea5
 9744 450a 0D       		.uleb128 0xd
 9745 450b 305C0000 		.4byte	0x5c30
 9746 450f 0D       		.uleb128 0xd
 9747 4510 99520000 		.4byte	0x5299
 9748 4514 0D       		.uleb128 0xd
 9749 4515 2C000000 		.4byte	0x2c
 9750 4519 00       		.byte	0
 9751 451a 11       		.uleb128 0x11
 9752 451b 73230000 		.4byte	.LASF645
 9753 451f 0D       		.byte	0xd
 9754 4520 85       		.byte	0x85
 9755 4521 995E0000 		.4byte	0x5e99
ARM GAS  /tmp/ccfWo18f.s 			page 173


 9756 4525 01       		.byte	0x1
 9757 4526 2E450000 		.4byte	0x452e
 9758 452a 39450000 		.4byte	0x4539
 9759 452e 10       		.uleb128 0x10
 9760 452f 995E0000 		.4byte	0x5e99
 9761 4533 0D       		.uleb128 0xd
 9762 4534 575E0000 		.4byte	0x5e57
 9763 4538 00       		.byte	0
 9764 4539 45       		.uleb128 0x45
 9765 453a AA2C0000 		.4byte	.LASF977
 9766 453e 0D       		.byte	0xd
 9767 453f 89       		.byte	0x89
 9768 4540 B4000000 		.4byte	0xb4
 9769 4544 01       		.byte	0x1
 9770 4545 77430000 		.4byte	0x4377
 9771 4549 01       		.byte	0x1
 9772 454a 52450000 		.4byte	0x4552
 9773 454e 5D450000 		.4byte	0x455d
 9774 4552 10       		.uleb128 0x10
 9775 4553 995E0000 		.4byte	0x5e99
 9776 4557 10       		.uleb128 0x10
 9777 4558 25000000 		.4byte	0x25
 9778 455c 00       		.byte	0
 9779 455d 46       		.uleb128 0x46
 9780 455e 04480000 		.4byte	.LASF665
 9781 4562 0D       		.byte	0xd
 9782 4563 25       		.byte	0x25
 9783 4564 0D190000 		.4byte	.LASF667
 9784 4568 72450000 		.4byte	0x4572
 9785 456c 0D       		.uleb128 0xd
 9786 456d B15E0000 		.4byte	0x5eb1
 9787 4571 00       		.byte	0
 9788 4572 46       		.uleb128 0x46
 9789 4573 684B0000 		.4byte	.LASF666
 9790 4577 0D       		.byte	0xd
 9791 4578 2E       		.byte	0x2e
 9792 4579 B3240000 		.4byte	.LASF668
 9793 457d 87450000 		.4byte	0x4587
 9794 4581 0D       		.uleb128 0xd
 9795 4582 B15E0000 		.4byte	0x5eb1
 9796 4586 00       		.byte	0
 9797 4587 47       		.uleb128 0x47
 9798 4588 32300000 		.4byte	.LASF767
 9799 458c 0D       		.byte	0xd
 9800 458d 4A       		.byte	0x4a
 9801 458e 4C640000 		.4byte	.LASF978
 9802 4592 0D       		.uleb128 0xd
 9803 4593 B15E0000 		.4byte	0x5eb1
 9804 4597 00       		.byte	0
 9805 4598 00       		.byte	0
 9806 4599 0E       		.uleb128 0xe
 9807 459a B34B0000 		.4byte	.LASF669
 9808 459e 18       		.byte	0x18
 9809 459f 22       		.byte	0x22
 9810 45a0 09       		.byte	0x9
 9811 45a1 7B460000 		.4byte	0x467b
 9812 45a5 13       		.uleb128 0x13
ARM GAS  /tmp/ccfWo18f.s 			page 174


 9813 45a6 79010000 		.4byte	0x179
 9814 45aa 00       		.byte	0
 9815 45ab 1D       		.uleb128 0x1d
 9816 45ac 95070000 		.4byte	.LASF670
 9817 45b0 22       		.byte	0x22
 9818 45b1 0B       		.byte	0xb
 9819 45b2 2C000000 		.4byte	0x2c
 9820 45b6 00       		.byte	0
 9821 45b7 1D       		.uleb128 0x1d
 9822 45b8 9F140000 		.4byte	.LASF671
 9823 45bc 22       		.byte	0x22
 9824 45bd 0C       		.byte	0xc
 9825 45be 7E0A0000 		.4byte	0xa7e
 9826 45c2 04       		.byte	0x4
 9827 45c3 20       		.uleb128 0x20
 9828 45c4 A5530000 		.4byte	.LASF124
 9829 45c8 22       		.byte	0x22
 9830 45c9 0F       		.byte	0xf
 9831 45ca 00080000 		.4byte	.LASF672
 9832 45ce 01       		.byte	0x1
 9833 45cf D7450000 		.4byte	0x45d7
 9834 45d3 DD450000 		.4byte	0x45dd
 9835 45d7 10       		.uleb128 0x10
 9836 45d8 915D0000 		.4byte	0x5d91
 9837 45dc 00       		.byte	0
 9838 45dd 20       		.uleb128 0x20
 9839 45de 39560000 		.4byte	.LASF87
 9840 45e2 22       		.byte	0x22
 9841 45e3 11       		.byte	0x11
 9842 45e4 343D0000 		.4byte	.LASF673
 9843 45e8 01       		.byte	0x1
 9844 45e9 F1450000 		.4byte	0x45f1
 9845 45ed F7450000 		.4byte	0x45f7
 9846 45f1 10       		.uleb128 0x10
 9847 45f2 915D0000 		.4byte	0x5d91
 9848 45f6 00       		.byte	0
 9849 45f7 20       		.uleb128 0x20
 9850 45f8 7E2D0000 		.4byte	.LASF90
 9851 45fc 22       		.byte	0x22
 9852 45fd 12       		.byte	0x12
 9853 45fe 0D560000 		.4byte	.LASF674
 9854 4602 01       		.byte	0x1
 9855 4603 0B460000 		.4byte	0x460b
 9856 4607 11460000 		.4byte	0x4611
 9857 460b 10       		.uleb128 0x10
 9858 460c 915D0000 		.4byte	0x5d91
 9859 4610 00       		.byte	0
 9860 4611 20       		.uleb128 0x20
 9861 4612 3D230000 		.4byte	.LASF24
 9862 4616 22       		.byte	0x22
 9863 4617 14       		.byte	0x14
 9864 4618 48470000 		.4byte	.LASF675
 9865 461c 01       		.byte	0x1
 9866 461d 25460000 		.4byte	0x4625
 9867 4621 2B460000 		.4byte	0x462b
 9868 4625 10       		.uleb128 0x10
 9869 4626 915D0000 		.4byte	0x5d91
ARM GAS  /tmp/ccfWo18f.s 			page 175


 9870 462a 00       		.byte	0
 9871 462b 20       		.uleb128 0x20
 9872 462c 44540000 		.4byte	.LASF25
 9873 4630 22       		.byte	0x22
 9874 4631 15       		.byte	0x15
 9875 4632 4D4D0000 		.4byte	.LASF676
 9876 4636 01       		.byte	0x1
 9877 4637 3F460000 		.4byte	0x463f
 9878 463b 45460000 		.4byte	0x4645
 9879 463f 10       		.uleb128 0x10
 9880 4640 915D0000 		.4byte	0x5d91
 9881 4644 00       		.byte	0
 9882 4645 11       		.uleb128 0x11
 9883 4646 B34B0000 		.4byte	.LASF669
 9884 464a 22       		.byte	0x22
 9885 464b 18       		.byte	0x18
 9886 464c 915D0000 		.4byte	0x5d91
 9887 4650 01       		.byte	0x1
 9888 4651 59460000 		.4byte	0x4659
 9889 4655 5F460000 		.4byte	0x465f
 9890 4659 10       		.uleb128 0x10
 9891 465a 915D0000 		.4byte	0x5d91
 9892 465e 00       		.byte	0
 9893 465f 25       		.uleb128 0x25
 9894 4660 B34B0000 		.4byte	.LASF669
 9895 4664 22       		.byte	0x22
 9896 4665 19       		.byte	0x19
 9897 4666 915D0000 		.4byte	0x5d91
 9898 466a 01       		.byte	0x1
 9899 466b 6F460000 		.4byte	0x466f
 9900 466f 10       		.uleb128 0x10
 9901 4670 915D0000 		.4byte	0x5d91
 9902 4674 0D       		.uleb128 0xd
 9903 4675 5C4D0000 		.4byte	0x4d5c
 9904 4679 00       		.byte	0
 9905 467a 00       		.byte	0
 9906 467b 2D       		.uleb128 0x2d
 9907 467c FA410000 		.4byte	.LASF678
 9908 4680 9F460000 		.4byte	0x469f
 9909 4684 2E       		.uleb128 0x2e
 9910 4685 CB0E0000 		.4byte	.LASF679
 9911 4689 08       		.byte	0x8
 9912 468a 2A       		.byte	0x2a
 9913 468b 9C6E0000 		.4byte	.LASF680
 9914 468f 0D5C0000 		.4byte	0x5c0d
 9915 4693 01       		.byte	0x1
 9916 4694 98460000 		.4byte	0x4698
 9917 4698 10       		.uleb128 0x10
 9918 4699 86620000 		.4byte	0x6286
 9919 469d 00       		.byte	0
 9920 469e 00       		.byte	0
 9921 469f 48       		.uleb128 0x48
 9922 46a0 D0450000 		.4byte	.LASF681
 9923 46a4 6002     		.2byte	0x260
 9924 46a6 0C       		.byte	0xc
 9925 46a7 22       		.byte	0x22
 9926 46a8 914C0000 		.4byte	0x4c91
ARM GAS  /tmp/ccfWo18f.s 			page 176


 9927 46ac 1C       		.uleb128 0x1c
 9928 46ad AB150000 		.4byte	.LASF682
 9929 46b1 24       		.byte	0x24
 9930 46b2 0C       		.byte	0xc
 9931 46b3 25       		.byte	0x25
 9932 46b4 01       		.byte	0x1
 9933 46b5 0E470000 		.4byte	0x470e
 9934 46b9 1D       		.uleb128 0x1d
 9935 46ba DD320000 		.4byte	.LASF140
 9936 46be 0C       		.byte	0xc
 9937 46bf 26       		.byte	0x26
 9938 46c0 AE5D0000 		.4byte	0x5dae
 9939 46c4 00       		.byte	0
 9940 46c5 1D       		.uleb128 0x1d
 9941 46c6 542D0000 		.4byte	.LASF64
 9942 46ca 0C       		.byte	0xc
 9943 46cb 27       		.byte	0x27
 9944 46cc 66020000 		.4byte	0x266
 9945 46d0 04       		.byte	0x4
 9946 46d1 1D       		.uleb128 0x1d
 9947 46d2 C2370000 		.4byte	.LASF683
 9948 46d6 0C       		.byte	0xc
 9949 46d7 28       		.byte	0x28
 9950 46d8 99530000 		.4byte	0x5399
 9951 46dc 08       		.byte	0x8
 9952 46dd 1D       		.uleb128 0x1d
 9953 46de 9E150000 		.4byte	.LASF282
 9954 46e2 0C       		.byte	0xc
 9955 46e3 29       		.byte	0x29
 9956 46e4 304D0000 		.4byte	0x4d30
 9957 46e8 0C       		.byte	0xc
 9958 46e9 1D       		.uleb128 0x1d
 9959 46ea 0E400000 		.4byte	.LASF283
 9960 46ee 0C       		.byte	0xc
 9961 46ef 2A       		.byte	0x2a
 9962 46f0 304D0000 		.4byte	0x4d30
 9963 46f4 0E       		.byte	0xe
 9964 46f5 1D       		.uleb128 0x1d
 9965 46f6 8D510000 		.4byte	.LASF280
 9966 46fa 0C       		.byte	0xc
 9967 46fb 2B       		.byte	0x2b
 9968 46fc 2C540000 		.4byte	0x542c
 9969 4700 10       		.byte	0x10
 9970 4701 1D       		.uleb128 0x1d
 9971 4702 65150000 		.4byte	.LASF295
 9972 4706 0C       		.byte	0xc
 9973 4707 2C       		.byte	0x2c
 9974 4708 254D0000 		.4byte	0x4d25
 9975 470c 20       		.byte	0x20
 9976 470d 00       		.byte	0
 9977 470e 13       		.uleb128 0x13
 9978 470f 79010000 		.4byte	0x179
 9979 4713 00       		.byte	0
 9980 4714 1D       		.uleb128 0x1d
 9981 4715 3F2B0000 		.4byte	.LASF684
 9982 4719 0C       		.byte	0xc
 9983 471a 30       		.byte	0x30
ARM GAS  /tmp/ccfWo18f.s 			page 177


 9984 471b 365C0000 		.4byte	0x5c36
 9985 471f 00       		.byte	0
 9986 4720 1D       		.uleb128 0x1d
 9987 4721 2A0D0000 		.4byte	.LASF685
 9988 4725 0C       		.byte	0xc
 9989 4726 31       		.byte	0x31
 9990 4727 A0390000 		.4byte	0x39a0
 9991 472b 04       		.byte	0x4
 9992 472c 1D       		.uleb128 0x1d
 9993 472d 775D0000 		.4byte	.LASF686
 9994 4731 0C       		.byte	0xc
 9995 4732 32       		.byte	0x32
 9996 4733 0F270000 		.4byte	0x270f
 9997 4737 08       		.byte	0x8
 9998 4738 1D       		.uleb128 0x1d
 9999 4739 CD370000 		.4byte	.LASF687
 10000 473d 0C       		.byte	0xc
 10001 473e 33       		.byte	0x33
 10002 473f 54100000 		.4byte	0x1054
 10003 4743 0C       		.byte	0xc
 10004 4744 1D       		.uleb128 0x1d
 10005 4745 5D3A0000 		.4byte	.LASF688
 10006 4749 0C       		.byte	0xc
 10007 474a 34       		.byte	0x34
 10008 474b 99450000 		.4byte	0x4599
 10009 474f 10       		.byte	0x10
 10010 4750 1D       		.uleb128 0x1d
 10011 4751 2B140000 		.4byte	.LASF689
 10012 4755 0C       		.byte	0xc
 10013 4756 39       		.byte	0x39
 10014 4757 E12B0000 		.4byte	0x2be1
 10015 475b 28       		.byte	0x28
 10016 475c 1D       		.uleb128 0x1d
 10017 475d 73280000 		.4byte	.LASF690
 10018 4761 0C       		.byte	0xc
 10019 4762 3A       		.byte	0x3a
 10020 4763 B4000000 		.4byte	0xb4
 10021 4767 58       		.byte	0x58
 10022 4768 1D       		.uleb128 0x1d
 10023 4769 16340000 		.4byte	.LASF691
 10024 476d 0C       		.byte	0xc
 10025 476e 3B       		.byte	0x3b
 10026 476f 2C000000 		.4byte	0x2c
 10027 4773 5C       		.byte	0x5c
 10028 4774 1D       		.uleb128 0x1d
 10029 4775 5C5D0000 		.4byte	.LASF692
 10030 4779 0C       		.byte	0xc
 10031 477a 3C       		.byte	0x3c
 10032 477b 92540000 		.4byte	0x5492
 10033 477f 60       		.byte	0x60
 10034 4780 1D       		.uleb128 0x1d
 10035 4781 E7370000 		.4byte	.LASF693
 10036 4785 0C       		.byte	0xc
 10037 4786 3D       		.byte	0x3d
 10038 4787 631F0000 		.4byte	0x1f63
 10039 478b 64       		.byte	0x64
 10040 478c 1D       		.uleb128 0x1d
ARM GAS  /tmp/ccfWo18f.s 			page 178


 10041 478d 08690000 		.4byte	.LASF694
 10042 4791 0C       		.byte	0xc
 10043 4792 3E       		.byte	0x3e
 10044 4793 E73F0000 		.4byte	0x3fe7
 10045 4797 68       		.byte	0x68
 10046 4798 1D       		.uleb128 0x1d
 10047 4799 63520000 		.4byte	.LASF695
 10048 479d 0C       		.byte	0xc
 10049 479e 3F       		.byte	0x3f
 10050 479f 914C0000 		.4byte	0x4c91
 10051 47a3 84       		.byte	0x84
 10052 47a4 1D       		.uleb128 0x1d
 10053 47a5 68040000 		.4byte	.LASF696
 10054 47a9 0C       		.byte	0xc
 10055 47aa 40       		.byte	0x40
 10056 47ab A44C0000 		.4byte	0x4ca4
 10057 47af 94       		.byte	0x94
 10058 47b0 1D       		.uleb128 0x1d
 10059 47b1 4C6F0000 		.4byte	.LASF697
 10060 47b5 0C       		.byte	0xc
 10061 47b6 41       		.byte	0x41
 10062 47b7 085E0000 		.4byte	0x5e08
 10063 47bb CC       		.byte	0xcc
 10064 47bc 1D       		.uleb128 0x1d
 10065 47bd D4390000 		.4byte	.LASF698
 10066 47c1 0C       		.byte	0xc
 10067 47c2 42       		.byte	0x42
 10068 47c3 1E5E0000 		.4byte	0x5e1e
 10069 47c7 F4       		.byte	0xf4
 10070 47c8 42       		.uleb128 0x42
 10071 47c9 A8240000 		.4byte	.LASF699
 10072 47cd 0C       		.byte	0xc
 10073 47ce 56       		.byte	0x56
 10074 47cf 133A0000 		.4byte	0x3a13
 10075 47d3 4802     		.2byte	0x248
 10076 47d5 42       		.uleb128 0x42
 10077 47d6 E56B0000 		.4byte	.LASF700
 10078 47da 0C       		.byte	0xc
 10079 47db 57       		.byte	0x57
 10080 47dc FB310000 		.4byte	0x31fb
 10081 47e0 4C02     		.2byte	0x24c
 10082 47e2 42       		.uleb128 0x42
 10083 47e3 B1570000 		.4byte	.LASF701
 10084 47e7 0C       		.byte	0xc
 10085 47e8 58       		.byte	0x58
 10086 47e9 31210000 		.4byte	0x2131
 10087 47ed 5002     		.2byte	0x250
 10088 47ef 42       		.uleb128 0x42
 10089 47f0 A5650000 		.4byte	.LASF702
 10090 47f4 0C       		.byte	0xc
 10091 47f5 59       		.byte	0x59
 10092 47f6 66020000 		.4byte	0x266
 10093 47fa 5402     		.2byte	0x254
 10094 47fc 42       		.uleb128 0x42
 10095 47fd 262B0000 		.4byte	.LASF286
 10096 4801 0C       		.byte	0xc
 10097 4802 5C       		.byte	0x5c
ARM GAS  /tmp/ccfWo18f.s 			page 179


 10098 4803 5C4D0000 		.4byte	0x4d5c
 10099 4807 5802     		.2byte	0x258
 10100 4809 42       		.uleb128 0x42
 10101 480a F7630000 		.4byte	.LASF703
 10102 480e 0C       		.byte	0xc
 10103 480f 5D       		.byte	0x5d
 10104 4810 2C000000 		.4byte	0x2c
 10105 4814 5C02     		.2byte	0x25c
 10106 4816 17       		.uleb128 0x17
 10107 4817 4C2B0000 		.4byte	.LASF704
 10108 481b 0C       		.byte	0xc
 10109 481c 60       		.byte	0x60
 10110 481d 9F460000 		.4byte	0x469f
 10111 4821 01       		.byte	0x1
 10112 4822 17       		.uleb128 0x17
 10113 4823 57530000 		.4byte	.LASF705
 10114 4827 0C       		.byte	0xc
 10115 4828 61       		.byte	0x61
 10116 4829 464D0000 		.4byte	0x4d46
 10117 482d 01       		.byte	0x1
 10118 482e 17       		.uleb128 0x17
 10119 482f 1A0D0000 		.4byte	.LASF706
 10120 4833 0C       		.byte	0xc
 10121 4834 62       		.byte	0x62
 10122 4835 464D0000 		.4byte	0x4d46
 10123 4839 01       		.byte	0x1
 10124 483a 18       		.uleb128 0x18
 10125 483b 8C6B0000 		.4byte	.LASF707
 10126 483f 0C       		.byte	0xc
 10127 4840 65       		.byte	0x65
 10128 4841 73450000 		.4byte	.LASF708
 10129 4845 C3000000 		.4byte	0xc3
 10130 4849 01       		.byte	0x1
 10131 484a 52480000 		.4byte	0x4852
 10132 484e 58480000 		.4byte	0x4858
 10133 4852 10       		.uleb128 0x10
 10134 4853 2E5E0000 		.4byte	0x5e2e
 10135 4857 00       		.byte	0
 10136 4858 18       		.uleb128 0x18
 10137 4859 63140000 		.4byte	.LASF709
 10138 485d 0C       		.byte	0xc
 10139 485e 66       		.byte	0x66
 10140 485f 861C0000 		.4byte	.LASF710
 10141 4863 345E0000 		.4byte	0x5e34
 10142 4867 01       		.byte	0x1
 10143 4868 70480000 		.4byte	0x4870
 10144 486c 76480000 		.4byte	0x4876
 10145 4870 10       		.uleb128 0x10
 10146 4871 2E5E0000 		.4byte	0x5e2e
 10147 4875 00       		.byte	0
 10148 4876 18       		.uleb128 0x18
 10149 4877 544A0000 		.4byte	.LASF711
 10150 487b 0C       		.byte	0xc
 10151 487c 67       		.byte	0x67
 10152 487d 1C320000 		.4byte	.LASF712
 10153 4881 3A5E0000 		.4byte	0x5e3a
 10154 4885 01       		.byte	0x1
ARM GAS  /tmp/ccfWo18f.s 			page 180


 10155 4886 8E480000 		.4byte	0x488e
 10156 488a 94480000 		.4byte	0x4894
 10157 488e 10       		.uleb128 0x10
 10158 488f 2E5E0000 		.4byte	0x5e2e
 10159 4893 00       		.byte	0
 10160 4894 18       		.uleb128 0x18
 10161 4895 D8370000 		.4byte	.LASF713
 10162 4899 0C       		.byte	0xc
 10163 489a 68       		.byte	0x68
 10164 489b E01D0000 		.4byte	.LASF714
 10165 489f 405E0000 		.4byte	0x5e40
 10166 48a3 01       		.byte	0x1
 10167 48a4 AC480000 		.4byte	0x48ac
 10168 48a8 B2480000 		.4byte	0x48b2
 10169 48ac 10       		.uleb128 0x10
 10170 48ad 2E5E0000 		.4byte	0x5e2e
 10171 48b1 00       		.byte	0
 10172 48b2 18       		.uleb128 0x18
 10173 48b3 86140000 		.4byte	.LASF715
 10174 48b7 0C       		.byte	0xc
 10175 48b8 69       		.byte	0x69
 10176 48b9 A12A0000 		.4byte	.LASF716
 10177 48bd 305C0000 		.4byte	0x5c30
 10178 48c1 01       		.byte	0x1
 10179 48c2 CA480000 		.4byte	0x48ca
 10180 48c6 D0480000 		.4byte	0x48d0
 10181 48ca 10       		.uleb128 0x10
 10182 48cb 465E0000 		.4byte	0x5e46
 10183 48cf 00       		.byte	0
 10184 48d0 18       		.uleb128 0x18
 10185 48d1 DD100000 		.4byte	.LASF717
 10186 48d5 0C       		.byte	0xc
 10187 48d6 6A       		.byte	0x6a
 10188 48d7 68390000 		.4byte	.LASF718
 10189 48db 305C0000 		.4byte	0x5c30
 10190 48df 01       		.byte	0x1
 10191 48e0 E8480000 		.4byte	0x48e8
 10192 48e4 EE480000 		.4byte	0x48ee
 10193 48e8 10       		.uleb128 0x10
 10194 48e9 465E0000 		.4byte	0x5e46
 10195 48ed 00       		.byte	0
 10196 48ee 18       		.uleb128 0x18
 10197 48ef 62180000 		.4byte	.LASF719
 10198 48f3 0C       		.byte	0xc
 10199 48f4 6B       		.byte	0x6b
 10200 48f5 A7580000 		.4byte	.LASF720
 10201 48f9 5C4D0000 		.4byte	0x4d5c
 10202 48fd 01       		.byte	0x1
 10203 48fe 06490000 		.4byte	0x4906
 10204 4902 0C490000 		.4byte	0x490c
 10205 4906 10       		.uleb128 0x10
 10206 4907 2E5E0000 		.4byte	0x5e2e
 10207 490b 00       		.byte	0
 10208 490c 20       		.uleb128 0x20
 10209 490d A5530000 		.4byte	.LASF124
 10210 4911 0C       		.byte	0xc
 10211 4912 6D       		.byte	0x6d
ARM GAS  /tmp/ccfWo18f.s 			page 181


 10212 4913 4F6A0000 		.4byte	.LASF721
 10213 4917 01       		.byte	0x1
 10214 4918 20490000 		.4byte	0x4920
 10215 491c 44490000 		.4byte	0x4944
 10216 4920 10       		.uleb128 0x10
 10217 4921 465E0000 		.4byte	0x5e46
 10218 4925 0D       		.uleb128 0xd
 10219 4926 B4000000 		.4byte	0xb4
 10220 492a 0D       		.uleb128 0xd
 10221 492b 2C000000 		.4byte	0x2c
 10222 492f 0D       		.uleb128 0xd
 10223 4930 631F0000 		.4byte	0x1f63
 10224 4934 0D       		.uleb128 0xd
 10225 4935 B4000000 		.4byte	0xb4
 10226 4939 0D       		.uleb128 0xd
 10227 493a 2C000000 		.4byte	0x2c
 10228 493e 0D       		.uleb128 0xd
 10229 493f 631F0000 		.4byte	0x1f63
 10230 4943 00       		.byte	0
 10231 4944 20       		.uleb128 0x20
 10232 4945 4B3A0000 		.4byte	.LASF722
 10233 4949 0C       		.byte	0xc
 10234 494a 71       		.byte	0x71
 10235 494b 4C040000 		.4byte	.LASF723
 10236 494f 01       		.byte	0x1
 10237 4950 58490000 		.4byte	0x4958
 10238 4954 5E490000 		.4byte	0x495e
 10239 4958 10       		.uleb128 0x10
 10240 4959 465E0000 		.4byte	0x5e46
 10241 495d 00       		.byte	0
 10242 495e 20       		.uleb128 0x20
 10243 495f 65170000 		.4byte	.LASF724
 10244 4963 0C       		.byte	0xc
 10245 4964 72       		.byte	0x72
 10246 4965 47180000 		.4byte	.LASF725
 10247 4969 01       		.byte	0x1
 10248 496a 72490000 		.4byte	0x4972
 10249 496e 78490000 		.4byte	0x4978
 10250 4972 10       		.uleb128 0x10
 10251 4973 465E0000 		.4byte	0x5e46
 10252 4977 00       		.byte	0
 10253 4978 20       		.uleb128 0x20
 10254 4979 4C540000 		.4byte	.LASF726
 10255 497d 0C       		.byte	0xc
 10256 497e 73       		.byte	0x73
 10257 497f 934A0000 		.4byte	.LASF727
 10258 4983 01       		.byte	0x1
 10259 4984 8C490000 		.4byte	0x498c
 10260 4988 92490000 		.4byte	0x4992
 10261 498c 10       		.uleb128 0x10
 10262 498d 465E0000 		.4byte	0x5e46
 10263 4991 00       		.byte	0
 10264 4992 20       		.uleb128 0x20
 10265 4993 0C480000 		.4byte	.LASF728
 10266 4997 0C       		.byte	0xc
 10267 4998 74       		.byte	0x74
 10268 4999 CC2A0000 		.4byte	.LASF729
ARM GAS  /tmp/ccfWo18f.s 			page 182


 10269 499d 01       		.byte	0x1
 10270 499e A6490000 		.4byte	0x49a6
 10271 49a2 B1490000 		.4byte	0x49b1
 10272 49a6 10       		.uleb128 0x10
 10273 49a7 465E0000 		.4byte	0x5e46
 10274 49ab 0D       		.uleb128 0xd
 10275 49ac 5C4D0000 		.4byte	0x4d5c
 10276 49b0 00       		.byte	0
 10277 49b1 18       		.uleb128 0x18
 10278 49b2 DA1B0000 		.4byte	.LASF730
 10279 49b6 0C       		.byte	0xc
 10280 49b7 76       		.byte	0x76
 10281 49b8 3E140000 		.4byte	.LASF731
 10282 49bc 5C4D0000 		.4byte	0x4d5c
 10283 49c0 01       		.byte	0x1
 10284 49c1 C9490000 		.4byte	0x49c9
 10285 49c5 D4490000 		.4byte	0x49d4
 10286 49c9 10       		.uleb128 0x10
 10287 49ca 465E0000 		.4byte	0x5e46
 10288 49ce 0D       		.uleb128 0xd
 10289 49cf C3000000 		.4byte	0xc3
 10290 49d3 00       		.byte	0
 10291 49d4 18       		.uleb128 0x18
 10292 49d5 4B3E0000 		.4byte	.LASF732
 10293 49d9 0C       		.byte	0xc
 10294 49da 77       		.byte	0x77
 10295 49db 79130000 		.4byte	.LASF733
 10296 49df 5C4D0000 		.4byte	0x4d5c
 10297 49e3 01       		.byte	0x1
 10298 49e4 EC490000 		.4byte	0x49ec
 10299 49e8 FC490000 		.4byte	0x49fc
 10300 49ec 10       		.uleb128 0x10
 10301 49ed 465E0000 		.4byte	0x5e46
 10302 49f1 0D       		.uleb128 0xd
 10303 49f2 C3000000 		.4byte	0xc3
 10304 49f6 0D       		.uleb128 0xd
 10305 49f7 5C4D0000 		.4byte	0x4d5c
 10306 49fb 00       		.byte	0
 10307 49fc 49       		.uleb128 0x49
 10308 49fd 61646400 		.ascii	"add\000"
 10309 4a01 0C       		.byte	0xc
 10310 4a02 79       		.byte	0x79
 10311 4a03 61630000 		.4byte	.LASF734
 10312 4a07 01       		.byte	0x1
 10313 4a08 104A0000 		.4byte	0x4a10
 10314 4a0c 1B4A0000 		.4byte	0x4a1b
 10315 4a10 10       		.uleb128 0x10
 10316 4a11 465E0000 		.4byte	0x5e46
 10317 4a15 0D       		.uleb128 0xd
 10318 4a16 685D0000 		.4byte	0x5d68
 10319 4a1a 00       		.byte	0
 10320 4a1b 49       		.uleb128 0x49
 10321 4a1c 61646400 		.ascii	"add\000"
 10322 4a20 0C       		.byte	0xc
 10323 4a21 7A       		.byte	0x7a
 10324 4a22 D84F0000 		.4byte	.LASF735
 10325 4a26 01       		.byte	0x1
ARM GAS  /tmp/ccfWo18f.s 			page 183


 10326 4a27 2F4A0000 		.4byte	0x4a2f
 10327 4a2b 3A4A0000 		.4byte	0x4a3a
 10328 4a2f 10       		.uleb128 0x10
 10329 4a30 465E0000 		.4byte	0x5e46
 10330 4a34 0D       		.uleb128 0xd
 10331 4a35 BC530000 		.4byte	0x53bc
 10332 4a39 00       		.byte	0
 10333 4a3a 49       		.uleb128 0x49
 10334 4a3b 61646400 		.ascii	"add\000"
 10335 4a3f 0C       		.byte	0xc
 10336 4a40 7B       		.byte	0x7b
 10337 4a41 5B610000 		.4byte	.LASF736
 10338 4a45 01       		.byte	0x1
 10339 4a46 4E4A0000 		.4byte	0x4a4e
 10340 4a4a 594A0000 		.4byte	0x4a59
 10341 4a4e 10       		.uleb128 0x10
 10342 4a4f 465E0000 		.4byte	0x5e46
 10343 4a53 0D       		.uleb128 0xd
 10344 4a54 305C0000 		.4byte	0x5c30
 10345 4a58 00       		.byte	0
 10346 4a59 18       		.uleb128 0x18
 10347 4a5a B2500000 		.4byte	.LASF494
 10348 4a5e 0C       		.byte	0xc
 10349 4a5f 7D       		.byte	0x7d
 10350 4a60 C7570000 		.4byte	.LASF737
 10351 4a64 5C4D0000 		.4byte	0x4d5c
 10352 4a68 01       		.byte	0x1
 10353 4a69 714A0000 		.4byte	0x4a71
 10354 4a6d 8B4A0000 		.4byte	0x4a8b
 10355 4a71 10       		.uleb128 0x10
 10356 4a72 465E0000 		.4byte	0x5e46
 10357 4a76 0D       		.uleb128 0xd
 10358 4a77 415C0000 		.4byte	0x5c41
 10359 4a7b 0D       		.uleb128 0xd
 10360 4a7c C3000000 		.4byte	0xc3
 10361 4a80 0D       		.uleb128 0xd
 10362 4a81 87520000 		.4byte	0x5287
 10363 4a85 0D       		.uleb128 0xd
 10364 4a86 2C000000 		.4byte	0x2c
 10365 4a8a 00       		.byte	0
 10366 4a8b 18       		.uleb128 0x18
 10367 4a8c B2500000 		.4byte	.LASF494
 10368 4a90 0C       		.byte	0xc
 10369 4a91 7F       		.byte	0x7f
 10370 4a92 50590000 		.4byte	.LASF738
 10371 4a96 5C4D0000 		.4byte	0x4d5c
 10372 4a9a 01       		.byte	0x1
 10373 4a9b A34A0000 		.4byte	0x4aa3
 10374 4a9f BD4A0000 		.4byte	0x4abd
 10375 4aa3 10       		.uleb128 0x10
 10376 4aa4 465E0000 		.4byte	0x5e46
 10377 4aa8 0D       		.uleb128 0xd
 10378 4aa9 475C0000 		.4byte	0x5c47
 10379 4aad 0D       		.uleb128 0xd
 10380 4aae C3000000 		.4byte	0xc3
 10381 4ab2 0D       		.uleb128 0xd
 10382 4ab3 87520000 		.4byte	0x5287
ARM GAS  /tmp/ccfWo18f.s 			page 184


 10383 4ab7 0D       		.uleb128 0xd
 10384 4ab8 2C000000 		.4byte	0x2c
 10385 4abc 00       		.byte	0
 10386 4abd 18       		.uleb128 0x18
 10387 4abe 0F6A0000 		.4byte	.LASF497
 10388 4ac2 0C       		.byte	0xc
 10389 4ac3 81       		.byte	0x81
 10390 4ac4 004B0000 		.4byte	.LASF739
 10391 4ac8 5C4D0000 		.4byte	0x4d5c
 10392 4acc 01       		.byte	0x1
 10393 4acd D54A0000 		.4byte	0x4ad5
 10394 4ad1 F44A0000 		.4byte	0x4af4
 10395 4ad5 10       		.uleb128 0x10
 10396 4ad6 465E0000 		.4byte	0x5e46
 10397 4ada 0D       		.uleb128 0xd
 10398 4adb 4D5C0000 		.4byte	0x5c4d
 10399 4adf 0D       		.uleb128 0xd
 10400 4ae0 C3000000 		.4byte	0xc3
 10401 4ae4 0D       		.uleb128 0xd
 10402 4ae5 8D520000 		.4byte	0x528d
 10403 4ae9 0D       		.uleb128 0xd
 10404 4aea 2C000000 		.4byte	0x2c
 10405 4aee 0D       		.uleb128 0xd
 10406 4aef 2C000000 		.4byte	0x2c
 10407 4af3 00       		.byte	0
 10408 4af4 18       		.uleb128 0x18
 10409 4af5 0F6A0000 		.4byte	.LASF497
 10410 4af9 0C       		.byte	0xc
 10411 4afa 84       		.byte	0x84
 10412 4afb 585A0000 		.4byte	.LASF740
 10413 4aff 5C4D0000 		.4byte	0x4d5c
 10414 4b03 01       		.byte	0x1
 10415 4b04 0C4B0000 		.4byte	0x4b0c
 10416 4b08 2B4B0000 		.4byte	0x4b2b
 10417 4b0c 10       		.uleb128 0x10
 10418 4b0d 465E0000 		.4byte	0x5e46
 10419 4b11 0D       		.uleb128 0xd
 10420 4b12 535C0000 		.4byte	0x5c53
 10421 4b16 0D       		.uleb128 0xd
 10422 4b17 C3000000 		.4byte	0xc3
 10423 4b1b 0D       		.uleb128 0xd
 10424 4b1c 8D520000 		.4byte	0x528d
 10425 4b20 0D       		.uleb128 0xd
 10426 4b21 2C000000 		.4byte	0x2c
 10427 4b25 0D       		.uleb128 0xd
 10428 4b26 2C000000 		.4byte	0x2c
 10429 4b2a 00       		.byte	0
 10430 4b2b 20       		.uleb128 0x20
 10431 4b2c F9260000 		.4byte	.LASF741
 10432 4b30 0C       		.byte	0xc
 10433 4b31 88       		.byte	0x88
 10434 4b32 4E5F0000 		.4byte	.LASF742
 10435 4b36 01       		.byte	0x1
 10436 4b37 3F4B0000 		.4byte	0x4b3f
 10437 4b3b 4A4B0000 		.4byte	0x4b4a
 10438 4b3f 10       		.uleb128 0x10
 10439 4b40 465E0000 		.4byte	0x5e46
ARM GAS  /tmp/ccfWo18f.s 			page 185


 10440 4b44 0D       		.uleb128 0xd
 10441 4b45 0D5D0000 		.4byte	0x5d0d
 10442 4b49 00       		.byte	0
 10443 4b4a 18       		.uleb128 0x18
 10444 4b4b 403A0000 		.4byte	.LASF743
 10445 4b4f 0C       		.byte	0xc
 10446 4b50 8A       		.byte	0x8a
 10447 4b51 57250000 		.4byte	.LASF744
 10448 4b55 0D5C0000 		.4byte	0x5c0d
 10449 4b59 01       		.byte	0x1
 10450 4b5a 624B0000 		.4byte	0x4b62
 10451 4b5e 6D4B0000 		.4byte	0x4b6d
 10452 4b62 10       		.uleb128 0x10
 10453 4b63 465E0000 		.4byte	0x5e46
 10454 4b67 0D       		.uleb128 0xd
 10455 4b68 C3000000 		.4byte	0xc3
 10456 4b6c 00       		.byte	0
 10457 4b6d 18       		.uleb128 0x18
 10458 4b6e 95140000 		.4byte	.LASF745
 10459 4b72 0C       		.byte	0xc
 10460 4b73 8B       		.byte	0x8b
 10461 4b74 CC490000 		.4byte	.LASF746
 10462 4b78 455D0000 		.4byte	0x5d45
 10463 4b7c 01       		.byte	0x1
 10464 4b7d 854B0000 		.4byte	0x4b85
 10465 4b81 904B0000 		.4byte	0x4b90
 10466 4b85 10       		.uleb128 0x10
 10467 4b86 465E0000 		.4byte	0x5e46
 10468 4b8a 0D       		.uleb128 0xd
 10469 4b8b C3000000 		.4byte	0xc3
 10470 4b8f 00       		.byte	0
 10471 4b90 1E       		.uleb128 0x1e
 10472 4b91 FE510000 		.4byte	.LASF747
 10473 4b95 0C       		.byte	0xc
 10474 4b96 8E       		.byte	0x8e
 10475 4b97 A8090000 		.4byte	.LASF748
 10476 4b9b 0D5C0000 		.4byte	0x5c0d
 10477 4b9f A74B0000 		.4byte	0x4ba7
 10478 4ba3 B74B0000 		.4byte	0x4bb7
 10479 4ba7 10       		.uleb128 0x10
 10480 4ba8 465E0000 		.4byte	0x5e46
 10481 4bac 0D       		.uleb128 0xd
 10482 4bad C3000000 		.4byte	0xc3
 10483 4bb1 0D       		.uleb128 0xd
 10484 4bb2 2C000000 		.4byte	0x2c
 10485 4bb6 00       		.byte	0
 10486 4bb7 0F       		.uleb128 0xf
 10487 4bb8 D0450000 		.4byte	.LASF681
 10488 4bbc 0C       		.byte	0xc
 10489 4bbd 91       		.byte	0x91
 10490 4bbe 465E0000 		.4byte	0x5e46
 10491 4bc2 CA4B0000 		.4byte	0x4bca
 10492 4bc6 E44B0000 		.4byte	0x4be4
 10493 4bca 10       		.uleb128 0x10
 10494 4bcb 465E0000 		.4byte	0x5e46
 10495 4bcf 0D       		.uleb128 0xd
 10496 4bd0 C3000000 		.4byte	0xc3
ARM GAS  /tmp/ccfWo18f.s 			page 186


 10497 4bd4 0D       		.uleb128 0xd
 10498 4bd5 C3000000 		.4byte	0xc3
 10499 4bd9 0D       		.uleb128 0xd
 10500 4bda AE5D0000 		.4byte	0x5dae
 10501 4bde 0D       		.uleb128 0xd
 10502 4bdf 2C000000 		.4byte	0x2c
 10503 4be3 00       		.byte	0
 10504 4be4 4A       		.uleb128 0x4a
 10505 4be5 1F2A0000 		.4byte	.LASF749
 10506 4be9 0C       		.byte	0xc
 10507 4bea 95       		.byte	0x95
 10508 4beb 1E110000 		.4byte	.LASF750
 10509 4bef 7B1F0000 		.4byte	0x1f7b
 10510 4bf3 FD4B0000 		.4byte	0x4bfd
 10511 4bf7 0D       		.uleb128 0xd
 10512 4bf8 871F0000 		.4byte	0x1f87
 10513 4bfc 00       		.byte	0
 10514 4bfd 3D       		.uleb128 0x3d
 10515 4bfe 56450000 		.4byte	.LASF751
 10516 4c02 0C       		.byte	0xc
 10517 4c03 96       		.byte	0x96
 10518 4c04 74400000 		.4byte	.LASF752
 10519 4c08 104C0000 		.4byte	0x4c10
 10520 4c0c 164C0000 		.4byte	0x4c16
 10521 4c10 10       		.uleb128 0x10
 10522 4c11 465E0000 		.4byte	0x5e46
 10523 4c15 00       		.byte	0
 10524 4c16 3D       		.uleb128 0x3d
 10525 4c17 BC2E0000 		.4byte	.LASF753
 10526 4c1b 0C       		.byte	0xc
 10527 4c1c 97       		.byte	0x97
 10528 4c1d 2D690000 		.4byte	.LASF754
 10529 4c21 294C0000 		.4byte	0x4c29
 10530 4c25 344C0000 		.4byte	0x4c34
 10531 4c29 10       		.uleb128 0x10
 10532 4c2a 465E0000 		.4byte	0x5e46
 10533 4c2e 0D       		.uleb128 0xd
 10534 4c2f 4C5E0000 		.4byte	0x5e4c
 10535 4c33 00       		.byte	0
 10536 4c34 3D       		.uleb128 0x3d
 10537 4c35 952E0000 		.4byte	.LASF755
 10538 4c39 0C       		.byte	0xc
 10539 4c3a 98       		.byte	0x98
 10540 4c3b 4E360000 		.4byte	.LASF756
 10541 4c3f 474C0000 		.4byte	0x4c47
 10542 4c43 524C0000 		.4byte	0x4c52
 10543 4c47 10       		.uleb128 0x10
 10544 4c48 465E0000 		.4byte	0x5e46
 10545 4c4c 0D       		.uleb128 0xd
 10546 4c4d 4C5E0000 		.4byte	0x5e4c
 10547 4c51 00       		.byte	0
 10548 4c52 3D       		.uleb128 0x3d
 10549 4c53 0A030000 		.4byte	.LASF757
 10550 4c57 0C       		.byte	0xc
 10551 4c58 99       		.byte	0x99
 10552 4c59 ED160000 		.4byte	.LASF758
 10553 4c5d 654C0000 		.4byte	0x4c65
ARM GAS  /tmp/ccfWo18f.s 			page 187


 10554 4c61 704C0000 		.4byte	0x4c70
 10555 4c65 10       		.uleb128 0x10
 10556 4c66 465E0000 		.4byte	0x5e46
 10557 4c6a 0D       		.uleb128 0xd
 10558 4c6b 4C5E0000 		.4byte	0x5e4c
 10559 4c6f 00       		.byte	0
 10560 4c70 3A       		.uleb128 0x3a
 10561 4c71 10320000 		.4byte	.LASF759
 10562 4c75 0C       		.byte	0xc
 10563 4c76 A4       		.byte	0xa4
 10564 4c77 764F0000 		.4byte	.LASF760
 10565 4c7b 5C4D0000 		.4byte	0x4d5c
 10566 4c7f 01       		.byte	0x1
 10567 4c80 3A       		.uleb128 0x3a
 10568 4c81 39640000 		.4byte	.LASF761
 10569 4c85 0C       		.byte	0xc
 10570 4c86 A5       		.byte	0xa5
 10571 4c87 8B030000 		.4byte	.LASF762
 10572 4c8b 5C4D0000 		.4byte	0x4d5c
 10573 4c8f 01       		.byte	0x1
 10574 4c90 00       		.byte	0
 10575 4c91 2D       		.uleb128 0x2d
 10576 4c92 B7310000 		.4byte	.LASF763
 10577 4c96 A44C0000 		.4byte	0x4ca4
 10578 4c9a 24       		.uleb128 0x24
 10579 4c9b CF130000 		.4byte	.LASF506
 10580 4c9f 521A0000 		.4byte	0x1a52
 10581 4ca3 00       		.byte	0
 10582 4ca4 2D       		.uleb128 0x2d
 10583 4ca5 BD540000 		.4byte	.LASF764
 10584 4ca9 B74C0000 		.4byte	0x4cb7
 10585 4cad 24       		.uleb128 0x24
 10586 4cae CF130000 		.4byte	.LASF506
 10587 4cb2 521A0000 		.4byte	0x1a52
 10588 4cb6 00       		.byte	0
 10589 4cb7 07       		.uleb128 0x7
 10590 4cb8 9F460000 		.4byte	0x469f
 10591 4cbc 07       		.uleb128 0x7
 10592 4cbd 521A0000 		.4byte	0x1a52
 10593 4cc1 26       		.uleb128 0x26
 10594 4cc2 71040000 		.4byte	.LASF765
 10595 4cc6 26       		.uleb128 0x26
 10596 4cc7 760C0000 		.4byte	.LASF766
 10597 4ccb 07       		.uleb128 0x7
 10598 4ccc 77430000 		.4byte	0x4377
 10599 4cd0 4B       		.uleb128 0x4b
 10600 4cd1 F5210000 		.4byte	.LASF768
 10601 4cd5 23       		.byte	0x23
 10602 4cd6 1F       		.byte	0x1f
 10603 4cd7 EE4C0000 		.4byte	0x4cee
 10604 4cdb 24       		.uleb128 0x24
 10605 4cdc FA2F0000 		.4byte	.LASF769
 10606 4ce0 95060000 		.4byte	0x695
 10607 4ce4 24       		.uleb128 0x24
 10608 4ce5 B0270000 		.4byte	.LASF770
 10609 4ce9 95060000 		.4byte	0x695
 10610 4ced 00       		.byte	0
ARM GAS  /tmp/ccfWo18f.s 			page 188


 10611 4cee 07       		.uleb128 0x7
 10612 4cef 7B460000 		.4byte	0x467b
 10613 4cf3 4C       		.uleb128 0x4c
 10614 4cf4 3C2E0000 		.4byte	.LASF979
 10615 4cf8 2E       		.uleb128 0x2e
 10616 4cf9 0F2F0000 		.4byte	.LASF330
 10617 4cfd 0B       		.byte	0xb
 10618 4cfe 40       		.byte	0x40
 10619 4cff 48570000 		.4byte	.LASF771
 10620 4d03 5C4D0000 		.4byte	0x4d5c
 10621 4d07 01       		.byte	0x1
 10622 4d08 0C4D0000 		.4byte	0x4d0c
 10623 4d0c 10       		.uleb128 0x10
 10624 4d0d A8630000 		.4byte	0x63a8
 10625 4d11 0D       		.uleb128 0xd
 10626 4d12 CF5C0000 		.4byte	0x5ccf
 10627 4d16 00       		.byte	0
 10628 4d17 00       		.byte	0
 10629 4d18 00       		.byte	0
 10630 4d19 06       		.uleb128 0x6
 10631 4d1a 04       		.byte	0x4
 10632 4d1b 79010000 		.4byte	0x179
 10633 4d1f 4D       		.uleb128 0x4d
 10634 4d20 04       		.byte	0x4
 10635 4d21 D9010000 		.4byte	0x1d9
 10636 4d25 03       		.uleb128 0x3
 10637 4d26 F9240000 		.4byte	.LASF772
 10638 4d2a 24       		.byte	0x24
 10639 4d2b 15       		.byte	0x15
 10640 4d2c 45000000 		.4byte	0x45
 10641 4d30 03       		.uleb128 0x3
 10642 4d31 B3060000 		.4byte	.LASF773
 10643 4d35 24       		.byte	0x24
 10644 4d36 21       		.byte	0x21
 10645 4d37 5E000000 		.4byte	0x5e
 10646 4d3b 03       		.uleb128 0x3
 10647 4d3c 6D0D0000 		.4byte	.LASF774
 10648 4d40 24       		.byte	0x24
 10649 4d41 2C       		.byte	0x2c
 10650 4d42 70000000 		.4byte	0x70
 10651 4d46 03       		.uleb128 0x3
 10652 4d47 850C0000 		.4byte	.LASF775
 10653 4d4b 24       		.byte	0x24
 10654 4d4c 2D       		.byte	0x2d
 10655 4d4d 82000000 		.4byte	0x82
 10656 4d51 03       		.uleb128 0x3
 10657 4d52 581C0000 		.4byte	.LASF776
 10658 4d56 24       		.byte	0x24
 10659 4d57 39       		.byte	0x39
 10660 4d58 9B000000 		.4byte	0x9b
 10661 4d5c 04       		.uleb128 0x4
 10662 4d5d 01       		.byte	0x1
 10663 4d5e 02       		.byte	0x2
 10664 4d5f CD170000 		.4byte	.LASF777
 10665 4d63 03       		.uleb128 0x3
 10666 4d64 E9170000 		.4byte	.LASF778
 10667 4d68 25       		.byte	0x25
ARM GAS  /tmp/ccfWo18f.s 			page 189


 10668 4d69 2C       		.byte	0x2c
 10669 4d6a 254D0000 		.4byte	0x4d25
 10670 4d6e 03       		.uleb128 0x3
 10671 4d6f 95600000 		.4byte	.LASF779
 10672 4d73 25       		.byte	0x25
 10673 4d74 2D       		.byte	0x2d
 10674 4d75 254D0000 		.4byte	0x4d25
 10675 4d79 03       		.uleb128 0x3
 10676 4d7a D7310000 		.4byte	.LASF780
 10677 4d7e 25       		.byte	0x25
 10678 4d7f 2E       		.byte	0x2e
 10679 4d80 254D0000 		.4byte	0x4d25
 10680 4d84 03       		.uleb128 0x3
 10681 4d85 46380000 		.4byte	.LASF781
 10682 4d89 25       		.byte	0x25
 10683 4d8a 2F       		.byte	0x2f
 10684 4d8b 254D0000 		.4byte	0x4d25
 10685 4d8f 03       		.uleb128 0x3
 10686 4d90 36140000 		.4byte	.LASF782
 10687 4d94 25       		.byte	0x25
 10688 4d95 30       		.byte	0x30
 10689 4d96 464D0000 		.4byte	0x4d46
 10690 4d9a 03       		.uleb128 0x3
 10691 4d9b 1A010000 		.4byte	.LASF783
 10692 4d9f 25       		.byte	0x25
 10693 4da0 31       		.byte	0x31
 10694 4da1 3B4D0000 		.4byte	0x4d3b
 10695 4da5 03       		.uleb128 0x3
 10696 4da6 C9650000 		.4byte	.LASF784
 10697 4daa 25       		.byte	0x25
 10698 4dab 33       		.byte	0x33
 10699 4dac 464D0000 		.4byte	0x4d46
 10700 4db0 03       		.uleb128 0x3
 10701 4db1 C30D0000 		.4byte	.LASF785
 10702 4db5 25       		.byte	0x25
 10703 4db6 35       		.byte	0x35
 10704 4db7 464D0000 		.4byte	0x4d46
 10705 4dbb 03       		.uleb128 0x3
 10706 4dbc F71C0000 		.4byte	.LASF342
 10707 4dc0 26       		.byte	0x26
 10708 4dc1 2A       		.byte	0x2a
 10709 4dc2 C64D0000 		.4byte	0x4dc6
 10710 4dc6 4E       		.uleb128 0x4e
 10711 4dc7 F71C0000 		.4byte	.LASF342
 10712 4dcb 4C       		.byte	0x4c
 10713 4dcc 27       		.byte	0x27
 10714 4dcd 5E       		.byte	0x5e
 10715 4dce 044F0000 		.4byte	0x4f04
 10716 4dd2 4F       		.uleb128 0x4f
 10717 4dd3 04       		.byte	0x4
 10718 4dd4 27       		.byte	0x27
 10719 4dd5 96       		.byte	0x96
 10720 4dd6 074E0000 		.4byte	0x4e07
 10721 4dda 37       		.uleb128 0x37
 10722 4ddb 382B0000 		.4byte	.LASF786
 10723 4ddf 27       		.byte	0x27
 10724 4de0 9D       		.byte	0x9d
ARM GAS  /tmp/ccfWo18f.s 			page 190


 10725 4de1 9A4D0000 		.4byte	0x4d9a
 10726 4de5 37       		.uleb128 0x37
 10727 4de6 30160000 		.4byte	.LASF787
 10728 4dea 27       		.byte	0x27
 10729 4deb A4       		.byte	0xa4
 10730 4dec 9A4D0000 		.4byte	0x4d9a
 10731 4df0 37       		.uleb128 0x37
 10732 4df1 25530000 		.4byte	.LASF788
 10733 4df5 27       		.byte	0x27
 10734 4df6 AB       		.byte	0xab
 10735 4df7 B4000000 		.4byte	0xb4
 10736 4dfb 37       		.uleb128 0x37
 10737 4dfc 085F0000 		.4byte	.LASF789
 10738 4e00 27       		.byte	0x27
 10739 4e01 B2       		.byte	0xb2
 10740 4e02 A54D0000 		.4byte	0x4da5
 10741 4e06 00       		.byte	0
 10742 4e07 1D       		.uleb128 0x1d
 10743 4e08 8A2F0000 		.4byte	.LASF790
 10744 4e0c 27       		.byte	0x27
 10745 4e0d 5F       		.byte	0x5f
 10746 4e0e 18520000 		.4byte	0x5218
 10747 4e12 00       		.byte	0
 10748 4e13 1D       		.uleb128 0x1d
 10749 4e14 21250000 		.4byte	.LASF791
 10750 4e18 27       		.byte	0x27
 10751 4e19 61       		.byte	0x61
 10752 4e1a 18520000 		.4byte	0x5218
 10753 4e1e 04       		.byte	0x4
 10754 4e1f 1D       		.uleb128 0x1d
 10755 4e20 C6170000 		.4byte	.LASF792
 10756 4e24 27       		.byte	0x27
 10757 4e25 63       		.byte	0x63
 10758 4e26 8F4D0000 		.4byte	0x4d8f
 10759 4e2a 08       		.byte	0x8
 10760 4e2b 1D       		.uleb128 0x1d
 10761 4e2c 231B0000 		.4byte	.LASF793
 10762 4e30 27       		.byte	0x27
 10763 4e31 64       		.byte	0x64
 10764 4e32 C0500000 		.4byte	0x50c0
 10765 4e36 0C       		.byte	0xc
 10766 4e37 1D       		.uleb128 0x1d
 10767 4e38 C61A0000 		.4byte	.LASF794
 10768 4e3c 27       		.byte	0x27
 10769 4e3d 66       		.byte	0x66
 10770 4e3e 18520000 		.4byte	0x5218
 10771 4e42 10       		.byte	0x10
 10772 4e43 1D       		.uleb128 0x1d
 10773 4e44 DA420000 		.4byte	.LASF795
 10774 4e48 27       		.byte	0x27
 10775 4e49 67       		.byte	0x67
 10776 4e4a 18520000 		.4byte	0x5218
 10777 4e4e 14       		.byte	0x14
 10778 4e4f 1D       		.uleb128 0x1d
 10779 4e50 56050000 		.4byte	.LASF796
 10780 4e54 27       		.byte	0x27
 10781 4e55 6E       		.byte	0x6e
ARM GAS  /tmp/ccfWo18f.s 			page 191


 10782 4e56 C3000000 		.4byte	0xc3
 10783 4e5a 18       		.byte	0x18
 10784 4e5b 1D       		.uleb128 0x1d
 10785 4e5c CD4F0000 		.4byte	.LASF797
 10786 4e60 27       		.byte	0x27
 10787 4e61 74       		.byte	0x74
 10788 4e62 1E520000 		.4byte	0x521e
 10789 4e66 1C       		.byte	0x1c
 10790 4e67 1D       		.uleb128 0x1d
 10791 4e68 57460000 		.4byte	.LASF798
 10792 4e6c 27       		.byte	0x27
 10793 4e6d 79       		.byte	0x79
 10794 4e6e 6E4D0000 		.4byte	0x4d6e
 10795 4e72 20       		.byte	0x20
 10796 4e73 1D       		.uleb128 0x1d
 10797 4e74 835E0000 		.4byte	.LASF799
 10798 4e78 27       		.byte	0x27
 10799 4e79 7D       		.byte	0x7d
 10800 4e7a 634D0000 		.4byte	0x4d63
 10801 4e7e 21       		.byte	0x21
 10802 4e7f 1D       		.uleb128 0x1d
 10803 4e80 DC0F0000 		.4byte	.LASF800
 10804 4e84 27       		.byte	0x27
 10805 4e85 82       		.byte	0x82
 10806 4e86 794D0000 		.4byte	0x4d79
 10807 4e8a 22       		.byte	0x22
 10808 4e8b 1D       		.uleb128 0x1d
 10809 4e8c 306B0000 		.4byte	.LASF801
 10810 4e90 27       		.byte	0x27
 10811 4e91 88       		.byte	0x88
 10812 4e92 844D0000 		.4byte	0x4d84
 10813 4e96 23       		.byte	0x23
 10814 4e97 1D       		.uleb128 0x1d
 10815 4e98 513A0000 		.4byte	.LASF802
 10816 4e9c 27       		.byte	0x27
 10817 4e9d 8F       		.byte	0x8f
 10818 4e9e F6500000 		.4byte	0x50f6
 10819 4ea2 24       		.byte	0x24
 10820 4ea3 50       		.uleb128 0x50
 10821 4ea4 705F7500 		.ascii	"p_u\000"
 10822 4ea8 27       		.byte	0x27
 10823 4ea9 B4       		.byte	0xb4
 10824 4eaa D24D0000 		.4byte	0x4dd2
 10825 4eae 28       		.byte	0x28
 10826 4eaf 1D       		.uleb128 0x1d
 10827 4eb0 15120000 		.4byte	.LASF803
 10828 4eb4 27       		.byte	0x27
 10829 4eb5 B9       		.byte	0xb9
 10830 4eb6 534F0000 		.4byte	0x4f53
 10831 4eba 2C       		.byte	0x2c
 10832 4ebb 1D       		.uleb128 0x1d
 10833 4ebc 0A230000 		.4byte	.LASF804
 10834 4ec0 27       		.byte	0x27
 10835 4ec1 BF       		.byte	0xbf
 10836 4ec2 2F4F0000 		.4byte	0x4f2f
 10837 4ec6 30       		.byte	0x30
 10838 4ec7 1D       		.uleb128 0x1d
ARM GAS  /tmp/ccfWo18f.s 			page 192


 10839 4ec8 DE150000 		.4byte	.LASF805
 10840 4ecc 27       		.byte	0x27
 10841 4ecd C3       		.byte	0xc3
 10842 4ece 9A4D0000 		.4byte	0x4d9a
 10843 4ed2 38       		.byte	0x38
 10844 4ed3 1D       		.uleb128 0x1d
 10845 4ed4 653E0000 		.4byte	.LASF806
 10846 4ed8 27       		.byte	0x27
 10847 4ed9 C9       		.byte	0xc9
 10848 4eda A54D0000 		.4byte	0x4da5
 10849 4ede 3C       		.byte	0x3c
 10850 4edf 1D       		.uleb128 0x1d
 10851 4ee0 05600000 		.4byte	.LASF807
 10852 4ee4 27       		.byte	0x27
 10853 4ee5 D0       		.byte	0xd0
 10854 4ee6 24520000 		.4byte	0x5224
 10855 4eea 40       		.byte	0x40
 10856 4eeb 1D       		.uleb128 0x1d
 10857 4eec B0530000 		.4byte	.LASF808
 10858 4ef0 27       		.byte	0x27
 10859 4ef1 D4       		.byte	0xd4
 10860 4ef2 8F4D0000 		.4byte	0x4d8f
 10861 4ef6 44       		.byte	0x44
 10862 4ef7 1D       		.uleb128 0x1d
 10863 4ef8 A3000000 		.4byte	.LASF809
 10864 4efc 27       		.byte	0x27
 10865 4efd DA       		.byte	0xda
 10866 4efe B4000000 		.4byte	0xb4
 10867 4f02 48       		.byte	0x48
 10868 4f03 00       		.byte	0
 10869 4f04 51       		.uleb128 0x51
 10870 4f05 08       		.byte	0x8
 10871 4f06 26       		.byte	0x26
 10872 4f07 61       		.byte	0x61
 10873 4f08 014D0000 		.4byte	.LASF811
 10874 4f0c 294F0000 		.4byte	0x4f29
 10875 4f10 1D       		.uleb128 0x1d
 10876 4f11 8A2F0000 		.4byte	.LASF790
 10877 4f15 26       		.byte	0x26
 10878 4f16 62       		.byte	0x62
 10879 4f17 294F0000 		.4byte	0x4f29
 10880 4f1b 00       		.byte	0
 10881 4f1c 1D       		.uleb128 0x1d
 10882 4f1d 21250000 		.4byte	.LASF791
 10883 4f21 26       		.byte	0x26
 10884 4f22 64       		.byte	0x64
 10885 4f23 294F0000 		.4byte	0x4f29
 10886 4f27 04       		.byte	0x4
 10887 4f28 00       		.byte	0
 10888 4f29 06       		.uleb128 0x6
 10889 4f2a 04       		.byte	0x4
 10890 4f2b BB4D0000 		.4byte	0x4dbb
 10891 4f2f 03       		.uleb128 0x3
 10892 4f30 EC240000 		.4byte	.LASF810
 10893 4f34 26       		.byte	0x26
 10894 4f35 66       		.byte	0x66
 10895 4f36 044F0000 		.4byte	0x4f04
ARM GAS  /tmp/ccfWo18f.s 			page 193


 10896 4f3a 51       		.uleb128 0x51
 10897 4f3b 04       		.byte	0x4
 10898 4f3c 26       		.byte	0x26
 10899 4f3d 6B       		.byte	0x6b
 10900 4f3e 5B6F0000 		.4byte	.LASF812
 10901 4f42 534F0000 		.4byte	0x4f53
 10902 4f46 1D       		.uleb128 0x1d
 10903 4f47 8A2F0000 		.4byte	.LASF790
 10904 4f4b 26       		.byte	0x26
 10905 4f4c 6D       		.byte	0x6d
 10906 4f4d 294F0000 		.4byte	0x4f29
 10907 4f51 00       		.byte	0
 10908 4f52 00       		.byte	0
 10909 4f53 03       		.uleb128 0x3
 10910 4f54 77090000 		.4byte	.LASF813
 10911 4f58 26       		.byte	0x26
 10912 4f59 70       		.byte	0x70
 10913 4f5a 3A4F0000 		.4byte	0x4f3a
 10914 4f5e 03       		.uleb128 0x3
 10915 4f5f 5F460000 		.4byte	.LASF814
 10916 4f63 28       		.byte	0x28
 10917 4f64 E5       		.byte	0xe5
 10918 4f65 B4000000 		.4byte	0xb4
 10919 4f69 03       		.uleb128 0x3
 10920 4f6a FD170000 		.4byte	.LASF815
 10921 4f6e 28       		.byte	0x28
 10922 4f6f EB       		.byte	0xeb
 10923 4f70 514D0000 		.4byte	0x4d51
 10924 4f74 52       		.uleb128 0x52
 10925 4f75 B1000000 		.4byte	.LASF816
 10926 4f79 64       		.byte	0x64
 10927 4f7a 28       		.byte	0x28
 10928 4f7b 0C01     		.2byte	0x10c
 10929 4f7d C0500000 		.4byte	0x50c0
 10930 4f81 53       		.uleb128 0x53
 10931 4f82 73313600 		.ascii	"s16\000"
 10932 4f86 28       		.byte	0x28
 10933 4f87 0E01     		.2byte	0x10e
 10934 4f89 5E4F0000 		.4byte	0x4f5e
 10935 4f8d 00       		.byte	0
 10936 4f8e 53       		.uleb128 0x53
 10937 4f8f 73313700 		.ascii	"s17\000"
 10938 4f93 28       		.byte	0x28
 10939 4f94 0F01     		.2byte	0x10f
 10940 4f96 5E4F0000 		.4byte	0x4f5e
 10941 4f9a 04       		.byte	0x4
 10942 4f9b 53       		.uleb128 0x53
 10943 4f9c 73313800 		.ascii	"s18\000"
 10944 4fa0 28       		.byte	0x28
 10945 4fa1 1001     		.2byte	0x110
 10946 4fa3 5E4F0000 		.4byte	0x4f5e
 10947 4fa7 08       		.byte	0x8
 10948 4fa8 53       		.uleb128 0x53
 10949 4fa9 73313900 		.ascii	"s19\000"
 10950 4fad 28       		.byte	0x28
 10951 4fae 1101     		.2byte	0x111
 10952 4fb0 5E4F0000 		.4byte	0x4f5e
ARM GAS  /tmp/ccfWo18f.s 			page 194


 10953 4fb4 0C       		.byte	0xc
 10954 4fb5 53       		.uleb128 0x53
 10955 4fb6 73323000 		.ascii	"s20\000"
 10956 4fba 28       		.byte	0x28
 10957 4fbb 1201     		.2byte	0x112
 10958 4fbd 5E4F0000 		.4byte	0x4f5e
 10959 4fc1 10       		.byte	0x10
 10960 4fc2 53       		.uleb128 0x53
 10961 4fc3 73323100 		.ascii	"s21\000"
 10962 4fc7 28       		.byte	0x28
 10963 4fc8 1301     		.2byte	0x113
 10964 4fca 5E4F0000 		.4byte	0x4f5e
 10965 4fce 14       		.byte	0x14
 10966 4fcf 53       		.uleb128 0x53
 10967 4fd0 73323200 		.ascii	"s22\000"
 10968 4fd4 28       		.byte	0x28
 10969 4fd5 1401     		.2byte	0x114
 10970 4fd7 5E4F0000 		.4byte	0x4f5e
 10971 4fdb 18       		.byte	0x18
 10972 4fdc 53       		.uleb128 0x53
 10973 4fdd 73323300 		.ascii	"s23\000"
 10974 4fe1 28       		.byte	0x28
 10975 4fe2 1501     		.2byte	0x115
 10976 4fe4 5E4F0000 		.4byte	0x4f5e
 10977 4fe8 1C       		.byte	0x1c
 10978 4fe9 53       		.uleb128 0x53
 10979 4fea 73323400 		.ascii	"s24\000"
 10980 4fee 28       		.byte	0x28
 10981 4fef 1601     		.2byte	0x116
 10982 4ff1 5E4F0000 		.4byte	0x4f5e
 10983 4ff5 20       		.byte	0x20
 10984 4ff6 53       		.uleb128 0x53
 10985 4ff7 73323500 		.ascii	"s25\000"
 10986 4ffb 28       		.byte	0x28
 10987 4ffc 1701     		.2byte	0x117
 10988 4ffe 5E4F0000 		.4byte	0x4f5e
 10989 5002 24       		.byte	0x24
 10990 5003 53       		.uleb128 0x53
 10991 5004 73323600 		.ascii	"s26\000"
 10992 5008 28       		.byte	0x28
 10993 5009 1801     		.2byte	0x118
 10994 500b 5E4F0000 		.4byte	0x4f5e
 10995 500f 28       		.byte	0x28
 10996 5010 53       		.uleb128 0x53
 10997 5011 73323700 		.ascii	"s27\000"
 10998 5015 28       		.byte	0x28
 10999 5016 1901     		.2byte	0x119
 11000 5018 5E4F0000 		.4byte	0x4f5e
 11001 501c 2C       		.byte	0x2c
 11002 501d 53       		.uleb128 0x53
 11003 501e 73323800 		.ascii	"s28\000"
 11004 5022 28       		.byte	0x28
 11005 5023 1A01     		.2byte	0x11a
 11006 5025 5E4F0000 		.4byte	0x4f5e
 11007 5029 30       		.byte	0x30
 11008 502a 53       		.uleb128 0x53
 11009 502b 73323900 		.ascii	"s29\000"
ARM GAS  /tmp/ccfWo18f.s 			page 195


 11010 502f 28       		.byte	0x28
 11011 5030 1B01     		.2byte	0x11b
 11012 5032 5E4F0000 		.4byte	0x4f5e
 11013 5036 34       		.byte	0x34
 11014 5037 53       		.uleb128 0x53
 11015 5038 73333000 		.ascii	"s30\000"
 11016 503c 28       		.byte	0x28
 11017 503d 1C01     		.2byte	0x11c
 11018 503f 5E4F0000 		.4byte	0x4f5e
 11019 5043 38       		.byte	0x38
 11020 5044 53       		.uleb128 0x53
 11021 5045 73333100 		.ascii	"s31\000"
 11022 5049 28       		.byte	0x28
 11023 504a 1D01     		.2byte	0x11d
 11024 504c 5E4F0000 		.4byte	0x4f5e
 11025 5050 3C       		.byte	0x3c
 11026 5051 53       		.uleb128 0x53
 11027 5052 723400   		.ascii	"r4\000"
 11028 5055 28       		.byte	0x28
 11029 5056 1F01     		.2byte	0x11f
 11030 5058 5E4F0000 		.4byte	0x4f5e
 11031 505c 40       		.byte	0x40
 11032 505d 53       		.uleb128 0x53
 11033 505e 723500   		.ascii	"r5\000"
 11034 5061 28       		.byte	0x28
 11035 5062 2001     		.2byte	0x120
 11036 5064 5E4F0000 		.4byte	0x4f5e
 11037 5068 44       		.byte	0x44
 11038 5069 53       		.uleb128 0x53
 11039 506a 723600   		.ascii	"r6\000"
 11040 506d 28       		.byte	0x28
 11041 506e 2101     		.2byte	0x121
 11042 5070 5E4F0000 		.4byte	0x4f5e
 11043 5074 48       		.byte	0x48
 11044 5075 53       		.uleb128 0x53
 11045 5076 723700   		.ascii	"r7\000"
 11046 5079 28       		.byte	0x28
 11047 507a 2201     		.2byte	0x122
 11048 507c 5E4F0000 		.4byte	0x4f5e
 11049 5080 4C       		.byte	0x4c
 11050 5081 53       		.uleb128 0x53
 11051 5082 723800   		.ascii	"r8\000"
 11052 5085 28       		.byte	0x28
 11053 5086 2301     		.2byte	0x123
 11054 5088 5E4F0000 		.4byte	0x4f5e
 11055 508c 50       		.byte	0x50
 11056 508d 53       		.uleb128 0x53
 11057 508e 723900   		.ascii	"r9\000"
 11058 5091 28       		.byte	0x28
 11059 5092 2401     		.2byte	0x124
 11060 5094 5E4F0000 		.4byte	0x4f5e
 11061 5098 54       		.byte	0x54
 11062 5099 53       		.uleb128 0x53
 11063 509a 72313000 		.ascii	"r10\000"
 11064 509e 28       		.byte	0x28
 11065 509f 2501     		.2byte	0x125
 11066 50a1 5E4F0000 		.4byte	0x4f5e
ARM GAS  /tmp/ccfWo18f.s 			page 196


 11067 50a5 58       		.byte	0x58
 11068 50a6 53       		.uleb128 0x53
 11069 50a7 72313100 		.ascii	"r11\000"
 11070 50ab 28       		.byte	0x28
 11071 50ac 2601     		.2byte	0x126
 11072 50ae 5E4F0000 		.4byte	0x4f5e
 11073 50b2 5C       		.byte	0x5c
 11074 50b3 53       		.uleb128 0x53
 11075 50b4 6C7200   		.ascii	"lr\000"
 11076 50b7 28       		.byte	0x28
 11077 50b8 2701     		.2byte	0x127
 11078 50ba 5E4F0000 		.4byte	0x4f5e
 11079 50be 60       		.byte	0x60
 11080 50bf 00       		.byte	0
 11081 50c0 52       		.uleb128 0x52
 11082 50c1 A5440000 		.4byte	.LASF817
 11083 50c5 04       		.byte	0x4
 11084 50c6 28       		.byte	0x28
 11085 50c7 3101     		.2byte	0x131
 11086 50c9 DB500000 		.4byte	0x50db
 11087 50cd 53       		.uleb128 0x53
 11088 50ce 72313300 		.ascii	"r13\000"
 11089 50d2 28       		.byte	0x28
 11090 50d3 3201     		.2byte	0x132
 11091 50d5 DB500000 		.4byte	0x50db
 11092 50d9 00       		.byte	0
 11093 50da 00       		.byte	0
 11094 50db 06       		.uleb128 0x6
 11095 50dc 04       		.byte	0x4
 11096 50dd 744F0000 		.4byte	0x4f74
 11097 50e1 54       		.uleb128 0x54
 11098 50e2 464D0000 		.4byte	0x4d46
 11099 50e6 08       		.uleb128 0x8
 11100 50e7 8D000000 		.4byte	0x8d
 11101 50eb F6500000 		.4byte	0x50f6
 11102 50ef 09       		.uleb128 0x9
 11103 50f0 AD000000 		.4byte	0xad
 11104 50f4 07       		.byte	0x7
 11105 50f5 00       		.byte	0
 11106 50f6 54       		.uleb128 0x54
 11107 50f7 B04D0000 		.4byte	0x4db0
 11108 50fb 51       		.uleb128 0x51
 11109 50fc 1C       		.byte	0x1c
 11110 50fd 29       		.byte	0x29
 11111 50fe 5E       		.byte	0x5e
 11112 50ff D4330000 		.4byte	.LASF818
 11113 5103 50510000 		.4byte	0x5150
 11114 5107 1D       		.uleb128 0x1d
 11115 5108 3B4A0000 		.4byte	.LASF819
 11116 510c 29       		.byte	0x29
 11117 510d 5F       		.byte	0x5f
 11118 510e 2F4F0000 		.4byte	0x4f2f
 11119 5112 00       		.byte	0
 11120 5113 1D       		.uleb128 0x1d
 11121 5114 0B5C0000 		.4byte	.LASF820
 11122 5118 29       		.byte	0x29
 11123 5119 60       		.byte	0x60
ARM GAS  /tmp/ccfWo18f.s 			page 197


 11124 511a 8F4D0000 		.4byte	0x4d8f
 11125 511e 08       		.byte	0x8
 11126 511f 1D       		.uleb128 0x1d
 11127 5120 9B2A0000 		.4byte	.LASF821
 11128 5124 29       		.byte	0x29
 11129 5125 62       		.byte	0x62
 11130 5126 C0500000 		.4byte	0x50c0
 11131 512a 0C       		.byte	0xc
 11132 512b 1D       		.uleb128 0x1d
 11133 512c 6F370000 		.4byte	.LASF822
 11134 5130 29       		.byte	0x29
 11135 5131 65       		.byte	0x65
 11136 5132 294F0000 		.4byte	0x4f29
 11137 5136 10       		.byte	0x10
 11138 5137 1D       		.uleb128 0x1d
 11139 5138 19250000 		.4byte	.LASF823
 11140 513c 29       		.byte	0x29
 11141 513d 66       		.byte	0x66
 11142 513e 294F0000 		.4byte	0x4f29
 11143 5142 14       		.byte	0x14
 11144 5143 1D       		.uleb128 0x1d
 11145 5144 3B1B0000 		.4byte	.LASF824
 11146 5148 29       		.byte	0x29
 11147 5149 69       		.byte	0x69
 11148 514a 294F0000 		.4byte	0x4f29
 11149 514e 18       		.byte	0x18
 11150 514f 00       		.byte	0
 11151 5150 03       		.uleb128 0x3
 11152 5151 FA470000 		.4byte	.LASF825
 11153 5155 29       		.byte	0x29
 11154 5156 6B       		.byte	0x6b
 11155 5157 FB500000 		.4byte	0x50fb
 11156 515b 4E       		.uleb128 0x4e
 11157 515c F9200000 		.4byte	.LASF132
 11158 5160 10       		.byte	0x10
 11159 5161 2A       		.byte	0x2a
 11160 5162 2C       		.byte	0x2c
 11161 5163 8C510000 		.4byte	0x518c
 11162 5167 1D       		.uleb128 0x1d
 11163 5168 5C430000 		.4byte	.LASF826
 11164 516c 2A       		.byte	0x2a
 11165 516d 2D       		.byte	0x2d
 11166 516e 2F4F0000 		.4byte	0x4f2f
 11167 5172 00       		.byte	0
 11168 5173 1D       		.uleb128 0x1d
 11169 5174 563D0000 		.4byte	.LASF827
 11170 5178 2A       		.byte	0x2a
 11171 5179 2F       		.byte	0x2f
 11172 517a 294F0000 		.4byte	0x4f29
 11173 517e 08       		.byte	0x8
 11174 517f 1D       		.uleb128 0x1d
 11175 5180 5D050000 		.4byte	.LASF828
 11176 5184 2A       		.byte	0x2a
 11177 5185 31       		.byte	0x31
 11178 5186 8C510000 		.4byte	0x518c
 11179 518a 0C       		.byte	0xc
 11180 518b 00       		.byte	0
ARM GAS  /tmp/ccfWo18f.s 			page 198


 11181 518c 06       		.uleb128 0x6
 11182 518d 04       		.byte	0x4
 11183 518e 5B510000 		.4byte	0x515b
 11184 5192 03       		.uleb128 0x3
 11185 5193 F9200000 		.4byte	.LASF132
 11186 5197 2A       		.byte	0x2a
 11187 5198 33       		.byte	0x33
 11188 5199 5B510000 		.4byte	0x515b
 11189 519d 03       		.uleb128 0x3
 11190 519e 81040000 		.4byte	.LASF829
 11191 51a2 2B       		.byte	0x2b
 11192 51a3 2C       		.byte	0x2c
 11193 51a4 A8510000 		.4byte	0x51a8
 11194 51a8 06       		.uleb128 0x6
 11195 51a9 04       		.byte	0x4
 11196 51aa AE510000 		.4byte	0x51ae
 11197 51ae 55       		.uleb128 0x55
 11198 51af B4000000 		.4byte	0xb4
 11199 51b3 BD510000 		.4byte	0x51bd
 11200 51b7 0D       		.uleb128 0xd
 11201 51b8 2C000000 		.4byte	0x2c
 11202 51bc 00       		.byte	0
 11203 51bd 4E       		.uleb128 0x4e
 11204 51be 12690000 		.4byte	.LASF830
 11205 51c2 04       		.byte	0x4
 11206 51c3 2C       		.byte	0x2c
 11207 51c4 2C       		.byte	0x2c
 11208 51c5 D6510000 		.4byte	0x51d6
 11209 51c9 1D       		.uleb128 0x1d
 11210 51ca 54430000 		.4byte	.LASF831
 11211 51ce 2C       		.byte	0x2c
 11212 51cf 2D       		.byte	0x2d
 11213 51d0 D6510000 		.4byte	0x51d6
 11214 51d4 00       		.byte	0
 11215 51d5 00       		.byte	0
 11216 51d6 06       		.uleb128 0x6
 11217 51d7 04       		.byte	0x4
 11218 51d8 BD510000 		.4byte	0x51bd
 11219 51dc 51       		.uleb128 0x51
 11220 51dd 0C       		.byte	0xc
 11221 51de 2C       		.byte	0x2c
 11222 51df 34       		.byte	0x34
 11223 51e0 695C0000 		.4byte	.LASF832
 11224 51e4 0D520000 		.4byte	0x520d
 11225 51e8 1D       		.uleb128 0x1d
 11226 51e9 BE410000 		.4byte	.LASF833
 11227 51ed 2C       		.byte	0x2c
 11228 51ee 35       		.byte	0x35
 11229 51ef D6510000 		.4byte	0x51d6
 11230 51f3 00       		.byte	0
 11231 51f4 1D       		.uleb128 0x1d
 11232 51f5 8B360000 		.4byte	.LASF834
 11233 51f9 2C       		.byte	0x2c
 11234 51fa 36       		.byte	0x36
 11235 51fb 2C000000 		.4byte	0x2c
 11236 51ff 04       		.byte	0x4
 11237 5200 1D       		.uleb128 0x1d
ARM GAS  /tmp/ccfWo18f.s 			page 199


 11238 5201 25420000 		.4byte	.LASF835
 11239 5205 2C       		.byte	0x2c
 11240 5206 38       		.byte	0x38
 11241 5207 9D510000 		.4byte	0x519d
 11242 520b 08       		.byte	0x8
 11243 520c 00       		.byte	0
 11244 520d 03       		.uleb128 0x3
 11245 520e 77520000 		.4byte	.LASF643
 11246 5212 2C       		.byte	0x2c
 11247 5213 3A       		.byte	0x3a
 11248 5214 DC510000 		.4byte	0x51dc
 11249 5218 06       		.uleb128 0x6
 11250 5219 04       		.byte	0x4
 11251 521a C64D0000 		.4byte	0x4dc6
 11252 521e 06       		.uleb128 0x6
 11253 521f 04       		.byte	0x4
 11254 5220 694F0000 		.4byte	0x4f69
 11255 5224 06       		.uleb128 0x6
 11256 5225 04       		.byte	0x4
 11257 5226 92510000 		.4byte	0x5192
 11258 522a 03       		.uleb128 0x3
 11259 522b 96150000 		.4byte	.LASF836
 11260 522f 27       		.byte	0x27
 11261 5230 E5       		.byte	0xe5
 11262 5231 35520000 		.4byte	0x5235
 11263 5235 06       		.uleb128 0x6
 11264 5236 04       		.byte	0x4
 11265 5237 3B520000 		.4byte	0x523b
 11266 523b 55       		.uleb128 0x55
 11267 523c 9A4D0000 		.4byte	0x4d9a
 11268 5240 4A520000 		.4byte	0x524a
 11269 5244 0D       		.uleb128 0xd
 11270 5245 B4000000 		.4byte	0xb4
 11271 5249 00       		.byte	0
 11272 524a 06       		.uleb128 0x6
 11273 524b 04       		.byte	0x4
 11274 524c 254D0000 		.4byte	0x4d25
 11275 5250 06       		.uleb128 0x6
 11276 5251 04       		.byte	0x4
 11277 5252 56520000 		.4byte	0x5256
 11278 5256 07       		.uleb128 0x7
 11279 5257 254D0000 		.4byte	0x4d25
 11280 525b 06       		.uleb128 0x6
 11281 525c 04       		.byte	0x4
 11282 525d DE010000 		.4byte	0x1de
 11283 5261 06       		.uleb128 0x6
 11284 5262 04       		.byte	0x4
 11285 5263 22020000 		.4byte	0x222
 11286 5267 06       		.uleb128 0x6
 11287 5268 04       		.byte	0x4
 11288 5269 6D520000 		.4byte	0x526d
 11289 526d 56       		.uleb128 0x56
 11290 526e 06       		.uleb128 0x6
 11291 526f 04       		.byte	0x4
 11292 5270 EC040000 		.4byte	0x4ec
 11293 5274 04       		.uleb128 0x4
 11294 5275 08       		.byte	0x8
ARM GAS  /tmp/ccfWo18f.s 			page 200


 11295 5276 04       		.byte	0x4
 11296 5277 53540000 		.4byte	.LASF837
 11297 527b 4D       		.uleb128 0x4d
 11298 527c 04       		.byte	0x4
 11299 527d 66020000 		.4byte	0x266
 11300 5281 06       		.uleb128 0x6
 11301 5282 04       		.byte	0x4
 11302 5283 66020000 		.4byte	0x266
 11303 5287 4D       		.uleb128 0x4d
 11304 5288 04       		.byte	0x4
 11305 5289 EC040000 		.4byte	0x4ec
 11306 528d 06       		.uleb128 0x6
 11307 528e 04       		.byte	0x4
 11308 528f 95060000 		.4byte	0x695
 11309 5293 4D       		.uleb128 0x4d
 11310 5294 04       		.byte	0x4
 11311 5295 FD040000 		.4byte	0x4fd
 11312 5299 06       		.uleb128 0x6
 11313 529a 04       		.byte	0x4
 11314 529b FD040000 		.4byte	0x4fd
 11315 529f 4D       		.uleb128 0x4d
 11316 52a0 04       		.byte	0x4
 11317 52a1 7D050000 		.4byte	0x57d
 11318 52a5 06       		.uleb128 0x6
 11319 52a6 04       		.byte	0x4
 11320 52a7 00080000 		.4byte	0x800
 11321 52ab 06       		.uleb128 0x6
 11322 52ac 04       		.byte	0x4
 11323 52ad 80090000 		.4byte	0x980
 11324 52b1 06       		.uleb128 0x6
 11325 52b2 04       		.byte	0x4
 11326 52b3 85090000 		.4byte	0x985
 11327 52b7 06       		.uleb128 0x6
 11328 52b8 04       		.byte	0x4
 11329 52b9 F1040000 		.4byte	0x4f1
 11330 52bd 06       		.uleb128 0x6
 11331 52be 04       		.byte	0x4
 11332 52bf 8A090000 		.4byte	0x98a
 11333 52c3 4D       		.uleb128 0x4d
 11334 52c4 04       		.byte	0x4
 11335 52c5 92510000 		.4byte	0x5192
 11336 52c9 06       		.uleb128 0x6
 11337 52ca 04       		.byte	0x4
 11338 52cb 7E0A0000 		.4byte	0xa7e
 11339 52cf 06       		.uleb128 0x6
 11340 52d0 04       		.byte	0x4
 11341 52d1 540B0000 		.4byte	0xb54
 11342 52d5 06       		.uleb128 0x6
 11343 52d6 04       		.byte	0x4
 11344 52d7 6B0B0000 		.4byte	0xb6b
 11345 52db 06       		.uleb128 0x6
 11346 52dc 04       		.byte	0x4
 11347 52dd E1520000 		.4byte	0x52e1
 11348 52e1 55       		.uleb128 0x55
 11349 52e2 5C4D0000 		.4byte	0x4d5c
 11350 52e6 F0520000 		.4byte	0x52f0
 11351 52ea 0D       		.uleb128 0xd
ARM GAS  /tmp/ccfWo18f.s 			page 201


 11352 52eb F0520000 		.4byte	0x52f0
 11353 52ef 00       		.byte	0
 11354 52f0 4D       		.uleb128 0x4d
 11355 52f1 04       		.byte	0x4
 11356 52f2 26100000 		.4byte	0x1026
 11357 52f6 06       		.uleb128 0x6
 11358 52f7 04       		.byte	0x4
 11359 52f8 FC520000 		.4byte	0x52fc
 11360 52fc 55       		.uleb128 0x55
 11361 52fd 5C4D0000 		.4byte	0x4d5c
 11362 5301 10530000 		.4byte	0x5310
 11363 5305 0D       		.uleb128 0xd
 11364 5306 F0520000 		.4byte	0x52f0
 11365 530a 0D       		.uleb128 0xd
 11366 530b 67520000 		.4byte	0x5267
 11367 530f 00       		.byte	0
 11368 5310 06       		.uleb128 0x6
 11369 5311 04       		.byte	0x4
 11370 5312 030C0000 		.4byte	0xc03
 11371 5316 06       		.uleb128 0x6
 11372 5317 04       		.byte	0x4
 11373 5318 4F100000 		.4byte	0x104f
 11374 531c 06       		.uleb128 0x6
 11375 531d 04       		.byte	0x4
 11376 531e 590B0000 		.4byte	0xb59
 11377 5322 4D       		.uleb128 0x4d
 11378 5323 04       		.byte	0x4
 11379 5324 6B0B0000 		.4byte	0xb6b
 11380 5328 06       		.uleb128 0x6
 11381 5329 04       		.byte	0x4
 11382 532a 2B100000 		.4byte	0x102b
 11383 532e 4D       		.uleb128 0x4d
 11384 532f 04       		.byte	0x4
 11385 5330 B80B0000 		.4byte	0xbb8
 11386 5334 4D       		.uleb128 0x4d
 11387 5335 04       		.byte	0x4
 11388 5336 BD0B0000 		.4byte	0xbbd
 11389 533a 4D       		.uleb128 0x4d
 11390 533b 04       		.byte	0x4
 11391 533c C20B0000 		.4byte	0xbc2
 11392 5340 4D       		.uleb128 0x4d
 11393 5341 04       		.byte	0x4
 11394 5342 C70B0000 		.4byte	0xbc7
 11395 5346 06       		.uleb128 0x6
 11396 5347 04       		.byte	0x4
 11397 5348 66100000 		.4byte	0x1066
 11398 534c 06       		.uleb128 0x6
 11399 534d 04       		.byte	0x4
 11400 534e 52530000 		.4byte	0x5352
 11401 5352 55       		.uleb128 0x55
 11402 5353 5C4D0000 		.4byte	0x4d5c
 11403 5357 61530000 		.4byte	0x5361
 11404 535b 0D       		.uleb128 0xd
 11405 535c 61530000 		.4byte	0x5361
 11406 5360 00       		.byte	0
 11407 5361 4D       		.uleb128 0x4d
 11408 5362 04       		.byte	0x4
ARM GAS  /tmp/ccfWo18f.s 			page 202


 11409 5363 21150000 		.4byte	0x1521
 11410 5367 06       		.uleb128 0x6
 11411 5368 04       		.byte	0x4
 11412 5369 6D530000 		.4byte	0x536d
 11413 536d 55       		.uleb128 0x55
 11414 536e 5C4D0000 		.4byte	0x4d5c
 11415 5372 81530000 		.4byte	0x5381
 11416 5376 0D       		.uleb128 0xd
 11417 5377 61530000 		.4byte	0x5361
 11418 537b 0D       		.uleb128 0xd
 11419 537c 67520000 		.4byte	0x5267
 11420 5380 00       		.byte	0
 11421 5381 06       		.uleb128 0x6
 11422 5382 04       		.byte	0x4
 11423 5383 FE100000 		.4byte	0x10fe
 11424 5387 06       		.uleb128 0x6
 11425 5388 04       		.byte	0x4
 11426 5389 2B150000 		.4byte	0x152b
 11427 538d 06       		.uleb128 0x6
 11428 538e 04       		.byte	0x4
 11429 538f 54100000 		.4byte	0x1054
 11430 5393 4D       		.uleb128 0x4d
 11431 5394 04       		.byte	0x4
 11432 5395 66100000 		.4byte	0x1066
 11433 5399 06       		.uleb128 0x6
 11434 539a 04       		.byte	0x4
 11435 539b 26150000 		.4byte	0x1526
 11436 539f 4D       		.uleb128 0x4d
 11437 53a0 04       		.byte	0x4
 11438 53a1 B3100000 		.4byte	0x10b3
 11439 53a5 4D       		.uleb128 0x4d
 11440 53a6 04       		.byte	0x4
 11441 53a7 B8100000 		.4byte	0x10b8
 11442 53ab 4D       		.uleb128 0x4d
 11443 53ac 04       		.byte	0x4
 11444 53ad BD100000 		.4byte	0x10bd
 11445 53b1 4D       		.uleb128 0x4d
 11446 53b2 04       		.byte	0x4
 11447 53b3 C2100000 		.4byte	0x10c2
 11448 53b7 07       		.uleb128 0x7
 11449 53b8 99530000 		.4byte	0x5399
 11450 53bc 4D       		.uleb128 0x4d
 11451 53bd 04       		.byte	0x4
 11452 53be 26150000 		.4byte	0x1526
 11453 53c2 06       		.uleb128 0x6
 11454 53c3 04       		.byte	0x4
 11455 53c4 30150000 		.4byte	0x1530
 11456 53c8 4D       		.uleb128 0x4d
 11457 53c9 04       		.byte	0x4
 11458 53ca 95060000 		.4byte	0x695
 11459 53ce 4D       		.uleb128 0x4d
 11460 53cf 04       		.byte	0x4
 11461 53d0 30150000 		.4byte	0x1530
 11462 53d4 06       		.uleb128 0x6
 11463 53d5 04       		.byte	0x4
 11464 53d6 41150000 		.4byte	0x1541
 11465 53da 06       		.uleb128 0x6
ARM GAS  /tmp/ccfWo18f.s 			page 203


 11466 53db 04       		.byte	0x4
 11467 53dc BD150000 		.4byte	0x15bd
 11468 53e0 06       		.uleb128 0x6
 11469 53e1 04       		.byte	0x4
 11470 53e2 92170000 		.4byte	0x1792
 11471 53e6 06       		.uleb128 0x6
 11472 53e7 04       		.byte	0x4
 11473 53e8 35150000 		.4byte	0x1535
 11474 53ec 4D       		.uleb128 0x4d
 11475 53ed 04       		.byte	0x4
 11476 53ee 41150000 		.4byte	0x1541
 11477 53f2 4D       		.uleb128 0x4d
 11478 53f3 04       		.byte	0x4
 11479 53f4 DA530000 		.4byte	0x53da
 11480 53f8 06       		.uleb128 0x6
 11481 53f9 04       		.byte	0x4
 11482 53fa 061A0000 		.4byte	0x1a06
 11483 53fe 06       		.uleb128 0x6
 11484 53ff 04       		.byte	0x4
 11485 5400 97170000 		.4byte	0x1797
 11486 5404 4D       		.uleb128 0x4d
 11487 5405 04       		.byte	0x4
 11488 5406 B5170000 		.4byte	0x17b5
 11489 540a 4D       		.uleb128 0x4d
 11490 540b 04       		.byte	0x4
 11491 540c 10540000 		.4byte	0x5410
 11492 5410 06       		.uleb128 0x6
 11493 5411 04       		.byte	0x4
 11494 5412 78180000 		.4byte	0x1878
 11495 5416 06       		.uleb128 0x6
 11496 5417 04       		.byte	0x4
 11497 5418 0B1A0000 		.4byte	0x1a0b
 11498 541c 08       		.uleb128 0x8
 11499 541d BC000000 		.4byte	0xbc
 11500 5421 2C540000 		.4byte	0x542c
 11501 5425 09       		.uleb128 0x9
 11502 5426 AD000000 		.4byte	0xad
 11503 542a 06       		.byte	0x6
 11504 542b 00       		.byte	0
 11505 542c 08       		.uleb128 0x8
 11506 542d BC000000 		.4byte	0xbc
 11507 5431 3C540000 		.4byte	0x543c
 11508 5435 09       		.uleb128 0x9
 11509 5436 AD000000 		.4byte	0xad
 11510 543a 0F       		.byte	0xf
 11511 543b 00       		.byte	0
 11512 543c 08       		.uleb128 0x8
 11513 543d 50000000 		.4byte	0x50
 11514 5441 4C540000 		.4byte	0x544c
 11515 5445 09       		.uleb128 0x9
 11516 5446 AD000000 		.4byte	0xad
 11517 544a 09       		.byte	0x9
 11518 544b 00       		.byte	0
 11519 544c 08       		.uleb128 0x8
 11520 544d 50000000 		.4byte	0x50
 11521 5451 5C540000 		.4byte	0x545c
 11522 5455 09       		.uleb128 0x9
ARM GAS  /tmp/ccfWo18f.s 			page 204


 11523 5456 AD000000 		.4byte	0xad
 11524 545a 1E       		.byte	0x1e
 11525 545b 00       		.byte	0
 11526 545c 06       		.uleb128 0x6
 11527 545d 04       		.byte	0x4
 11528 545e 651D0000 		.4byte	0x1d65
 11529 5462 4D       		.uleb128 0x4d
 11530 5463 04       		.byte	0x4
 11531 5464 BB4D0000 		.4byte	0x4dbb
 11532 5468 06       		.uleb128 0x6
 11533 5469 04       		.byte	0x4
 11534 546a AB1B0000 		.4byte	0x1bab
 11535 546e 4D       		.uleb128 0x4d
 11536 546f 04       		.byte	0x4
 11537 5470 6A1D0000 		.4byte	0x1d6a
 11538 5474 4D       		.uleb128 0x4d
 11539 5475 04       		.byte	0x4
 11540 5476 AB1B0000 		.4byte	0x1bab
 11541 547a 06       		.uleb128 0x6
 11542 547b 04       		.byte	0x4
 11543 547c 401F0000 		.4byte	0x1f40
 11544 5480 06       		.uleb128 0x6
 11545 5481 04       		.byte	0x4
 11546 5482 6A1D0000 		.4byte	0x1d6a
 11547 5486 4D       		.uleb128 0x4d
 11548 5487 04       		.byte	0x4
 11549 5488 0D520000 		.4byte	0x520d
 11550 548c 06       		.uleb128 0x6
 11551 548d 04       		.byte	0x4
 11552 548e B9200000 		.4byte	0x20b9
 11553 5492 06       		.uleb128 0x6
 11554 5493 04       		.byte	0x4
 11555 5494 451F0000 		.4byte	0x1f45
 11556 5498 4D       		.uleb128 0x4d
 11557 5499 04       		.byte	0x4
 11558 549a 451F0000 		.4byte	0x1f45
 11559 549e 54       		.uleb128 0x54
 11560 549f 304D0000 		.4byte	0x4d30
 11561 54a3 54       		.uleb128 0x54
 11562 54a4 3B4D0000 		.4byte	0x4d3b
 11563 54a8 57       		.uleb128 0x57
 11564 54a9 10       		.byte	0x10
 11565 54aa 2D       		.byte	0x2d
 11566 54ab 6D01     		.2byte	0x16d
 11567 54ad 552C0000 		.4byte	.LASF842
 11568 54b1 EA540000 		.4byte	0x54ea
 11569 54b5 53       		.uleb128 0x53
 11570 54b6 54495200 		.ascii	"TIR\000"
 11571 54ba 2D       		.byte	0x2d
 11572 54bb 6E01     		.2byte	0x16e
 11573 54bd E1500000 		.4byte	0x50e1
 11574 54c1 00       		.byte	0
 11575 54c2 27       		.uleb128 0x27
 11576 54c3 552B0000 		.4byte	.LASF838
 11577 54c7 2D       		.byte	0x2d
 11578 54c8 6F01     		.2byte	0x16f
 11579 54ca E1500000 		.4byte	0x50e1
ARM GAS  /tmp/ccfWo18f.s 			page 205


 11580 54ce 04       		.byte	0x4
 11581 54cf 27       		.uleb128 0x27
 11582 54d0 94190000 		.4byte	.LASF839
 11583 54d4 2D       		.byte	0x2d
 11584 54d5 7001     		.2byte	0x170
 11585 54d7 E1500000 		.4byte	0x50e1
 11586 54db 08       		.byte	0x8
 11587 54dc 27       		.uleb128 0x27
 11588 54dd 583A0000 		.4byte	.LASF840
 11589 54e1 2D       		.byte	0x2d
 11590 54e2 7101     		.2byte	0x171
 11591 54e4 E1500000 		.4byte	0x50e1
 11592 54e8 0C       		.byte	0xc
 11593 54e9 00       		.byte	0
 11594 54ea 28       		.uleb128 0x28
 11595 54eb 02130000 		.4byte	.LASF841
 11596 54ef 2D       		.byte	0x2d
 11597 54f0 7201     		.2byte	0x172
 11598 54f2 A8540000 		.4byte	0x54a8
 11599 54f6 57       		.uleb128 0x57
 11600 54f7 10       		.byte	0x10
 11601 54f8 2D       		.byte	0x2d
 11602 54f9 7801     		.2byte	0x178
 11603 54fb 091B0000 		.4byte	.LASF843
 11604 54ff 38550000 		.4byte	0x5538
 11605 5503 53       		.uleb128 0x53
 11606 5504 52495200 		.ascii	"RIR\000"
 11607 5508 2D       		.byte	0x2d
 11608 5509 7901     		.2byte	0x179
 11609 550b E1500000 		.4byte	0x50e1
 11610 550f 00       		.byte	0
 11611 5510 27       		.uleb128 0x27
 11612 5511 DC540000 		.4byte	.LASF844
 11613 5515 2D       		.byte	0x2d
 11614 5516 7A01     		.2byte	0x17a
 11615 5518 E1500000 		.4byte	0x50e1
 11616 551c 04       		.byte	0x4
 11617 551d 27       		.uleb128 0x27
 11618 551e CB450000 		.4byte	.LASF845
 11619 5522 2D       		.byte	0x2d
 11620 5523 7B01     		.2byte	0x17b
 11621 5525 E1500000 		.4byte	0x50e1
 11622 5529 08       		.byte	0x8
 11623 552a 27       		.uleb128 0x27
 11624 552b 06020000 		.4byte	.LASF846
 11625 552f 2D       		.byte	0x2d
 11626 5530 7C01     		.2byte	0x17c
 11627 5532 E1500000 		.4byte	0x50e1
 11628 5536 0C       		.byte	0xc
 11629 5537 00       		.byte	0
 11630 5538 28       		.uleb128 0x28
 11631 5539 BA520000 		.4byte	.LASF847
 11632 553d 2D       		.byte	0x2d
 11633 553e 7D01     		.2byte	0x17d
 11634 5540 F6540000 		.4byte	0x54f6
 11635 5544 57       		.uleb128 0x57
 11636 5545 08       		.byte	0x8
ARM GAS  /tmp/ccfWo18f.s 			page 206


 11637 5546 2D       		.byte	0x2d
 11638 5547 8301     		.2byte	0x183
 11639 5549 AE4E0000 		.4byte	.LASF848
 11640 554d 6C550000 		.4byte	0x556c
 11641 5551 53       		.uleb128 0x53
 11642 5552 46523100 		.ascii	"FR1\000"
 11643 5556 2D       		.byte	0x2d
 11644 5557 8401     		.2byte	0x184
 11645 5559 E1500000 		.4byte	0x50e1
 11646 555d 00       		.byte	0
 11647 555e 53       		.uleb128 0x53
 11648 555f 46523200 		.ascii	"FR2\000"
 11649 5563 2D       		.byte	0x2d
 11650 5564 8501     		.2byte	0x185
 11651 5566 E1500000 		.4byte	0x50e1
 11652 556a 04       		.byte	0x4
 11653 556b 00       		.byte	0
 11654 556c 28       		.uleb128 0x28
 11655 556d 142C0000 		.4byte	.LASF849
 11656 5571 2D       		.byte	0x2d
 11657 5572 8601     		.2byte	0x186
 11658 5574 44550000 		.4byte	0x5544
 11659 5578 58       		.uleb128 0x58
 11660 5579 2003     		.2byte	0x320
 11661 557b 2D       		.byte	0x2d
 11662 557c 8C01     		.2byte	0x18c
 11663 557e 796A0000 		.4byte	.LASF980
 11664 5582 B2560000 		.4byte	0x56b2
 11665 5586 53       		.uleb128 0x53
 11666 5587 4D435200 		.ascii	"MCR\000"
 11667 558b 2D       		.byte	0x2d
 11668 558c 8D01     		.2byte	0x18d
 11669 558e E1500000 		.4byte	0x50e1
 11670 5592 00       		.byte	0
 11671 5593 53       		.uleb128 0x53
 11672 5594 4D535200 		.ascii	"MSR\000"
 11673 5598 2D       		.byte	0x2d
 11674 5599 8E01     		.2byte	0x18e
 11675 559b E1500000 		.4byte	0x50e1
 11676 559f 04       		.byte	0x4
 11677 55a0 53       		.uleb128 0x53
 11678 55a1 54535200 		.ascii	"TSR\000"
 11679 55a5 2D       		.byte	0x2d
 11680 55a6 8F01     		.2byte	0x18f
 11681 55a8 E1500000 		.4byte	0x50e1
 11682 55ac 08       		.byte	0x8
 11683 55ad 27       		.uleb128 0x27
 11684 55ae 9E600000 		.4byte	.LASF850
 11685 55b2 2D       		.byte	0x2d
 11686 55b3 9001     		.2byte	0x190
 11687 55b5 E1500000 		.4byte	0x50e1
 11688 55b9 0C       		.byte	0xc
 11689 55ba 27       		.uleb128 0x27
 11690 55bb 0E470000 		.4byte	.LASF851
 11691 55bf 2D       		.byte	0x2d
 11692 55c0 9101     		.2byte	0x191
 11693 55c2 E1500000 		.4byte	0x50e1
ARM GAS  /tmp/ccfWo18f.s 			page 207


 11694 55c6 10       		.byte	0x10
 11695 55c7 53       		.uleb128 0x53
 11696 55c8 49455200 		.ascii	"IER\000"
 11697 55cc 2D       		.byte	0x2d
 11698 55cd 9201     		.2byte	0x192
 11699 55cf E1500000 		.4byte	0x50e1
 11700 55d3 14       		.byte	0x14
 11701 55d4 53       		.uleb128 0x53
 11702 55d5 45535200 		.ascii	"ESR\000"
 11703 55d9 2D       		.byte	0x2d
 11704 55da 9301     		.2byte	0x193
 11705 55dc E1500000 		.4byte	0x50e1
 11706 55e0 18       		.byte	0x18
 11707 55e1 53       		.uleb128 0x53
 11708 55e2 42545200 		.ascii	"BTR\000"
 11709 55e6 2D       		.byte	0x2d
 11710 55e7 9401     		.2byte	0x194
 11711 55e9 E1500000 		.4byte	0x50e1
 11712 55ed 1C       		.byte	0x1c
 11713 55ee 27       		.uleb128 0x27
 11714 55ef 9A590000 		.4byte	.LASF852
 11715 55f3 2D       		.byte	0x2d
 11716 55f4 9501     		.2byte	0x195
 11717 55f6 B2560000 		.4byte	0x56b2
 11718 55fa 20       		.byte	0x20
 11719 55fb 59       		.uleb128 0x59
 11720 55fc 7A2F0000 		.4byte	.LASF853
 11721 5600 2D       		.byte	0x2d
 11722 5601 9601     		.2byte	0x196
 11723 5603 C2560000 		.4byte	0x56c2
 11724 5607 8001     		.2byte	0x180
 11725 5609 59       		.uleb128 0x59
 11726 560a 97660000 		.4byte	.LASF854
 11727 560e 2D       		.byte	0x2d
 11728 560f 9701     		.2byte	0x197
 11729 5611 D2560000 		.4byte	0x56d2
 11730 5615 B001     		.2byte	0x1b0
 11731 5617 59       		.uleb128 0x59
 11732 5618 A4590000 		.4byte	.LASF855
 11733 561c 2D       		.byte	0x2d
 11734 561d 9801     		.2byte	0x198
 11735 561f E2560000 		.4byte	0x56e2
 11736 5623 D001     		.2byte	0x1d0
 11737 5625 5A       		.uleb128 0x5a
 11738 5626 464D5200 		.ascii	"FMR\000"
 11739 562a 2D       		.byte	0x2d
 11740 562b 9901     		.2byte	0x199
 11741 562d E1500000 		.4byte	0x50e1
 11742 5631 0002     		.2byte	0x200
 11743 5633 59       		.uleb128 0x59
 11744 5634 B8000000 		.4byte	.LASF856
 11745 5638 2D       		.byte	0x2d
 11746 5639 9A01     		.2byte	0x19a
 11747 563b E1500000 		.4byte	0x50e1
 11748 563f 0402     		.2byte	0x204
 11749 5641 59       		.uleb128 0x59
 11750 5642 AE590000 		.4byte	.LASF857
ARM GAS  /tmp/ccfWo18f.s 			page 208


 11751 5646 2D       		.byte	0x2d
 11752 5647 9B01     		.2byte	0x19b
 11753 5649 464D0000 		.4byte	0x4d46
 11754 564d 0802     		.2byte	0x208
 11755 564f 59       		.uleb128 0x59
 11756 5650 5A600000 		.4byte	.LASF858
 11757 5654 2D       		.byte	0x2d
 11758 5655 9C01     		.2byte	0x19c
 11759 5657 E1500000 		.4byte	0x50e1
 11760 565b 0C02     		.2byte	0x20c
 11761 565d 59       		.uleb128 0x59
 11762 565e B8590000 		.4byte	.LASF859
 11763 5662 2D       		.byte	0x2d
 11764 5663 9D01     		.2byte	0x19d
 11765 5665 464D0000 		.4byte	0x4d46
 11766 5669 1002     		.2byte	0x210
 11767 566b 59       		.uleb128 0x59
 11768 566c DF460000 		.4byte	.LASF860
 11769 5670 2D       		.byte	0x2d
 11770 5671 9E01     		.2byte	0x19e
 11771 5673 E1500000 		.4byte	0x50e1
 11772 5677 1402     		.2byte	0x214
 11773 5679 59       		.uleb128 0x59
 11774 567a C2590000 		.4byte	.LASF861
 11775 567e 2D       		.byte	0x2d
 11776 567f 9F01     		.2byte	0x19f
 11777 5681 464D0000 		.4byte	0x4d46
 11778 5685 1802     		.2byte	0x218
 11779 5687 59       		.uleb128 0x59
 11780 5688 FA0E0000 		.4byte	.LASF862
 11781 568c 2D       		.byte	0x2d
 11782 568d A001     		.2byte	0x1a0
 11783 568f E1500000 		.4byte	0x50e1
 11784 5693 1C02     		.2byte	0x21c
 11785 5695 59       		.uleb128 0x59
 11786 5696 CC590000 		.4byte	.LASF863
 11787 569a 2D       		.byte	0x2d
 11788 569b A101     		.2byte	0x1a1
 11789 569d E6500000 		.4byte	0x50e6
 11790 56a1 2002     		.2byte	0x220
 11791 56a3 59       		.uleb128 0x59
 11792 56a4 A1130000 		.4byte	.LASF864
 11793 56a8 2D       		.byte	0x2d
 11794 56a9 A201     		.2byte	0x1a2
 11795 56ab F2560000 		.4byte	0x56f2
 11796 56af 4002     		.2byte	0x240
 11797 56b1 00       		.byte	0
 11798 56b2 08       		.uleb128 0x8
 11799 56b3 8D000000 		.4byte	0x8d
 11800 56b7 C2560000 		.4byte	0x56c2
 11801 56bb 09       		.uleb128 0x9
 11802 56bc AD000000 		.4byte	0xad
 11803 56c0 57       		.byte	0x57
 11804 56c1 00       		.byte	0
 11805 56c2 08       		.uleb128 0x8
 11806 56c3 EA540000 		.4byte	0x54ea
 11807 56c7 D2560000 		.4byte	0x56d2
ARM GAS  /tmp/ccfWo18f.s 			page 209


 11808 56cb 09       		.uleb128 0x9
 11809 56cc AD000000 		.4byte	0xad
 11810 56d0 02       		.byte	0x2
 11811 56d1 00       		.byte	0
 11812 56d2 08       		.uleb128 0x8
 11813 56d3 38550000 		.4byte	0x5538
 11814 56d7 E2560000 		.4byte	0x56e2
 11815 56db 09       		.uleb128 0x9
 11816 56dc AD000000 		.4byte	0xad
 11817 56e0 01       		.byte	0x1
 11818 56e1 00       		.byte	0
 11819 56e2 08       		.uleb128 0x8
 11820 56e3 8D000000 		.4byte	0x8d
 11821 56e7 F2560000 		.4byte	0x56f2
 11822 56eb 09       		.uleb128 0x9
 11823 56ec AD000000 		.4byte	0xad
 11824 56f0 0B       		.byte	0xb
 11825 56f1 00       		.byte	0
 11826 56f2 08       		.uleb128 0x8
 11827 56f3 6C550000 		.4byte	0x556c
 11828 56f7 02570000 		.4byte	0x5702
 11829 56fb 09       		.uleb128 0x9
 11830 56fc AD000000 		.4byte	0xad
 11831 5700 1B       		.byte	0x1b
 11832 5701 00       		.byte	0
 11833 5702 28       		.uleb128 0x28
 11834 5703 DE230000 		.4byte	.LASF865
 11835 5707 2D       		.byte	0x2d
 11836 5708 A301     		.2byte	0x1a3
 11837 570a 78550000 		.4byte	0x5578
 11838 570e 57       		.uleb128 0x57
 11839 570f 60       		.byte	0x60
 11840 5710 2D       		.byte	0x2d
 11841 5711 E102     		.2byte	0x2e1
 11842 5713 12420000 		.4byte	.LASF866
 11843 5717 93580000 		.4byte	0x5893
 11844 571b 53       		.uleb128 0x53
 11845 571c 43523100 		.ascii	"CR1\000"
 11846 5720 2D       		.byte	0x2d
 11847 5721 E202     		.2byte	0x2e2
 11848 5723 9E540000 		.4byte	0x549e
 11849 5727 00       		.byte	0
 11850 5728 27       		.uleb128 0x27
 11851 5729 9A590000 		.4byte	.LASF852
 11852 572d 2D       		.byte	0x2d
 11853 572e E302     		.2byte	0x2e3
 11854 5730 304D0000 		.4byte	0x4d30
 11855 5734 02       		.byte	0x2
 11856 5735 53       		.uleb128 0x53
 11857 5736 43523200 		.ascii	"CR2\000"
 11858 573a 2D       		.byte	0x2d
 11859 573b E402     		.2byte	0x2e4
 11860 573d E1500000 		.4byte	0x50e1
 11861 5741 04       		.byte	0x4
 11862 5742 27       		.uleb128 0x27
 11863 5743 3D420000 		.4byte	.LASF867
 11864 5747 2D       		.byte	0x2d
ARM GAS  /tmp/ccfWo18f.s 			page 210


 11865 5748 E502     		.2byte	0x2e5
 11866 574a E1500000 		.4byte	0x50e1
 11867 574e 08       		.byte	0x8
 11868 574f 27       		.uleb128 0x27
 11869 5750 D91A0000 		.4byte	.LASF868
 11870 5754 2D       		.byte	0x2d
 11871 5755 E602     		.2byte	0x2e6
 11872 5757 E1500000 		.4byte	0x50e1
 11873 575b 0C       		.byte	0xc
 11874 575c 53       		.uleb128 0x53
 11875 575d 535200   		.ascii	"SR\000"
 11876 5760 2D       		.byte	0x2d
 11877 5761 E702     		.2byte	0x2e7
 11878 5763 E1500000 		.4byte	0x50e1
 11879 5767 10       		.byte	0x10
 11880 5768 53       		.uleb128 0x53
 11881 5769 45475200 		.ascii	"EGR\000"
 11882 576d 2D       		.byte	0x2d
 11883 576e E802     		.2byte	0x2e8
 11884 5770 E1500000 		.4byte	0x50e1
 11885 5774 14       		.byte	0x14
 11886 5775 27       		.uleb128 0x27
 11887 5776 C86C0000 		.4byte	.LASF869
 11888 577a 2D       		.byte	0x2d
 11889 577b E902     		.2byte	0x2e9
 11890 577d E1500000 		.4byte	0x50e1
 11891 5781 18       		.byte	0x18
 11892 5782 27       		.uleb128 0x27
 11893 5783 CE6C0000 		.4byte	.LASF870
 11894 5787 2D       		.byte	0x2d
 11895 5788 EA02     		.2byte	0x2ea
 11896 578a E1500000 		.4byte	0x50e1
 11897 578e 1C       		.byte	0x1c
 11898 578f 27       		.uleb128 0x27
 11899 5790 60150000 		.4byte	.LASF871
 11900 5794 2D       		.byte	0x2d
 11901 5795 EB02     		.2byte	0x2eb
 11902 5797 E1500000 		.4byte	0x50e1
 11903 579b 20       		.byte	0x20
 11904 579c 53       		.uleb128 0x53
 11905 579d 434E5400 		.ascii	"CNT\000"
 11906 57a1 2D       		.byte	0x2d
 11907 57a2 EC02     		.2byte	0x2ec
 11908 57a4 E1500000 		.4byte	0x50e1
 11909 57a8 24       		.byte	0x24
 11910 57a9 53       		.uleb128 0x53
 11911 57aa 50534300 		.ascii	"PSC\000"
 11912 57ae 2D       		.byte	0x2d
 11913 57af ED02     		.2byte	0x2ed
 11914 57b1 9E540000 		.4byte	0x549e
 11915 57b5 28       		.byte	0x28
 11916 57b6 27       		.uleb128 0x27
 11917 57b7 D23E0000 		.4byte	.LASF872
 11918 57bb 2D       		.byte	0x2d
 11919 57bc EE02     		.2byte	0x2ee
 11920 57be 304D0000 		.4byte	0x4d30
 11921 57c2 2A       		.byte	0x2a
ARM GAS  /tmp/ccfWo18f.s 			page 211


 11922 57c3 53       		.uleb128 0x53
 11923 57c4 41525200 		.ascii	"ARR\000"
 11924 57c8 2D       		.byte	0x2d
 11925 57c9 EF02     		.2byte	0x2ef
 11926 57cb E1500000 		.4byte	0x50e1
 11927 57cf 2C       		.byte	0x2c
 11928 57d0 53       		.uleb128 0x53
 11929 57d1 52435200 		.ascii	"RCR\000"
 11930 57d5 2D       		.byte	0x2d
 11931 57d6 F002     		.2byte	0x2f0
 11932 57d8 9E540000 		.4byte	0x549e
 11933 57dc 30       		.byte	0x30
 11934 57dd 27       		.uleb128 0x27
 11935 57de A4170000 		.4byte	.LASF873
 11936 57e2 2D       		.byte	0x2d
 11937 57e3 F102     		.2byte	0x2f1
 11938 57e5 304D0000 		.4byte	0x4d30
 11939 57e9 32       		.byte	0x32
 11940 57ea 27       		.uleb128 0x27
 11941 57eb 402A0000 		.4byte	.LASF874
 11942 57ef 2D       		.byte	0x2d
 11943 57f0 F202     		.2byte	0x2f2
 11944 57f2 E1500000 		.4byte	0x50e1
 11945 57f6 34       		.byte	0x34
 11946 57f7 27       		.uleb128 0x27
 11947 57f8 452A0000 		.4byte	.LASF875
 11948 57fc 2D       		.byte	0x2d
 11949 57fd F302     		.2byte	0x2f3
 11950 57ff E1500000 		.4byte	0x50e1
 11951 5803 38       		.byte	0x38
 11952 5804 27       		.uleb128 0x27
 11953 5805 4A2A0000 		.4byte	.LASF876
 11954 5809 2D       		.byte	0x2d
 11955 580a F402     		.2byte	0x2f4
 11956 580c E1500000 		.4byte	0x50e1
 11957 5810 3C       		.byte	0x3c
 11958 5811 27       		.uleb128 0x27
 11959 5812 4F2A0000 		.4byte	.LASF877
 11960 5816 2D       		.byte	0x2d
 11961 5817 F502     		.2byte	0x2f5
 11962 5819 E1500000 		.4byte	0x50e1
 11963 581d 40       		.byte	0x40
 11964 581e 27       		.uleb128 0x27
 11965 581f 3A060000 		.4byte	.LASF878
 11966 5823 2D       		.byte	0x2d
 11967 5824 F602     		.2byte	0x2f6
 11968 5826 E1500000 		.4byte	0x50e1
 11969 582a 44       		.byte	0x44
 11970 582b 53       		.uleb128 0x53
 11971 582c 44435200 		.ascii	"DCR\000"
 11972 5830 2D       		.byte	0x2d
 11973 5831 F702     		.2byte	0x2f7
 11974 5833 9E540000 		.4byte	0x549e
 11975 5837 48       		.byte	0x48
 11976 5838 27       		.uleb128 0x27
 11977 5839 BB170000 		.4byte	.LASF879
 11978 583d 2D       		.byte	0x2d
ARM GAS  /tmp/ccfWo18f.s 			page 212


 11979 583e F802     		.2byte	0x2f8
 11980 5840 304D0000 		.4byte	0x4d30
 11981 5844 4A       		.byte	0x4a
 11982 5845 27       		.uleb128 0x27
 11983 5846 CF330000 		.4byte	.LASF880
 11984 584a 2D       		.byte	0x2d
 11985 584b F902     		.2byte	0x2f9
 11986 584d 9E540000 		.4byte	0x549e
 11987 5851 4C       		.byte	0x4c
 11988 5852 27       		.uleb128 0x27
 11989 5853 24340000 		.4byte	.LASF881
 11990 5857 2D       		.byte	0x2d
 11991 5858 FA02     		.2byte	0x2fa
 11992 585a 304D0000 		.4byte	0x4d30
 11993 585e 4E       		.byte	0x4e
 11994 585f 53       		.uleb128 0x53
 11995 5860 4F5200   		.ascii	"OR\000"
 11996 5863 2D       		.byte	0x2d
 11997 5864 FB02     		.2byte	0x2fb
 11998 5866 9E540000 		.4byte	0x549e
 11999 586a 50       		.byte	0x50
 12000 586b 27       		.uleb128 0x27
 12001 586c D46C0000 		.4byte	.LASF882
 12002 5870 2D       		.byte	0x2d
 12003 5871 FC02     		.2byte	0x2fc
 12004 5873 E1500000 		.4byte	0x50e1
 12005 5877 54       		.byte	0x54
 12006 5878 27       		.uleb128 0x27
 12007 5879 542A0000 		.4byte	.LASF883
 12008 587d 2D       		.byte	0x2d
 12009 587e FD02     		.2byte	0x2fd
 12010 5880 E1500000 		.4byte	0x50e1
 12011 5884 58       		.byte	0x58
 12012 5885 27       		.uleb128 0x27
 12013 5886 E30F0000 		.4byte	.LASF884
 12014 588a 2D       		.byte	0x2d
 12015 588b FE02     		.2byte	0x2fe
 12016 588d E1500000 		.4byte	0x50e1
 12017 5891 5C       		.byte	0x5c
 12018 5892 00       		.byte	0
 12019 5893 28       		.uleb128 0x28
 12020 5894 30330000 		.4byte	.LASF885
 12021 5898 2D       		.byte	0x2d
 12022 5899 FF02     		.2byte	0x2ff
 12023 589b 0E570000 		.4byte	0x570e
 12024 589f 03       		.uleb128 0x3
 12025 58a0 4B120000 		.4byte	.LASF886
 12026 58a4 2E       		.byte	0x2e
 12027 58a5 5E       		.byte	0x5e
 12028 58a6 AA580000 		.4byte	0x58aa
 12029 58aa 4E       		.uleb128 0x4e
 12030 58ab 4B120000 		.4byte	.LASF886
 12031 58af 1E       		.byte	0x1e
 12032 58b0 2E       		.byte	0x2e
 12033 58b1 B9       		.byte	0xb9
 12034 58b2 74590000 		.4byte	0x5974
 12035 58b6 4F       		.uleb128 0x4f
ARM GAS  /tmp/ccfWo18f.s 			page 213


 12036 58b7 04       		.byte	0x4
 12037 58b8 2E       		.byte	0x2e
 12038 58b9 BE       		.byte	0xbe
 12039 58ba FF580000 		.4byte	0x58ff
 12040 58be 34       		.uleb128 0x34
 12041 58bf 04       		.byte	0x4
 12042 58c0 2E       		.byte	0x2e
 12043 58c1 BF       		.byte	0xbf
 12044 58c2 D3580000 		.4byte	0x58d3
 12045 58c6 1D       		.uleb128 0x1d
 12046 58c7 703E0000 		.4byte	.LASF887
 12047 58cb 2E       		.byte	0x2e
 12048 58cc C0       		.byte	0xc0
 12049 58cd 464D0000 		.4byte	0x4d46
 12050 58d1 00       		.byte	0
 12051 58d2 00       		.byte	0
 12052 58d3 34       		.uleb128 0x34
 12053 58d4 04       		.byte	0x4
 12054 58d5 2E       		.byte	0x2e
 12055 58d6 C2       		.byte	0xc2
 12056 58d7 F4580000 		.4byte	0x58f4
 12057 58db 1D       		.uleb128 0x1d
 12058 58dc F52F0000 		.4byte	.LASF888
 12059 58e0 2E       		.byte	0x2e
 12060 58e1 C3       		.byte	0xc3
 12061 58e2 304D0000 		.4byte	0x4d30
 12062 58e6 00       		.byte	0
 12063 58e7 1D       		.uleb128 0x1d
 12064 58e8 57350000 		.4byte	.LASF889
 12065 58ec 2E       		.byte	0x2e
 12066 58ed C4       		.byte	0xc4
 12067 58ee 304D0000 		.4byte	0x4d30
 12068 58f2 02       		.byte	0x2
 12069 58f3 00       		.byte	0
 12070 58f4 5B       		.uleb128 0x5b
 12071 58f5 BE580000 		.4byte	0x58be
 12072 58f9 5B       		.uleb128 0x5b
 12073 58fa D3580000 		.4byte	0x58d3
 12074 58fe 00       		.byte	0
 12075 58ff 1D       		.uleb128 0x1d
 12076 5900 53070000 		.4byte	.LASF890
 12077 5904 2E       		.byte	0x2e
 12078 5905 BA       		.byte	0xba
 12079 5906 D05A0000 		.4byte	0x5ad0
 12080 590a 00       		.byte	0
 12081 590b 1D       		.uleb128 0x1d
 12082 590c AE3A0000 		.4byte	.LASF891
 12083 5910 2E       		.byte	0x2e
 12084 5911 BB       		.byte	0xbb
 12085 5912 0F5A0000 		.4byte	0x5a0f
 12086 5916 04       		.byte	0x4
 12087 5917 1D       		.uleb128 0x1d
 12088 5918 3E300000 		.4byte	.LASF892
 12089 591c 2E       		.byte	0x2e
 12090 591d BC       		.byte	0xbc
 12091 591e 74590000 		.4byte	0x5974
 12092 5922 05       		.byte	0x5
ARM GAS  /tmp/ccfWo18f.s 			page 214


 12093 5923 1D       		.uleb128 0x1d
 12094 5924 5F2E0000 		.4byte	.LASF893
 12095 5928 2E       		.byte	0x2e
 12096 5929 BD       		.byte	0xbd
 12097 592a B4000000 		.4byte	0xb4
 12098 592e 09       		.byte	0x9
 12099 592f 5C       		.uleb128 0x5c
 12100 5930 B6580000 		.4byte	0x58b6
 12101 5934 0D       		.byte	0xd
 12102 5935 50       		.uleb128 0x50
 12103 5936 696400   		.ascii	"id\000"
 12104 5939 2E       		.byte	0x2e
 12105 593a C7       		.byte	0xc7
 12106 593b 1A5A0000 		.4byte	0x5a1a
 12107 593f 11       		.byte	0x11
 12108 5940 1D       		.uleb128 0x1d
 12109 5941 29230000 		.4byte	.LASF894
 12110 5945 2E       		.byte	0x2e
 12111 5946 C8       		.byte	0xc8
 12112 5947 304D0000 		.4byte	0x4d30
 12113 594b 13       		.byte	0x13
 12114 594c 1D       		.uleb128 0x1d
 12115 594d 01570000 		.4byte	.LASF895
 12116 5951 2E       		.byte	0x2e
 12117 5952 C9       		.byte	0xc9
 12118 5953 50520000 		.4byte	0x5250
 12119 5957 15       		.byte	0x15
 12120 5958 50       		.uleb128 0x50
 12121 5959 70747200 		.ascii	"ptr\000"
 12122 595d 2E       		.byte	0x2e
 12123 595e CA       		.byte	0xca
 12124 595f 4A520000 		.4byte	0x524a
 12125 5963 19       		.byte	0x19
 12126 5964 35       		.uleb128 0x35
 12127 5965 22140000 		.4byte	.LASF896
 12128 5969 2E       		.byte	0x2e
 12129 596a CB       		.byte	0xcb
 12130 596b 254D0000 		.4byte	0x4d25
 12131 596f 01       		.byte	0x1
 12132 5970 07       		.byte	0x7
 12133 5971 01       		.byte	0x1
 12134 5972 1D       		.byte	0x1d
 12135 5973 00       		.byte	0
 12136 5974 03       		.uleb128 0x3
 12137 5975 A5140000 		.4byte	.LASF897
 12138 5979 2E       		.byte	0x2e
 12139 597a 63       		.byte	0x63
 12140 597b 7F590000 		.4byte	0x597f
 12141 597f 06       		.uleb128 0x6
 12142 5980 04       		.byte	0x4
 12143 5981 85590000 		.4byte	0x5985
 12144 5985 5D       		.uleb128 0x5d
 12145 5986 90590000 		.4byte	0x5990
 12146 598a 0D       		.uleb128 0xd
 12147 598b 90590000 		.4byte	0x5990
 12148 598f 00       		.byte	0
 12149 5990 06       		.uleb128 0x6
ARM GAS  /tmp/ccfWo18f.s 			page 215


 12150 5991 04       		.byte	0x4
 12151 5992 9F580000 		.4byte	0x589f
 12152 5996 5E       		.uleb128 0x5e
 12153 5997 01       		.byte	0x1
 12154 5998 2E       		.byte	0x2e
 12155 5999 68       		.byte	0x68
 12156 599a FD050000 		.4byte	.LASF907
 12157 599e CD590000 		.4byte	0x59cd
 12158 59a2 41       		.uleb128 0x41
 12159 59a3 063C0000 		.4byte	.LASF899
 12160 59a7 00       		.sleb128 0
 12161 59a8 41       		.uleb128 0x41
 12162 59a9 B3490000 		.4byte	.LASF900
 12163 59ad 01       		.sleb128 1
 12164 59ae 41       		.uleb128 0x41
 12165 59af B1130000 		.4byte	.LASF901
 12166 59b3 02       		.sleb128 2
 12167 59b4 41       		.uleb128 0x41
 12168 59b5 C0150000 		.4byte	.LASF902
 12169 59b9 03       		.sleb128 3
 12170 59ba 41       		.uleb128 0x41
 12171 59bb F7140000 		.4byte	.LASF903
 12172 59bf 04       		.sleb128 4
 12173 59c0 41       		.uleb128 0x41
 12174 59c1 67130000 		.4byte	.LASF904
 12175 59c5 05       		.sleb128 5
 12176 59c6 41       		.uleb128 0x41
 12177 59c7 7A440000 		.4byte	.LASF905
 12178 59cb 06       		.sleb128 6
 12179 59cc 00       		.byte	0
 12180 59cd 03       		.uleb128 0x3
 12181 59ce 404D0000 		.4byte	.LASF906
 12182 59d2 2E       		.byte	0x2e
 12183 59d3 70       		.byte	0x70
 12184 59d4 96590000 		.4byte	0x5996
 12185 59d8 5E       		.uleb128 0x5e
 12186 59d9 01       		.byte	0x1
 12187 59da 2E       		.byte	0x2e
 12188 59db 75       		.byte	0x75
 12189 59dc 74320000 		.4byte	.LASF908
 12190 59e0 0F5A0000 		.4byte	0x5a0f
 12191 59e4 41       		.uleb128 0x41
 12192 59e5 66160000 		.4byte	.LASF909
 12193 59e9 00       		.sleb128 0
 12194 59ea 41       		.uleb128 0x41
 12195 59eb 99190000 		.4byte	.LASF910
 12196 59ef 01       		.sleb128 1
 12197 59f0 41       		.uleb128 0x41
 12198 59f1 3C1A0000 		.4byte	.LASF911
 12199 59f5 02       		.sleb128 2
 12200 59f6 41       		.uleb128 0x41
 12201 59f7 DD300000 		.4byte	.LASF912
 12202 59fb 03       		.sleb128 3
 12203 59fc 41       		.uleb128 0x41
 12204 59fd FC500000 		.4byte	.LASF913
 12205 5a01 04       		.sleb128 4
 12206 5a02 41       		.uleb128 0x41
ARM GAS  /tmp/ccfWo18f.s 			page 216


 12207 5a03 87440000 		.4byte	.LASF914
 12208 5a07 05       		.sleb128 5
 12209 5a08 41       		.uleb128 0x41
 12210 5a09 EE1B0000 		.4byte	.LASF915
 12211 5a0d 06       		.sleb128 6
 12212 5a0e 00       		.byte	0
 12213 5a0f 03       		.uleb128 0x3
 12214 5a10 FA340000 		.4byte	.LASF916
 12215 5a14 2E       		.byte	0x2e
 12216 5a15 7D       		.byte	0x7d
 12217 5a16 D8590000 		.4byte	0x59d8
 12218 5a1a 03       		.uleb128 0x3
 12219 5a1b 4A2E0000 		.4byte	.LASF917
 12220 5a1f 2E       		.byte	0x2e
 12221 5a20 83       		.byte	0x83
 12222 5a21 304D0000 		.4byte	0x4d30
 12223 5a25 51       		.uleb128 0x51
 12224 5a26 04       		.byte	0x4
 12225 5a27 2F       		.byte	0x2f
 12226 5a28 1F       		.byte	0x1f
 12227 5a29 C7250000 		.4byte	.LASF918
 12228 5a2d 3E5A0000 		.4byte	0x5a3e
 12229 5a31 1D       		.uleb128 0x1d
 12230 5a32 53070000 		.4byte	.LASF890
 12231 5a36 2F       		.byte	0x2f
 12232 5a37 20       		.byte	0x20
 12233 5a38 90590000 		.4byte	0x5990
 12234 5a3c 00       		.byte	0
 12235 5a3d 00       		.byte	0
 12236 5a3e 03       		.uleb128 0x3
 12237 5a3f 74560000 		.4byte	.LASF919
 12238 5a43 2F       		.byte	0x2f
 12239 5a44 21       		.byte	0x21
 12240 5a45 255A0000 		.4byte	0x5a25
 12241 5a49 03       		.uleb128 0x3
 12242 5a4a D44C0000 		.4byte	.LASF920
 12243 5a4e 30       		.byte	0x30
 12244 5a4f 21       		.byte	0x21
 12245 5a50 545A0000 		.4byte	0x5a54
 12246 5a54 4E       		.uleb128 0x4e
 12247 5a55 D44C0000 		.4byte	.LASF920
 12248 5a59 60       		.byte	0x60
 12249 5a5a 2E       		.byte	0x2e
 12250 5a5b E3       		.byte	0xe3
 12251 5a5c D05A0000 		.4byte	0x5ad0
 12252 5a60 1D       		.uleb128 0x1d
 12253 5a61 453E0000 		.4byte	.LASF921
 12254 5a65 2E       		.byte	0x2e
 12255 5a66 E7       		.byte	0xe7
 12256 5a67 CD590000 		.4byte	0x59cd
 12257 5a6b 00       		.byte	0
 12258 5a6c 1D       		.uleb128 0x1d
 12259 5a6d F52F0000 		.4byte	.LASF888
 12260 5a71 2E       		.byte	0x2e
 12261 5a72 EB       		.byte	0xeb
 12262 5a73 464D0000 		.4byte	0x4d46
 12263 5a77 04       		.byte	0x4
ARM GAS  /tmp/ccfWo18f.s 			page 217


 12264 5a78 1D       		.uleb128 0x1d
 12265 5a79 DD410000 		.4byte	.LASF922
 12266 5a7d 2E       		.byte	0x2e
 12267 5a7e EF       		.byte	0xef
 12268 5a7f 464D0000 		.4byte	0x4d46
 12269 5a83 08       		.byte	0x8
 12270 5a84 1D       		.uleb128 0x1d
 12271 5a85 C9280000 		.4byte	.LASF923
 12272 5a89 2E       		.byte	0x2e
 12273 5a8a F3       		.byte	0xf3
 12274 5a8b 3E5A0000 		.4byte	0x5a3e
 12275 5a8f 0C       		.byte	0xc
 12276 5a90 1D       		.uleb128 0x1d
 12277 5a91 94590000 		.4byte	.LASF924
 12278 5a95 2E       		.byte	0x2e
 12279 5a96 F7       		.byte	0xf7
 12280 5a97 125B0000 		.4byte	0x5b12
 12281 5a9b 10       		.byte	0x10
 12282 5a9c 1D       		.uleb128 0x1d
 12283 5a9d 2C530000 		.4byte	.LASF925
 12284 5aa1 2E       		.byte	0x2e
 12285 5aa2 FB       		.byte	0xfb
 12286 5aa3 225B0000 		.4byte	0x5b22
 12287 5aa7 1C       		.byte	0x1c
 12288 5aa8 27       		.uleb128 0x27
 12289 5aa9 93510000 		.4byte	.LASF926
 12290 5aad 2E       		.byte	0x2e
 12291 5aae 0901     		.2byte	0x109
 12292 5ab0 325B0000 		.4byte	0x5b32
 12293 5ab4 54       		.byte	0x54
 12294 5ab5 53       		.uleb128 0x53
 12295 5ab6 74696D00 		.ascii	"tim\000"
 12296 5aba 2E       		.byte	0x2e
 12297 5abb 0E01     		.2byte	0x10e
 12298 5abd 3D5B0000 		.4byte	0x5b3d
 12299 5ac1 58       		.byte	0x58
 12300 5ac2 53       		.uleb128 0x53
 12301 5ac3 63616E00 		.ascii	"can\000"
 12302 5ac7 2E       		.byte	0x2e
 12303 5ac8 1301     		.2byte	0x113
 12304 5aca 435B0000 		.4byte	0x5b43
 12305 5ace 5C       		.byte	0x5c
 12306 5acf 00       		.byte	0
 12307 5ad0 06       		.uleb128 0x6
 12308 5ad1 04       		.byte	0x4
 12309 5ad2 AA580000 		.4byte	0x58aa
 12310 5ad6 51       		.uleb128 0x51
 12311 5ad7 0C       		.byte	0xc
 12312 5ad8 2E       		.byte	0x2e
 12313 5ad9 D1       		.byte	0xd1
 12314 5ada 40200000 		.4byte	.LASF927
 12315 5ade 075B0000 		.4byte	0x5b07
 12316 5ae2 1D       		.uleb128 0x1d
 12317 5ae3 E0170000 		.4byte	.LASF928
 12318 5ae7 2E       		.byte	0x2e
 12319 5ae8 D5       		.byte	0xd5
 12320 5ae9 464D0000 		.4byte	0x4d46
ARM GAS  /tmp/ccfWo18f.s 			page 218


 12321 5aed 00       		.byte	0
 12322 5aee 1D       		.uleb128 0x1d
 12323 5aef 9E230000 		.4byte	.LASF929
 12324 5af3 2E       		.byte	0x2e
 12325 5af4 D9       		.byte	0xd9
 12326 5af5 464D0000 		.4byte	0x4d46
 12327 5af9 04       		.byte	0x4
 12328 5afa 1D       		.uleb128 0x1d
 12329 5afb 88070000 		.4byte	.LASF930
 12330 5aff 2E       		.byte	0x2e
 12331 5b00 DD       		.byte	0xdd
 12332 5b01 464D0000 		.4byte	0x4d46
 12333 5b05 08       		.byte	0x8
 12334 5b06 00       		.byte	0
 12335 5b07 03       		.uleb128 0x3
 12336 5b08 FE020000 		.4byte	.LASF931
 12337 5b0c 2E       		.byte	0x2e
 12338 5b0d DE       		.byte	0xde
 12339 5b0e D65A0000 		.4byte	0x5ad6
 12340 5b12 08       		.uleb128 0x8
 12341 5b13 90590000 		.4byte	0x5990
 12342 5b17 225B0000 		.4byte	0x5b22
 12343 5b1b 09       		.uleb128 0x9
 12344 5b1c AD000000 		.4byte	0xad
 12345 5b20 02       		.byte	0x2
 12346 5b21 00       		.byte	0
 12347 5b22 08       		.uleb128 0x8
 12348 5b23 90590000 		.4byte	0x5990
 12349 5b27 325B0000 		.4byte	0x5b32
 12350 5b2b 09       		.uleb128 0x9
 12351 5b2c AD000000 		.4byte	0xad
 12352 5b30 0D       		.byte	0xd
 12353 5b31 00       		.byte	0
 12354 5b32 06       		.uleb128 0x6
 12355 5b33 04       		.byte	0x4
 12356 5b34 385B0000 		.4byte	0x5b38
 12357 5b38 07       		.uleb128 0x7
 12358 5b39 075B0000 		.4byte	0x5b07
 12359 5b3d 06       		.uleb128 0x6
 12360 5b3e 04       		.byte	0x4
 12361 5b3f 93580000 		.4byte	0x5893
 12362 5b43 06       		.uleb128 0x6
 12363 5b44 04       		.byte	0x4
 12364 5b45 02570000 		.4byte	0x5702
 12365 5b49 06       		.uleb128 0x6
 12366 5b4a 04       		.byte	0x4
 12367 5b4b D0200000 		.4byte	0x20d0
 12368 5b4f 06       		.uleb128 0x6
 12369 5b50 04       		.byte	0x4
 12370 5b51 555B0000 		.4byte	0x5b55
 12371 5b55 55       		.uleb128 0x55
 12372 5b56 5C4D0000 		.4byte	0x4d5c
 12373 5b5a 645B0000 		.4byte	0x5b64
 12374 5b5e 0D       		.uleb128 0xd
 12375 5b5f 645B0000 		.4byte	0x5b64
 12376 5b63 00       		.byte	0
 12377 5b64 4D       		.uleb128 0x4d
ARM GAS  /tmp/ccfWo18f.s 			page 219


 12378 5b65 04       		.byte	0x4
 12379 5b66 00270000 		.4byte	0x2700
 12380 5b6a 06       		.uleb128 0x6
 12381 5b6b 04       		.byte	0x4
 12382 5b6c 705B0000 		.4byte	0x5b70
 12383 5b70 55       		.uleb128 0x55
 12384 5b71 5C4D0000 		.4byte	0x4d5c
 12385 5b75 845B0000 		.4byte	0x5b84
 12386 5b79 0D       		.uleb128 0xd
 12387 5b7a 645B0000 		.4byte	0x5b64
 12388 5b7e 0D       		.uleb128 0xd
 12389 5b7f 67520000 		.4byte	0x5267
 12390 5b83 00       		.byte	0
 12391 5b84 06       		.uleb128 0x6
 12392 5b85 04       		.byte	0x4
 12393 5b86 D8220000 		.4byte	0x22d8
 12394 5b8a 06       		.uleb128 0x6
 12395 5b8b 04       		.byte	0x4
 12396 5b8c 0A270000 		.4byte	0x270a
 12397 5b90 06       		.uleb128 0x6
 12398 5b91 04       		.byte	0x4
 12399 5b92 BE200000 		.4byte	0x20be
 12400 5b96 4D       		.uleb128 0x4d
 12401 5b97 04       		.byte	0x4
 12402 5b98 D0200000 		.4byte	0x20d0
 12403 5b9c 06       		.uleb128 0x6
 12404 5b9d 04       		.byte	0x4
 12405 5b9e 05270000 		.4byte	0x2705
 12406 5ba2 4D       		.uleb128 0x4d
 12407 5ba3 04       		.byte	0x4
 12408 5ba4 22210000 		.4byte	0x2122
 12409 5ba8 4D       		.uleb128 0x4d
 12410 5ba9 04       		.byte	0x4
 12411 5baa 27210000 		.4byte	0x2127
 12412 5bae 4D       		.uleb128 0x4d
 12413 5baf 04       		.byte	0x4
 12414 5bb0 2C210000 		.4byte	0x212c
 12415 5bb4 4D       		.uleb128 0x4d
 12416 5bb5 04       		.byte	0x4
 12417 5bb6 31210000 		.4byte	0x2131
 12418 5bba 06       		.uleb128 0x6
 12419 5bbb 04       		.byte	0x4
 12420 5bbc 21270000 		.4byte	0x2721
 12421 5bc0 06       		.uleb128 0x6
 12422 5bc1 04       		.byte	0x4
 12423 5bc2 C65B0000 		.4byte	0x5bc6
 12424 5bc6 55       		.uleb128 0x55
 12425 5bc7 5C4D0000 		.4byte	0x4d5c
 12426 5bcb D55B0000 		.4byte	0x5bd5
 12427 5bcf 0D       		.uleb128 0xd
 12428 5bd0 D55B0000 		.4byte	0x5bd5
 12429 5bd4 00       		.byte	0
 12430 5bd5 4D       		.uleb128 0x4d
 12431 5bd6 04       		.byte	0x4
 12432 5bd7 DC2B0000 		.4byte	0x2bdc
 12433 5bdb 06       		.uleb128 0x6
 12434 5bdc 04       		.byte	0x4
ARM GAS  /tmp/ccfWo18f.s 			page 220


 12435 5bdd E15B0000 		.4byte	0x5be1
 12436 5be1 55       		.uleb128 0x55
 12437 5be2 5C4D0000 		.4byte	0x4d5c
 12438 5be6 F55B0000 		.4byte	0x5bf5
 12439 5bea 0D       		.uleb128 0xd
 12440 5beb D55B0000 		.4byte	0x5bd5
 12441 5bef 0D       		.uleb128 0xd
 12442 5bf0 67520000 		.4byte	0x5267
 12443 5bf4 00       		.byte	0
 12444 5bf5 06       		.uleb128 0x6
 12445 5bf6 04       		.byte	0x4
 12446 5bf7 B9270000 		.4byte	0x27b9
 12447 5bfb 06       		.uleb128 0x6
 12448 5bfc 04       		.byte	0x4
 12449 5bfd 7E310000 		.4byte	0x317e
 12450 5c01 06       		.uleb128 0x6
 12451 5c02 04       		.byte	0x4
 12452 5c03 0F270000 		.4byte	0x270f
 12453 5c07 4D       		.uleb128 0x4d
 12454 5c08 04       		.byte	0x4
 12455 5c09 21270000 		.4byte	0x2721
 12456 5c0d 06       		.uleb128 0x6
 12457 5c0e 04       		.byte	0x4
 12458 5c0f E12B0000 		.4byte	0x2be1
 12459 5c13 4D       		.uleb128 0x4d
 12460 5c14 04       		.byte	0x4
 12461 5c15 6E270000 		.4byte	0x276e
 12462 5c19 4D       		.uleb128 0x4d
 12463 5c1a 04       		.byte	0x4
 12464 5c1b 73270000 		.4byte	0x2773
 12465 5c1f 4D       		.uleb128 0x4d
 12466 5c20 04       		.byte	0x4
 12467 5c21 78270000 		.4byte	0x2778
 12468 5c25 4D       		.uleb128 0x4d
 12469 5c26 04       		.byte	0x4
 12470 5c27 7D270000 		.4byte	0x277d
 12471 5c2b 07       		.uleb128 0x7
 12472 5c2c 0D5C0000 		.4byte	0x5c0d
 12473 5c30 4D       		.uleb128 0x4d
 12474 5c31 04       		.byte	0x4
 12475 5c32 E12B0000 		.4byte	0x2be1
 12476 5c36 07       		.uleb128 0x7
 12477 5c37 C3000000 		.4byte	0xc3
 12478 5c3b 06       		.uleb128 0x6
 12479 5c3c 04       		.byte	0x4
 12480 5c3d DC2B0000 		.4byte	0x2bdc
 12481 5c41 4D       		.uleb128 0x4d
 12482 5c42 04       		.byte	0x4
 12483 5c43 83310000 		.4byte	0x3183
 12484 5c47 4D       		.uleb128 0x4d
 12485 5c48 04       		.byte	0x4
 12486 5c49 540B0000 		.4byte	0xb54
 12487 5c4d 4D       		.uleb128 0x4d
 12488 5c4e 04       		.byte	0x4
 12489 5c4f 05270000 		.4byte	0x2705
 12490 5c53 4D       		.uleb128 0x4d
 12491 5c54 04       		.byte	0x4
ARM GAS  /tmp/ccfWo18f.s 			page 221


 12492 5c55 2B100000 		.4byte	0x102b
 12493 5c59 06       		.uleb128 0x6
 12494 5c5a 04       		.byte	0x4
 12495 5c5b 9A310000 		.4byte	0x319a
 12496 5c5f 06       		.uleb128 0x6
 12497 5c60 04       		.byte	0x4
 12498 5c61 655C0000 		.4byte	0x5c65
 12499 5c65 55       		.uleb128 0x55
 12500 5c66 5C4D0000 		.4byte	0x4d5c
 12501 5c6a 745C0000 		.4byte	0x5c74
 12502 5c6e 0D       		.uleb128 0xd
 12503 5c6f 745C0000 		.4byte	0x5c74
 12504 5c73 00       		.byte	0
 12505 5c74 4D       		.uleb128 0x4d
 12506 5c75 04       		.byte	0x4
 12507 5c76 CA370000 		.4byte	0x37ca
 12508 5c7a 06       		.uleb128 0x6
 12509 5c7b 04       		.byte	0x4
 12510 5c7c 805C0000 		.4byte	0x5c80
 12511 5c80 55       		.uleb128 0x55
 12512 5c81 5C4D0000 		.4byte	0x4d5c
 12513 5c85 945C0000 		.4byte	0x5c94
 12514 5c89 0D       		.uleb128 0xd
 12515 5c8a 745C0000 		.4byte	0x5c74
 12516 5c8e 0D       		.uleb128 0xd
 12517 5c8f 67520000 		.4byte	0x5267
 12518 5c93 00       		.byte	0
 12519 5c94 06       		.uleb128 0x6
 12520 5c95 04       		.byte	0x4
 12521 5c96 A2330000 		.4byte	0x33a2
 12522 5c9a 06       		.uleb128 0x6
 12523 5c9b 04       		.byte	0x4
 12524 5c9c CF370000 		.4byte	0x37cf
 12525 5ca0 06       		.uleb128 0x6
 12526 5ca1 04       		.byte	0x4
 12527 5ca2 88310000 		.4byte	0x3188
 12528 5ca6 4D       		.uleb128 0x4d
 12529 5ca7 04       		.byte	0x4
 12530 5ca8 9A310000 		.4byte	0x319a
 12531 5cac 06       		.uleb128 0x6
 12532 5cad 04       		.byte	0x4
 12533 5cae 83310000 		.4byte	0x3183
 12534 5cb2 4D       		.uleb128 0x4d
 12535 5cb3 04       		.byte	0x4
 12536 5cb4 EC310000 		.4byte	0x31ec
 12537 5cb8 4D       		.uleb128 0x4d
 12538 5cb9 04       		.byte	0x4
 12539 5cba F1310000 		.4byte	0x31f1
 12540 5cbe 4D       		.uleb128 0x4d
 12541 5cbf 04       		.byte	0x4
 12542 5cc0 F6310000 		.4byte	0x31f6
 12543 5cc4 4D       		.uleb128 0x4d
 12544 5cc5 04       		.byte	0x4
 12545 5cc6 FB310000 		.4byte	0x31fb
 12546 5cca 07       		.uleb128 0x7
 12547 5ccb AC5C0000 		.4byte	0x5cac
 12548 5ccf 4D       		.uleb128 0x4d
ARM GAS  /tmp/ccfWo18f.s 			page 222


 12549 5cd0 04       		.byte	0x4
 12550 5cd1 8D520000 		.4byte	0x528d
 12551 5cd5 07       		.uleb128 0x7
 12552 5cd6 9C5B0000 		.4byte	0x5b9c
 12553 5cda 06       		.uleb128 0x6
 12554 5cdb 04       		.byte	0x4
 12555 5cdc B2380000 		.4byte	0x38b2
 12556 5ce0 06       		.uleb128 0x6
 12557 5ce1 04       		.byte	0x4
 12558 5ce2 D4370000 		.4byte	0x37d4
 12559 5ce6 06       		.uleb128 0x6
 12560 5ce7 04       		.byte	0x4
 12561 5ce8 9B390000 		.4byte	0x399b
 12562 5cec 06       		.uleb128 0x6
 12563 5ced 04       		.byte	0x4
 12564 5cee B7380000 		.4byte	0x38b7
 12565 5cf2 06       		.uleb128 0x6
 12566 5cf3 04       		.byte	0x4
 12567 5cf4 B2390000 		.4byte	0x39b2
 12568 5cf8 06       		.uleb128 0x6
 12569 5cf9 04       		.byte	0x4
 12570 5cfa FE5C0000 		.4byte	0x5cfe
 12571 5cfe 55       		.uleb128 0x55
 12572 5cff 5C4D0000 		.4byte	0x4d5c
 12573 5d03 0D5D0000 		.4byte	0x5d0d
 12574 5d07 0D       		.uleb128 0xd
 12575 5d08 0D5D0000 		.4byte	0x5d0d
 12576 5d0c 00       		.byte	0
 12577 5d0d 4D       		.uleb128 0x4d
 12578 5d0e 04       		.byte	0x4
 12579 5d0f E23F0000 		.4byte	0x3fe2
 12580 5d13 06       		.uleb128 0x6
 12581 5d14 04       		.byte	0x4
 12582 5d15 195D0000 		.4byte	0x5d19
 12583 5d19 55       		.uleb128 0x55
 12584 5d1a 5C4D0000 		.4byte	0x4d5c
 12585 5d1e 2D5D0000 		.4byte	0x5d2d
 12586 5d22 0D       		.uleb128 0xd
 12587 5d23 0D5D0000 		.4byte	0x5d0d
 12588 5d27 0D       		.uleb128 0xd
 12589 5d28 67520000 		.4byte	0x5267
 12590 5d2c 00       		.byte	0
 12591 5d2d 06       		.uleb128 0x6
 12592 5d2e 04       		.byte	0x4
 12593 5d2f BA3B0000 		.4byte	0x3bba
 12594 5d33 06       		.uleb128 0x6
 12595 5d34 04       		.byte	0x4
 12596 5d35 2E420000 		.4byte	0x422e
 12597 5d39 06       		.uleb128 0x6
 12598 5d3a 04       		.byte	0x4
 12599 5d3b A0390000 		.4byte	0x39a0
 12600 5d3f 4D       		.uleb128 0x4d
 12601 5d40 04       		.byte	0x4
 12602 5d41 B2390000 		.4byte	0x39b2
 12603 5d45 06       		.uleb128 0x6
 12604 5d46 04       		.byte	0x4
 12605 5d47 E73F0000 		.4byte	0x3fe7
ARM GAS  /tmp/ccfWo18f.s 			page 223


 12606 5d4b 4D       		.uleb128 0x4d
 12607 5d4c 04       		.byte	0x4
 12608 5d4d 043A0000 		.4byte	0x3a04
 12609 5d51 4D       		.uleb128 0x4d
 12610 5d52 04       		.byte	0x4
 12611 5d53 093A0000 		.4byte	0x3a09
 12612 5d57 4D       		.uleb128 0x4d
 12613 5d58 04       		.byte	0x4
 12614 5d59 0E3A0000 		.4byte	0x3a0e
 12615 5d5d 4D       		.uleb128 0x4d
 12616 5d5e 04       		.byte	0x4
 12617 5d5f 133A0000 		.4byte	0x3a13
 12618 5d63 07       		.uleb128 0x7
 12619 5d64 455D0000 		.4byte	0x5d45
 12620 5d68 4D       		.uleb128 0x4d
 12621 5d69 04       		.byte	0x4
 12622 5d6a E73F0000 		.4byte	0x3fe7
 12623 5d6e 06       		.uleb128 0x6
 12624 5d6f 04       		.byte	0x4
 12625 5d70 E23F0000 		.4byte	0x3fe2
 12626 5d74 4D       		.uleb128 0x4d
 12627 5d75 04       		.byte	0x4
 12628 5d76 CF370000 		.4byte	0x37cf
 12629 5d7a 4D       		.uleb128 0x4d
 12630 5d7b 04       		.byte	0x4
 12631 5d7c 0A270000 		.4byte	0x270a
 12632 5d80 07       		.uleb128 0x7
 12633 5d81 28530000 		.4byte	0x5328
 12634 5d85 06       		.uleb128 0x6
 12635 5d86 04       		.byte	0x4
 12636 5d87 72430000 		.4byte	0x4372
 12637 5d8b 06       		.uleb128 0x6
 12638 5d8c 04       		.byte	0x4
 12639 5d8d 33420000 		.4byte	0x4233
 12640 5d91 06       		.uleb128 0x6
 12641 5d92 04       		.byte	0x4
 12642 5d93 99450000 		.4byte	0x4599
 12643 5d97 06       		.uleb128 0x6
 12644 5d98 04       		.byte	0x4
 12645 5d99 B5170000 		.4byte	0x17b5
 12646 5d9d 07       		.uleb128 0x7
 12647 5d9e A25D0000 		.4byte	0x5da2
 12648 5da2 06       		.uleb128 0x6
 12649 5da3 04       		.byte	0x4
 12650 5da4 7B460000 		.4byte	0x467b
 12651 5da8 4D       		.uleb128 0x4d
 12652 5da9 04       		.byte	0x4
 12653 5daa 7B460000 		.4byte	0x467b
 12654 5dae 06       		.uleb128 0x6
 12655 5daf 04       		.byte	0x4
 12656 5db0 AC460000 		.4byte	0x46ac
 12657 5db4 06       		.uleb128 0x6
 12658 5db5 04       		.byte	0x4
 12659 5db6 D33F0000 		.4byte	0x3fd3
 12660 5dba 06       		.uleb128 0x6
 12661 5dbb 04       		.byte	0x4
 12662 5dbc 133A0000 		.4byte	0x3a13
ARM GAS  /tmp/ccfWo18f.s 			page 224


 12663 5dc0 4D       		.uleb128 0x4d
 12664 5dc1 04       		.byte	0x4
 12665 5dc2 743F0000 		.4byte	0x3f74
 12666 5dc6 06       		.uleb128 0x6
 12667 5dc7 04       		.byte	0x4
 12668 5dc8 743F0000 		.4byte	0x3f74
 12669 5dcc 06       		.uleb128 0x6
 12670 5dcd 04       		.byte	0x4
 12671 5dce BB370000 		.4byte	0x37bb
 12672 5dd2 06       		.uleb128 0x6
 12673 5dd3 04       		.byte	0x4
 12674 5dd4 FB310000 		.4byte	0x31fb
 12675 5dd8 4D       		.uleb128 0x4d
 12676 5dd9 04       		.byte	0x4
 12677 5dda 5C370000 		.4byte	0x375c
 12678 5dde 06       		.uleb128 0x6
 12679 5ddf 04       		.byte	0x4
 12680 5de0 CA370000 		.4byte	0x37ca
 12681 5de4 06       		.uleb128 0x6
 12682 5de5 04       		.byte	0x4
 12683 5de6 5C370000 		.4byte	0x375c
 12684 5dea 06       		.uleb128 0x6
 12685 5deb 04       		.byte	0x4
 12686 5dec F1260000 		.4byte	0x26f1
 12687 5df0 06       		.uleb128 0x6
 12688 5df1 04       		.byte	0x4
 12689 5df2 31210000 		.4byte	0x2131
 12690 5df6 4D       		.uleb128 0x4d
 12691 5df7 04       		.byte	0x4
 12692 5df8 92260000 		.4byte	0x2692
 12693 5dfc 06       		.uleb128 0x6
 12694 5dfd 04       		.byte	0x4
 12695 5dfe 00270000 		.4byte	0x2700
 12696 5e02 06       		.uleb128 0x6
 12697 5e03 04       		.byte	0x4
 12698 5e04 92260000 		.4byte	0x2692
 12699 5e08 08       		.uleb128 0x8
 12700 5e09 185E0000 		.4byte	0x5e18
 12701 5e0d 185E0000 		.4byte	0x5e18
 12702 5e11 09       		.uleb128 0x9
 12703 5e12 AD000000 		.4byte	0xad
 12704 5e16 09       		.byte	0x9
 12705 5e17 00       		.byte	0
 12706 5e18 06       		.uleb128 0x6
 12707 5e19 04       		.byte	0x4
 12708 5e1a 521A0000 		.4byte	0x1a52
 12709 5e1e 08       		.uleb128 0x8
 12710 5e1f 521A0000 		.4byte	0x1a52
 12711 5e23 2E5E0000 		.4byte	0x5e2e
 12712 5e27 09       		.uleb128 0x9
 12713 5e28 AD000000 		.4byte	0xad
 12714 5e2c 09       		.byte	0x9
 12715 5e2d 00       		.byte	0
 12716 5e2e 06       		.uleb128 0x6
 12717 5e2f 04       		.byte	0x4
 12718 5e30 B74C0000 		.4byte	0x4cb7
 12719 5e34 4D       		.uleb128 0x4d
ARM GAS  /tmp/ccfWo18f.s 			page 225


 12720 5e35 04       		.byte	0x4
 12721 5e36 2E420000 		.4byte	0x422e
 12722 5e3a 4D       		.uleb128 0x4d
 12723 5e3b 04       		.byte	0x4
 12724 5e3c 7E310000 		.4byte	0x317e
 12725 5e40 4D       		.uleb128 0x4d
 12726 5e41 04       		.byte	0x4
 12727 5e42 2B150000 		.4byte	0x152b
 12728 5e46 06       		.uleb128 0x6
 12729 5e47 04       		.byte	0x4
 12730 5e48 9F460000 		.4byte	0x469f
 12731 5e4c 4D       		.uleb128 0x4d
 12732 5e4d 04       		.byte	0x4
 12733 5e4e BC4C0000 		.4byte	0x4cbc
 12734 5e52 07       		.uleb128 0x7
 12735 5e53 575E0000 		.4byte	0x5e57
 12736 5e57 4D       		.uleb128 0x4d
 12737 5e58 04       		.byte	0x4
 12738 5e59 495A0000 		.4byte	0x5a49
 12739 5e5d 08       		.uleb128 0x8
 12740 5e5e AA580000 		.4byte	0x58aa
 12741 5e62 6D5E0000 		.4byte	0x5e6d
 12742 5e66 09       		.uleb128 0x9
 12743 5e67 AD000000 		.4byte	0xad
 12744 5e6b 09       		.byte	0x9
 12745 5e6c 00       		.byte	0
 12746 5e6d 08       		.uleb128 0x8
 12747 5e6e 521A0000 		.4byte	0x1a52
 12748 5e72 7D5E0000 		.4byte	0x5e7d
 12749 5e76 09       		.uleb128 0x9
 12750 5e77 AD000000 		.4byte	0xad
 12751 5e7b 03       		.byte	0x3
 12752 5e7c 00       		.byte	0
 12753 5e7d 08       		.uleb128 0x8
 12754 5e7e FD040000 		.4byte	0x4fd
 12755 5e82 8D5E0000 		.4byte	0x5e8d
 12756 5e86 09       		.uleb128 0x9
 12757 5e87 AD000000 		.4byte	0xad
 12758 5e8b 03       		.byte	0x3
 12759 5e8c 00       		.byte	0
 12760 5e8d 06       		.uleb128 0x6
 12761 5e8e 04       		.byte	0x4
 12762 5e8f C14C0000 		.4byte	0x4cc1
 12763 5e93 06       		.uleb128 0x6
 12764 5e94 04       		.byte	0x4
 12765 5e95 C64C0000 		.4byte	0x4cc6
 12766 5e99 06       		.uleb128 0x6
 12767 5e9a 04       		.byte	0x4
 12768 5e9b 77430000 		.4byte	0x4377
 12769 5e9f 4D       		.uleb128 0x4d
 12770 5ea0 04       		.byte	0x4
 12771 5ea1 CB4C0000 		.4byte	0x4ccb
 12772 5ea5 06       		.uleb128 0x6
 12773 5ea6 04       		.byte	0x4
 12774 5ea7 CB4C0000 		.4byte	0x4ccb
 12775 5eab 4D       		.uleb128 0x4d
 12776 5eac 04       		.byte	0x4
ARM GAS  /tmp/ccfWo18f.s 			page 226


 12777 5ead 385B0000 		.4byte	0x5b38
 12778 5eb1 4D       		.uleb128 0x4d
 12779 5eb2 04       		.byte	0x4
 12780 5eb3 9F580000 		.4byte	0x589f
 12781 5eb7 5F       		.uleb128 0x5f
 12782 5eb8 D04C0000 		.4byte	0x4cd0
 12783 5ebc 03       		.byte	0x3
 12784 5ebd EA5E0000 		.4byte	0x5eea
 12785 5ec1 24       		.uleb128 0x24
 12786 5ec2 FA2F0000 		.4byte	.LASF769
 12787 5ec6 95060000 		.4byte	0x695
 12788 5eca 24       		.uleb128 0x24
 12789 5ecb B0270000 		.4byte	.LASF770
 12790 5ecf 95060000 		.4byte	0x695
 12791 5ed3 60       		.uleb128 0x60
 12792 5ed4 61       		.uleb128 0x61
 12793 5ed5 706400   		.ascii	"pd\000"
 12794 5ed8 23       		.byte	0x23
 12795 5ed9 21       		.byte	0x21
 12796 5eda EA5E0000 		.4byte	0x5eea
 12797 5ede 61       		.uleb128 0x61
 12798 5edf 706200   		.ascii	"pb\000"
 12799 5ee2 23       		.byte	0x23
 12800 5ee3 22       		.byte	0x22
 12801 5ee4 EA5E0000 		.4byte	0x5eea
 12802 5ee8 00       		.byte	0
 12803 5ee9 00       		.byte	0
 12804 5eea 07       		.uleb128 0x7
 12805 5eeb C2530000 		.4byte	0x53c2
 12806 5eef 62       		.uleb128 0x62
 12807 5ef0 A3010000 		.4byte	0x1a3
 12808 5ef4 02       		.byte	0x2
 12809 5ef5 FD5E0000 		.4byte	0x5efd
 12810 5ef9 075F0000 		.4byte	0x5f07
 12811 5efd 63       		.uleb128 0x63
 12812 5efe 852F0000 		.4byte	.LASF932
 12813 5f02 075F0000 		.4byte	0x5f07
 12814 5f06 00       		.byte	0
 12815 5f07 07       		.uleb128 0x7
 12816 5f08 194D0000 		.4byte	0x4d19
 12817 5f0c 64       		.uleb128 0x64
 12818 5f0d EF5E0000 		.4byte	0x5eef
 12819 5f11 35610000 		.4byte	.LASF934
 12820 5f15 00000000 		.4byte	.LFB6
 12821 5f19 0C000000 		.4byte	.LFE6-.LFB6
 12822 5f1d 01       		.uleb128 0x1
 12823 5f1e 9C       		.byte	0x9c
 12824 5f1f 275F0000 		.4byte	0x5f27
 12825 5f23 305F0000 		.4byte	0x5f30
 12826 5f27 65       		.uleb128 0x65
 12827 5f28 FD5E0000 		.4byte	0x5efd
 12828 5f2c 02       		.uleb128 0x2
 12829 5f2d 91       		.byte	0x91
 12830 5f2e 7C       		.sleb128 -4
 12831 5f2f 00       		.byte	0
 12832 5f30 62       		.uleb128 0x62
 12833 5f31 BD010000 		.4byte	0x1bd
ARM GAS  /tmp/ccfWo18f.s 			page 227


 12834 5f35 02       		.byte	0x2
 12835 5f36 3E5F0000 		.4byte	0x5f3e
 12836 5f3a 515F0000 		.4byte	0x5f51
 12837 5f3e 63       		.uleb128 0x63
 12838 5f3f 852F0000 		.4byte	.LASF932
 12839 5f43 075F0000 		.4byte	0x5f07
 12840 5f47 63       		.uleb128 0x63
 12841 5f48 15630000 		.4byte	.LASF933
 12842 5f4c 515F0000 		.4byte	0x5f51
 12843 5f50 00       		.byte	0
 12844 5f51 07       		.uleb128 0x7
 12845 5f52 25000000 		.4byte	0x25
 12846 5f56 64       		.uleb128 0x64
 12847 5f57 305F0000 		.4byte	0x5f30
 12848 5f5b 01250000 		.4byte	.LASF935
 12849 5f5f 00000000 		.4byte	.LFB9
 12850 5f63 0C000000 		.4byte	.LFE9-.LFB9
 12851 5f67 01       		.uleb128 0x1
 12852 5f68 9C       		.byte	0x9c
 12853 5f69 715F0000 		.4byte	0x5f71
 12854 5f6d 7A5F0000 		.4byte	0x5f7a
 12855 5f71 65       		.uleb128 0x65
 12856 5f72 3E5F0000 		.4byte	0x5f3e
 12857 5f76 02       		.uleb128 0x2
 12858 5f77 91       		.byte	0x91
 12859 5f78 7C       		.sleb128 -4
 12860 5f79 00       		.byte	0
 12861 5f7a 66       		.uleb128 0x66
 12862 5f7b 09020000 		.4byte	0x209
 12863 5f7f 14       		.byte	0x14
 12864 5f80 00000000 		.4byte	.LFB18
 12865 5f84 0E000000 		.4byte	.LFE18-.LFB18
 12866 5f88 01       		.uleb128 0x1
 12867 5f89 9C       		.byte	0x9c
 12868 5f8a A65F0000 		.4byte	0x5fa6
 12869 5f8e 67       		.uleb128 0x67
 12870 5f8f 02000000 		.4byte	.LBB7
 12871 5f93 06000000 		.4byte	.LBE7-.LBB7
 12872 5f97 68       		.uleb128 0x68
 12873 5f98 746D7000 		.ascii	"tmp\000"
 12874 5f9c 02       		.byte	0x2
 12875 5f9d 16       		.byte	0x16
 12876 5f9e 464D0000 		.4byte	0x4d46
 12877 5fa2 01       		.uleb128 0x1
 12878 5fa3 53       		.byte	0x53
 12879 5fa4 00       		.byte	0
 12880 5fa5 00       		.byte	0
 12881 5fa6 66       		.uleb128 0x66
 12882 5fa7 15020000 		.4byte	0x215
 12883 5fab 1B       		.byte	0x1b
 12884 5fac 00000000 		.4byte	.LFB19
 12885 5fb0 0E000000 		.4byte	.LFE19-.LFB19
 12886 5fb4 01       		.uleb128 0x1
 12887 5fb5 9C       		.byte	0x9c
 12888 5fb6 D25F0000 		.4byte	0x5fd2
 12889 5fba 67       		.uleb128 0x67
 12890 5fbb 06000000 		.4byte	.LBB10
ARM GAS  /tmp/ccfWo18f.s 			page 228


 12891 5fbf 06000000 		.4byte	.LBE10-.LBB10
 12892 5fc3 68       		.uleb128 0x68
 12893 5fc4 746D7000 		.ascii	"tmp\000"
 12894 5fc8 02       		.byte	0x2
 12895 5fc9 1D       		.byte	0x1d
 12896 5fca 464D0000 		.4byte	0x4d46
 12897 5fce 01       		.uleb128 0x1
 12898 5fcf 53       		.byte	0x53
 12899 5fd0 00       		.byte	0
 12900 5fd1 00       		.byte	0
 12901 5fd2 69       		.uleb128 0x69
 12902 5fd3 4D020000 		.4byte	0x24d
 12903 5fd7 1B       		.byte	0x1b
 12904 5fd8 00000000 		.4byte	.LFB26
 12905 5fdc 08000000 		.4byte	.LFE26-.LFB26
 12906 5fe0 01       		.uleb128 0x1
 12907 5fe1 9C       		.byte	0x9c
 12908 5fe2 69       		.uleb128 0x69
 12909 5fe3 59020000 		.4byte	0x259
 12910 5fe7 22       		.byte	0x22
 12911 5fe8 00000000 		.4byte	.LFB27
 12912 5fec 08000000 		.4byte	.LFE27-.LFB27
 12913 5ff0 01       		.uleb128 0x1
 12914 5ff1 9C       		.byte	0x9c
 12915 5ff2 6A       		.uleb128 0x6a
 12916 5ff3 08040000 		.4byte	0x408
 12917 5ff7 9B       		.byte	0x9b
 12918 5ff8 02       		.byte	0x2
 12919 5ff9 01600000 		.4byte	0x6001
 12920 5ffd 0B600000 		.4byte	0x600b
 12921 6001 63       		.uleb128 0x63
 12922 6002 852F0000 		.4byte	.LASF932
 12923 6006 0B600000 		.4byte	0x600b
 12924 600a 00       		.byte	0
 12925 600b 07       		.uleb128 0x7
 12926 600c 81520000 		.4byte	0x5281
 12927 6010 64       		.uleb128 0x64
 12928 6011 F25F0000 		.4byte	0x5ff2
 12929 6015 00140000 		.4byte	.LASF936
 12930 6019 00000000 		.4byte	.LFB144
 12931 601d 12000000 		.4byte	.LFE144-.LFB144
 12932 6021 01       		.uleb128 0x1
 12933 6022 9C       		.byte	0x9c
 12934 6023 2B600000 		.4byte	0x602b
 12935 6027 34600000 		.4byte	0x6034
 12936 602b 65       		.uleb128 0x65
 12937 602c 01600000 		.4byte	0x6001
 12938 6030 02       		.uleb128 0x2
 12939 6031 91       		.byte	0x91
 12940 6032 7C       		.sleb128 -4
 12941 6033 00       		.byte	0
 12942 6034 6A       		.uleb128 0x6a
 12943 6035 44050000 		.4byte	0x544
 12944 6039 6A       		.byte	0x6a
 12945 603a 02       		.byte	0x2
 12946 603b 43600000 		.4byte	0x6043
 12947 603f 4D600000 		.4byte	0x604d
ARM GAS  /tmp/ccfWo18f.s 			page 229


 12948 6043 63       		.uleb128 0x63
 12949 6044 852F0000 		.4byte	.LASF932
 12950 6048 4D600000 		.4byte	0x604d
 12951 604c 00       		.byte	0
 12952 604d 07       		.uleb128 0x7
 12953 604e 99520000 		.4byte	0x5299
 12954 6052 6B       		.uleb128 0x6b
 12955 6053 34600000 		.4byte	0x6034
 12956 6057 39580000 		.4byte	.LASF937
 12957 605b 00000000 		.4byte	.LFB180
 12958 605f 20000000 		.4byte	.LFE180-.LFB180
 12959 6063 01       		.uleb128 0x1
 12960 6064 9C       		.byte	0x9c
 12961 6065 6D600000 		.4byte	0x606d
 12962 6069 76600000 		.4byte	0x6076
 12963 606d 65       		.uleb128 0x65
 12964 606e 43600000 		.4byte	0x6043
 12965 6072 02       		.uleb128 0x2
 12966 6073 91       		.byte	0x91
 12967 6074 74       		.sleb128 -12
 12968 6075 00       		.byte	0
 12969 6076 6C       		.uleb128 0x6c
 12970 6077 B9060000 		.4byte	0x6b9
 12971 607b 43       		.byte	0x43
 12972 607c 00000000 		.4byte	.LFB208
 12973 6080 0E000000 		.4byte	.LFE208-.LFB208
 12974 6084 01       		.uleb128 0x1
 12975 6085 9C       		.byte	0x9c
 12976 6086 8E600000 		.4byte	0x608e
 12977 608a 9B600000 		.4byte	0x609b
 12978 608e 6D       		.uleb128 0x6d
 12979 608f 852F0000 		.4byte	.LASF932
 12980 6093 EA5E0000 		.4byte	0x5eea
 12981 6097 02       		.uleb128 0x2
 12982 6098 91       		.byte	0x91
 12983 6099 7C       		.sleb128 -4
 12984 609a 00       		.byte	0
 12985 609b 6E       		.uleb128 0x6e
 12986 609c B5070000 		.4byte	0x7b5
 12987 60a0 4A       		.byte	0x4a
 12988 60a1 00000000 		.4byte	.LFB209
 12989 60a5 12000000 		.4byte	.LFE209-.LFB209
 12990 60a9 01       		.uleb128 0x1
 12991 60aa 9C       		.byte	0x9c
 12992 60ab BE600000 		.4byte	0x60be
 12993 60af 6F       		.uleb128 0x6f
 12994 60b0 A1580000 		.4byte	.LASF239
 12995 60b4 06       		.byte	0x6
 12996 60b5 4A       		.byte	0x4a
 12997 60b6 50520000 		.4byte	0x5250
 12998 60ba 02       		.uleb128 0x2
 12999 60bb 91       		.byte	0x91
 13000 60bc 7C       		.sleb128 -4
 13001 60bd 00       		.byte	0
 13002 60be 6C       		.uleb128 0x6c
 13003 60bf 0F070000 		.4byte	0x70f
 13004 60c3 7A       		.byte	0x7a
ARM GAS  /tmp/ccfWo18f.s 			page 230


 13005 60c4 00000000 		.4byte	.LFB212
 13006 60c8 12000000 		.4byte	.LFE212-.LFB212
 13007 60cc 01       		.uleb128 0x1
 13008 60cd 9C       		.byte	0x9c
 13009 60ce D6600000 		.4byte	0x60d6
 13010 60d2 E3600000 		.4byte	0x60e3
 13011 60d6 6D       		.uleb128 0x6d
 13012 60d7 852F0000 		.4byte	.LASF932
 13013 60db E3600000 		.4byte	0x60e3
 13014 60df 02       		.uleb128 0x2
 13015 60e0 91       		.byte	0x91
 13016 60e1 7C       		.sleb128 -4
 13017 60e2 00       		.byte	0
 13018 60e3 07       		.uleb128 0x7
 13019 60e4 8D520000 		.4byte	0x528d
 13020 60e8 6A       		.uleb128 0x6a
 13021 60e9 7B070000 		.4byte	0x77b
 13022 60ed 84       		.byte	0x84
 13023 60ee 02       		.byte	0x2
 13024 60ef F7600000 		.4byte	0x60f7
 13025 60f3 01610000 		.4byte	0x6101
 13026 60f7 63       		.uleb128 0x63
 13027 60f8 852F0000 		.4byte	.LASF932
 13028 60fc E3600000 		.4byte	0x60e3
 13029 6100 00       		.byte	0
 13030 6101 64       		.uleb128 0x64
 13031 6102 E8600000 		.4byte	0x60e8
 13032 6106 F95A0000 		.4byte	.LASF938
 13033 610a 00000000 		.4byte	.LFB214
 13034 610e 16000000 		.4byte	.LFE214-.LFB214
 13035 6112 01       		.uleb128 0x1
 13036 6113 9C       		.byte	0x9c
 13037 6114 1C610000 		.4byte	0x611c
 13038 6118 25610000 		.4byte	0x6125
 13039 611c 65       		.uleb128 0x65
 13040 611d F7600000 		.4byte	0x60f7
 13041 6121 02       		.uleb128 0x2
 13042 6122 91       		.byte	0x91
 13043 6123 7C       		.sleb128 -4
 13044 6124 00       		.byte	0
 13045 6125 6E       		.uleb128 0x6e
 13046 6126 CF070000 		.4byte	0x7cf
 13047 612a 8E       		.byte	0x8e
 13048 612b 00000000 		.4byte	.LFB216
 13049 612f 0E000000 		.4byte	.LFE216-.LFB216
 13050 6133 01       		.uleb128 0x1
 13051 6134 9C       		.byte	0x9c
 13052 6135 48610000 		.4byte	0x6148
 13053 6139 6F       		.uleb128 0x6f
 13054 613a B2390000 		.4byte	.LASF939
 13055 613e 06       		.byte	0x6
 13056 613f 8E       		.byte	0x8e
 13057 6140 2C000000 		.4byte	0x2c
 13058 6144 02       		.uleb128 0x2
 13059 6145 91       		.byte	0x91
 13060 6146 7C       		.sleb128 -4
 13061 6147 00       		.byte	0
ARM GAS  /tmp/ccfWo18f.s 			page 231


 13062 6148 6C       		.uleb128 0x6c
 13063 6149 941D0000 		.4byte	0x1d94
 13064 614d 27       		.byte	0x27
 13065 614e 00000000 		.4byte	.LFB297
 13066 6152 0E000000 		.4byte	.LFE297-.LFB297
 13067 6156 01       		.uleb128 0x1
 13068 6157 9C       		.byte	0x9c
 13069 6158 60610000 		.4byte	0x6160
 13070 615c 6D610000 		.4byte	0x616d
 13071 6160 6D       		.uleb128 0x6d
 13072 6161 852F0000 		.4byte	.LASF932
 13073 6165 6D610000 		.4byte	0x616d
 13074 6169 02       		.uleb128 0x2
 13075 616a 91       		.byte	0x91
 13076 616b 7C       		.sleb128 -4
 13077 616c 00       		.byte	0
 13078 616d 07       		.uleb128 0x7
 13079 616e 7A540000 		.4byte	0x547a
 13080 6172 70       		.uleb128 0x70
 13081 6173 D01D0000 		.4byte	0x1dd0
 13082 6177 35       		.byte	0x35
 13083 6178 00000000 		.4byte	.LFB299
 13084 617c 18000000 		.4byte	.LFE299-.LFB299
 13085 6180 01       		.uleb128 0x1
 13086 6181 9C       		.byte	0x9c
 13087 6182 8A610000 		.4byte	0x618a
 13088 6186 97610000 		.4byte	0x6197
 13089 618a 6D       		.uleb128 0x6d
 13090 618b 852F0000 		.4byte	.LASF932
 13091 618f 97610000 		.4byte	0x6197
 13092 6193 02       		.uleb128 0x2
 13093 6194 91       		.byte	0x91
 13094 6195 74       		.sleb128 -12
 13095 6196 00       		.byte	0
 13096 6197 07       		.uleb128 0x7
 13097 6198 80540000 		.4byte	0x5480
 13098 619c 70       		.uleb128 0x70
 13099 619d EE1D0000 		.4byte	0x1dee
 13100 61a1 3C       		.byte	0x3c
 13101 61a2 00000000 		.4byte	.LFB300
 13102 61a6 1E000000 		.4byte	.LFE300-.LFB300
 13103 61aa 01       		.uleb128 0x1
 13104 61ab 9C       		.byte	0x9c
 13105 61ac B4610000 		.4byte	0x61b4
 13106 61b0 CF610000 		.4byte	0x61cf
 13107 61b4 6D       		.uleb128 0x6d
 13108 61b5 852F0000 		.4byte	.LASF932
 13109 61b9 97610000 		.4byte	0x6197
 13110 61bd 02       		.uleb128 0x2
 13111 61be 91       		.byte	0x91
 13112 61bf 74       		.sleb128 -12
 13113 61c0 6F       		.uleb128 0x6f
 13114 61c1 86030000 		.4byte	.LASF940
 13115 61c5 07       		.byte	0x7
 13116 61c6 3C       		.byte	0x3c
 13117 61c7 B4000000 		.4byte	0xb4
 13118 61cb 02       		.uleb128 0x2
ARM GAS  /tmp/ccfWo18f.s 			page 232


 13119 61cc 91       		.byte	0x91
 13120 61cd 70       		.sleb128 -16
 13121 61ce 00       		.byte	0
 13122 61cf 70       		.uleb128 0x70
 13123 61d0 4A1E0000 		.4byte	0x1e4a
 13124 61d4 55       		.byte	0x55
 13125 61d5 00000000 		.4byte	.LFB303
 13126 61d9 1C000000 		.4byte	.LFE303-.LFB303
 13127 61dd 01       		.uleb128 0x1
 13128 61de 9C       		.byte	0x9c
 13129 61df E7610000 		.4byte	0x61e7
 13130 61e3 10620000 		.4byte	0x6210
 13131 61e7 6D       		.uleb128 0x6d
 13132 61e8 852F0000 		.4byte	.LASF932
 13133 61ec 97610000 		.4byte	0x6197
 13134 61f0 02       		.uleb128 0x2
 13135 61f1 91       		.byte	0x91
 13136 61f2 74       		.sleb128 -12
 13137 61f3 6F       		.uleb128 0x6f
 13138 61f4 C16E0000 		.4byte	.LASF107
 13139 61f8 07       		.byte	0x7
 13140 61f9 55       		.byte	0x55
 13141 61fa B4000000 		.4byte	0xb4
 13142 61fe 02       		.uleb128 0x2
 13143 61ff 91       		.byte	0x91
 13144 6200 70       		.sleb128 -16
 13145 6201 6F       		.uleb128 0x6f
 13146 6202 8E070000 		.4byte	.LASF108
 13147 6206 07       		.byte	0x7
 13148 6207 55       		.byte	0x55
 13149 6208 2C000000 		.4byte	0x2c
 13150 620c 02       		.uleb128 0x2
 13151 620d 91       		.byte	0x91
 13152 620e 6C       		.sleb128 -20
 13153 620f 00       		.byte	0
 13154 6210 6A       		.uleb128 0x6a
 13155 6211 AB1E0000 		.4byte	0x1eab
 13156 6215 6A       		.byte	0x6a
 13157 6216 02       		.byte	0x2
 13158 6217 1F620000 		.4byte	0x621f
 13159 621b 4A620000 		.4byte	0x624a
 13160 621f 63       		.uleb128 0x63
 13161 6220 852F0000 		.4byte	.LASF932
 13162 6224 97610000 		.4byte	0x6197
 13163 6228 71       		.uleb128 0x71
 13164 6229 C16E0000 		.4byte	.LASF107
 13165 622d 07       		.byte	0x7
 13166 622e 6A       		.byte	0x6a
 13167 622f B4000000 		.4byte	0xb4
 13168 6233 71       		.uleb128 0x71
 13169 6234 8E070000 		.4byte	.LASF108
 13170 6238 07       		.byte	0x7
 13171 6239 6A       		.byte	0x6a
 13172 623a 2C000000 		.4byte	0x2c
 13173 623e 71       		.uleb128 0x71
 13174 623f 26650000 		.4byte	.LASF941
 13175 6243 07       		.byte	0x7
ARM GAS  /tmp/ccfWo18f.s 			page 233


 13176 6244 6A       		.byte	0x6a
 13177 6245 2C000000 		.4byte	0x2c
 13178 6249 00       		.byte	0
 13179 624a 6B       		.uleb128 0x6b
 13180 624b 10620000 		.4byte	0x6210
 13181 624f 34680000 		.4byte	.LASF942
 13182 6253 00000000 		.4byte	.LFB309
 13183 6257 32000000 		.4byte	.LFE309-.LFB309
 13184 625b 01       		.uleb128 0x1
 13185 625c 9C       		.byte	0x9c
 13186 625d 65620000 		.4byte	0x6265
 13187 6261 86620000 		.4byte	0x6286
 13188 6265 65       		.uleb128 0x65
 13189 6266 1F620000 		.4byte	0x621f
 13190 626a 02       		.uleb128 0x2
 13191 626b 91       		.byte	0x91
 13192 626c 74       		.sleb128 -12
 13193 626d 65       		.uleb128 0x65
 13194 626e 28620000 		.4byte	0x6228
 13195 6272 02       		.uleb128 0x2
 13196 6273 91       		.byte	0x91
 13197 6274 70       		.sleb128 -16
 13198 6275 65       		.uleb128 0x65
 13199 6276 33620000 		.4byte	0x6233
 13200 627a 02       		.uleb128 0x2
 13201 627b 91       		.byte	0x91
 13202 627c 6C       		.sleb128 -20
 13203 627d 65       		.uleb128 0x65
 13204 627e 3E620000 		.4byte	0x623e
 13205 6282 02       		.uleb128 0x2
 13206 6283 91       		.byte	0x91
 13207 6284 68       		.sleb128 -24
 13208 6285 00       		.byte	0
 13209 6286 06       		.uleb128 0x6
 13210 6287 04       		.byte	0x4
 13211 6288 EE4C0000 		.4byte	0x4cee
 13212 628c 72       		.uleb128 0x72
 13213 628d 84460000 		.4byte	0x4684
 13214 6291 00000000 		.4byte	.LFB462
 13215 6295 0E000000 		.4byte	.LFE462-.LFB462
 13216 6299 01       		.uleb128 0x1
 13217 629a 9C       		.byte	0x9c
 13218 629b A3620000 		.4byte	0x62a3
 13219 629f B0620000 		.4byte	0x62b0
 13220 62a3 6D       		.uleb128 0x6d
 13221 62a4 852F0000 		.4byte	.LASF932
 13222 62a8 B0620000 		.4byte	0x62b0
 13223 62ac 02       		.uleb128 0x2
 13224 62ad 91       		.byte	0x91
 13225 62ae 7C       		.sleb128 -4
 13226 62af 00       		.byte	0
 13227 62b0 07       		.uleb128 0x7
 13228 62b1 86620000 		.4byte	0x6286
 13229 62b5 06       		.uleb128 0x6
 13230 62b6 04       		.byte	0x4
 13231 62b7 26100000 		.4byte	0x1026
 13232 62bb 72       		.uleb128 0x72
ARM GAS  /tmp/ccfWo18f.s 			page 234


 13233 62bc 34100000 		.4byte	0x1034
 13234 62c0 00000000 		.4byte	.LFB505
 13235 62c4 0E000000 		.4byte	.LFE505-.LFB505
 13236 62c8 01       		.uleb128 0x1
 13237 62c9 9C       		.byte	0x9c
 13238 62ca D2620000 		.4byte	0x62d2
 13239 62ce DF620000 		.4byte	0x62df
 13240 62d2 6D       		.uleb128 0x6d
 13241 62d3 852F0000 		.4byte	.LASF932
 13242 62d7 DF620000 		.4byte	0x62df
 13243 62db 02       		.uleb128 0x2
 13244 62dc 91       		.byte	0x91
 13245 62dd 7C       		.sleb128 -4
 13246 62de 00       		.byte	0
 13247 62df 07       		.uleb128 0x7
 13248 62e0 B5620000 		.4byte	0x62b5
 13249 62e4 6C       		.uleb128 0x6c
 13250 62e5 5F2C0000 		.4byte	0x2c5f
 13251 62e9 83       		.byte	0x83
 13252 62ea 00000000 		.4byte	.LFB506
 13253 62ee 0E000000 		.4byte	.LFE506-.LFB506
 13254 62f2 01       		.uleb128 0x1
 13255 62f3 9C       		.byte	0x9c
 13256 62f4 FC620000 		.4byte	0x62fc
 13257 62f8 09630000 		.4byte	0x6309
 13258 62fc 6D       		.uleb128 0x6d
 13259 62fd 852F0000 		.4byte	.LASF932
 13260 6301 09630000 		.4byte	0x6309
 13261 6305 02       		.uleb128 0x2
 13262 6306 91       		.byte	0x91
 13263 6307 7C       		.sleb128 -4
 13264 6308 00       		.byte	0
 13265 6309 07       		.uleb128 0x7
 13266 630a 3B5C0000 		.4byte	0x5c3b
 13267 630e 70       		.uleb128 0x70
 13268 630f B92C0000 		.4byte	0x2cb9
 13269 6313 98       		.byte	0x98
 13270 6314 00000000 		.4byte	.LFB509
 13271 6318 22000000 		.4byte	.LFE509-.LFB509
 13272 631c 01       		.uleb128 0x1
 13273 631d 9C       		.byte	0x9c
 13274 631e 26630000 		.4byte	0x6326
 13275 6322 33630000 		.4byte	0x6333
 13276 6326 6D       		.uleb128 0x6d
 13277 6327 852F0000 		.4byte	.LASF932
 13278 632b 09630000 		.4byte	0x6309
 13279 632f 02       		.uleb128 0x2
 13280 6330 91       		.byte	0x91
 13281 6331 74       		.sleb128 -12
 13282 6332 00       		.byte	0
 13283 6333 70       		.uleb128 0x70
 13284 6334 442E0000 		.4byte	0x2e44
 13285 6338 FA       		.byte	0xfa
 13286 6339 00000000 		.4byte	.LFB522
 13287 633d 28000000 		.4byte	.LFE522-.LFB522
 13288 6341 01       		.uleb128 0x1
 13289 6342 9C       		.byte	0x9c
ARM GAS  /tmp/ccfWo18f.s 			page 235


 13290 6343 4B630000 		.4byte	0x634b
 13291 6347 6F630000 		.4byte	0x636f
 13292 634b 6D       		.uleb128 0x6d
 13293 634c 852F0000 		.4byte	.LASF932
 13294 6350 2B5C0000 		.4byte	0x5c2b
 13295 6354 02       		.uleb128 0x2
 13296 6355 91       		.byte	0x91
 13297 6356 74       		.sleb128 -12
 13298 6357 67       		.uleb128 0x67
 13299 6358 06000000 		.4byte	.LBB15
 13300 635c 1C000000 		.4byte	.LBE15-.LBB15
 13301 6360 73       		.uleb128 0x73
 13302 6361 A9470000 		.4byte	.LASF63
 13303 6365 0A       		.byte	0xa
 13304 6366 FC       		.byte	0xfc
 13305 6367 8D520000 		.4byte	0x528d
 13306 636b 01       		.uleb128 0x1
 13307 636c 54       		.byte	0x54
 13308 636d 00       		.byte	0
 13309 636e 00       		.byte	0
 13310 636f 74       		.uleb128 0x74
 13311 6370 35310000 		.4byte	0x3135
 13312 6374 5101     		.2byte	0x151
 13313 6376 00000000 		.4byte	.LFB532
 13314 637a 34000000 		.4byte	.LFE532-.LFB532
 13315 637e 01       		.uleb128 0x1
 13316 637f 9C       		.byte	0x9c
 13317 6380 A3630000 		.4byte	0x63a3
 13318 6384 75       		.uleb128 0x75
 13319 6385 8D510000 		.4byte	.LASF280
 13320 6389 0A       		.byte	0xa
 13321 638a 5101     		.2byte	0x151
 13322 638c A3630000 		.4byte	0x63a3
 13323 6390 02       		.uleb128 0x2
 13324 6391 91       		.byte	0x91
 13325 6392 74       		.sleb128 -12
 13326 6393 75       		.uleb128 0x75
 13327 6394 23220000 		.4byte	.LASF434
 13328 6398 0A       		.byte	0xa
 13329 6399 5101     		.2byte	0x151
 13330 639b C3000000 		.4byte	0xc3
 13331 639f 02       		.uleb128 0x2
 13332 63a0 91       		.byte	0x91
 13333 63a1 70       		.sleb128 -16
 13334 63a2 00       		.byte	0
 13335 63a3 07       		.uleb128 0x7
 13336 63a4 D55B0000 		.4byte	0x5bd5
 13337 63a8 06       		.uleb128 0x6
 13338 63a9 04       		.byte	0x4
 13339 63aa F34C0000 		.4byte	0x4cf3
 13340 63ae 76       		.uleb128 0x76
 13341 63af F84C0000 		.4byte	0x4cf8
 13342 63b3 00000000 		.4byte	.LFB547
 13343 63b7 40000000 		.4byte	.LFE547-.LFB547
 13344 63bb 01       		.uleb128 0x1
 13345 63bc 9C       		.byte	0x9c
 13346 63bd C5630000 		.4byte	0x63c5
ARM GAS  /tmp/ccfWo18f.s 			page 236


 13347 63c1 E0630000 		.4byte	0x63e0
 13348 63c5 6D       		.uleb128 0x6d
 13349 63c6 852F0000 		.4byte	.LASF932
 13350 63ca E0630000 		.4byte	0x63e0
 13351 63ce 02       		.uleb128 0x2
 13352 63cf 91       		.byte	0x91
 13353 63d0 74       		.sleb128 -12
 13354 63d1 6F       		.uleb128 0x6f
 13355 63d2 A9470000 		.4byte	.LASF63
 13356 63d6 0B       		.byte	0xb
 13357 63d7 40       		.byte	0x40
 13358 63d8 E5630000 		.4byte	0x63e5
 13359 63dc 02       		.uleb128 0x2
 13360 63dd 91       		.byte	0x91
 13361 63de 70       		.sleb128 -16
 13362 63df 00       		.byte	0
 13363 63e0 07       		.uleb128 0x7
 13364 63e1 A8630000 		.4byte	0x63a8
 13365 63e5 07       		.uleb128 0x7
 13366 63e6 CF5C0000 		.4byte	0x5ccf
 13367 63ea 6C       		.uleb128 0x6c
 13368 63eb 76480000 		.4byte	0x4876
 13369 63ef B8       		.byte	0xb8
 13370 63f0 00000000 		.4byte	.LFB591
 13371 63f4 0E000000 		.4byte	.LFE591-.LFB591
 13372 63f8 01       		.uleb128 0x1
 13373 63f9 9C       		.byte	0x9c
 13374 63fa 02640000 		.4byte	0x6402
 13375 63fe 0F640000 		.4byte	0x640f
 13376 6402 6D       		.uleb128 0x6d
 13377 6403 852F0000 		.4byte	.LASF932
 13378 6407 0F640000 		.4byte	0x640f
 13379 640b 02       		.uleb128 0x2
 13380 640c 91       		.byte	0x91
 13381 640d 7C       		.sleb128 -4
 13382 640e 00       		.byte	0
 13383 640f 07       		.uleb128 0x7
 13384 6410 2E5E0000 		.4byte	0x5e2e
 13385 6414 6C       		.uleb128 0x6c
 13386 6415 B2480000 		.4byte	0x48b2
 13387 6419 C6       		.byte	0xc6
 13388 641a 00000000 		.4byte	.LFB593
 13389 641e 0E000000 		.4byte	.LFE593-.LFB593
 13390 6422 01       		.uleb128 0x1
 13391 6423 9C       		.byte	0x9c
 13392 6424 2C640000 		.4byte	0x642c
 13393 6428 39640000 		.4byte	0x6439
 13394 642c 6D       		.uleb128 0x6d
 13395 642d 852F0000 		.4byte	.LASF932
 13396 6431 39640000 		.4byte	0x6439
 13397 6435 02       		.uleb128 0x2
 13398 6436 91       		.byte	0x91
 13399 6437 7C       		.sleb128 -4
 13400 6438 00       		.byte	0
 13401 6439 07       		.uleb128 0x7
 13402 643a 465E0000 		.4byte	0x5e46
 13403 643e 76       		.uleb128 0x76
ARM GAS  /tmp/ccfWo18f.s 			page 237


 13404 643f 21440000 		.4byte	0x4421
 13405 6443 00000000 		.4byte	.LFB596
 13406 6447 88000000 		.4byte	.LFE596-.LFB596
 13407 644b 01       		.uleb128 0x1
 13408 644c 9C       		.byte	0x9c
 13409 644d 55640000 		.4byte	0x6455
 13410 6451 96640000 		.4byte	0x6496
 13411 6455 6D       		.uleb128 0x6d
 13412 6456 852F0000 		.4byte	.LASF932
 13413 645a 96640000 		.4byte	0x6496
 13414 645e 02       		.uleb128 0x2
 13415 645f 91       		.byte	0x91
 13416 6460 6C       		.sleb128 -20
 13417 6461 6F       		.uleb128 0x6f
 13418 6462 A9470000 		.4byte	.LASF63
 13419 6466 0D       		.byte	0xd
 13420 6467 0E       		.byte	0xe
 13421 6468 8D520000 		.4byte	0x528d
 13422 646c 02       		.uleb128 0x2
 13423 646d 91       		.byte	0x91
 13424 646e 68       		.sleb128 -24
 13425 646f 6F       		.uleb128 0x6f
 13426 6470 982B0000 		.4byte	.LASF943
 13427 6474 0D       		.byte	0xd
 13428 6475 0E       		.byte	0xe
 13429 6476 8D5E0000 		.4byte	0x5e8d
 13430 647a 02       		.uleb128 0x2
 13431 647b 91       		.byte	0x91
 13432 647c 64       		.sleb128 -28
 13433 647d 67       		.uleb128 0x67
 13434 647e 0A000000 		.4byte	.LBB16
 13435 6482 70000000 		.4byte	.LBE16-.LBB16
 13436 6486 73       		.uleb128 0x73
 13437 6487 57120000 		.4byte	.LASF944
 13438 648b 0D       		.byte	0xd
 13439 648c 0F       		.byte	0xf
 13440 648d 90590000 		.4byte	0x5990
 13441 6491 02       		.uleb128 0x2
 13442 6492 91       		.byte	0x91
 13443 6493 74       		.sleb128 -12
 13444 6494 00       		.byte	0
 13445 6495 00       		.byte	0
 13446 6496 07       		.uleb128 0x7
 13447 6497 995E0000 		.4byte	0x5e99
 13448 649b 77       		.uleb128 0x77
 13449 649c 5D450000 		.4byte	0x455d
 13450 64a0 00000000 		.4byte	.LFB597
 13451 64a4 44000000 		.4byte	.LFE597-.LFB597
 13452 64a8 01       		.uleb128 0x1
 13453 64a9 9C       		.byte	0x9c
 13454 64aa F1640000 		.4byte	0x64f1
 13455 64ae 6F       		.uleb128 0x6f
 13456 64af E24E0000 		.4byte	.LASF945
 13457 64b3 0D       		.byte	0xd
 13458 64b4 25       		.byte	0x25
 13459 64b5 F1640000 		.4byte	0x64f1
 13460 64b9 02       		.uleb128 0x2
ARM GAS  /tmp/ccfWo18f.s 			page 238


 13461 64ba 91       		.byte	0x91
 13462 64bb 64       		.sleb128 -28
 13463 64bc 67       		.uleb128 0x67
 13464 64bd 06000000 		.4byte	.LBB17
 13465 64c1 38000000 		.4byte	.LBE17-.LBB17
 13466 64c5 73       		.uleb128 0x73
 13467 64c6 982B0000 		.4byte	.LASF943
 13468 64ca 0D       		.byte	0xd
 13469 64cb 26       		.byte	0x26
 13470 64cc 8D5E0000 		.4byte	0x5e8d
 13471 64d0 02       		.uleb128 0x2
 13472 64d1 91       		.byte	0x91
 13473 64d2 74       		.sleb128 -12
 13474 64d3 73       		.uleb128 0x73
 13475 64d4 DA520000 		.4byte	.LASF946
 13476 64d8 0D       		.byte	0xd
 13477 64d9 27       		.byte	0x27
 13478 64da 995E0000 		.4byte	0x5e99
 13479 64de 02       		.uleb128 0x2
 13480 64df 91       		.byte	0x91
 13481 64e0 70       		.sleb128 -16
 13482 64e1 68       		.uleb128 0x68
 13483 64e2 6D736700 		.ascii	"msg\000"
 13484 64e6 0D       		.byte	0xd
 13485 64e7 28       		.byte	0x28
 13486 64e8 F6640000 		.4byte	0x64f6
 13487 64ec 02       		.uleb128 0x2
 13488 64ed 91       		.byte	0x91
 13489 64ee 6C       		.sleb128 -20
 13490 64ef 00       		.byte	0
 13491 64f0 00       		.byte	0
 13492 64f1 07       		.uleb128 0x7
 13493 64f2 B15E0000 		.4byte	0x5eb1
 13494 64f6 07       		.uleb128 0x7
 13495 64f7 C8530000 		.4byte	0x53c8
 13496 64fb 77       		.uleb128 0x77
 13497 64fc 72450000 		.4byte	0x4572
 13498 6500 00000000 		.4byte	.LFB598
 13499 6504 68000000 		.4byte	.LFE598-.LFB598
 13500 6508 01       		.uleb128 0x1
 13501 6509 9C       		.byte	0x9c
 13502 650a 43650000 		.4byte	0x6543
 13503 650e 6F       		.uleb128 0x6f
 13504 650f E24E0000 		.4byte	.LASF945
 13505 6513 0D       		.byte	0xd
 13506 6514 2E       		.byte	0x2e
 13507 6515 43650000 		.4byte	0x6543
 13508 6519 02       		.uleb128 0x2
 13509 651a 91       		.byte	0x91
 13510 651b 6C       		.sleb128 -20
 13511 651c 67       		.uleb128 0x67
 13512 651d 06000000 		.4byte	.LBB18
 13513 6521 5C000000 		.4byte	.LBE18-.LBB18
 13514 6525 73       		.uleb128 0x73
 13515 6526 C72A0000 		.4byte	.LASF947
 13516 652a 0D       		.byte	0xd
 13517 652b 2F       		.byte	0x2f
ARM GAS  /tmp/ccfWo18f.s 			page 239


 13518 652c 935E0000 		.4byte	0x5e93
 13519 6530 02       		.uleb128 0x2
 13520 6531 91       		.byte	0x91
 13521 6532 74       		.sleb128 -12
 13522 6533 73       		.uleb128 0x73
 13523 6534 A9470000 		.4byte	.LASF63
 13524 6538 0D       		.byte	0xd
 13525 6539 30       		.byte	0x30
 13526 653a 8D520000 		.4byte	0x528d
 13527 653e 02       		.uleb128 0x2
 13528 653f 91       		.byte	0x91
 13529 6540 70       		.sleb128 -16
 13530 6541 00       		.byte	0
 13531 6542 00       		.byte	0
 13532 6543 07       		.uleb128 0x7
 13533 6544 B15E0000 		.4byte	0x5eb1
 13534 6548 77       		.uleb128 0x77
 13535 6549 87450000 		.4byte	0x4587
 13536 654d 00000000 		.4byte	.LFB599
 13537 6551 22000000 		.4byte	.LFE599-.LFB599
 13538 6555 01       		.uleb128 0x1
 13539 6556 9C       		.byte	0x9c
 13540 6557 82650000 		.4byte	0x6582
 13541 655b 6F       		.uleb128 0x6f
 13542 655c E24E0000 		.4byte	.LASF945
 13543 6560 0D       		.byte	0xd
 13544 6561 4A       		.byte	0x4a
 13545 6562 82650000 		.4byte	0x6582
 13546 6566 02       		.uleb128 0x2
 13547 6567 91       		.byte	0x91
 13548 6568 6C       		.sleb128 -20
 13549 6569 67       		.uleb128 0x67
 13550 656a 06000000 		.4byte	.LBB19
 13551 656e 16000000 		.4byte	.LBE19-.LBB19
 13552 6572 73       		.uleb128 0x73
 13553 6573 DA520000 		.4byte	.LASF946
 13554 6577 0D       		.byte	0xd
 13555 6578 4B       		.byte	0x4b
 13556 6579 995E0000 		.4byte	0x5e99
 13557 657d 02       		.uleb128 0x2
 13558 657e 91       		.byte	0x91
 13559 657f 74       		.sleb128 -12
 13560 6580 00       		.byte	0
 13561 6581 00       		.byte	0
 13562 6582 07       		.uleb128 0x7
 13563 6583 B15E0000 		.4byte	0x5eb1
 13564 6587 76       		.uleb128 0x76
 13565 6588 B7440000 		.4byte	0x44b7
 13566 658c 00000000 		.4byte	.LFB600
 13567 6590 B4000000 		.4byte	.LFE600-.LFB600
 13568 6594 01       		.uleb128 0x1
 13569 6595 9C       		.byte	0x9c
 13570 6596 9E650000 		.4byte	0x659e
 13571 659a 09660000 		.4byte	0x6609
 13572 659e 6D       		.uleb128 0x6d
 13573 659f 852F0000 		.4byte	.LASF932
 13574 65a3 09660000 		.4byte	0x6609
ARM GAS  /tmp/ccfWo18f.s 			page 240


 13575 65a7 02       		.uleb128 0x2
 13576 65a8 91       		.byte	0x91
 13577 65a9 64       		.sleb128 -28
 13578 65aa 6F       		.uleb128 0x6f
 13579 65ab 8D510000 		.4byte	.LASF280
 13580 65af 0D       		.byte	0xd
 13581 65b0 4F       		.byte	0x4f
 13582 65b1 0E660000 		.4byte	0x660e
 13583 65b5 02       		.uleb128 0x2
 13584 65b6 91       		.byte	0x91
 13585 65b7 60       		.sleb128 -32
 13586 65b8 6F       		.uleb128 0x6f
 13587 65b9 F8600000 		.4byte	.LASF284
 13588 65bd 0D       		.byte	0xd
 13589 65be 4F       		.byte	0x4f
 13590 65bf 50520000 		.4byte	0x5250
 13591 65c3 02       		.uleb128 0x2
 13592 65c4 91       		.byte	0x91
 13593 65c5 5C       		.sleb128 -36
 13594 65c6 67       		.uleb128 0x67
 13595 65c7 0A000000 		.4byte	.LBB20
 13596 65cb 98000000 		.4byte	.LBE20-.LBB20
 13597 65cf 73       		.uleb128 0x73
 13598 65d0 CE6D0000 		.4byte	.LASF948
 13599 65d4 0D       		.byte	0xd
 13600 65d5 50       		.byte	0x50
 13601 65d6 935E0000 		.4byte	0x5e93
 13602 65da 02       		.uleb128 0x2
 13603 65db 91       		.byte	0x91
 13604 65dc 74       		.sleb128 -12
 13605 65dd 73       		.uleb128 0x73
 13606 65de A9470000 		.4byte	.LASF63
 13607 65e2 0D       		.byte	0xd
 13608 65e3 51       		.byte	0x51
 13609 65e4 8D520000 		.4byte	0x528d
 13610 65e8 02       		.uleb128 0x2
 13611 65e9 91       		.byte	0x91
 13612 65ea 68       		.sleb128 -24
 13613 65eb 73       		.uleb128 0x73
 13614 65ec 383A0000 		.4byte	.LASF949
 13615 65f0 0D       		.byte	0xd
 13616 65f1 52       		.byte	0x52
 13617 65f2 5C4D0000 		.4byte	0x4d5c
 13618 65f6 02       		.uleb128 0x2
 13619 65f7 91       		.byte	0x91
 13620 65f8 73       		.sleb128 -13
 13621 65f9 73       		.uleb128 0x73
 13622 65fa 9A090000 		.4byte	.LASF950
 13623 65fe 0D       		.byte	0xd
 13624 65ff 59       		.byte	0x59
 13625 6600 90590000 		.4byte	0x5990
 13626 6604 02       		.uleb128 0x2
 13627 6605 91       		.byte	0x91
 13628 6606 6C       		.sleb128 -20
 13629 6607 00       		.byte	0
 13630 6608 00       		.byte	0
 13631 6609 07       		.uleb128 0x7
ARM GAS  /tmp/ccfWo18f.s 			page 241


 13632 660a A55E0000 		.4byte	0x5ea5
 13633 660e 07       		.uleb128 0x7
 13634 660f 305C0000 		.4byte	0x5c30
 13635 6613 76       		.uleb128 0x76
 13636 6614 E6440000 		.4byte	0x44e6
 13637 6618 00000000 		.4byte	.LFB601
 13638 661c 3A000000 		.4byte	.LFE601-.LFB601
 13639 6620 01       		.uleb128 0x1
 13640 6621 9C       		.byte	0x9c
 13641 6622 2A660000 		.4byte	0x662a
 13642 6626 79660000 		.4byte	0x6679
 13643 662a 6D       		.uleb128 0x6d
 13644 662b 852F0000 		.4byte	.LASF932
 13645 662f 09660000 		.4byte	0x6609
 13646 6633 02       		.uleb128 0x2
 13647 6634 91       		.byte	0x91
 13648 6635 6C       		.sleb128 -20
 13649 6636 6F       		.uleb128 0x6f
 13650 6637 8D510000 		.4byte	.LASF280
 13651 663b 0D       		.byte	0xd
 13652 663c 66       		.byte	0x66
 13653 663d 79660000 		.4byte	0x6679
 13654 6641 02       		.uleb128 0x2
 13655 6642 91       		.byte	0x91
 13656 6643 68       		.sleb128 -24
 13657 6644 6F       		.uleb128 0x6f
 13658 6645 1A460000 		.4byte	.LASF951
 13659 6649 0D       		.byte	0xd
 13660 664a 66       		.byte	0x66
 13661 664b 99520000 		.4byte	0x5299
 13662 664f 02       		.uleb128 0x2
 13663 6650 91       		.byte	0x91
 13664 6651 64       		.sleb128 -28
 13665 6652 6F       		.uleb128 0x6f
 13666 6653 0E400000 		.4byte	.LASF283
 13667 6657 0D       		.byte	0xd
 13668 6658 67       		.byte	0x67
 13669 6659 2C000000 		.4byte	0x2c
 13670 665d 02       		.uleb128 0x2
 13671 665e 91       		.byte	0x91
 13672 665f 60       		.sleb128 -32
 13673 6660 67       		.uleb128 0x67
 13674 6661 0C000000 		.4byte	.LBB21
 13675 6665 28000000 		.4byte	.LBE21-.LBB21
 13676 6669 73       		.uleb128 0x73
 13677 666a 982B0000 		.4byte	.LASF943
 13678 666e 0D       		.byte	0xd
 13679 666f 68       		.byte	0x68
 13680 6670 8D5E0000 		.4byte	0x5e8d
 13681 6674 02       		.uleb128 0x2
 13682 6675 91       		.byte	0x91
 13683 6676 74       		.sleb128 -12
 13684 6677 00       		.byte	0
 13685 6678 00       		.byte	0
 13686 6679 07       		.uleb128 0x7
 13687 667a 305C0000 		.4byte	0x5c30
 13688 667e 76       		.uleb128 0x76
ARM GAS  /tmp/ccfWo18f.s 			page 242


 13689 667f 8B440000 		.4byte	0x448b
 13690 6683 00000000 		.4byte	.LFB602
 13691 6687 20000000 		.4byte	.LFE602-.LFB602
 13692 668b 01       		.uleb128 0x1
 13693 668c 9C       		.byte	0x9c
 13694 668d 95660000 		.4byte	0x6695
 13695 6691 BE660000 		.4byte	0x66be
 13696 6695 6D       		.uleb128 0x6d
 13697 6696 852F0000 		.4byte	.LASF932
 13698 669a 96640000 		.4byte	0x6496
 13699 669e 02       		.uleb128 0x2
 13700 669f 91       		.byte	0x91
 13701 66a0 74       		.sleb128 -12
 13702 66a1 6F       		.uleb128 0x6f
 13703 66a2 8D510000 		.4byte	.LASF280
 13704 66a6 0D       		.byte	0xd
 13705 66a7 71       		.byte	0x71
 13706 66a8 BE660000 		.4byte	0x66be
 13707 66ac 02       		.uleb128 0x2
 13708 66ad 91       		.byte	0x91
 13709 66ae 70       		.sleb128 -16
 13710 66af 6F       		.uleb128 0x6f
 13711 66b0 F8600000 		.4byte	.LASF284
 13712 66b4 0D       		.byte	0xd
 13713 66b5 71       		.byte	0x71
 13714 66b6 4A520000 		.4byte	0x524a
 13715 66ba 02       		.uleb128 0x2
 13716 66bb 91       		.byte	0x91
 13717 66bc 6C       		.sleb128 -20
 13718 66bd 00       		.byte	0
 13719 66be 07       		.uleb128 0x7
 13720 66bf D55B0000 		.4byte	0x5bd5
 13721 66c3 76       		.uleb128 0x76
 13722 66c4 6C440000 		.4byte	0x446c
 13723 66c8 00000000 		.4byte	.LFB603
 13724 66cc BC000000 		.4byte	.LFE603-.LFB603
 13725 66d0 01       		.uleb128 0x1
 13726 66d1 9C       		.byte	0x9c
 13727 66d2 DA660000 		.4byte	0x66da
 13728 66d6 1B670000 		.4byte	0x671b
 13729 66da 6D       		.uleb128 0x6d
 13730 66db 852F0000 		.4byte	.LASF932
 13731 66df 96640000 		.4byte	0x6496
 13732 66e3 02       		.uleb128 0x2
 13733 66e4 91       		.byte	0x91
 13734 66e5 6C       		.sleb128 -20
 13735 66e6 6F       		.uleb128 0x6f
 13736 66e7 0F5A0000 		.4byte	.LASF952
 13737 66eb 0D       		.byte	0xd
 13738 66ec 75       		.byte	0x75
 13739 66ed 1B670000 		.4byte	0x671b
 13740 66f1 02       		.uleb128 0x2
 13741 66f2 91       		.byte	0x91
 13742 66f3 68       		.sleb128 -24
 13743 66f4 67       		.uleb128 0x67
 13744 66f5 08000000 		.4byte	.LBB22
 13745 66f9 A4000000 		.4byte	.LBE22-.LBB22
ARM GAS  /tmp/ccfWo18f.s 			page 243


 13746 66fd 73       		.uleb128 0x73
 13747 66fe 2B140000 		.4byte	.LASF689
 13748 6702 0D       		.byte	0xd
 13749 6703 76       		.byte	0x76
 13750 6704 20670000 		.4byte	0x6720
 13751 6708 02       		.uleb128 0x2
 13752 6709 91       		.byte	0x91
 13753 670a 74       		.sleb128 -12
 13754 670b 73       		.uleb128 0x73
 13755 670c D5230000 		.4byte	.LASF953
 13756 6710 0D       		.byte	0xd
 13757 6711 77       		.byte	0x77
 13758 6712 1A5A0000 		.4byte	0x5a1a
 13759 6716 02       		.uleb128 0x2
 13760 6717 91       		.byte	0x91
 13761 6718 72       		.sleb128 -14
 13762 6719 00       		.byte	0
 13763 671a 00       		.byte	0
 13764 671b 07       		.uleb128 0x7
 13765 671c AB5E0000 		.4byte	0x5eab
 13766 6720 07       		.uleb128 0x7
 13767 6721 305C0000 		.4byte	0x5c30
 13768 6725 78       		.uleb128 0x78
 13769 6726 261F0000 		.4byte	0x1f26
 13770 672a 07       		.byte	0x7
 13771 672b 09       		.byte	0x9
 13772 672c 02       		.byte	0x2
 13773 672d 35670000 		.4byte	0x6735
 13774 6731 48670000 		.4byte	0x6748
 13775 6735 63       		.uleb128 0x63
 13776 6736 852F0000 		.4byte	.LASF932
 13777 673a 97610000 		.4byte	0x6197
 13778 673e 63       		.uleb128 0x63
 13779 673f 15630000 		.4byte	.LASF933
 13780 6743 48670000 		.4byte	0x6748
 13781 6747 00       		.byte	0
 13782 6748 07       		.uleb128 0x7
 13783 6749 25000000 		.4byte	0x25
 13784 674d 6B       		.uleb128 0x6b
 13785 674e 25670000 		.4byte	0x6725
 13786 6752 40270000 		.4byte	.LASF954
 13787 6756 00000000 		.4byte	.LFB607
 13788 675a 16000000 		.4byte	.LFE607-.LFB607
 13789 675e 01       		.uleb128 0x1
 13790 675f 9C       		.byte	0x9c
 13791 6760 68670000 		.4byte	0x6768
 13792 6764 71670000 		.4byte	0x6771
 13793 6768 65       		.uleb128 0x65
 13794 6769 35670000 		.4byte	0x6735
 13795 676d 02       		.uleb128 0x2
 13796 676e 91       		.byte	0x91
 13797 676f 74       		.sleb128 -12
 13798 6770 00       		.byte	0
 13799 6771 78       		.uleb128 0x78
 13800 6772 4B430000 		.4byte	0x434b
 13801 6776 0E       		.byte	0xe
 13802 6777 0A       		.byte	0xa
ARM GAS  /tmp/ccfWo18f.s 			page 244


 13803 6778 02       		.byte	0x2
 13804 6779 81670000 		.4byte	0x6781
 13805 677d 94670000 		.4byte	0x6794
 13806 6781 63       		.uleb128 0x63
 13807 6782 852F0000 		.4byte	.LASF932
 13808 6786 94670000 		.4byte	0x6794
 13809 678a 63       		.uleb128 0x63
 13810 678b 15630000 		.4byte	.LASF933
 13811 678f 99670000 		.4byte	0x6799
 13812 6793 00       		.byte	0
 13813 6794 07       		.uleb128 0x7
 13814 6795 8B5D0000 		.4byte	0x5d8b
 13815 6799 07       		.uleb128 0x7
 13816 679a 25000000 		.4byte	0x25
 13817 679e 6B       		.uleb128 0x6b
 13818 679f 71670000 		.4byte	0x6771
 13819 67a3 F1380000 		.4byte	.LASF955
 13820 67a7 00000000 		.4byte	.LFB609
 13821 67ab 20000000 		.4byte	.LFE609-.LFB609
 13822 67af 01       		.uleb128 0x1
 13823 67b0 9C       		.byte	0x9c
 13824 67b1 B9670000 		.4byte	0x67b9
 13825 67b5 C2670000 		.4byte	0x67c2
 13826 67b9 65       		.uleb128 0x65
 13827 67ba 81670000 		.4byte	0x6781
 13828 67be 02       		.uleb128 0x2
 13829 67bf 91       		.byte	0x91
 13830 67c0 74       		.sleb128 -12
 13831 67c1 00       		.byte	0
 13832 67c2 78       		.uleb128 0x78
 13833 67c3 78170000 		.4byte	0x1778
 13834 67c7 0F       		.byte	0xf
 13835 67c8 0A       		.byte	0xa
 13836 67c9 02       		.byte	0x2
 13837 67ca D2670000 		.4byte	0x67d2
 13838 67ce E5670000 		.4byte	0x67e5
 13839 67d2 63       		.uleb128 0x63
 13840 67d3 852F0000 		.4byte	.LASF932
 13841 67d7 E5670000 		.4byte	0x67e5
 13842 67db 63       		.uleb128 0x63
 13843 67dc 15630000 		.4byte	.LASF933
 13844 67e0 EA670000 		.4byte	0x67ea
 13845 67e4 00       		.byte	0
 13846 67e5 07       		.uleb128 0x7
 13847 67e6 E6530000 		.4byte	0x53e6
 13848 67ea 07       		.uleb128 0x7
 13849 67eb 25000000 		.4byte	0x25
 13850 67ef 6B       		.uleb128 0x6b
 13851 67f0 C2670000 		.4byte	0x67c2
 13852 67f4 B34F0000 		.4byte	.LASF956
 13853 67f8 00000000 		.4byte	.LFB614
 13854 67fc 16000000 		.4byte	.LFE614-.LFB614
 13855 6800 01       		.uleb128 0x1
 13856 6801 9C       		.byte	0x9c
 13857 6802 0A680000 		.4byte	0x680a
 13858 6806 13680000 		.4byte	0x6813
 13859 680a 65       		.uleb128 0x65
ARM GAS  /tmp/ccfWo18f.s 			page 245


 13860 680b D2670000 		.4byte	0x67d2
 13861 680f 02       		.uleb128 0x2
 13862 6810 91       		.byte	0x91
 13863 6811 74       		.sleb128 -12
 13864 6812 00       		.byte	0
 13865 6813 78       		.uleb128 0x78
 13866 6814 E1190000 		.4byte	0x19e1
 13867 6818 10       		.byte	0x10
 13868 6819 0A       		.byte	0xa
 13869 681a 02       		.byte	0x2
 13870 681b 23680000 		.4byte	0x6823
 13871 681f 36680000 		.4byte	0x6836
 13872 6823 63       		.uleb128 0x63
 13873 6824 852F0000 		.4byte	.LASF932
 13874 6828 36680000 		.4byte	0x6836
 13875 682c 63       		.uleb128 0x63
 13876 682d 15630000 		.4byte	.LASF933
 13877 6831 3B680000 		.4byte	0x683b
 13878 6835 00       		.byte	0
 13879 6836 07       		.uleb128 0x7
 13880 6837 FE530000 		.4byte	0x53fe
 13881 683b 07       		.uleb128 0x7
 13882 683c 25000000 		.4byte	0x25
 13883 6840 6B       		.uleb128 0x6b
 13884 6841 13680000 		.4byte	0x6813
 13885 6845 28250000 		.4byte	.LASF957
 13886 6849 00000000 		.4byte	.LFB616
 13887 684d 20000000 		.4byte	.LFE616-.LFB616
 13888 6851 01       		.uleb128 0x1
 13889 6852 9C       		.byte	0x9c
 13890 6853 5B680000 		.4byte	0x685b
 13891 6857 64680000 		.4byte	0x6864
 13892 685b 65       		.uleb128 0x65
 13893 685c 23680000 		.4byte	0x6823
 13894 6860 02       		.uleb128 0x2
 13895 6861 91       		.byte	0x91
 13896 6862 74       		.sleb128 -12
 13897 6863 00       		.byte	0
 13898 6864 78       		.uleb128 0x78
 13899 6865 381A0000 		.4byte	0x1a38
 13900 6869 11       		.byte	0x11
 13901 686a 0B       		.byte	0xb
 13902 686b 02       		.byte	0x2
 13903 686c 74680000 		.4byte	0x6874
 13904 6870 87680000 		.4byte	0x6887
 13905 6874 63       		.uleb128 0x63
 13906 6875 852F0000 		.4byte	.LASF932
 13907 6879 87680000 		.4byte	0x6887
 13908 687d 63       		.uleb128 0x63
 13909 687e 15630000 		.4byte	.LASF933
 13910 6882 8C680000 		.4byte	0x688c
 13911 6886 00       		.byte	0
 13912 6887 07       		.uleb128 0x7
 13913 6888 16540000 		.4byte	0x5416
 13914 688c 07       		.uleb128 0x7
 13915 688d 25000000 		.4byte	0x25
 13916 6891 6B       		.uleb128 0x6b
ARM GAS  /tmp/ccfWo18f.s 			page 246


 13917 6892 64680000 		.4byte	0x6864
 13918 6896 474B0000 		.4byte	.LASF958
 13919 689a 00000000 		.4byte	.LFB618
 13920 689e 18000000 		.4byte	.LFE618-.LFB618
 13921 68a2 01       		.uleb128 0x1
 13922 68a3 9C       		.byte	0x9c
 13923 68a4 AC680000 		.4byte	0x68ac
 13924 68a8 B5680000 		.4byte	0x68b5
 13925 68ac 65       		.uleb128 0x65
 13926 68ad 74680000 		.4byte	0x6874
 13927 68b1 02       		.uleb128 0x2
 13928 68b2 91       		.byte	0x91
 13929 68b3 74       		.sleb128 -12
 13930 68b4 00       		.byte	0
 13931 68b5 78       		.uleb128 0x78
 13932 68b6 961B0000 		.4byte	0x1b96
 13933 68ba 12       		.byte	0x12
 13934 68bb 0C       		.byte	0xc
 13935 68bc 02       		.byte	0x2
 13936 68bd C5680000 		.4byte	0x68c5
 13937 68c1 CF680000 		.4byte	0x68cf
 13938 68c5 63       		.uleb128 0x63
 13939 68c6 852F0000 		.4byte	.LASF932
 13940 68ca CF680000 		.4byte	0x68cf
 13941 68ce 00       		.byte	0
 13942 68cf 07       		.uleb128 0x7
 13943 68d0 185E0000 		.4byte	0x5e18
 13944 68d4 6B       		.uleb128 0x6b
 13945 68d5 B5680000 		.4byte	0x68b5
 13946 68d9 704B0000 		.4byte	.LASF959
 13947 68dd 00000000 		.4byte	.LFB621
 13948 68e1 18000000 		.4byte	.LFE621-.LFB621
 13949 68e5 01       		.uleb128 0x1
 13950 68e6 9C       		.byte	0x9c
 13951 68e7 EF680000 		.4byte	0x68ef
 13952 68eb F8680000 		.4byte	0x68f8
 13953 68ef 65       		.uleb128 0x65
 13954 68f0 C5680000 		.4byte	0x68c5
 13955 68f4 02       		.uleb128 0x2
 13956 68f5 91       		.byte	0x91
 13957 68f6 74       		.sleb128 -12
 13958 68f7 00       		.byte	0
 13959 68f8 62       		.uleb128 0x62
 13960 68f9 1A450000 		.4byte	0x451a
 13961 68fd 00       		.byte	0
 13962 68fe 06690000 		.4byte	0x6906
 13963 6902 1B690000 		.4byte	0x691b
 13964 6906 63       		.uleb128 0x63
 13965 6907 852F0000 		.4byte	.LASF932
 13966 690b 96640000 		.4byte	0x6496
 13967 690f 71       		.uleb128 0x71
 13968 6910 98100000 		.4byte	.LASF646
 13969 6914 0D       		.byte	0xd
 13970 6915 85       		.byte	0x85
 13971 6916 1B690000 		.4byte	0x691b
 13972 691a 00       		.byte	0
 13973 691b 07       		.uleb128 0x7
ARM GAS  /tmp/ccfWo18f.s 			page 247


 13974 691c 575E0000 		.4byte	0x5e57
 13975 6920 6B       		.uleb128 0x6b
 13976 6921 F8680000 		.4byte	0x68f8
 13977 6925 4C1A0000 		.4byte	.LASF960
 13978 6929 00000000 		.4byte	.LFB623
 13979 692d 98000000 		.4byte	.LFE623-.LFB623
 13980 6931 01       		.uleb128 0x1
 13981 6932 9C       		.byte	0x9c
 13982 6933 3B690000 		.4byte	0x693b
 13983 6937 4C690000 		.4byte	0x694c
 13984 693b 65       		.uleb128 0x65
 13985 693c 06690000 		.4byte	0x6906
 13986 6940 02       		.uleb128 0x2
 13987 6941 91       		.byte	0x91
 13988 6942 6C       		.sleb128 -20
 13989 6943 65       		.uleb128 0x65
 13990 6944 0F690000 		.4byte	0x690f
 13991 6948 02       		.uleb128 0x2
 13992 6949 91       		.byte	0x91
 13993 694a 68       		.sleb128 -24
 13994 694b 00       		.byte	0
 13995 694c 62       		.uleb128 0x62
 13996 694d 39450000 		.4byte	0x4539
 13997 6951 00       		.byte	0
 13998 6952 5A690000 		.4byte	0x695a
 13999 6956 6D690000 		.4byte	0x696d
 14000 695a 63       		.uleb128 0x63
 14001 695b 852F0000 		.4byte	.LASF932
 14002 695f 96640000 		.4byte	0x6496
 14003 6963 63       		.uleb128 0x63
 14004 6964 15630000 		.4byte	.LASF933
 14005 6968 6D690000 		.4byte	0x696d
 14006 696c 00       		.byte	0
 14007 696d 07       		.uleb128 0x7
 14008 696e 25000000 		.4byte	0x25
 14009 6972 6B       		.uleb128 0x6b
 14010 6973 4C690000 		.4byte	0x694c
 14011 6977 1E490000 		.4byte	.LASF961
 14012 697b 00000000 		.4byte	.LFB626
 14013 697f 48000000 		.4byte	.LFE626-.LFB626
 14014 6983 01       		.uleb128 0x1
 14015 6984 9C       		.byte	0x9c
 14016 6985 8D690000 		.4byte	0x698d
 14017 6989 96690000 		.4byte	0x6996
 14018 698d 65       		.uleb128 0x65
 14019 698e 5A690000 		.4byte	0x695a
 14020 6992 02       		.uleb128 0x2
 14021 6993 91       		.byte	0x91
 14022 6994 74       		.sleb128 -12
 14023 6995 00       		.byte	0
 14024 6996 6B       		.uleb128 0x6b
 14025 6997 4C690000 		.4byte	0x694c
 14026 699b 73330000 		.4byte	.LASF962
 14027 699f 00000000 		.4byte	.LFB628
 14028 69a3 1C000000 		.4byte	.LFE628-.LFB628
 14029 69a7 01       		.uleb128 0x1
 14030 69a8 9C       		.byte	0x9c
ARM GAS  /tmp/ccfWo18f.s 			page 248


 14031 69a9 B1690000 		.4byte	0x69b1
 14032 69ad BA690000 		.4byte	0x69ba
 14033 69b1 65       		.uleb128 0x65
 14034 69b2 5A690000 		.4byte	0x695a
 14035 69b6 02       		.uleb128 0x2
 14036 69b7 91       		.byte	0x91
 14037 69b8 74       		.sleb128 -12
 14038 69b9 00       		.byte	0
 14039 69ba 76       		.uleb128 0x76
 14040 69bb 49440000 		.4byte	0x4449
 14041 69bf 00000000 		.4byte	.LFB629
 14042 69c3 A0000000 		.4byte	.LFE629-.LFB629
 14043 69c7 01       		.uleb128 0x1
 14044 69c8 9C       		.byte	0x9c
 14045 69c9 D1690000 		.4byte	0x69d1
 14046 69cd 2E6A0000 		.4byte	0x6a2e
 14047 69d1 6D       		.uleb128 0x6d
 14048 69d2 852F0000 		.4byte	.LASF932
 14049 69d6 09660000 		.4byte	0x6609
 14050 69da 02       		.uleb128 0x2
 14051 69db 91       		.byte	0x91
 14052 69dc 64       		.sleb128 -28
 14053 69dd 6F       		.uleb128 0x6f
 14054 69de 8D510000 		.4byte	.LASF280
 14055 69e2 0D       		.byte	0xd
 14056 69e3 8D       		.byte	0x8d
 14057 69e4 2E6A0000 		.4byte	0x6a2e
 14058 69e8 02       		.uleb128 0x2
 14059 69e9 91       		.byte	0x91
 14060 69ea 60       		.sleb128 -32
 14061 69eb 67       		.uleb128 0x67
 14062 69ec 08000000 		.4byte	.LBB31
 14063 69f0 8A000000 		.4byte	.LBE31-.LBB31
 14064 69f4 73       		.uleb128 0x73
 14065 69f5 E3410000 		.4byte	.LASF963
 14066 69f9 0D       		.byte	0xd
 14067 69fa 8E       		.byte	0x8e
 14068 69fb 336A0000 		.4byte	0x6a33
 14069 69ff 02       		.uleb128 0x2
 14070 6a00 91       		.byte	0x91
 14071 6a01 74       		.sleb128 -12
 14072 6a02 73       		.uleb128 0x73
 14073 6a03 2B140000 		.4byte	.LASF689
 14074 6a07 0D       		.byte	0xd
 14075 6a08 8F       		.byte	0x8f
 14076 6a09 386A0000 		.4byte	0x6a38
 14077 6a0d 02       		.uleb128 0x2
 14078 6a0e 91       		.byte	0x91
 14079 6a0f 70       		.sleb128 -16
 14080 6a10 73       		.uleb128 0x73
 14081 6a11 E3380000 		.4byte	.LASF964
 14082 6a15 0D       		.byte	0xd
 14083 6a16 90       		.byte	0x90
 14084 6a17 25000000 		.4byte	0x25
 14085 6a1b 02       		.uleb128 0x2
 14086 6a1c 91       		.byte	0x91
 14087 6a1d 6C       		.sleb128 -20
ARM GAS  /tmp/ccfWo18f.s 			page 249


 14088 6a1e 73       		.uleb128 0x73
 14089 6a1f D5230000 		.4byte	.LASF953
 14090 6a23 0D       		.byte	0xd
 14091 6a24 91       		.byte	0x91
 14092 6a25 1A5A0000 		.4byte	0x5a1a
 14093 6a29 02       		.uleb128 0x2
 14094 6a2a 91       		.byte	0x91
 14095 6a2b 6A       		.sleb128 -22
 14096 6a2c 00       		.byte	0
 14097 6a2d 00       		.byte	0
 14098 6a2e 07       		.uleb128 0x7
 14099 6a2f D55B0000 		.4byte	0x5bd5
 14100 6a33 07       		.uleb128 0x7
 14101 6a34 3A5E0000 		.4byte	0x5e3a
 14102 6a38 07       		.uleb128 0x7
 14103 6a39 305C0000 		.4byte	0x5c30
 14104 6a3d 76       		.uleb128 0x76
 14105 6a3e 6F420000 		.4byte	0x426f
 14106 6a42 00000000 		.4byte	.LFB651
 14107 6a46 1A000000 		.4byte	.LFE651-.LFB651
 14108 6a4a 01       		.uleb128 0x1
 14109 6a4b 9C       		.byte	0x9c
 14110 6a4c 546A0000 		.4byte	0x6a54
 14111 6a50 616A0000 		.4byte	0x6a61
 14112 6a54 6D       		.uleb128 0x6d
 14113 6a55 852F0000 		.4byte	.LASF932
 14114 6a59 94670000 		.4byte	0x6794
 14115 6a5d 02       		.uleb128 0x2
 14116 6a5e 91       		.byte	0x91
 14117 6a5f 74       		.sleb128 -12
 14118 6a60 00       		.byte	0
 14119 6a61 76       		.uleb128 0x76
 14120 6a62 8D420000 		.4byte	0x428d
 14121 6a66 00000000 		.4byte	.LFB652
 14122 6a6a 1A000000 		.4byte	.LFE652-.LFB652
 14123 6a6e 01       		.uleb128 0x1
 14124 6a6f 9C       		.byte	0x9c
 14125 6a70 786A0000 		.4byte	0x6a78
 14126 6a74 936A0000 		.4byte	0x6a93
 14127 6a78 6D       		.uleb128 0x6d
 14128 6a79 852F0000 		.4byte	.LASF932
 14129 6a7d 94670000 		.4byte	0x6794
 14130 6a81 02       		.uleb128 0x2
 14131 6a82 91       		.byte	0x91
 14132 6a83 74       		.sleb128 -12
 14133 6a84 6F       		.uleb128 0x6f
 14134 6a85 86030000 		.4byte	.LASF940
 14135 6a89 0E       		.byte	0xe
 14136 6a8a 42       		.byte	0x42
 14137 6a8b D05A0000 		.4byte	0x5ad0
 14138 6a8f 02       		.uleb128 0x2
 14139 6a90 91       		.byte	0x91
 14140 6a91 70       		.sleb128 -16
 14141 6a92 00       		.byte	0
 14142 6a93 76       		.uleb128 0x76
 14143 6a94 54310000 		.4byte	0x3154
 14144 6a98 00000000 		.4byte	.LFB653
ARM GAS  /tmp/ccfWo18f.s 			page 250


 14145 6a9c 2A000000 		.4byte	.LFE653-.LFB653
 14146 6aa0 01       		.uleb128 0x1
 14147 6aa1 9C       		.byte	0x9c
 14148 6aa2 B36A0000 		.4byte	0x6ab3
 14149 6aa6 CF6A0000 		.4byte	0x6acf
 14150 6aaa 24       		.uleb128 0x24
 14151 6aab CF130000 		.4byte	.LASF506
 14152 6aaf 95060000 		.4byte	0x695
 14153 6ab3 6D       		.uleb128 0x6d
 14154 6ab4 852F0000 		.4byte	.LASF932
 14155 6ab8 2B5C0000 		.4byte	0x5c2b
 14156 6abc 02       		.uleb128 0x2
 14157 6abd 91       		.byte	0x91
 14158 6abe 74       		.sleb128 -12
 14159 6abf 75       		.uleb128 0x75
 14160 6ac0 A9470000 		.4byte	.LASF63
 14161 6ac4 0A       		.byte	0xa
 14162 6ac5 3101     		.2byte	0x131
 14163 6ac7 CF6A0000 		.4byte	0x6acf
 14164 6acb 02       		.uleb128 0x2
 14165 6acc 91       		.byte	0x91
 14166 6acd 70       		.sleb128 -16
 14167 6ace 00       		.byte	0
 14168 6acf 07       		.uleb128 0x7
 14169 6ad0 CF5C0000 		.4byte	0x5ccf
 14170 6ad4 62       		.uleb128 0x62
 14171 6ad5 27430000 		.4byte	0x4327
 14172 6ad9 02       		.byte	0x2
 14173 6ada E26A0000 		.4byte	0x6ae2
 14174 6ade 026B0000 		.4byte	0x6b02
 14175 6ae2 63       		.uleb128 0x63
 14176 6ae3 852F0000 		.4byte	.LASF932
 14177 6ae7 94670000 		.4byte	0x6794
 14178 6aeb 71       		.uleb128 0x71
 14179 6aec 351B0000 		.4byte	.LASF965
 14180 6af0 0E       		.byte	0xe
 14181 6af1 6C       		.byte	0x6c
 14182 6af2 D05A0000 		.4byte	0x5ad0
 14183 6af6 71       		.uleb128 0x71
 14184 6af7 8E070000 		.4byte	.LASF108
 14185 6afb 0E       		.byte	0xe
 14186 6afc 6C       		.byte	0x6c
 14187 6afd 2C000000 		.4byte	0x2c
 14188 6b01 00       		.byte	0
 14189 6b02 6B       		.uleb128 0x6b
 14190 6b03 D46A0000 		.4byte	0x6ad4
 14191 6b07 CA4D0000 		.4byte	.LASF966
 14192 6b0b 00000000 		.4byte	.LFB655
 14193 6b0f 2A000000 		.4byte	.LFE655-.LFB655
 14194 6b13 01       		.uleb128 0x1
 14195 6b14 9C       		.byte	0x9c
 14196 6b15 1D6B0000 		.4byte	0x6b1d
 14197 6b19 366B0000 		.4byte	0x6b36
 14198 6b1d 65       		.uleb128 0x65
 14199 6b1e E26A0000 		.4byte	0x6ae2
 14200 6b22 02       		.uleb128 0x2
 14201 6b23 91       		.byte	0x91
ARM GAS  /tmp/ccfWo18f.s 			page 251


 14202 6b24 74       		.sleb128 -12
 14203 6b25 65       		.uleb128 0x65
 14204 6b26 EB6A0000 		.4byte	0x6aeb
 14205 6b2a 02       		.uleb128 0x2
 14206 6b2b 91       		.byte	0x91
 14207 6b2c 70       		.sleb128 -16
 14208 6b2d 65       		.uleb128 0x65
 14209 6b2e F66A0000 		.4byte	0x6af6
 14210 6b32 02       		.uleb128 0x2
 14211 6b33 91       		.byte	0x91
 14212 6b34 6C       		.sleb128 -20
 14213 6b35 00       		.byte	0
 14214 6b36 76       		.uleb128 0x76
 14215 6b37 5C2A0000 		.4byte	0x2a5c
 14216 6b3b 00000000 		.4byte	.LFB657
 14217 6b3f 50000000 		.4byte	.LFE657-.LFB657
 14218 6b43 01       		.uleb128 0x1
 14219 6b44 9C       		.byte	0x9c
 14220 6b45 4D6B0000 		.4byte	0x6b4d
 14221 6b49 996B0000 		.4byte	0x6b99
 14222 6b4d 6D       		.uleb128 0x6d
 14223 6b4e 852F0000 		.4byte	.LASF932
 14224 6b52 996B0000 		.4byte	0x6b99
 14225 6b56 02       		.uleb128 0x2
 14226 6b57 91       		.byte	0x91
 14227 6b58 6C       		.sleb128 -20
 14228 6b59 75       		.uleb128 0x75
 14229 6b5a C2570000 		.4byte	.LASF967
 14230 6b5e 13       		.byte	0x13
 14231 6b5f 8A02     		.2byte	0x28a
 14232 6b61 9E6B0000 		.4byte	0x6b9e
 14233 6b65 02       		.uleb128 0x2
 14234 6b66 91       		.byte	0x91
 14235 6b67 68       		.sleb128 -24
 14236 6b68 67       		.uleb128 0x67
 14237 6b69 08000000 		.4byte	.LBB33
 14238 6b6d 40000000 		.4byte	.LBE33-.LBB33
 14239 6b71 79       		.uleb128 0x79
 14240 6b72 6900     		.ascii	"i\000"
 14241 6b74 13       		.byte	0x13
 14242 6b75 8C02     		.2byte	0x28c
 14243 6b77 25000000 		.4byte	0x25
 14244 6b7b 02       		.uleb128 0x2
 14245 6b7c 91       		.byte	0x91
 14246 6b7d 74       		.sleb128 -12
 14247 6b7e 67       		.uleb128 0x67
 14248 6b7f 10000000 		.4byte	.LBB34
 14249 6b83 30000000 		.4byte	.LBE34-.LBB34
 14250 6b87 7A       		.uleb128 0x7a
 14251 6b88 6C520000 		.4byte	.LASF968
 14252 6b8c 13       		.byte	0x13
 14253 6b8d 8E02     		.2byte	0x28e
 14254 6b8f F55B0000 		.4byte	0x5bf5
 14255 6b93 02       		.uleb128 0x2
 14256 6b94 91       		.byte	0x91
 14257 6b95 70       		.sleb128 -16
 14258 6b96 00       		.byte	0
ARM GAS  /tmp/ccfWo18f.s 			page 252


 14259 6b97 00       		.byte	0
 14260 6b98 00       		.byte	0
 14261 6b99 07       		.uleb128 0x7
 14262 6b9a FB5B0000 		.4byte	0x5bfb
 14263 6b9e 07       		.uleb128 0x7
 14264 6b9f D55B0000 		.4byte	0x5bd5
 14265 6ba3 7B       		.uleb128 0x7b
 14266 6ba4 E7120000 		.4byte	.LASF969
 14267 6ba8 29       		.byte	0x29
 14268 6ba9 6F       		.byte	0x6f
 14269 6baa 50510000 		.4byte	0x5150
 14270 6bae 7C       		.uleb128 0x7c
 14271 6baf 5C5C0000 		.4byte	.LASF970
 14272 6bb3 31       		.byte	0x31
 14273 6bb4 9806     		.2byte	0x698
 14274 6bb6 A3540000 		.4byte	0x54a3
 14275 6bba 7B       		.uleb128 0x7b
 14276 6bbb AB660000 		.4byte	.LASF971
 14277 6bbf 32       		.byte	0x32
 14278 6bc0 7E       		.byte	0x7e
 14279 6bc1 495A0000 		.4byte	0x5a49
 14280 6bc5 00       		.byte	0
 14281              		.section	.debug_abbrev,"",%progbits
 14282              	.Ldebug_abbrev0:
 14283 0000 01       		.uleb128 0x1
 14284 0001 11       		.uleb128 0x11
 14285 0002 01       		.byte	0x1
 14286 0003 25       		.uleb128 0x25
 14287 0004 0E       		.uleb128 0xe
 14288 0005 13       		.uleb128 0x13
 14289 0006 0B       		.uleb128 0xb
 14290 0007 03       		.uleb128 0x3
 14291 0008 0E       		.uleb128 0xe
 14292 0009 1B       		.uleb128 0x1b
 14293 000a 0E       		.uleb128 0xe
 14294 000b 55       		.uleb128 0x55
 14295 000c 17       		.uleb128 0x17
 14296 000d 11       		.uleb128 0x11
 14297 000e 01       		.uleb128 0x1
 14298 000f 10       		.uleb128 0x10
 14299 0010 17       		.uleb128 0x17
 14300 0011 00       		.byte	0
 14301 0012 00       		.byte	0
 14302 0013 02       		.uleb128 0x2
 14303 0014 24       		.uleb128 0x24
 14304 0015 00       		.byte	0
 14305 0016 0B       		.uleb128 0xb
 14306 0017 0B       		.uleb128 0xb
 14307 0018 3E       		.uleb128 0x3e
 14308 0019 0B       		.uleb128 0xb
 14309 001a 03       		.uleb128 0x3
 14310 001b 08       		.uleb128 0x8
 14311 001c 00       		.byte	0
 14312 001d 00       		.byte	0
 14313 001e 03       		.uleb128 0x3
 14314 001f 16       		.uleb128 0x16
 14315 0020 00       		.byte	0
ARM GAS  /tmp/ccfWo18f.s 			page 253


 14316 0021 03       		.uleb128 0x3
 14317 0022 0E       		.uleb128 0xe
 14318 0023 3A       		.uleb128 0x3a
 14319 0024 0B       		.uleb128 0xb
 14320 0025 3B       		.uleb128 0x3b
 14321 0026 0B       		.uleb128 0xb
 14322 0027 49       		.uleb128 0x49
 14323 0028 13       		.uleb128 0x13
 14324 0029 00       		.byte	0
 14325 002a 00       		.byte	0
 14326 002b 04       		.uleb128 0x4
 14327 002c 24       		.uleb128 0x24
 14328 002d 00       		.byte	0
 14329 002e 0B       		.uleb128 0xb
 14330 002f 0B       		.uleb128 0xb
 14331 0030 3E       		.uleb128 0x3e
 14332 0031 0B       		.uleb128 0xb
 14333 0032 03       		.uleb128 0x3
 14334 0033 0E       		.uleb128 0xe
 14335 0034 00       		.byte	0
 14336 0035 00       		.byte	0
 14337 0036 05       		.uleb128 0x5
 14338 0037 0F       		.uleb128 0xf
 14339 0038 00       		.byte	0
 14340 0039 0B       		.uleb128 0xb
 14341 003a 0B       		.uleb128 0xb
 14342 003b 00       		.byte	0
 14343 003c 00       		.byte	0
 14344 003d 06       		.uleb128 0x6
 14345 003e 0F       		.uleb128 0xf
 14346 003f 00       		.byte	0
 14347 0040 0B       		.uleb128 0xb
 14348 0041 0B       		.uleb128 0xb
 14349 0042 49       		.uleb128 0x49
 14350 0043 13       		.uleb128 0x13
 14351 0044 00       		.byte	0
 14352 0045 00       		.byte	0
 14353 0046 07       		.uleb128 0x7
 14354 0047 26       		.uleb128 0x26
 14355 0048 00       		.byte	0
 14356 0049 49       		.uleb128 0x49
 14357 004a 13       		.uleb128 0x13
 14358 004b 00       		.byte	0
 14359 004c 00       		.byte	0
 14360 004d 08       		.uleb128 0x8
 14361 004e 01       		.uleb128 0x1
 14362 004f 01       		.byte	0x1
 14363 0050 49       		.uleb128 0x49
 14364 0051 13       		.uleb128 0x13
 14365 0052 01       		.uleb128 0x1
 14366 0053 13       		.uleb128 0x13
 14367 0054 00       		.byte	0
 14368 0055 00       		.byte	0
 14369 0056 09       		.uleb128 0x9
 14370 0057 21       		.uleb128 0x21
 14371 0058 00       		.byte	0
 14372 0059 49       		.uleb128 0x49
ARM GAS  /tmp/ccfWo18f.s 			page 254


 14373 005a 13       		.uleb128 0x13
 14374 005b 2F       		.uleb128 0x2f
 14375 005c 0B       		.uleb128 0xb
 14376 005d 00       		.byte	0
 14377 005e 00       		.byte	0
 14378 005f 0A       		.uleb128 0xa
 14379 0060 39       		.uleb128 0x39
 14380 0061 01       		.byte	0x1
 14381 0062 03       		.uleb128 0x3
 14382 0063 08       		.uleb128 0x8
 14383 0064 3A       		.uleb128 0x3a
 14384 0065 0B       		.uleb128 0xb
 14385 0066 3B       		.uleb128 0x3b
 14386 0067 0B       		.uleb128 0xb
 14387 0068 01       		.uleb128 0x1
 14388 0069 13       		.uleb128 0x13
 14389 006a 00       		.byte	0
 14390 006b 00       		.byte	0
 14391 006c 0B       		.uleb128 0xb
 14392 006d 08       		.uleb128 0x8
 14393 006e 00       		.byte	0
 14394 006f 3A       		.uleb128 0x3a
 14395 0070 0B       		.uleb128 0xb
 14396 0071 3B       		.uleb128 0x3b
 14397 0072 0B       		.uleb128 0xb
 14398 0073 18       		.uleb128 0x18
 14399 0074 13       		.uleb128 0x13
 14400 0075 00       		.byte	0
 14401 0076 00       		.byte	0
 14402 0077 0C       		.uleb128 0xc
 14403 0078 2E       		.uleb128 0x2e
 14404 0079 01       		.byte	0x1
 14405 007a 3F       		.uleb128 0x3f
 14406 007b 19       		.uleb128 0x19
 14407 007c 03       		.uleb128 0x3
 14408 007d 0E       		.uleb128 0xe
 14409 007e 3A       		.uleb128 0x3a
 14410 007f 0B       		.uleb128 0xb
 14411 0080 3B       		.uleb128 0x3b
 14412 0081 0B       		.uleb128 0xb
 14413 0082 49       		.uleb128 0x49
 14414 0083 13       		.uleb128 0x13
 14415 0084 3C       		.uleb128 0x3c
 14416 0085 19       		.uleb128 0x19
 14417 0086 01       		.uleb128 0x1
 14418 0087 13       		.uleb128 0x13
 14419 0088 00       		.byte	0
 14420 0089 00       		.byte	0
 14421 008a 0D       		.uleb128 0xd
 14422 008b 05       		.uleb128 0x5
 14423 008c 00       		.byte	0
 14424 008d 49       		.uleb128 0x49
 14425 008e 13       		.uleb128 0x13
 14426 008f 00       		.byte	0
 14427 0090 00       		.byte	0
 14428 0091 0E       		.uleb128 0xe
 14429 0092 02       		.uleb128 0x2
ARM GAS  /tmp/ccfWo18f.s 			page 255


 14430 0093 01       		.byte	0x1
 14431 0094 03       		.uleb128 0x3
 14432 0095 0E       		.uleb128 0xe
 14433 0096 0B       		.uleb128 0xb
 14434 0097 0B       		.uleb128 0xb
 14435 0098 3A       		.uleb128 0x3a
 14436 0099 0B       		.uleb128 0xb
 14437 009a 3B       		.uleb128 0x3b
 14438 009b 0B       		.uleb128 0xb
 14439 009c 01       		.uleb128 0x1
 14440 009d 13       		.uleb128 0x13
 14441 009e 00       		.byte	0
 14442 009f 00       		.byte	0
 14443 00a0 0F       		.uleb128 0xf
 14444 00a1 2E       		.uleb128 0x2e
 14445 00a2 01       		.byte	0x1
 14446 00a3 3F       		.uleb128 0x3f
 14447 00a4 19       		.uleb128 0x19
 14448 00a5 03       		.uleb128 0x3
 14449 00a6 0E       		.uleb128 0xe
 14450 00a7 3A       		.uleb128 0x3a
 14451 00a8 0B       		.uleb128 0xb
 14452 00a9 3B       		.uleb128 0x3b
 14453 00aa 0B       		.uleb128 0xb
 14454 00ab 49       		.uleb128 0x49
 14455 00ac 13       		.uleb128 0x13
 14456 00ad 3C       		.uleb128 0x3c
 14457 00ae 19       		.uleb128 0x19
 14458 00af 64       		.uleb128 0x64
 14459 00b0 13       		.uleb128 0x13
 14460 00b1 01       		.uleb128 0x1
 14461 00b2 13       		.uleb128 0x13
 14462 00b3 00       		.byte	0
 14463 00b4 00       		.byte	0
 14464 00b5 10       		.uleb128 0x10
 14465 00b6 05       		.uleb128 0x5
 14466 00b7 00       		.byte	0
 14467 00b8 49       		.uleb128 0x49
 14468 00b9 13       		.uleb128 0x13
 14469 00ba 34       		.uleb128 0x34
 14470 00bb 19       		.uleb128 0x19
 14471 00bc 00       		.byte	0
 14472 00bd 00       		.byte	0
 14473 00be 11       		.uleb128 0x11
 14474 00bf 2E       		.uleb128 0x2e
 14475 00c0 01       		.byte	0x1
 14476 00c1 3F       		.uleb128 0x3f
 14477 00c2 19       		.uleb128 0x19
 14478 00c3 03       		.uleb128 0x3
 14479 00c4 0E       		.uleb128 0xe
 14480 00c5 3A       		.uleb128 0x3a
 14481 00c6 0B       		.uleb128 0xb
 14482 00c7 3B       		.uleb128 0x3b
 14483 00c8 0B       		.uleb128 0xb
 14484 00c9 49       		.uleb128 0x49
 14485 00ca 13       		.uleb128 0x13
 14486 00cb 32       		.uleb128 0x32
ARM GAS  /tmp/ccfWo18f.s 			page 256


 14487 00cc 0B       		.uleb128 0xb
 14488 00cd 3C       		.uleb128 0x3c
 14489 00ce 19       		.uleb128 0x19
 14490 00cf 64       		.uleb128 0x64
 14491 00d0 13       		.uleb128 0x13
 14492 00d1 01       		.uleb128 0x1
 14493 00d2 13       		.uleb128 0x13
 14494 00d3 00       		.byte	0
 14495 00d4 00       		.byte	0
 14496 00d5 12       		.uleb128 0x12
 14497 00d6 2E       		.uleb128 0x2e
 14498 00d7 01       		.byte	0x1
 14499 00d8 3F       		.uleb128 0x3f
 14500 00d9 19       		.uleb128 0x19
 14501 00da 03       		.uleb128 0x3
 14502 00db 0E       		.uleb128 0xe
 14503 00dc 3A       		.uleb128 0x3a
 14504 00dd 0B       		.uleb128 0xb
 14505 00de 3B       		.uleb128 0x3b
 14506 00df 0B       		.uleb128 0xb
 14507 00e0 49       		.uleb128 0x49
 14508 00e1 13       		.uleb128 0x13
 14509 00e2 32       		.uleb128 0x32
 14510 00e3 0B       		.uleb128 0xb
 14511 00e4 3C       		.uleb128 0x3c
 14512 00e5 19       		.uleb128 0x19
 14513 00e6 64       		.uleb128 0x64
 14514 00e7 13       		.uleb128 0x13
 14515 00e8 00       		.byte	0
 14516 00e9 00       		.byte	0
 14517 00ea 13       		.uleb128 0x13
 14518 00eb 1C       		.uleb128 0x1c
 14519 00ec 00       		.byte	0
 14520 00ed 49       		.uleb128 0x49
 14521 00ee 13       		.uleb128 0x13
 14522 00ef 38       		.uleb128 0x38
 14523 00f0 0B       		.uleb128 0xb
 14524 00f1 00       		.byte	0
 14525 00f2 00       		.byte	0
 14526 00f3 14       		.uleb128 0x14
 14527 00f4 2E       		.uleb128 0x2e
 14528 00f5 00       		.byte	0
 14529 00f6 3F       		.uleb128 0x3f
 14530 00f7 19       		.uleb128 0x19
 14531 00f8 03       		.uleb128 0x3
 14532 00f9 0E       		.uleb128 0xe
 14533 00fa 3A       		.uleb128 0x3a
 14534 00fb 0B       		.uleb128 0xb
 14535 00fc 3B       		.uleb128 0x3b
 14536 00fd 0B       		.uleb128 0xb
 14537 00fe 6E       		.uleb128 0x6e
 14538 00ff 0E       		.uleb128 0xe
 14539 0100 32       		.uleb128 0x32
 14540 0101 0B       		.uleb128 0xb
 14541 0102 3C       		.uleb128 0x3c
 14542 0103 19       		.uleb128 0x19
 14543 0104 00       		.byte	0
ARM GAS  /tmp/ccfWo18f.s 			page 257


 14544 0105 00       		.byte	0
 14545 0106 15       		.uleb128 0x15
 14546 0107 16       		.uleb128 0x16
 14547 0108 00       		.byte	0
 14548 0109 03       		.uleb128 0x3
 14549 010a 0E       		.uleb128 0xe
 14550 010b 3A       		.uleb128 0x3a
 14551 010c 0B       		.uleb128 0xb
 14552 010d 3B       		.uleb128 0x3b
 14553 010e 0B       		.uleb128 0xb
 14554 010f 49       		.uleb128 0x49
 14555 0110 13       		.uleb128 0x13
 14556 0111 32       		.uleb128 0x32
 14557 0112 0B       		.uleb128 0xb
 14558 0113 00       		.byte	0
 14559 0114 00       		.byte	0
 14560 0115 16       		.uleb128 0x16
 14561 0116 0D       		.uleb128 0xd
 14562 0117 00       		.byte	0
 14563 0118 03       		.uleb128 0x3
 14564 0119 08       		.uleb128 0x8
 14565 011a 3A       		.uleb128 0x3a
 14566 011b 0B       		.uleb128 0xb
 14567 011c 3B       		.uleb128 0x3b
 14568 011d 0B       		.uleb128 0xb
 14569 011e 49       		.uleb128 0x49
 14570 011f 13       		.uleb128 0x13
 14571 0120 38       		.uleb128 0x38
 14572 0121 0B       		.uleb128 0xb
 14573 0122 32       		.uleb128 0x32
 14574 0123 0B       		.uleb128 0xb
 14575 0124 00       		.byte	0
 14576 0125 00       		.byte	0
 14577 0126 17       		.uleb128 0x17
 14578 0127 0D       		.uleb128 0xd
 14579 0128 00       		.byte	0
 14580 0129 03       		.uleb128 0x3
 14581 012a 0E       		.uleb128 0xe
 14582 012b 3A       		.uleb128 0x3a
 14583 012c 0B       		.uleb128 0xb
 14584 012d 3B       		.uleb128 0x3b
 14585 012e 0B       		.uleb128 0xb
 14586 012f 49       		.uleb128 0x49
 14587 0130 13       		.uleb128 0x13
 14588 0131 3F       		.uleb128 0x3f
 14589 0132 19       		.uleb128 0x19
 14590 0133 32       		.uleb128 0x32
 14591 0134 0B       		.uleb128 0xb
 14592 0135 3C       		.uleb128 0x3c
 14593 0136 19       		.uleb128 0x19
 14594 0137 00       		.byte	0
 14595 0138 00       		.byte	0
 14596 0139 18       		.uleb128 0x18
 14597 013a 2E       		.uleb128 0x2e
 14598 013b 01       		.byte	0x1
 14599 013c 3F       		.uleb128 0x3f
 14600 013d 19       		.uleb128 0x19
ARM GAS  /tmp/ccfWo18f.s 			page 258


 14601 013e 03       		.uleb128 0x3
 14602 013f 0E       		.uleb128 0xe
 14603 0140 3A       		.uleb128 0x3a
 14604 0141 0B       		.uleb128 0xb
 14605 0142 3B       		.uleb128 0x3b
 14606 0143 0B       		.uleb128 0xb
 14607 0144 6E       		.uleb128 0x6e
 14608 0145 0E       		.uleb128 0xe
 14609 0146 49       		.uleb128 0x49
 14610 0147 13       		.uleb128 0x13
 14611 0148 32       		.uleb128 0x32
 14612 0149 0B       		.uleb128 0xb
 14613 014a 3C       		.uleb128 0x3c
 14614 014b 19       		.uleb128 0x19
 14615 014c 64       		.uleb128 0x64
 14616 014d 13       		.uleb128 0x13
 14617 014e 01       		.uleb128 0x1
 14618 014f 13       		.uleb128 0x13
 14619 0150 00       		.byte	0
 14620 0151 00       		.byte	0
 14621 0152 19       		.uleb128 0x19
 14622 0153 2E       		.uleb128 0x2e
 14623 0154 01       		.byte	0x1
 14624 0155 3F       		.uleb128 0x3f
 14625 0156 19       		.uleb128 0x19
 14626 0157 03       		.uleb128 0x3
 14627 0158 0E       		.uleb128 0xe
 14628 0159 3A       		.uleb128 0x3a
 14629 015a 0B       		.uleb128 0xb
 14630 015b 3B       		.uleb128 0x3b
 14631 015c 0B       		.uleb128 0xb
 14632 015d 49       		.uleb128 0x49
 14633 015e 13       		.uleb128 0x13
 14634 015f 32       		.uleb128 0x32
 14635 0160 0B       		.uleb128 0xb
 14636 0161 3C       		.uleb128 0x3c
 14637 0162 19       		.uleb128 0x19
 14638 0163 63       		.uleb128 0x63
 14639 0164 19       		.uleb128 0x19
 14640 0165 64       		.uleb128 0x64
 14641 0166 13       		.uleb128 0x13
 14642 0167 01       		.uleb128 0x1
 14643 0168 13       		.uleb128 0x13
 14644 0169 00       		.byte	0
 14645 016a 00       		.byte	0
 14646 016b 1A       		.uleb128 0x1a
 14647 016c 2E       		.uleb128 0x2e
 14648 016d 01       		.byte	0x1
 14649 016e 3F       		.uleb128 0x3f
 14650 016f 19       		.uleb128 0x19
 14651 0170 03       		.uleb128 0x3
 14652 0171 08       		.uleb128 0x8
 14653 0172 3A       		.uleb128 0x3a
 14654 0173 0B       		.uleb128 0xb
 14655 0174 3B       		.uleb128 0x3b
 14656 0175 0B       		.uleb128 0xb
 14657 0176 6E       		.uleb128 0x6e
ARM GAS  /tmp/ccfWo18f.s 			page 259


 14658 0177 0E       		.uleb128 0xe
 14659 0178 49       		.uleb128 0x49
 14660 0179 13       		.uleb128 0x13
 14661 017a 32       		.uleb128 0x32
 14662 017b 0B       		.uleb128 0xb
 14663 017c 3C       		.uleb128 0x3c
 14664 017d 19       		.uleb128 0x19
 14665 017e 01       		.uleb128 0x1
 14666 017f 13       		.uleb128 0x13
 14667 0180 00       		.byte	0
 14668 0181 00       		.byte	0
 14669 0182 1B       		.uleb128 0x1b
 14670 0183 2E       		.uleb128 0x2e
 14671 0184 00       		.byte	0
 14672 0185 3F       		.uleb128 0x3f
 14673 0186 19       		.uleb128 0x19
 14674 0187 03       		.uleb128 0x3
 14675 0188 08       		.uleb128 0x8
 14676 0189 3A       		.uleb128 0x3a
 14677 018a 0B       		.uleb128 0xb
 14678 018b 3B       		.uleb128 0x3b
 14679 018c 0B       		.uleb128 0xb
 14680 018d 6E       		.uleb128 0x6e
 14681 018e 0E       		.uleb128 0xe
 14682 018f 49       		.uleb128 0x49
 14683 0190 13       		.uleb128 0x13
 14684 0191 32       		.uleb128 0x32
 14685 0192 0B       		.uleb128 0xb
 14686 0193 3C       		.uleb128 0x3c
 14687 0194 19       		.uleb128 0x19
 14688 0195 00       		.byte	0
 14689 0196 00       		.byte	0
 14690 0197 1C       		.uleb128 0x1c
 14691 0198 13       		.uleb128 0x13
 14692 0199 01       		.byte	0x1
 14693 019a 03       		.uleb128 0x3
 14694 019b 0E       		.uleb128 0xe
 14695 019c 0B       		.uleb128 0xb
 14696 019d 0B       		.uleb128 0xb
 14697 019e 3A       		.uleb128 0x3a
 14698 019f 0B       		.uleb128 0xb
 14699 01a0 3B       		.uleb128 0x3b
 14700 01a1 0B       		.uleb128 0xb
 14701 01a2 32       		.uleb128 0x32
 14702 01a3 0B       		.uleb128 0xb
 14703 01a4 01       		.uleb128 0x1
 14704 01a5 13       		.uleb128 0x13
 14705 01a6 00       		.byte	0
 14706 01a7 00       		.byte	0
 14707 01a8 1D       		.uleb128 0x1d
 14708 01a9 0D       		.uleb128 0xd
 14709 01aa 00       		.byte	0
 14710 01ab 03       		.uleb128 0x3
 14711 01ac 0E       		.uleb128 0xe
 14712 01ad 3A       		.uleb128 0x3a
 14713 01ae 0B       		.uleb128 0xb
 14714 01af 3B       		.uleb128 0x3b
ARM GAS  /tmp/ccfWo18f.s 			page 260


 14715 01b0 0B       		.uleb128 0xb
 14716 01b1 49       		.uleb128 0x49
 14717 01b2 13       		.uleb128 0x13
 14718 01b3 38       		.uleb128 0x38
 14719 01b4 0B       		.uleb128 0xb
 14720 01b5 00       		.byte	0
 14721 01b6 00       		.byte	0
 14722 01b7 1E       		.uleb128 0x1e
 14723 01b8 2E       		.uleb128 0x2e
 14724 01b9 01       		.byte	0x1
 14725 01ba 3F       		.uleb128 0x3f
 14726 01bb 19       		.uleb128 0x19
 14727 01bc 03       		.uleb128 0x3
 14728 01bd 0E       		.uleb128 0xe
 14729 01be 3A       		.uleb128 0x3a
 14730 01bf 0B       		.uleb128 0xb
 14731 01c0 3B       		.uleb128 0x3b
 14732 01c1 0B       		.uleb128 0xb
 14733 01c2 6E       		.uleb128 0x6e
 14734 01c3 0E       		.uleb128 0xe
 14735 01c4 49       		.uleb128 0x49
 14736 01c5 13       		.uleb128 0x13
 14737 01c6 3C       		.uleb128 0x3c
 14738 01c7 19       		.uleb128 0x19
 14739 01c8 64       		.uleb128 0x64
 14740 01c9 13       		.uleb128 0x13
 14741 01ca 01       		.uleb128 0x1
 14742 01cb 13       		.uleb128 0x13
 14743 01cc 00       		.byte	0
 14744 01cd 00       		.byte	0
 14745 01ce 1F       		.uleb128 0x1f
 14746 01cf 2E       		.uleb128 0x2e
 14747 01d0 01       		.byte	0x1
 14748 01d1 3F       		.uleb128 0x3f
 14749 01d2 19       		.uleb128 0x19
 14750 01d3 03       		.uleb128 0x3
 14751 01d4 0E       		.uleb128 0xe
 14752 01d5 3A       		.uleb128 0x3a
 14753 01d6 0B       		.uleb128 0xb
 14754 01d7 3B       		.uleb128 0x3b
 14755 01d8 0B       		.uleb128 0xb
 14756 01d9 49       		.uleb128 0x49
 14757 01da 13       		.uleb128 0x13
 14758 01db 3C       		.uleb128 0x3c
 14759 01dc 19       		.uleb128 0x19
 14760 01dd 64       		.uleb128 0x64
 14761 01de 13       		.uleb128 0x13
 14762 01df 00       		.byte	0
 14763 01e0 00       		.byte	0
 14764 01e1 20       		.uleb128 0x20
 14765 01e2 2E       		.uleb128 0x2e
 14766 01e3 01       		.byte	0x1
 14767 01e4 3F       		.uleb128 0x3f
 14768 01e5 19       		.uleb128 0x19
 14769 01e6 03       		.uleb128 0x3
 14770 01e7 0E       		.uleb128 0xe
 14771 01e8 3A       		.uleb128 0x3a
ARM GAS  /tmp/ccfWo18f.s 			page 261


 14772 01e9 0B       		.uleb128 0xb
 14773 01ea 3B       		.uleb128 0x3b
 14774 01eb 0B       		.uleb128 0xb
 14775 01ec 6E       		.uleb128 0x6e
 14776 01ed 0E       		.uleb128 0xe
 14777 01ee 32       		.uleb128 0x32
 14778 01ef 0B       		.uleb128 0xb
 14779 01f0 3C       		.uleb128 0x3c
 14780 01f1 19       		.uleb128 0x19
 14781 01f2 64       		.uleb128 0x64
 14782 01f3 13       		.uleb128 0x13
 14783 01f4 01       		.uleb128 0x1
 14784 01f5 13       		.uleb128 0x13
 14785 01f6 00       		.byte	0
 14786 01f7 00       		.byte	0
 14787 01f8 21       		.uleb128 0x21
 14788 01f9 2E       		.uleb128 0x2e
 14789 01fa 01       		.byte	0x1
 14790 01fb 3F       		.uleb128 0x3f
 14791 01fc 19       		.uleb128 0x19
 14792 01fd 03       		.uleb128 0x3
 14793 01fe 0E       		.uleb128 0xe
 14794 01ff 3A       		.uleb128 0x3a
 14795 0200 0B       		.uleb128 0xb
 14796 0201 3B       		.uleb128 0x3b
 14797 0202 0B       		.uleb128 0xb
 14798 0203 6E       		.uleb128 0x6e
 14799 0204 0E       		.uleb128 0xe
 14800 0205 32       		.uleb128 0x32
 14801 0206 0B       		.uleb128 0xb
 14802 0207 3C       		.uleb128 0x3c
 14803 0208 19       		.uleb128 0x19
 14804 0209 01       		.uleb128 0x1
 14805 020a 13       		.uleb128 0x13
 14806 020b 00       		.byte	0
 14807 020c 00       		.byte	0
 14808 020d 22       		.uleb128 0x22
 14809 020e 2E       		.uleb128 0x2e
 14810 020f 01       		.byte	0x1
 14811 0210 3F       		.uleb128 0x3f
 14812 0211 19       		.uleb128 0x19
 14813 0212 03       		.uleb128 0x3
 14814 0213 0E       		.uleb128 0xe
 14815 0214 3A       		.uleb128 0x3a
 14816 0215 0B       		.uleb128 0xb
 14817 0216 3B       		.uleb128 0x3b
 14818 0217 0B       		.uleb128 0xb
 14819 0218 6E       		.uleb128 0x6e
 14820 0219 0E       		.uleb128 0xe
 14821 021a 49       		.uleb128 0x49
 14822 021b 13       		.uleb128 0x13
 14823 021c 32       		.uleb128 0x32
 14824 021d 0B       		.uleb128 0xb
 14825 021e 3C       		.uleb128 0x3c
 14826 021f 19       		.uleb128 0x19
 14827 0220 01       		.uleb128 0x1
 14828 0221 13       		.uleb128 0x13
ARM GAS  /tmp/ccfWo18f.s 			page 262


 14829 0222 00       		.byte	0
 14830 0223 00       		.byte	0
 14831 0224 23       		.uleb128 0x23
 14832 0225 2E       		.uleb128 0x2e
 14833 0226 01       		.byte	0x1
 14834 0227 3F       		.uleb128 0x3f
 14835 0228 19       		.uleb128 0x19
 14836 0229 03       		.uleb128 0x3
 14837 022a 0E       		.uleb128 0xe
 14838 022b 3A       		.uleb128 0x3a
 14839 022c 0B       		.uleb128 0xb
 14840 022d 3B       		.uleb128 0x3b
 14841 022e 0B       		.uleb128 0xb
 14842 022f 6E       		.uleb128 0x6e
 14843 0230 0E       		.uleb128 0xe
 14844 0231 49       		.uleb128 0x49
 14845 0232 13       		.uleb128 0x13
 14846 0233 32       		.uleb128 0x32
 14847 0234 0B       		.uleb128 0xb
 14848 0235 3C       		.uleb128 0x3c
 14849 0236 19       		.uleb128 0x19
 14850 0237 00       		.byte	0
 14851 0238 00       		.byte	0
 14852 0239 24       		.uleb128 0x24
 14853 023a 2F       		.uleb128 0x2f
 14854 023b 00       		.byte	0
 14855 023c 03       		.uleb128 0x3
 14856 023d 0E       		.uleb128 0xe
 14857 023e 49       		.uleb128 0x49
 14858 023f 13       		.uleb128 0x13
 14859 0240 00       		.byte	0
 14860 0241 00       		.byte	0
 14861 0242 25       		.uleb128 0x25
 14862 0243 2E       		.uleb128 0x2e
 14863 0244 01       		.byte	0x1
 14864 0245 3F       		.uleb128 0x3f
 14865 0246 19       		.uleb128 0x19
 14866 0247 03       		.uleb128 0x3
 14867 0248 0E       		.uleb128 0xe
 14868 0249 3A       		.uleb128 0x3a
 14869 024a 0B       		.uleb128 0xb
 14870 024b 3B       		.uleb128 0x3b
 14871 024c 0B       		.uleb128 0xb
 14872 024d 49       		.uleb128 0x49
 14873 024e 13       		.uleb128 0x13
 14874 024f 32       		.uleb128 0x32
 14875 0250 0B       		.uleb128 0xb
 14876 0251 3C       		.uleb128 0x3c
 14877 0252 19       		.uleb128 0x19
 14878 0253 63       		.uleb128 0x63
 14879 0254 19       		.uleb128 0x19
 14880 0255 64       		.uleb128 0x64
 14881 0256 13       		.uleb128 0x13
 14882 0257 00       		.byte	0
 14883 0258 00       		.byte	0
 14884 0259 26       		.uleb128 0x26
 14885 025a 02       		.uleb128 0x2
ARM GAS  /tmp/ccfWo18f.s 			page 263


 14886 025b 00       		.byte	0
 14887 025c 03       		.uleb128 0x3
 14888 025d 0E       		.uleb128 0xe
 14889 025e 3C       		.uleb128 0x3c
 14890 025f 19       		.uleb128 0x19
 14891 0260 00       		.byte	0
 14892 0261 00       		.byte	0
 14893 0262 27       		.uleb128 0x27
 14894 0263 0D       		.uleb128 0xd
 14895 0264 00       		.byte	0
 14896 0265 03       		.uleb128 0x3
 14897 0266 0E       		.uleb128 0xe
 14898 0267 3A       		.uleb128 0x3a
 14899 0268 0B       		.uleb128 0xb
 14900 0269 3B       		.uleb128 0x3b
 14901 026a 05       		.uleb128 0x5
 14902 026b 49       		.uleb128 0x49
 14903 026c 13       		.uleb128 0x13
 14904 026d 38       		.uleb128 0x38
 14905 026e 0B       		.uleb128 0xb
 14906 026f 00       		.byte	0
 14907 0270 00       		.byte	0
 14908 0271 28       		.uleb128 0x28
 14909 0272 16       		.uleb128 0x16
 14910 0273 00       		.byte	0
 14911 0274 03       		.uleb128 0x3
 14912 0275 0E       		.uleb128 0xe
 14913 0276 3A       		.uleb128 0x3a
 14914 0277 0B       		.uleb128 0xb
 14915 0278 3B       		.uleb128 0x3b
 14916 0279 05       		.uleb128 0x5
 14917 027a 49       		.uleb128 0x49
 14918 027b 13       		.uleb128 0x13
 14919 027c 00       		.byte	0
 14920 027d 00       		.byte	0
 14921 027e 29       		.uleb128 0x29
 14922 027f 2E       		.uleb128 0x2e
 14923 0280 01       		.byte	0x1
 14924 0281 3F       		.uleb128 0x3f
 14925 0282 19       		.uleb128 0x19
 14926 0283 03       		.uleb128 0x3
 14927 0284 0E       		.uleb128 0xe
 14928 0285 3A       		.uleb128 0x3a
 14929 0286 0B       		.uleb128 0xb
 14930 0287 3B       		.uleb128 0x3b
 14931 0288 05       		.uleb128 0x5
 14932 0289 6E       		.uleb128 0x6e
 14933 028a 0E       		.uleb128 0xe
 14934 028b 49       		.uleb128 0x49
 14935 028c 13       		.uleb128 0x13
 14936 028d 32       		.uleb128 0x32
 14937 028e 0B       		.uleb128 0xb
 14938 028f 3C       		.uleb128 0x3c
 14939 0290 19       		.uleb128 0x19
 14940 0291 64       		.uleb128 0x64
 14941 0292 13       		.uleb128 0x13
 14942 0293 01       		.uleb128 0x1
ARM GAS  /tmp/ccfWo18f.s 			page 264


 14943 0294 13       		.uleb128 0x13
 14944 0295 00       		.byte	0
 14945 0296 00       		.byte	0
 14946 0297 2A       		.uleb128 0x2a
 14947 0298 2E       		.uleb128 0x2e
 14948 0299 01       		.byte	0x1
 14949 029a 3F       		.uleb128 0x3f
 14950 029b 19       		.uleb128 0x19
 14951 029c 03       		.uleb128 0x3
 14952 029d 0E       		.uleb128 0xe
 14953 029e 3A       		.uleb128 0x3a
 14954 029f 0B       		.uleb128 0xb
 14955 02a0 3B       		.uleb128 0x3b
 14956 02a1 05       		.uleb128 0x5
 14957 02a2 6E       		.uleb128 0x6e
 14958 02a3 0E       		.uleb128 0xe
 14959 02a4 32       		.uleb128 0x32
 14960 02a5 0B       		.uleb128 0xb
 14961 02a6 3C       		.uleb128 0x3c
 14962 02a7 19       		.uleb128 0x19
 14963 02a8 64       		.uleb128 0x64
 14964 02a9 13       		.uleb128 0x13
 14965 02aa 01       		.uleb128 0x1
 14966 02ab 13       		.uleb128 0x13
 14967 02ac 00       		.byte	0
 14968 02ad 00       		.byte	0
 14969 02ae 2B       		.uleb128 0x2b
 14970 02af 2E       		.uleb128 0x2e
 14971 02b0 01       		.byte	0x1
 14972 02b1 3F       		.uleb128 0x3f
 14973 02b2 19       		.uleb128 0x19
 14974 02b3 03       		.uleb128 0x3
 14975 02b4 08       		.uleb128 0x8
 14976 02b5 3A       		.uleb128 0x3a
 14977 02b6 0B       		.uleb128 0xb
 14978 02b7 3B       		.uleb128 0x3b
 14979 02b8 05       		.uleb128 0x5
 14980 02b9 6E       		.uleb128 0x6e
 14981 02ba 0E       		.uleb128 0xe
 14982 02bb 49       		.uleb128 0x49
 14983 02bc 13       		.uleb128 0x13
 14984 02bd 32       		.uleb128 0x32
 14985 02be 0B       		.uleb128 0xb
 14986 02bf 3C       		.uleb128 0x3c
 14987 02c0 19       		.uleb128 0x19
 14988 02c1 64       		.uleb128 0x64
 14989 02c2 13       		.uleb128 0x13
 14990 02c3 01       		.uleb128 0x1
 14991 02c4 13       		.uleb128 0x13
 14992 02c5 00       		.byte	0
 14993 02c6 00       		.byte	0
 14994 02c7 2C       		.uleb128 0x2c
 14995 02c8 2E       		.uleb128 0x2e
 14996 02c9 01       		.byte	0x1
 14997 02ca 3F       		.uleb128 0x3f
 14998 02cb 19       		.uleb128 0x19
 14999 02cc 03       		.uleb128 0x3
ARM GAS  /tmp/ccfWo18f.s 			page 265


 15000 02cd 0E       		.uleb128 0xe
 15001 02ce 3A       		.uleb128 0x3a
 15002 02cf 0B       		.uleb128 0xb
 15003 02d0 3B       		.uleb128 0x3b
 15004 02d1 05       		.uleb128 0x5
 15005 02d2 49       		.uleb128 0x49
 15006 02d3 13       		.uleb128 0x13
 15007 02d4 32       		.uleb128 0x32
 15008 02d5 0B       		.uleb128 0xb
 15009 02d6 3C       		.uleb128 0x3c
 15010 02d7 19       		.uleb128 0x19
 15011 02d8 64       		.uleb128 0x64
 15012 02d9 13       		.uleb128 0x13
 15013 02da 01       		.uleb128 0x1
 15014 02db 13       		.uleb128 0x13
 15015 02dc 00       		.byte	0
 15016 02dd 00       		.byte	0
 15017 02de 2D       		.uleb128 0x2d
 15018 02df 02       		.uleb128 0x2
 15019 02e0 01       		.byte	0x1
 15020 02e1 03       		.uleb128 0x3
 15021 02e2 0E       		.uleb128 0xe
 15022 02e3 3C       		.uleb128 0x3c
 15023 02e4 19       		.uleb128 0x19
 15024 02e5 01       		.uleb128 0x1
 15025 02e6 13       		.uleb128 0x13
 15026 02e7 00       		.byte	0
 15027 02e8 00       		.byte	0
 15028 02e9 2E       		.uleb128 0x2e
 15029 02ea 2E       		.uleb128 0x2e
 15030 02eb 01       		.byte	0x1
 15031 02ec 3F       		.uleb128 0x3f
 15032 02ed 19       		.uleb128 0x19
 15033 02ee 03       		.uleb128 0x3
 15034 02ef 0E       		.uleb128 0xe
 15035 02f0 3A       		.uleb128 0x3a
 15036 02f1 0B       		.uleb128 0xb
 15037 02f2 3B       		.uleb128 0x3b
 15038 02f3 0B       		.uleb128 0xb
 15039 02f4 6E       		.uleb128 0x6e
 15040 02f5 0E       		.uleb128 0xe
 15041 02f6 49       		.uleb128 0x49
 15042 02f7 13       		.uleb128 0x13
 15043 02f8 32       		.uleb128 0x32
 15044 02f9 0B       		.uleb128 0xb
 15045 02fa 3C       		.uleb128 0x3c
 15046 02fb 19       		.uleb128 0x19
 15047 02fc 64       		.uleb128 0x64
 15048 02fd 13       		.uleb128 0x13
 15049 02fe 00       		.byte	0
 15050 02ff 00       		.byte	0
 15051 0300 2F       		.uleb128 0x2f
 15052 0301 2E       		.uleb128 0x2e
 15053 0302 01       		.byte	0x1
 15054 0303 3F       		.uleb128 0x3f
 15055 0304 19       		.uleb128 0x19
 15056 0305 03       		.uleb128 0x3
ARM GAS  /tmp/ccfWo18f.s 			page 266


 15057 0306 0E       		.uleb128 0xe
 15058 0307 49       		.uleb128 0x49
 15059 0308 13       		.uleb128 0x13
 15060 0309 34       		.uleb128 0x34
 15061 030a 19       		.uleb128 0x19
 15062 030b 32       		.uleb128 0x32
 15063 030c 0B       		.uleb128 0xb
 15064 030d 3C       		.uleb128 0x3c
 15065 030e 19       		.uleb128 0x19
 15066 030f 64       		.uleb128 0x64
 15067 0310 13       		.uleb128 0x13
 15068 0311 00       		.byte	0
 15069 0312 00       		.byte	0
 15070 0313 30       		.uleb128 0x30
 15071 0314 2E       		.uleb128 0x2e
 15072 0315 01       		.byte	0x1
 15073 0316 3F       		.uleb128 0x3f
 15074 0317 19       		.uleb128 0x19
 15075 0318 03       		.uleb128 0x3
 15076 0319 08       		.uleb128 0x8
 15077 031a 3A       		.uleb128 0x3a
 15078 031b 0B       		.uleb128 0xb
 15079 031c 3B       		.uleb128 0x3b
 15080 031d 0B       		.uleb128 0xb
 15081 031e 6E       		.uleb128 0x6e
 15082 031f 0E       		.uleb128 0xe
 15083 0320 49       		.uleb128 0x49
 15084 0321 13       		.uleb128 0x13
 15085 0322 32       		.uleb128 0x32
 15086 0323 0B       		.uleb128 0xb
 15087 0324 3C       		.uleb128 0x3c
 15088 0325 19       		.uleb128 0x19
 15089 0326 64       		.uleb128 0x64
 15090 0327 13       		.uleb128 0x13
 15091 0328 01       		.uleb128 0x1
 15092 0329 13       		.uleb128 0x13
 15093 032a 00       		.byte	0
 15094 032b 00       		.byte	0
 15095 032c 31       		.uleb128 0x31
 15096 032d 2E       		.uleb128 0x2e
 15097 032e 01       		.byte	0x1
 15098 032f 3F       		.uleb128 0x3f
 15099 0330 19       		.uleb128 0x19
 15100 0331 03       		.uleb128 0x3
 15101 0332 0E       		.uleb128 0xe
 15102 0333 49       		.uleb128 0x49
 15103 0334 13       		.uleb128 0x13
 15104 0335 34       		.uleb128 0x34
 15105 0336 19       		.uleb128 0x19
 15106 0337 32       		.uleb128 0x32
 15107 0338 0B       		.uleb128 0xb
 15108 0339 3C       		.uleb128 0x3c
 15109 033a 19       		.uleb128 0x19
 15110 033b 64       		.uleb128 0x64
 15111 033c 13       		.uleb128 0x13
 15112 033d 01       		.uleb128 0x1
 15113 033e 13       		.uleb128 0x13
ARM GAS  /tmp/ccfWo18f.s 			page 267


 15114 033f 00       		.byte	0
 15115 0340 00       		.byte	0
 15116 0341 32       		.uleb128 0x32
 15117 0342 2F       		.uleb128 0x2f
 15118 0343 00       		.byte	0
 15119 0344 03       		.uleb128 0x3
 15120 0345 08       		.uleb128 0x8
 15121 0346 49       		.uleb128 0x49
 15122 0347 13       		.uleb128 0x13
 15123 0348 00       		.byte	0
 15124 0349 00       		.byte	0
 15125 034a 33       		.uleb128 0x33
 15126 034b 1C       		.uleb128 0x1c
 15127 034c 00       		.byte	0
 15128 034d 49       		.uleb128 0x49
 15129 034e 13       		.uleb128 0x13
 15130 034f 38       		.uleb128 0x38
 15131 0350 0B       		.uleb128 0xb
 15132 0351 32       		.uleb128 0x32
 15133 0352 0B       		.uleb128 0xb
 15134 0353 00       		.byte	0
 15135 0354 00       		.byte	0
 15136 0355 34       		.uleb128 0x34
 15137 0356 13       		.uleb128 0x13
 15138 0357 01       		.byte	0x1
 15139 0358 0B       		.uleb128 0xb
 15140 0359 0B       		.uleb128 0xb
 15141 035a 3A       		.uleb128 0x3a
 15142 035b 0B       		.uleb128 0xb
 15143 035c 3B       		.uleb128 0x3b
 15144 035d 0B       		.uleb128 0xb
 15145 035e 01       		.uleb128 0x1
 15146 035f 13       		.uleb128 0x13
 15147 0360 00       		.byte	0
 15148 0361 00       		.byte	0
 15149 0362 35       		.uleb128 0x35
 15150 0363 0D       		.uleb128 0xd
 15151 0364 00       		.byte	0
 15152 0365 03       		.uleb128 0x3
 15153 0366 0E       		.uleb128 0xe
 15154 0367 3A       		.uleb128 0x3a
 15155 0368 0B       		.uleb128 0xb
 15156 0369 3B       		.uleb128 0x3b
 15157 036a 0B       		.uleb128 0xb
 15158 036b 49       		.uleb128 0x49
 15159 036c 13       		.uleb128 0x13
 15160 036d 0B       		.uleb128 0xb
 15161 036e 0B       		.uleb128 0xb
 15162 036f 0D       		.uleb128 0xd
 15163 0370 0B       		.uleb128 0xb
 15164 0371 0C       		.uleb128 0xc
 15165 0372 0B       		.uleb128 0xb
 15166 0373 38       		.uleb128 0x38
 15167 0374 0B       		.uleb128 0xb
 15168 0375 00       		.byte	0
 15169 0376 00       		.byte	0
 15170 0377 36       		.uleb128 0x36
ARM GAS  /tmp/ccfWo18f.s 			page 268


 15171 0378 17       		.uleb128 0x17
 15172 0379 01       		.byte	0x1
 15173 037a 0B       		.uleb128 0xb
 15174 037b 0B       		.uleb128 0xb
 15175 037c 3A       		.uleb128 0x3a
 15176 037d 0B       		.uleb128 0xb
 15177 037e 3B       		.uleb128 0x3b
 15178 037f 0B       		.uleb128 0xb
 15179 0380 32       		.uleb128 0x32
 15180 0381 0B       		.uleb128 0xb
 15181 0382 01       		.uleb128 0x1
 15182 0383 13       		.uleb128 0x13
 15183 0384 00       		.byte	0
 15184 0385 00       		.byte	0
 15185 0386 37       		.uleb128 0x37
 15186 0387 0D       		.uleb128 0xd
 15187 0388 00       		.byte	0
 15188 0389 03       		.uleb128 0x3
 15189 038a 0E       		.uleb128 0xe
 15190 038b 3A       		.uleb128 0x3a
 15191 038c 0B       		.uleb128 0xb
 15192 038d 3B       		.uleb128 0x3b
 15193 038e 0B       		.uleb128 0xb
 15194 038f 49       		.uleb128 0x49
 15195 0390 13       		.uleb128 0x13
 15196 0391 00       		.byte	0
 15197 0392 00       		.byte	0
 15198 0393 38       		.uleb128 0x38
 15199 0394 0D       		.uleb128 0xd
 15200 0395 00       		.byte	0
 15201 0396 49       		.uleb128 0x49
 15202 0397 13       		.uleb128 0x13
 15203 0398 38       		.uleb128 0x38
 15204 0399 0B       		.uleb128 0xb
 15205 039a 32       		.uleb128 0x32
 15206 039b 0B       		.uleb128 0xb
 15207 039c 00       		.byte	0
 15208 039d 00       		.byte	0
 15209 039e 39       		.uleb128 0x39
 15210 039f 0D       		.uleb128 0xd
 15211 03a0 00       		.byte	0
 15212 03a1 03       		.uleb128 0x3
 15213 03a2 0E       		.uleb128 0xe
 15214 03a3 3A       		.uleb128 0x3a
 15215 03a4 0B       		.uleb128 0xb
 15216 03a5 3B       		.uleb128 0x3b
 15217 03a6 0B       		.uleb128 0xb
 15218 03a7 49       		.uleb128 0x49
 15219 03a8 13       		.uleb128 0x13
 15220 03a9 38       		.uleb128 0x38
 15221 03aa 0B       		.uleb128 0xb
 15222 03ab 32       		.uleb128 0x32
 15223 03ac 0B       		.uleb128 0xb
 15224 03ad 00       		.byte	0
 15225 03ae 00       		.byte	0
 15226 03af 3A       		.uleb128 0x3a
 15227 03b0 2E       		.uleb128 0x2e
ARM GAS  /tmp/ccfWo18f.s 			page 269


 15228 03b1 00       		.byte	0
 15229 03b2 3F       		.uleb128 0x3f
 15230 03b3 19       		.uleb128 0x19
 15231 03b4 03       		.uleb128 0x3
 15232 03b5 0E       		.uleb128 0xe
 15233 03b6 3A       		.uleb128 0x3a
 15234 03b7 0B       		.uleb128 0xb
 15235 03b8 3B       		.uleb128 0x3b
 15236 03b9 0B       		.uleb128 0xb
 15237 03ba 6E       		.uleb128 0x6e
 15238 03bb 0E       		.uleb128 0xe
 15239 03bc 49       		.uleb128 0x49
 15240 03bd 13       		.uleb128 0x13
 15241 03be 32       		.uleb128 0x32
 15242 03bf 0B       		.uleb128 0xb
 15243 03c0 3C       		.uleb128 0x3c
 15244 03c1 19       		.uleb128 0x19
 15245 03c2 00       		.byte	0
 15246 03c3 00       		.byte	0
 15247 03c4 3B       		.uleb128 0x3b
 15248 03c5 13       		.uleb128 0x13
 15249 03c6 00       		.byte	0
 15250 03c7 03       		.uleb128 0x3
 15251 03c8 0E       		.uleb128 0xe
 15252 03c9 3C       		.uleb128 0x3c
 15253 03ca 19       		.uleb128 0x19
 15254 03cb 00       		.byte	0
 15255 03cc 00       		.byte	0
 15256 03cd 3C       		.uleb128 0x3c
 15257 03ce 02       		.uleb128 0x2
 15258 03cf 01       		.byte	0x1
 15259 03d0 03       		.uleb128 0x3
 15260 03d1 0E       		.uleb128 0xe
 15261 03d2 0B       		.uleb128 0xb
 15262 03d3 0B       		.uleb128 0xb
 15263 03d4 3A       		.uleb128 0x3a
 15264 03d5 0B       		.uleb128 0xb
 15265 03d6 3B       		.uleb128 0x3b
 15266 03d7 0B       		.uleb128 0xb
 15267 03d8 32       		.uleb128 0x32
 15268 03d9 0B       		.uleb128 0xb
 15269 03da 01       		.uleb128 0x1
 15270 03db 13       		.uleb128 0x13
 15271 03dc 00       		.byte	0
 15272 03dd 00       		.byte	0
 15273 03de 3D       		.uleb128 0x3d
 15274 03df 2E       		.uleb128 0x2e
 15275 03e0 01       		.byte	0x1
 15276 03e1 3F       		.uleb128 0x3f
 15277 03e2 19       		.uleb128 0x19
 15278 03e3 03       		.uleb128 0x3
 15279 03e4 0E       		.uleb128 0xe
 15280 03e5 3A       		.uleb128 0x3a
 15281 03e6 0B       		.uleb128 0xb
 15282 03e7 3B       		.uleb128 0x3b
 15283 03e8 0B       		.uleb128 0xb
 15284 03e9 6E       		.uleb128 0x6e
ARM GAS  /tmp/ccfWo18f.s 			page 270


 15285 03ea 0E       		.uleb128 0xe
 15286 03eb 3C       		.uleb128 0x3c
 15287 03ec 19       		.uleb128 0x19
 15288 03ed 64       		.uleb128 0x64
 15289 03ee 13       		.uleb128 0x13
 15290 03ef 01       		.uleb128 0x1
 15291 03f0 13       		.uleb128 0x13
 15292 03f1 00       		.byte	0
 15293 03f2 00       		.byte	0
 15294 03f3 3E       		.uleb128 0x3e
 15295 03f4 2E       		.uleb128 0x2e
 15296 03f5 01       		.byte	0x1
 15297 03f6 3F       		.uleb128 0x3f
 15298 03f7 19       		.uleb128 0x19
 15299 03f8 03       		.uleb128 0x3
 15300 03f9 0E       		.uleb128 0xe
 15301 03fa 3A       		.uleb128 0x3a
 15302 03fb 0B       		.uleb128 0xb
 15303 03fc 3B       		.uleb128 0x3b
 15304 03fd 05       		.uleb128 0x5
 15305 03fe 6E       		.uleb128 0x6e
 15306 03ff 0E       		.uleb128 0xe
 15307 0400 49       		.uleb128 0x49
 15308 0401 13       		.uleb128 0x13
 15309 0402 32       		.uleb128 0x32
 15310 0403 0B       		.uleb128 0xb
 15311 0404 3C       		.uleb128 0x3c
 15312 0405 19       		.uleb128 0x19
 15313 0406 64       		.uleb128 0x64
 15314 0407 13       		.uleb128 0x13
 15315 0408 00       		.byte	0
 15316 0409 00       		.byte	0
 15317 040a 3F       		.uleb128 0x3f
 15318 040b 02       		.uleb128 0x2
 15319 040c 01       		.byte	0x1
 15320 040d 03       		.uleb128 0x3
 15321 040e 0E       		.uleb128 0xe
 15322 040f 0B       		.uleb128 0xb
 15323 0410 05       		.uleb128 0x5
 15324 0411 3A       		.uleb128 0x3a
 15325 0412 0B       		.uleb128 0xb
 15326 0413 3B       		.uleb128 0x3b
 15327 0414 0B       		.uleb128 0xb
 15328 0415 1D       		.uleb128 0x1d
 15329 0416 13       		.uleb128 0x13
 15330 0417 01       		.uleb128 0x1
 15331 0418 13       		.uleb128 0x13
 15332 0419 00       		.byte	0
 15333 041a 00       		.byte	0
 15334 041b 40       		.uleb128 0x40
 15335 041c 04       		.uleb128 0x4
 15336 041d 01       		.byte	0x1
 15337 041e 0B       		.uleb128 0xb
 15338 041f 0B       		.uleb128 0xb
 15339 0420 3A       		.uleb128 0x3a
 15340 0421 0B       		.uleb128 0xb
 15341 0422 3B       		.uleb128 0x3b
ARM GAS  /tmp/ccfWo18f.s 			page 271


 15342 0423 0B       		.uleb128 0xb
 15343 0424 01       		.uleb128 0x1
 15344 0425 13       		.uleb128 0x13
 15345 0426 00       		.byte	0
 15346 0427 00       		.byte	0
 15347 0428 41       		.uleb128 0x41
 15348 0429 28       		.uleb128 0x28
 15349 042a 00       		.byte	0
 15350 042b 03       		.uleb128 0x3
 15351 042c 0E       		.uleb128 0xe
 15352 042d 1C       		.uleb128 0x1c
 15353 042e 0D       		.uleb128 0xd
 15354 042f 00       		.byte	0
 15355 0430 00       		.byte	0
 15356 0431 42       		.uleb128 0x42
 15357 0432 0D       		.uleb128 0xd
 15358 0433 00       		.byte	0
 15359 0434 03       		.uleb128 0x3
 15360 0435 0E       		.uleb128 0xe
 15361 0436 3A       		.uleb128 0x3a
 15362 0437 0B       		.uleb128 0xb
 15363 0438 3B       		.uleb128 0x3b
 15364 0439 0B       		.uleb128 0xb
 15365 043a 49       		.uleb128 0x49
 15366 043b 13       		.uleb128 0x13
 15367 043c 38       		.uleb128 0x38
 15368 043d 05       		.uleb128 0x5
 15369 043e 00       		.byte	0
 15370 043f 00       		.byte	0
 15371 0440 43       		.uleb128 0x43
 15372 0441 2E       		.uleb128 0x2e
 15373 0442 01       		.byte	0x1
 15374 0443 3F       		.uleb128 0x3f
 15375 0444 19       		.uleb128 0x19
 15376 0445 03       		.uleb128 0x3
 15377 0446 0E       		.uleb128 0xe
 15378 0447 3A       		.uleb128 0x3a
 15379 0448 0B       		.uleb128 0xb
 15380 0449 3B       		.uleb128 0x3b
 15381 044a 0B       		.uleb128 0xb
 15382 044b 6E       		.uleb128 0x6e
 15383 044c 0E       		.uleb128 0xe
 15384 044d 4C       		.uleb128 0x4c
 15385 044e 0B       		.uleb128 0xb
 15386 044f 4D       		.uleb128 0x4d
 15387 0450 18       		.uleb128 0x18
 15388 0451 1D       		.uleb128 0x1d
 15389 0452 13       		.uleb128 0x13
 15390 0453 32       		.uleb128 0x32
 15391 0454 0B       		.uleb128 0xb
 15392 0455 3C       		.uleb128 0x3c
 15393 0456 19       		.uleb128 0x19
 15394 0457 64       		.uleb128 0x64
 15395 0458 13       		.uleb128 0x13
 15396 0459 01       		.uleb128 0x1
 15397 045a 13       		.uleb128 0x13
 15398 045b 00       		.byte	0
ARM GAS  /tmp/ccfWo18f.s 			page 272


 15399 045c 00       		.byte	0
 15400 045d 44       		.uleb128 0x44
 15401 045e 2E       		.uleb128 0x2e
 15402 045f 01       		.byte	0x1
 15403 0460 3F       		.uleb128 0x3f
 15404 0461 19       		.uleb128 0x19
 15405 0462 03       		.uleb128 0x3
 15406 0463 0E       		.uleb128 0xe
 15407 0464 3A       		.uleb128 0x3a
 15408 0465 0B       		.uleb128 0xb
 15409 0466 3B       		.uleb128 0x3b
 15410 0467 0B       		.uleb128 0xb
 15411 0468 6E       		.uleb128 0x6e
 15412 0469 0E       		.uleb128 0xe
 15413 046a 49       		.uleb128 0x49
 15414 046b 13       		.uleb128 0x13
 15415 046c 4C       		.uleb128 0x4c
 15416 046d 0B       		.uleb128 0xb
 15417 046e 4D       		.uleb128 0x4d
 15418 046f 18       		.uleb128 0x18
 15419 0470 1D       		.uleb128 0x1d
 15420 0471 13       		.uleb128 0x13
 15421 0472 3C       		.uleb128 0x3c
 15422 0473 19       		.uleb128 0x19
 15423 0474 64       		.uleb128 0x64
 15424 0475 13       		.uleb128 0x13
 15425 0476 01       		.uleb128 0x1
 15426 0477 13       		.uleb128 0x13
 15427 0478 00       		.byte	0
 15428 0479 00       		.byte	0
 15429 047a 45       		.uleb128 0x45
 15430 047b 2E       		.uleb128 0x2e
 15431 047c 01       		.byte	0x1
 15432 047d 3F       		.uleb128 0x3f
 15433 047e 19       		.uleb128 0x19
 15434 047f 03       		.uleb128 0x3
 15435 0480 0E       		.uleb128 0xe
 15436 0481 3A       		.uleb128 0x3a
 15437 0482 0B       		.uleb128 0xb
 15438 0483 3B       		.uleb128 0x3b
 15439 0484 0B       		.uleb128 0xb
 15440 0485 49       		.uleb128 0x49
 15441 0486 13       		.uleb128 0x13
 15442 0487 4C       		.uleb128 0x4c
 15443 0488 0B       		.uleb128 0xb
 15444 0489 1D       		.uleb128 0x1d
 15445 048a 13       		.uleb128 0x13
 15446 048b 32       		.uleb128 0x32
 15447 048c 0B       		.uleb128 0xb
 15448 048d 3C       		.uleb128 0x3c
 15449 048e 19       		.uleb128 0x19
 15450 048f 64       		.uleb128 0x64
 15451 0490 13       		.uleb128 0x13
 15452 0491 01       		.uleb128 0x1
 15453 0492 13       		.uleb128 0x13
 15454 0493 00       		.byte	0
 15455 0494 00       		.byte	0
ARM GAS  /tmp/ccfWo18f.s 			page 273


 15456 0495 46       		.uleb128 0x46
 15457 0496 2E       		.uleb128 0x2e
 15458 0497 01       		.byte	0x1
 15459 0498 3F       		.uleb128 0x3f
 15460 0499 19       		.uleb128 0x19
 15461 049a 03       		.uleb128 0x3
 15462 049b 0E       		.uleb128 0xe
 15463 049c 3A       		.uleb128 0x3a
 15464 049d 0B       		.uleb128 0xb
 15465 049e 3B       		.uleb128 0x3b
 15466 049f 0B       		.uleb128 0xb
 15467 04a0 6E       		.uleb128 0x6e
 15468 04a1 0E       		.uleb128 0xe
 15469 04a2 3C       		.uleb128 0x3c
 15470 04a3 19       		.uleb128 0x19
 15471 04a4 01       		.uleb128 0x1
 15472 04a5 13       		.uleb128 0x13
 15473 04a6 00       		.byte	0
 15474 04a7 00       		.byte	0
 15475 04a8 47       		.uleb128 0x47
 15476 04a9 2E       		.uleb128 0x2e
 15477 04aa 01       		.byte	0x1
 15478 04ab 3F       		.uleb128 0x3f
 15479 04ac 19       		.uleb128 0x19
 15480 04ad 03       		.uleb128 0x3
 15481 04ae 0E       		.uleb128 0xe
 15482 04af 3A       		.uleb128 0x3a
 15483 04b0 0B       		.uleb128 0xb
 15484 04b1 3B       		.uleb128 0x3b
 15485 04b2 0B       		.uleb128 0xb
 15486 04b3 6E       		.uleb128 0x6e
 15487 04b4 0E       		.uleb128 0xe
 15488 04b5 3C       		.uleb128 0x3c
 15489 04b6 19       		.uleb128 0x19
 15490 04b7 00       		.byte	0
 15491 04b8 00       		.byte	0
 15492 04b9 48       		.uleb128 0x48
 15493 04ba 02       		.uleb128 0x2
 15494 04bb 01       		.byte	0x1
 15495 04bc 03       		.uleb128 0x3
 15496 04bd 0E       		.uleb128 0xe
 15497 04be 0B       		.uleb128 0xb
 15498 04bf 05       		.uleb128 0x5
 15499 04c0 3A       		.uleb128 0x3a
 15500 04c1 0B       		.uleb128 0xb
 15501 04c2 3B       		.uleb128 0x3b
 15502 04c3 0B       		.uleb128 0xb
 15503 04c4 01       		.uleb128 0x1
 15504 04c5 13       		.uleb128 0x13
 15505 04c6 00       		.byte	0
 15506 04c7 00       		.byte	0
 15507 04c8 49       		.uleb128 0x49
 15508 04c9 2E       		.uleb128 0x2e
 15509 04ca 01       		.byte	0x1
 15510 04cb 3F       		.uleb128 0x3f
 15511 04cc 19       		.uleb128 0x19
 15512 04cd 03       		.uleb128 0x3
ARM GAS  /tmp/ccfWo18f.s 			page 274


 15513 04ce 08       		.uleb128 0x8
 15514 04cf 3A       		.uleb128 0x3a
 15515 04d0 0B       		.uleb128 0xb
 15516 04d1 3B       		.uleb128 0x3b
 15517 04d2 0B       		.uleb128 0xb
 15518 04d3 6E       		.uleb128 0x6e
 15519 04d4 0E       		.uleb128 0xe
 15520 04d5 32       		.uleb128 0x32
 15521 04d6 0B       		.uleb128 0xb
 15522 04d7 3C       		.uleb128 0x3c
 15523 04d8 19       		.uleb128 0x19
 15524 04d9 64       		.uleb128 0x64
 15525 04da 13       		.uleb128 0x13
 15526 04db 01       		.uleb128 0x1
 15527 04dc 13       		.uleb128 0x13
 15528 04dd 00       		.byte	0
 15529 04de 00       		.byte	0
 15530 04df 4A       		.uleb128 0x4a
 15531 04e0 2E       		.uleb128 0x2e
 15532 04e1 01       		.byte	0x1
 15533 04e2 3F       		.uleb128 0x3f
 15534 04e3 19       		.uleb128 0x19
 15535 04e4 03       		.uleb128 0x3
 15536 04e5 0E       		.uleb128 0xe
 15537 04e6 3A       		.uleb128 0x3a
 15538 04e7 0B       		.uleb128 0xb
 15539 04e8 3B       		.uleb128 0x3b
 15540 04e9 0B       		.uleb128 0xb
 15541 04ea 6E       		.uleb128 0x6e
 15542 04eb 0E       		.uleb128 0xe
 15543 04ec 49       		.uleb128 0x49
 15544 04ed 13       		.uleb128 0x13
 15545 04ee 3C       		.uleb128 0x3c
 15546 04ef 19       		.uleb128 0x19
 15547 04f0 01       		.uleb128 0x1
 15548 04f1 13       		.uleb128 0x13
 15549 04f2 00       		.byte	0
 15550 04f3 00       		.byte	0
 15551 04f4 4B       		.uleb128 0x4b
 15552 04f5 2E       		.uleb128 0x2e
 15553 04f6 01       		.byte	0x1
 15554 04f7 3F       		.uleb128 0x3f
 15555 04f8 19       		.uleb128 0x19
 15556 04f9 03       		.uleb128 0x3
 15557 04fa 0E       		.uleb128 0xe
 15558 04fb 3A       		.uleb128 0x3a
 15559 04fc 0B       		.uleb128 0xb
 15560 04fd 3B       		.uleb128 0x3b
 15561 04fe 0B       		.uleb128 0xb
 15562 04ff 3C       		.uleb128 0x3c
 15563 0500 19       		.uleb128 0x19
 15564 0501 01       		.uleb128 0x1
 15565 0502 13       		.uleb128 0x13
 15566 0503 00       		.byte	0
 15567 0504 00       		.byte	0
 15568 0505 4C       		.uleb128 0x4c
 15569 0506 02       		.uleb128 0x2
ARM GAS  /tmp/ccfWo18f.s 			page 275


 15570 0507 01       		.byte	0x1
 15571 0508 03       		.uleb128 0x3
 15572 0509 0E       		.uleb128 0xe
 15573 050a 3C       		.uleb128 0x3c
 15574 050b 19       		.uleb128 0x19
 15575 050c 00       		.byte	0
 15576 050d 00       		.byte	0
 15577 050e 4D       		.uleb128 0x4d
 15578 050f 10       		.uleb128 0x10
 15579 0510 00       		.byte	0
 15580 0511 0B       		.uleb128 0xb
 15581 0512 0B       		.uleb128 0xb
 15582 0513 49       		.uleb128 0x49
 15583 0514 13       		.uleb128 0x13
 15584 0515 00       		.byte	0
 15585 0516 00       		.byte	0
 15586 0517 4E       		.uleb128 0x4e
 15587 0518 13       		.uleb128 0x13
 15588 0519 01       		.byte	0x1
 15589 051a 03       		.uleb128 0x3
 15590 051b 0E       		.uleb128 0xe
 15591 051c 0B       		.uleb128 0xb
 15592 051d 0B       		.uleb128 0xb
 15593 051e 3A       		.uleb128 0x3a
 15594 051f 0B       		.uleb128 0xb
 15595 0520 3B       		.uleb128 0x3b
 15596 0521 0B       		.uleb128 0xb
 15597 0522 01       		.uleb128 0x1
 15598 0523 13       		.uleb128 0x13
 15599 0524 00       		.byte	0
 15600 0525 00       		.byte	0
 15601 0526 4F       		.uleb128 0x4f
 15602 0527 17       		.uleb128 0x17
 15603 0528 01       		.byte	0x1
 15604 0529 0B       		.uleb128 0xb
 15605 052a 0B       		.uleb128 0xb
 15606 052b 3A       		.uleb128 0x3a
 15607 052c 0B       		.uleb128 0xb
 15608 052d 3B       		.uleb128 0x3b
 15609 052e 0B       		.uleb128 0xb
 15610 052f 01       		.uleb128 0x1
 15611 0530 13       		.uleb128 0x13
 15612 0531 00       		.byte	0
 15613 0532 00       		.byte	0
 15614 0533 50       		.uleb128 0x50
 15615 0534 0D       		.uleb128 0xd
 15616 0535 00       		.byte	0
 15617 0536 03       		.uleb128 0x3
 15618 0537 08       		.uleb128 0x8
 15619 0538 3A       		.uleb128 0x3a
 15620 0539 0B       		.uleb128 0xb
 15621 053a 3B       		.uleb128 0x3b
 15622 053b 0B       		.uleb128 0xb
 15623 053c 49       		.uleb128 0x49
 15624 053d 13       		.uleb128 0x13
 15625 053e 38       		.uleb128 0x38
 15626 053f 0B       		.uleb128 0xb
ARM GAS  /tmp/ccfWo18f.s 			page 276


 15627 0540 00       		.byte	0
 15628 0541 00       		.byte	0
 15629 0542 51       		.uleb128 0x51
 15630 0543 13       		.uleb128 0x13
 15631 0544 01       		.byte	0x1
 15632 0545 0B       		.uleb128 0xb
 15633 0546 0B       		.uleb128 0xb
 15634 0547 3A       		.uleb128 0x3a
 15635 0548 0B       		.uleb128 0xb
 15636 0549 3B       		.uleb128 0x3b
 15637 054a 0B       		.uleb128 0xb
 15638 054b 6E       		.uleb128 0x6e
 15639 054c 0E       		.uleb128 0xe
 15640 054d 01       		.uleb128 0x1
 15641 054e 13       		.uleb128 0x13
 15642 054f 00       		.byte	0
 15643 0550 00       		.byte	0
 15644 0551 52       		.uleb128 0x52
 15645 0552 13       		.uleb128 0x13
 15646 0553 01       		.byte	0x1
 15647 0554 03       		.uleb128 0x3
 15648 0555 0E       		.uleb128 0xe
 15649 0556 0B       		.uleb128 0xb
 15650 0557 0B       		.uleb128 0xb
 15651 0558 3A       		.uleb128 0x3a
 15652 0559 0B       		.uleb128 0xb
 15653 055a 3B       		.uleb128 0x3b
 15654 055b 05       		.uleb128 0x5
 15655 055c 01       		.uleb128 0x1
 15656 055d 13       		.uleb128 0x13
 15657 055e 00       		.byte	0
 15658 055f 00       		.byte	0
 15659 0560 53       		.uleb128 0x53
 15660 0561 0D       		.uleb128 0xd
 15661 0562 00       		.byte	0
 15662 0563 03       		.uleb128 0x3
 15663 0564 08       		.uleb128 0x8
 15664 0565 3A       		.uleb128 0x3a
 15665 0566 0B       		.uleb128 0xb
 15666 0567 3B       		.uleb128 0x3b
 15667 0568 05       		.uleb128 0x5
 15668 0569 49       		.uleb128 0x49
 15669 056a 13       		.uleb128 0x13
 15670 056b 38       		.uleb128 0x38
 15671 056c 0B       		.uleb128 0xb
 15672 056d 00       		.byte	0
 15673 056e 00       		.byte	0
 15674 056f 54       		.uleb128 0x54
 15675 0570 35       		.uleb128 0x35
 15676 0571 00       		.byte	0
 15677 0572 49       		.uleb128 0x49
 15678 0573 13       		.uleb128 0x13
 15679 0574 00       		.byte	0
 15680 0575 00       		.byte	0
 15681 0576 55       		.uleb128 0x55
 15682 0577 15       		.uleb128 0x15
 15683 0578 01       		.byte	0x1
ARM GAS  /tmp/ccfWo18f.s 			page 277


 15684 0579 49       		.uleb128 0x49
 15685 057a 13       		.uleb128 0x13
 15686 057b 01       		.uleb128 0x1
 15687 057c 13       		.uleb128 0x13
 15688 057d 00       		.byte	0
 15689 057e 00       		.byte	0
 15690 057f 56       		.uleb128 0x56
 15691 0580 26       		.uleb128 0x26
 15692 0581 00       		.byte	0
 15693 0582 00       		.byte	0
 15694 0583 00       		.byte	0
 15695 0584 57       		.uleb128 0x57
 15696 0585 13       		.uleb128 0x13
 15697 0586 01       		.byte	0x1
 15698 0587 0B       		.uleb128 0xb
 15699 0588 0B       		.uleb128 0xb
 15700 0589 3A       		.uleb128 0x3a
 15701 058a 0B       		.uleb128 0xb
 15702 058b 3B       		.uleb128 0x3b
 15703 058c 05       		.uleb128 0x5
 15704 058d 6E       		.uleb128 0x6e
 15705 058e 0E       		.uleb128 0xe
 15706 058f 01       		.uleb128 0x1
 15707 0590 13       		.uleb128 0x13
 15708 0591 00       		.byte	0
 15709 0592 00       		.byte	0
 15710 0593 58       		.uleb128 0x58
 15711 0594 13       		.uleb128 0x13
 15712 0595 01       		.byte	0x1
 15713 0596 0B       		.uleb128 0xb
 15714 0597 05       		.uleb128 0x5
 15715 0598 3A       		.uleb128 0x3a
 15716 0599 0B       		.uleb128 0xb
 15717 059a 3B       		.uleb128 0x3b
 15718 059b 05       		.uleb128 0x5
 15719 059c 6E       		.uleb128 0x6e
 15720 059d 0E       		.uleb128 0xe
 15721 059e 01       		.uleb128 0x1
 15722 059f 13       		.uleb128 0x13
 15723 05a0 00       		.byte	0
 15724 05a1 00       		.byte	0
 15725 05a2 59       		.uleb128 0x59
 15726 05a3 0D       		.uleb128 0xd
 15727 05a4 00       		.byte	0
 15728 05a5 03       		.uleb128 0x3
 15729 05a6 0E       		.uleb128 0xe
 15730 05a7 3A       		.uleb128 0x3a
 15731 05a8 0B       		.uleb128 0xb
 15732 05a9 3B       		.uleb128 0x3b
 15733 05aa 05       		.uleb128 0x5
 15734 05ab 49       		.uleb128 0x49
 15735 05ac 13       		.uleb128 0x13
 15736 05ad 38       		.uleb128 0x38
 15737 05ae 05       		.uleb128 0x5
 15738 05af 00       		.byte	0
 15739 05b0 00       		.byte	0
 15740 05b1 5A       		.uleb128 0x5a
ARM GAS  /tmp/ccfWo18f.s 			page 278


 15741 05b2 0D       		.uleb128 0xd
 15742 05b3 00       		.byte	0
 15743 05b4 03       		.uleb128 0x3
 15744 05b5 08       		.uleb128 0x8
 15745 05b6 3A       		.uleb128 0x3a
 15746 05b7 0B       		.uleb128 0xb
 15747 05b8 3B       		.uleb128 0x3b
 15748 05b9 05       		.uleb128 0x5
 15749 05ba 49       		.uleb128 0x49
 15750 05bb 13       		.uleb128 0x13
 15751 05bc 38       		.uleb128 0x38
 15752 05bd 05       		.uleb128 0x5
 15753 05be 00       		.byte	0
 15754 05bf 00       		.byte	0
 15755 05c0 5B       		.uleb128 0x5b
 15756 05c1 0D       		.uleb128 0xd
 15757 05c2 00       		.byte	0
 15758 05c3 49       		.uleb128 0x49
 15759 05c4 13       		.uleb128 0x13
 15760 05c5 00       		.byte	0
 15761 05c6 00       		.byte	0
 15762 05c7 5C       		.uleb128 0x5c
 15763 05c8 0D       		.uleb128 0xd
 15764 05c9 00       		.byte	0
 15765 05ca 49       		.uleb128 0x49
 15766 05cb 13       		.uleb128 0x13
 15767 05cc 38       		.uleb128 0x38
 15768 05cd 0B       		.uleb128 0xb
 15769 05ce 00       		.byte	0
 15770 05cf 00       		.byte	0
 15771 05d0 5D       		.uleb128 0x5d
 15772 05d1 15       		.uleb128 0x15
 15773 05d2 01       		.byte	0x1
 15774 05d3 01       		.uleb128 0x1
 15775 05d4 13       		.uleb128 0x13
 15776 05d5 00       		.byte	0
 15777 05d6 00       		.byte	0
 15778 05d7 5E       		.uleb128 0x5e
 15779 05d8 04       		.uleb128 0x4
 15780 05d9 01       		.byte	0x1
 15781 05da 0B       		.uleb128 0xb
 15782 05db 0B       		.uleb128 0xb
 15783 05dc 3A       		.uleb128 0x3a
 15784 05dd 0B       		.uleb128 0xb
 15785 05de 3B       		.uleb128 0x3b
 15786 05df 0B       		.uleb128 0xb
 15787 05e0 6E       		.uleb128 0x6e
 15788 05e1 0E       		.uleb128 0xe
 15789 05e2 01       		.uleb128 0x1
 15790 05e3 13       		.uleb128 0x13
 15791 05e4 00       		.byte	0
 15792 05e5 00       		.byte	0
 15793 05e6 5F       		.uleb128 0x5f
 15794 05e7 2E       		.uleb128 0x2e
 15795 05e8 01       		.byte	0x1
 15796 05e9 47       		.uleb128 0x47
 15797 05ea 13       		.uleb128 0x13
ARM GAS  /tmp/ccfWo18f.s 			page 279


 15798 05eb 20       		.uleb128 0x20
 15799 05ec 0B       		.uleb128 0xb
 15800 05ed 01       		.uleb128 0x1
 15801 05ee 13       		.uleb128 0x13
 15802 05ef 00       		.byte	0
 15803 05f0 00       		.byte	0
 15804 05f1 60       		.uleb128 0x60
 15805 05f2 0B       		.uleb128 0xb
 15806 05f3 01       		.byte	0x1
 15807 05f4 00       		.byte	0
 15808 05f5 00       		.byte	0
 15809 05f6 61       		.uleb128 0x61
 15810 05f7 34       		.uleb128 0x34
 15811 05f8 00       		.byte	0
 15812 05f9 03       		.uleb128 0x3
 15813 05fa 08       		.uleb128 0x8
 15814 05fb 3A       		.uleb128 0x3a
 15815 05fc 0B       		.uleb128 0xb
 15816 05fd 3B       		.uleb128 0x3b
 15817 05fe 0B       		.uleb128 0xb
 15818 05ff 49       		.uleb128 0x49
 15819 0600 13       		.uleb128 0x13
 15820 0601 00       		.byte	0
 15821 0602 00       		.byte	0
 15822 0603 62       		.uleb128 0x62
 15823 0604 2E       		.uleb128 0x2e
 15824 0605 01       		.byte	0x1
 15825 0606 47       		.uleb128 0x47
 15826 0607 13       		.uleb128 0x13
 15827 0608 20       		.uleb128 0x20
 15828 0609 0B       		.uleb128 0xb
 15829 060a 64       		.uleb128 0x64
 15830 060b 13       		.uleb128 0x13
 15831 060c 01       		.uleb128 0x1
 15832 060d 13       		.uleb128 0x13
 15833 060e 00       		.byte	0
 15834 060f 00       		.byte	0
 15835 0610 63       		.uleb128 0x63
 15836 0611 05       		.uleb128 0x5
 15837 0612 00       		.byte	0
 15838 0613 03       		.uleb128 0x3
 15839 0614 0E       		.uleb128 0xe
 15840 0615 49       		.uleb128 0x49
 15841 0616 13       		.uleb128 0x13
 15842 0617 34       		.uleb128 0x34
 15843 0618 19       		.uleb128 0x19
 15844 0619 00       		.byte	0
 15845 061a 00       		.byte	0
 15846 061b 64       		.uleb128 0x64
 15847 061c 2E       		.uleb128 0x2e
 15848 061d 01       		.byte	0x1
 15849 061e 31       		.uleb128 0x31
 15850 061f 13       		.uleb128 0x13
 15851 0620 6E       		.uleb128 0x6e
 15852 0621 0E       		.uleb128 0xe
 15853 0622 11       		.uleb128 0x11
 15854 0623 01       		.uleb128 0x1
ARM GAS  /tmp/ccfWo18f.s 			page 280


 15855 0624 12       		.uleb128 0x12
 15856 0625 06       		.uleb128 0x6
 15857 0626 40       		.uleb128 0x40
 15858 0627 18       		.uleb128 0x18
 15859 0628 64       		.uleb128 0x64
 15860 0629 13       		.uleb128 0x13
 15861 062a 9742     		.uleb128 0x2117
 15862 062c 19       		.uleb128 0x19
 15863 062d 01       		.uleb128 0x1
 15864 062e 13       		.uleb128 0x13
 15865 062f 00       		.byte	0
 15866 0630 00       		.byte	0
 15867 0631 65       		.uleb128 0x65
 15868 0632 05       		.uleb128 0x5
 15869 0633 00       		.byte	0
 15870 0634 31       		.uleb128 0x31
 15871 0635 13       		.uleb128 0x13
 15872 0636 02       		.uleb128 0x2
 15873 0637 18       		.uleb128 0x18
 15874 0638 00       		.byte	0
 15875 0639 00       		.byte	0
 15876 063a 66       		.uleb128 0x66
 15877 063b 2E       		.uleb128 0x2e
 15878 063c 01       		.byte	0x1
 15879 063d 47       		.uleb128 0x47
 15880 063e 13       		.uleb128 0x13
 15881 063f 3B       		.uleb128 0x3b
 15882 0640 0B       		.uleb128 0xb
 15883 0641 11       		.uleb128 0x11
 15884 0642 01       		.uleb128 0x1
 15885 0643 12       		.uleb128 0x12
 15886 0644 06       		.uleb128 0x6
 15887 0645 40       		.uleb128 0x40
 15888 0646 18       		.uleb128 0x18
 15889 0647 9642     		.uleb128 0x2116
 15890 0649 19       		.uleb128 0x19
 15891 064a 01       		.uleb128 0x1
 15892 064b 13       		.uleb128 0x13
 15893 064c 00       		.byte	0
 15894 064d 00       		.byte	0
 15895 064e 67       		.uleb128 0x67
 15896 064f 0B       		.uleb128 0xb
 15897 0650 01       		.byte	0x1
 15898 0651 11       		.uleb128 0x11
 15899 0652 01       		.uleb128 0x1
 15900 0653 12       		.uleb128 0x12
 15901 0654 06       		.uleb128 0x6
 15902 0655 00       		.byte	0
 15903 0656 00       		.byte	0
 15904 0657 68       		.uleb128 0x68
 15905 0658 34       		.uleb128 0x34
 15906 0659 00       		.byte	0
 15907 065a 03       		.uleb128 0x3
 15908 065b 08       		.uleb128 0x8
 15909 065c 3A       		.uleb128 0x3a
 15910 065d 0B       		.uleb128 0xb
 15911 065e 3B       		.uleb128 0x3b
ARM GAS  /tmp/ccfWo18f.s 			page 281


 15912 065f 0B       		.uleb128 0xb
 15913 0660 49       		.uleb128 0x49
 15914 0661 13       		.uleb128 0x13
 15915 0662 02       		.uleb128 0x2
 15916 0663 18       		.uleb128 0x18
 15917 0664 00       		.byte	0
 15918 0665 00       		.byte	0
 15919 0666 69       		.uleb128 0x69
 15920 0667 2E       		.uleb128 0x2e
 15921 0668 00       		.byte	0
 15922 0669 47       		.uleb128 0x47
 15923 066a 13       		.uleb128 0x13
 15924 066b 3B       		.uleb128 0x3b
 15925 066c 0B       		.uleb128 0xb
 15926 066d 11       		.uleb128 0x11
 15927 066e 01       		.uleb128 0x1
 15928 066f 12       		.uleb128 0x12
 15929 0670 06       		.uleb128 0x6
 15930 0671 40       		.uleb128 0x40
 15931 0672 18       		.uleb128 0x18
 15932 0673 9642     		.uleb128 0x2116
 15933 0675 19       		.uleb128 0x19
 15934 0676 00       		.byte	0
 15935 0677 00       		.byte	0
 15936 0678 6A       		.uleb128 0x6a
 15937 0679 2E       		.uleb128 0x2e
 15938 067a 01       		.byte	0x1
 15939 067b 47       		.uleb128 0x47
 15940 067c 13       		.uleb128 0x13
 15941 067d 3B       		.uleb128 0x3b
 15942 067e 0B       		.uleb128 0xb
 15943 067f 20       		.uleb128 0x20
 15944 0680 0B       		.uleb128 0xb
 15945 0681 64       		.uleb128 0x64
 15946 0682 13       		.uleb128 0x13
 15947 0683 01       		.uleb128 0x1
 15948 0684 13       		.uleb128 0x13
 15949 0685 00       		.byte	0
 15950 0686 00       		.byte	0
 15951 0687 6B       		.uleb128 0x6b
 15952 0688 2E       		.uleb128 0x2e
 15953 0689 01       		.byte	0x1
 15954 068a 31       		.uleb128 0x31
 15955 068b 13       		.uleb128 0x13
 15956 068c 6E       		.uleb128 0x6e
 15957 068d 0E       		.uleb128 0xe
 15958 068e 11       		.uleb128 0x11
 15959 068f 01       		.uleb128 0x1
 15960 0690 12       		.uleb128 0x12
 15961 0691 06       		.uleb128 0x6
 15962 0692 40       		.uleb128 0x40
 15963 0693 18       		.uleb128 0x18
 15964 0694 64       		.uleb128 0x64
 15965 0695 13       		.uleb128 0x13
 15966 0696 9642     		.uleb128 0x2116
 15967 0698 19       		.uleb128 0x19
 15968 0699 01       		.uleb128 0x1
ARM GAS  /tmp/ccfWo18f.s 			page 282


 15969 069a 13       		.uleb128 0x13
 15970 069b 00       		.byte	0
 15971 069c 00       		.byte	0
 15972 069d 6C       		.uleb128 0x6c
 15973 069e 2E       		.uleb128 0x2e
 15974 069f 01       		.byte	0x1
 15975 06a0 47       		.uleb128 0x47
 15976 06a1 13       		.uleb128 0x13
 15977 06a2 3B       		.uleb128 0x3b
 15978 06a3 0B       		.uleb128 0xb
 15979 06a4 11       		.uleb128 0x11
 15980 06a5 01       		.uleb128 0x1
 15981 06a6 12       		.uleb128 0x12
 15982 06a7 06       		.uleb128 0x6
 15983 06a8 40       		.uleb128 0x40
 15984 06a9 18       		.uleb128 0x18
 15985 06aa 64       		.uleb128 0x64
 15986 06ab 13       		.uleb128 0x13
 15987 06ac 9742     		.uleb128 0x2117
 15988 06ae 19       		.uleb128 0x19
 15989 06af 01       		.uleb128 0x1
 15990 06b0 13       		.uleb128 0x13
 15991 06b1 00       		.byte	0
 15992 06b2 00       		.byte	0
 15993 06b3 6D       		.uleb128 0x6d
 15994 06b4 05       		.uleb128 0x5
 15995 06b5 00       		.byte	0
 15996 06b6 03       		.uleb128 0x3
 15997 06b7 0E       		.uleb128 0xe
 15998 06b8 49       		.uleb128 0x49
 15999 06b9 13       		.uleb128 0x13
 16000 06ba 34       		.uleb128 0x34
 16001 06bb 19       		.uleb128 0x19
 16002 06bc 02       		.uleb128 0x2
 16003 06bd 18       		.uleb128 0x18
 16004 06be 00       		.byte	0
 16005 06bf 00       		.byte	0
 16006 06c0 6E       		.uleb128 0x6e
 16007 06c1 2E       		.uleb128 0x2e
 16008 06c2 01       		.byte	0x1
 16009 06c3 47       		.uleb128 0x47
 16010 06c4 13       		.uleb128 0x13
 16011 06c5 3B       		.uleb128 0x3b
 16012 06c6 0B       		.uleb128 0xb
 16013 06c7 11       		.uleb128 0x11
 16014 06c8 01       		.uleb128 0x1
 16015 06c9 12       		.uleb128 0x12
 16016 06ca 06       		.uleb128 0x6
 16017 06cb 40       		.uleb128 0x40
 16018 06cc 18       		.uleb128 0x18
 16019 06cd 9742     		.uleb128 0x2117
 16020 06cf 19       		.uleb128 0x19
 16021 06d0 01       		.uleb128 0x1
 16022 06d1 13       		.uleb128 0x13
 16023 06d2 00       		.byte	0
 16024 06d3 00       		.byte	0
 16025 06d4 6F       		.uleb128 0x6f
ARM GAS  /tmp/ccfWo18f.s 			page 283


 16026 06d5 05       		.uleb128 0x5
 16027 06d6 00       		.byte	0
 16028 06d7 03       		.uleb128 0x3
 16029 06d8 0E       		.uleb128 0xe
 16030 06d9 3A       		.uleb128 0x3a
 16031 06da 0B       		.uleb128 0xb
 16032 06db 3B       		.uleb128 0x3b
 16033 06dc 0B       		.uleb128 0xb
 16034 06dd 49       		.uleb128 0x49
 16035 06de 13       		.uleb128 0x13
 16036 06df 02       		.uleb128 0x2
 16037 06e0 18       		.uleb128 0x18
 16038 06e1 00       		.byte	0
 16039 06e2 00       		.byte	0
 16040 06e3 70       		.uleb128 0x70
 16041 06e4 2E       		.uleb128 0x2e
 16042 06e5 01       		.byte	0x1
 16043 06e6 47       		.uleb128 0x47
 16044 06e7 13       		.uleb128 0x13
 16045 06e8 3B       		.uleb128 0x3b
 16046 06e9 0B       		.uleb128 0xb
 16047 06ea 11       		.uleb128 0x11
 16048 06eb 01       		.uleb128 0x1
 16049 06ec 12       		.uleb128 0x12
 16050 06ed 06       		.uleb128 0x6
 16051 06ee 40       		.uleb128 0x40
 16052 06ef 18       		.uleb128 0x18
 16053 06f0 64       		.uleb128 0x64
 16054 06f1 13       		.uleb128 0x13
 16055 06f2 9642     		.uleb128 0x2116
 16056 06f4 19       		.uleb128 0x19
 16057 06f5 01       		.uleb128 0x1
 16058 06f6 13       		.uleb128 0x13
 16059 06f7 00       		.byte	0
 16060 06f8 00       		.byte	0
 16061 06f9 71       		.uleb128 0x71
 16062 06fa 05       		.uleb128 0x5
 16063 06fb 00       		.byte	0
 16064 06fc 03       		.uleb128 0x3
 16065 06fd 0E       		.uleb128 0xe
 16066 06fe 3A       		.uleb128 0x3a
 16067 06ff 0B       		.uleb128 0xb
 16068 0700 3B       		.uleb128 0x3b
 16069 0701 0B       		.uleb128 0xb
 16070 0702 49       		.uleb128 0x49
 16071 0703 13       		.uleb128 0x13
 16072 0704 00       		.byte	0
 16073 0705 00       		.byte	0
 16074 0706 72       		.uleb128 0x72
 16075 0707 2E       		.uleb128 0x2e
 16076 0708 01       		.byte	0x1
 16077 0709 47       		.uleb128 0x47
 16078 070a 13       		.uleb128 0x13
 16079 070b 11       		.uleb128 0x11
 16080 070c 01       		.uleb128 0x1
 16081 070d 12       		.uleb128 0x12
 16082 070e 06       		.uleb128 0x6
ARM GAS  /tmp/ccfWo18f.s 			page 284


 16083 070f 40       		.uleb128 0x40
 16084 0710 18       		.uleb128 0x18
 16085 0711 64       		.uleb128 0x64
 16086 0712 13       		.uleb128 0x13
 16087 0713 9742     		.uleb128 0x2117
 16088 0715 19       		.uleb128 0x19
 16089 0716 01       		.uleb128 0x1
 16090 0717 13       		.uleb128 0x13
 16091 0718 00       		.byte	0
 16092 0719 00       		.byte	0
 16093 071a 73       		.uleb128 0x73
 16094 071b 34       		.uleb128 0x34
 16095 071c 00       		.byte	0
 16096 071d 03       		.uleb128 0x3
 16097 071e 0E       		.uleb128 0xe
 16098 071f 3A       		.uleb128 0x3a
 16099 0720 0B       		.uleb128 0xb
 16100 0721 3B       		.uleb128 0x3b
 16101 0722 0B       		.uleb128 0xb
 16102 0723 49       		.uleb128 0x49
 16103 0724 13       		.uleb128 0x13
 16104 0725 02       		.uleb128 0x2
 16105 0726 18       		.uleb128 0x18
 16106 0727 00       		.byte	0
 16107 0728 00       		.byte	0
 16108 0729 74       		.uleb128 0x74
 16109 072a 2E       		.uleb128 0x2e
 16110 072b 01       		.byte	0x1
 16111 072c 47       		.uleb128 0x47
 16112 072d 13       		.uleb128 0x13
 16113 072e 3B       		.uleb128 0x3b
 16114 072f 05       		.uleb128 0x5
 16115 0730 11       		.uleb128 0x11
 16116 0731 01       		.uleb128 0x1
 16117 0732 12       		.uleb128 0x12
 16118 0733 06       		.uleb128 0x6
 16119 0734 40       		.uleb128 0x40
 16120 0735 18       		.uleb128 0x18
 16121 0736 9642     		.uleb128 0x2116
 16122 0738 19       		.uleb128 0x19
 16123 0739 01       		.uleb128 0x1
 16124 073a 13       		.uleb128 0x13
 16125 073b 00       		.byte	0
 16126 073c 00       		.byte	0
 16127 073d 75       		.uleb128 0x75
 16128 073e 05       		.uleb128 0x5
 16129 073f 00       		.byte	0
 16130 0740 03       		.uleb128 0x3
 16131 0741 0E       		.uleb128 0xe
 16132 0742 3A       		.uleb128 0x3a
 16133 0743 0B       		.uleb128 0xb
 16134 0744 3B       		.uleb128 0x3b
 16135 0745 05       		.uleb128 0x5
 16136 0746 49       		.uleb128 0x49
 16137 0747 13       		.uleb128 0x13
 16138 0748 02       		.uleb128 0x2
 16139 0749 18       		.uleb128 0x18
ARM GAS  /tmp/ccfWo18f.s 			page 285


 16140 074a 00       		.byte	0
 16141 074b 00       		.byte	0
 16142 074c 76       		.uleb128 0x76
 16143 074d 2E       		.uleb128 0x2e
 16144 074e 01       		.byte	0x1
 16145 074f 47       		.uleb128 0x47
 16146 0750 13       		.uleb128 0x13
 16147 0751 11       		.uleb128 0x11
 16148 0752 01       		.uleb128 0x1
 16149 0753 12       		.uleb128 0x12
 16150 0754 06       		.uleb128 0x6
 16151 0755 40       		.uleb128 0x40
 16152 0756 18       		.uleb128 0x18
 16153 0757 64       		.uleb128 0x64
 16154 0758 13       		.uleb128 0x13
 16155 0759 9642     		.uleb128 0x2116
 16156 075b 19       		.uleb128 0x19
 16157 075c 01       		.uleb128 0x1
 16158 075d 13       		.uleb128 0x13
 16159 075e 00       		.byte	0
 16160 075f 00       		.byte	0
 16161 0760 77       		.uleb128 0x77
 16162 0761 2E       		.uleb128 0x2e
 16163 0762 01       		.byte	0x1
 16164 0763 47       		.uleb128 0x47
 16165 0764 13       		.uleb128 0x13
 16166 0765 11       		.uleb128 0x11
 16167 0766 01       		.uleb128 0x1
 16168 0767 12       		.uleb128 0x12
 16169 0768 06       		.uleb128 0x6
 16170 0769 40       		.uleb128 0x40
 16171 076a 18       		.uleb128 0x18
 16172 076b 9642     		.uleb128 0x2116
 16173 076d 19       		.uleb128 0x19
 16174 076e 01       		.uleb128 0x1
 16175 076f 13       		.uleb128 0x13
 16176 0770 00       		.byte	0
 16177 0771 00       		.byte	0
 16178 0772 78       		.uleb128 0x78
 16179 0773 2E       		.uleb128 0x2e
 16180 0774 01       		.byte	0x1
 16181 0775 47       		.uleb128 0x47
 16182 0776 13       		.uleb128 0x13
 16183 0777 3A       		.uleb128 0x3a
 16184 0778 0B       		.uleb128 0xb
 16185 0779 3B       		.uleb128 0x3b
 16186 077a 0B       		.uleb128 0xb
 16187 077b 20       		.uleb128 0x20
 16188 077c 0B       		.uleb128 0xb
 16189 077d 64       		.uleb128 0x64
 16190 077e 13       		.uleb128 0x13
 16191 077f 01       		.uleb128 0x1
 16192 0780 13       		.uleb128 0x13
 16193 0781 00       		.byte	0
 16194 0782 00       		.byte	0
 16195 0783 79       		.uleb128 0x79
 16196 0784 34       		.uleb128 0x34
ARM GAS  /tmp/ccfWo18f.s 			page 286


 16197 0785 00       		.byte	0
 16198 0786 03       		.uleb128 0x3
 16199 0787 08       		.uleb128 0x8
 16200 0788 3A       		.uleb128 0x3a
 16201 0789 0B       		.uleb128 0xb
 16202 078a 3B       		.uleb128 0x3b
 16203 078b 05       		.uleb128 0x5
 16204 078c 49       		.uleb128 0x49
 16205 078d 13       		.uleb128 0x13
 16206 078e 02       		.uleb128 0x2
 16207 078f 18       		.uleb128 0x18
 16208 0790 00       		.byte	0
 16209 0791 00       		.byte	0
 16210 0792 7A       		.uleb128 0x7a
 16211 0793 34       		.uleb128 0x34
 16212 0794 00       		.byte	0
 16213 0795 03       		.uleb128 0x3
 16214 0796 0E       		.uleb128 0xe
 16215 0797 3A       		.uleb128 0x3a
 16216 0798 0B       		.uleb128 0xb
 16217 0799 3B       		.uleb128 0x3b
 16218 079a 05       		.uleb128 0x5
 16219 079b 49       		.uleb128 0x49
 16220 079c 13       		.uleb128 0x13
 16221 079d 02       		.uleb128 0x2
 16222 079e 18       		.uleb128 0x18
 16223 079f 00       		.byte	0
 16224 07a0 00       		.byte	0
 16225 07a1 7B       		.uleb128 0x7b
 16226 07a2 34       		.uleb128 0x34
 16227 07a3 00       		.byte	0
 16228 07a4 03       		.uleb128 0x3
 16229 07a5 0E       		.uleb128 0xe
 16230 07a6 3A       		.uleb128 0x3a
 16231 07a7 0B       		.uleb128 0xb
 16232 07a8 3B       		.uleb128 0x3b
 16233 07a9 0B       		.uleb128 0xb
 16234 07aa 49       		.uleb128 0x49
 16235 07ab 13       		.uleb128 0x13
 16236 07ac 3F       		.uleb128 0x3f
 16237 07ad 19       		.uleb128 0x19
 16238 07ae 3C       		.uleb128 0x3c
 16239 07af 19       		.uleb128 0x19
 16240 07b0 00       		.byte	0
 16241 07b1 00       		.byte	0
 16242 07b2 7C       		.uleb128 0x7c
 16243 07b3 34       		.uleb128 0x34
 16244 07b4 00       		.byte	0
 16245 07b5 03       		.uleb128 0x3
 16246 07b6 0E       		.uleb128 0xe
 16247 07b7 3A       		.uleb128 0x3a
 16248 07b8 0B       		.uleb128 0xb
 16249 07b9 3B       		.uleb128 0x3b
 16250 07ba 05       		.uleb128 0x5
 16251 07bb 49       		.uleb128 0x49
 16252 07bc 13       		.uleb128 0x13
 16253 07bd 3F       		.uleb128 0x3f
ARM GAS  /tmp/ccfWo18f.s 			page 287


 16254 07be 19       		.uleb128 0x19
 16255 07bf 3C       		.uleb128 0x3c
 16256 07c0 19       		.uleb128 0x19
 16257 07c1 00       		.byte	0
 16258 07c2 00       		.byte	0
 16259 07c3 00       		.byte	0
 16260              		.section	.debug_aranges,"",%progbits
 16261 0000 A4010000 		.4byte	0x1a4
 16262 0004 0200     		.2byte	0x2
 16263 0006 00000000 		.4byte	.Ldebug_info0
 16264 000a 04       		.byte	0x4
 16265 000b 00       		.byte	0
 16266 000c 0000     		.2byte	0
 16267 000e 0000     		.2byte	0
 16268 0010 00000000 		.4byte	.LFB6
 16269 0014 0C000000 		.4byte	.LFE6-.LFB6
 16270 0018 00000000 		.4byte	.LFB9
 16271 001c 0C000000 		.4byte	.LFE9-.LFB9
 16272 0020 00000000 		.4byte	.LFB18
 16273 0024 0E000000 		.4byte	.LFE18-.LFB18
 16274 0028 00000000 		.4byte	.LFB19
 16275 002c 0E000000 		.4byte	.LFE19-.LFB19
 16276 0030 00000000 		.4byte	.LFB26
 16277 0034 08000000 		.4byte	.LFE26-.LFB26
 16278 0038 00000000 		.4byte	.LFB27
 16279 003c 08000000 		.4byte	.LFE27-.LFB27
 16280 0040 00000000 		.4byte	.LFB144
 16281 0044 12000000 		.4byte	.LFE144-.LFB144
 16282 0048 00000000 		.4byte	.LFB180
 16283 004c 20000000 		.4byte	.LFE180-.LFB180
 16284 0050 00000000 		.4byte	.LFB208
 16285 0054 0E000000 		.4byte	.LFE208-.LFB208
 16286 0058 00000000 		.4byte	.LFB209
 16287 005c 12000000 		.4byte	.LFE209-.LFB209
 16288 0060 00000000 		.4byte	.LFB212
 16289 0064 12000000 		.4byte	.LFE212-.LFB212
 16290 0068 00000000 		.4byte	.LFB214
 16291 006c 16000000 		.4byte	.LFE214-.LFB214
 16292 0070 00000000 		.4byte	.LFB216
 16293 0074 0E000000 		.4byte	.LFE216-.LFB216
 16294 0078 00000000 		.4byte	.LFB297
 16295 007c 0E000000 		.4byte	.LFE297-.LFB297
 16296 0080 00000000 		.4byte	.LFB299
 16297 0084 18000000 		.4byte	.LFE299-.LFB299
 16298 0088 00000000 		.4byte	.LFB300
 16299 008c 1E000000 		.4byte	.LFE300-.LFB300
 16300 0090 00000000 		.4byte	.LFB303
 16301 0094 1C000000 		.4byte	.LFE303-.LFB303
 16302 0098 00000000 		.4byte	.LFB309
 16303 009c 32000000 		.4byte	.LFE309-.LFB309
 16304 00a0 00000000 		.4byte	.LFB462
 16305 00a4 0E000000 		.4byte	.LFE462-.LFB462
 16306 00a8 00000000 		.4byte	.LFB505
 16307 00ac 0E000000 		.4byte	.LFE505-.LFB505
 16308 00b0 00000000 		.4byte	.LFB506
 16309 00b4 0E000000 		.4byte	.LFE506-.LFB506
 16310 00b8 00000000 		.4byte	.LFB509
ARM GAS  /tmp/ccfWo18f.s 			page 288


 16311 00bc 22000000 		.4byte	.LFE509-.LFB509
 16312 00c0 00000000 		.4byte	.LFB522
 16313 00c4 28000000 		.4byte	.LFE522-.LFB522
 16314 00c8 00000000 		.4byte	.LFB532
 16315 00cc 34000000 		.4byte	.LFE532-.LFB532
 16316 00d0 00000000 		.4byte	.LFB547
 16317 00d4 40000000 		.4byte	.LFE547-.LFB547
 16318 00d8 00000000 		.4byte	.LFB591
 16319 00dc 0E000000 		.4byte	.LFE591-.LFB591
 16320 00e0 00000000 		.4byte	.LFB593
 16321 00e4 0E000000 		.4byte	.LFE593-.LFB593
 16322 00e8 00000000 		.4byte	.LFB596
 16323 00ec 88000000 		.4byte	.LFE596-.LFB596
 16324 00f0 00000000 		.4byte	.LFB597
 16325 00f4 44000000 		.4byte	.LFE597-.LFB597
 16326 00f8 00000000 		.4byte	.LFB598
 16327 00fc 68000000 		.4byte	.LFE598-.LFB598
 16328 0100 00000000 		.4byte	.LFB599
 16329 0104 22000000 		.4byte	.LFE599-.LFB599
 16330 0108 00000000 		.4byte	.LFB600
 16331 010c B4000000 		.4byte	.LFE600-.LFB600
 16332 0110 00000000 		.4byte	.LFB601
 16333 0114 3A000000 		.4byte	.LFE601-.LFB601
 16334 0118 00000000 		.4byte	.LFB602
 16335 011c 20000000 		.4byte	.LFE602-.LFB602
 16336 0120 00000000 		.4byte	.LFB603
 16337 0124 BC000000 		.4byte	.LFE603-.LFB603
 16338 0128 00000000 		.4byte	.LFB607
 16339 012c 16000000 		.4byte	.LFE607-.LFB607
 16340 0130 00000000 		.4byte	.LFB609
 16341 0134 20000000 		.4byte	.LFE609-.LFB609
 16342 0138 00000000 		.4byte	.LFB614
 16343 013c 16000000 		.4byte	.LFE614-.LFB614
 16344 0140 00000000 		.4byte	.LFB616
 16345 0144 20000000 		.4byte	.LFE616-.LFB616
 16346 0148 00000000 		.4byte	.LFB618
 16347 014c 18000000 		.4byte	.LFE618-.LFB618
 16348 0150 00000000 		.4byte	.LFB621
 16349 0154 18000000 		.4byte	.LFE621-.LFB621
 16350 0158 00000000 		.4byte	.LFB623
 16351 015c 98000000 		.4byte	.LFE623-.LFB623
 16352 0160 00000000 		.4byte	.LFB626
 16353 0164 48000000 		.4byte	.LFE626-.LFB626
 16354 0168 00000000 		.4byte	.LFB628
 16355 016c 1C000000 		.4byte	.LFE628-.LFB628
 16356 0170 00000000 		.4byte	.LFB629
 16357 0174 A0000000 		.4byte	.LFE629-.LFB629
 16358 0178 00000000 		.4byte	.LFB651
 16359 017c 1A000000 		.4byte	.LFE651-.LFB651
 16360 0180 00000000 		.4byte	.LFB652
 16361 0184 1A000000 		.4byte	.LFE652-.LFB652
 16362 0188 00000000 		.4byte	.LFB653
 16363 018c 2A000000 		.4byte	.LFE653-.LFB653
 16364 0190 00000000 		.4byte	.LFB655
 16365 0194 2A000000 		.4byte	.LFE655-.LFB655
 16366 0198 00000000 		.4byte	.LFB657
 16367 019c 50000000 		.4byte	.LFE657-.LFB657
ARM GAS  /tmp/ccfWo18f.s 			page 289


 16368 01a0 00000000 		.4byte	0
 16369 01a4 00000000 		.4byte	0
 16370              		.section	.debug_ranges,"",%progbits
 16371              	.Ldebug_ranges0:
 16372 0000 00000000 		.4byte	.LFB6
 16373 0004 0C000000 		.4byte	.LFE6
 16374 0008 00000000 		.4byte	.LFB9
 16375 000c 0C000000 		.4byte	.LFE9
 16376 0010 00000000 		.4byte	.LFB18
 16377 0014 0E000000 		.4byte	.LFE18
 16378 0018 00000000 		.4byte	.LFB19
 16379 001c 0E000000 		.4byte	.LFE19
 16380 0020 00000000 		.4byte	.LFB26
 16381 0024 08000000 		.4byte	.LFE26
 16382 0028 00000000 		.4byte	.LFB27
 16383 002c 08000000 		.4byte	.LFE27
 16384 0030 00000000 		.4byte	.LFB144
 16385 0034 12000000 		.4byte	.LFE144
 16386 0038 00000000 		.4byte	.LFB180
 16387 003c 20000000 		.4byte	.LFE180
 16388 0040 00000000 		.4byte	.LFB208
 16389 0044 0E000000 		.4byte	.LFE208
 16390 0048 00000000 		.4byte	.LFB209
 16391 004c 12000000 		.4byte	.LFE209
 16392 0050 00000000 		.4byte	.LFB212
 16393 0054 12000000 		.4byte	.LFE212
 16394 0058 00000000 		.4byte	.LFB214
 16395 005c 16000000 		.4byte	.LFE214
 16396 0060 00000000 		.4byte	.LFB216
 16397 0064 0E000000 		.4byte	.LFE216
 16398 0068 00000000 		.4byte	.LFB297
 16399 006c 0E000000 		.4byte	.LFE297
 16400 0070 00000000 		.4byte	.LFB299
 16401 0074 18000000 		.4byte	.LFE299
 16402 0078 00000000 		.4byte	.LFB300
 16403 007c 1E000000 		.4byte	.LFE300
 16404 0080 00000000 		.4byte	.LFB303
 16405 0084 1C000000 		.4byte	.LFE303
 16406 0088 00000000 		.4byte	.LFB309
 16407 008c 32000000 		.4byte	.LFE309
 16408 0090 00000000 		.4byte	.LFB462
 16409 0094 0E000000 		.4byte	.LFE462
 16410 0098 00000000 		.4byte	.LFB505
 16411 009c 0E000000 		.4byte	.LFE505
 16412 00a0 00000000 		.4byte	.LFB506
 16413 00a4 0E000000 		.4byte	.LFE506
 16414 00a8 00000000 		.4byte	.LFB509
 16415 00ac 22000000 		.4byte	.LFE509
 16416 00b0 00000000 		.4byte	.LFB522
 16417 00b4 28000000 		.4byte	.LFE522
 16418 00b8 00000000 		.4byte	.LFB532
 16419 00bc 34000000 		.4byte	.LFE532
 16420 00c0 00000000 		.4byte	.LFB547
 16421 00c4 40000000 		.4byte	.LFE547
 16422 00c8 00000000 		.4byte	.LFB591
 16423 00cc 0E000000 		.4byte	.LFE591
 16424 00d0 00000000 		.4byte	.LFB593
ARM GAS  /tmp/ccfWo18f.s 			page 290


 16425 00d4 0E000000 		.4byte	.LFE593
 16426 00d8 00000000 		.4byte	.LFB596
 16427 00dc 88000000 		.4byte	.LFE596
 16428 00e0 00000000 		.4byte	.LFB597
 16429 00e4 44000000 		.4byte	.LFE597
 16430 00e8 00000000 		.4byte	.LFB598
 16431 00ec 68000000 		.4byte	.LFE598
 16432 00f0 00000000 		.4byte	.LFB599
 16433 00f4 22000000 		.4byte	.LFE599
 16434 00f8 00000000 		.4byte	.LFB600
 16435 00fc B4000000 		.4byte	.LFE600
 16436 0100 00000000 		.4byte	.LFB601
 16437 0104 3A000000 		.4byte	.LFE601
 16438 0108 00000000 		.4byte	.LFB602
 16439 010c 20000000 		.4byte	.LFE602
 16440 0110 00000000 		.4byte	.LFB603
 16441 0114 BC000000 		.4byte	.LFE603
 16442 0118 00000000 		.4byte	.LFB607
 16443 011c 16000000 		.4byte	.LFE607
 16444 0120 00000000 		.4byte	.LFB609
 16445 0124 20000000 		.4byte	.LFE609
 16446 0128 00000000 		.4byte	.LFB614
 16447 012c 16000000 		.4byte	.LFE614
 16448 0130 00000000 		.4byte	.LFB616
 16449 0134 20000000 		.4byte	.LFE616
 16450 0138 00000000 		.4byte	.LFB618
 16451 013c 18000000 		.4byte	.LFE618
 16452 0140 00000000 		.4byte	.LFB621
 16453 0144 18000000 		.4byte	.LFE621
 16454 0148 00000000 		.4byte	.LFB623
 16455 014c 98000000 		.4byte	.LFE623
 16456 0150 00000000 		.4byte	.LFB626
 16457 0154 48000000 		.4byte	.LFE626
 16458 0158 00000000 		.4byte	.LFB628
 16459 015c 1C000000 		.4byte	.LFE628
 16460 0160 00000000 		.4byte	.LFB629
 16461 0164 A0000000 		.4byte	.LFE629
 16462 0168 00000000 		.4byte	.LFB651
 16463 016c 1A000000 		.4byte	.LFE651
 16464 0170 00000000 		.4byte	.LFB652
 16465 0174 1A000000 		.4byte	.LFE652
 16466 0178 00000000 		.4byte	.LFB653
 16467 017c 2A000000 		.4byte	.LFE653
 16468 0180 00000000 		.4byte	.LFB655
 16469 0184 2A000000 		.4byte	.LFE655
 16470 0188 00000000 		.4byte	.LFB657
 16471 018c 50000000 		.4byte	.LFE657
 16472 0190 00000000 		.4byte	0
 16473 0194 00000000 		.4byte	0
 16474              		.section	.debug_line,"",%progbits
 16475              	.Ldebug_line0:
 16476 0000 730B0000 		.section	.debug_str,"MS",%progbits,1
 16476      0200E206 
 16476      00000201 
 16476      FB0E0D00 
 16476      01010101 
 16477              	.LASF498:
ARM GAS  /tmp/ccfWo18f.s 			page 291


 16478 0000 5F5A4E33 		.ascii	"_ZN3r2p5Topic9subscribeERNS_15LocalSubscriberEj\000"
 16478      72327035 
 16478      546F7069 
 16478      63397375 
 16478      62736372 
 16479              	.LASF373:
 16480 0030 5F5A4E33 		.ascii	"_ZN3r2p10StaticListINS_15LocalSubscriberEE16link_ta"
 16480      72327031 
 16480      30537461 
 16480      7469634C 
 16480      69737449 
 16481 0063 696C5F75 		.ascii	"il_unsafeERNS2_4LinkE\000"
 16481      6E736166 
 16481      6545524E 
 16481      53325F34 
 16481      4C696E6B 
 16482              	.LASF325:
 16483 0079 416C6C6F 		.ascii	"Allocator\000"
 16483      6361746F 
 16483      7200
 16484              	.LASF451:
 16485 0083 5F5A4E4B 		.ascii	"_ZNK3r2p5Topic13is_forwardingEv\000"
 16485      33723270 
 16485      35546F70 
 16485      69633133 
 16485      69735F66 
 16486              	.LASF809:
 16487 00a3 705F6D70 		.ascii	"p_mpool\000"
 16487      6F6F6C00 
 16488              	.LASF611:
 16489 00ab 6576656E 		.ascii	"event\000"
 16489      7400
 16490              	.LASF816:
 16491 00b1 696E7463 		.ascii	"intctx\000"
 16491      747800
 16492              	.LASF856:
 16493 00b8 464D3152 		.ascii	"FM1R\000"
 16493      00
 16494              	.LASF420:
 16495 00bd 5F5A4E4B 		.ascii	"_ZNK3r2p10StaticListINS_5TopicEE5countEv\000"
 16495      33723270 
 16495      31305374 
 16495      61746963 
 16495      4C697374 
 16496              	.LASF387:
 16497 00e6 5F5A4E4B 		.ascii	"_ZNK3r2p10StaticListINS_15LocalSubscriberEE5countEv"
 16497      33723270 
 16497      31305374 
 16497      61746963 
 16497      4C697374 
 16498 0119 00       		.ascii	"\000"
 16499              	.LASF783:
 16500 011a 6D73675F 		.ascii	"msg_t\000"
 16500      7400
 16501              	.LASF207:
 16502 0120 5F5A4E4B 		.ascii	"_ZNK3r2p10StaticListINS_9TransportEE15is_empty_unsa"
 16502      33723270 
ARM GAS  /tmp/ccfWo18f.s 			page 292


 16502      31305374 
 16502      61746963 
 16502      4C697374 
 16503 0153 66654576 		.ascii	"feEv\000"
 16503      00
 16504              	.LASF377:
 16505 0158 5F5A4E4B 		.ascii	"_ZNK3r2p10StaticListINS_15LocalSubscriberEE17find_f"
 16505      33723270 
 16505      31305374 
 16505      61746963 
 16505      4C697374 
 16506 018b 69727374 		.ascii	"irst_unsafeEPFbRKS1_E\000"
 16506      5F756E73 
 16506      61666545 
 16506      50466252 
 16506      4B53315F 
 16507              	.LASF508:
 16508 01a1 53746174 		.ascii	"StaticList<r2p::LocalPublisher>\000"
 16508      69634C69 
 16508      73743C72 
 16508      32703A3A 
 16508      4C6F6361 
 16509              	.LASF563:
 16510 01c1 5F5A4E4B 		.ascii	"_ZNK3r2p9SpinEvent10get_threadEv\000"
 16510      33723270 
 16510      39537069 
 16510      6E457665 
 16510      6E743130 
 16511              	.LASF102:
 16512 01e2 5F5A4E33 		.ascii	"_ZN3r2p7Message16get_payload_sizeEj\000"
 16512      72327037 
 16512      4D657373 
 16512      61676531 
 16512      36676574 
 16513              	.LASF846:
 16514 0206 52444852 		.ascii	"RDHR\000"
 16514      00
 16515              	.LASF664:
 16516 020b 5F5A4E4B 		.ascii	"_ZNK3r2p14RTCANTransport17create_subscriberERNS_5To"
 16516      33723270 
 16516      31345254 
 16516      43414E54 
 16516      72616E73 
 16517 023e 70696345 		.ascii	"picEPNS_22TimestampedMsgPtrQueue5EntryEj\000"
 16517      504E535F 
 16517      32325469 
 16517      6D657374 
 16517      616D7065 
 16518              	.LASF205:
 16519 0267 53746174 		.ascii	"StaticList<r2p::Transport>\000"
 16519      69634C69 
 16519      73743C72 
 16519      32703A3A 
 16519      5472616E 
 16520              	.LASF142:
 16521 0282 52656D6F 		.ascii	"RemotePublisher\000"
 16521      74655075 
ARM GAS  /tmp/ccfWo18f.s 			page 293


 16521      626C6973 
 16521      68657200 
 16522              	.LASF510:
 16523 0292 5F5A4E33 		.ascii	"_ZN3r2p10StaticListINS_14LocalPublisherEE13ConstIte"
 16523      72327031 
 16523      30537461 
 16523      7469634C 
 16523      69737449 
 16524 02c5 7261746F 		.ascii	"ratoraSERKS3_\000"
 16524      72615345 
 16524      524B5333 
 16524      5F00
 16525              	.LASF351:
 16526 02d3 5F5A4E33 		.ascii	"_ZN3r2p6Thread5sleepERKNS_4TimeE\000"
 16526      72327036 
 16526      54687265 
 16526      61643573 
 16526      6C656570 
 16527              	.LASF3:
 16528 02f4 5F5F7569 		.ascii	"__uint8_t\000"
 16528      6E74385F 
 16528      7400
 16529              	.LASF931:
 16530 02fe 52544341 		.ascii	"RTCANConfig\000"
 16530      4E436F6E 
 16530      66696700 
 16531              	.LASF757:
 16532 030a 646F5F63 		.ascii	"do_cmd_subscribe_response\000"
 16532      6D645F73 
 16532      75627363 
 16532      72696265 
 16532      5F726573 
 16533              	.LASF292:
 16534 0324 7061796C 		.ascii	"payload\000"
 16534      6F616400 
 16535              	.LASF93:
 16536 032c 5F5A4E33 		.ascii	"_ZN3r2p7Message12reset_unsafeEv\000"
 16536      72327037 
 16536      4D657373 
 16536      61676531 
 16536      32726573 
 16537              	.LASF539:
 16538 034c 5F5A4E4B 		.ascii	"_ZNK3r2p10StaticListINS_14LocalPublisherEE8index_of"
 16538      33723270 
 16538      31305374 
 16538      61746963 
 16538      4C697374 
 16539 037f 45524B53 		.ascii	"ERKS1_\000"
 16539      315F00
 16540              	.LASF940:
 16541 0386 6F626A70 		.ascii	"objp\000"
 16541      00
 16542              	.LASF762:
 16543 038b 5F5A4E33 		.ascii	"_ZN3r2p10Middleware18is_bootloader_modeEv\000"
 16543      72327031 
 16543      304D6964 
 16543      646C6577 
ARM GAS  /tmp/ccfWo18f.s 			page 294


 16543      61726531 
 16544              	.LASF571:
 16545 03b5 5F5A4E4B 		.ascii	"_ZNK3r2p10StaticListINS_4NodeEE13ConstIteratordeEv\000"
 16545      33723270 
 16545      31305374 
 16545      61746963 
 16545      4C697374 
 16546              	.LASF583:
 16547 03e8 5F5A4E4B 		.ascii	"_ZNK3r2p10StaticListINS_4NodeEE15index_of_unsafeERK"
 16547      33723270 
 16547      31305374 
 16547      61746963 
 16547      4C697374 
 16548 041b 53315F00 		.ascii	"S1_\000"
 16549              	.LASF224:
 16550 041f 5F5A4E4B 		.ascii	"_ZNK3r2p10StaticListINS_9TransportEE5countEv\000"
 16550      33723270 
 16550      31305374 
 16550      61746963 
 16550      4C697374 
 16551              	.LASF723:
 16552 044c 5F5A4E33 		.ascii	"_ZN3r2p10Middleware5startEv\000"
 16552      72327031 
 16552      304D6964 
 16552      646C6577 
 16552      61726535 
 16553              	.LASF696:
 16554 0468 6D676D74 		.ascii	"mgmt_sub\000"
 16554      5F737562 
 16554      00
 16555              	.LASF765:
 16556 0471 52544341 		.ascii	"RTCANSubscriber\000"
 16556      4E537562 
 16556      73637269 
 16556      62657200 
 16557              	.LASF829:
 16558 0481 6D656D67 		.ascii	"memgetfunc_t\000"
 16558      65746675 
 16558      6E635F74 
 16558      00
 16559              	.LASF601:
 16560 048e 5F5A4E4B 		.ascii	"_ZNK3r2p10StaticListINS_4NodeEE10find_firstEPFbRKS1"
 16560      33723270 
 16560      31305374 
 16560      61746963 
 16560      4C697374 
 16561 04c1 5F504B76 		.ascii	"_PKvES6_\000"
 16561      4553365F 
 16561      00
 16562              	.LASF419:
 16563 04ca 5F5A4E4B 		.ascii	"_ZNK3r2p10StaticListINS_5TopicEE8is_emptyEv\000"
 16563      33723270 
 16563      31305374 
 16563      61746963 
 16563      4C697374 
 16564              	.LASF553:
 16565 04f6 5F5A4E4B 		.ascii	"_ZNK3r2p10SpinEvent_10get_threadEv\000"
ARM GAS  /tmp/ccfWo18f.s 			page 295


 16565      33723270 
 16565      31305370 
 16565      696E4576 
 16565      656E745F 
 16566              	.LASF412:
 16567 0519 5F5A4E33 		.ascii	"_ZN3r2p10StaticListINS_5TopicEE12begin_unsafeEv\000"
 16567      72327031 
 16567      30537461 
 16567      7469634C 
 16567      69737449 
 16568              	.LASF490:
 16569 0549 666F7277 		.ascii	"forward_copy\000"
 16569      6172645F 
 16569      636F7079 
 16569      00
 16570              	.LASF796:
 16571 0556 705F6E61 		.ascii	"p_name\000"
 16571      6D6500
 16572              	.LASF828:
 16573 055d 6D5F6E65 		.ascii	"m_next\000"
 16573      787400
 16574              	.LASF592:
 16575 0564 5F5A4E4B 		.ascii	"_ZNK3r2p10StaticListINS_4NodeEE14restart_unsafeERNS"
 16575      33723270 
 16575      31305374 
 16575      61746963 
 16575      4C697374 
 16576 0597 325F3139 		.ascii	"2_19ConstIteratorUnsafeE\000"
 16576      436F6E73 
 16576      74497465 
 16576      7261746F 
 16576      72556E73 
 16577              	.LASF586:
 16578 05b0 5F5A4E4B 		.ascii	"_ZNK3r2p10StaticListINS_4NodeEE17find_first_unsafeE"
 16578      33723270 
 16578      31305374 
 16578      61746963 
 16578      4C697374 
 16579 05e3 50466252 		.ascii	"PFbRKS1_PKvES6_\000"
 16579      4B53315F 
 16579      504B7645 
 16579      53365F00 
 16580              	.LASF289:
 16581 05f3 72657365 		.ascii	"reserved_\000"
 16581      72766564 
 16581      5F00
 16582              	.LASF907:
 16583 05fd 31327274 		.ascii	"12rtcanstate_t\000"
 16583      63616E73 
 16583      74617465 
 16583      5F7400
 16584              	.LASF88:
 16585 060c 5F5A4E33 		.ascii	"_ZN3r2p22TimestampedMsgPtrQueue5EntryaSERKS1_\000"
 16585      72327032 
 16585      3254696D 
 16585      65737461 
 16585      6D706564 
ARM GAS  /tmp/ccfWo18f.s 			page 296


 16586              	.LASF878:
 16587 063a 42445452 		.ascii	"BDTR\000"
 16587      00
 16588              	.LASF39:
 16589 063f 746F5F73 		.ascii	"to_s_raw\000"
 16589      5F726177 
 16589      00
 16590              	.LASF67:
 16591 0648 6765745F 		.ascii	"get_count_unsafe\000"
 16591      636F756E 
 16591      745F756E 
 16591      73616665 
 16591      00
 16592              	.LASF560:
 16593 0659 77616974 		.ascii	"wait\000"
 16593      00
 16594              	.LASF577:
 16595 065e 5F5A4E4B 		.ascii	"_ZNK3r2p10StaticListINS_4NodeEE15get_head_unsafeEv\000"
 16595      33723270 
 16595      31305374 
 16595      61746963 
 16595      4C697374 
 16596              	.LASF321:
 16597 0691 5F5A4E33 		.ascii	"_ZN3r2p7Thread_5sleepERKNS_4TimeE\000"
 16597      72327037 
 16597      54687265 
 16597      61645F35 
 16597      736C6565 
 16598              	.LASF773:
 16599 06b3 75696E74 		.ascii	"uint16_t\000"
 16599      31365F74 
 16599      00
 16600              	.LASF584:
 16601 06bc 5F5A4E4B 		.ascii	"_ZNK3r2p10StaticListINS_4NodeEE15contains_unsafeERK"
 16601      33723270 
 16601      31305374 
 16601      61746963 
 16601      4C697374 
 16602 06ef 53315F00 		.ascii	"S1_\000"
 16603              	.LASF99:
 16604 06f3 6765745F 		.ascii	"get_msg_from_raw_data\000"
 16604      6D73675F 
 16604      66726F6D 
 16604      5F726177 
 16604      5F646174 
 16605              	.LASF166:
 16606 0709 5F5A4E4B 		.ascii	"_ZNK3r2p10StaticListINS_16RemoteSubscriberEE17find_"
 16606      33723270 
 16606      31305374 
 16606      61746963 
 16606      4C697374 
 16607 073c 66697273 		.ascii	"first_unsafeEPFbRKS1_E\000"
 16607      745F756E 
 16607      73616665 
 16607      45504662 
 16607      524B5331 
 16608              	.LASF890:
ARM GAS  /tmp/ccfWo18f.s 			page 297


 16609 0753 6E657874 		.ascii	"next\000"
 16609      00
 16610              	.LASF423:
 16611 0758 5F5A4E4B 		.ascii	"_ZNK3r2p10StaticListINS_5TopicEE8index_ofERKS1_\000"
 16611      33723270 
 16611      31305374 
 16611      61746963 
 16611      4C697374 
 16612              	.LASF930:
 16613 0788 736C6F74 		.ascii	"slots\000"
 16613      7300
 16614              	.LASF108:
 16615 078e 6C656E67 		.ascii	"length\000"
 16615      746800
 16616              	.LASF670:
 16617 0795 636F756E 		.ascii	"counter\000"
 16617      74657200 
 16618              	.LASF44:
 16619 079d 5F5A4E4B 		.ascii	"_ZNK3r2p4Time5to_usEv\000"
 16619      33723270 
 16619      3454696D 
 16619      6535746F 
 16619      5F757345 
 16620              	.LASF126:
 16621 07b3 5F5A4E33 		.ascii	"_ZN3r2p6Mutex_14acquire_unsafeEv\000"
 16621      72327036 
 16621      4D757465 
 16621      785F3134 
 16621      61637175 
 16622              	.LASF231:
 16623 07d4 5F5A4E33 		.ascii	"_ZN3r2p10StaticListINS_9TransportEE5beginEv\000"
 16623      72327031 
 16623      30537461 
 16623      7469634C 
 16623      69737449 
 16624              	.LASF672:
 16625 0800 5F5A4E33 		.ascii	"_ZN3r2p7ReMutex10initializeEv\000"
 16625      72327037 
 16625      52654D75 
 16625      74657831 
 16625      30696E69 
 16626              	.LASF261:
 16627 081e 5F5A4E33 		.ascii	"_ZN3r2p11StaticQueueINS_14BaseSubscriberEE11post_un"
 16627      72327031 
 16627      31537461 
 16627      74696351 
 16627      75657565 
 16628 0851 73616665 		.ascii	"safeERNS2_4LinkE\000"
 16628      45524E53 
 16628      325F344C 
 16628      696E6B45 
 16628      00
 16629              	.LASF211:
 16630 0862 5F5A4E33 		.ascii	"_ZN3r2p10StaticListINS_9TransportEE13unlink_unsafeE"
 16630      72327031 
 16630      30537461 
 16630      7469634C 
ARM GAS  /tmp/ccfWo18f.s 			page 298


 16630      69737449 
 16631 0895 524E5332 		.ascii	"RNS2_4LinkE\000"
 16631      5F344C69 
 16631      6E6B4500 
 16632              	.LASF454:
 16633 08a1 6861735F 		.ascii	"has_remote_publishers\000"
 16633      72656D6F 
 16633      74655F70 
 16633      75626C69 
 16633      73686572 
 16634              	.LASF537:
 16635 08b7 5F5A4E33 		.ascii	"_ZN3r2p10StaticListINS_14LocalPublisherEE4linkERNS2"
 16635      72327031 
 16635      30537461 
 16635      7469634C 
 16635      69737449 
 16636 08ea 5F344C69 		.ascii	"_4LinkE\000"
 16636      6E6B4500 
 16637              	.LASF656:
 16638 08f2 746F7069 		.ascii	"topic_id\000"
 16638      635F6964 
 16638      00
 16639              	.LASF171:
 16640 08fb 5F5A4E33 		.ascii	"_ZN3r2p10StaticListINS_16RemoteSubscriberEE10end_un"
 16640      72327031 
 16640      30537461 
 16640      7469634C 
 16640      69737449 
 16641 092e 73616665 		.ascii	"safeEv\000"
 16641      457600
 16642              	.LASF657:
 16643 0935 5F5A4E4B 		.ascii	"_ZNK3r2p14RTCANTransport8topic_idERKNS_5TopicE\000"
 16643      33723270 
 16643      31345254 
 16643      43414E54 
 16643      72616E73 
 16644              	.LASF558:
 16645 0964 7369676E 		.ascii	"signal\000"
 16645      616C00
 16646              	.LASF492:
 16647 096b 65787465 		.ascii	"extend_pool\000"
 16647      6E645F70 
 16647      6F6F6C00 
 16648              	.LASF813:
 16649 0977 54687265 		.ascii	"ThreadsList\000"
 16649      6164734C 
 16649      69737400 
 16650              	.LASF314:
 16651 0983 5F5A4E33 		.ascii	"_ZN3r2p7Thread_4selfEv\000"
 16651      72327037 
 16651      54687265 
 16651      61645F34 
 16651      73656C66 
 16652              	.LASF950:
 16653 099a 72746361 		.ascii	"rtcan_headerp\000"
 16653      6E5F6865 
 16653      61646572 
ARM GAS  /tmp/ccfWo18f.s 			page 299


 16653      7000
 16654              	.LASF748:
 16655 09a8 5F5A4E33 		.ascii	"_ZN3r2p10Middleware11touch_topicEPKcj\000"
 16655      72327031 
 16655      304D6964 
 16655      646C6577 
 16655      61726531 
 16656              	.LASF215:
 16657 09ce 5F5A4E4B 		.ascii	"_ZNK3r2p10StaticListINS_9TransportEE17find_first_un"
 16657      33723270 
 16657      31305374 
 16657      61746963 
 16657      4C697374 
 16658 0a01 73616665 		.ascii	"safeEPFbRKS1_PKvES6_\000"
 16658      45504662 
 16658      524B5331 
 16658      5F504B76 
 16658      4553365F 
 16659              	.LASF83:
 16660 0a16 52656663 		.ascii	"RefcountType\000"
 16660      6F756E74 
 16660      54797065 
 16660      00
 16661              	.LASF174:
 16662 0a23 5F5A4E4B 		.ascii	"_ZNK3r2p10StaticListINS_16RemoteSubscriberEE12begin"
 16662      33723270 
 16662      31305374 
 16662      61746963 
 16662      4C697374 
 16663 0a56 5F756E73 		.ascii	"_unsafeEv\000"
 16663      61666545 
 16663      7600
 16664              	.LASF158:
 16665 0a60 5F5A4E33 		.ascii	"_ZN3r2p10StaticListINS_16RemoteSubscriberEE16link_t"
 16665      72327031 
 16665      30537461 
 16665      7469634C 
 16665      69737449 
 16666 0a93 61696C5F 		.ascii	"ail_unsafeERNS2_4LinkE\000"
 16666      756E7361 
 16666      66654552 
 16666      4E53325F 
 16666      344C696E 
 16667              	.LASF540:
 16668 0aaa 5F5A4E4B 		.ascii	"_ZNK3r2p10StaticListINS_14LocalPublisherEE8contains"
 16668      33723270 
 16668      31305374 
 16668      61746963 
 16668      4C697374 
 16669 0add 45524B53 		.ascii	"ERKS1_\000"
 16669      315F00
 16670              	.LASF619:
 16671 0ae4 5F5A4E4B 		.ascii	"_ZNK3r2p4Node11get_enabledEv\000"
 16671      33723270 
 16671      344E6F64 
 16671      65313167 
 16671      65745F65 
ARM GAS  /tmp/ccfWo18f.s 			page 300


 16672              	.LASF95:
 16673 0b01 5F5A4E33 		.ascii	"_ZN3r2p7Message7releaseEv\000"
 16673      72327037 
 16673      4D657373 
 16673      61676537 
 16673      72656C65 
 16674              	.LASF203:
 16675 0b1b 6765745F 		.ascii	"get_transport\000"
 16675      7472616E 
 16675      73706F72 
 16675      7400
 16676              	.LASF972:
 16677 0b29 474E5520 		.ascii	"GNU C++ 4.9.3 20141119 (release) [ARM/embedded-4_9-"
 16677      432B2B20 
 16677      342E392E 
 16677      33203230 
 16677      31343131 
 16678 0b5c 6272616E 		.ascii	"branch revision 218278] -mcpu=cortex-m4 -mfloat-abi"
 16678      63682072 
 16678      65766973 
 16678      696F6E20 
 16678      32313832 
 16679 0b8f 3D686172 		.ascii	"=hard -mfpu=fpv4-sp-d16 -mno-thumb-interwork -mthum"
 16679      64202D6D 
 16679      6670753D 
 16679      66707634 
 16679      2D73702D 
 16680 0bc2 62202D67 		.ascii	"b -ggdb -O0 -fomit-frame-pointer -falign-functions="
 16680      67646220 
 16680      2D4F3020 
 16680      2D666F6D 
 16680      69742D66 
 16681 0bf5 3136202D 		.ascii	"16 -ffunction-sections -fdata-sections -fno-common "
 16681      6666756E 
 16681      6374696F 
 16681      6E2D7365 
 16681      6374696F 
 16682 0c28 2D667369 		.ascii	"-fsingle-precision-constant -fno-rtti -fno-exceptio"
 16682      6E676C65 
 16682      2D707265 
 16682      63697369 
 16682      6F6E2D63 
 16683 0c5b 6E73202D 		.ascii	"ns -fno-threadsafe-statics\000"
 16683      666E6F2D 
 16683      74687265 
 16683      61647361 
 16683      66652D73 
 16684              	.LASF766:
 16685 0c76 52544341 		.ascii	"RTCANPublisher\000"
 16685      4E507562 
 16685      6C697368 
 16685      657200
 16686              	.LASF775:
 16687 0c85 75696E74 		.ascii	"uint32_t\000"
 16687      33325F74 
 16687      00
 16688              	.LASF495:
ARM GAS  /tmp/ccfWo18f.s 			page 301


 16689 0c8e 5F5A4E33 		.ascii	"_ZN3r2p5Topic9advertiseERNS_14LocalPublisherERKNS_4"
 16689      72327035 
 16689      546F7069 
 16689      63396164 
 16689      76657274 
 16690 0cc1 54696D65 		.ascii	"TimeE\000"
 16690      4500
 16691              	.LASF17:
 16692 0cc7 73747263 		.ascii	"strcoll\000"
 16692      6F6C6C00 
 16693              	.LASF80:
 16694 0ccf 5F5A4E33 		.ascii	"_ZN3r2p22TimestampedMsgPtrQueue5fetchERNS0_5EntryE\000"
 16694      72327032 
 16694      3254696D 
 16694      65737461 
 16694      6D706564 
 16695              	.LASF636:
 16696 0d02 4D656D6F 		.ascii	"MemoryPool<rtcan_msg_t>\000"
 16696      7279506F 
 16696      6F6C3C72 
 16696      7463616E 
 16696      5F6D7367 
 16697              	.LASF706:
 16698 0d1a 626F6F74 		.ascii	"boot_mode_magic\000"
 16698      5F6D6F64 
 16698      655F6D61 
 16698      67696300 
 16699              	.LASF685:
 16700 0d2a 6E6F6465 		.ascii	"nodes\000"
 16700      7300
 16701              	.LASF585:
 16702 0d30 5F5A4E4B 		.ascii	"_ZNK3r2p10StaticListINS_4NodeEE17find_first_unsafeE"
 16702      33723270 
 16702      31305374 
 16702      61746963 
 16702      4C697374 
 16703 0d63 50466252 		.ascii	"PFbRKS1_E\000"
 16703      4B53315F 
 16703      4500
 16704              	.LASF774:
 16705 0d6d 696E7433 		.ascii	"int32_t\000"
 16705      325F7400 
 16706              	.LASF576:
 16707 0d75 5F5A4E4B 		.ascii	"_ZNK3r2p10StaticListINS_4NodeEE13ConstIterator8is_v"
 16707      33723270 
 16707      31305374 
 16707      61746963 
 16707      4C697374 
 16708 0da8 616C6964 		.ascii	"alidEv\000"
 16708      457600
 16709              	.LASF478:
 16710 0daf 666F7277 		.ascii	"forward_copy_unsafe\000"
 16710      6172645F 
 16710      636F7079 
 16710      5F756E73 
 16710      61666500 
 16711              	.LASF785:
ARM GAS  /tmp/ccfWo18f.s 			page 302


 16712 0dc3 73797374 		.ascii	"systime_t\000"
 16712      696D655F 
 16712      7400
 16713              	.LASF522:
 16714 0dcd 5F5A4E33 		.ascii	"_ZN3r2p10StaticListINS_14LocalPublisherEE16link_tai"
 16714      72327031 
 16714      30537461 
 16714      7469634C 
 16714      69737449 
 16715 0e00 6C5F756E 		.ascii	"l_unsafeERNS2_4LinkE\000"
 16715      73616665 
 16715      45524E53 
 16715      325F344C 
 16715      696E6B45 
 16716              	.LASF316:
 16717 0e15 7365745F 		.ascii	"set_priority\000"
 16717      7072696F 
 16717      72697479 
 16717      00
 16718              	.LASF535:
 16719 0e22 5F5A4E4B 		.ascii	"_ZNK3r2p10StaticListINS_14LocalPublisherEE8is_empty"
 16719      33723270 
 16719      31305374 
 16719      61746963 
 16719      4C697374 
 16720 0e55 457600   		.ascii	"Ev\000"
 16721              	.LASF256:
 16722 0e58 5F5A4E33 		.ascii	"_ZN3r2p12StaticQueue_5fetchERNS0_4LinkE\000"
 16722      72327031 
 16722      32537461 
 16722      74696351 
 16722      75657565 
 16723              	.LASF607:
 16724 0e80 5F5A4E4B 		.ascii	"_ZNK3r2p10StaticListINS_4NodeEE7restartERNS2_13Cons"
 16724      33723270 
 16724      31305374 
 16724      61746963 
 16724      4C697374 
 16725 0eb3 74497465 		.ascii	"tIteratorE\000"
 16725      7261746F 
 16725      724500
 16726              	.LASF85:
 16727 0ebe 6765745F 		.ascii	"get_raw_data\000"
 16727      7261775F 
 16727      64617461 
 16727      00
 16728              	.LASF679:
 16729 0ecb 6765745F 		.ascii	"get_topic\000"
 16729      746F7069 
 16729      6300
 16730              	.LASF603:
 16731 0ed5 5F5A4E33 		.ascii	"_ZN3r2p10StaticListINS_4NodeEE3endEv\000"
 16731      72327031 
 16731      30537461 
 16731      7469634C 
 16731      69737449 
 16732              	.LASF862:
ARM GAS  /tmp/ccfWo18f.s 			page 303


 16733 0efa 46413152 		.ascii	"FA1R\000"
 16733      00
 16734              	.LASF378:
 16735 0eff 5F5A4E4B 		.ascii	"_ZNK3r2p10StaticListINS_15LocalSubscriberEE17find_f"
 16735      33723270 
 16735      31305374 
 16735      61746963 
 16735      4C697374 
 16736 0f32 69727374 		.ascii	"irst_unsafeEPFbRKS1_PKvES6_\000"
 16736      5F756E73 
 16736      61666545 
 16736      50466252 
 16736      4B53315F 
 16737              	.LASF236:
 16738 0f4e 5F5A4E4B 		.ascii	"_ZNK3r2p10StaticListINS_9TransportEE7restartERNS2_1"
 16738      33723270 
 16738      31305374 
 16738      61746963 
 16738      4C697374 
 16739 0f81 33436F6E 		.ascii	"3ConstIteratorE\000"
 16739      73744974 
 16739      65726174 
 16739      6F724500 
 16740              	.LASF113:
 16741 0f91 5F5A4E33 		.ascii	"_ZN3r2p10ArrayQueueINS_22TimestampedMsgPtrQueue5Ent"
 16741      72327031 
 16741      30417272 
 16741      61795175 
 16741      65756549 
 16742 0fc4 72794545 		.ascii	"ryEE12fetch_unsafeERS2_\000"
 16742      31326665 
 16742      7463685F 
 16742      756E7361 
 16742      66654552 
 16743              	.LASF800:
 16744 0fdc 705F7265 		.ascii	"p_refs\000"
 16744      667300
 16745              	.LASF884:
 16746 0fe3 43435236 		.ascii	"CCR6\000"
 16746      00
 16747              	.LASF243:
 16748 0fe8 5F5A4E4B 		.ascii	"_ZNK3r2p12StaticQueue_15is_empty_unsafeEv\000"
 16748      33723270 
 16748      31325374 
 16748      61746963 
 16748      51756575 
 16749              	.LASF424:
 16750 1012 5F5A4E4B 		.ascii	"_ZNK3r2p10StaticListINS_5TopicEE8containsERKS1_\000"
 16750      33723270 
 16750      31305374 
 16750      61746963 
 16750      4C697374 
 16751              	.LASF86:
 16752 1042 5F5A4E4B 		.ascii	"_ZNK3r2p7Message12get_raw_dataEv\000"
 16752      33723270 
 16752      374D6573 
 16752      73616765 
ARM GAS  /tmp/ccfWo18f.s 			page 304


 16752      31326765 
 16753              	.LASF219:
 16754 1063 5F5A4E4B 		.ascii	"_ZNK3r2p10StaticListINS_9TransportEE12begin_unsafeE"
 16754      33723270 
 16754      31305374 
 16754      61746963 
 16754      4C697374 
 16755 1096 7600     		.ascii	"v\000"
 16756              	.LASF646:
 16757 1098 72746361 		.ascii	"rtcan\000"
 16757      6E00
 16758              	.LASF461:
 16759 109e 5F5A4E4B 		.ascii	"_ZNK3r2p5Topic22has_remote_subscribersEv\000"
 16759      33723270 
 16759      35546F70 
 16759      69633232 
 16759      6861735F 
 16760              	.LASF438:
 16761 10c7 6E756D5F 		.ascii	"num_remote_publishers\000"
 16761      72656D6F 
 16761      74655F70 
 16761      75626C69 
 16761      73686572 
 16762              	.LASF717:
 16763 10dd 6765745F 		.ascii	"get_boot_topic\000"
 16763      626F6F74 
 16763      5F746F70 
 16763      696300
 16764              	.LASF277:
 16765 10ec 50617468 		.ascii	"Path\000"
 16765      00
 16766              	.LASF588:
 16767 10f1 5F5A4E33 		.ascii	"_ZN3r2p10StaticListINS_4NodeEE10end_unsafeEv\000"
 16767      72327031 
 16767      30537461 
 16767      7469634C 
 16767      69737449 
 16768              	.LASF750:
 16769 111e 5F5A4E33 		.ascii	"_ZN3r2p10Middleware12mgmt_threadfEPv\000"
 16769      72327031 
 16769      304D6964 
 16769      646C6577 
 16769      61726531 
 16770              	.LASF529:
 16771 1143 5F5A4E33 		.ascii	"_ZN3r2p10StaticListINS_14LocalPublisherEE10end_unsa"
 16771      72327031 
 16771      30537461 
 16771      7469634C 
 16771      69737449 
 16772 1176 66654576 		.ascii	"feEv\000"
 16772      00
 16773              	.LASF168:
 16774 117b 62656769 		.ascii	"begin_unsafe\000"
 16774      6E5F756E 
 16774      73616665 
 16774      00
 16775              	.LASF463:
ARM GAS  /tmp/ccfWo18f.s 			page 305


 16776 1188 5F5A4E4B 		.ascii	"_ZNK3r2p5Topic15has_subscribersEv\000"
 16776      33723270 
 16776      35546F70 
 16776      69633135 
 16776      6861735F 
 16777              	.LASF336:
 16778 11aa 66726565 		.ascii	"free\000"
 16778      00
 16779              	.LASF201:
 16780 11af 53746174 		.ascii	"StaticList\000"
 16780      69634C69 
 16780      737400
 16781              	.LASF446:
 16782 11ba 5F5A4E4B 		.ascii	"_ZNK3r2p5Topic13get_type_sizeEv\000"
 16782      33723270 
 16782      35546F70 
 16782      69633133 
 16782      6765745F 
 16783              	.LASF390:
 16784 11da 5F5A4E4B 		.ascii	"_ZNK3r2p10StaticListINS_15LocalSubscriberEE8index_o"
 16784      33723270 
 16784      31305374 
 16784      61746963 
 16784      4C697374 
 16785 120d 6645524B 		.ascii	"fERKS1_\000"
 16785      53315F00 
 16786              	.LASF803:
 16787 1215 705F7761 		.ascii	"p_waiting\000"
 16787      6974696E 
 16787      6700
 16788              	.LASF472:
 16789 121f 5F5A4E33 		.ascii	"_ZN3r2p5Topic14release_unsafeERNS_7MessageE\000"
 16789      72327035 
 16789      546F7069 
 16789      63313472 
 16789      656C6561 
 16790              	.LASF886:
 16791 124b 72746361 		.ascii	"rtcan_msg_t\000"
 16791      6E5F6D73 
 16791      675F7400 
 16792              	.LASF944:
 16793 1257 72746361 		.ascii	"rtcan_msg_p\000"
 16793      6E5F6D73 
 16793      675F7000 
 16794              	.LASF386:
 16795 1263 5F5A4E4B 		.ascii	"_ZNK3r2p10StaticListINS_15LocalSubscriberEE8is_empt"
 16795      33723270 
 16795      31305374 
 16795      61746963 
 16795      4C697374 
 16796 1296 79457600 		.ascii	"yEv\000"
 16797              	.LASF417:
 16798 129a 5F5A4E4B 		.ascii	"_ZNK3r2p10StaticListINS_5TopicEE14restart_unsafeERN"
 16798      33723270 
 16798      31305374 
 16798      61746963 
 16798      4C697374 
ARM GAS  /tmp/ccfWo18f.s 			page 306


 16799 12cd 53325F31 		.ascii	"S2_19ConstIteratorUnsafeE\000"
 16799      39436F6E 
 16799      73744974 
 16799      65726174 
 16799      6F72556E 
 16800              	.LASF969:
 16801 12e7 726C6973 		.ascii	"rlist\000"
 16801      7400
 16802              	.LASF56:
 16803 12ed 5F5A4E33 		.ascii	"_ZN3r2p4TimemIERKS0_\000"
 16803      72327034 
 16803      54696D65 
 16803      6D494552 
 16803      4B53305F 
 16804              	.LASF841:
 16805 1302 43414E5F 		.ascii	"CAN_TxMailBox_TypeDef\000"
 16805      54784D61 
 16805      696C426F 
 16805      785F5479 
 16805      70654465 
 16806              	.LASF206:
 16807 1318 5F5A4E4B 		.ascii	"_ZNK3r2p10StaticListINS_9TransportEE15get_head_unsa"
 16807      33723270 
 16807      31305374 
 16807      61746963 
 16807      4C697374 
 16808 134b 66654576 		.ascii	"feEv\000"
 16808      00
 16809              	.LASF299:
 16810 1350 52657475 		.ascii	"Return\000"
 16810      726E00
 16811              	.LASF659:
 16812 1357 66696C6C 		.ascii	"fill_raw_params\000"
 16812      5F726177 
 16812      5F706172 
 16812      616D7300 
 16813              	.LASF904:
 16814 1367 52544341 		.ascii	"RTCAN_SLAVE\000"
 16814      4E5F534C 
 16814      41564500 
 16815              	.LASF45:
 16816 1373 746F5F6D 		.ascii	"to_ms\000"
 16816      7300
 16817              	.LASF733:
 16818 1379 5F5A4E33 		.ascii	"_ZN3r2p10Middleware13reboot_remoteEPKcb\000"
 16818      72327031 
 16818      304D6964 
 16818      646C6577 
 16818      61726531 
 16819              	.LASF864:
 16820 13a1 7346696C 		.ascii	"sFilterRegister\000"
 16820      74657252 
 16820      65676973 
 16820      74657200 
 16821              	.LASF901:
 16822 13b1 52544341 		.ascii	"RTCAN_STARTING\000"
 16822      4E5F5354 
ARM GAS  /tmp/ccfWo18f.s 			page 307


 16822      41525449 
 16822      4E4700
 16823              	.LASF507:
 16824 13c0 4C6F6361 		.ascii	"LocalPublisher\000"
 16824      6C507562 
 16824      6C697368 
 16824      657200
 16825              	.LASF506:
 16826 13cf 4D657373 		.ascii	"MessageType\000"
 16826      61676554 
 16826      79706500 
 16827              	.LASF333:
 16828 13db 5F5A4E33 		.ascii	"_ZN3r2p11MemoryPool_11free_unsafeEPv\000"
 16828      72327031 
 16828      314D656D 
 16828      6F727950 
 16828      6F6F6C5F 
 16829              	.LASF936:
 16830 1400 5F5A4E33 		.ascii	"_ZN3r2p4TimeC2Ev\000"
 16830      72327034 
 16830      54696D65 
 16830      43324576 
 16830      00
 16831              	.LASF195:
 16832 1411 72657374 		.ascii	"restart\000"
 16832      61727400 
 16833              	.LASF41:
 16834 1419 746F5F6D 		.ascii	"to_m_raw\000"
 16834      5F726177 
 16834      00
 16835              	.LASF896:
 16836 1422 66726167 		.ascii	"fragment\000"
 16836      6D656E74 
 16836      00
 16837              	.LASF689:
 16838 142b 6D676D74 		.ascii	"mgmt_topic\000"
 16838      5F746F70 
 16838      696300
 16839              	.LASF782:
 16840 1436 74707269 		.ascii	"tprio_t\000"
 16840      6F5F7400 
 16841              	.LASF731:
 16842 143e 5F5A4E33 		.ascii	"_ZN3r2p10Middleware11stop_remoteEPKc\000"
 16842      72327031 
 16842      304D6964 
 16842      646C6577 
 16842      61726531 
 16843              	.LASF709:
 16844 1463 6765745F 		.ascii	"get_nodes\000"
 16844      6E6F6465 
 16844      7300
 16845              	.LASF60:
 16846 146d 5F5A4E33 		.ascii	"_ZN3r2p4Time1mEl\000"
 16846      72327034 
 16846      54696D65 
 16846      316D456C 
 16846      00
ARM GAS  /tmp/ccfWo18f.s 			page 308


 16847              	.LASF148:
 16848 147e 4D617463 		.ascii	"Matches\000"
 16848      68657300 
 16849              	.LASF715:
 16850 1486 6765745F 		.ascii	"get_mgmt_topic\000"
 16850      6D676D74 
 16850      5F746F70 
 16850      696300
 16851              	.LASF745:
 16852 1495 66696E64 		.ascii	"find_node\000"
 16852      5F6E6F64 
 16852      6500
 16853              	.LASF671:
 16854 149f 6D757465 		.ascii	"mutex\000"
 16854      7800
 16855              	.LASF897:
 16856 14a5 72746361 		.ascii	"rtcan_msgcallback_t\000"
 16856      6E5F6D73 
 16856      6763616C 
 16856      6C626163 
 16856      6B5F7400 
 16857              	.LASF361:
 16858 14b9 5F5A4E33 		.ascii	"_ZN3r2p10StaticListINS_15LocalSubscriberEE13ConstIt"
 16858      72327031 
 16858      30537461 
 16858      7469634C 
 16858      69737449 
 16859 14ec 65726174 		.ascii	"eratorppEv\000"
 16859      6F727070 
 16859      457600
 16860              	.LASF903:
 16861 14f7 52544341 		.ascii	"RTCAN_SYNCING\000"
 16861      4E5F5359 
 16861      4E43494E 
 16861      4700
 16862              	.LASF483:
 16863 1505 5F5A4E33 		.ascii	"_ZN3r2p5Topic5allocEv\000"
 16863      72327035 
 16863      546F7069 
 16863      6335616C 
 16863      6C6F6345 
 16864              	.LASF110:
 16865 151b 68656164 		.ascii	"headp\000"
 16865      7000
 16866              	.LASF359:
 16867 1521 5F5A4E4B 		.ascii	"_ZNK3r2p10StaticListINS_15LocalSubscriberEE13ConstI"
 16867      33723270 
 16867      31305374 
 16867      61746963 
 16867      4C697374 
 16868 1554 74657261 		.ascii	"teratordeEv\000"
 16868      746F7264 
 16868      65457600 
 16869              	.LASF871:
 16870 1560 43434552 		.ascii	"CCER\000"
 16870      00
 16871              	.LASF295:
ARM GAS  /tmp/ccfWo18f.s 			page 309


 16872 1565 74797065 		.ascii	"type\000"
 16872      00
 16873              	.LASF184:
 16874 156a 756E6C69 		.ascii	"unlink\000"
 16874      6E6B00
 16875              	.LASF358:
 16876 1571 6F706572 		.ascii	"operator*\000"
 16876      61746F72 
 16876      2A00
 16877              	.LASF26:
 16878 157b 5F5A4E33 		.ascii	"_ZN3r2p8SysLock_7acquireEv\000"
 16878      72327038 
 16878      5379734C 
 16878      6F636B5F 
 16878      37616371 
 16879              	.LASF836:
 16880 1596 7466756E 		.ascii	"tfunc_t\000"
 16880      635F7400 
 16881              	.LASF282:
 16882 159e 7061796C 		.ascii	"payload_size\000"
 16882      6F61645F 
 16882      73697A65 
 16882      00
 16883              	.LASF682:
 16884 15ab 50756253 		.ascii	"PubSubStep\000"
 16884      75625374 
 16884      657000
 16885              	.LASF51:
 16886 15b6 6F706572 		.ascii	"operator=\000"
 16886      61746F72 
 16886      3D00
 16887              	.LASF902:
 16888 15c0 52544341 		.ascii	"RTCAN_ERROR\000"
 16888      4E5F4552 
 16888      524F5200 
 16889              	.LASF6:
 16890 15cc 5F5F7569 		.ascii	"__uint16_t\000"
 16890      6E743136 
 16890      5F7400
 16891              	.LASF294:
 16892 15d7 70756273 		.ascii	"pubsub\000"
 16892      756200
 16893              	.LASF805:
 16894 15de 705F6D73 		.ascii	"p_msg\000"
 16894      6700
 16895              	.LASF414:
 16896 15e4 5F5A4E33 		.ascii	"_ZN3r2p10StaticListINS_5TopicEE14restart_unsafeERNS"
 16896      72327031 
 16896      30537461 
 16896      7469634C 
 16896      69737449 
 16897 1617 325F3134 		.ascii	"2_14IteratorUnsafeE\000"
 16897      49746572 
 16897      61746F72 
 16897      556E7361 
 16897      66654500 
 16898              	.LASF354:
ARM GAS  /tmp/ccfWo18f.s 			page 310


 16899 162b 63757270 		.ascii	"curp\000"
 16899      00
 16900              	.LASF787:
 16901 1630 65786974 		.ascii	"exitcode\000"
 16901      636F6465 
 16901      00
 16902              	.LASF350:
 16903 1639 5F5A4E33 		.ascii	"_ZN3r2p6Thread5yieldEv\000"
 16903      72327036 
 16903      54687265 
 16903      61643579 
 16903      69656C64 
 16904              	.LASF46:
 16905 1650 5F5A4E4B 		.ascii	"_ZNK3r2p4Time5to_msEv\000"
 16905      33723270 
 16905      3454696D 
 16905      6535746F 
 16905      5F6D7345 
 16906              	.LASF909:
 16907 1666 52544341 		.ascii	"RTCAN_MSG_UNINIT\000"
 16907      4E5F4D53 
 16907      475F554E 
 16907      494E4954 
 16907      00
 16908              	.LASF525:
 16909 1677 5F5A4E4B 		.ascii	"_ZNK3r2p10StaticListINS_14LocalPublisherEE15contain"
 16909      33723270 
 16909      31305374 
 16909      61746963 
 16909      4C697374 
 16910 16aa 735F756E 		.ascii	"s_unsafeERKS1_\000"
 16910      73616665 
 16910      45524B53 
 16910      315F00
 16911              	.LASF194:
 16912 16b9 5F5A4E33 		.ascii	"_ZN3r2p10StaticListINS_16RemoteSubscriberEE5beginEv"
 16912      72327031 
 16912      30537461 
 16912      7469634C 
 16912      69737449 
 16913 16ec 00       		.ascii	"\000"
 16914              	.LASF758:
 16915 16ed 5F5A4E33 		.ascii	"_ZN3r2p10Middleware25do_cmd_subscribe_responseERKNS"
 16915      72327031 
 16915      304D6964 
 16915      646C6577 
 16915      61726532 
 16916 1720 5F374D67 		.ascii	"_7MgmtMsgE\000"
 16916      6D744D73 
 16916      674500
 16917              	.LASF264:
 16918 172b 5F5A4E33 		.ascii	"_ZN3r2p11StaticQueueINS_14BaseSubscriberEE11skip_un"
 16918      72327031 
 16918      31537461 
 16918      74696351 
 16918      75657565 
 16919 175e 73616665 		.ascii	"safeEv\000"
ARM GAS  /tmp/ccfWo18f.s 			page 311


 16919      457600
 16920              	.LASF724:
 16921 1765 73746F70 		.ascii	"stop\000"
 16921      00
 16922              	.LASF198:
 16923 176a 5F5A4E33 		.ascii	"_ZN3r2p10StaticListINS_16RemoteSubscriberEE3endEv\000"
 16923      72327031 
 16923      30537461 
 16923      7469634C 
 16923      69737449 
 16924              	.LASF550:
 16925 179c 74687265 		.ascii	"threadp\000"
 16925      61647000 
 16926              	.LASF873:
 16927 17a4 52455345 		.ascii	"RESERVED10\000"
 16927      52564544 
 16927      313000
 16928              	.LASF648:
 16929 17af 68656164 		.ascii	"header_pool\000"
 16929      65725F70 
 16929      6F6F6C00 
 16930              	.LASF879:
 16931 17bb 52455345 		.ascii	"RESERVED12\000"
 16931      52564544 
 16931      313200
 16932              	.LASF792:
 16933 17c6 705F7072 		.ascii	"p_prio\000"
 16933      696F00
 16934              	.LASF777:
 16935 17cd 626F6F6C 		.ascii	"bool\000"
 16935      00
 16936              	.LASF556:
 16937 17d2 7369676E 		.ascii	"signal_unsafe\000"
 16937      616C5F75 
 16937      6E736166 
 16937      6500
 16938              	.LASF928:
 16939 17e0 62617564 		.ascii	"baudrate\000"
 16939      72617465 
 16939      00
 16940              	.LASF778:
 16941 17e9 746D6F64 		.ascii	"tmode_t\000"
 16941      655F7400 
 16942              	.LASF332:
 16943 17f1 66726565 		.ascii	"free_unsafe\000"
 16943      5F756E73 
 16943      61666500 
 16944              	.LASF815:
 16945 17fd 73746B61 		.ascii	"stkalign_t\000"
 16945      6C69676E 
 16945      5F7400
 16946              	.LASF185:
 16947 1808 5F5A4E33 		.ascii	"_ZN3r2p10StaticListINS_16RemoteSubscriberEE6unlinkE"
 16947      72327031 
 16947      30537461 
 16947      7469634C 
 16947      69737449 
ARM GAS  /tmp/ccfWo18f.s 			page 312


 16948 183b 524E5332 		.ascii	"RNS2_4LinkE\000"
 16948      5F344C69 
 16948      6E6B4500 
 16949              	.LASF725:
 16950 1847 5F5A4E33 		.ascii	"_ZN3r2p10Middleware4stopEv\000"
 16950      72327031 
 16950      304D6964 
 16950      646C6577 
 16950      61726534 
 16951              	.LASF719:
 16952 1862 69735F73 		.ascii	"is_stopped\000"
 16952      746F7070 
 16952      656400
 16953              	.LASF632:
 16954 186d 5F5A4E33 		.ascii	"_ZN3r2p4Node9advertiseERNS_14LocalPublisherEPKcRKNS"
 16954      72327034 
 16954      4E6F6465 
 16954      39616476 
 16954      65727469 
 16955 18a0 5F345469 		.ascii	"_4TimeEj\000"
 16955      6D65456A 
 16955      00
 16956              	.LASF393:
 16957 18a9 5F5A4E4B 		.ascii	"_ZNK3r2p10StaticListINS_15LocalSubscriberEE10find_f"
 16957      33723270 
 16957      31305374 
 16957      61746963 
 16957      4C697374 
 16958 18dc 69727374 		.ascii	"irstEPFbRKS1_PKvES6_\000"
 16958      45504662 
 16958      524B5331 
 16958      5F504B76 
 16958      4553365F 
 16959              	.LASF621:
 16960 18f1 5F5A4E33 		.ascii	"_ZN3r2p4Node11set_enabledEb\000"
 16960      72327034 
 16960      4E6F6465 
 16960      31317365 
 16960      745F656E 
 16961              	.LASF667:
 16962 190d 5F5A4E33 		.ascii	"_ZN3r2p14RTCANTransport7send_cbER11rtcan_msg_t\000"
 16962      72327031 
 16962      34525443 
 16962      414E5472 
 16962      616E7370 
 16963              	.LASF4:
 16964 193c 756E7369 		.ascii	"unsigned char\000"
 16964      676E6564 
 16964      20636861 
 16964      7200
 16965              	.LASF340:
 16966 194a 5F5A4E33 		.ascii	"_ZN3r2p11MemoryPool_8get_implEv\000"
 16966      72327031 
 16966      314D656D 
 16966      6F727950 
 16966      6F6F6C5F 
 16967              	.LASF242:
ARM GAS  /tmp/ccfWo18f.s 			page 313


 16968 196a 5F5A4E4B 		.ascii	"_ZNK3r2p12StaticQueue_15get_tail_unsafeEv\000"
 16968      33723270 
 16968      31325374 
 16968      61746963 
 16968      51756575 
 16969              	.LASF839:
 16970 1994 54444C52 		.ascii	"TDLR\000"
 16970      00
 16971              	.LASF910:
 16972 1999 52544341 		.ascii	"RTCAN_MSG_BUSY\000"
 16972      4E5F4D53 
 16972      475F4255 
 16972      535900
 16973              	.LASF623:
 16974 19a8 5F5A4E33 		.ascii	"_ZN3r2p4Node13notify_unsafeEj\000"
 16974      72327034 
 16974      4E6F6465 
 16974      31336E6F 
 16974      74696679 
 16975              	.LASF120:
 16976 19c6 736B6970 		.ascii	"skip\000"
 16976      00
 16977              	.LASF27:
 16978 19cb 5F5A4E33 		.ascii	"_ZN3r2p8SysLock_7releaseEv\000"
 16978      72327038 
 16978      5379734C 
 16978      6F636B5F 
 16978      3772656C 
 16979              	.LASF89:
 16980 19e6 5F5A4E33 		.ascii	"_ZN3r2p7Message14acquire_unsafeEv\000"
 16980      72327037 
 16980      4D657373 
 16980      61676531 
 16980      34616371 
 16981              	.LASF397:
 16982 1a08 5F5A4E4B 		.ascii	"_ZNK3r2p10StaticListINS_15LocalSubscriberEE5beginEv"
 16982      33723270 
 16982      31305374 
 16982      61746963 
 16982      4C697374 
 16983 1a3b 00       		.ascii	"\000"
 16984              	.LASF911:
 16985 1a3c 52544341 		.ascii	"RTCAN_MSG_READY\000"
 16985      4E5F4D53 
 16985      475F5245 
 16985      41445900 
 16986              	.LASF960:
 16987 1a4c 5F5A4E33 		.ascii	"_ZN3r2p14RTCANTransportC2ER11RTCANDriver\000"
 16987      72327031 
 16987      34525443 
 16987      414E5472 
 16987      616E7370 
 16988              	.LASF196:
 16989 1a75 5F5A4E33 		.ascii	"_ZN3r2p10StaticListINS_16RemoteSubscriberEE7restart"
 16989      72327031 
 16989      30537461 
 16989      7469634C 
ARM GAS  /tmp/ccfWo18f.s 			page 314


 16989      69737449 
 16990 1aa8 45524E53 		.ascii	"ERNS2_8IteratorE\000"
 16990      325F3849 
 16990      74657261 
 16990      746F7245 
 16990      00
 16991              	.LASF273:
 16992 1ab9 7E537461 		.ascii	"~StaticQueue\000"
 16992      74696351 
 16992      75657565 
 16992      00
 16993              	.LASF794:
 16994 1ac6 705F6E65 		.ascii	"p_newer\000"
 16994      77657200 
 16995              	.LASF549:
 16996 1ace 5370696E 		.ascii	"SpinEvent_\000"
 16996      4576656E 
 16996      745F00
 16997              	.LASF868:
 16998 1ad9 44494552 		.ascii	"DIER\000"
 16998      00
 16999              	.LASF136:
 17000 1ade 5F5A4E33 		.ascii	"_ZN3r2p5Mutex7acquireEv\000"
 17000      72327035 
 17000      4D757465 
 17000      78376163 
 17000      71756972 
 17001              	.LASF304:
 17002 1af6 636F6D70 		.ascii	"compute_stack_size\000"
 17002      7574655F 
 17002      73746163 
 17002      6B5F7369 
 17002      7A6500
 17003              	.LASF843:
 17004 1b09 32334341 		.ascii	"23CAN_FIFOMailBox_TypeDef\000"
 17004      4E5F4649 
 17004      464F4D61 
 17004      696C426F 
 17004      785F5479 
 17005              	.LASF793:
 17006 1b23 705F6374 		.ascii	"p_ctx\000"
 17006      7800
 17007              	.LASF628:
 17008 1b29 6E6F7469 		.ascii	"notify_stop\000"
 17008      66795F73 
 17008      746F7000 
 17009              	.LASF965:
 17010 1b35 61727261 		.ascii	"array\000"
 17010      7900
 17011              	.LASF824:
 17012 1b3b 725F6375 		.ascii	"r_current\000"
 17012      7272656E 
 17012      7400
 17013              	.LASF625:
 17014 1b45 5F5A4E33 		.ascii	"_ZN3r2p4Node18notify_stop_unsafeEv\000"
 17014      72327034 
 17014      4E6F6465 
ARM GAS  /tmp/ccfWo18f.s 			page 315


 17014      31386E6F 
 17014      74696679 
 17015              	.LASF415:
 17016 1b68 5F5A4E4B 		.ascii	"_ZNK3r2p10StaticListINS_5TopicEE12begin_unsafeEv\000"
 17016      33723270 
 17016      31305374 
 17016      61746963 
 17016      4C697374 
 17017              	.LASF265:
 17018 1b99 5F5A4E4B 		.ascii	"_ZNK3r2p11StaticQueueINS_14BaseSubscriberEE12begin_"
 17018      33723270 
 17018      31315374 
 17018      61746963 
 17018      51756575 
 17019 1bcc 756E7361 		.ascii	"unsafeEv\000"
 17019      66654576 
 17019      00
 17020              	.LASF608:
 17021 1bd5 4E6F6465 		.ascii	"Node\000"
 17021      00
 17022              	.LASF730:
 17023 1bda 73746F70 		.ascii	"stop_remote\000"
 17023      5F72656D 
 17023      6F746500 
 17024              	.LASF612:
 17025 1be6 74696D65 		.ascii	"timeout\000"
 17025      6F757400 
 17026              	.LASF915:
 17027 1bee 52544341 		.ascii	"RTCAN_MSG_ERROR\000"
 17027      4E5F4D53 
 17027      475F4552 
 17027      524F5200 
 17028              	.LASF141:
 17029 1bfe 6974656D 		.ascii	"itemp\000"
 17029      7000
 17030              	.LASF275:
 17031 1c04 7E426173 		.ascii	"~BaseSubscriberQueue\000"
 17031      65537562 
 17031      73637269 
 17031      62657251 
 17031      75657565 
 17032              	.LASF663:
 17033 1c19 63726561 		.ascii	"create_subscriber\000"
 17033      74655F73 
 17033      75627363 
 17033      72696265 
 17033      7200
 17034              	.LASF234:
 17035 1c2b 5F5A4E4B 		.ascii	"_ZNK3r2p10StaticListINS_9TransportEE5beginEv\000"
 17035      33723270 
 17035      31305374 
 17035      61746963 
 17035      4C697374 
 17036              	.LASF776:
 17037 1c58 75696E74 		.ascii	"uint64_t\000"
 17037      36345F74 
 17037      00
ARM GAS  /tmp/ccfWo18f.s 			page 316


 17038              	.LASF248:
 17039 1c61 5F5A4E33 		.ascii	"_ZN3r2p12StaticQueue_11skip_unsafeEv\000"
 17039      72327031 
 17039      32537461 
 17039      74696351 
 17039      75657565 
 17040              	.LASF710:
 17041 1c86 5F5A4E4B 		.ascii	"_ZNK3r2p10Middleware9get_nodesEv\000"
 17041      33723270 
 17041      31304D69 
 17041      64646C65 
 17041      77617265 
 17042              	.LASF448:
 17043 1ca7 6765745F 		.ascii	"get_max_queue_length\000"
 17043      6D61785F 
 17043      71756575 
 17043      655F6C65 
 17043      6E677468 
 17044              	.LASF637:
 17045 1cbc 5F5A4E4B 		.ascii	"_ZNK3r2p10MemoryPoolI11rtcan_msg_tE13get_item_sizeE"
 17045      33723270 
 17045      31304D65 
 17045      6D6F7279 
 17045      506F6F6C 
 17046 1cef 7600     		.ascii	"v\000"
 17047              	.LASF433:
 17048 1cf1 546F7069 		.ascii	"Topic\000"
 17048      6300
 17049              	.LASF342:
 17050 1cf7 54687265 		.ascii	"Thread\000"
 17050      616400
 17051              	.LASF50:
 17052 1cfe 5F5A4E4B 		.ascii	"_ZNK3r2p4Time4to_mEv\000"
 17052      33723270 
 17052      3454696D 
 17052      6534746F 
 17052      5F6D4576 
 17053              	.LASF488:
 17054 1d13 6E6F7469 		.ascii	"notify_remotes\000"
 17054      66795F72 
 17054      656D6F74 
 17054      657300
 17055              	.LASF212:
 17056 1d22 5F5A4E4B 		.ascii	"_ZNK3r2p10StaticListINS_9TransportEE15index_of_unsa"
 17056      33723270 
 17056      31305374 
 17056      61746963 
 17056      4C697374 
 17057 1d55 66654552 		.ascii	"feERKS1_\000"
 17057      4B53315F 
 17057      00
 17058              	.LASF154:
 17059 1d5e 5F5A4E4B 		.ascii	"_ZNK3r2p10StaticListINS_16RemoteSubscriberEE12count"
 17059      33723270 
 17059      31305374 
 17059      61746963 
 17059      4C697374 
ARM GAS  /tmp/ccfWo18f.s 			page 317


 17060 1d91 5F756E73 		.ascii	"_unsafeEv\000"
 17060      61666545 
 17060      7600
 17061              	.LASF157:
 17062 1d9b 5F5A4E33 		.ascii	"_ZN3r2p10StaticListINS_16RemoteSubscriberEE11link_u"
 17062      72327031 
 17062      30537461 
 17062      7469634C 
 17062      69737449 
 17063 1dce 6E736166 		.ascii	"nsafeERNS2_4LinkE\000"
 17063      6545524E 
 17063      53325F34 
 17063      4C696E6B 
 17063      4500
 17064              	.LASF714:
 17065 1de0 5F5A4E4B 		.ascii	"_ZNK3r2p10Middleware14get_transportsEv\000"
 17065      33723270 
 17065      31304D69 
 17065      64646C65 
 17065      77617265 
 17066              	.LASF240:
 17067 1e07 5F5A4E4B 		.ascii	"_ZNK3r2p12StaticQueue_15get_head_unsafeEv\000"
 17067      33723270 
 17067      31325374 
 17067      61746963 
 17067      51756575 
 17068              	.LASF244:
 17069 1e31 5F5A4E33 		.ascii	"_ZN3r2p12StaticQueue_11post_unsafeERNS0_4LinkE\000"
 17069      72327031 
 17069      32537461 
 17069      74696351 
 17069      75657565 
 17070              	.LASF610:
 17071 1e60 73756273 		.ascii	"subscribers\000"
 17071      63726962 
 17071      65727300 
 17072              	.LASF516:
 17073 1e6c 5F5A4E4B 		.ascii	"_ZNK3r2p10StaticListINS_14LocalPublisherEE13ConstIt"
 17073      33723270 
 17073      31305374 
 17073      61746963 
 17073      4C697374 
 17074 1e9f 65726174 		.ascii	"eratorneERKS3_\000"
 17074      6F726E65 
 17074      45524B53 
 17074      335F00
 17075              	.LASF538:
 17076 1eae 5F5A4E33 		.ascii	"_ZN3r2p10StaticListINS_14LocalPublisherEE6unlinkERN"
 17076      72327031 
 17076      30537461 
 17076      7469634C 
 17076      69737449 
 17077 1ee1 53325F34 		.ascii	"S2_4LinkE\000"
 17077      4C696E6B 
 17077      4500
 17078              	.LASF127:
 17079 1eeb 5F5A4E33 		.ascii	"_ZN3r2p6Mutex_14release_unsafeEv\000"
ARM GAS  /tmp/ccfWo18f.s 			page 318


 17079      72327036 
 17079      4D757465 
 17079      785F3134 
 17079      72656C65 
 17080              	.LASF43:
 17081 1f0c 746F5F75 		.ascii	"to_us\000"
 17081      7300
 17082              	.LASF66:
 17083 1f12 696D706C 		.ascii	"impl\000"
 17083      00
 17084              	.LASF566:
 17085 1f17 5F5A4E33 		.ascii	"_ZN3r2p9SpinEvent6signalEj\000"
 17085      72327039 
 17085      5370696E 
 17085      4576656E 
 17085      74367369 
 17086              	.LASF642:
 17087 1f32 5F5A4E33 		.ascii	"_ZN3r2p10MemoryPoolI11rtcan_msg_tE6extendEPS1_j\000"
 17087      72327031 
 17087      304D656D 
 17087      6F727950 
 17087      6F6F6C49 
 17088              	.LASF329:
 17089 1f62 5F5A4E4B 		.ascii	"_ZNK3r2p11MemoryPool_13get_allocatorEv\000"
 17089      33723270 
 17089      31314D65 
 17089      6D6F7279 
 17089      506F6F6C 
 17090              	.LASF347:
 17091 1f89 5F5A4E33 		.ascii	"_ZN3r2p6Thread4selfEv\000"
 17091      72327036 
 17091      54687265 
 17091      61643473 
 17091      656C6645 
 17092              	.LASF346:
 17093 1f9f 5F5A4E33 		.ascii	"_ZN3r2p6Thread11create_heapEPvjmPFlS1_ES1_PKc\000"
 17093      72327036 
 17093      54687265 
 17093      61643131 
 17093      63726561 
 17094              	.LASF598:
 17095 1fcd 5F5A4E4B 		.ascii	"_ZNK3r2p10StaticListINS_4NodeEE8index_ofERKS1_\000"
 17095      33723270 
 17095      31305374 
 17095      61746963 
 17095      4C697374 
 17096              	.LASF372:
 17097 1ffc 5F5A4E33 		.ascii	"_ZN3r2p10StaticListINS_15LocalSubscriberEE11link_un"
 17097      72327031 
 17097      30537461 
 17097      7469634C 
 17097      69737449 
 17098 202f 73616665 		.ascii	"safeERNS2_4LinkE\000"
 17098      45524E53 
 17098      325F344C 
 17098      696E6B45 
 17098      00
ARM GAS  /tmp/ccfWo18f.s 			page 319


 17099              	.LASF927:
 17100 2040 31315254 		.ascii	"11RTCANConfig\000"
 17100      43414E43 
 17100      6F6E6669 
 17100      6700
 17101              	.LASF252:
 17102 204e 5F5A4E4B 		.ascii	"_ZNK3r2p12StaticQueue_8is_emptyEv\000"
 17102      33723270 
 17102      31325374 
 17102      61746963 
 17102      51756575 
 17103              	.LASF62:
 17104 2070 54696D65 		.ascii	"TimestampedMsgPtrQueue\000"
 17104      7374616D 
 17104      7065644D 
 17104      73675074 
 17104      72517565 
 17105              	.LASF137:
 17106 2087 5F5A4E33 		.ascii	"_ZN3r2p5Mutex7releaseEv\000"
 17106      72327035 
 17106      4D757465 
 17106      78377265 
 17106      6C656173 
 17107              	.LASF270:
 17108 209f 5F5A4E33 		.ascii	"_ZN3r2p11StaticQueueINS_14BaseSubscriberEE5fetchERN"
 17108      72327031 
 17108      31537461 
 17108      74696351 
 17108      75657565 
 17109 20d2 53325F34 		.ascii	"S2_4LinkE\000"
 17109      4C696E6B 
 17109      4500
 17110              	.LASF335:
 17111 20dc 5F5A4E33 		.ascii	"_ZN3r2p11MemoryPool_5allocEv\000"
 17111      72327031 
 17111      314D656D 
 17111      6F727950 
 17111      6F6F6C5F 
 17112              	.LASF132:
 17113 20f9 4D757465 		.ascii	"Mutex\000"
 17113      7800
 17114              	.LASF527:
 17115 20ff 5F5A4E4B 		.ascii	"_ZNK3r2p10StaticListINS_14LocalPublisherEE17find_fi"
 17115      33723270 
 17115      31305374 
 17115      61746963 
 17115      4C697374 
 17116 2132 7273745F 		.ascii	"rst_unsafeEPFbRKS1_PKvES6_\000"
 17116      756E7361 
 17116      66654550 
 17116      4662524B 
 17116      53315F50 
 17117              	.LASF213:
 17118 214d 5F5A4E4B 		.ascii	"_ZNK3r2p10StaticListINS_9TransportEE15contains_unsa"
 17118      33723270 
 17118      31305374 
 17118      61746963 
ARM GAS  /tmp/ccfWo18f.s 			page 320


 17118      4C697374 
 17119 2180 66654552 		.ascii	"feERKS1_\000"
 17119      4B53315F 
 17119      00
 17120              	.LASF384:
 17121 2189 5F5A4E4B 		.ascii	"_ZNK3r2p10StaticListINS_15LocalSubscriberEE14restar"
 17121      33723270 
 17121      31305374 
 17121      61746963 
 17121      4C697374 
 17122 21bc 745F756E 		.ascii	"t_unsafeERNS2_19ConstIteratorUnsafeE\000"
 17122      73616665 
 17122      45524E53 
 17122      325F3139 
 17122      436F6E73 
 17123              	.LASF554:
 17124 21e1 7365745F 		.ascii	"set_thread\000"
 17124      74687265 
 17124      616400
 17125              	.LASF33:
 17126 21ec 494E4649 		.ascii	"INFINITE\000"
 17126      4E495445 
 17126      00
 17127              	.LASF768:
 17128 21f5 73746174 		.ascii	"static_cast_check<r2p::Message, r2p::Message>\000"
 17128      69635F63 
 17128      6173745F 
 17128      63686563 
 17128      6B3C7232 
 17129              	.LASF434:
 17130 2223 6E616D65 		.ascii	"namep\000"
 17130      7000
 17131              	.LASF175:
 17132 2229 5F5A4E4B 		.ascii	"_ZNK3r2p10StaticListINS_16RemoteSubscriberEE10end_u"
 17132      33723270 
 17132      31305374 
 17132      61746963 
 17132      4C697374 
 17133 225c 6E736166 		.ascii	"nsafeEv\000"
 17133      65457600 
 17134              	.LASF153:
 17135 2264 636F756E 		.ascii	"count_unsafe\000"
 17135      745F756E 
 17135      73616665 
 17135      00
 17136              	.LASF182:
 17137 2271 6C696E6B 		.ascii	"link\000"
 17137      00
 17138              	.LASF38:
 17139 2276 5F5A4E4B 		.ascii	"_ZNK3r2p4Time9to_ms_rawEv\000"
 17139      33723270 
 17139      3454696D 
 17139      6539746F 
 17139      5F6D735F 
 17140              	.LASF208:
 17141 2290 5F5A4E4B 		.ascii	"_ZNK3r2p10StaticListINS_9TransportEE12count_unsafeE"
 17141      33723270 
ARM GAS  /tmp/ccfWo18f.s 			page 321


 17141      31305374 
 17141      61746963 
 17141      4C697374 
 17142 22c3 7600     		.ascii	"v\000"
 17143              	.LASF82:
 17144 22c5 54797065 		.ascii	"Type\000"
 17144      00
 17145              	.LASF151:
 17146 22ca 5F5A4E4B 		.ascii	"_ZNK3r2p10StaticListINS_16RemoteSubscriberEE15get_h"
 17146      33723270 
 17146      31305374 
 17146      61746963 
 17146      4C697374 
 17147 22fd 6561645F 		.ascii	"ead_unsafeEv\000"
 17147      756E7361 
 17147      66654576 
 17147      00
 17148              	.LASF804:
 17149 230a 705F6D73 		.ascii	"p_msgqueue\000"
 17149      67717565 
 17149      756500
 17150              	.LASF504:
 17151 2315 616C6C6F 		.ascii	"alloc<r2p::Message>\000"
 17151      633C7232 
 17151      703A3A4D 
 17151      65737361 
 17151      67653E00 
 17152              	.LASF894:
 17153 2329 73697A65 		.ascii	"size\000"
 17153      00
 17154              	.LASF143:
 17155 232e 49746572 		.ascii	"IteratorUnsafe\000"
 17155      61746F72 
 17155      556E7361 
 17155      666500
 17156              	.LASF24:
 17157 233d 61637175 		.ascii	"acquire\000"
 17157      69726500 
 17158              	.LASF591:
 17159 2345 5F5A4E4B 		.ascii	"_ZNK3r2p10StaticListINS_4NodeEE10end_unsafeEv\000"
 17159      33723270 
 17159      31305374 
 17159      61746963 
 17159      4C697374 
 17160              	.LASF645:
 17161 2373 52544341 		.ascii	"RTCANTransport\000"
 17161      4E547261 
 17161      6E73706F 
 17161      727400
 17162              	.LASF302:
 17163 2382 5F5A4E4B 		.ascii	"_ZNK3r2p7Thread_8get_nameEv\000"
 17163      33723270 
 17163      37546872 
 17163      6561645F 
 17163      38676574 
 17164              	.LASF929:
 17165 239e 636C6F63 		.ascii	"clock\000"
ARM GAS  /tmp/ccfWo18f.s 			page 322


 17165      6B00
 17166              	.LASF421:
 17167 23a4 5F5A4E33 		.ascii	"_ZN3r2p10StaticListINS_5TopicEE4linkERNS2_4LinkE\000"
 17167      72327031 
 17167      30537461 
 17167      7469634C 
 17167      69737449 
 17168              	.LASF953:
 17169 23d5 72746361 		.ascii	"rtcan_id\000"
 17169      6E5F6964 
 17169      00
 17170              	.LASF865:
 17171 23de 43414E5F 		.ascii	"CAN_TypeDef\000"
 17171      54797065 
 17171      44656600 
 17172              	.LASF100:
 17173 23ea 5F5A4E33 		.ascii	"_ZN3r2p7Message21get_msg_from_raw_dataEPKh\000"
 17173      72327037 
 17173      4D657373 
 17173      61676532 
 17173      31676574 
 17174              	.LASF2:
 17175 2415 73697A65 		.ascii	"size_t\000"
 17175      5F7400
 17176              	.LASF105:
 17177 241c 5F5A4E33 		.ascii	"_ZN3r2p7Message13get_type_sizeEj\000"
 17177      72327037 
 17177      4D657373 
 17177      61676531 
 17177      33676574 
 17178              	.LASF222:
 17179 243d 5F5A4E4B 		.ascii	"_ZNK3r2p10StaticListINS_9TransportEE8get_headEv\000"
 17179      33723270 
 17179      31305374 
 17179      61746963 
 17179      4C697374 
 17180              	.LASF407:
 17181 246d 5F5A4E33 		.ascii	"_ZN3r2p10StaticListINS_5TopicEE13unlink_unsafeERNS2"
 17181      72327031 
 17181      30537461 
 17181      7469634C 
 17181      69737449 
 17182 24a0 5F344C69 		.ascii	"_4LinkE\000"
 17182      6E6B4500 
 17183              	.LASF699:
 17184 24a8 69746572 		.ascii	"iter_nodes\000"
 17184      5F6E6F64 
 17184      657300
 17185              	.LASF668:
 17186 24b3 5F5A4E33 		.ascii	"_ZN3r2p14RTCANTransport7recv_cbER11rtcan_msg_t\000"
 17186      72327031 
 17186      34525443 
 17186      414E5472 
 17186      616E7370 
 17187              	.LASF32:
 17188 24e2 494D4D45 		.ascii	"IMMEDIATE\000"
 17188      44494154 
ARM GAS  /tmp/ccfWo18f.s 			page 323


 17188      4500
 17189              	.LASF810:
 17190 24ec 54687265 		.ascii	"ThreadsQueue\000"
 17190      61647351 
 17190      75657565 
 17190      00
 17191              	.LASF772:
 17192 24f9 75696E74 		.ascii	"uint8_t\000"
 17192      385F7400 
 17193              	.LASF935:
 17194 2501 5F5A4E33 		.ascii	"_ZN3r2p10UncopyableD2Ev\000"
 17194      72327031 
 17194      30556E63 
 17194      6F707961 
 17194      626C6544 
 17195              	.LASF823:
 17196 2519 725F6F6C 		.ascii	"r_older\000"
 17196      64657200 
 17197              	.LASF791:
 17198 2521 705F7072 		.ascii	"p_prev\000"
 17198      657600
 17199              	.LASF957:
 17200 2528 5F5A4E33 		.ascii	"_ZN3r2p11StaticQueueINS_14BaseSubscriberEED2Ev\000"
 17200      72327031 
 17200      31537461 
 17200      74696351 
 17200      75657565 
 17201              	.LASF744:
 17202 2557 5F5A4E33 		.ascii	"_ZN3r2p10Middleware10find_topicEPKc\000"
 17202      72327031 
 17202      304D6964 
 17202      646C6577 
 17202      61726531 
 17203              	.LASF204:
 17204 257b 5F5A4E4B 		.ascii	"_ZNK3r2p16RemoteSubscriber13get_transportEv\000"
 17204      33723270 
 17204      31365265 
 17204      6D6F7465 
 17204      53756273 
 17205              	.LASF503:
 17206 25a7 5F5A4E33 		.ascii	"_ZN3r2p5Topic8has_nameERKS0_PKc\000"
 17206      72327035 
 17206      546F7069 
 17206      63386861 
 17206      735F6E61 
 17207              	.LASF918:
 17208 25c7 31306D73 		.ascii	"10msgqueue_t\000"
 17208      67717565 
 17208      75655F74 
 17208      00
 17209              	.LASF523:
 17210 25d4 5F5A4E33 		.ascii	"_ZN3r2p10StaticListINS_14LocalPublisherEE13unlink_u"
 17210      72327031 
 17210      30537461 
 17210      7469634C 
 17210      69737449 
 17211 2607 6E736166 		.ascii	"nsafeERNS2_4LinkE\000"
ARM GAS  /tmp/ccfWo18f.s 			page 324


 17211      6545524E 
 17211      53325F34 
 17211      4C696E6B 
 17211      4500
 17212              	.LASF202:
 17213 2619 4974656D 		.ascii	"Item\000"
 17213      00
 17214              	.LASF595:
 17215 261e 5F5A4E4B 		.ascii	"_ZNK3r2p10StaticListINS_4NodeEE5countEv\000"
 17215      33723270 
 17215      31305374 
 17215      61746963 
 17215      4C697374 
 17216              	.LASF111:
 17217 2646 7461696C 		.ascii	"tailp\000"
 17217      7000
 17218              	.LASF973:
 17219 264c 2F686F6D 		.ascii	"/home/ergae/r2p-sdk/core/Middleware/src/transport/R"
 17219      652F6572 
 17219      6761652F 
 17219      7232702D 
 17219      73646B2F 
 17220 267f 5443414E 		.ascii	"TCANTransport.cpp\000"
 17220      5472616E 
 17220      73706F72 
 17220      742E6370 
 17220      7000
 17221              	.LASF599:
 17222 2691 5F5A4E4B 		.ascii	"_ZNK3r2p10StaticListINS_4NodeEE8containsERKS1_\000"
 17222      33723270 
 17222      31305374 
 17222      61746963 
 17222      4C697374 
 17223              	.LASF235:
 17224 26c0 5F5A4E4B 		.ascii	"_ZNK3r2p10StaticListINS_9TransportEE3endEv\000"
 17224      33723270 
 17224      31305374 
 17224      61746963 
 17224      4C697374 
 17225              	.LASF450:
 17226 26eb 69735F66 		.ascii	"is_forwarding\000"
 17226      6F727761 
 17226      7264696E 
 17226      6700
 17227              	.LASF741:
 17228 26f9 636F6E66 		.ascii	"confirm_stop\000"
 17228      69726D5F 
 17228      73746F70 
 17228      00
 17229              	.LASF266:
 17230 2706 5F5A4E4B 		.ascii	"_ZNK3r2p11StaticQueueINS_14BaseSubscriberEE10end_un"
 17230      33723270 
 17230      31315374 
 17230      61746963 
 17230      51756575 
 17231 2739 73616665 		.ascii	"safeEv\000"
 17231      457600
ARM GAS  /tmp/ccfWo18f.s 			page 325


 17232              	.LASF954:
 17233 2740 5F5A4E33 		.ascii	"_ZN3r2p11MemoryPool_D2Ev\000"
 17233      72327031 
 17233      314D656D 
 17233      6F727950 
 17233      6F6F6C5F 
 17234              	.LASF533:
 17235 2759 5F5A4E4B 		.ascii	"_ZNK3r2p10StaticListINS_14LocalPublisherEE14restart"
 17235      33723270 
 17235      31305374 
 17235      61746963 
 17235      4C697374 
 17236 278c 5F756E73 		.ascii	"_unsafeERNS2_19ConstIteratorUnsafeE\000"
 17236      61666545 
 17236      524E5332 
 17236      5F313943 
 17236      6F6E7374 
 17237              	.LASF770:
 17238 27b0 42617365 		.ascii	"Base\000"
 17238      00
 17239              	.LASF489:
 17240 27b5 5F5A4E33 		.ascii	"_ZN3r2p5Topic14notify_remotesERNS_7MessageERKNS_4Ti"
 17240      72327035 
 17240      546F7069 
 17240      6331346E 
 17240      6F746966 
 17241 27e8 6D654500 		.ascii	"meE\000"
 17242              	.LASF428:
 17243 27ec 5F5A4E33 		.ascii	"_ZN3r2p10StaticListINS_5TopicEE3endEv\000"
 17243      72327031 
 17243      30537461 
 17243      7469634C 
 17243      69737449 
 17244              	.LASF178:
 17245 2812 5F5A4E4B 		.ascii	"_ZNK3r2p10StaticListINS_16RemoteSubscriberEE8get_he"
 17245      33723270 
 17245      31305374 
 17245      61746963 
 17245      4C697374 
 17246 2845 61644576 		.ascii	"adEv\000"
 17246      00
 17247              	.LASF317:
 17248 284a 5F5A4E33 		.ascii	"_ZN3r2p7Thread_12set_priorityEm\000"
 17248      72327037 
 17248      54687265 
 17248      61645F31 
 17248      32736574 
 17249              	.LASF436:
 17250 286a 6D73675F 		.ascii	"msg_pool\000"
 17250      706F6F6C 
 17250      00
 17251              	.LASF690:
 17252 2873 6D676D74 		.ascii	"mgmt_stackp\000"
 17252      5F737461 
 17252      636B7000 
 17253              	.LASF528:
 17254 287f 5F5A4E33 		.ascii	"_ZN3r2p10StaticListINS_14LocalPublisherEE12begin_un"
ARM GAS  /tmp/ccfWo18f.s 			page 326


 17254      72327031 
 17254      30537461 
 17254      7469634C 
 17254      69737449 
 17255 28b2 73616665 		.ascii	"safeEv\000"
 17255      457600
 17256              	.LASF462:
 17257 28b9 6861735F 		.ascii	"has_subscribers\000"
 17257      73756273 
 17257      63726962 
 17257      65727300 
 17258              	.LASF923:
 17259 28c9 7372745F 		.ascii	"srt_queue\000"
 17259      71756575 
 17259      6500
 17260              	.LASF79:
 17261 28d3 66657463 		.ascii	"fetch\000"
 17261      6800
 17262              	.LASF263:
 17263 28d9 5F5A4E33 		.ascii	"_ZN3r2p11StaticQueueINS_14BaseSubscriberEE12fetch_u"
 17263      72327031 
 17263      31537461 
 17263      74696351 
 17263      75657565 
 17264 290c 6E736166 		.ascii	"nsafeERNS2_4LinkE\000"
 17264      6545524E 
 17264      53325F34 
 17264      4C696E6B 
 17264      4500
 17265              	.LASF631:
 17266 291e 5F5A4E33 		.ascii	"_ZN3r2p4Node4spinERKNS_4TimeE\000"
 17266      72327034 
 17266      4E6F6465 
 17266      34737069 
 17266      6E45524B 
 17267              	.LASF188:
 17268 293c 636F6E74 		.ascii	"contains\000"
 17268      61696E73 
 17268      00
 17269              	.LASF257:
 17270 2945 5F5A4E33 		.ascii	"_ZN3r2p12StaticQueue_4skipEv\000"
 17270      72327031 
 17270      32537461 
 17270      74696351 
 17270      75657565 
 17271              	.LASF622:
 17272 2962 6E6F7469 		.ascii	"notify_unsafe\000"
 17272      66795F75 
 17272      6E736166 
 17272      6500
 17273              	.LASF125:
 17274 2970 5F5A4E33 		.ascii	"_ZN3r2p6Mutex_10initializeEv\000"
 17274      72327036 
 17274      4D757465 
 17274      785F3130 
 17274      696E6974 
 17275              	.LASF130:
ARM GAS  /tmp/ccfWo18f.s 			page 327


 17276 298d 6765745F 		.ascii	"get_impl\000"
 17276      696D706C 
 17276      00
 17277              	.LASF115:
 17278 2996 5F5A4E33 		.ascii	"_ZN3r2p10ArrayQueueINS_22TimestampedMsgPtrQueue5Ent"
 17278      72327031 
 17278      30417272 
 17278      61795175 
 17278      65756549 
 17279 29c9 72794545 		.ascii	"ryEE11skip_unsafeEv\000"
 17279      3131736B 
 17279      69705F75 
 17279      6E736166 
 17279      65457600 
 17280              	.LASF318:
 17281 29dd 7969656C 		.ascii	"yield\000"
 17281      6400
 17282              	.LASF348:
 17283 29e3 5F5A4E33 		.ascii	"_ZN3r2p6Thread12get_priorityEv\000"
 17283      72327036 
 17283      54687265 
 17283      61643132 
 17283      6765745F 
 17284              	.LASF337:
 17285 2a02 5F5A4E33 		.ascii	"_ZN3r2p11MemoryPool_4freeEPv\000"
 17285      72327031 
 17285      314D656D 
 17285      6F727950 
 17285      6F6F6C5F 
 17286              	.LASF749:
 17287 2a1f 6D676D74 		.ascii	"mgmt_threadf\000"
 17287      5F746872 
 17287      65616466 
 17287      00
 17288              	.LASF274:
 17289 2a2c 42617365 		.ascii	"BaseSubscriberQueue\000"
 17289      53756273 
 17289      63726962 
 17289      65725175 
 17289      65756500 
 17290              	.LASF874:
 17291 2a40 43435231 		.ascii	"CCR1\000"
 17291      00
 17292              	.LASF875:
 17293 2a45 43435232 		.ascii	"CCR2\000"
 17293      00
 17294              	.LASF876:
 17295 2a4a 43435233 		.ascii	"CCR3\000"
 17295      00
 17296              	.LASF877:
 17297 2a4f 43435234 		.ascii	"CCR4\000"
 17297      00
 17298              	.LASF883:
 17299 2a54 43435235 		.ascii	"CCR5\000"
 17299      00
 17300              	.LASF355:
 17301 2a59 5F5A4E33 		.ascii	"_ZN3r2p10StaticListINS_15LocalSubscriberEE13ConstIt"
ARM GAS  /tmp/ccfWo18f.s 			page 328


 17301      72327031 
 17301      30537461 
 17301      7469634C 
 17301      69737449 
 17302 2a8c 65726174 		.ascii	"eratoraSERKS3_\000"
 17302      6F726153 
 17302      45524B53 
 17302      335F00
 17303              	.LASF821:
 17304 2a9b 725F6374 		.ascii	"r_ctx\000"
 17304      7800
 17305              	.LASF716:
 17306 2aa1 5F5A4E33 		.ascii	"_ZN3r2p10Middleware14get_mgmt_topicEv\000"
 17306      72327031 
 17306      304D6964 
 17306      646C6577 
 17306      61726531 
 17307              	.LASF947:
 17308 2ac7 70756270 		.ascii	"pubp\000"
 17308      00
 17309              	.LASF729:
 17310 2acc 5F5A4E33 		.ascii	"_ZN3r2p10Middleware23preload_bootloader_modeEb\000"
 17310      72327031 
 17310      304D6964 
 17310      646C6577 
 17310      61726532 
 17311              	.LASF238:
 17312 2afb 53746174 		.ascii	"StaticQueue_\000"
 17312      69635175 
 17312      6575655F 
 17312      00
 17313              	.LASF649:
 17314 2b08 73756270 		.ascii	"subp_queue\000"
 17314      5F717565 
 17314      756500
 17315              	.LASF624:
 17316 2b13 6E6F7469 		.ascii	"notify_stop_unsafe\000"
 17316      66795F73 
 17316      746F705F 
 17316      756E7361 
 17316      666500
 17317              	.LASF286:
 17318 2b26 73746F70 		.ascii	"stopped\000"
 17318      70656400 
 17319              	.LASF35:
 17320 2b2e 746F5F75 		.ascii	"to_us_raw\000"
 17320      735F7261 
 17320      7700
 17321              	.LASF786:
 17322 2b38 7264796D 		.ascii	"rdymsg\000"
 17322      736700
 17323              	.LASF684:
 17324 2b3f 6D6F6475 		.ascii	"module_namep\000"
 17324      6C655F6E 
 17324      616D6570 
 17324      00
 17325              	.LASF704:
ARM GAS  /tmp/ccfWo18f.s 			page 329


 17326 2b4c 696E7374 		.ascii	"instance\000"
 17326      616E6365 
 17326      00
 17327              	.LASF838:
 17328 2b55 54445452 		.ascii	"TDTR\000"
 17328      00
 17329              	.LASF512:
 17330 2b5a 5F5A4E4B 		.ascii	"_ZNK3r2p10StaticListINS_14LocalPublisherEE13ConstIt"
 17330      33723270 
 17330      31305374 
 17330      61746963 
 17330      4C697374 
 17331 2b8d 65726174 		.ascii	"eratordeEv\000"
 17331      6F726465 
 17331      457600
 17332              	.LASF943:
 17333 2b98 72737562 		.ascii	"rsubp\000"
 17333      7000
 17334              	.LASF662:
 17335 2b9e 5F5A4E4B 		.ascii	"_ZNK3r2p14RTCANTransport16create_publisherERNS_5Top"
 17335      33723270 
 17335      31345254 
 17335      43414E54 
 17335      72616E73 
 17336 2bd1 69634550 		.ascii	"icEPKh\000"
 17336      4B6800
 17337              	.LASF268:
 17338 2bd8 5F5A4E33 		.ascii	"_ZN3r2p11StaticQueueINS_14BaseSubscriberEE4postERNS"
 17338      72327031 
 17338      31537461 
 17338      74696351 
 17338      75657565 
 17339 2c0b 325F344C 		.ascii	"2_4LinkE\000"
 17339      696E6B45 
 17339      00
 17340              	.LASF849:
 17341 2c14 43414E5F 		.ascii	"CAN_FilterRegister_TypeDef\000"
 17341      46696C74 
 17341      65725265 
 17341      67697374 
 17341      65725F54 
 17342              	.LASF606:
 17343 2c2f 5F5A4E4B 		.ascii	"_ZNK3r2p10StaticListINS_4NodeEE3endEv\000"
 17343      33723270 
 17343      31305374 
 17343      61746963 
 17343      4C697374 
 17344              	.LASF842:
 17345 2c55 32314341 		.ascii	"21CAN_TxMailBox_TypeDef\000"
 17345      4E5F5478 
 17345      4D61696C 
 17345      426F785F 
 17345      54797065 
 17346              	.LASF581:
 17347 2c6d 5F5A4E33 		.ascii	"_ZN3r2p10StaticListINS_4NodeEE16link_tail_unsafeERN"
 17347      72327031 
 17347      30537461 
ARM GAS  /tmp/ccfWo18f.s 			page 330


 17347      7469634C 
 17347      69737449 
 17348 2ca0 53325F34 		.ascii	"S2_4LinkE\000"
 17348      4C696E6B 
 17348      4500
 17349              	.LASF977:
 17350 2caa 7E525443 		.ascii	"~RTCANTransport\000"
 17350      414E5472 
 17350      616E7370 
 17350      6F727400 
 17351              	.LASF368:
 17352 2cba 5F5A4E4B 		.ascii	"_ZNK3r2p10StaticListINS_15LocalSubscriberEE13ConstI"
 17352      33723270 
 17352      31305374 
 17352      61746963 
 17352      4C697374 
 17353 2ced 74657261 		.ascii	"terator8is_validEv\000"
 17353      746F7238 
 17353      69735F76 
 17353      616C6964 
 17353      457600
 17354              	.LASF395:
 17355 2d00 5F5A4E33 		.ascii	"_ZN3r2p10StaticListINS_15LocalSubscriberEE3endEv\000"
 17355      72327031 
 17355      30537461 
 17355      7469634C 
 17355      69737449 
 17356              	.LASF482:
 17357 2d31 5F5A4E4B 		.ascii	"_ZNK3r2p5Topic16compute_deadlineEv\000"
 17357      33723270 
 17357      35546F70 
 17357      69633136 
 17357      636F6D70 
 17358              	.LASF64:
 17359 2d54 74696D65 		.ascii	"timestamp\000"
 17359      7374616D 
 17359      7000
 17360              	.LASF615:
 17361 2d5e 5F5A4E4B 		.ascii	"_ZNK3r2p4Node14get_publishersEv\000"
 17361      33723270 
 17361      344E6F64 
 17361      65313467 
 17361      65745F70 
 17362              	.LASF90:
 17363 2d7e 72656C65 		.ascii	"release_unsafe\000"
 17363      6173655F 
 17363      756E7361 
 17363      666500
 17364              	.LASF580:
 17365 2d8d 5F5A4E33 		.ascii	"_ZN3r2p10StaticListINS_4NodeEE11link_unsafeERNS2_4L"
 17365      72327031 
 17365      30537461 
 17365      7469634C 
 17365      69737449 
 17366 2dc0 696E6B45 		.ascii	"inkE\000"
 17366      00
 17367              	.LASF505:
ARM GAS  /tmp/ccfWo18f.s 			page 331


 17368 2dc5 5F5A4E33 		.ascii	"_ZN3r2p5Topic5allocINS_7MessageEEEbRPT_\000"
 17368      72327035 
 17368      546F7069 
 17368      6335616C 
 17368      6C6F6349 
 17369              	.LASF480:
 17370 2ded 636F6D70 		.ascii	"compute_deadline\000"
 17370      7574655F 
 17370      64656164 
 17370      6C696E65 
 17370      00
 17371              	.LASF84:
 17372 2dfe 72656663 		.ascii	"refcount\000"
 17372      6F756E74 
 17372      00
 17373              	.LASF13:
 17374 2e07 5F5F7569 		.ascii	"__uint64_t\000"
 17374      6E743634 
 17374      5F7400
 17375              	.LASF250:
 17376 2e12 6765745F 		.ascii	"get_tail\000"
 17376      7461696C 
 17376      00
 17377              	.LASF440:
 17378 2e1b 72656D6F 		.ascii	"remote_subscribers\000"
 17378      74655F73 
 17378      75627363 
 17378      72696265 
 17378      727300
 17379              	.LASF328:
 17380 2e2e 6765745F 		.ascii	"get_allocator\000"
 17380      616C6C6F 
 17380      6361746F 
 17380      7200
 17381              	.LASF979:
 17382 2e3c 42617365 		.ascii	"BasePublisher\000"
 17382      5075626C 
 17382      69736865 
 17382      7200
 17383              	.LASF917:
 17384 2e4a 72746361 		.ascii	"rtcan_id_t\000"
 17384      6E5F6964 
 17384      5F7400
 17385              	.LASF509:
 17386 2e55 436F6E73 		.ascii	"ConstLink\000"
 17386      744C696E 
 17386      6B00
 17387              	.LASF893:
 17388 2e5f 70617261 		.ascii	"params\000"
 17388      6D7300
 17389              	.LASF456:
 17390 2e66 6861735F 		.ascii	"has_publishers\000"
 17390      7075626C 
 17390      69736865 
 17390      727300
 17391              	.LASF104:
 17392 2e75 5F5A4E33 		.ascii	"_ZN3r2p7Message4copyERS0_RKS0_j\000"
ARM GAS  /tmp/ccfWo18f.s 			page 332


 17392      72327037 
 17392      4D657373 
 17392      61676534 
 17392      636F7079 
 17393              	.LASF755:
 17394 2e95 646F5F63 		.ascii	"do_cmd_subscribe_request\000"
 17394      6D645F73 
 17394      75627363 
 17394      72696265 
 17394      5F726571 
 17395              	.LASF159:
 17396 2eae 756E6C69 		.ascii	"unlink_unsafe\000"
 17396      6E6B5F75 
 17396      6E736166 
 17396      6500
 17397              	.LASF753:
 17398 2ebc 646F5F63 		.ascii	"do_cmd_advertise\000"
 17398      6D645F61 
 17398      64766572 
 17398      74697365 
 17398      00
 17399              	.LASF469:
 17400 2ecd 5F5A4E4B 		.ascii	"_ZNK3r2p5Topic23compute_deadline_unsafeERKNS_4TimeE"
 17400      33723270 
 17400      35546F70 
 17400      69633233 
 17400      636F6D70 
 17401 2f00 00       		.ascii	"\000"
 17402              	.LASF306:
 17403 2f01 63726561 		.ascii	"create_static\000"
 17403      74655F73 
 17403      74617469 
 17403      6300
 17404              	.LASF330:
 17405 2f0f 616C6C6F 		.ascii	"alloc_unsafe\000"
 17405      635F756E 
 17405      73616665 
 17405      00
 17406              	.LASF343:
 17407 2f1c 5F5A4E4B 		.ascii	"_ZNK3r2p6Thread8get_nameEv\000"
 17407      33723270 
 17407      36546872 
 17407      65616438 
 17407      6765745F 
 17408              	.LASF521:
 17409 2f37 5F5A4E33 		.ascii	"_ZN3r2p10StaticListINS_14LocalPublisherEE11link_uns"
 17409      72327031 
 17409      30537461 
 17409      7469634C 
 17409      69737449 
 17410 2f6a 61666545 		.ascii	"afeERNS2_4LinkE\000"
 17410      524E5332 
 17410      5F344C69 
 17410      6E6B4500 
 17411              	.LASF853:
 17412 2f7a 7354784D 		.ascii	"sTxMailBox\000"
 17412      61696C42 
ARM GAS  /tmp/ccfWo18f.s 			page 333


 17412      6F7800
 17413              	.LASF932:
 17414 2f85 74686973 		.ascii	"this\000"
 17414      00
 17415              	.LASF790:
 17416 2f8a 705F6E65 		.ascii	"p_next\000"
 17416      787400
 17417              	.LASF381:
 17418 2f91 5F5A4E33 		.ascii	"_ZN3r2p10StaticListINS_15LocalSubscriberEE14restart"
 17418      72327031 
 17418      30537461 
 17418      7469634C 
 17418      69737449 
 17419 2fc4 5F756E73 		.ascii	"_unsafeERNS2_14IteratorUnsafeE\000"
 17419      61666545 
 17419      524E5332 
 17419      5F313449 
 17419      74657261 
 17420              	.LASF439:
 17421 2fe3 6C6F6361 		.ascii	"local_subscribers\000"
 17421      6C5F7375 
 17421      62736372 
 17421      69626572 
 17421      7300
 17422              	.LASF888:
 17423 2ff5 736C6F74 		.ascii	"slot\000"
 17423      00
 17424              	.LASF769:
 17425 2ffa 54657374 		.ascii	"Test\000"
 17425      00
 17426              	.LASF394:
 17427 2fff 5F5A4E33 		.ascii	"_ZN3r2p10StaticListINS_15LocalSubscriberEE5beginEv\000"
 17427      72327031 
 17427      30537461 
 17427      7469634C 
 17427      69737449 
 17428              	.LASF767:
 17429 3032 66726565 		.ascii	"free_header\000"
 17429      5F686561 
 17429      64657200 
 17430              	.LASF892:
 17431 303e 63616C6C 		.ascii	"callback\000"
 17431      6261636B 
 17431      00
 17432              	.LASF411:
 17433 3047 5F5A4E4B 		.ascii	"_ZNK3r2p10StaticListINS_5TopicEE17find_first_unsafe"
 17433      33723270 
 17433      31305374 
 17433      61746963 
 17433      4C697374 
 17434 307a 45504662 		.ascii	"EPFbRKS1_PKvES6_\000"
 17434      524B5331 
 17434      5F504B76 
 17434      4553365F 
 17434      00
 17435              	.LASF484:
 17436 308b 5F5A4E33 		.ascii	"_ZN3r2p5Topic7releaseERNS_7MessageE\000"
ARM GAS  /tmp/ccfWo18f.s 			page 334


 17436      72327035 
 17436      546F7069 
 17436      63377265 
 17436      6C656173 
 17437              	.LASF413:
 17438 30af 5F5A4E33 		.ascii	"_ZN3r2p10StaticListINS_5TopicEE10end_unsafeEv\000"
 17438      72327031 
 17438      30537461 
 17438      7469634C 
 17438      69737449 
 17439              	.LASF912:
 17440 30dd 52544341 		.ascii	"RTCAN_MSG_QUEUED\000"
 17440      4E5F4D53 
 17440      475F5155 
 17440      45554544 
 17440      00
 17441              	.LASF246:
 17442 30ee 5F5A4E4B 		.ascii	"_ZNK3r2p12StaticQueue_11peek_unsafeERPKNS0_4LinkE\000"
 17442      33723270 
 17442      31325374 
 17442      61746963 
 17442      51756575 
 17443              	.LASF406:
 17444 3120 5F5A4E33 		.ascii	"_ZN3r2p10StaticListINS_5TopicEE16link_tail_unsafeER"
 17444      72327031 
 17444      30537461 
 17444      7469634C 
 17444      69737449 
 17445 3153 4E53325F 		.ascii	"NS2_4LinkE\000"
 17445      344C696E 
 17445      6B4500
 17446              	.LASF18:
 17447 315e 73747265 		.ascii	"strerror\000"
 17447      72726F72 
 17447      00
 17448              	.LASF160:
 17449 3167 5F5A4E33 		.ascii	"_ZN3r2p10StaticListINS_16RemoteSubscriberEE13unlink"
 17449      72327031 
 17449      30537461 
 17449      7469634C 
 17449      69737449 
 17450 319a 5F756E73 		.ascii	"_unsafeERNS2_4LinkE\000"
 17450      61666545 
 17450      524E5332 
 17450      5F344C69 
 17450      6E6B4500 
 17451              	.LASF300:
 17452 31ae 41726775 		.ascii	"Argument\000"
 17452      6D656E74 
 17452      00
 17453              	.LASF763:
 17454 31b7 5075626C 		.ascii	"Publisher<r2p::MgmtMsg>\000"
 17454      69736865 
 17454      723C7232 
 17454      703A3A4D 
 17454      676D744D 
 17455              	.LASF20:
ARM GAS  /tmp/ccfWo18f.s 			page 335


 17456 31cf 73747278 		.ascii	"strxfrm\000"
 17456      66726D00 
 17457              	.LASF780:
 17458 31d7 74726566 		.ascii	"trefs_t\000"
 17458      735F7400 
 17459              	.LASF404:
 17460 31df 5F5A4E4B 		.ascii	"_ZNK3r2p10StaticListINS_5TopicEE12count_unsafeEv\000"
 17460      33723270 
 17460      31305374 
 17460      61746963 
 17460      4C697374 
 17461              	.LASF759:
 17462 3210 69735F72 		.ascii	"is_rebooted\000"
 17462      65626F6F 
 17462      74656400 
 17463              	.LASF712:
 17464 321c 5F5A4E4B 		.ascii	"_ZNK3r2p10Middleware10get_topicsEv\000"
 17464      33723270 
 17464      31304D69 
 17464      64646C65 
 17464      77617265 
 17465              	.LASF135:
 17466 323f 5F5A4E33 		.ascii	"_ZN3r2p5Mutex14release_unsafeEv\000"
 17466      72327035 
 17466      4D757465 
 17466      78313472 
 17466      656C6561 
 17467              	.LASF288:
 17468 325f 626F6F74 		.ascii	"boot_mode\000"
 17468      5F6D6F64 
 17468      6500
 17469              	.LASF73:
 17470 3269 6765745F 		.ascii	"get_length\000"
 17470      6C656E67 
 17470      746800
 17471              	.LASF908:
 17472 3274 31377274 		.ascii	"17rtcan_msgstatus_t\000"
 17472      63616E5F 
 17472      6D736773 
 17472      74617475 
 17472      735F7400 
 17473              	.LASF626:
 17474 3288 6E6F7469 		.ascii	"notify\000"
 17474      667900
 17475              	.LASF91:
 17476 328f 5F5A4E33 		.ascii	"_ZN3r2p7Message14release_unsafeEv\000"
 17476      72327037 
 17476      4D657373 
 17476      61676531 
 17476      3472656C 
 17477              	.LASF353:
 17478 32b1 53746174 		.ascii	"StaticList<r2p::LocalSubscriber>\000"
 17478      69634C69 
 17478      73743C72 
 17478      32703A3A 
 17478      4C6F6361 
 17479              	.LASF21:
ARM GAS  /tmp/ccfWo18f.s 			page 336


 17480 32d2 556E636F 		.ascii	"Uncopyable\000"
 17480      70796162 
 17480      6C6500
 17481              	.LASF140:
 17482 32dd 6E657874 		.ascii	"nextp\000"
 17482      7000
 17483              	.LASF455:
 17484 32e3 5F5A4E4B 		.ascii	"_ZNK3r2p5Topic21has_remote_publishersEv\000"
 17484      33723270 
 17484      35546F70 
 17484      69633231 
 17484      6861735F 
 17485              	.LASF561:
 17486 330b 5F5A4E33 		.ascii	"_ZN3r2p10SpinEvent_4waitERKNS_4TimeE\000"
 17486      72327031 
 17486      30537069 
 17486      6E457665 
 17486      6E745F34 
 17487              	.LASF885:
 17488 3330 54494D5F 		.ascii	"TIM_TypeDef\000"
 17488      54797065 
 17488      44656600 
 17489              	.LASF425:
 17490 333c 5F5A4E4B 		.ascii	"_ZNK3r2p10StaticListINS_5TopicEE10find_firstEPFbRKS"
 17490      33723270 
 17490      31305374 
 17490      61746963 
 17490      4C697374 
 17491 336f 315F4500 		.ascii	"1_E\000"
 17492              	.LASF962:
 17493 3373 5F5A4E33 		.ascii	"_ZN3r2p14RTCANTransportD0Ev\000"
 17493      72327031 
 17493      34525443 
 17493      414E5472 
 17493      616E7370 
 17494              	.LASF253:
 17495 338f 5F5A4E33 		.ascii	"_ZN3r2p12StaticQueue_4postERNS0_4LinkE\000"
 17495      72327031 
 17495      32537461 
 17495      74696351 
 17495      75657565 
 17496              	.LASF129:
 17497 33b6 5F5A4E33 		.ascii	"_ZN3r2p6Mutex_7releaseEv\000"
 17497      72327036 
 17497      4D757465 
 17497      785F3772 
 17497      656C6561 
 17498              	.LASF880:
 17499 33cf 444D4152 		.ascii	"DMAR\000"
 17499      00
 17500              	.LASF818:
 17501 33d4 39526561 		.ascii	"9ReadyList\000"
 17501      64794C69 
 17501      737400
 17502              	.LASF575:
 17503 33df 5F5A4E4B 		.ascii	"_ZNK3r2p10StaticListINS_4NodeEE13ConstIteratorneERK"
 17503      33723270 
ARM GAS  /tmp/ccfWo18f.s 			page 337


 17503      31305374 
 17503      61746963 
 17503      4C697374 
 17504 3412 53335F00 		.ascii	"S3_\000"
 17505              	.LASF691:
 17506 3416 6D676D74 		.ascii	"mgmt_stacklen\000"
 17506      5F737461 
 17506      636B6C65 
 17506      6E00
 17507              	.LASF881:
 17508 3424 52455345 		.ascii	"RESERVED13\000"
 17508      52564544 
 17508      313300
 17509              	.LASF403:
 17510 342f 5F5A4E4B 		.ascii	"_ZNK3r2p10StaticListINS_5TopicEE15is_empty_unsafeEv"
 17510      33723270 
 17510      31305374 
 17510      61746963 
 17510      4C697374 
 17511 3462 00       		.ascii	"\000"
 17512              	.LASF383:
 17513 3463 5F5A4E4B 		.ascii	"_ZNK3r2p10StaticListINS_15LocalSubscriberEE10end_un"
 17513      33723270 
 17513      31305374 
 17513      61746963 
 17513      4C697374 
 17514 3496 73616665 		.ascii	"safeEv\000"
 17514      457600
 17515              	.LASF582:
 17516 349d 5F5A4E33 		.ascii	"_ZN3r2p10StaticListINS_4NodeEE13unlink_unsafeERNS2_"
 17516      72327031 
 17516      30537461 
 17516      7469634C 
 17516      69737449 
 17517 34d0 344C696E 		.ascii	"4LinkE\000"
 17517      6B4500
 17518              	.LASF565:
 17519 34d7 5F5A4E33 		.ascii	"_ZN3r2p9SpinEvent13signal_unsafeEj\000"
 17519      72327039 
 17519      5370696E 
 17519      4576656E 
 17519      74313373 
 17520              	.LASF916:
 17521 34fa 72746361 		.ascii	"rtcan_msgstatus_t\000"
 17521      6E5F6D73 
 17521      67737461 
 17521      7475735F 
 17521      7400
 17522              	.LASF144:
 17523 350c 436F6E73 		.ascii	"ConstIteratorUnsafe\000"
 17523      74497465 
 17523      7261746F 
 17523      72556E73 
 17523      61666500 
 17524              	.LASF559:
 17525 3520 5F5A4E33 		.ascii	"_ZN3r2p10SpinEvent_6signalEj\000"
 17525      72327031 
ARM GAS  /tmp/ccfWo18f.s 			page 338


 17525      30537069 
 17525      6E457665 
 17525      6E745F36 
 17526              	.LASF94:
 17527 353d 5F5A4E33 		.ascii	"_ZN3r2p7Message7acquireEv\000"
 17527      72327037 
 17527      4D657373 
 17527      61676537 
 17527      61637175 
 17528              	.LASF889:
 17529 3557 70657269 		.ascii	"period\000"
 17529      6F6400
 17530              	.LASF311:
 17531 355e 5F5A4E33 		.ascii	"_ZN3r2p7Thread_11create_poolERNS_11MemoryPool_EmPFl"
 17531      72327037 
 17531      54687265 
 17531      61645F31 
 17531      31637265 
 17532 3591 50764553 		.ascii	"PvES3_PKc\000"
 17532      335F504B 
 17532      6300
 17533              	.LASF70:
 17534 359b 5F5A4E33 		.ascii	"_ZN3r2p22TimestampedMsgPtrQueue11post_unsafeERNS0_5"
 17534      72327032 
 17534      3254696D 
 17534      65737461 
 17534      6D706564 
 17535 35ce 456E7472 		.ascii	"EntryE\000"
 17535      794500
 17536              	.LASF564:
 17537 35d5 5F5A4E33 		.ascii	"_ZN3r2p9SpinEvent10set_threadEPNS_6ThreadE\000"
 17537      72327039 
 17537      5370696E 
 17537      4576656E 
 17537      74313073 
 17538              	.LASF466:
 17539 3600 69735F61 		.ascii	"is_awaiting_subscriptions\000"
 17539      77616974 
 17539      696E675F 
 17539      73756273 
 17539      63726970 
 17540              	.LASF227:
 17541 361a 5F5A4E4B 		.ascii	"_ZNK3r2p10StaticListINS_9TransportEE8index_ofERKS1_"
 17541      33723270 
 17541      31305374 
 17541      61746963 
 17541      4C697374 
 17542 364d 00       		.ascii	"\000"
 17543              	.LASF756:
 17544 364e 5F5A4E33 		.ascii	"_ZN3r2p10Middleware24do_cmd_subscribe_requestERKNS_"
 17544      72327031 
 17544      304D6964 
 17544      646C6577 
 17544      61726532 
 17545 3681 374D676D 		.ascii	"7MgmtMsgE\000"
 17545      744D7367 
 17545      4500
ARM GAS  /tmp/ccfWo18f.s 			page 339


 17546              	.LASF834:
 17547 368b 6D705F6F 		.ascii	"mp_object_size\000"
 17547      626A6563 
 17547      745F7369 
 17547      7A6500
 17548              	.LASF380:
 17549 369a 5F5A4E33 		.ascii	"_ZN3r2p10StaticListINS_15LocalSubscriberEE10end_uns"
 17549      72327031 
 17549      30537461 
 17549      7469634C 
 17549      69737449 
 17550 36cd 61666545 		.ascii	"afeEv\000"
 17550      7600
 17551              	.LASF290:
 17552 36d3 6E616D65 		.ascii	"name\000"
 17552      00
 17553              	.LASF609:
 17554 36d8 7075626C 		.ascii	"publishers\000"
 17554      69736865 
 17554      727300
 17555              	.LASF365:
 17556 36e3 6F706572 		.ascii	"operator!=\000"
 17556      61746F72 
 17556      213D00
 17557              	.LASF170:
 17558 36ee 656E645F 		.ascii	"end_unsafe\000"
 17558      756E7361 
 17558      666500
 17559              	.LASF396:
 17560 36f9 5F5A4E33 		.ascii	"_ZN3r2p10StaticListINS_15LocalSubscriberEE7restartE"
 17560      72327031 
 17560      30537461 
 17560      7469634C 
 17560      69737449 
 17561 372c 524E5332 		.ascii	"RNS2_8IteratorE\000"
 17561      5F384974 
 17561      65726174 
 17561      6F724500 
 17562              	.LASF546:
 17563 373c 5F5A4E4B 		.ascii	"_ZNK3r2p10StaticListINS_14LocalPublisherEE5beginEv\000"
 17563      33723270 
 17563      31305374 
 17563      61746963 
 17563      4C697374 
 17564              	.LASF822:
 17565 376f 725F6E65 		.ascii	"r_newer\000"
 17565      77657200 
 17566              	.LASF200:
 17567 3777 5F5A4E4B 		.ascii	"_ZNK3r2p10StaticListINS_16RemoteSubscriberEE7restar"
 17567      33723270 
 17567      31305374 
 17567      61746963 
 17567      4C697374 
 17568 37aa 7445524E 		.ascii	"tERNS2_13ConstIteratorE\000"
 17568      53325F31 
 17568      33436F6E 
 17568      73744974 
ARM GAS  /tmp/ccfWo18f.s 			page 340


 17568      65726174 
 17569              	.LASF683:
 17570 37c2 7472616E 		.ascii	"transportp\000"
 17570      73706F72 
 17570      747000
 17571              	.LASF687:
 17572 37cd 7472616E 		.ascii	"transports\000"
 17572      73706F72 
 17572      747300
 17573              	.LASF713:
 17574 37d8 6765745F 		.ascii	"get_transports\000"
 17574      7472616E 
 17574      73706F72 
 17574      747300
 17575              	.LASF693:
 17576 37e7 6D676D74 		.ascii	"mgmt_priority\000"
 17576      5F707269 
 17576      6F726974 
 17576      7900
 17577              	.LASF452:
 17578 37f5 6861735F 		.ascii	"has_local_publishers\000"
 17578      6C6F6361 
 17578      6C5F7075 
 17578      626C6973 
 17578      68657273 
 17579              	.LASF388:
 17580 380a 5F5A4E33 		.ascii	"_ZN3r2p10StaticListINS_15LocalSubscriberEE4linkERNS"
 17580      72327031 
 17580      30537461 
 17580      7469634C 
 17580      69737449 
 17581 383d 325F344C 		.ascii	"2_4LinkE\000"
 17581      696E6B45 
 17581      00
 17582              	.LASF781:
 17583 3846 74736C69 		.ascii	"tslices_t\000"
 17583      6365735F 
 17583      7400
 17584              	.LASF641:
 17585 3850 5F5A4E33 		.ascii	"_ZN3r2p10MemoryPoolI11rtcan_msg_tE4freeEPS1_\000"
 17585      72327031 
 17585      304D656D 
 17585      6F727950 
 17585      6F6F6C49 
 17586              	.LASF92:
 17587 387d 72657365 		.ascii	"reset_unsafe\000"
 17587      745F756E 
 17587      73616665 
 17587      00
 17588              	.LASF96:
 17589 388a 72657365 		.ascii	"reset\000"
 17589      7400
 17590              	.LASF173:
 17591 3890 5F5A4E33 		.ascii	"_ZN3r2p10StaticListINS_16RemoteSubscriberEE14restar"
 17591      72327031 
 17591      30537461 
 17591      7469634C 
ARM GAS  /tmp/ccfWo18f.s 			page 341


 17591      69737449 
 17592 38c3 745F756E 		.ascii	"t_unsafeERNS2_14IteratorUnsafeE\000"
 17592      73616665 
 17592      45524E53 
 17592      325F3134 
 17592      49746572 
 17593              	.LASF964:
 17594 38e3 696E6465 		.ascii	"index\000"
 17594      7800
 17595              	.LASF296:
 17596 38e9 54687265 		.ascii	"Thread_\000"
 17596      61645F00 
 17597              	.LASF955:
 17598 38f1 5F5A4E33 		.ascii	"_ZN3r2p10MemoryPoolI11rtcan_msg_tED2Ev\000"
 17598      72327031 
 17598      304D656D 
 17598      6F727950 
 17598      6F6F6C49 
 17599              	.LASF15:
 17600 3918 73697A65 		.ascii	"sizetype\000"
 17600      74797065 
 17600      00
 17601              	.LASF68:
 17602 3921 5F5A4E4B 		.ascii	"_ZNK3r2p22TimestampedMsgPtrQueue16get_count_unsafeE"
 17602      33723270 
 17602      32325469 
 17602      6D657374 
 17602      616D7065 
 17603 3954 7600     		.ascii	"v\000"
 17604              	.LASF57:
 17605 3956 5F5A4E33 		.ascii	"_ZN3r2p4Time2usEl\000"
 17605      72327034 
 17605      54696D65 
 17605      32757345 
 17605      6C00
 17606              	.LASF718:
 17607 3968 5F5A4E33 		.ascii	"_ZN3r2p10Middleware14get_boot_topicEv\000"
 17607      72327031 
 17607      304D6964 
 17607      646C6577 
 17607      61726531 
 17608              	.LASF75:
 17609 398e 6765745F 		.ascii	"get_count\000"
 17609      636F756E 
 17609      7400
 17610              	.LASF652:
 17611 3998 6D676D74 		.ascii	"mgmt_rsub\000"
 17611      5F727375 
 17611      6200
 17612              	.LASF616:
 17613 39a2 6765745F 		.ascii	"get_subscribers\000"
 17613      73756273 
 17613      63726962 
 17613      65727300 
 17614              	.LASF939:
 17615 39b2 74797065 		.ascii	"type_size\000"
 17615      5F73697A 
ARM GAS  /tmp/ccfWo18f.s 			page 342


 17615      6500
 17616              	.LASF97:
 17617 39bc 5F5A4E33 		.ascii	"_ZN3r2p7Message5resetEv\000"
 17617      72327037 
 17617      4D657373 
 17617      61676535 
 17617      72657365 
 17618              	.LASF698:
 17619 39d4 6D676D74 		.ascii	"mgmt_msg_buf\000"
 17619      5F6D7367 
 17619      5F627566 
 17619      00
 17620              	.LASF661:
 17621 39e1 5F5A4E33 		.ascii	"_ZN3r2p14RTCANTransport15fill_raw_paramsERKNS_5Topi"
 17621      72327031 
 17621      34525443 
 17621      414E5472 
 17621      616E7370 
 17622 3a14 63455068 		.ascii	"cEPh\000"
 17622      00
 17623              	.LASF7:
 17624 3a19 73686F72 		.ascii	"short unsigned int\000"
 17624      7420756E 
 17624      7369676E 
 17624      65642069 
 17624      6E7400
 17625              	.LASF1:
 17626 3a2c 7369676E 		.ascii	"signed char\000"
 17626      65642063 
 17626      68617200 
 17627              	.LASF949:
 17628 3a38 73756363 		.ascii	"success\000"
 17628      65737300 
 17629              	.LASF743:
 17630 3a40 66696E64 		.ascii	"find_topic\000"
 17630      5F746F70 
 17630      696300
 17631              	.LASF722:
 17632 3a4b 73746172 		.ascii	"start\000"
 17632      7400
 17633              	.LASF802:
 17634 3a51 705F7469 		.ascii	"p_time\000"
 17634      6D6500
 17635              	.LASF840:
 17636 3a58 54444852 		.ascii	"TDHR\000"
 17636      00
 17637              	.LASF688:
 17638 3a5d 6C697374 		.ascii	"lists_lock\000"
 17638      735F6C6F 
 17638      636B00
 17639              	.LASF402:
 17640 3a68 5F5A4E4B 		.ascii	"_ZNK3r2p10StaticListINS_5TopicEE15get_head_unsafeEv"
 17640      33723270 
 17640      31305374 
 17640      61746963 
 17640      4C697374 
 17641 3a9b 00       		.ascii	"\000"
ARM GAS  /tmp/ccfWo18f.s 			page 343


 17642              	.LASF165:
 17643 3a9c 66696E64 		.ascii	"find_first_unsafe\000"
 17643      5F666972 
 17643      73745F75 
 17643      6E736166 
 17643      6500
 17644              	.LASF891:
 17645 3aae 73746174 		.ascii	"status\000"
 17645      757300
 17646              	.LASF225:
 17647 3ab5 5F5A4E33 		.ascii	"_ZN3r2p10StaticListINS_9TransportEE4linkERNS2_4Link"
 17647      72327031 
 17647      30537461 
 17647      7469634C 
 17647      69737449 
 17648 3ae8 4500     		.ascii	"E\000"
 17649              	.LASF323:
 17650 3aea 5F5A4E33 		.ascii	"_ZN3r2p7Thread_4joinERS0_\000"
 17650      72327037 
 17650      54687265 
 17650      61645F34 
 17650      6A6F696E 
 17651              	.LASF109:
 17652 3b04 636F756E 		.ascii	"count\000"
 17652      7400
 17653              	.LASF366:
 17654 3b0a 5F5A4E4B 		.ascii	"_ZNK3r2p10StaticListINS_15LocalSubscriberEE13ConstI"
 17654      33723270 
 17654      31305374 
 17654      61746963 
 17654      4C697374 
 17655 3b3d 74657261 		.ascii	"teratorneERKS3_\000"
 17655      746F726E 
 17655      6545524B 
 17655      53335F00 
 17656              	.LASF475:
 17657 3b4d 5F5A4E33 		.ascii	"_ZN3r2p5Topic20notify_locals_unsafeERNS_7MessageERK"
 17657      72327035 
 17657      546F7069 
 17657      6332306E 
 17657      6F746966 
 17658 3b80 4E535F34 		.ascii	"NS_4TimeE\000"
 17658      54696D65 
 17658      4500
 17659              	.LASF221:
 17660 3b8a 5F5A4E4B 		.ascii	"_ZNK3r2p10StaticListINS_9TransportEE14restart_unsaf"
 17660      33723270 
 17660      31305374 
 17660      61746963 
 17660      4C697374 
 17661 3bbd 6545524E 		.ascii	"eERNS2_19ConstIteratorUnsafeE\000"
 17661      53325F31 
 17661      39436F6E 
 17661      73744974 
 17661      65726174 
 17662              	.LASF593:
 17663 3bdb 5F5A4E4B 		.ascii	"_ZNK3r2p10StaticListINS_4NodeEE8get_headEv\000"
ARM GAS  /tmp/ccfWo18f.s 			page 344


 17663      33723270 
 17663      31305374 
 17663      61746963 
 17663      4C697374 
 17664              	.LASF899:
 17665 3c06 52544341 		.ascii	"RTCAN_UNINIT\000"
 17665      4E5F554E 
 17665      494E4954 
 17665      00
 17666              	.LASF287:
 17667 3c13 7265626F 		.ascii	"rebooted\000"
 17667      6F746564 
 17667      00
 17668              	.LASF487:
 17669 3c1c 5F5A4E33 		.ascii	"_ZN3r2p5Topic13notify_localsERNS_7MessageERKNS_4Tim"
 17669      72327035 
 17669      546F7069 
 17669      6331336E 
 17669      6F746966 
 17670 3c4f 654500   		.ascii	"eE\000"
 17671              	.LASF298:
 17672 3c52 46756E63 		.ascii	"Function\000"
 17672      74696F6E 
 17672      00
 17673              	.LASF427:
 17674 3c5b 5F5A4E33 		.ascii	"_ZN3r2p10StaticListINS_5TopicEE5beginEv\000"
 17674      72327031 
 17674      30537461 
 17674      7469634C 
 17674      69737449 
 17675              	.LASF218:
 17676 3c83 5F5A4E33 		.ascii	"_ZN3r2p10StaticListINS_9TransportEE14restart_unsafe"
 17676      72327031 
 17676      30537461 
 17676      7469634C 
 17676      69737449 
 17677 3cb6 45524E53 		.ascii	"ERNS2_14IteratorUnsafeE\000"
 17677      325F3134 
 17677      49746572 
 17677      61746F72 
 17677      556E7361 
 17678              	.LASF78:
 17679 3cce 5F5A4E33 		.ascii	"_ZN3r2p22TimestampedMsgPtrQueue4postERNS0_5EntryE\000"
 17679      72327032 
 17679      3254696D 
 17679      65737461 
 17679      6D706564 
 17680              	.LASF228:
 17681 3d00 5F5A4E4B 		.ascii	"_ZNK3r2p10StaticListINS_9TransportEE8containsERKS1_"
 17681      33723270 
 17681      31305374 
 17681      61746963 
 17681      4C697374 
 17682 3d33 00       		.ascii	"\000"
 17683              	.LASF673:
 17684 3d34 5F5A4E33 		.ascii	"_ZN3r2p7ReMutex14acquire_unsafeEv\000"
 17684      72327037 
ARM GAS  /tmp/ccfWo18f.s 			page 345


 17684      52654D75 
 17684      74657831 
 17684      34616371 
 17685              	.LASF827:
 17686 3d56 6D5F6F77 		.ascii	"m_owner\000"
 17686      6E657200 
 17687              	.LASF422:
 17688 3d5e 5F5A4E33 		.ascii	"_ZN3r2p10StaticListINS_5TopicEE6unlinkERNS2_4LinkE\000"
 17688      72327031 
 17688      30537461 
 17688      7469634C 
 17688      69737449 
 17689              	.LASF458:
 17690 3d91 6861735F 		.ascii	"has_local_subscribers\000"
 17690      6C6F6361 
 17690      6C5F7375 
 17690      62736372 
 17690      69626572 
 17691              	.LASF71:
 17692 3da7 66657463 		.ascii	"fetch_unsafe\000"
 17692      685F756E 
 17692      73616665 
 17692      00
 17693              	.LASF579:
 17694 3db4 5F5A4E4B 		.ascii	"_ZNK3r2p10StaticListINS_4NodeEE12count_unsafeEv\000"
 17694      33723270 
 17694      31305374 
 17694      61746963 
 17694      4C697374 
 17695              	.LASF410:
 17696 3de4 5F5A4E4B 		.ascii	"_ZNK3r2p10StaticListINS_5TopicEE17find_first_unsafe"
 17696      33723270 
 17696      31305374 
 17696      61746963 
 17696      4C697374 
 17697 3e17 45504662 		.ascii	"EPFbRKS1_E\000"
 17697      524B5331 
 17697      5F4500
 17698              	.LASF898:
 17699 3e22 4D474D54 		.ascii	"MGMT_BUFFER_LENGTH\000"
 17699      5F425546 
 17699      4645525F 
 17699      4C454E47 
 17699      544800
 17700              	.LASF161:
 17701 3e35 696E6465 		.ascii	"index_of_unsafe\000"
 17701      785F6F66 
 17701      5F756E73 
 17701      61666500 
 17702              	.LASF921:
 17703 3e45 73746174 		.ascii	"state\000"
 17703      6500
 17704              	.LASF732:
 17705 3e4b 7265626F 		.ascii	"reboot_remote\000"
 17705      6F745F72 
 17705      656D6F74 
 17705      6500
ARM GAS  /tmp/ccfWo18f.s 			page 346


 17706              	.LASF620:
 17707 3e59 7365745F 		.ascii	"set_enabled\000"
 17707      656E6162 
 17707      6C656400 
 17708              	.LASF806:
 17709 3e65 705F6570 		.ascii	"p_epending\000"
 17709      656E6469 
 17709      6E6700
 17710              	.LASF887:
 17711 3e70 64656164 		.ascii	"deadline\000"
 17711      6C696E65 
 17711      00
 17712              	.LASF548:
 17713 3e79 5F5A4E4B 		.ascii	"_ZNK3r2p10StaticListINS_14LocalPublisherEE7restartE"
 17713      33723270 
 17713      31305374 
 17713      61746963 
 17713      4C697374 
 17714 3eac 524E5332 		.ascii	"RNS2_13ConstIteratorE\000"
 17714      5F313343 
 17714      6F6E7374 
 17714      49746572 
 17714      61746F72 
 17715              	.LASF150:
 17716 3ec2 69735F65 		.ascii	"is_empty_unsafe\000"
 17716      6D707479 
 17716      5F756E73 
 17716      61666500 
 17717              	.LASF872:
 17718 3ed2 52455345 		.ascii	"RESERVED9\000"
 17718      52564544 
 17718      3900
 17719              	.LASF518:
 17720 3edc 5F5A4E4B 		.ascii	"_ZNK3r2p10StaticListINS_14LocalPublisherEE15get_hea"
 17720      33723270 
 17720      31305374 
 17720      61746963 
 17720      4C697374 
 17721 3f0f 645F756E 		.ascii	"d_unsafeEv\000"
 17721      73616665 
 17721      457600
 17722              	.LASF293:
 17723 3f1a 70617468 		.ascii	"path\000"
 17723      00
 17724              	.LASF272:
 17725 3f1f 5F5A4E4B 		.ascii	"_ZNK3r2p11StaticQueueINS_14BaseSubscriberEE5beginEv"
 17725      33723270 
 17725      31315374 
 17725      61746963 
 17725      51756575 
 17726 3f52 00       		.ascii	"\000"
 17727              	.LASF199:
 17728 3f53 5F5A4E4B 		.ascii	"_ZNK3r2p10StaticListINS_16RemoteSubscriberEE3endEv\000"
 17728      33723270 
 17728      31305374 
 17728      61746963 
 17728      4C697374 
ARM GAS  /tmp/ccfWo18f.s 			page 347


 17729              	.LASF319:
 17730 3f86 5F5A4E33 		.ascii	"_ZN3r2p7Thread_5yieldEv\000"
 17730      72327037 
 17730      54687265 
 17730      61645F35 
 17730      7969656C 
 17731              	.LASF352:
 17732 3f9e 5F5A4E33 		.ascii	"_ZN3r2p6Thread4joinERS0_\000"
 17732      72327036 
 17732      54687265 
 17732      6164346A 
 17732      6F696E45 
 17733              	.LASF543:
 17734 3fb7 5F5A4E33 		.ascii	"_ZN3r2p10StaticListINS_14LocalPublisherEE5beginEv\000"
 17734      72327031 
 17734      30537461 
 17734      7469634C 
 17734      69737449 
 17735              	.LASF331:
 17736 3fe9 5F5A4E33 		.ascii	"_ZN3r2p11MemoryPool_12alloc_unsafeEv\000"
 17736      72327031 
 17736      314D656D 
 17736      6F727950 
 17736      6F6F6C5F 
 17737              	.LASF283:
 17738 400e 71756575 		.ascii	"queue_length\000"
 17738      655F6C65 
 17738      6E677468 
 17738      00
 17739              	.LASF379:
 17740 401b 5F5A4E33 		.ascii	"_ZN3r2p10StaticListINS_15LocalSubscriberEE12begin_u"
 17740      72327031 
 17740      30537461 
 17740      7469634C 
 17740      69737449 
 17741 404e 6E736166 		.ascii	"nsafeEv\000"
 17741      65457600 
 17742              	.LASF186:
 17743 4056 696E6465 		.ascii	"index_of\000"
 17743      785F6F66 
 17743      00
 17744              	.LASF52:
 17745 405f 5F5A4E33 		.ascii	"_ZN3r2p4TimeaSERKS0_\000"
 17745      72327034 
 17745      54696D65 
 17745      61534552 
 17745      4B53305F 
 17746              	.LASF752:
 17747 4074 5F5A4E33 		.ascii	"_ZN3r2p10Middleware14do_mgmt_threadEv\000"
 17747      72327031 
 17747      304D6964 
 17747      646C6577 
 17747      61726531 
 17748              	.LASF278:
 17749 409a 6D6F6475 		.ascii	"module\000"
 17749      6C6500
 17750              	.LASF117:
ARM GAS  /tmp/ccfWo18f.s 			page 348


 17751 40a1 5F5A4E4B 		.ascii	"_ZNK3r2p10ArrayQueueINS_22TimestampedMsgPtrQueue5En"
 17751      33723270 
 17751      31304172 
 17751      72617951 
 17751      75657565 
 17752 40d4 74727945 		.ascii	"tryEE9get_countEv\000"
 17752      45396765 
 17752      745F636F 
 17752      756E7445 
 17752      7600
 17753              	.LASF164:
 17754 40e6 5F5A4E4B 		.ascii	"_ZNK3r2p10StaticListINS_16RemoteSubscriberEE15conta"
 17754      33723270 
 17754      31305374 
 17754      61746963 
 17754      4C697374 
 17755 4119 696E735F 		.ascii	"ins_unsafeERKS1_\000"
 17755      756E7361 
 17755      66654552 
 17755      4B53315F 
 17755      00
 17756              	.LASF443:
 17757 412a 5F5A4E4B 		.ascii	"_ZNK3r2p5Topic8get_nameEv\000"
 17757      33723270 
 17757      35546F70 
 17757      69633867 
 17757      65745F6E 
 17758              	.LASF635:
 17759 4144 5F5A4E33 		.ascii	"_ZN3r2p4Node8has_nameERKS0_PKc\000"
 17759      72327034 
 17759      4E6F6465 
 17759      38686173 
 17759      5F6E616D 
 17760              	.LASF470:
 17761 4163 5F5A4E4B 		.ascii	"_ZNK3r2p5Topic23compute_deadline_unsafeEv\000"
 17761      33723270 
 17761      35546F70 
 17761      69633233 
 17761      636F6D70 
 17762              	.LASF430:
 17763 418d 5F5A4E4B 		.ascii	"_ZNK3r2p10StaticListINS_5TopicEE5beginEv\000"
 17763      33723270 
 17763      31305374 
 17763      61746963 
 17763      4C697374 
 17764              	.LASF276:
 17765 41b6 4D676D74 		.ascii	"MgmtMsg\000"
 17765      4D736700 
 17766              	.LASF833:
 17767 41be 6D705F6E 		.ascii	"mp_next\000"
 17767      65787400 
 17768              	.LASF634:
 17769 41c6 7E4E6F64 		.ascii	"~Node\000"
 17769      6500
 17770              	.LASF500:
 17771 41cc 70617463 		.ascii	"patch_pubsub_msg\000"
 17771      685F7075 
ARM GAS  /tmp/ccfWo18f.s 			page 349


 17771      62737562 
 17771      5F6D7367 
 17771      00
 17772              	.LASF922:
 17773 41dd 6379636C 		.ascii	"cycle\000"
 17773      6500
 17774              	.LASF963:
 17775 41e3 746F7069 		.ascii	"topic_list\000"
 17775      635F6C69 
 17775      737400
 17776              	.LASF114:
 17777 41ee 736B6970 		.ascii	"skip_unsafe\000"
 17777      5F756E73 
 17777      61666500 
 17778              	.LASF678:
 17779 41fa 42617365 		.ascii	"BaseSubscriber\000"
 17779      53756273 
 17779      63726962 
 17779      657200
 17780              	.LASF301:
 17781 4209 6765745F 		.ascii	"get_name\000"
 17781      6E616D65 
 17781      00
 17782              	.LASF866:
 17783 4212 31315449 		.ascii	"11TIM_TypeDef\000"
 17783      4D5F5479 
 17783      70654465 
 17783      6600
 17784              	.LASF98:
 17785 4220 636F7079 		.ascii	"copy\000"
 17785      00
 17786              	.LASF835:
 17787 4225 6D705F70 		.ascii	"mp_provider\000"
 17787      726F7669 
 17787      64657200 
 17788              	.LASF310:
 17789 4231 63726561 		.ascii	"create_pool\000"
 17789      74655F70 
 17789      6F6F6C00 
 17790              	.LASF867:
 17791 423d 534D4352 		.ascii	"SMCR\000"
 17791      00
 17792              	.LASF459:
 17793 4242 5F5A4E4B 		.ascii	"_ZNK3r2p5Topic21has_local_subscribersEv\000"
 17793      33723270 
 17793      35546F70 
 17793      69633231 
 17793      6861735F 
 17794              	.LASF42:
 17795 426a 5F5A4E4B 		.ascii	"_ZNK3r2p4Time8to_m_rawEv\000"
 17795      33723270 
 17795      3454696D 
 17795      6538746F 
 17795      5F6D5F72 
 17796              	.LASF605:
 17797 4283 5F5A4E4B 		.ascii	"_ZNK3r2p10StaticListINS_4NodeEE5beginEv\000"
 17797      33723270 
ARM GAS  /tmp/ccfWo18f.s 			page 350


 17797      31305374 
 17797      61746963 
 17797      4C697374 
 17798              	.LASF587:
 17799 42ab 5F5A4E33 		.ascii	"_ZN3r2p10StaticListINS_4NodeEE12begin_unsafeEv\000"
 17799      72327031 
 17799      30537461 
 17799      7469634C 
 17799      69737449 
 17800              	.LASF795:
 17801 42da 705F6F6C 		.ascii	"p_older\000"
 17801      64657200 
 17802              	.LASF9:
 17803 42e2 6C6F6E67 		.ascii	"long int\000"
 17803      20696E74 
 17803      00
 17804              	.LASF226:
 17805 42eb 5F5A4E33 		.ascii	"_ZN3r2p10StaticListINS_9TransportEE6unlinkERNS2_4Li"
 17805      72327031 
 17805      30537461 
 17805      7469634C 
 17805      69737449 
 17806 431e 6E6B4500 		.ascii	"nkE\000"
 17807              	.LASF976:
 17808 4322 5F5A4E4B 		.ascii	"_ZNK3r2p11StaticQueueINS_14BaseSubscriberEE3endEv\000"
 17808      33723270 
 17808      31315374 
 17808      61746963 
 17808      51756575 
 17809              	.LASF831:
 17810 4354 70685F6E 		.ascii	"ph_next\000"
 17810      65787400 
 17811              	.LASF826:
 17812 435c 6D5F7175 		.ascii	"m_queue\000"
 17812      65756500 
 17813              	.LASF152:
 17814 4364 5F5A4E4B 		.ascii	"_ZNK3r2p10StaticListINS_16RemoteSubscriberEE15is_em"
 17814      33723270 
 17814      31305374 
 17814      61746963 
 17814      4C697374 
 17815 4397 7074795F 		.ascii	"pty_unsafeEv\000"
 17815      756E7361 
 17815      66654576 
 17815      00
 17816              	.LASF147:
 17817 43a4 50726564 		.ascii	"Predicate\000"
 17817      69636174 
 17817      6500
 17818              	.LASF334:
 17819 43ae 616C6C6F 		.ascii	"alloc\000"
 17819      6300
 17820              	.LASF389:
 17821 43b4 5F5A4E33 		.ascii	"_ZN3r2p10StaticListINS_15LocalSubscriberEE6unlinkER"
 17821      72327031 
 17821      30537461 
 17821      7469634C 
ARM GAS  /tmp/ccfWo18f.s 			page 351


 17821      69737449 
 17822 43e7 4E53325F 		.ascii	"NS2_4LinkE\000"
 17822      344C696E 
 17822      6B4500
 17823              	.LASF190:
 17824 43f2 66696E64 		.ascii	"find_first\000"
 17824      5F666972 
 17824      737400
 17825              	.LASF118:
 17826 43fd 5F5A4E33 		.ascii	"_ZN3r2p10ArrayQueueINS_22TimestampedMsgPtrQueue5Ent"
 17826      72327031 
 17826      30417272 
 17826      61795175 
 17826      65756549 
 17827 4430 72794545 		.ascii	"ryEE4postES2_\000"
 17827      34706F73 
 17827      74455332 
 17827      5F00
 17828              	.LASF382:
 17829 443e 5F5A4E4B 		.ascii	"_ZNK3r2p10StaticListINS_15LocalSubscriberEE12begin_"
 17829      33723270 
 17829      31305374 
 17829      61746963 
 17829      4C697374 
 17830 4471 756E7361 		.ascii	"unsafeEv\000"
 17830      66654576 
 17830      00
 17831              	.LASF905:
 17832 447a 52544341 		.ascii	"RTCAN_MASTER\000"
 17832      4E5F4D41 
 17832      53544552 
 17832      00
 17833              	.LASF914:
 17834 4487 52544341 		.ascii	"RTCAN_MSG_TIMEOUT\000"
 17834      4E5F4D53 
 17834      475F5449 
 17834      4D454F55 
 17834      5400
 17835              	.LASF245:
 17836 4499 7065656B 		.ascii	"peek_unsafe\000"
 17836      5F756E73 
 17836      61666500 
 17837              	.LASF817:
 17838 44a5 636F6E74 		.ascii	"context\000"
 17838      65787400 
 17839              	.LASF555:
 17840 44ad 5F5A4E33 		.ascii	"_ZN3r2p10SpinEvent_10set_threadEPNS_6ThreadE\000"
 17840      72327031 
 17840      30537069 
 17840      6E457665 
 17840      6E745F31 
 17841              	.LASF655:
 17842 44da 5F5A4E33 		.ascii	"_ZN3r2p14RTCANTransport4sendEPNS_7MessageEPNS_15RTC"
 17842      72327031 
 17842      34525443 
 17842      414E5472 
 17842      616E7370 
ARM GAS  /tmp/ccfWo18f.s 			page 352


 17843 450d 414E5375 		.ascii	"ANSubscriberE\000"
 17843      62736372 
 17843      69626572 
 17843      4500
 17844              	.LASF391:
 17845 451b 5F5A4E4B 		.ascii	"_ZNK3r2p10StaticListINS_15LocalSubscriberEE8contain"
 17845      33723270 
 17845      31305374 
 17845      61746963 
 17845      4C697374 
 17846 454e 7345524B 		.ascii	"sERKS1_\000"
 17846      53315F00 
 17847              	.LASF751:
 17848 4556 646F5F6D 		.ascii	"do_mgmt_thread\000"
 17848      676D745F 
 17848      74687265 
 17848      616400
 17849              	.LASF146:
 17850 4565 436F6E73 		.ascii	"ConstIterator\000"
 17850      74497465 
 17850      7261746F 
 17850      7200
 17851              	.LASF708:
 17852 4573 5F5A4E4B 		.ascii	"_ZNK3r2p10Middleware15get_module_nameEv\000"
 17852      33723270 
 17852      31304D69 
 17852      64646C65 
 17852      77617265 
 17853              	.LASF65:
 17854 459b 456E7472 		.ascii	"Entry\000"
 17854      7900
 17855              	.LASF471:
 17856 45a1 5F5A4E33 		.ascii	"_ZN3r2p5Topic12alloc_unsafeEv\000"
 17856      72327035 
 17856      546F7069 
 17856      63313261 
 17856      6C6C6F63 
 17857              	.LASF308:
 17858 45bf 63726561 		.ascii	"create_heap\000"
 17858      74655F68 
 17858      65617000 
 17859              	.LASF845:
 17860 45cb 52444C52 		.ascii	"RDLR\000"
 17860      00
 17861              	.LASF681:
 17862 45d0 4D696464 		.ascii	"Middleware\000"
 17862      6C657761 
 17862      726500
 17863              	.LASF369:
 17864 45db 5F5A4E4B 		.ascii	"_ZNK3r2p10StaticListINS_15LocalSubscriberEE15get_he"
 17864      33723270 
 17864      31305374 
 17864      61746963 
 17864      4C697374 
 17865 460e 61645F75 		.ascii	"ad_unsafeEv\000"
 17865      6E736166 
 17865      65457600 
ARM GAS  /tmp/ccfWo18f.s 			page 353


 17866              	.LASF951:
 17867 461a 71756575 		.ascii	"queue_buf\000"
 17867      655F6275 
 17867      6600
 17868              	.LASF552:
 17869 4624 6765745F 		.ascii	"get_thread\000"
 17869      74687265 
 17869      616400
 17870              	.LASF485:
 17871 462f 5F5A4E33 		.ascii	"_ZN3r2p5Topic4freeERNS_7MessageE\000"
 17871      72327035 
 17871      546F7069 
 17871      63346672 
 17871      65654552 
 17872              	.LASF19:
 17873 4650 73747274 		.ascii	"strtok\000"
 17873      6F6B00
 17874              	.LASF798:
 17875 4657 705F7374 		.ascii	"p_state\000"
 17875      61746500 
 17876              	.LASF814:
 17877 465f 72656761 		.ascii	"regarm_t\000"
 17877      726D5F74 
 17877      00
 17878              	.LASF524:
 17879 4668 5F5A4E4B 		.ascii	"_ZNK3r2p10StaticListINS_14LocalPublisherEE15index_o"
 17879      33723270 
 17879      31305374 
 17879      61746963 
 17879      4C697374 
 17880 469b 665F756E 		.ascii	"f_unsafeERKS1_\000"
 17880      73616665 
 17880      45524B53 
 17880      315F00
 17881              	.LASF640:
 17882 46aa 5F5A4E33 		.ascii	"_ZN3r2p10MemoryPoolI11rtcan_msg_tE5allocEv\000"
 17882      72327031 
 17882      304D656D 
 17882      6F727950 
 17882      6F6F6C49 
 17883              	.LASF36:
 17884 46d5 746F5F6D 		.ascii	"to_ms_raw\000"
 17884      735F7261 
 17884      7700
 17885              	.LASF860:
 17886 46df 46464131 		.ascii	"FFA1R\000"
 17886      5200
 17887              	.LASF473:
 17888 46e5 5F5A4E33 		.ascii	"_ZN3r2p5Topic11free_unsafeERNS_7MessageE\000"
 17888      72327035 
 17888      546F7069 
 17888      63313166 
 17888      7265655F 
 17889              	.LASF851:
 17890 470e 52463152 		.ascii	"RF1R\000"
 17890      00
 17891              	.LASF197:
ARM GAS  /tmp/ccfWo18f.s 			page 354


 17892 4713 5F5A4E4B 		.ascii	"_ZNK3r2p10StaticListINS_16RemoteSubscriberEE5beginE"
 17892      33723270 
 17892      31305374 
 17892      61746963 
 17892      4C697374 
 17893 4746 7600     		.ascii	"v\000"
 17894              	.LASF675:
 17895 4748 5F5A4E33 		.ascii	"_ZN3r2p7ReMutex7acquireEv\000"
 17895      72327037 
 17895      52654D75 
 17895      74657837 
 17895      61637175 
 17896              	.LASF297:
 17897 4762 5072696F 		.ascii	"Priority\000"
 17897      72697479 
 17897      00
 17898              	.LASF11:
 17899 476b 6C6F6E67 		.ascii	"long unsigned int\000"
 17899      20756E73 
 17899      69676E65 
 17899      6420696E 
 17899      7400
 17900              	.LASF341:
 17901 477d 7E4D656D 		.ascii	"~MemoryPool_\000"
 17901      6F727950 
 17901      6F6F6C5F 
 17901      00
 17902              	.LASF349:
 17903 478a 5F5A4E33 		.ascii	"_ZN3r2p6Thread12set_priorityEm\000"
 17903      72327036 
 17903      54687265 
 17903      61643132 
 17903      7365745F 
 17904              	.LASF63:
 17905 47a9 6D736770 		.ascii	"msgp\000"
 17905      00
 17906              	.LASF617:
 17907 47ae 5F5A4E4B 		.ascii	"_ZNK3r2p4Node15get_subscribersEv\000"
 17907      33723270 
 17907      344E6F64 
 17907      65313567 
 17907      65745F73 
 17908              	.LASF339:
 17909 47cf 5F5A4E33 		.ascii	"_ZN3r2p11MemoryPool_6extendEPvj\000"
 17909      72327031 
 17909      314D656D 
 17909      6F727950 
 17909      6F6F6C5F 
 17910              	.LASF53:
 17911 47ef 6F706572 		.ascii	"operator+=\000"
 17911      61746F72 
 17911      2B3D00
 17912              	.LASF825:
 17913 47fa 52656164 		.ascii	"ReadyList\000"
 17913      794C6973 
 17913      7400
 17914              	.LASF665:
ARM GAS  /tmp/ccfWo18f.s 			page 355


 17915 4804 73656E64 		.ascii	"send_cb\000"
 17915      5F636200 
 17916              	.LASF728:
 17917 480c 7072656C 		.ascii	"preload_bootloader_mode\000"
 17917      6F61645F 
 17917      626F6F74 
 17917      6C6F6164 
 17917      65725F6D 
 17918              	.LASF375:
 17919 4824 5F5A4E4B 		.ascii	"_ZNK3r2p10StaticListINS_15LocalSubscriberEE15index_"
 17919      33723270 
 17919      31305374 
 17919      61746963 
 17919      4C697374 
 17920 4857 6F665F75 		.ascii	"of_unsafeERKS1_\000"
 17920      6E736166 
 17920      6545524B 
 17920      53315F00 
 17921              	.LASF477:
 17922 4867 5F5A4E33 		.ascii	"_ZN3r2p5Topic21notify_remotes_unsafeERNS_7MessageER"
 17922      72327035 
 17922      546F7069 
 17922      6332316E 
 17922      6F746966 
 17923 489a 4B4E535F 		.ascii	"KNS_4TimeE\000"
 17923      3454696D 
 17923      654500
 17924              	.LASF58:
 17925 48a5 5F5A4E33 		.ascii	"_ZN3r2p4Time2msEl\000"
 17925      72327034 
 17925      54696D65 
 17925      326D7345 
 17925      6C00
 17926              	.LASF530:
 17927 48b7 5F5A4E33 		.ascii	"_ZN3r2p10StaticListINS_14LocalPublisherEE14restart_"
 17927      72327031 
 17927      30537461 
 17927      7469634C 
 17927      69737449 
 17928 48ea 756E7361 		.ascii	"unsafeERNS2_14IteratorUnsafeE\000"
 17928      66654552 
 17928      4E53325F 
 17928      31344974 
 17928      65726174 
 17929              	.LASF69:
 17930 4908 706F7374 		.ascii	"post_unsafe\000"
 17930      5F756E73 
 17930      61666500 
 17931              	.LASF237:
 17932 4914 5472616E 		.ascii	"Transport\000"
 17932      73706F72 
 17932      7400
 17933              	.LASF961:
 17934 491e 5F5A4E33 		.ascii	"_ZN3r2p14RTCANTransportD2Ev\000"
 17934      72327031 
 17934      34525443 
 17934      414E5472 
ARM GAS  /tmp/ccfWo18f.s 			page 356


 17934      616E7370 
 17935              	.LASF307:
 17936 493a 5F5A4E33 		.ascii	"_ZN3r2p7Thread_13create_staticEPvjmPFlS1_ES1_PKc\000"
 17936      72327037 
 17936      54687265 
 17936      61645F31 
 17936      33637265 
 17937              	.LASF526:
 17938 496b 5F5A4E4B 		.ascii	"_ZNK3r2p10StaticListINS_14LocalPublisherEE17find_fi"
 17938      33723270 
 17938      31305374 
 17938      61746963 
 17938      4C697374 
 17939 499e 7273745F 		.ascii	"rst_unsafeEPFbRKS1_E\000"
 17939      756E7361 
 17939      66654550 
 17939      4662524B 
 17939      53315F45 
 17940              	.LASF900:
 17941 49b3 52544341 		.ascii	"RTCAN_STOP\000"
 17941      4E5F5354 
 17941      4F5000
 17942              	.LASF367:
 17943 49be 69735F76 		.ascii	"is_valid\000"
 17943      616C6964 
 17943      00
 17944              	.LASF16:
 17945 49c7 63686172 		.ascii	"char\000"
 17945      00
 17946              	.LASF746:
 17947 49cc 5F5A4E33 		.ascii	"_ZN3r2p10Middleware9find_nodeEPKc\000"
 17947      72327031 
 17947      304D6964 
 17947      646C6577 
 17947      61726539 
 17948              	.LASF23:
 17949 49ee 5379734C 		.ascii	"SysLock_\000"
 17949      6F636B5F 
 17949      00
 17950              	.LASF426:
 17951 49f7 5F5A4E4B 		.ascii	"_ZNK3r2p10StaticListINS_5TopicEE10find_firstEPFbRKS"
 17951      33723270 
 17951      31305374 
 17951      61746963 
 17951      4C697374 
 17952 4a2a 315F504B 		.ascii	"1_PKvES6_\000"
 17952      76455336 
 17952      5F00
 17953              	.LASF285:
 17954 4a34 4D6F6475 		.ascii	"Module\000"
 17954      6C6500
 17955              	.LASF819:
 17956 4a3b 725F7175 		.ascii	"r_queue\000"
 17956      65756500 
 17957              	.LASF441:
 17958 4a43 6D61785F 		.ascii	"max_queue_length\000"
 17958      71756575 
ARM GAS  /tmp/ccfWo18f.s 			page 357


 17958      655F6C65 
 17958      6E677468 
 17958      00
 17959              	.LASF711:
 17960 4a54 6765745F 		.ascii	"get_topics\000"
 17960      746F7069 
 17960      637300
 17961              	.LASF644:
 17962 4a5f 7E4D656D 		.ascii	"~MemoryPool\000"
 17962      6F727950 
 17962      6F6F6C00 
 17963              	.LASF551:
 17964 4a6b 4D61736B 		.ascii	"Mask\000"
 17964      00
 17965              	.LASF360:
 17966 4a70 6F706572 		.ascii	"operator++\000"
 17966      61746F72 
 17966      2B2B00
 17967              	.LASF468:
 17968 4a7b 636F6D70 		.ascii	"compute_deadline_unsafe\000"
 17968      7574655F 
 17968      64656164 
 17968      6C696E65 
 17968      5F756E73 
 17969              	.LASF727:
 17970 4a93 5F5A4E33 		.ascii	"_ZN3r2p10Middleware6rebootEv\000"
 17970      72327031 
 17970      304D6964 
 17970      646C6577 
 17970      61726536 
 17971              	.LASF315:
 17972 4ab0 5F5A4E33 		.ascii	"_ZN3r2p7Thread_12get_priorityEv\000"
 17972      72327037 
 17972      54687265 
 17972      61645F31 
 17972      32676574 
 17973              	.LASF223:
 17974 4ad0 5F5A4E4B 		.ascii	"_ZNK3r2p10StaticListINS_9TransportEE8is_emptyEv\000"
 17974      33723270 
 17974      31305374 
 17974      61746963 
 17974      4C697374 
 17975              	.LASF739:
 17976 4b00 5F5A4E33 		.ascii	"_ZN3r2p10Middleware9subscribeERNS_15LocalSubscriber"
 17976      72327031 
 17976      304D6964 
 17976      646C6577 
 17976      61726539 
 17977 4b33 45504B63 		.ascii	"EPKcPNS_7MessageEjj\000"
 17977      504E535F 
 17977      374D6573 
 17977      73616765 
 17977      456A6A00 
 17978              	.LASF958:
 17979 4b47 5F5A4E33 		.ascii	"_ZN3r2p19BaseSubscriberQueueD2Ev\000"
 17979      72327031 
 17979      39426173 
ARM GAS  /tmp/ccfWo18f.s 			page 358


 17979      65537562 
 17979      73637269 
 17980              	.LASF666:
 17981 4b68 72656376 		.ascii	"recv_cb\000"
 17981      5F636200 
 17982              	.LASF959:
 17983 4b70 5F5A4E33 		.ascii	"_ZN3r2p7MgmtMsgC2Ev\000"
 17983      72327037 
 17983      4D676D74 
 17983      4D736743 
 17983      32457600 
 17984              	.LASF106:
 17985 4b84 41727261 		.ascii	"ArrayQueue<r2p::TimestampedMsgPtrQueue::Entry>\000"
 17985      79517565 
 17985      75653C72 
 17985      32703A3A 
 17985      54696D65 
 17986              	.LASF669:
 17987 4bb3 52654D75 		.ascii	"ReMutex\000"
 17987      74657800 
 17988              	.LASF376:
 17989 4bbb 5F5A4E4B 		.ascii	"_ZNK3r2p10StaticListINS_15LocalSubscriberEE15contai"
 17989      33723270 
 17989      31305374 
 17989      61746963 
 17989      4C697374 
 17990 4bee 6E735F75 		.ascii	"ns_unsafeERKS1_\000"
 17990      6E736166 
 17990      6545524B 
 17990      53315F00 
 17991              	.LASF313:
 17992 4bfe 6765745F 		.ascii	"get_priority\000"
 17992      7072696F 
 17992      72697479 
 17992      00
 17993              	.LASF55:
 17994 4c0b 6F706572 		.ascii	"operator-=\000"
 17994      61746F72 
 17994      2D3D00
 17995              	.LASF356:
 17996 4c16 6F706572 		.ascii	"operator->\000"
 17996      61746F72 
 17996      2D3E00
 17997              	.LASF536:
 17998 4c21 5F5A4E4B 		.ascii	"_ZNK3r2p10StaticListINS_14LocalPublisherEE5countEv\000"
 17998      33723270 
 17998      31305374 
 17998      61746963 
 17998      4C697374 
 17999              	.LASF216:
 18000 4c54 5F5A4E33 		.ascii	"_ZN3r2p10StaticListINS_9TransportEE12begin_unsafeEv"
 18000      72327031 
 18000      30537461 
 18000      7469634C 
 18000      69737449 
 18001 4c87 00       		.ascii	"\000"
 18002              	.LASF520:
ARM GAS  /tmp/ccfWo18f.s 			page 359


 18003 4c88 5F5A4E4B 		.ascii	"_ZNK3r2p10StaticListINS_14LocalPublisherEE12count_u"
 18003      33723270 
 18003      31305374 
 18003      61746963 
 18003      4C697374 
 18004 4cbb 6E736166 		.ascii	"nsafeEv\000"
 18004      65457600 
 18005              	.LASF660:
 18006 4cc3 63726561 		.ascii	"create_publisher\000"
 18006      74655F70 
 18006      75626C69 
 18006      73686572 
 18006      00
 18007              	.LASF920:
 18008 4cd4 52544341 		.ascii	"RTCANDriver\000"
 18008      4E447269 
 18008      76657200 
 18009              	.LASF457:
 18010 4ce0 5F5A4E4B 		.ascii	"_ZNK3r2p5Topic14has_publishersEv\000"
 18010      33723270 
 18010      35546F70 
 18010      69633134 
 18010      6861735F 
 18011              	.LASF811:
 18012 4d01 31325468 		.ascii	"12ThreadsQueue\000"
 18012      72656164 
 18012      73517565 
 18012      756500
 18013              	.LASF544:
 18014 4d10 5F5A4E33 		.ascii	"_ZN3r2p10StaticListINS_14LocalPublisherEE3endEv\000"
 18014      72327031 
 18014      30537461 
 18014      7469634C 
 18014      69737449 
 18015              	.LASF906:
 18016 4d40 72746361 		.ascii	"rtcanstate_t\000"
 18016      6E737461 
 18016      74655F74 
 18016      00
 18017              	.LASF676:
 18018 4d4d 5F5A4E33 		.ascii	"_ZN3r2p7ReMutex7releaseEv\000"
 18018      72327037 
 18018      52654D75 
 18018      74657837 
 18018      72656C65 
 18019              	.LASF279:
 18020 4d67 6E6F6465 		.ascii	"node\000"
 18020      00
 18021              	.LASF418:
 18022 4d6c 5F5A4E4B 		.ascii	"_ZNK3r2p10StaticListINS_5TopicEE8get_headEv\000"
 18022      33723270 
 18022      31305374 
 18022      61746963 
 18022      4C697374 
 18023              	.LASF271:
 18024 4d98 5F5A4E33 		.ascii	"_ZN3r2p11StaticQueueINS_14BaseSubscriberEE4skipEv\000"
 18024      72327031 
ARM GAS  /tmp/ccfWo18f.s 			page 360


 18024      31537461 
 18024      74696351 
 18024      75657565 
 18025              	.LASF966:
 18026 4dca 5F5A4E33 		.ascii	"_ZN3r2p10MemoryPoolI11rtcan_msg_tEC2EPS1_j\000"
 18026      72327031 
 18026      304D656D 
 18026      6F727950 
 18026      6F6F6C49 
 18027              	.LASF362:
 18028 4df5 5F5A4E33 		.ascii	"_ZN3r2p10StaticListINS_15LocalSubscriberEE13ConstIt"
 18028      72327031 
 18028      30537461 
 18028      7469634C 
 18028      69737449 
 18029 4e28 65726174 		.ascii	"eratorppEi\000"
 18029      6F727070 
 18029      456900
 18030              	.LASF545:
 18031 4e33 5F5A4E33 		.ascii	"_ZN3r2p10StaticListINS_14LocalPublisherEE7restartER"
 18031      72327031 
 18031      30537461 
 18031      7469634C 
 18031      69737449 
 18032 4e66 4E53325F 		.ascii	"NS2_8IteratorE\000"
 18032      38497465 
 18032      7261746F 
 18032      724500
 18033              	.LASF532:
 18034 4e75 5F5A4E4B 		.ascii	"_ZNK3r2p10StaticListINS_14LocalPublisherEE10end_uns"
 18034      33723270 
 18034      31305374 
 18034      61746963 
 18034      4C697374 
 18035 4ea8 61666545 		.ascii	"afeEv\000"
 18035      7600
 18036              	.LASF848:
 18037 4eae 32364341 		.ascii	"26CAN_FilterRegister_TypeDef\000"
 18037      4E5F4669 
 18037      6C746572 
 18037      52656769 
 18037      73746572 
 18038              	.LASF326:
 18039 4ecb 6765745F 		.ascii	"get_item_size\000"
 18039      6974656D 
 18039      5F73697A 
 18039      6500
 18040              	.LASF179:
 18041 4ed9 69735F65 		.ascii	"is_empty\000"
 18041      6D707479 
 18041      00
 18042              	.LASF945:
 18043 4ee2 72746361 		.ascii	"rtcan_msg\000"
 18043      6E5F6D73 
 18043      6700
 18044              	.LASF638:
 18045 4eec 5F5A4E33 		.ascii	"_ZN3r2p10MemoryPoolI11rtcan_msg_tE12alloc_unsafeEv\000"
ARM GAS  /tmp/ccfWo18f.s 			page 361


 18045      72327031 
 18045      304D656D 
 18045      6F727950 
 18045      6F6F6C49 
 18046              	.LASF180:
 18047 4f1f 5F5A4E4B 		.ascii	"_ZNK3r2p10StaticListINS_16RemoteSubscriberEE8is_emp"
 18047      33723270 
 18047      31305374 
 18047      61746963 
 18047      4C697374 
 18048 4f52 74794576 		.ascii	"tyEv\000"
 18048      00
 18049              	.LASF312:
 18050 4f57 73656C66 		.ascii	"self\000"
 18050      00
 18051              	.LASF474:
 18052 4f5c 6E6F7469 		.ascii	"notify_locals_unsafe\000"
 18052      66795F6C 
 18052      6F63616C 
 18052      735F756E 
 18052      73616665 
 18053              	.LASF254:
 18054 4f71 7065656B 		.ascii	"peek\000"
 18054      00
 18055              	.LASF760:
 18056 4f76 5F5A4E33 		.ascii	"_ZN3r2p10Middleware11is_rebootedEv\000"
 18056      72327031 
 18056      304D6964 
 18056      646C6577 
 18056      61726531 
 18057              	.LASF29:
 18058 4f99 5F5A4E33 		.ascii	"_ZN3r2p7SysLock7acquireEv\000"
 18058      72327037 
 18058      5379734C 
 18058      6F636B37 
 18058      61637175 
 18059              	.LASF956:
 18060 4fb3 5F5A4E33 		.ascii	"_ZN3r2p12StaticQueue_D2Ev\000"
 18060      72327031 
 18060      32537461 
 18060      74696351 
 18060      75657565 
 18061              	.LASF797:
 18062 4fcd 705F7374 		.ascii	"p_stklimit\000"
 18062      6B6C696D 
 18062      697400
 18063              	.LASF735:
 18064 4fd8 5F5A4E33 		.ascii	"_ZN3r2p10Middleware3addERNS_9TransportE\000"
 18064      72327031 
 18064      304D6964 
 18064      646C6577 
 18064      61726533 
 18065              	.LASF209:
 18066 5000 5F5A4E33 		.ascii	"_ZN3r2p10StaticListINS_9TransportEE11link_unsafeERN"
 18066      72327031 
 18066      30537461 
 18066      7469634C 
ARM GAS  /tmp/ccfWo18f.s 			page 362


 18066      69737449 
 18067 5033 53325F34 		.ascii	"S2_4LinkE\000"
 18067      4C696E6B 
 18067      4500
 18068              	.LASF74:
 18069 503d 5F5A4E4B 		.ascii	"_ZNK3r2p22TimestampedMsgPtrQueue10get_lengthEv\000"
 18069      33723270 
 18069      32325469 
 18069      6D657374 
 18069      616D7065 
 18070              	.LASF374:
 18071 506c 5F5A4E33 		.ascii	"_ZN3r2p10StaticListINS_15LocalSubscriberEE13unlink_"
 18071      72327031 
 18071      30537461 
 18071      7469634C 
 18071      69737449 
 18072 509f 756E7361 		.ascii	"unsafeERNS2_4LinkE\000"
 18072      66654552 
 18072      4E53325F 
 18072      344C696E 
 18072      6B4500
 18073              	.LASF494:
 18074 50b2 61647665 		.ascii	"advertise\000"
 18074      72746973 
 18074      6500
 18075              	.LASF31:
 18076 50bc 54696D65 		.ascii	"Time\000"
 18076      00
 18077              	.LASF493:
 18078 50c1 5F5A4E33 		.ascii	"_ZN3r2p5Topic11extend_poolEPNS_7MessageEj\000"
 18078      72327035 
 18078      546F7069 
 18078      63313165 
 18078      7874656E 
 18079              	.LASF155:
 18080 50eb 6C696E6B 		.ascii	"link_unsafe\000"
 18080      5F756E73 
 18080      61666500 
 18081              	.LASF630:
 18082 50f7 7370696E 		.ascii	"spin\000"
 18082      00
 18083              	.LASF913:
 18084 50fc 52544341 		.ascii	"RTCAN_MSG_ONAIR\000"
 18084      4E5F4D53 
 18084      475F4F4E 
 18084      41495200 
 18085              	.LASF167:
 18086 510c 5F5A4E4B 		.ascii	"_ZNK3r2p10StaticListINS_16RemoteSubscriberEE17find_"
 18086      33723270 
 18086      31305374 
 18086      61746963 
 18086      4C697374 
 18087 513f 66697273 		.ascii	"first_unsafeEPFbRKS1_PKvES6_\000"
 18087      745F756E 
 18087      73616665 
 18087      45504662 
 18087      524B5331 
ARM GAS  /tmp/ccfWo18f.s 			page 363


 18088              	.LASF499:
 18089 515c 5F5A4E33 		.ascii	"_ZN3r2p5Topic9subscribeERNS_16RemoteSubscriberEj\000"
 18089      72327035 
 18089      546F7069 
 18089      63397375 
 18089      62736372 
 18090              	.LASF280:
 18091 518d 746F7069 		.ascii	"topic\000"
 18091      6300
 18092              	.LASF926:
 18093 5193 636F6E66 		.ascii	"config\000"
 18093      696700
 18094              	.LASF269:
 18095 519a 5F5A4E4B 		.ascii	"_ZNK3r2p11StaticQueueINS_14BaseSubscriberEE4peekERP"
 18095      33723270 
 18095      31315374 
 18095      61746963 
 18095      51756575 
 18096 51cd 4B4E5332 		.ascii	"KNS2_4LinkE\000"
 18096      5F344C69 
 18096      6E6B4500 
 18097              	.LASF557:
 18098 51d9 5F5A4E33 		.ascii	"_ZN3r2p10SpinEvent_13signal_unsafeEj\000"
 18098      72327031 
 18098      30537069 
 18098      6E457665 
 18098      6E745F31 
 18099              	.LASF747:
 18100 51fe 746F7563 		.ascii	"touch_topic\000"
 18100      685F746F 
 18100      70696300 
 18101              	.LASF176:
 18102 520a 5F5A4E4B 		.ascii	"_ZNK3r2p10StaticListINS_16RemoteSubscriberEE14resta"
 18102      33723270 
 18102      31305374 
 18102      61746963 
 18102      4C697374 
 18103 523d 72745F75 		.ascii	"rt_unsafeERNS2_19ConstIteratorUnsafeE\000"
 18103      6E736166 
 18103      6545524E 
 18103      53325F31 
 18103      39436F6E 
 18104              	.LASF695:
 18105 5263 6D676D74 		.ascii	"mgmt_pub\000"
 18105      5F707562 
 18105      00
 18106              	.LASF968:
 18107 526c 6C696E6B 		.ascii	"linkp\000"
 18107      7000
 18108              	.LASF654:
 18109 5272 73656E64 		.ascii	"send\000"
 18109      00
 18110              	.LASF643:
 18111 5277 4D656D6F 		.ascii	"MemoryPool\000"
 18111      7279506F 
 18111      6F6C00
 18112              	.LASF429:
ARM GAS  /tmp/ccfWo18f.s 			page 364


 18113 5282 5F5A4E33 		.ascii	"_ZN3r2p10StaticListINS_5TopicEE7restartERNS2_8Itera"
 18113      72327031 
 18113      30537461 
 18113      7469634C 
 18113      69737449 
 18114 52b5 746F7245 		.ascii	"torE\000"
 18114      00
 18115              	.LASF847:
 18116 52ba 43414E5F 		.ascii	"CAN_FIFOMailBox_TypeDef\000"
 18116      4649464F 
 18116      4D61696C 
 18116      426F785F 
 18116      54797065 
 18117              	.LASF81:
 18118 52d2 4D657373 		.ascii	"Message\000"
 18118      61676500 
 18119              	.LASF946:
 18120 52da 7472616E 		.ascii	"transport\000"
 18120      73706F72 
 18120      7400
 18121              	.LASF230:
 18122 52e4 5F5A4E4B 		.ascii	"_ZNK3r2p10StaticListINS_9TransportEE10find_firstEPF"
 18122      33723270 
 18122      31305374 
 18122      61746963 
 18122      4C697374 
 18123 5317 62524B53 		.ascii	"bRKS1_PKvES6_\000"
 18123      315F504B 
 18123      76455336 
 18123      5F00
 18124              	.LASF788:
 18125 5325 77746F62 		.ascii	"wtobjp\000"
 18125      6A7000
 18126              	.LASF925:
 18127 532c 66696C74 		.ascii	"filters\000"
 18127      65727300 
 18128              	.LASF447:
 18129 5334 5F5A4E4B 		.ascii	"_ZNK3r2p5Topic16get_payload_sizeEv\000"
 18129      33723270 
 18129      35546F70 
 18129      69633136 
 18129      6765745F 
 18130              	.LASF705:
 18131 5357 7265626F 		.ascii	"rebooted_magic\000"
 18131      6F746564 
 18131      5F6D6167 
 18131      696300
 18132              	.LASF121:
 18133 5366 5F5A4E33 		.ascii	"_ZN3r2p10ArrayQueueINS_22TimestampedMsgPtrQueue5Ent"
 18133      72327031 
 18133      30417272 
 18133      61795175 
 18133      65756549 
 18134 5399 72794545 		.ascii	"ryEE4skipEv\000"
 18134      34736B69 
 18134      70457600 
 18135              	.LASF124:
ARM GAS  /tmp/ccfWo18f.s 			page 365


 18136 53a5 696E6974 		.ascii	"initialize\000"
 18136      69616C69 
 18136      7A6500
 18137              	.LASF808:
 18138 53b0 705F7265 		.ascii	"p_realprio\000"
 18138      616C7072 
 18138      696F00
 18139              	.LASF327:
 18140 53bb 5F5A4E4B 		.ascii	"_ZNK3r2p11MemoryPool_13get_item_sizeEv\000"
 18140      33723270 
 18140      31314D65 
 18140      6D6F7279 
 18140      506F6F6C 
 18141              	.LASF72:
 18142 53e2 5F5A4E33 		.ascii	"_ZN3r2p22TimestampedMsgPtrQueue12fetch_unsafeERNS0_"
 18142      72327032 
 18142      3254696D 
 18142      65737461 
 18142      6D706564 
 18143 5415 35456E74 		.ascii	"5EntryE\000"
 18143      72794500 
 18144              	.LASF59:
 18145 541d 5F5A4E33 		.ascii	"_ZN3r2p4Time1sEl\000"
 18145      72327034 
 18145      54696D65 
 18145      3173456C 
 18145      00
 18146              	.LASF627:
 18147 542e 5F5A4E33 		.ascii	"_ZN3r2p4Node6notifyEj\000"
 18147      72327034 
 18147      4E6F6465 
 18147      366E6F74 
 18147      69667945 
 18148              	.LASF25:
 18149 5444 72656C65 		.ascii	"release\000"
 18149      61736500 
 18150              	.LASF726:
 18151 544c 7265626F 		.ascii	"reboot\000"
 18151      6F7400
 18152              	.LASF837:
 18153 5453 646F7562 		.ascii	"double\000"
 18153      6C6500
 18154              	.LASF192:
 18155 545a 5F5A4E4B 		.ascii	"_ZNK3r2p10StaticListINS_16RemoteSubscriberEE10find_"
 18155      33723270 
 18155      31305374 
 18155      61746963 
 18155      4C697374 
 18156 548d 66697273 		.ascii	"firstEPFbRKS1_PKvES6_\000"
 18156      74455046 
 18156      62524B53 
 18156      315F504B 
 18156      76455336 
 18157              	.LASF30:
 18158 54a3 5F5A4E33 		.ascii	"_ZN3r2p7SysLock7releaseEv\000"
 18158      72327037 
 18158      5379734C 
ARM GAS  /tmp/ccfWo18f.s 			page 366


 18158      6F636B37 
 18158      72656C65 
 18159              	.LASF764:
 18160 54bd 53756273 		.ascii	"SubscriberExtBuf<r2p::MgmtMsg>\000"
 18160      63726962 
 18160      65724578 
 18160      74427566 
 18160      3C723270 
 18161              	.LASF844:
 18162 54dc 52445452 		.ascii	"RDTR\000"
 18162      00
 18163              	.LASF602:
 18164 54e1 5F5A4E33 		.ascii	"_ZN3r2p10StaticListINS_4NodeEE5beginEv\000"
 18164      72327031 
 18164      30537461 
 18164      7469634C 
 18164      69737449 
 18165              	.LASF519:
 18166 5508 5F5A4E4B 		.ascii	"_ZNK3r2p10StaticListINS_14LocalPublisherEE15is_empt"
 18166      33723270 
 18166      31305374 
 18166      61746963 
 18166      4C697374 
 18167 553b 795F756E 		.ascii	"y_unsafeEv\000"
 18167      73616665 
 18167      457600
 18168              	.LASF464:
 18169 5546 69735F61 		.ascii	"is_awaiting_advertisements\000"
 18169      77616974 
 18169      696E675F 
 18169      61647665 
 18169      72746973 
 18170              	.LASF562:
 18171 5561 5370696E 		.ascii	"SpinEvent\000"
 18171      4576656E 
 18171      7400
 18172              	.LASF220:
 18173 556b 5F5A4E4B 		.ascii	"_ZNK3r2p10StaticListINS_9TransportEE10end_unsafeEv\000"
 18173      33723270 
 18173      31305374 
 18173      61746963 
 18173      4C697374 
 18174              	.LASF247:
 18175 559e 5F5A4E33 		.ascii	"_ZN3r2p12StaticQueue_12fetch_unsafeERNS0_4LinkE\000"
 18175      72327031 
 18175      32537461 
 18175      74696351 
 18175      75657565 
 18176              	.LASF534:
 18177 55ce 5F5A4E4B 		.ascii	"_ZNK3r2p10StaticListINS_14LocalPublisherEE8get_head"
 18177      33723270 
 18177      31305374 
 18177      61746963 
 18177      4C697374 
 18178 5601 457600   		.ascii	"Ev\000"
 18179              	.LASF502:
 18180 5604 6861735F 		.ascii	"has_name\000"
ARM GAS  /tmp/ccfWo18f.s 			page 367


 18180      6E616D65 
 18180      00
 18181              	.LASF674:
 18182 560d 5F5A4E33 		.ascii	"_ZN3r2p7ReMutex14release_unsafeEv\000"
 18182      72327037 
 18182      52654D75 
 18182      74657831 
 18182      3472656C 
 18183              	.LASF8:
 18184 562f 5F5F696E 		.ascii	"__int32_t\000"
 18184      7433325F 
 18184      7400
 18185              	.LASF87:
 18186 5639 61637175 		.ascii	"acquire_unsafe\000"
 18186      6972655F 
 18186      756E7361 
 18186      666500
 18187              	.LASF467:
 18188 5648 5F5A4E4B 		.ascii	"_ZNK3r2p5Topic25is_awaiting_subscriptionsEv\000"
 18188      33723270 
 18188      35546F70 
 18188      69633235 
 18188      69735F61 
 18189              	.LASF919:
 18190 5674 6D736771 		.ascii	"msgqueue_t\000"
 18190      75657565 
 18190      5F7400
 18191              	.LASF10:
 18192 567f 5F5F7569 		.ascii	"__uint32_t\000"
 18192      6E743332 
 18192      5F7400
 18193              	.LASF511:
 18194 568a 5F5A4E4B 		.ascii	"_ZNK3r2p10StaticListINS_14LocalPublisherEE13ConstIt"
 18194      33723270 
 18194      31305374 
 18194      61746963 
 18194      4C697374 
 18195 56bd 65726174 		.ascii	"eratorptEv\000"
 18195      6F727074 
 18195      457600
 18196              	.LASF405:
 18197 56c8 5F5A4E33 		.ascii	"_ZN3r2p10StaticListINS_5TopicEE11link_unsafeERNS2_4"
 18197      72327031 
 18197      30537461 
 18197      7469634C 
 18197      69737449 
 18198 56fb 4C696E6B 		.ascii	"LinkE\000"
 18198      4500
 18199              	.LASF895:
 18200 5701 64617461 		.ascii	"data\000"
 18200      00
 18201              	.LASF210:
 18202 5706 5F5A4E33 		.ascii	"_ZN3r2p10StaticListINS_9TransportEE16link_tail_unsa"
 18202      72327031 
 18202      30537461 
 18202      7469634C 
 18202      69737449 
ARM GAS  /tmp/ccfWo18f.s 			page 368


 18203 5739 66654552 		.ascii	"feERNS2_4LinkE\000"
 18203      4E53325F 
 18203      344C696E 
 18203      6B4500
 18204              	.LASF771:
 18205 5748 5F5A4E33 		.ascii	"_ZN3r2p13BasePublisher12alloc_unsafeERPNS_7MessageE"
 18205      72327031 
 18205      33426173 
 18205      65507562 
 18205      6C697368 
 18206 577b 00       		.ascii	"\000"
 18207              	.LASF344:
 18208 577c 5F5A4E33 		.ascii	"_ZN3r2p6Thread18compute_stack_sizeEj\000"
 18208      72327036 
 18208      54687265 
 18208      61643138 
 18208      636F6D70 
 18209              	.LASF163:
 18210 57a1 636F6E74 		.ascii	"contains_unsafe\000"
 18210      61696E73 
 18210      5F756E73 
 18210      61666500 
 18211              	.LASF701:
 18212 57b1 69746572 		.ascii	"iter_subscribers\000"
 18212      5F737562 
 18212      73637269 
 18212      62657273 
 18212      00
 18213              	.LASF967:
 18214 57c2 6974656D 		.ascii	"item\000"
 18214      00
 18215              	.LASF737:
 18216 57c7 5F5A4E33 		.ascii	"_ZN3r2p10Middleware9advertiseERNS_14LocalPublisherE"
 18216      72327031 
 18216      304D6964 
 18216      646C6577 
 18216      61726539 
 18217 57fa 504B6352 		.ascii	"PKcRKNS_4TimeEj\000"
 18217      4B4E535F 
 18217      3454696D 
 18217      65456A00 
 18218              	.LASF416:
 18219 580a 5F5A4E4B 		.ascii	"_ZNK3r2p10StaticListINS_5TopicEE10end_unsafeEv\000"
 18219      33723270 
 18219      31305374 
 18219      61746963 
 18219      4C697374 
 18220              	.LASF937:
 18221 5839 5F5A4E33 		.ascii	"_ZN3r2p22TimestampedMsgPtrQueue5EntryC2Ev\000"
 18221      72327032 
 18221      3254696D 
 18221      65737461 
 18221      6D706564 
 18222              	.LASF501:
 18223 5863 5F5A4E4B 		.ascii	"_ZNK3r2p5Topic16patch_pubsub_msgERNS_7MessageERNS_9"
 18223      33723270 
 18223      35546F70 
ARM GAS  /tmp/ccfWo18f.s 			page 369


 18223      69633136 
 18223      70617463 
 18224 5896 5472616E 		.ascii	"TransportE\000"
 18224      73706F72 
 18224      744500
 18225              	.LASF239:
 18226 58a1 64617461 		.ascii	"datap\000"
 18226      7000
 18227              	.LASF720:
 18228 58a7 5F5A4E4B 		.ascii	"_ZNK3r2p10Middleware10is_stoppedEv\000"
 18228      33723270 
 18228      31304D69 
 18228      64646C65 
 18228      77617265 
 18229              	.LASF76:
 18230 58ca 5F5A4E4B 		.ascii	"_ZNK3r2p22TimestampedMsgPtrQueue9get_countEv\000"
 18230      33723270 
 18230      32325469 
 18230      6D657374 
 18230      616D7065 
 18231              	.LASF651:
 18232 58f7 6D676D74 		.ascii	"mgmt_msgqueue_buf\000"
 18232      5F6D7367 
 18232      71756575 
 18232      655F6275 
 18232      6600
 18233              	.LASF116:
 18234 5909 5F5A4E4B 		.ascii	"_ZNK3r2p10ArrayQueueINS_22TimestampedMsgPtrQueue5En"
 18234      33723270 
 18234      31304172 
 18234      72617951 
 18234      75657565 
 18235 593c 74727945 		.ascii	"tryEE10get_lengthEv\000"
 18235      45313067 
 18235      65745F6C 
 18235      656E6774 
 18235      68457600 
 18236              	.LASF738:
 18237 5950 5F5A4E33 		.ascii	"_ZN3r2p10Middleware9advertiseERNS_15RemotePublisher"
 18237      72327031 
 18237      304D6964 
 18237      646C6577 
 18237      61726539 
 18238 5983 45504B63 		.ascii	"EPKcRKNS_4TimeEj\000"
 18238      524B4E53 
 18238      5F345469 
 18238      6D65456A 
 18238      00
 18239              	.LASF924:
 18240 5994 6F6E6169 		.ascii	"onair\000"
 18240      7200
 18241              	.LASF852:
 18242 599a 52455345 		.ascii	"RESERVED0\000"
 18242      52564544 
 18242      3000
 18243              	.LASF855:
 18244 59a4 52455345 		.ascii	"RESERVED1\000"
ARM GAS  /tmp/ccfWo18f.s 			page 370


 18244      52564544 
 18244      3100
 18245              	.LASF857:
 18246 59ae 52455345 		.ascii	"RESERVED2\000"
 18246      52564544 
 18246      3200
 18247              	.LASF859:
 18248 59b8 52455345 		.ascii	"RESERVED3\000"
 18248      52564544 
 18248      3300
 18249              	.LASF861:
 18250 59c2 52455345 		.ascii	"RESERVED4\000"
 18250      52564544 
 18250      3400
 18251              	.LASF863:
 18252 59cc 52455345 		.ascii	"RESERVED5\000"
 18252      52564544 
 18252      3500
 18253              	.LASF481:
 18254 59d6 5F5A4E4B 		.ascii	"_ZNK3r2p5Topic16compute_deadlineERKNS_4TimeE\000"
 18254      33723270 
 18254      35546F70 
 18254      69633136 
 18254      636F6D70 
 18255              	.LASF650:
 18256 5a03 6D676D74 		.ascii	"mgmt_msgbuf\000"
 18256      5F6D7367 
 18256      62756600 
 18257              	.LASF952:
 18258 5a0f 72746361 		.ascii	"rtcan_config\000"
 18258      6E5F636F 
 18258      6E666967 
 18258      00
 18259              	.LASF371:
 18260 5a1c 5F5A4E4B 		.ascii	"_ZNK3r2p10StaticListINS_15LocalSubscriberEE12count_"
 18260      33723270 
 18260      31305374 
 18260      61746963 
 18260      4C697374 
 18261 5a4f 756E7361 		.ascii	"unsafeEv\000"
 18261      66654576 
 18261      00
 18262              	.LASF740:
 18263 5a58 5F5A4E33 		.ascii	"_ZN3r2p10Middleware9subscribeERNS_16RemoteSubscribe"
 18263      72327031 
 18263      304D6964 
 18263      646C6577 
 18263      61726539 
 18264 5a8b 7245504B 		.ascii	"rEPKcPNS_7MessageEjj\000"
 18264      63504E53 
 18264      5F374D65 
 18264      73736167 
 18264      65456A6A 
 18265              	.LASF514:
 18266 5aa0 5F5A4E33 		.ascii	"_ZN3r2p10StaticListINS_14LocalPublisherEE13ConstIte"
 18266      72327031 
 18266      30537461 
ARM GAS  /tmp/ccfWo18f.s 			page 371


 18266      7469634C 
 18266      69737449 
 18267 5ad3 7261746F 		.ascii	"ratorppEi\000"
 18267      72707045 
 18267      6900
 18268              	.LASF133:
 18269 5add 5F5A4E33 		.ascii	"_ZN3r2p5Mutex10initializeEv\000"
 18269      72327035 
 18269      4D757465 
 18269      78313069 
 18269      6E697469 
 18270              	.LASF938:
 18271 5af9 5F5A4E33 		.ascii	"_ZN3r2p7MessageC2Ev\000"
 18271      72327037 
 18271      4D657373 
 18271      61676543 
 18271      32457600 
 18272              	.LASF513:
 18273 5b0d 5F5A4E33 		.ascii	"_ZN3r2p10StaticListINS_14LocalPublisherEE13ConstIte"
 18273      72327031 
 18273      30537461 
 18273      7469634C 
 18273      69737449 
 18274 5b40 7261746F 		.ascii	"ratorppEv\000"
 18274      72707045 
 18274      7600
 18275              	.LASF138:
 18276 5b4a 53746174 		.ascii	"StaticList<r2p::RemoteSubscriber>\000"
 18276      69634C69 
 18276      73743C72 
 18276      32703A3A 
 18276      52656D6F 
 18277              	.LASF677:
 18278 5b6c 52656D6F 		.ascii	"RemoteSubscriber\000"
 18278      74655375 
 18278      62736372 
 18278      69626572 
 18278      00
 18279              	.LASF156:
 18280 5b7d 6C696E6B 		.ascii	"link_tail_unsafe\000"
 18280      5F746169 
 18280      6C5F756E 
 18280      73616665 
 18280      00
 18281              	.LASF303:
 18282 5b8e 5F5A4E33 		.ascii	"_ZN3r2p7Thread_8get_implEv\000"
 18282      72327037 
 18282      54687265 
 18282      61645F38 
 18282      6765745F 
 18283              	.LASF232:
 18284 5ba9 5F5A4E33 		.ascii	"_ZN3r2p10StaticListINS_9TransportEE3endEv\000"
 18284      72327031 
 18284      30537461 
 18284      7469634C 
 18284      69737449 
 18285              	.LASF408:
ARM GAS  /tmp/ccfWo18f.s 			page 372


 18286 5bd3 5F5A4E4B 		.ascii	"_ZNK3r2p10StaticListINS_5TopicEE15index_of_unsafeER"
 18286      33723270 
 18286      31305374 
 18286      61746963 
 18286      4C697374 
 18287 5c06 4B53315F 		.ascii	"KS1_\000"
 18287      00
 18288              	.LASF820:
 18289 5c0b 725F7072 		.ascii	"r_prio\000"
 18289      696F00
 18290              	.LASF541:
 18291 5c12 5F5A4E4B 		.ascii	"_ZNK3r2p10StaticListINS_14LocalPublisherEE10find_fi"
 18291      33723270 
 18291      31305374 
 18291      61746963 
 18291      4C697374 
 18292 5c45 72737445 		.ascii	"rstEPFbRKS1_E\000"
 18292      50466252 
 18292      4B53315F 
 18292      4500
 18293              	.LASF145:
 18294 5c53 49746572 		.ascii	"Iterator\000"
 18294      61746F72 
 18294      00
 18295              	.LASF970:
 18296 5c5c 49544D5F 		.ascii	"ITM_RxBuffer\000"
 18296      52784275 
 18296      66666572 
 18296      00
 18297              	.LASF832:
 18298 5c69 31304D65 		.ascii	"10MemoryPool\000"
 18298      6D6F7279 
 18298      506F6F6C 
 18298      00
 18299              	.LASF14:
 18300 5c76 6C6F6E67 		.ascii	"long long unsigned int\000"
 18300      206C6F6E 
 18300      6720756E 
 18300      7369676E 
 18300      65642069 
 18301              	.LASF574:
 18302 5c8d 5F5A4E4B 		.ascii	"_ZNK3r2p10StaticListINS_4NodeEE13ConstIteratoreqERK"
 18302      33723270 
 18302      31305374 
 18302      61746963 
 18302      4C697374 
 18303 5cc0 53335F00 		.ascii	"S3_\000"
 18304              	.LASF432:
 18305 5cc4 5F5A4E4B 		.ascii	"_ZNK3r2p10StaticListINS_5TopicEE7restartERNS2_13Con"
 18305      33723270 
 18305      31305374 
 18305      61746963 
 18305      4C697374 
 18306 5cf7 73744974 		.ascii	"stIteratorE\000"
 18306      65726174 
 18306      6F724500 
 18307              	.LASF401:
ARM GAS  /tmp/ccfWo18f.s 			page 373


 18308 5d03 53746174 		.ascii	"StaticList<r2p::Topic>\000"
 18308      69634C69 
 18308      73743C72 
 18308      32703A3A 
 18308      546F7069 
 18309              	.LASF392:
 18310 5d1a 5F5A4E4B 		.ascii	"_ZNK3r2p10StaticListINS_15LocalSubscriberEE10find_f"
 18310      33723270 
 18310      31305374 
 18310      61746963 
 18310      4C697374 
 18311 5d4d 69727374 		.ascii	"irstEPFbRKS1_E\000"
 18311      45504662 
 18311      524B5331 
 18311      5F4500
 18312              	.LASF692:
 18313 5d5c 6D676D74 		.ascii	"mgmt_threadp\000"
 18313      5F746872 
 18313      65616470 
 18313      00
 18314              	.LASF258:
 18315 5d69 7E537461 		.ascii	"~StaticQueue_\000"
 18315      74696351 
 18315      75657565 
 18315      5F00
 18316              	.LASF686:
 18317 5d77 746F7069 		.ascii	"topics\000"
 18317      637300
 18318              	.LASF281:
 18319 5d7e 50756253 		.ascii	"PubSub\000"
 18319      756200
 18320              	.LASF338:
 18321 5d85 65787465 		.ascii	"extend\000"
 18321      6E6400
 18322              	.LASF28:
 18323 5d8c 5379734C 		.ascii	"SysLock\000"
 18323      6F636B00 
 18324              	.LASF122:
 18325 5d94 41727261 		.ascii	"ArrayQueue\000"
 18325      79517565 
 18325      756500
 18326              	.LASF181:
 18327 5d9f 5F5A4E4B 		.ascii	"_ZNK3r2p10StaticListINS_16RemoteSubscriberEE5countE"
 18327      33723270 
 18327      31305374 
 18327      61746963 
 18327      4C697374 
 18328 5dd2 7600     		.ascii	"v\000"
 18329              	.LASF187:
 18330 5dd4 5F5A4E4B 		.ascii	"_ZNK3r2p10StaticListINS_16RemoteSubscriberEE8index_"
 18330      33723270 
 18330      31305374 
 18330      61746963 
 18330      4C697374 
 18331 5e07 6F664552 		.ascii	"ofERKS1_\000"
 18331      4B53315F 
 18331      00
ARM GAS  /tmp/ccfWo18f.s 			page 374


 18332              	.LASF604:
 18333 5e10 5F5A4E33 		.ascii	"_ZN3r2p10StaticListINS_4NodeEE7restartERNS2_8Iterat"
 18333      72327031 
 18333      30537461 
 18333      7469634C 
 18333      69737449 
 18334 5e43 6F724500 		.ascii	"orE\000"
 18335              	.LASF169:
 18336 5e47 5F5A4E33 		.ascii	"_ZN3r2p10StaticListINS_16RemoteSubscriberEE12begin_"
 18336      72327031 
 18336      30537461 
 18336      7469634C 
 18336      69737449 
 18337 5e7a 756E7361 		.ascii	"unsafeEv\000"
 18337      66654576 
 18337      00
 18338              	.LASF799:
 18339 5e83 705F666C 		.ascii	"p_flags\000"
 18339      61677300 
 18340              	.LASF409:
 18341 5e8b 5F5A4E4B 		.ascii	"_ZNK3r2p10StaticListINS_5TopicEE15contains_unsafeER"
 18341      33723270 
 18341      31305374 
 18341      61746963 
 18341      4C697374 
 18342 5ebe 4B53315F 		.ascii	"KS1_\000"
 18342      00
 18343              	.LASF320:
 18344 5ec3 736C6565 		.ascii	"sleep\000"
 18344      7000
 18345              	.LASF260:
 18346 5ec9 5F5A4E4B 		.ascii	"_ZNK3r2p11StaticQueueINS_14BaseSubscriberEE15is_emp"
 18346      33723270 
 18346      31315374 
 18346      61746963 
 18346      51756575 
 18347 5efc 74795F75 		.ascii	"ty_unsafeEv\000"
 18347      6E736166 
 18347      65457600 
 18348              	.LASF789:
 18349 5f08 65776D61 		.ascii	"ewmask\000"
 18349      736B00
 18350              	.LASF357:
 18351 5f0f 5F5A4E4B 		.ascii	"_ZNK3r2p10StaticListINS_15LocalSubscriberEE13ConstI"
 18351      33723270 
 18351      31305374 
 18351      61746963 
 18351      4C697374 
 18352 5f42 74657261 		.ascii	"teratorptEv\000"
 18352      746F7270 
 18352      74457600 
 18353              	.LASF742:
 18354 5f4e 5F5A4E33 		.ascii	"_ZN3r2p10Middleware12confirm_stopERKNS_4NodeE\000"
 18354      72327031 
 18354      304D6964 
 18354      646C6577 
 18354      61726531 
ARM GAS  /tmp/ccfWo18f.s 			page 375


 18355              	.LASF217:
 18356 5f7c 5F5A4E33 		.ascii	"_ZN3r2p10StaticListINS_9TransportEE10end_unsafeEv\000"
 18356      72327031 
 18356      30537461 
 18356      7469634C 
 18356      69737449 
 18357              	.LASF162:
 18358 5fae 5F5A4E4B 		.ascii	"_ZNK3r2p10StaticListINS_16RemoteSubscriberEE15index"
 18358      33723270 
 18358      31305374 
 18358      61746963 
 18358      4C697374 
 18359 5fe1 5F6F665F 		.ascii	"_of_unsafeERKS1_\000"
 18359      756E7361 
 18359      66654552 
 18359      4B53315F 
 18359      00
 18360              	.LASF322:
 18361 5ff2 6A6F696E 		.ascii	"join\000"
 18361      00
 18362              	.LASF442:
 18363 5ff7 62795F6D 		.ascii	"by_middleware\000"
 18363      6964646C 
 18363      65776172 
 18363      6500
 18364              	.LASF807:
 18365 6005 705F6D74 		.ascii	"p_mtxlist\000"
 18365      786C6973 
 18365      7400
 18366              	.LASF48:
 18367 600f 5F5A4E4B 		.ascii	"_ZNK3r2p4Time4to_sEv\000"
 18367      33723270 
 18367      3454696D 
 18367      6534746F 
 18367      5F734576 
 18368              	.LASF569:
 18369 6024 5F5A4E33 		.ascii	"_ZN3r2p10StaticListINS_4NodeEE13ConstIteratoraSERKS"
 18369      72327031 
 18369      30537461 
 18369      7469634C 
 18369      69737449 
 18370 6057 335F00   		.ascii	"3_\000"
 18371              	.LASF858:
 18372 605a 46533152 		.ascii	"FS1R\000"
 18372      00
 18373              	.LASF600:
 18374 605f 5F5A4E4B 		.ascii	"_ZNK3r2p10StaticListINS_4NodeEE10find_firstEPFbRKS1"
 18374      33723270 
 18374      31305374 
 18374      61746963 
 18374      4C697374 
 18375 6092 5F4500   		.ascii	"_E\000"
 18376              	.LASF779:
 18377 6095 74737461 		.ascii	"tstate_t\000"
 18377      74655F74 
 18377      00
 18378              	.LASF850:
ARM GAS  /tmp/ccfWo18f.s 			page 376


 18379 609e 52463052 		.ascii	"RF0R\000"
 18379      00
 18380              	.LASF54:
 18381 60a3 5F5A4E33 		.ascii	"_ZN3r2p4TimepLERKS0_\000"
 18381      72327034 
 18381      54696D65 
 18381      704C4552 
 18381      4B53305F 
 18382              	.LASF128:
 18383 60b8 5F5A4E33 		.ascii	"_ZN3r2p6Mutex_7acquireEv\000"
 18383      72327036 
 18383      4D757465 
 18383      785F3761 
 18383      63717569 
 18384              	.LASF449:
 18385 60d1 5F5A4E4B 		.ascii	"_ZNK3r2p5Topic20get_max_queue_lengthEv\000"
 18385      33723270 
 18385      35546F70 
 18385      69633230 
 18385      6765745F 
 18386              	.LASF284:
 18387 60f8 7261775F 		.ascii	"raw_params\000"
 18387      70617261 
 18387      6D7300
 18388              	.LASF597:
 18389 6103 5F5A4E33 		.ascii	"_ZN3r2p10StaticListINS_4NodeEE6unlinkERNS2_4LinkE\000"
 18389      72327031 
 18389      30537461 
 18389      7469634C 
 18389      69737449 
 18390              	.LASF934:
 18391 6135 5F5A4E33 		.ascii	"_ZN3r2p10UncopyableC2Ev\000"
 18391      72327031 
 18391      30556E63 
 18391      6F707961 
 18391      626C6543 
 18392              	.LASF103:
 18393 614d 6765745F 		.ascii	"get_type_size\000"
 18393      74797065 
 18393      5F73697A 
 18393      6500
 18394              	.LASF736:
 18395 615b 5F5A4E33 		.ascii	"_ZN3r2p10Middleware3addERNS_5TopicE\000"
 18395      72327031 
 18395      304D6964 
 18395      646C6577 
 18395      61726533 
 18396              	.LASF131:
 18397 617f 5F5A4E33 		.ascii	"_ZN3r2p6Mutex_8get_implEv\000"
 18397      72327036 
 18397      4D757465 
 18397      785F3867 
 18397      65745F69 
 18398              	.LASF589:
 18399 6199 5F5A4E33 		.ascii	"_ZN3r2p10StaticListINS_4NodeEE14restart_unsafeERNS2"
 18399      72327031 
 18399      30537461 
ARM GAS  /tmp/ccfWo18f.s 			page 377


 18399      7469634C 
 18399      69737449 
 18400 61cc 5F313449 		.ascii	"_14IteratorUnsafeE\000"
 18400      74657261 
 18400      746F7255 
 18400      6E736166 
 18400      654500
 18401              	.LASF399:
 18402 61df 5F5A4E4B 		.ascii	"_ZNK3r2p10StaticListINS_15LocalSubscriberEE7restart"
 18402      33723270 
 18402      31305374 
 18402      61746963 
 18402      4C697374 
 18403 6212 45524E53 		.ascii	"ERNS2_13ConstIteratorE\000"
 18403      325F3133 
 18403      436F6E73 
 18403      74497465 
 18403      7261746F 
 18404              	.LASF445:
 18405 6229 5F5A4E4B 		.ascii	"_ZNK3r2p5Topic19get_publish_timeoutEv\000"
 18405      33723270 
 18405      35546F70 
 18405      69633139 
 18405      6765745F 
 18406              	.LASF40:
 18407 624f 5F5A4E4B 		.ascii	"_ZNK3r2p4Time8to_s_rawEv\000"
 18407      33723270 
 18407      3454696D 
 18407      6538746F 
 18407      5F735F72 
 18408              	.LASF629:
 18409 6268 5F5A4E33 		.ascii	"_ZN3r2p4Node11notify_stopEv\000"
 18409      72327034 
 18409      4E6F6465 
 18409      31316E6F 
 18409      74696679 
 18410              	.LASF465:
 18411 6284 5F5A4E4B 		.ascii	"_ZNK3r2p5Topic26is_awaiting_advertisementsEv\000"
 18411      33723270 
 18411      35546F70 
 18411      69633236 
 18411      69735F61 
 18412              	.LASF183:
 18413 62b1 5F5A4E33 		.ascii	"_ZN3r2p10StaticListINS_16RemoteSubscriberEE4linkERN"
 18413      72327031 
 18413      30537461 
 18413      7469634C 
 18413      69737449 
 18414 62e4 53325F34 		.ascii	"S2_4LinkE\000"
 18414      4C696E6B 
 18414      4500
 18415              	.LASF453:
 18416 62ee 5F5A4E4B 		.ascii	"_ZNK3r2p5Topic20has_local_publishersEv\000"
 18416      33723270 
 18416      35546F70 
 18416      69633230 
 18416      6861735F 
ARM GAS  /tmp/ccfWo18f.s 			page 378


 18417              	.LASF933:
 18418 6315 5F5F696E 		.ascii	"__in_chrg\000"
 18418      5F636872 
 18418      6700
 18419              	.LASF515:
 18420 631f 5F5A4E4B 		.ascii	"_ZNK3r2p10StaticListINS_14LocalPublisherEE13ConstIt"
 18420      33723270 
 18420      31305374 
 18420      61746963 
 18420      4C697374 
 18421 6352 65726174 		.ascii	"eratoreqERKS3_\000"
 18421      6F726571 
 18421      45524B53 
 18421      335F00
 18422              	.LASF734:
 18423 6361 5F5A4E33 		.ascii	"_ZN3r2p10Middleware3addERNS_4NodeE\000"
 18423      72327031 
 18423      304D6964 
 18423      646C6577 
 18423      61726533 
 18424              	.LASF191:
 18425 6384 5F5A4E4B 		.ascii	"_ZNK3r2p10StaticListINS_16RemoteSubscriberEE10find_"
 18425      33723270 
 18425      31305374 
 18425      61746963 
 18425      4C697374 
 18426 63b7 66697273 		.ascii	"firstEPFbRKS1_E\000"
 18426      74455046 
 18426      62524B53 
 18426      315F4500 
 18427              	.LASF139:
 18428 63c7 4C696E6B 		.ascii	"Link\000"
 18428      00
 18429              	.LASF594:
 18430 63cc 5F5A4E4B 		.ascii	"_ZNK3r2p10StaticListINS_4NodeEE8is_emptyEv\000"
 18430      33723270 
 18430      31305374 
 18430      61746963 
 18430      4C697374 
 18431              	.LASF703:
 18432 63f7 6E756D5F 		.ascii	"num_running_nodes\000"
 18432      72756E6E 
 18432      696E675F 
 18432      6E6F6465 
 18432      7300
 18433              	.LASF431:
 18434 6409 5F5A4E4B 		.ascii	"_ZNK3r2p10StaticListINS_5TopicEE3endEv\000"
 18434      33723270 
 18434      31305374 
 18434      61746963 
 18434      4C697374 
 18435              	.LASF177:
 18436 6430 6765745F 		.ascii	"get_head\000"
 18436      68656164 
 18436      00
 18437              	.LASF761:
 18438 6439 69735F62 		.ascii	"is_bootloader_mode\000"
ARM GAS  /tmp/ccfWo18f.s 			page 379


 18438      6F6F746C 
 18438      6F616465 
 18438      725F6D6F 
 18438      646500
 18439              	.LASF978:
 18440 644c 5F5A4E33 		.ascii	"_ZN3r2p14RTCANTransport11free_headerER11rtcan_msg_t"
 18440      72327031 
 18440      34525443 
 18440      414E5472 
 18440      616E7370 
 18441 647f 00       		.ascii	"\000"
 18442              	.LASF324:
 18443 6480 4D656D6F 		.ascii	"MemoryPool_\000"
 18443      7279506F 
 18443      6F6C5F00 
 18444              	.LASF12:
 18445 648c 6C6F6E67 		.ascii	"long long int\000"
 18445      206C6F6E 
 18445      6720696E 
 18445      7400
 18446              	.LASF444:
 18447 649a 6765745F 		.ascii	"get_publish_timeout\000"
 18447      7075626C 
 18447      6973685F 
 18447      74696D65 
 18447      6F757400 
 18448              	.LASF112:
 18449 64ae 5F5A4E33 		.ascii	"_ZN3r2p10ArrayQueueINS_22TimestampedMsgPtrQueue5Ent"
 18449      72327031 
 18449      30417272 
 18449      61795175 
 18449      65756549 
 18450 64e1 72794545 		.ascii	"ryEE11post_unsafeES2_\000"
 18450      3131706F 
 18450      73745F75 
 18450      6E736166 
 18450      65455332 
 18451              	.LASF309:
 18452 64f7 5F5A4E33 		.ascii	"_ZN3r2p7Thread_11create_heapEPvjmPFlS1_ES1_PKc\000"
 18452      72327037 
 18452      54687265 
 18452      61645F31 
 18452      31637265 
 18453              	.LASF941:
 18454 6526 626C6F63 		.ascii	"blocklen\000"
 18454      6B6C656E 
 18454      00
 18455              	.LASF364:
 18456 652f 5F5A4E4B 		.ascii	"_ZNK3r2p10StaticListINS_15LocalSubscriberEE13ConstI"
 18456      33723270 
 18456      31305374 
 18456      61746963 
 18456      4C697374 
 18457 6562 74657261 		.ascii	"teratoreqERKS3_\000"
 18457      746F7265 
 18457      7145524B 
 18457      53335F00 
ARM GAS  /tmp/ccfWo18f.s 			page 380


 18458              	.LASF578:
 18459 6572 5F5A4E4B 		.ascii	"_ZNK3r2p10StaticListINS_4NodeEE15is_empty_unsafeEv\000"
 18459      33723270 
 18459      31305374 
 18459      61746963 
 18459      4C697374 
 18460              	.LASF702:
 18461 65a5 69746572 		.ascii	"iter_lasttime\000"
 18461      5F6C6173 
 18461      7474696D 
 18461      6500
 18462              	.LASF568:
 18463 65b3 53746174 		.ascii	"StaticList<r2p::Node>\000"
 18463      69634C69 
 18463      73743C72 
 18463      32703A3A 
 18463      4E6F6465 
 18464              	.LASF784:
 18465 65c9 6576656E 		.ascii	"eventmask_t\000"
 18465      746D6173 
 18465      6B5F7400 
 18466              	.LASF437:
 18467 65d5 6E756D5F 		.ascii	"num_local_publishers\000"
 18467      6C6F6361 
 18467      6C5F7075 
 18467      626C6973 
 18467      68657273 
 18468              	.LASF486:
 18469 65ea 6E6F7469 		.ascii	"notify_locals\000"
 18469      66795F6C 
 18469      6F63616C 
 18469      7300
 18470              	.LASF613:
 18471 65f8 5F5A4E4B 		.ascii	"_ZNK3r2p4Node8get_nameEv\000"
 18471      33723270 
 18471      344E6F64 
 18471      65386765 
 18471      745F6E61 
 18472              	.LASF517:
 18473 6611 5F5A4E4B 		.ascii	"_ZNK3r2p10StaticListINS_14LocalPublisherEE13ConstIt"
 18473      33723270 
 18473      31305374 
 18473      61746963 
 18473      4C697374 
 18474 6644 65726174 		.ascii	"erator8is_validEv\000"
 18474      6F723869 
 18474      735F7661 
 18474      6C696445 
 18474      7600
 18475              	.LASF189:
 18476 6656 5F5A4E4B 		.ascii	"_ZNK3r2p10StaticListINS_16RemoteSubscriberEE8contai"
 18476      33723270 
 18476      31305374 
 18476      61746963 
 18476      4C697374 
 18477 6689 6E734552 		.ascii	"nsERKS1_\000"
 18477      4B53315F 
ARM GAS  /tmp/ccfWo18f.s 			page 381


 18477      00
 18478              	.LASF77:
 18479 6692 706F7374 		.ascii	"post\000"
 18479      00
 18480              	.LASF854:
 18481 6697 73464946 		.ascii	"sFIFOMailBox\000"
 18481      4F4D6169 
 18481      6C426F78 
 18481      00
 18482              	.LASF123:
 18483 66a4 4D757465 		.ascii	"Mutex_\000"
 18483      785F00
 18484              	.LASF971:
 18485 66ab 52544341 		.ascii	"RTCAND1\000"
 18485      4E443100 
 18486              	.LASF590:
 18487 66b3 5F5A4E4B 		.ascii	"_ZNK3r2p10StaticListINS_4NodeEE12begin_unsafeEv\000"
 18487      33723270 
 18487      31305374 
 18487      61746963 
 18487      4C697374 
 18488              	.LASF251:
 18489 66e3 5F5A4E4B 		.ascii	"_ZNK3r2p12StaticQueue_8get_tailEv\000"
 18489      33723270 
 18489      31325374 
 18489      61746963 
 18489      51756575 
 18490              	.LASF479:
 18491 6705 5F5A4E33 		.ascii	"_ZN3r2p5Topic19forward_copy_unsafeERKNS_7MessageERK"
 18491      72327035 
 18491      546F7069 
 18491      63313966 
 18491      6F727761 
 18492 6738 4E535F34 		.ascii	"NS_4TimeE\000"
 18492      54696D65 
 18492      4500
 18493              	.LASF547:
 18494 6742 5F5A4E4B 		.ascii	"_ZNK3r2p10StaticListINS_14LocalPublisherEE3endEv\000"
 18494      33723270 
 18494      31305374 
 18494      61746963 
 18494      4C697374 
 18495              	.LASF370:
 18496 6773 5F5A4E4B 		.ascii	"_ZNK3r2p10StaticListINS_15LocalSubscriberEE15is_emp"
 18496      33723270 
 18496      31305374 
 18496      61746963 
 18496      4C697374 
 18497 67a6 74795F75 		.ascii	"ty_unsafeEv\000"
 18497      6E736166 
 18497      65457600 
 18498              	.LASF570:
 18499 67b2 5F5A4E4B 		.ascii	"_ZNK3r2p10StaticListINS_4NodeEE13ConstIteratorptEv\000"
 18499      33723270 
 18499      31305374 
 18499      61746963 
 18499      4C697374 
ARM GAS  /tmp/ccfWo18f.s 			page 382


 18500              	.LASF233:
 18501 67e5 5F5A4E33 		.ascii	"_ZN3r2p10StaticListINS_9TransportEE7restartERNS2_8I"
 18501      72327031 
 18501      30537461 
 18501      7469634C 
 18501      69737449 
 18502 6818 74657261 		.ascii	"teratorE\000"
 18502      746F7245 
 18502      00
 18503              	.LASF975:
 18504 6821 5F5A4E33 		.ascii	"_ZN3r2p4Time3nowEv\000"
 18504      72327034 
 18504      54696D65 
 18504      336E6F77 
 18504      457600
 18505              	.LASF942:
 18506 6834 5F5A4E33 		.ascii	"_ZN3r2p11MemoryPool_C2EPvjj\000"
 18506      72327031 
 18506      314D656D 
 18506      6F727950 
 18506      6F6F6C5F 
 18507              	.LASF974:
 18508 6850 2F686F6D 		.ascii	"/home/ergae/r2p-sdk/workspace-triskarpixy/USB/\000"
 18508      652F6572 
 18508      6761652F 
 18508      7232702D 
 18508      73646B2F 
 18509              	.LASF61:
 18510 687f 5F5A4E33 		.ascii	"_ZN3r2p4Time2hzEd\000"
 18510      72327034 
 18510      54696D65 
 18510      32687A45 
 18510      6400
 18511              	.LASF542:
 18512 6891 5F5A4E4B 		.ascii	"_ZNK3r2p10StaticListINS_14LocalPublisherEE10find_fi"
 18512      33723270 
 18512      31305374 
 18512      61746963 
 18512      4C697374 
 18513 68c4 72737445 		.ascii	"rstEPFbRKS1_PKvES6_\000"
 18513      50466252 
 18513      4B53315F 
 18513      504B7645 
 18513      53365F00 
 18514              	.LASF596:
 18515 68d8 5F5A4E33 		.ascii	"_ZN3r2p10StaticListINS_4NodeEE4linkERNS2_4LinkE\000"
 18515      72327031 
 18515      30537461 
 18515      7469634C 
 18515      69737449 
 18516              	.LASF694:
 18517 6908 6D676D74 		.ascii	"mgmt_node\000"
 18517      5F6E6F64 
 18517      6500
 18518              	.LASF830:
 18519 6912 706F6F6C 		.ascii	"pool_header\000"
 18519      5F686561 
ARM GAS  /tmp/ccfWo18f.s 			page 383


 18519      64657200 
 18520              	.LASF614:
 18521 691e 6765745F 		.ascii	"get_publishers\000"
 18521      7075626C 
 18521      69736865 
 18521      727300
 18522              	.LASF754:
 18523 692d 5F5A4E33 		.ascii	"_ZN3r2p10Middleware16do_cmd_advertiseERKNS_7MgmtMsg"
 18523      72327031 
 18523      304D6964 
 18523      646C6577 
 18523      61726531 
 18524 6960 4500     		.ascii	"E\000"
 18525              	.LASF658:
 18526 6962 5F5A4E33 		.ascii	"_ZN3r2p14RTCANTransport10initializeERK11RTCANConfig"
 18526      72327031 
 18526      34525443 
 18526      414E5472 
 18526      616E7370 
 18527 6995 00       		.ascii	"\000"
 18528              	.LASF101:
 18529 6996 6765745F 		.ascii	"get_payload_size\000"
 18529      7061796C 
 18529      6F61645F 
 18529      73697A65 
 18529      00
 18530              	.LASF476:
 18531 69a7 6E6F7469 		.ascii	"notify_remotes_unsafe\000"
 18531      66795F72 
 18531      656D6F74 
 18531      65735F75 
 18531      6E736166 
 18532              	.LASF460:
 18533 69bd 6861735F 		.ascii	"has_remote_subscribers\000"
 18533      72656D6F 
 18533      74655F73 
 18533      75627363 
 18533      72696265 
 18534              	.LASF259:
 18535 69d4 53746174 		.ascii	"StaticQueue<r2p::BaseSubscriber>\000"
 18535      69635175 
 18535      6575653C 
 18535      7232703A 
 18535      3A426173 
 18536              	.LASF37:
 18537 69f5 5F5A4E4B 		.ascii	"_ZNK3r2p4Time9to_us_rawEv\000"
 18537      33723270 
 18537      3454696D 
 18537      6539746F 
 18537      5F75735F 
 18538              	.LASF497:
 18539 6a0f 73756273 		.ascii	"subscribe\000"
 18539      63726962 
 18539      6500
 18540              	.LASF491:
 18541 6a19 5F5A4E33 		.ascii	"_ZN3r2p5Topic12forward_copyERKNS_7MessageERKNS_4Tim"
 18541      72327035 
ARM GAS  /tmp/ccfWo18f.s 			page 384


 18541      546F7069 
 18541      63313266 
 18541      6F727761 
 18542 6a4c 654500   		.ascii	"eE\000"
 18543              	.LASF721:
 18544 6a4f 5F5A4E33 		.ascii	"_ZN3r2p10Middleware10initializeEPvjmS1_jm\000"
 18544      72327031 
 18544      304D6964 
 18544      646C6577 
 18544      61726531 
 18545              	.LASF980:
 18546 6a79 31314341 		.ascii	"11CAN_TypeDef\000"
 18546      4E5F5479 
 18546      70654465 
 18546      6600
 18547              	.LASF385:
 18548 6a87 5F5A4E4B 		.ascii	"_ZNK3r2p10StaticListINS_15LocalSubscriberEE8get_hea"
 18548      33723270 
 18548      31305374 
 18548      61746963 
 18548      4C697374 
 18549 6aba 64457600 		.ascii	"dEv\000"
 18550              	.LASF267:
 18551 6abe 5F5A4E4B 		.ascii	"_ZNK3r2p11StaticQueueINS_14BaseSubscriberEE8is_empt"
 18551      33723270 
 18551      31315374 
 18551      61746963 
 18551      51756575 
 18552 6af1 79457600 		.ascii	"yEv\000"
 18553              	.LASF531:
 18554 6af5 5F5A4E4B 		.ascii	"_ZNK3r2p10StaticListINS_14LocalPublisherEE12begin_u"
 18554      33723270 
 18554      31305374 
 18554      61746963 
 18554      4C697374 
 18555 6b28 6E736166 		.ascii	"nsafeEv\000"
 18555      65457600 
 18556              	.LASF801:
 18557 6b30 705F7072 		.ascii	"p_preempt\000"
 18557      65656D70 
 18557      7400
 18558              	.LASF214:
 18559 6b3a 5F5A4E4B 		.ascii	"_ZNK3r2p10StaticListINS_9TransportEE17find_first_un"
 18559      33723270 
 18559      31305374 
 18559      61746963 
 18559      4C697374 
 18560 6b6d 73616665 		.ascii	"safeEPFbRKS1_E\000"
 18560      45504662 
 18560      524B5331 
 18560      5F4500
 18561              	.LASF241:
 18562 6b7c 6765745F 		.ascii	"get_tail_unsafe\000"
 18562      7461696C 
 18562      5F756E73 
 18562      61666500 
 18563              	.LASF707:
ARM GAS  /tmp/ccfWo18f.s 			page 385


 18564 6b8c 6765745F 		.ascii	"get_module_name\000"
 18564      6D6F6475 
 18564      6C655F6E 
 18564      616D6500 
 18565              	.LASF647:
 18566 6b9c 68656164 		.ascii	"header_buffer\000"
 18566      65725F62 
 18566      75666665 
 18566      7200
 18567              	.LASF305:
 18568 6baa 5F5A4E33 		.ascii	"_ZN3r2p7Thread_18compute_stack_sizeEj\000"
 18568      72327037 
 18568      54687265 
 18568      61645F31 
 18568      38636F6D 
 18569              	.LASF49:
 18570 6bd0 746F5F6D 		.ascii	"to_m\000"
 18570      00
 18571              	.LASF400:
 18572 6bd5 4C6F6361 		.ascii	"LocalSubscriber\000"
 18572      6C537562 
 18572      73637269 
 18572      62657200 
 18573              	.LASF700:
 18574 6be5 69746572 		.ascii	"iter_publishers\000"
 18574      5F707562 
 18574      6C697368 
 18574      65727300 
 18575              	.LASF47:
 18576 6bf5 746F5F73 		.ascii	"to_s\000"
 18576      00
 18577              	.LASF363:
 18578 6bfa 6F706572 		.ascii	"operator==\000"
 18578      61746F72 
 18578      3D3D00
 18579              	.LASF496:
 18580 6c05 5F5A4E33 		.ascii	"_ZN3r2p5Topic9advertiseERNS_15RemotePublisherERKNS_"
 18580      72327035 
 18580      546F7069 
 18580      63396164 
 18580      76657274 
 18581 6c38 3454696D 		.ascii	"4TimeE\000"
 18581      654500
 18582              	.LASF618:
 18583 6c3f 6765745F 		.ascii	"get_enabled\000"
 18583      656E6162 
 18583      6C656400 
 18584              	.LASF229:
 18585 6c4b 5F5A4E4B 		.ascii	"_ZNK3r2p10StaticListINS_9TransportEE10find_firstEPF"
 18585      33723270 
 18585      31305374 
 18585      61746963 
 18585      4C697374 
 18586 6c7e 62524B53 		.ascii	"bRKS1_E\000"
 18586      315F4500 
 18587              	.LASF573:
 18588 6c86 5F5A4E33 		.ascii	"_ZN3r2p10StaticListINS_4NodeEE13ConstIteratorppEi\000"
ARM GAS  /tmp/ccfWo18f.s 			page 386


 18588      72327031 
 18588      30537461 
 18588      7469634C 
 18588      69737449 
 18589              	.LASF435:
 18590 6cb8 7075626C 		.ascii	"publish_timeout\000"
 18590      6973685F 
 18590      74696D65 
 18590      6F757400 
 18591              	.LASF869:
 18592 6cc8 43434D52 		.ascii	"CCMR1\000"
 18592      3100
 18593              	.LASF870:
 18594 6cce 43434D52 		.ascii	"CCMR2\000"
 18594      3200
 18595              	.LASF882:
 18596 6cd4 43434D52 		.ascii	"CCMR3\000"
 18596      3300
 18597              	.LASF633:
 18598 6cda 5F5A4E33 		.ascii	"_ZN3r2p4Node9subscribeERNS_15LocalSubscriberEPKcPNS"
 18598      72327034 
 18598      4E6F6465 
 18598      39737562 
 18598      73637269 
 18599 6d0d 5F374D65 		.ascii	"_7MessageEj\000"
 18599      73736167 
 18599      65456A00 
 18600              	.LASF572:
 18601 6d19 5F5A4E33 		.ascii	"_ZN3r2p10StaticListINS_4NodeEE13ConstIteratorppEv\000"
 18601      72327031 
 18601      30537461 
 18601      7469634C 
 18601      69737449 
 18602              	.LASF0:
 18603 6d4b 756E7369 		.ascii	"unsigned int\000"
 18603      676E6564 
 18603      20696E74 
 18603      00
 18604              	.LASF567:
 18605 6d58 5F5A4E33 		.ascii	"_ZN3r2p9SpinEvent4waitERKNS_4TimeE\000"
 18605      72327039 
 18605      5370696E 
 18605      4576656E 
 18605      74347761 
 18606              	.LASF22:
 18607 6d7b 7E556E63 		.ascii	"~Uncopyable\000"
 18607      6F707961 
 18607      626C6500 
 18608              	.LASF262:
 18609 6d87 5F5A4E4B 		.ascii	"_ZNK3r2p11StaticQueueINS_14BaseSubscriberEE11peek_u"
 18609      33723270 
 18609      31315374 
 18609      61746963 
 18609      51756575 
 18610 6dba 6E736166 		.ascii	"nsafeERPKNS2_4LinkE\000"
 18610      65455250 
 18610      4B4E5332 
ARM GAS  /tmp/ccfWo18f.s 			page 387


 18610      5F344C69 
 18610      6E6B4500 
 18611              	.LASF948:
 18612 6dce 72707562 		.ascii	"rpubp\000"
 18612      7000
 18613              	.LASF249:
 18614 6dd4 5F5A4E4B 		.ascii	"_ZNK3r2p12StaticQueue_8get_headEv\000"
 18614      33723270 
 18614      31325374 
 18614      61746963 
 18614      51756575 
 18615              	.LASF398:
 18616 6df6 5F5A4E4B 		.ascii	"_ZNK3r2p10StaticListINS_15LocalSubscriberEE3endEv\000"
 18616      33723270 
 18616      31305374 
 18616      61746963 
 18616      4C697374 
 18617              	.LASF653:
 18618 6e28 6D676D74 		.ascii	"mgmt_rpub\000"
 18618      5F727075 
 18618      6200
 18619              	.LASF5:
 18620 6e32 73686F72 		.ascii	"short int\000"
 18620      7420696E 
 18620      7400
 18621              	.LASF193:
 18622 6e3c 62656769 		.ascii	"begin\000"
 18622      6E00
 18623              	.LASF345:
 18624 6e42 5F5A4E33 		.ascii	"_ZN3r2p6Thread13create_staticEPvjmPFlS1_ES1_PKc\000"
 18624      72327036 
 18624      54687265 
 18624      61643133 
 18624      63726561 
 18625              	.LASF255:
 18626 6e72 5F5A4E4B 		.ascii	"_ZNK3r2p12StaticQueue_4peekERPKNS0_4LinkE\000"
 18626      33723270 
 18626      31325374 
 18626      61746963 
 18626      51756575 
 18627              	.LASF680:
 18628 6e9c 5F5A4E4B 		.ascii	"_ZNK3r2p14BaseSubscriber9get_topicEv\000"
 18628      33723270 
 18628      31344261 
 18628      73655375 
 18628      62736372 
 18629              	.LASF107:
 18630 6ec1 61727261 		.ascii	"arrayp\000"
 18630      797000
 18631              	.LASF149:
 18632 6ec8 6765745F 		.ascii	"get_head_unsafe\000"
 18632      68656164 
 18632      5F756E73 
 18632      61666500 
 18633              	.LASF134:
 18634 6ed8 5F5A4E33 		.ascii	"_ZN3r2p5Mutex14acquire_unsafeEv\000"
 18634      72327035 
ARM GAS  /tmp/ccfWo18f.s 			page 388


 18634      4D757465 
 18634      78313461 
 18634      63717569 
 18635              	.LASF34:
 18636 6ef8 494E4649 		.ascii	"INFINITEN\000"
 18636      4E495445 
 18636      4E00
 18637              	.LASF172:
 18638 6f02 72657374 		.ascii	"restart_unsafe\000"
 18638      6172745F 
 18638      756E7361 
 18638      666500
 18639              	.LASF291:
 18640 6f11 666C6167 		.ascii	"flags\000"
 18640      7300
 18641              	.LASF639:
 18642 6f17 5F5A4E33 		.ascii	"_ZN3r2p10MemoryPoolI11rtcan_msg_tE11free_unsafeEPS1"
 18642      72327031 
 18642      304D656D 
 18642      6F727950 
 18642      6F6F6C49 
 18643 6f4a 5F00     		.ascii	"_\000"
 18644              	.LASF697:
 18645 6f4c 6D676D74 		.ascii	"mgmt_queue_buf\000"
 18645      5F717565 
 18645      75655F62 
 18645      756600
 18646              	.LASF812:
 18647 6f5b 31315468 		.ascii	"11ThreadsList\000"
 18647      72656164 
 18647      734C6973 
 18647      7400
 18648              	.LASF119:
 18649 6f69 5F5A4E33 		.ascii	"_ZN3r2p10ArrayQueueINS_22TimestampedMsgPtrQueue5Ent"
 18649      72327031 
 18649      30417272 
 18649      61795175 
 18649      65756549 
 18650 6f9c 72794545 		.ascii	"ryEE5fetchERS2_\000"
 18650      35666574 
 18650      63684552 
 18650      53325F00 
 18651              		.ident	"GCC: (GNU Tools for ARM Embedded Processors) 4.9.3 20141119 (release) [ARM/embedded-4_9-br
ARM GAS  /tmp/ccfWo18f.s 			page 389


DEFINED SYMBOLS
                            *ABS*:00000000 RTCANTransport.cpp
     /tmp/ccfWo18f.s:21     .text._ZN3r2p10UncopyableC2Ev:00000000 $t
     /tmp/ccfWo18f.s:27     .text._ZN3r2p10UncopyableC2Ev:00000000 _ZN3r2p10UncopyableC2Ev
     /tmp/ccfWo18f.s:27     .text._ZN3r2p10UncopyableC2Ev:00000000 _ZN3r2p10UncopyableC1Ev
     /tmp/ccfWo18f.s:51     .text._ZN3r2p10UncopyableD2Ev:00000000 $t
     /tmp/ccfWo18f.s:57     .text._ZN3r2p10UncopyableD2Ev:00000000 _ZN3r2p10UncopyableD2Ev
     /tmp/ccfWo18f.s:57     .text._ZN3r2p10UncopyableD2Ev:00000000 _ZN3r2p10UncopyableD1Ev
     /tmp/ccfWo18f.s:80     .text._ZN3r2p8SysLock_7acquireEv:00000000 $t
     /tmp/ccfWo18f.s:86     .text._ZN3r2p8SysLock_7acquireEv:00000000 _ZN3r2p8SysLock_7acquireEv
     /tmp/ccfWo18f.s:116    .text._ZN3r2p8SysLock_7releaseEv:00000000 $t
     /tmp/ccfWo18f.s:122    .text._ZN3r2p8SysLock_7releaseEv:00000000 _ZN3r2p8SysLock_7releaseEv
     /tmp/ccfWo18f.s:151    .text._ZN3r2p7SysLock7acquireEv:00000000 $t
     /tmp/ccfWo18f.s:157    .text._ZN3r2p7SysLock7acquireEv:00000000 _ZN3r2p7SysLock7acquireEv
     /tmp/ccfWo18f.s:176    .text._ZN3r2p7SysLock7releaseEv:00000000 $t
     /tmp/ccfWo18f.s:182    .text._ZN3r2p7SysLock7releaseEv:00000000 _ZN3r2p7SysLock7releaseEv
     /tmp/ccfWo18f.s:200    .text._ZN3r2p4TimeC2Ev:00000000 $t
     /tmp/ccfWo18f.s:206    .text._ZN3r2p4TimeC2Ev:00000000 _ZN3r2p4TimeC2Ev
     /tmp/ccfWo18f.s:206    .text._ZN3r2p4TimeC2Ev:00000000 _ZN3r2p4TimeC1Ev
     /tmp/ccfWo18f.s:235    .text._ZN3r2p22TimestampedMsgPtrQueue5EntryC2Ev:00000000 $t
     /tmp/ccfWo18f.s:241    .text._ZN3r2p22TimestampedMsgPtrQueue5EntryC2Ev:00000000 _ZN3r2p22TimestampedMsgPtrQueue5EntryC2Ev
     /tmp/ccfWo18f.s:241    .text._ZN3r2p22TimestampedMsgPtrQueue5EntryC2Ev:00000000 _ZN3r2p22TimestampedMsgPtrQueue5EntryC1Ev
     /tmp/ccfWo18f.s:277    .text._ZNK3r2p7Message12get_raw_dataEv:00000000 $t
     /tmp/ccfWo18f.s:283    .text._ZNK3r2p7Message12get_raw_dataEv:00000000 _ZNK3r2p7Message12get_raw_dataEv
     /tmp/ccfWo18f.s:307    .text._ZN3r2p7Message21get_msg_from_raw_dataEPKh:00000000 $t
     /tmp/ccfWo18f.s:313    .text._ZN3r2p7Message21get_msg_from_raw_dataEPKh:00000000 _ZN3r2p7Message21get_msg_from_raw_dataEPKh
     /tmp/ccfWo18f.s:337    .text._ZN3r2p7Message12reset_unsafeEv:00000000 $t
     /tmp/ccfWo18f.s:343    .text._ZN3r2p7Message12reset_unsafeEv:00000000 _ZN3r2p7Message12reset_unsafeEv
     /tmp/ccfWo18f.s:368    .text._ZN3r2p7MessageC2Ev:00000000 $t
     /tmp/ccfWo18f.s:374    .text._ZN3r2p7MessageC2Ev:00000000 _ZN3r2p7MessageC2Ev
     /tmp/ccfWo18f.s:374    .text._ZN3r2p7MessageC2Ev:00000000 _ZN3r2p7MessageC1Ev
     /tmp/ccfWo18f.s:405    .text._ZN3r2p7Message16get_payload_sizeEj:00000000 $t
     /tmp/ccfWo18f.s:411    .text._ZN3r2p7Message16get_payload_sizeEj:00000000 _ZN3r2p7Message16get_payload_sizeEj
     /tmp/ccfWo18f.s:434    .text._ZNK3r2p11MemoryPool_13get_item_sizeEv:00000000 $t
     /tmp/ccfWo18f.s:440    .text._ZNK3r2p11MemoryPool_13get_item_sizeEv:00000000 _ZNK3r2p11MemoryPool_13get_item_sizeEv
     /tmp/ccfWo18f.s:464    .text._ZN3r2p11MemoryPool_12alloc_unsafeEv:00000000 $t
     /tmp/ccfWo18f.s:470    .text._ZN3r2p11MemoryPool_12alloc_unsafeEv:00000000 _ZN3r2p11MemoryPool_12alloc_unsafeEv
     /tmp/ccfWo18f.s:497    .text._ZN3r2p11MemoryPool_11free_unsafeEPv:00000000 $t
     /tmp/ccfWo18f.s:503    .text._ZN3r2p11MemoryPool_11free_unsafeEPv:00000000 _ZN3r2p11MemoryPool_11free_unsafeEPv
     /tmp/ccfWo18f.s:535    .text._ZN3r2p11MemoryPool_6extendEPvj:00000000 $t
     /tmp/ccfWo18f.s:541    .text._ZN3r2p11MemoryPool_6extendEPvj:00000000 _ZN3r2p11MemoryPool_6extendEPvj
     /tmp/ccfWo18f.s:570    .text._ZN3r2p11MemoryPool_C2EPvjj:00000000 $t
     /tmp/ccfWo18f.s:576    .text._ZN3r2p11MemoryPool_C2EPvjj:00000000 _ZN3r2p11MemoryPool_C2EPvjj
     /tmp/ccfWo18f.s:576    .text._ZN3r2p11MemoryPool_C2EPvjj:00000000 _ZN3r2p11MemoryPool_C1EPvjj
     /tmp/ccfWo18f.s:620    .text._ZNK3r2p14BaseSubscriber9get_topicEv:00000000 $t
     /tmp/ccfWo18f.s:626    .text._ZNK3r2p14BaseSubscriber9get_topicEv:00000000 _ZNK3r2p14BaseSubscriber9get_topicEv
     /tmp/ccfWo18f.s:650    .text._ZNK3r2p16RemoteSubscriber13get_transportEv:00000000 $t
     /tmp/ccfWo18f.s:656    .text._ZNK3r2p16RemoteSubscriber13get_transportEv:00000000 _ZNK3r2p16RemoteSubscriber13get_transportEv
     /tmp/ccfWo18f.s:680    .text._ZNK3r2p5Topic8get_nameEv:00000000 $t
     /tmp/ccfWo18f.s:686    .text._ZNK3r2p5Topic8get_nameEv:00000000 _ZNK3r2p5Topic8get_nameEv
     /tmp/ccfWo18f.s:710    .text._ZNK3r2p5Topic16get_payload_sizeEv:00000000 $t
     /tmp/ccfWo18f.s:716    .text._ZNK3r2p5Topic16get_payload_sizeEv:00000000 _ZNK3r2p5Topic16get_payload_sizeEv
     /tmp/ccfWo18f.s:747    .text._ZN3r2p5Topic12alloc_unsafeEv:00000000 $t
     /tmp/ccfWo18f.s:753    .text._ZN3r2p5Topic12alloc_unsafeEv:00000000 _ZN3r2p5Topic12alloc_unsafeEv
     /tmp/ccfWo18f.s:797    .text._ZN3r2p5Topic8has_nameERKS0_PKc:00000000 $t
     /tmp/ccfWo18f.s:803    .text._ZN3r2p5Topic8has_nameERKS0_PKc:00000000 _ZN3r2p5Topic8has_nameERKS0_PKc
     /tmp/ccfWo18f.s:849    .rodata:00000000 $d
ARM GAS  /tmp/ccfWo18f.s 			page 390


     /tmp/ccfWo18f.s:853    .text._ZN3r2p13BasePublisher12alloc_unsafeERPNS_7MessageE:00000000 $t
     /tmp/ccfWo18f.s:859    .text._ZN3r2p13BasePublisher12alloc_unsafeERPNS_7MessageE:00000000 _ZN3r2p13BasePublisher12alloc_unsafeERPNS_7MessageE
     /tmp/ccfWo18f.s:907    .text._ZN3r2p13BasePublisher12alloc_unsafeERPNS_7MessageE:0000003c $d
     /tmp/ccfWo18f.s:912    .text._ZNK3r2p10Middleware10get_topicsEv:00000000 $t
     /tmp/ccfWo18f.s:918    .text._ZNK3r2p10Middleware10get_topicsEv:00000000 _ZNK3r2p10Middleware10get_topicsEv
     /tmp/ccfWo18f.s:942    .text._ZN3r2p10Middleware14get_mgmt_topicEv:00000000 $t
     /tmp/ccfWo18f.s:948    .text._ZN3r2p10Middleware14get_mgmt_topicEv:00000000 _ZN3r2p10Middleware14get_mgmt_topicEv
     /tmp/ccfWo18f.s:971    .text._ZN3r2p14RTCANTransport4sendEPNS_7MessageEPNS_15RTCANSubscriberE:00000000 $t
     /tmp/ccfWo18f.s:977    .text._ZN3r2p14RTCANTransport4sendEPNS_7MessageEPNS_15RTCANSubscriberE:00000000 _ZN3r2p14RTCANTransport4sendEPNS_7MessageEPNS_15RTCANSubscriberE
     /tmp/ccfWo18f.s:2103   .text._ZN3r2p10MemoryPoolI11rtcan_msg_tE12alloc_unsafeEv:00000000 _ZN3r2p10MemoryPoolI11rtcan_msg_tE12alloc_unsafeEv
     /tmp/ccfWo18f.s:1061   .text._ZN3r2p14RTCANTransport4sendEPNS_7MessageEPNS_15RTCANSubscriberE:00000084 $d
     /tmp/ccfWo18f.s:1072   .text._ZN3r2p14RTCANTransport7send_cbER11rtcan_msg_t:00000000 _ZN3r2p14RTCANTransport7send_cbER11rtcan_msg_t
     /tmp/ccfWo18f.s:1066   .text._ZN3r2p14RTCANTransport7send_cbER11rtcan_msg_t:00000000 $t
     /tmp/ccfWo18f.s:2137   .text._ZN3r2p10MemoryPoolI11rtcan_msg_tE11free_unsafeEPS1_:00000000 _ZN3r2p10MemoryPoolI11rtcan_msg_tE11free_unsafeEPS1_
     /tmp/ccfWo18f.s:1121   .text._ZN3r2p14RTCANTransport7recv_cbER11rtcan_msg_t:00000000 $t
     /tmp/ccfWo18f.s:1127   .text._ZN3r2p14RTCANTransport7recv_cbER11rtcan_msg_t:00000000 _ZN3r2p14RTCANTransport7recv_cbER11rtcan_msg_t
     /tmp/ccfWo18f.s:1200   .text._ZN3r2p14RTCANTransport11free_headerER11rtcan_msg_t:00000000 $t
     /tmp/ccfWo18f.s:1206   .text._ZN3r2p14RTCANTransport11free_headerER11rtcan_msg_t:00000000 _ZN3r2p14RTCANTransport11free_headerER11rtcan_msg_t
     /tmp/ccfWo18f.s:1239   .text._ZNK3r2p14RTCANTransport16create_publisherERNS_5TopicEPKh:00000000 $t
     /tmp/ccfWo18f.s:1245   .text._ZNK3r2p14RTCANTransport16create_publisherERNS_5TopicEPKh:00000000 _ZNK3r2p14RTCANTransport16create_publisherERNS_5TopicEPKh
     /tmp/ccfWo18f.s:2171   .text._ZN3r2p5Topic5allocINS_7MessageEEEbRPT_:00000000 _ZN3r2p5Topic5allocINS_7MessageEEEbRPT_
     /tmp/ccfWo18f.s:1347   .text._ZNK3r2p14RTCANTransport16create_publisherERNS_5TopicEPKh:000000a8 $d
     /tmp/ccfWo18f.s:1354   .text._ZNK3r2p14RTCANTransport17create_subscriberERNS_5TopicEPNS_22TimestampedMsgPtrQueue5EntryEj:00000000 $t
     /tmp/ccfWo18f.s:1360   .text._ZNK3r2p14RTCANTransport17create_subscriberERNS_5TopicEPNS_22TimestampedMsgPtrQueue5EntryEj:00000000 _ZNK3r2p14RTCANTransport17create_subscriberERNS_5TopicEPNS_22TimestampedMsgPtrQueue5EntryEj
     /tmp/ccfWo18f.s:1996   .text._ZNK3r2p14RTCANTransport8topic_idERKNS_5TopicE:00000000 _ZNK3r2p14RTCANTransport8topic_idERKNS_5TopicE
     /tmp/ccfWo18f.s:1408   .text._ZN3r2p14RTCANTransport15fill_raw_paramsERKNS_5TopicEPh:00000000 $t
     /tmp/ccfWo18f.s:1414   .text._ZN3r2p14RTCANTransport15fill_raw_paramsERKNS_5TopicEPh:00000000 _ZN3r2p14RTCANTransport15fill_raw_paramsERKNS_5TopicEPh
     /tmp/ccfWo18f.s:1449   .text._ZN3r2p14RTCANTransport10initializeERK11RTCANConfig:00000000 $t
     /tmp/ccfWo18f.s:1455   .text._ZN3r2p14RTCANTransport10initializeERK11RTCANConfig:00000000 _ZN3r2p14RTCANTransport10initializeERK11RTCANConfig
     /tmp/ccfWo18f.s:1555   .text._ZN3r2p14RTCANTransport10initializeERK11RTCANConfig:000000b0 $d
     /tmp/ccfWo18f.s:1562   .text._ZN3r2p11MemoryPool_D2Ev:00000000 $t
     /tmp/ccfWo18f.s:1568   .text._ZN3r2p11MemoryPool_D2Ev:00000000 _ZN3r2p11MemoryPool_D2Ev
     /tmp/ccfWo18f.s:1568   .text._ZN3r2p11MemoryPool_D2Ev:00000000 _ZN3r2p11MemoryPool_D1Ev
     /tmp/ccfWo18f.s:1597   .text._ZN3r2p10MemoryPoolI11rtcan_msg_tED2Ev:00000000 $t
     /tmp/ccfWo18f.s:1603   .text._ZN3r2p10MemoryPoolI11rtcan_msg_tED2Ev:00000000 _ZN3r2p10MemoryPoolI11rtcan_msg_tED2Ev
     /tmp/ccfWo18f.s:1603   .text._ZN3r2p10MemoryPoolI11rtcan_msg_tED2Ev:00000000 _ZN3r2p10MemoryPoolI11rtcan_msg_tED1Ev
     /tmp/ccfWo18f.s:1637   .text._ZN3r2p12StaticQueue_D2Ev:00000000 $t
     /tmp/ccfWo18f.s:1643   .text._ZN3r2p12StaticQueue_D2Ev:00000000 _ZN3r2p12StaticQueue_D2Ev
     /tmp/ccfWo18f.s:1643   .text._ZN3r2p12StaticQueue_D2Ev:00000000 _ZN3r2p12StaticQueue_D1Ev
     /tmp/ccfWo18f.s:1673   .text._ZN3r2p11StaticQueueINS_14BaseSubscriberEED2Ev:00000000 $t
     /tmp/ccfWo18f.s:1679   .text._ZN3r2p11StaticQueueINS_14BaseSubscriberEED2Ev:00000000 _ZN3r2p11StaticQueueINS_14BaseSubscriberEED2Ev
     /tmp/ccfWo18f.s:1679   .text._ZN3r2p11StaticQueueINS_14BaseSubscriberEED2Ev:00000000 _ZN3r2p11StaticQueueINS_14BaseSubscriberEED1Ev
     /tmp/ccfWo18f.s:1713   .text._ZN3r2p19BaseSubscriberQueueD2Ev:00000000 $t
     /tmp/ccfWo18f.s:1719   .text._ZN3r2p19BaseSubscriberQueueD2Ev:00000000 _ZN3r2p19BaseSubscriberQueueD2Ev
     /tmp/ccfWo18f.s:1719   .text._ZN3r2p19BaseSubscriberQueueD2Ev:00000000 _ZN3r2p19BaseSubscriberQueueD1Ev
     /tmp/ccfWo18f.s:1750   .text._ZN3r2p7MgmtMsgC2Ev:00000000 $t
     /tmp/ccfWo18f.s:1756   .text._ZN3r2p7MgmtMsgC2Ev:00000000 _ZN3r2p7MgmtMsgC2Ev
     /tmp/ccfWo18f.s:1756   .text._ZN3r2p7MgmtMsgC2Ev:00000000 _ZN3r2p7MgmtMsgC1Ev
     /tmp/ccfWo18f.s:1791   .text._ZN3r2p14RTCANTransportC2ER11RTCANDriver:00000000 $t
     /tmp/ccfWo18f.s:1797   .text._ZN3r2p14RTCANTransportC2ER11RTCANDriver:00000000 _ZN3r2p14RTCANTransportC2ER11RTCANDriver
     /tmp/ccfWo18f.s:2213   .text._ZN3r2p10MemoryPoolI11rtcan_msg_tEC2EPS1_j:00000000 _ZN3r2p10MemoryPoolI11rtcan_msg_tEC1EPS1_j
     /tmp/ccfWo18f.s:1885   .text._ZN3r2p14RTCANTransportC2ER11RTCANDriver:00000090 $d
     /tmp/ccfWo18f.s:2332   .rodata._ZTVN3r2p14RTCANTransportE:00000000 _ZTVN3r2p14RTCANTransportE
     /tmp/ccfWo18f.s:1797   .text._ZN3r2p14RTCANTransportC2ER11RTCANDriver:00000000 _ZN3r2p14RTCANTransportC1ER11RTCANDriver
     /tmp/ccfWo18f.s:1893   .text._ZN3r2p14RTCANTransportD2Ev:00000000 $t
     /tmp/ccfWo18f.s:1899   .text._ZN3r2p14RTCANTransportD2Ev:00000000 _ZN3r2p14RTCANTransportD2Ev
     /tmp/ccfWo18f.s:1946   .text._ZN3r2p14RTCANTransportD2Ev:00000044 $d
ARM GAS  /tmp/ccfWo18f.s 			page 391


     /tmp/ccfWo18f.s:1899   .text._ZN3r2p14RTCANTransportD2Ev:00000000 _ZN3r2p14RTCANTransportD1Ev
     /tmp/ccfWo18f.s:1953   .text._ZN3r2p14RTCANTransportD0Ev:00000000 $t
     /tmp/ccfWo18f.s:1959   .text._ZN3r2p14RTCANTransportD0Ev:00000000 _ZN3r2p14RTCANTransportD0Ev
     /tmp/ccfWo18f.s:1990   .text._ZNK3r2p14RTCANTransport8topic_idERKNS_5TopicE:00000000 $t
     /tmp/ccfWo18f.s:2258   .text._ZNK3r2p10StaticListINS_5TopicEE8index_ofERKS1_:00000000 _ZNK3r2p10StaticListINS_5TopicEE8index_ofERKS1_
     /tmp/ccfWo18f.s:2091   .text._ZNK3r2p14RTCANTransport8topic_idERKNS_5TopicE:00000098 $d
     /tmp/ccfWo18f.s:2097   .text._ZN3r2p10MemoryPoolI11rtcan_msg_tE12alloc_unsafeEv:00000000 $t
     /tmp/ccfWo18f.s:2131   .text._ZN3r2p10MemoryPoolI11rtcan_msg_tE11free_unsafeEPS1_:00000000 $t
     /tmp/ccfWo18f.s:2165   .text._ZN3r2p5Topic5allocINS_7MessageEEEbRPT_:00000000 $t
     /tmp/ccfWo18f.s:2207   .text._ZN3r2p10MemoryPoolI11rtcan_msg_tEC2EPS1_j:00000000 $t
     /tmp/ccfWo18f.s:2213   .text._ZN3r2p10MemoryPoolI11rtcan_msg_tEC2EPS1_j:00000000 _ZN3r2p10MemoryPoolI11rtcan_msg_tEC2EPS1_j
     /tmp/ccfWo18f.s:2252   .text._ZNK3r2p10StaticListINS_5TopicEE8index_ofERKS1_:00000000 $t
     /tmp/ccfWo18f.s:2329   .rodata._ZTVN3r2p14RTCANTransportE:00000000 $d
                     .debug_frame:00000010 $d
     /tmp/ccfWo18f.s:1065   .text._ZN3r2p14RTCANTransport4sendEPNS_7MessageEPNS_15RTCANSubscriberE:00000088 $t
     /tmp/ccfWo18f.s:1353   .text._ZNK3r2p14RTCANTransport16create_publisherERNS_5TopicEPKh:000000b4 $t
     /tmp/ccfWo18f.s:1561   .text._ZN3r2p14RTCANTransport10initializeERK11RTCANConfig:000000bc $t
     /tmp/ccfWo18f.s:1892   .text._ZN3r2p14RTCANTransportC2ER11RTCANDriver:00000098 $t
     /tmp/ccfWo18f.s:1952   .text._ZN3r2p14RTCANTransportD2Ev:00000048 $t
                           .group:00000000 _ZN3r2p10UncopyableC5Ev
                           .group:00000000 _ZN3r2p10UncopyableD5Ev
                           .group:00000000 _ZN3r2p4TimeC5Ev
                           .group:00000000 _ZN3r2p22TimestampedMsgPtrQueue5EntryC5Ev
                           .group:00000000 _ZN3r2p7MessageC5Ev
                           .group:00000000 _ZN3r2p11MemoryPool_C5EPvjj
                           .group:00000000 _ZN3r2p11MemoryPool_D5Ev
                           .group:00000000 _ZN3r2p10MemoryPoolI11rtcan_msg_tED5Ev
                           .group:00000000 _ZN3r2p12StaticQueue_D5Ev
                           .group:00000000 _ZN3r2p11StaticQueueINS_14BaseSubscriberEED5Ev
                           .group:00000000 _ZN3r2p19BaseSubscriberQueueD5Ev
                           .group:00000000 _ZN3r2p7MgmtMsgC5Ev
                           .group:00000000 _ZN3r2p10MemoryPoolI11rtcan_msg_tEC5EPS1_j

UNDEFINED SYMBOLS
dbg_check_lock
dbg_check_unlock
chPoolAllocI
chPoolFreeI
chPoolLoadArray
chPoolInit
strncmp
chDbgPanic
rtcanTransmitI
_ZN3r2p14BaseSubscriber14release_unsafeERNS_7MessageE
_ZN3r2p13BasePublisher22publish_locally_unsafeERNS_7MessageE
_Znwj
_ZN3r2p14RTCANPublisherC1ERNS_9TransportE
rtcanReceiveMask
RTCAND1
_ZN3r2p15RTCANSubscriberC1ERNS_14RTCANTransportEPNS_22TimestampedMsgPtrQueue5EntryEj
rtcanInit
rtcanStart
_ZN3r2p9Transport9subscribeERNS_16RemoteSubscriberEPKcPNS_7MessageEjj
_ZN3r2p9Transport9advertiseERNS_15RemotePublisherEPKcRKNS_4TimeEj
_ZN3r2p10Middleware3addERNS_9TransportE
_ZN3r2p10Middleware8instanceE
_ZN3r2p4Time8INFINITEE
ARM GAS  /tmp/ccfWo18f.s 			page 392


_ZN3r2p9TransportC2EPKc
_ZN3r2p19BaseSubscriberQueueC1Ev
_ZN3r2p9TransportD2Ev
_ZdlPv
stm32_id8
_ZN3r2p5Topic5allocEv
