ARM GAS  /tmp/ccufxETe.s 			page 1


   1              		.syntax unified
   2              		.cpu cortex-m4
   3              		.eabi_attribute 27, 3
   4              		.eabi_attribute 28, 1
   5              		.fpu fpv4-sp-d16
   6              		.eabi_attribute 20, 1
   7              		.eabi_attribute 21, 1
   8              		.eabi_attribute 23, 3
   9              		.eabi_attribute 24, 1
  10              		.eabi_attribute 25, 1
  11              		.eabi_attribute 26, 1
  12              		.eabi_attribute 30, 6
  13              		.eabi_attribute 34, 1
  14              		.eabi_attribute 18, 4
  15              		.thumb
  16              		.file	"rtcan.c"
  17              		.text
  18              	.Ltext0:
  19              		.cfi_sections	.debug_frame
  20              		.global	last_sync_tim
  21              		.section	.bss.last_sync_tim,"aw",%nobits
  22              		.align	2
  23              		.type	last_sync_tim, %object
  24              		.size	last_sync_tim, 4
  25              	last_sync_tim:
  26 0000 00000000 		.space	4
  27              		.section	.text.stm32_id8,"ax",%progbits
  28              		.align	2
  29              		.p2align 4,,15
  30              		.global	stm32_id8
  31              		.thumb
  32              		.thumb_func
  33              		.type	stm32_id8, %function
  34              	stm32_id8:
  35              	.LFB118:
  36              		.file 1 "/home/ergae/r2p-sdk/core/RTCAN/src/rtcan.c"
  37              		.loc 1 28 0
  38              		.cfi_startproc
  39              		@ args = 0, pretend = 0, frame = 8
  40              		@ frame_needed = 0, uses_anonymous_args = 0
  41              		@ link register save eliminated.
  42 0000 82B0     		sub	sp, sp, #8
  43              		.cfi_def_cfa_offset 8
  44              		.loc 1 29 0
  45 0002 044B     		ldr	r3, .L3
  46 0004 0193     		str	r3, [sp, #4]
  47              		.loc 1 31 0
  48 0006 019B     		ldr	r3, [sp, #4]
  49 0008 0833     		adds	r3, r3, #8
  50 000a 1B68     		ldr	r3, [r3]
  51 000c DBB2     		uxtb	r3, r3
  52              		.loc 1 32 0
  53 000e 1846     		mov	r0, r3
  54 0010 02B0     		add	sp, sp, #8
  55              		.cfi_def_cfa_offset 0
  56              		@ sp needed
  57 0012 7047     		bx	lr
ARM GAS  /tmp/ccufxETe.s 			page 2


  58              	.L4:
  59              		.align	2
  60              	.L3:
  61 0014 E8F7FF1F 		.word	536868840
  62              		.cfi_endproc
  63              	.LFE118:
  64              		.size	stm32_id8, .-stm32_id8
  65 0018 AFF30080 		.section	.text.rtcan_ismaster,"ax",%progbits
  65      AFF30080 
  66              		.align	2
  67              		.p2align 4,,15
  68              		.global	rtcan_ismaster
  69              		.thumb
  70              		.thumb_func
  71              		.type	rtcan_ismaster, %function
  72              	rtcan_ismaster:
  73              	.LFB119:
  74              		.loc 1 34 0
  75              		.cfi_startproc
  76              		@ args = 0, pretend = 0, frame = 0
  77              		@ frame_needed = 0, uses_anonymous_args = 0
  78              		@ link register save eliminated.
  79              		.loc 1 38 0
  80 0000 0023     		movs	r3, #0
  81              		.loc 1 40 0
  82 0002 1846     		mov	r0, r3
  83 0004 7047     		bx	lr
  84              		.cfi_endproc
  85              	.LFE119:
  86              		.size	rtcan_ismaster, .-rtcan_ismaster
  87 0006 00BFAFF3 		.section	.text.rtcan_tim_isr_code,"ax",%progbits
  87      0080AFF3 
  87      0080
  88              		.align	2
  89              		.p2align 4,,15
  90              		.global	rtcan_tim_isr_code
  91              		.thumb
  92              		.thumb_func
  93              		.type	rtcan_tim_isr_code, %function
  94              	rtcan_tim_isr_code:
  95              	.LFB120:
  96              		.loc 1 66 0
  97              		.cfi_startproc
  98              		@ args = 0, pretend = 0, frame = 8
  99              		@ frame_needed = 0, uses_anonymous_args = 0
 100 0000 00B5     		push	{lr}
 101              		.cfi_def_cfa_offset 4
 102              		.cfi_offset 14, -4
 103 0002 83B0     		sub	sp, sp, #12
 104              		.cfi_def_cfa_offset 16
 105 0004 0190     		str	r0, [sp, #4]
 106              	.LBB2:
 107              		.loc 1 68 0
 108 0006 2023     		movs	r3, #32
 109              	@ 68 "/home/ergae/r2p-sdk/core/RTCAN/src/rtcan.c" 1
 110 0008 83F31188 		msr     BASEPRI, r3
 111              	@ 0 "" 2
ARM GAS  /tmp/ccufxETe.s 			page 3


 112              		.thumb
 113              	.LBE2:
 114 000c FFF7FEFF 		bl	dbg_check_lock_from_isr
 115              		.loc 1 71 0
 116 0010 019B     		ldr	r3, [sp, #4]
 117 0012 1B78     		ldrb	r3, [r3]	@ zero_extendqisi2
 118 0014 042B     		cmp	r3, #4
 119 0016 0DD0     		beq	.L9
 120 0018 052B     		cmp	r3, #5
 121 001a 16D1     		bne	.L14
 122              		.loc 1 84 0
 123 001c 019B     		ldr	r3, [sp, #4]
 124 001e 5A68     		ldr	r2, [r3, #4]
 125 0020 019B     		ldr	r3, [sp, #4]
 126 0022 5B6D     		ldr	r3, [r3, #84]
 127 0024 9B68     		ldr	r3, [r3, #8]
 128 0026 9A42     		cmp	r2, r3
 129 0028 03D9     		bls	.L11
 130              		.loc 1 85 0
 131 002a 019B     		ldr	r3, [sp, #4]
 132 002c 0322     		movs	r2, #3
 133 002e 1A70     		strb	r2, [r3]
 134              		.loc 1 87 0
 135 0030 0FE0     		b	.L12
 136              	.L11:
 137 0032 0EE0     		b	.L12
 138              	.L9:
 139              		.loc 1 89 0
 140 0034 019B     		ldr	r3, [sp, #4]
 141 0036 5B68     		ldr	r3, [r3, #4]
 142 0038 5A1C     		adds	r2, r3, #1
 143 003a 019B     		ldr	r3, [sp, #4]
 144 003c 5A60     		str	r2, [r3, #4]
 145              		.loc 1 90 0
 146 003e FFF7FEFF 		bl	dbg_check_unlock_from_isr
 147              	.LBB3:
 148 0042 0023     		movs	r3, #0
 149              	@ 90 "/home/ergae/r2p-sdk/core/RTCAN/src/rtcan.c" 1
 150 0044 83F31188 		msr     BASEPRI, r3
 151              	@ 0 "" 2
 152              		.thumb
 153              	.LBE3:
 154              		.loc 1 92 0
 155 0048 10E0     		b	.L7
 156              	.L14:
 157              		.loc 1 96 0
 158 004a 019B     		ldr	r3, [sp, #4]
 159 004c 0322     		movs	r2, #3
 160 004e 1A70     		strb	r2, [r3]
 161              		.loc 1 97 0
 162 0050 00BF     		nop
 163              	.L12:
 164              		.loc 1 100 0
 165 0052 019B     		ldr	r3, [sp, #4]
 166 0054 5B68     		ldr	r3, [r3, #4]
 167 0056 5A1C     		adds	r2, r3, #1
 168 0058 019B     		ldr	r3, [sp, #4]
ARM GAS  /tmp/ccufxETe.s 			page 4


 169 005a 5A60     		str	r2, [r3, #4]
 170              		.loc 1 110 0
 171 005c 0198     		ldr	r0, [sp, #4]
 172 005e FFF7FEFF 		bl	srt_transmit
 173              		.loc 1 112 0
 174 0062 FFF7FEFF 		bl	dbg_check_unlock_from_isr
 175              	.LBB4:
 176 0066 0023     		movs	r3, #0
 177              	@ 112 "/home/ergae/r2p-sdk/core/RTCAN/src/rtcan.c" 1
 178 0068 83F31188 		msr     BASEPRI, r3
 179              	@ 0 "" 2
 180              		.thumb
 181              	.L7:
 182              	.LBE4:
 183              		.loc 1 113 0
 184 006c 03B0     		add	sp, sp, #12
 185              		.cfi_def_cfa_offset 4
 186              		@ sp needed
 187 006e 5DF804FB 		ldr	pc, [sp], #4
 188              		.cfi_endproc
 189              	.LFE120:
 190              		.size	rtcan_tim_isr_code, .-rtcan_tim_isr_code
 191 0072 00BFAFF3 		.section	.text.rtcan_txok_isr_code,"ax",%progbits
 191      0080AFF3 
 191      0080AFF3 
 191      0080
 192              		.align	2
 193              		.p2align 4,,15
 194              		.global	rtcan_txok_isr_code
 195              		.thumb
 196              		.thumb_func
 197              		.type	rtcan_txok_isr_code, %function
 198              	rtcan_txok_isr_code:
 199              	.LFB121:
 200              		.loc 1 120 0
 201              		.cfi_startproc
 202              		@ args = 0, pretend = 0, frame = 16
 203              		@ frame_needed = 0, uses_anonymous_args = 0
 204 0000 00B5     		push	{lr}
 205              		.cfi_def_cfa_offset 4
 206              		.cfi_offset 14, -4
 207 0002 85B0     		sub	sp, sp, #20
 208              		.cfi_def_cfa_offset 24
 209 0004 0190     		str	r0, [sp, #4]
 210 0006 0B46     		mov	r3, r1
 211 0008 8DF80330 		strb	r3, [sp, #3]
 212              	.LBB5:
 213              		.loc 1 123 0
 214 000c 2023     		movs	r3, #32
 215              	@ 123 "/home/ergae/r2p-sdk/core/RTCAN/src/rtcan.c" 1
 216 000e 83F31188 		msr     BASEPRI, r3
 217              	@ 0 "" 2
 218              		.thumb
 219              	.LBE5:
 220 0012 FFF7FEFF 		bl	dbg_check_lock_from_isr
 221              		.loc 1 126 0
 222 0016 9DF80320 		ldrb	r2, [sp, #3]	@ zero_extendqisi2
ARM GAS  /tmp/ccufxETe.s 			page 5


 223 001a 019B     		ldr	r3, [sp, #4]
 224 001c 0432     		adds	r2, r2, #4
 225 001e 53F82230 		ldr	r3, [r3, r2, lsl #2]
 226 0022 0393     		str	r3, [sp, #12]
 227              		.loc 1 127 0
 228 0024 9DF80320 		ldrb	r2, [sp, #3]	@ zero_extendqisi2
 229 0028 019B     		ldr	r3, [sp, #4]
 230 002a 0432     		adds	r2, r2, #4
 231 002c 0021     		movs	r1, #0
 232 002e 43F82210 		str	r1, [r3, r2, lsl #2]
 233              		.loc 1 129 0
 234 0032 039B     		ldr	r3, [sp, #12]
 235 0034 5B7F     		ldrb	r3, [r3, #29]
 236 0036 C3F30603 		ubfx	r3, r3, #0, #7
 237 003a DBB2     		uxtb	r3, r3
 238 003c 002B     		cmp	r3, #0
 239 003e 1FDD     		ble	.L16
 240              		.loc 1 130 0
 241 0040 039B     		ldr	r3, [sp, #12]
 242 0042 5B7F     		ldrb	r3, [r3, #29]
 243 0044 C3F30603 		ubfx	r3, r3, #0, #7
 244 0048 DBB2     		uxtb	r3, r3
 245 004a 7F33     		adds	r3, r3, #127
 246 004c 03F07F03 		and	r3, r3, #127
 247 0050 D9B2     		uxtb	r1, r3
 248 0052 039A     		ldr	r2, [sp, #12]
 249 0054 537F     		ldrb	r3, [r2, #29]
 250 0056 61F30603 		bfi	r3, r1, #0, #7
 251 005a 5377     		strb	r3, [r2, #29]
 252              		.loc 1 131 0
 253 005c 039B     		ldr	r3, [sp, #12]
 254 005e D3F81930 		ldr	r3, [r3, #25]	@ unaligned
 255 0062 03F10802 		add	r2, r3, #8
 256 0066 039B     		ldr	r3, [sp, #12]
 257 0068 C3F81920 		str	r2, [r3, #25]	@ unaligned
 258              		.loc 1 132 0
 259 006c 019B     		ldr	r3, [sp, #4]
 260 006e 0C33     		adds	r3, r3, #12
 261 0070 1846     		mov	r0, r3
 262 0072 0399     		ldr	r1, [sp, #12]
 263 0074 FFF7FEFF 		bl	msgqueue_insert
 264              		.loc 1 133 0
 265 0078 039B     		ldr	r3, [sp, #12]
 266 007a 0322     		movs	r2, #3
 267 007c 1A71     		strb	r2, [r3, #4]
 268 007e 0CE0     		b	.L17
 269              	.L16:
 270              		.loc 1 135 0
 271 0080 039B     		ldr	r3, [sp, #12]
 272 0082 0222     		movs	r2, #2
 273 0084 1A71     		strb	r2, [r3, #4]
 274              		.loc 1 136 0
 275 0086 039B     		ldr	r3, [sp, #12]
 276 0088 D3F80530 		ldr	r3, [r3, #5]	@ unaligned
 277 008c 002B     		cmp	r3, #0
 278 008e 04D0     		beq	.L17
 279              		.loc 1 137 0
ARM GAS  /tmp/ccufxETe.s 			page 6


 280 0090 039B     		ldr	r3, [sp, #12]
 281 0092 D3F80530 		ldr	r3, [r3, #5]	@ unaligned
 282 0096 0398     		ldr	r0, [sp, #12]
 283 0098 9847     		blx	r3
 284              	.L17:
 285              		.loc 1 142 0
 286 009a 0198     		ldr	r0, [sp, #4]
 287 009c FFF7FEFF 		bl	srt_transmit
 288              		.loc 1 145 0
 289 00a0 FFF7FEFF 		bl	dbg_check_unlock_from_isr
 290              	.LBB6:
 291 00a4 0023     		movs	r3, #0
 292              	@ 145 "/home/ergae/r2p-sdk/core/RTCAN/src/rtcan.c" 1
 293 00a6 83F31188 		msr     BASEPRI, r3
 294              	@ 0 "" 2
 295              		.thumb
 296              	.LBE6:
 297              		.loc 1 146 0
 298 00aa 05B0     		add	sp, sp, #20
 299              		.cfi_def_cfa_offset 4
 300              		@ sp needed
 301 00ac 5DF804FB 		ldr	pc, [sp], #4
 302              		.cfi_endproc
 303              	.LFE121:
 304              		.size	rtcan_txok_isr_code, .-rtcan_txok_isr_code
 305              		.section	.text.rtcan_alst_isr_code,"ax",%progbits
 306              		.align	2
 307              		.p2align 4,,15
 308              		.global	rtcan_alst_isr_code
 309              		.thumb
 310              		.thumb_func
 311              		.type	rtcan_alst_isr_code, %function
 312              	rtcan_alst_isr_code:
 313              	.LFB122:
 314              		.loc 1 153 0
 315              		.cfi_startproc
 316              		@ args = 0, pretend = 0, frame = 16
 317              		@ frame_needed = 0, uses_anonymous_args = 0
 318 0000 00B5     		push	{lr}
 319              		.cfi_def_cfa_offset 4
 320              		.cfi_offset 14, -4
 321 0002 85B0     		sub	sp, sp, #20
 322              		.cfi_def_cfa_offset 24
 323 0004 0190     		str	r0, [sp, #4]
 324 0006 0B46     		mov	r3, r1
 325 0008 8DF80330 		strb	r3, [sp, #3]
 326              	.LBB7:
 327              		.loc 1 156 0
 328 000c 2023     		movs	r3, #32
 329              	@ 156 "/home/ergae/r2p-sdk/core/RTCAN/src/rtcan.c" 1
 330 000e 83F31188 		msr     BASEPRI, r3
 331              	@ 0 "" 2
 332              		.thumb
 333              	.LBE7:
 334 0012 FFF7FEFF 		bl	dbg_check_lock_from_isr
 335              		.loc 1 159 0
 336 0016 9DF80320 		ldrb	r2, [sp, #3]	@ zero_extendqisi2
ARM GAS  /tmp/ccufxETe.s 			page 7


 337 001a 019B     		ldr	r3, [sp, #4]
 338 001c 0432     		adds	r2, r2, #4
 339 001e 53F82230 		ldr	r3, [r3, r2, lsl #2]
 340 0022 0393     		str	r3, [sp, #12]
 341              		.loc 1 160 0
 342 0024 9DF80320 		ldrb	r2, [sp, #3]	@ zero_extendqisi2
 343 0028 019B     		ldr	r3, [sp, #4]
 344 002a 0432     		adds	r2, r2, #4
 345 002c 0021     		movs	r1, #0
 346 002e 43F82210 		str	r1, [r3, r2, lsl #2]
 347              		.loc 1 162 0
 348 0032 039B     		ldr	r3, [sp, #12]
 349 0034 002B     		cmp	r3, #0
 350 0036 00D1     		bne	.L19
 351              	.L20:
 352              		.loc 1 165 0 discriminator 1
 353 0038 FEE7     		b	.L20
 354              	.L19:
 355              		.loc 1 170 0
 356 003a 019B     		ldr	r3, [sp, #4]
 357 003c 0C33     		adds	r3, r3, #12
 358 003e 1846     		mov	r0, r3
 359 0040 0399     		ldr	r1, [sp, #12]
 360 0042 FFF7FEFF 		bl	msgqueue_insert
 361              		.loc 1 171 0
 362 0046 039B     		ldr	r3, [sp, #12]
 363 0048 0322     		movs	r2, #3
 364 004a 1A71     		strb	r2, [r3, #4]
 365              		.loc 1 174 0
 366 004c 0198     		ldr	r0, [sp, #4]
 367 004e FFF7FEFF 		bl	srt_transmit
 368              		.loc 1 177 0
 369 0052 FFF7FEFF 		bl	dbg_check_unlock_from_isr
 370              	.LBB8:
 371 0056 0023     		movs	r3, #0
 372              	@ 177 "/home/ergae/r2p-sdk/core/RTCAN/src/rtcan.c" 1
 373 0058 83F31188 		msr     BASEPRI, r3
 374              	@ 0 "" 2
 375              		.thumb
 376              	.LBE8:
 377              		.loc 1 178 0
 378 005c 05B0     		add	sp, sp, #20
 379              		.cfi_def_cfa_offset 4
 380              		@ sp needed
 381 005e 5DF804FB 		ldr	pc, [sp], #4
 382              		.cfi_endproc
 383              	.LFE122:
 384              		.size	rtcan_alst_isr_code, .-rtcan_alst_isr_code
 385 0062 00BFAFF3 		.section	.text.rtcan_terr_isr_code,"ax",%progbits
 385      0080AFF3 
 385      0080AFF3 
 385      0080
 386              		.align	2
 387              		.p2align 4,,15
 388              		.global	rtcan_terr_isr_code
 389              		.thumb
 390              		.thumb_func
ARM GAS  /tmp/ccufxETe.s 			page 8


 391              		.type	rtcan_terr_isr_code, %function
 392              	rtcan_terr_isr_code:
 393              	.LFB123:
 394              		.loc 1 185 0
 395              		.cfi_startproc
 396              		@ args = 0, pretend = 0, frame = 16
 397              		@ frame_needed = 0, uses_anonymous_args = 0
 398 0000 00B5     		push	{lr}
 399              		.cfi_def_cfa_offset 4
 400              		.cfi_offset 14, -4
 401 0002 85B0     		sub	sp, sp, #20
 402              		.cfi_def_cfa_offset 24
 403 0004 0190     		str	r0, [sp, #4]
 404 0006 0B46     		mov	r3, r1
 405 0008 8DF80330 		strb	r3, [sp, #3]
 406              	.LBB9:
 407              		.loc 1 188 0
 408 000c 2023     		movs	r3, #32
 409              	@ 188 "/home/ergae/r2p-sdk/core/RTCAN/src/rtcan.c" 1
 410 000e 83F31188 		msr     BASEPRI, r3
 411              	@ 0 "" 2
 412              		.thumb
 413              	.LBE9:
 414 0012 FFF7FEFF 		bl	dbg_check_lock_from_isr
 415              		.loc 1 191 0
 416 0016 9DF80320 		ldrb	r2, [sp, #3]	@ zero_extendqisi2
 417 001a 019B     		ldr	r3, [sp, #4]
 418 001c 0432     		adds	r2, r2, #4
 419 001e 53F82230 		ldr	r3, [r3, r2, lsl #2]
 420 0022 0393     		str	r3, [sp, #12]
 421              		.loc 1 192 0
 422 0024 9DF80320 		ldrb	r2, [sp, #3]	@ zero_extendqisi2
 423 0028 019B     		ldr	r3, [sp, #4]
 424 002a 0432     		adds	r2, r2, #4
 425 002c 0021     		movs	r1, #0
 426 002e 43F82210 		str	r1, [r3, r2, lsl #2]
 427              		.loc 1 194 0
 428 0032 039B     		ldr	r3, [sp, #12]
 429 0034 002B     		cmp	r3, #0
 430 0036 00D1     		bne	.L23
 431              	.L24:
 432              		.loc 1 197 0 discriminator 1
 433 0038 FEE7     		b	.L24
 434              	.L23:
 435              		.loc 1 202 0
 436 003a 039B     		ldr	r3, [sp, #12]
 437 003c 0522     		movs	r2, #5
 438 003e 1A71     		strb	r2, [r3, #4]
 439              		.loc 1 204 0
 440 0040 039B     		ldr	r3, [sp, #12]
 441 0042 D3F80530 		ldr	r3, [r3, #5]	@ unaligned
 442 0046 002B     		cmp	r3, #0
 443 0048 04D0     		beq	.L25
 444              		.loc 1 205 0
 445 004a 039B     		ldr	r3, [sp, #12]
 446 004c D3F80530 		ldr	r3, [r3, #5]	@ unaligned
 447 0050 0398     		ldr	r0, [sp, #12]
ARM GAS  /tmp/ccufxETe.s 			page 9


 448 0052 9847     		blx	r3
 449              	.L25:
 450              		.loc 1 209 0
 451 0054 0198     		ldr	r0, [sp, #4]
 452 0056 FFF7FEFF 		bl	srt_transmit
 453              		.loc 1 212 0
 454 005a FFF7FEFF 		bl	dbg_check_unlock_from_isr
 455              	.LBB10:
 456 005e 0023     		movs	r3, #0
 457              	@ 212 "/home/ergae/r2p-sdk/core/RTCAN/src/rtcan.c" 1
 458 0060 83F31188 		msr     BASEPRI, r3
 459              	@ 0 "" 2
 460              		.thumb
 461              	.LBE10:
 462              		.loc 1 213 0
 463 0064 05B0     		add	sp, sp, #20
 464              		.cfi_def_cfa_offset 4
 465              		@ sp needed
 466 0066 5DF804FB 		ldr	pc, [sp], #4
 467              		.cfi_endproc
 468              	.LFE123:
 469              		.size	rtcan_terr_isr_code, .-rtcan_terr_isr_code
 470 006a 00BFAFF3 		.section	.text.rtcan_rx_isr_code,"ax",%progbits
 470      0080
 471              		.align	2
 472              		.p2align 4,,15
 473              		.global	rtcan_rx_isr_code
 474              		.thumb
 475              		.thumb_func
 476              		.type	rtcan_rx_isr_code, %function
 477              	rtcan_rx_isr_code:
 478              	.LFB124:
 479              		.loc 1 220 0
 480              		.cfi_startproc
 481              		@ args = 0, pretend = 0, frame = 40
 482              		@ frame_needed = 0, uses_anonymous_args = 0
 483 0000 00B5     		push	{lr}
 484              		.cfi_def_cfa_offset 4
 485              		.cfi_offset 14, -4
 486 0002 8BB0     		sub	sp, sp, #44
 487              		.cfi_def_cfa_offset 48
 488 0004 0190     		str	r0, [sp, #4]
 489              	.LBB11:
 490              		.loc 1 224 0
 491 0006 2023     		movs	r3, #32
 492              	@ 224 "/home/ergae/r2p-sdk/core/RTCAN/src/rtcan.c" 1
 493 0008 83F31188 		msr     BASEPRI, r3
 494              	@ 0 "" 2
 495              		.thumb
 496              	.LBE11:
 497 000c FFF7FEFF 		bl	dbg_check_lock_from_isr
 498              		.loc 1 227 0
 499 0010 03AB     		add	r3, sp, #12
 500 0012 0198     		ldr	r0, [sp, #4]
 501 0014 1946     		mov	r1, r3
 502 0016 FFF7FEFF 		bl	rtcan_lld_can_receive
 503              		.loc 1 272 0
ARM GAS  /tmp/ccufxETe.s 			page 10


 504 001a 9DF81130 		ldrb	r3, [sp, #17]	@ zero_extendqisi2
 505 001e 019A     		ldr	r2, [sp, #4]
 506 0020 0633     		adds	r3, r3, #6
 507 0022 9B00     		lsls	r3, r3, #2
 508 0024 1344     		add	r3, r3, r2
 509 0026 5B68     		ldr	r3, [r3, #4]
 510 0028 0893     		str	r3, [sp, #32]
 511              		.loc 1 275 0
 512 002a 089B     		ldr	r3, [sp, #32]
 513 002c 002B     		cmp	r3, #0
 514 002e 05D1     		bne	.L28
 515              		.loc 1 276 0
 516 0030 FFF7FEFF 		bl	dbg_check_unlock_from_isr
 517              	.LBB12:
 518 0034 0023     		movs	r3, #0
 519              	@ 276 "/home/ergae/r2p-sdk/core/RTCAN/src/rtcan.c" 1
 520 0036 83F31188 		msr     BASEPRI, r3
 521              	@ 0 "" 2
 522              		.thumb
 523              	.L29:
 524              	.LBE12:
 525              		.loc 1 278 0 discriminator 1
 526 003a FEE7     		b	.L29
 527              	.L28:
 528              		.loc 1 282 0
 529 003c 089B     		ldr	r3, [sp, #32]
 530 003e 1B79     		ldrb	r3, [r3, #4]	@ zero_extendqisi2
 531 0040 022B     		cmp	r3, #2
 532 0042 2ED1     		bne	.L30
 533              		.loc 1 283 0
 534 0044 089B     		ldr	r3, [sp, #32]
 535 0046 0422     		movs	r2, #4
 536 0048 1A71     		strb	r2, [r3, #4]
 537              		.loc 1 284 0
 538 004a 089B     		ldr	r3, [sp, #32]
 539 004c D3F81520 		ldr	r2, [r3, #21]	@ unaligned
 540 0050 089B     		ldr	r3, [sp, #32]
 541 0052 C3F81920 		str	r2, [r3, #25]	@ unaligned
 542              		.loc 1 285 0
 543 0056 039B     		ldr	r3, [sp, #12]
 544 0058 C3F31C03 		ubfx	r3, r3, #0, #29
 545 005c DB11     		asrs	r3, r3, #7
 546 005e 9AB2     		uxth	r2, r3
 547 0060 089B     		ldr	r3, [sp, #32]
 548 0062 A3F81120 		strh	r2, [r3, #17]	@ unaligned
 549              		.loc 1 288 0
 550 0066 089B     		ldr	r3, [sp, #32]
 551 0068 B3F81330 		ldrh	r3, [r3, #19]	@ unaligned
 552 006c 9BB2     		uxth	r3, r3
 553 006e 082B     		cmp	r3, #8
 554 0070 12D9     		bls	.L31
 555              		.loc 1 289 0
 556 0072 089B     		ldr	r3, [sp, #32]
 557 0074 B3F81330 		ldrh	r3, [r3, #19]	@ unaligned
 558 0078 9BB2     		uxth	r3, r3
 559 007a 013B     		subs	r3, r3, #1
 560 007c 002B     		cmp	r3, #0
ARM GAS  /tmp/ccufxETe.s 			page 11


 561 007e 00DA     		bge	.L32
 562 0080 0733     		adds	r3, r3, #7
 563              	.L32:
 564 0082 DB10     		asrs	r3, r3, #3
 565 0084 DBB2     		uxtb	r3, r3
 566 0086 03F07F03 		and	r3, r3, #127
 567 008a D9B2     		uxtb	r1, r3
 568 008c 089A     		ldr	r2, [sp, #32]
 569 008e 537F     		ldrb	r3, [r2, #29]
 570 0090 61F30603 		bfi	r3, r1, #0, #7
 571 0094 5377     		strb	r3, [r2, #29]
 572 0096 04E0     		b	.L30
 573              	.L31:
 574              		.loc 1 291 0
 575 0098 089A     		ldr	r2, [sp, #32]
 576 009a 537F     		ldrb	r3, [r2, #29]
 577 009c 6FF30603 		bfc	r3, #0, #7
 578 00a0 5377     		strb	r3, [r2, #29]
 579              	.L30:
 580              		.loc 1 295 0
 581 00a2 089B     		ldr	r3, [sp, #32]
 582 00a4 1B79     		ldrb	r3, [r3, #4]	@ zero_extendqisi2
 583 00a6 042B     		cmp	r3, #4
 584 00a8 73D1     		bne	.L33
 585              	.LBB13:
 586              		.loc 1 299 0
 587 00aa 039B     		ldr	r3, [sp, #12]
 588 00ac C3F31C03 		ubfx	r3, r3, #0, #29
 589 00b0 DB11     		asrs	r3, r3, #7
 590 00b2 8DF81F30 		strb	r3, [sp, #31]
 591              		.loc 1 300 0
 592 00b6 089B     		ldr	r3, [sp, #32]
 593 00b8 B3F81130 		ldrh	r3, [r3, #17]	@ unaligned
 594 00bc 9BB2     		uxth	r3, r3
 595 00be 8DF81E30 		strb	r3, [sp, #30]
 596              		.loc 1 301 0
 597 00c2 9DF81F20 		ldrb	r2, [sp, #31]	@ zero_extendqisi2
 598 00c6 9DF81E30 		ldrb	r3, [sp, #30]	@ zero_extendqisi2
 599 00ca 9A42     		cmp	r2, r3
 600 00cc 05D0     		beq	.L34
 601              		.loc 1 303 0
 602 00ce FFF7FEFF 		bl	dbg_check_unlock_from_isr
 603              	.LBB14:
 604 00d2 0023     		movs	r3, #0
 605              	@ 303 "/home/ergae/r2p-sdk/core/RTCAN/src/rtcan.c" 1
 606 00d4 83F31188 		msr     BASEPRI, r3
 607              	@ 0 "" 2
 608              		.thumb
 609              	.LBE14:
 610              		.loc 1 304 0
 611 00d8 60E0     		b	.L27
 612              	.L34:
 613              		.loc 1 308 0
 614 00da 039B     		ldr	r3, [sp, #12]
 615 00dc C3F31C03 		ubfx	r3, r3, #0, #29
 616 00e0 DBB2     		uxtb	r3, r3
 617 00e2 03F07F03 		and	r3, r3, #127
ARM GAS  /tmp/ccufxETe.s 			page 12


 618 00e6 8DF81D30 		strb	r3, [sp, #29]
 619              		.loc 1 309 0
 620 00ea 089B     		ldr	r3, [sp, #32]
 621 00ec 5B7F     		ldrb	r3, [r3, #29]
 622 00ee C3F30603 		ubfx	r3, r3, #0, #7
 623 00f2 DBB2     		uxtb	r3, r3
 624 00f4 1A46     		mov	r2, r3
 625 00f6 9DF81D30 		ldrb	r3, [sp, #29]	@ zero_extendqisi2
 626 00fa 9342     		cmp	r3, r2
 627 00fc 08D0     		beq	.L36
 628              		.loc 1 310 0
 629 00fe 089B     		ldr	r3, [sp, #32]
 630 0100 0222     		movs	r2, #2
 631 0102 1A71     		strb	r2, [r3, #4]
 632              		.loc 1 311 0
 633 0104 FFF7FEFF 		bl	dbg_check_unlock_from_isr
 634              	.LBB15:
 635 0108 0023     		movs	r3, #0
 636              	@ 311 "/home/ergae/r2p-sdk/core/RTCAN/src/rtcan.c" 1
 637 010a 83F31188 		msr     BASEPRI, r3
 638              	@ 0 "" 2
 639              		.thumb
 640              	.LBE15:
 641              		.loc 1 312 0
 642 010e 45E0     		b	.L27
 643              	.L36:
 644              		.loc 1 315 0
 645 0110 0023     		movs	r3, #0
 646 0112 0993     		str	r3, [sp, #36]
 647 0114 0EE0     		b	.L37
 648              	.L38:
 649              		.loc 1 316 0 discriminator 3
 650 0116 089B     		ldr	r3, [sp, #32]
 651 0118 D3F81930 		ldr	r3, [r3, #25]	@ unaligned
 652 011c 591C     		adds	r1, r3, #1
 653 011e 089A     		ldr	r2, [sp, #32]
 654 0120 C2F81910 		str	r1, [r2, #25]	@ unaligned
 655 0124 05A9     		add	r1, sp, #20
 656 0126 099A     		ldr	r2, [sp, #36]
 657 0128 0A44     		add	r2, r2, r1
 658 012a 1278     		ldrb	r2, [r2]	@ zero_extendqisi2
 659 012c 1A70     		strb	r2, [r3]
 660              		.loc 1 315 0 discriminator 3
 661 012e 099B     		ldr	r3, [sp, #36]
 662 0130 0133     		adds	r3, r3, #1
 663 0132 0993     		str	r3, [sp, #36]
 664              	.L37:
 665              		.loc 1 315 0 is_stmt 0 discriminator 1
 666 0134 9DF81030 		ldrb	r3, [sp, #16]
 667 0138 C3F30303 		ubfx	r3, r3, #0, #4
 668 013c DBB2     		uxtb	r3, r3
 669 013e 1A46     		mov	r2, r3
 670 0140 099B     		ldr	r3, [sp, #36]
 671 0142 9A42     		cmp	r2, r3
 672 0144 E7D8     		bhi	.L38
 673              		.loc 1 319 0 is_stmt 1
 674 0146 089B     		ldr	r3, [sp, #32]
ARM GAS  /tmp/ccufxETe.s 			page 13


 675 0148 5B7F     		ldrb	r3, [r3, #29]
 676 014a C3F30603 		ubfx	r3, r3, #0, #7
 677 014e DBB2     		uxtb	r3, r3
 678 0150 002B     		cmp	r3, #0
 679 0152 0EDD     		ble	.L39
 680              		.loc 1 320 0
 681 0154 089B     		ldr	r3, [sp, #32]
 682 0156 5B7F     		ldrb	r3, [r3, #29]
 683 0158 C3F30603 		ubfx	r3, r3, #0, #7
 684 015c DBB2     		uxtb	r3, r3
 685 015e 7F33     		adds	r3, r3, #127
 686 0160 03F07F03 		and	r3, r3, #127
 687 0164 D9B2     		uxtb	r1, r3
 688 0166 089A     		ldr	r2, [sp, #32]
 689 0168 537F     		ldrb	r3, [r2, #29]
 690 016a 61F30603 		bfi	r3, r1, #0, #7
 691 016e 5377     		strb	r3, [r2, #29]
 692 0170 0FE0     		b	.L33
 693              	.L39:
 694              		.loc 1 322 0
 695 0172 089B     		ldr	r3, [sp, #32]
 696 0174 D3F80530 		ldr	r3, [r3, #5]	@ unaligned
 697 0178 002B     		cmp	r3, #0
 698 017a 0AD0     		beq	.L33
 699              		.loc 1 323 0
 700 017c 089B     		ldr	r3, [sp, #32]
 701 017e 0122     		movs	r2, #1
 702 0180 1A71     		strb	r2, [r3, #4]
 703              		.loc 1 324 0
 704 0182 089B     		ldr	r3, [sp, #32]
 705 0184 D3F80530 		ldr	r3, [r3, #5]	@ unaligned
 706 0188 0898     		ldr	r0, [sp, #32]
 707 018a 9847     		blx	r3
 708              		.loc 1 325 0
 709 018c 089B     		ldr	r3, [sp, #32]
 710 018e 0222     		movs	r2, #2
 711 0190 1A71     		strb	r2, [r3, #4]
 712              	.L33:
 713              	.LBE13:
 714              		.loc 1 329 0
 715 0192 FFF7FEFF 		bl	dbg_check_unlock_from_isr
 716              	.LBB16:
 717 0196 0023     		movs	r3, #0
 718              	@ 329 "/home/ergae/r2p-sdk/core/RTCAN/src/rtcan.c" 1
 719 0198 83F31188 		msr     BASEPRI, r3
 720              	@ 0 "" 2
 721              		.thumb
 722              	.L27:
 723              	.LBE16:
 724              		.loc 1 330 0
 725 019c 0BB0     		add	sp, sp, #44
 726              		.cfi_def_cfa_offset 4
 727              		@ sp needed
 728 019e 5DF804FB 		ldr	pc, [sp], #4
 729              		.cfi_endproc
 730              	.LFE124:
 731              		.size	rtcan_rx_isr_code, .-rtcan_rx_isr_code
ARM GAS  /tmp/ccufxETe.s 			page 14


 732 01a2 00BFAFF3 		.section	.text.rtcanInit,"ax",%progbits
 732      0080AFF3 
 732      0080AFF3 
 732      0080
 733              		.align	2
 734              		.p2align 4,,15
 735              		.global	rtcanInit
 736              		.thumb
 737              		.thumb_func
 738              		.type	rtcanInit, %function
 739              	rtcanInit:
 740              	.LFB125:
 741              		.loc 1 337 0
 742              		.cfi_startproc
 743              		@ args = 0, pretend = 0, frame = 0
 744              		@ frame_needed = 0, uses_anonymous_args = 0
 745 0000 08B5     		push	{r3, lr}
 746              		.cfi_def_cfa_offset 8
 747              		.cfi_offset 3, -8
 748              		.cfi_offset 14, -4
 749              		.loc 1 342 0
 750 0002 FFF7FEFF 		bl	rtcan_lld_can_init
 751              		.loc 1 343 0
 752 0006 08BD     		pop	{r3, pc}
 753              		.cfi_endproc
 754              	.LFE125:
 755              		.size	rtcanInit, .-rtcanInit
 756              		.section	.text.rtcanReset,"ax",%progbits
 757              		.align	2
 758              		.p2align 4,,15
 759              		.global	rtcanReset
 760              		.thumb
 761              		.thumb_func
 762              		.type	rtcanReset, %function
 763              	rtcanReset:
 764              	.LFB126:
 765              		.loc 1 352 0
 766              		.cfi_startproc
 767              		@ args = 0, pretend = 0, frame = 16
 768              		@ frame_needed = 0, uses_anonymous_args = 0
 769 0000 00B5     		push	{lr}
 770              		.cfi_def_cfa_offset 4
 771              		.cfi_offset 14, -4
 772 0002 85B0     		sub	sp, sp, #20
 773              		.cfi_def_cfa_offset 24
 774 0004 0190     		str	r0, [sp, #4]
 775              		.loc 1 355 0
 776 0006 019B     		ldr	r3, [sp, #4]
 777 0008 0122     		movs	r2, #1
 778 000a 1A70     		strb	r2, [r3]
 779              		.loc 1 356 0
 780 000c 019B     		ldr	r3, [sp, #4]
 781 000e 0022     		movs	r2, #0
 782 0010 5A65     		str	r2, [r3, #84]
 783              		.loc 1 358 0
 784 0012 019B     		ldr	r3, [sp, #4]
 785 0014 0C33     		adds	r3, r3, #12
ARM GAS  /tmp/ccufxETe.s 			page 15


 786 0016 1846     		mov	r0, r3
 787 0018 FFF7FEFF 		bl	msgqueue_init
 788              		.loc 1 360 0
 789 001c 0023     		movs	r3, #0
 790 001e 0393     		str	r3, [sp, #12]
 791 0020 08E0     		b	.L43
 792              	.L44:
 793              		.loc 1 361 0 discriminator 3
 794 0022 019B     		ldr	r3, [sp, #4]
 795 0024 039A     		ldr	r2, [sp, #12]
 796 0026 0432     		adds	r2, r2, #4
 797 0028 0021     		movs	r1, #0
 798 002a 43F82210 		str	r1, [r3, r2, lsl #2]
 799              		.loc 1 360 0 discriminator 3
 800 002e 039B     		ldr	r3, [sp, #12]
 801 0030 0133     		adds	r3, r3, #1
 802 0032 0393     		str	r3, [sp, #12]
 803              	.L43:
 804              		.loc 1 360 0 is_stmt 0 discriminator 1
 805 0034 039B     		ldr	r3, [sp, #12]
 806 0036 022B     		cmp	r3, #2
 807 0038 F3DD     		ble	.L44
 808              		.loc 1 364 0 is_stmt 1
 809 003a 0023     		movs	r3, #0
 810 003c 0393     		str	r3, [sp, #12]
 811 003e 09E0     		b	.L45
 812              	.L46:
 813              		.loc 1 365 0 discriminator 3
 814 0040 019A     		ldr	r2, [sp, #4]
 815 0042 039B     		ldr	r3, [sp, #12]
 816 0044 0633     		adds	r3, r3, #6
 817 0046 9B00     		lsls	r3, r3, #2
 818 0048 1344     		add	r3, r3, r2
 819 004a 0022     		movs	r2, #0
 820 004c 5A60     		str	r2, [r3, #4]
 821              		.loc 1 364 0 discriminator 3
 822 004e 039B     		ldr	r3, [sp, #12]
 823 0050 0133     		adds	r3, r3, #1
 824 0052 0393     		str	r3, [sp, #12]
 825              	.L45:
 826              		.loc 1 364 0 is_stmt 0 discriminator 1
 827 0054 039B     		ldr	r3, [sp, #12]
 828 0056 0D2B     		cmp	r3, #13
 829 0058 F2DD     		ble	.L46
 830              		.loc 1 372 0 is_stmt 1
 831 005a 05B0     		add	sp, sp, #20
 832              		.cfi_def_cfa_offset 4
 833              		@ sp needed
 834 005c 5DF804FB 		ldr	pc, [sp], #4
 835              		.cfi_endproc
 836              	.LFE126:
 837              		.size	rtcanReset, .-rtcanReset
 838              		.section	.rodata
 839              		.align	2
 840              	.LC0:
 841 0000 22727463 		.ascii	"\"rtcanStart\"()\000"
 841      616E5374 
ARM GAS  /tmp/ccufxETe.s 			page 16


 841      61727422 
 841      282900
 842 000f 00       		.align	2
 843              	.LC1:
 844 0010 72746361 		.ascii	"rtcanStart(), #1\000"
 844      6E537461 
 844      72742829 
 844      2C202331 
 844      00
 845              		.section	.text.rtcanStart,"ax",%progbits
 846              		.align	2
 847              		.p2align 4,,15
 848              		.global	rtcanStart
 849              		.thumb
 850              		.thumb_func
 851              		.type	rtcanStart, %function
 852              	rtcanStart:
 853              	.LFB127:
 854              		.loc 1 386 0
 855              		.cfi_startproc
 856              		@ args = 0, pretend = 0, frame = 8
 857              		@ frame_needed = 0, uses_anonymous_args = 0
 858 0000 00B5     		push	{lr}
 859              		.cfi_def_cfa_offset 4
 860              		.cfi_offset 14, -4
 861 0002 83B0     		sub	sp, sp, #12
 862              		.cfi_def_cfa_offset 16
 863 0004 0190     		str	r0, [sp, #4]
 864 0006 0091     		str	r1, [sp]
 865              		.loc 1 388 0
 866 0008 019B     		ldr	r3, [sp, #4]
 867 000a 002B     		cmp	r3, #0
 868 000c 05D1     		bne	.L48
 869              		.loc 1 388 0 is_stmt 0 discriminator 1
 870 000e 009B     		ldr	r3, [sp]
 871 0010 002B     		cmp	r3, #0
 872 0012 02D1     		bne	.L48
 873              		.loc 1 388 0 discriminator 2
 874 0014 1648     		ldr	r0, .L53
 875 0016 FFF7FEFF 		bl	chDbgPanic
 876              	.L48:
 877              	.LBB17:
 878              		.loc 1 390 0 is_stmt 1
 879 001a 2023     		movs	r3, #32
 880              	@ 390 "/home/ergae/r2p-sdk/core/RTCAN/src/rtcan.c" 1
 881 001c 83F31188 		msr     BASEPRI, r3
 882              	@ 0 "" 2
 883              		.thumb
 884              	.LBE17:
 885 0020 FFF7FEFF 		bl	dbg_check_lock
 886              		.loc 1 392 0
 887 0024 019B     		ldr	r3, [sp, #4]
 888 0026 1B78     		ldrb	r3, [r3]	@ zero_extendqisi2
 889 0028 012B     		cmp	r3, #1
 890 002a 02D0     		beq	.L49
 891              		.loc 1 392 0 is_stmt 0 discriminator 1
 892 002c 1148     		ldr	r0, .L53+4
ARM GAS  /tmp/ccufxETe.s 			page 17


 893 002e FFF7FEFF 		bl	chDbgPanic
 894              	.L49:
 895              		.loc 1 395 0 is_stmt 1
 896 0032 019B     		ldr	r3, [sp, #4]
 897 0034 1B78     		ldrb	r3, [r3]	@ zero_extendqisi2
 898 0036 012B     		cmp	r3, #1
 899 0038 08D1     		bne	.L50
 900              		.loc 1 396 0
 901 003a 019B     		ldr	r3, [sp, #4]
 902 003c 009A     		ldr	r2, [sp]
 903 003e 5A65     		str	r2, [r3, #84]
 904              		.loc 1 397 0
 905 0040 0198     		ldr	r0, [sp, #4]
 906 0042 FFF7FEFF 		bl	rtcan_lld_can_start
 907              		.loc 1 398 0
 908 0046 019B     		ldr	r3, [sp, #4]
 909 0048 0222     		movs	r2, #2
 910 004a 1A70     		strb	r2, [r3]
 911              	.L50:
 912              		.loc 1 417 0
 913 004c 019B     		ldr	r3, [sp, #4]
 914 004e 0522     		movs	r2, #5
 915 0050 1A70     		strb	r2, [r3]
 916              		.loc 1 420 0
 917 0052 FFF7FEFF 		bl	dbg_check_unlock
 918              	.LBB18:
 919 0056 0023     		movs	r3, #0
 920              	@ 420 "/home/ergae/r2p-sdk/core/RTCAN/src/rtcan.c" 1
 921 0058 83F31188 		msr     BASEPRI, r3
 922              	@ 0 "" 2
 923              		.thumb
 924              	.LBE18:
 925              		.loc 1 422 0
 926 005c 01E0     		b	.L51
 927              	.L52:
 928              		.loc 1 423 0
 929 005e FFF7FEFF 		bl	rtcan_blinker
 930              	.L51:
 931              		.loc 1 422 0
 932 0062 019B     		ldr	r3, [sp, #4]
 933 0064 1B78     		ldrb	r3, [r3]	@ zero_extendqisi2
 934 0066 042B     		cmp	r3, #4
 935 0068 F9D0     		beq	.L52
 936              		.loc 1 425 0
 937 006a 03B0     		add	sp, sp, #12
 938              		.cfi_def_cfa_offset 4
 939              		@ sp needed
 940 006c 5DF804FB 		ldr	pc, [sp], #4
 941              	.L54:
 942              		.align	2
 943              	.L53:
 944 0070 00000000 		.word	.LC0
 945 0074 10000000 		.word	.LC1
 946              		.cfi_endproc
 947              	.LFE127:
 948              		.size	rtcanStart, .-rtcanStart
 949 0078 AFF30080 		.section	.rodata
ARM GAS  /tmp/ccufxETe.s 			page 18


 949      AFF30080 
 950 0021 000000   		.align	2
 951              	.LC2:
 952 0024 22727463 		.ascii	"\"rtcanStop\"()\000"
 952      616E5374 
 952      6F702228 
 952      2900
 953 0032 0000     		.align	2
 954              	.LC3:
 955 0034 72746361 		.ascii	"rtcanStop(), #1\000"
 955      6E53746F 
 955      7028292C 
 955      20233100 
 956              		.section	.text.rtcanStop,"ax",%progbits
 957              		.align	2
 958              		.p2align 4,,15
 959              		.global	rtcanStop
 960              		.thumb
 961              		.thumb_func
 962              		.type	rtcanStop, %function
 963              	rtcanStop:
 964              	.LFB128:
 965              		.loc 1 434 0
 966              		.cfi_startproc
 967              		@ args = 0, pretend = 0, frame = 8
 968              		@ frame_needed = 0, uses_anonymous_args = 0
 969 0000 00B5     		push	{lr}
 970              		.cfi_def_cfa_offset 4
 971              		.cfi_offset 14, -4
 972 0002 83B0     		sub	sp, sp, #12
 973              		.cfi_def_cfa_offset 16
 974 0004 0190     		str	r0, [sp, #4]
 975              		.loc 1 436 0
 976 0006 019B     		ldr	r3, [sp, #4]
 977 0008 002B     		cmp	r3, #0
 978 000a 02D1     		bne	.L56
 979              		.loc 1 436 0 is_stmt 0 discriminator 1
 980 000c 1048     		ldr	r0, .L58
 981 000e FFF7FEFF 		bl	chDbgPanic
 982              	.L56:
 983              	.LBB19:
 984              		.loc 1 438 0 is_stmt 1
 985 0012 2023     		movs	r3, #32
 986              	@ 438 "/home/ergae/r2p-sdk/core/RTCAN/src/rtcan.c" 1
 987 0014 83F31188 		msr     BASEPRI, r3
 988              	@ 0 "" 2
 989              		.thumb
 990              	.LBE19:
 991 0018 FFF7FEFF 		bl	dbg_check_lock
 992              		.loc 1 440 0
 993 001c 019B     		ldr	r3, [sp, #4]
 994 001e 1B78     		ldrb	r3, [r3]	@ zero_extendqisi2
 995 0020 062B     		cmp	r3, #6
 996 0022 06D0     		beq	.L57
 997              		.loc 1 440 0 is_stmt 0 discriminator 1
 998 0024 019B     		ldr	r3, [sp, #4]
 999 0026 1B78     		ldrb	r3, [r3]	@ zero_extendqisi2
ARM GAS  /tmp/ccufxETe.s 			page 19


 1000 0028 052B     		cmp	r3, #5
 1001 002a 02D0     		beq	.L57
 1002              		.loc 1 440 0 discriminator 2
 1003 002c 0948     		ldr	r0, .L58+4
 1004 002e FFF7FEFF 		bl	chDbgPanic
 1005              	.L57:
 1006              		.loc 1 442 0 is_stmt 1
 1007 0032 0198     		ldr	r0, [sp, #4]
 1008 0034 FFF7FEFF 		bl	rtcan_lld_can_stop
 1009              		.loc 1 443 0
 1010 0038 019B     		ldr	r3, [sp, #4]
 1011 003a 0122     		movs	r2, #1
 1012 003c 1A70     		strb	r2, [r3]
 1013              		.loc 1 444 0
 1014 003e FFF7FEFF 		bl	dbg_check_unlock
 1015              	.LBB20:
 1016 0042 0023     		movs	r3, #0
 1017              	@ 444 "/home/ergae/r2p-sdk/core/RTCAN/src/rtcan.c" 1
 1018 0044 83F31188 		msr     BASEPRI, r3
 1019              	@ 0 "" 2
 1020              		.thumb
 1021              	.LBE20:
 1022              		.loc 1 445 0
 1023 0048 03B0     		add	sp, sp, #12
 1024              		.cfi_def_cfa_offset 4
 1025              		@ sp needed
 1026 004a 5DF804FB 		ldr	pc, [sp], #4
 1027              	.L59:
 1028 004e 00BF     		.align	2
 1029              	.L58:
 1030 0050 24000000 		.word	.LC2
 1031 0054 34000000 		.word	.LC3
 1032              		.cfi_endproc
 1033              	.LFE128:
 1034              		.size	rtcanStop, .-rtcanStop
 1035 0058 AFF30080 		.section	.text.rtcanTransmit,"ax",%progbits
 1035      AFF30080 
 1036              		.align	2
 1037              		.p2align 4,,15
 1038              		.global	rtcanTransmit
 1039              		.thumb
 1040              		.thumb_func
 1041              		.type	rtcanTransmit, %function
 1042              	rtcanTransmit:
 1043              	.LFB129:
 1044              		.loc 1 452 0
 1045              		.cfi_startproc
 1046              		@ args = 0, pretend = 0, frame = 16
 1047              		@ frame_needed = 0, uses_anonymous_args = 0
 1048 0000 00B5     		push	{lr}
 1049              		.cfi_def_cfa_offset 4
 1050              		.cfi_offset 14, -4
 1051 0002 85B0     		sub	sp, sp, #20
 1052              		.cfi_def_cfa_offset 24
 1053 0004 0390     		str	r0, [sp, #12]
 1054 0006 0291     		str	r1, [sp, #8]
 1055 0008 0192     		str	r2, [sp, #4]
ARM GAS  /tmp/ccufxETe.s 			page 20


 1056              	.LBB21:
 1057              		.loc 1 454 0
 1058 000a 2023     		movs	r3, #32
 1059              	@ 454 "/home/ergae/r2p-sdk/core/RTCAN/src/rtcan.c" 1
 1060 000c 83F31188 		msr     BASEPRI, r3
 1061              	@ 0 "" 2
 1062              		.thumb
 1063              	.LBE21:
 1064 0010 FFF7FEFF 		bl	dbg_check_lock
 1065              		.loc 1 456 0
 1066 0014 0398     		ldr	r0, [sp, #12]
 1067 0016 0299     		ldr	r1, [sp, #8]
 1068 0018 019A     		ldr	r2, [sp, #4]
 1069 001a FFF7FEFF 		bl	rtcanTransmitI
 1070              		.loc 1 457 0
 1071 001e FFF7FEFF 		bl	dbg_check_unlock
 1072              	.LBB22:
 1073 0022 0023     		movs	r3, #0
 1074              	@ 457 "/home/ergae/r2p-sdk/core/RTCAN/src/rtcan.c" 1
 1075 0024 83F31188 		msr     BASEPRI, r3
 1076              	@ 0 "" 2
 1077              		.thumb
 1078              	.LBE22:
 1079              		.loc 1 458 0
 1080 0028 05B0     		add	sp, sp, #20
 1081              		.cfi_def_cfa_offset 4
 1082              		@ sp needed
 1083 002a 5DF804FB 		ldr	pc, [sp], #4
 1084              		.cfi_endproc
 1085              	.LFE129:
 1086              		.size	rtcanTransmit, .-rtcanTransmit
 1087 002e 00BF     		.section	.text.rtcanTransmitI,"ax",%progbits
 1088              		.align	2
 1089              		.p2align 4,,15
 1090              		.global	rtcanTransmitI
 1091              		.thumb
 1092              		.thumb_func
 1093              		.type	rtcanTransmitI, %function
 1094              	rtcanTransmitI:
 1095              	.LFB130:
 1096              		.loc 1 465 0
 1097              		.cfi_startproc
 1098              		@ args = 0, pretend = 0, frame = 16
 1099              		@ frame_needed = 0, uses_anonymous_args = 0
 1100 0000 00B5     		push	{lr}
 1101              		.cfi_def_cfa_offset 4
 1102              		.cfi_offset 14, -4
 1103 0002 85B0     		sub	sp, sp, #20
 1104              		.cfi_def_cfa_offset 24
 1105 0004 0390     		str	r0, [sp, #12]
 1106 0006 0291     		str	r1, [sp, #8]
 1107 0008 0192     		str	r2, [sp, #4]
 1108              		.loc 1 468 0
 1109 000a 029B     		ldr	r3, [sp, #8]
 1110 000c 0122     		movs	r2, #1
 1111 000e 1A71     		strb	r2, [r3, #4]
 1112              		.loc 1 471 0
ARM GAS  /tmp/ccufxETe.s 			page 21


 1113 0010 1C4B     		ldr	r3, .L65
 1114 0012 DA68     		ldr	r2, [r3, #12]
 1115 0014 019B     		ldr	r3, [sp, #4]
 1116 0016 1A44     		add	r2, r2, r3
 1117 0018 029B     		ldr	r3, [sp, #8]
 1118 001a C3F80D20 		str	r2, [r3, #13]	@ unaligned
 1119              		.loc 1 474 0
 1120 001e 029B     		ldr	r3, [sp, #8]
 1121 0020 B3F81330 		ldrh	r3, [r3, #19]	@ unaligned
 1122 0024 9BB2     		uxth	r3, r3
 1123 0026 082B     		cmp	r3, #8
 1124 0028 12D9     		bls	.L62
 1125              		.loc 1 475 0
 1126 002a 029B     		ldr	r3, [sp, #8]
 1127 002c B3F81330 		ldrh	r3, [r3, #19]	@ unaligned
 1128 0030 9BB2     		uxth	r3, r3
 1129 0032 013B     		subs	r3, r3, #1
 1130 0034 002B     		cmp	r3, #0
 1131 0036 00DA     		bge	.L63
 1132 0038 0733     		adds	r3, r3, #7
 1133              	.L63:
 1134 003a DB10     		asrs	r3, r3, #3
 1135 003c DBB2     		uxtb	r3, r3
 1136 003e 03F07F03 		and	r3, r3, #127
 1137 0042 D9B2     		uxtb	r1, r3
 1138 0044 029A     		ldr	r2, [sp, #8]
 1139 0046 537F     		ldrb	r3, [r2, #29]
 1140 0048 61F30603 		bfi	r3, r1, #0, #7
 1141 004c 5377     		strb	r3, [r2, #29]
 1142 004e 04E0     		b	.L64
 1143              	.L62:
 1144              		.loc 1 477 0
 1145 0050 029A     		ldr	r2, [sp, #8]
 1146 0052 537F     		ldrb	r3, [r2, #29]
 1147 0054 6FF30603 		bfc	r3, #0, #7
 1148 0058 5377     		strb	r3, [r2, #29]
 1149              	.L64:
 1150              		.loc 1 481 0
 1151 005a 029B     		ldr	r3, [sp, #8]
 1152 005c D3F81520 		ldr	r2, [r3, #21]	@ unaligned
 1153 0060 029B     		ldr	r3, [sp, #8]
 1154 0062 C3F81920 		str	r2, [r3, #25]	@ unaligned
 1155              		.loc 1 483 0
 1156 0066 039B     		ldr	r3, [sp, #12]
 1157 0068 0C33     		adds	r3, r3, #12
 1158 006a 1846     		mov	r0, r3
 1159 006c 0299     		ldr	r1, [sp, #8]
 1160 006e FFF7FEFF 		bl	msgqueue_insert
 1161              		.loc 1 484 0
 1162 0072 029B     		ldr	r3, [sp, #8]
 1163 0074 0322     		movs	r2, #3
 1164 0076 1A71     		strb	r2, [r3, #4]
 1165              		.loc 1 486 0
 1166 0078 0398     		ldr	r0, [sp, #12]
 1167 007a FFF7FEFF 		bl	srt_transmit
 1168              		.loc 1 488 0
 1169 007e 05B0     		add	sp, sp, #20
ARM GAS  /tmp/ccufxETe.s 			page 22


 1170              		.cfi_def_cfa_offset 4
 1171              		@ sp needed
 1172 0080 5DF804FB 		ldr	pc, [sp], #4
 1173              	.L66:
 1174              		.align	2
 1175              	.L65:
 1176 0084 00000000 		.word	vtlist
 1177              		.cfi_endproc
 1178              	.LFE130:
 1179              		.size	rtcanTransmitI, .-rtcanTransmitI
 1180 0088 AFF30080 		.section	.text.rtcanReceive,"ax",%progbits
 1180      AFF30080 
 1181              		.align	2
 1182              		.p2align 4,,15
 1183              		.global	rtcanReceive
 1184              		.thumb
 1185              		.thumb_func
 1186              		.type	rtcanReceive, %function
 1187              	rtcanReceive:
 1188              	.LFB131:
 1189              		.loc 1 495 0
 1190              		.cfi_startproc
 1191              		@ args = 0, pretend = 0, frame = 16
 1192              		@ frame_needed = 0, uses_anonymous_args = 0
 1193 0000 00B5     		push	{lr}
 1194              		.cfi_def_cfa_offset 4
 1195              		.cfi_offset 14, -4
 1196 0002 85B0     		sub	sp, sp, #20
 1197              		.cfi_def_cfa_offset 24
 1198 0004 0190     		str	r0, [sp, #4]
 1199 0006 0091     		str	r1, [sp]
 1200              	.LBB23:
 1201              		.loc 1 498 0
 1202 0008 2023     		movs	r3, #32
 1203              	@ 498 "/home/ergae/r2p-sdk/core/RTCAN/src/rtcan.c" 1
 1204 000a 83F31188 		msr     BASEPRI, r3
 1205              	@ 0 "" 2
 1206              		.thumb
 1207              	.LBE23:
 1208 000e FFF7FEFF 		bl	dbg_check_lock
 1209              		.loc 1 501 0
 1210 0012 009B     		ldr	r3, [sp]
 1211 0014 B3F81130 		ldrh	r3, [r3, #17]	@ unaligned
 1212 0018 9BB2     		uxth	r3, r3
 1213 001a DB01     		lsls	r3, r3, #7
 1214 001c 1A46     		mov	r2, r3
 1215 001e 0DF10F03 		add	r3, sp, #15
 1216 0022 0198     		ldr	r0, [sp, #4]
 1217 0024 1146     		mov	r1, r2
 1218 0026 094A     		ldr	r2, .L68
 1219 0028 FFF7FEFF 		bl	rtcan_lld_can_addfilter
 1220              		.loc 1 502 0
 1221 002c 9DF80F30 		ldrb	r3, [sp, #15]	@ zero_extendqisi2
 1222 0030 019A     		ldr	r2, [sp, #4]
 1223 0032 0633     		adds	r3, r3, #6
 1224 0034 9B00     		lsls	r3, r3, #2
 1225 0036 1344     		add	r3, r3, r2
ARM GAS  /tmp/ccufxETe.s 			page 23


 1226 0038 009A     		ldr	r2, [sp]
 1227 003a 5A60     		str	r2, [r3, #4]
 1228              		.loc 1 504 0
 1229 003c FFF7FEFF 		bl	dbg_check_unlock
 1230              	.LBB24:
 1231 0040 0023     		movs	r3, #0
 1232              	@ 504 "/home/ergae/r2p-sdk/core/RTCAN/src/rtcan.c" 1
 1233 0042 83F31188 		msr     BASEPRI, r3
 1234              	@ 0 "" 2
 1235              		.thumb
 1236              	.LBE24:
 1237              		.loc 1 505 0
 1238 0046 05B0     		add	sp, sp, #20
 1239              		.cfi_def_cfa_offset 4
 1240              		@ sp needed
 1241 0048 5DF804FB 		ldr	pc, [sp], #4
 1242              	.L69:
 1243              		.align	2
 1244              	.L68:
 1245 004c 80FF7F00 		.word	8388480
 1246              		.cfi_endproc
 1247              	.LFE131:
 1248              		.size	rtcanReceive, .-rtcanReceive
 1249              		.section	.text.rtcanReceiveMask,"ax",%progbits
 1250              		.align	2
 1251              		.p2align 4,,15
 1252              		.global	rtcanReceiveMask
 1253              		.thumb
 1254              		.thumb_func
 1255              		.type	rtcanReceiveMask, %function
 1256              	rtcanReceiveMask:
 1257              	.LFB132:
 1258              		.loc 1 507 0
 1259              		.cfi_startproc
 1260              		@ args = 0, pretend = 0, frame = 24
 1261              		@ frame_needed = 0, uses_anonymous_args = 0
 1262 0000 00B5     		push	{lr}
 1263              		.cfi_def_cfa_offset 4
 1264              		.cfi_offset 14, -4
 1265 0002 87B0     		sub	sp, sp, #28
 1266              		.cfi_def_cfa_offset 32
 1267 0004 0390     		str	r0, [sp, #12]
 1268 0006 0291     		str	r1, [sp, #8]
 1269 0008 0192     		str	r2, [sp, #4]
 1270              	.LBB25:
 1271              		.loc 1 510 0
 1272 000a 2023     		movs	r3, #32
 1273              	@ 510 "/home/ergae/r2p-sdk/core/RTCAN/src/rtcan.c" 1
 1274 000c 83F31188 		msr     BASEPRI, r3
 1275              	@ 0 "" 2
 1276              		.thumb
 1277              	.LBE25:
 1278 0010 FFF7FEFF 		bl	dbg_check_lock
 1279              		.loc 1 513 0
 1280 0014 029B     		ldr	r3, [sp, #8]
 1281 0016 B3F81130 		ldrh	r3, [r3, #17]	@ unaligned
 1282 001a 9BB2     		uxth	r3, r3
ARM GAS  /tmp/ccufxETe.s 			page 24


 1283 001c DB01     		lsls	r3, r3, #7
 1284 001e 1946     		mov	r1, r3
 1285 0020 019B     		ldr	r3, [sp, #4]
 1286 0022 9BB2     		uxth	r3, r3
 1287 0024 DA01     		lsls	r2, r3, #7
 1288 0026 0DF11703 		add	r3, sp, #23
 1289 002a 0398     		ldr	r0, [sp, #12]
 1290 002c FFF7FEFF 		bl	rtcan_lld_can_addfilter
 1291              		.loc 1 514 0
 1292 0030 9DF81730 		ldrb	r3, [sp, #23]	@ zero_extendqisi2
 1293 0034 039A     		ldr	r2, [sp, #12]
 1294 0036 0633     		adds	r3, r3, #6
 1295 0038 9B00     		lsls	r3, r3, #2
 1296 003a 1344     		add	r3, r3, r2
 1297 003c 029A     		ldr	r2, [sp, #8]
 1298 003e 5A60     		str	r2, [r3, #4]
 1299              		.loc 1 516 0
 1300 0040 FFF7FEFF 		bl	dbg_check_unlock
 1301              	.LBB26:
 1302 0044 0023     		movs	r3, #0
 1303              	@ 516 "/home/ergae/r2p-sdk/core/RTCAN/src/rtcan.c" 1
 1304 0046 83F31188 		msr     BASEPRI, r3
 1305              	@ 0 "" 2
 1306              		.thumb
 1307              	.LBE26:
 1308              		.loc 1 517 0
 1309 004a 07B0     		add	sp, sp, #28
 1310              		.cfi_def_cfa_offset 4
 1311              		@ sp needed
 1312 004c 5DF804FB 		ldr	pc, [sp], #4
 1313              		.cfi_endproc
 1314              	.LFE132:
 1315              		.size	rtcanReceiveMask, .-rtcanReceiveMask
 1316              		.section	.text.rtcan_blinker,"ax",%progbits
 1317              		.align	2
 1318              		.p2align 4,,15
 1319              		.global	rtcan_blinker
 1320              		.thumb
 1321              		.thumb_func
 1322              		.type	rtcan_blinker, %function
 1323              	rtcan_blinker:
 1324              	.LFB133:
 1325              		.loc 1 546 0
 1326              		.cfi_startproc
 1327              		@ args = 0, pretend = 0, frame = 0
 1328              		@ frame_needed = 0, uses_anonymous_args = 0
 1329              		@ link register save eliminated.
 1330              		.loc 1 576 0
 1331 0000 7047     		bx	lr
 1332              		.cfi_endproc
 1333              	.LFE133:
 1334              		.size	rtcan_blinker, .-rtcan_blinker
 1335 0002 00BFAFF3 		.text
 1335      0080AFF3 
 1335      0080AFF3 
 1335      0080
 1336              	.Letext0:
ARM GAS  /tmp/ccufxETe.s 			page 25


 1337              		.file 2 "/home/ergae/r2p-sdk/tools/gcc-arm-none-eabi-4_9-2014q4/arm-none-eabi/include/machine/_def
 1338              		.file 3 "/home/ergae/r2p-sdk/tools/gcc-arm-none-eabi-4_9-2014q4/arm-none-eabi/include/stdint.h"
 1339              		.file 4 "/home/ergae/r2p-sdk/core/ChibiOS/os/ports/GCC/ARMCMx/chtypes.h"
 1340              		.file 5 "/home/ergae/r2p-sdk/core/ChibiOS/os/kernel/include/chvt.h"
 1341              		.file 6 "/home/ergae/r2p-sdk/core/ChibiOS/os/hal/platforms/STM32F30x/stm32f30x.h"
 1342              		.file 7 "/home/ergae/r2p-sdk/core/RTCAN/include/rtcan.h"
 1343              		.file 8 "/home/ergae/r2p-sdk/core/RTCAN/include/msgqueue.h"
 1344              		.file 9 "/home/ergae/r2p-sdk/core/ChibiOS/os/ports/common/ARMCMx/CMSIS/include/core_cm4.h"