ARM GAS  /tmp/ccfWo18f.s 			page 1


   1              		.syntax unified
   2              		.cpu cortex-m4
   3              		.eabi_attribute 27, 3
   4              		.eabi_attribute 28, 1
   5              		.fpu fpv4-sp-d16
   6              		.eabi_attribute 20, 1
   7              		.eabi_attribute 21, 1
   8              		.eabi_attribute 23, 3
   9              		.eabi_attribute 24, 1
  10              		.eabi_attribute 25, 1
  11              		.eabi_attribute 26, 1
  12              		.eabi_attribute 30, 6
  13              		.eabi_attribute 34, 1
  14              		.eabi_attribute 18, 4
  15              		.thumb
  16              		.file	"RTCANTransport.cpp"
  17              		.text
  18              	.Ltext0:
  19              		.cfi_sections	.debug_frame
  20              		.section	.text._ZN3r2p10UncopyableC2Ev,"axG",%progbits,_ZN3r2p10UncopyableC5Ev,comdat
  21              		.align	2
  22              		.p2align 4,,15
  23              		.weak	_ZN3r2p10UncopyableC2Ev
  24              		.thumb
  25              		.thumb_func
  26              		.type	_ZN3r2p10UncopyableC2Ev, %function
  27              	_ZN3r2p10UncopyableC2Ev:
  28              	.LFB6:
  29              		.file 1 "/home/ergae/r2p-sdk/core/Middleware/include/r2p/Uncopyable.hpp"
  30              		.loc 1 20 0
  31              		.cfi_startproc
  32              		@ args = 0, pretend = 0, frame = 8
  33              		@ frame_needed = 0, uses_anonymous_args = 0
  34              		@ link register save eliminated.
  35 0000 82B0     		sub	sp, sp, #8
  36              		.cfi_def_cfa_offset 8
  37 0002 0190     		str	r0, [sp, #4]
  38              		.loc 1 20 0
  39 0004 019B     		ldr	r3, [sp, #4]
  40 0006 1846     		mov	r0, r3
  41 0008 02B0     		add	sp, sp, #8
  42              		.cfi_def_cfa_offset 0
  43              		@ sp needed
  44 000a 7047     		bx	lr
  45              		.cfi_endproc
  46              	.LFE6:
  47              		.size	_ZN3r2p10UncopyableC2Ev, .-_ZN3r2p10UncopyableC2Ev
  48              		.weak	_ZN3r2p10UncopyableC1Ev
  49              		.thumb_set _ZN3r2p10UncopyableC1Ev,_ZN3r2p10UncopyableC2Ev
  50 000c AFF30080 		.section	.text._ZN3r2p10UncopyableD2Ev,"axG",%progbits,_ZN3r2p10UncopyableD5Ev,comdat
  51              		.align	2
  52              		.p2align 4,,15
  53              		.weak	_ZN3r2p10UncopyableD2Ev
  54              		.thumb
  55              		.thumb_func
  56              		.type	_ZN3r2p10UncopyableD2Ev, %function
  57              	_ZN3r2p10UncopyableD2Ev:
ARM GAS  /tmp/ccfWo18f.s 			page 2


  58              	.LFB9:
  59              		.loc 1 21 0
  60              		.cfi_startproc
  61              		@ args = 0, pretend = 0, frame = 8
  62              		@ frame_needed = 0, uses_anonymous_args = 0
  63              		@ link register save eliminated.
  64 0000 82B0     		sub	sp, sp, #8
  65              		.cfi_def_cfa_offset 8
  66 0002 0190     		str	r0, [sp, #4]
  67              		.loc 1 21 0
  68 0004 019B     		ldr	r3, [sp, #4]
  69 0006 1846     		mov	r0, r3
  70 0008 02B0     		add	sp, sp, #8
  71              		.cfi_def_cfa_offset 0
  72              		@ sp needed
  73 000a 7047     		bx	lr
  74              		.cfi_endproc
  75              	.LFE9:
  76              		.size	_ZN3r2p10UncopyableD2Ev, .-_ZN3r2p10UncopyableD2Ev
  77              		.weak	_ZN3r2p10UncopyableD1Ev
  78              		.thumb_set _ZN3r2p10UncopyableD1Ev,_ZN3r2p10UncopyableD2Ev
  79 000c AFF30080 		.section	.text._ZN3r2p8SysLock_7acquireEv,"axG",%progbits,_ZN3r2p8SysLock_7acquireEv,comdat
  80              		.align	2
  81              		.p2align 4,,15
  82              		.weak	_ZN3r2p8SysLock_7acquireEv
  83              		.thumb
  84              		.thumb_func
  85              		.type	_ZN3r2p8SysLock_7acquireEv, %function
  86              	_ZN3r2p8SysLock_7acquireEv:
  87              	.LFB18:
  88              		.file 2 "/home/ergae/r2p-sdk/core/Middleware/port/chibios/include/r2p/impl/SysLock_.hpp"
  89              		.loc 2 20 0
  90              		.cfi_startproc
  91              		@ args = 0, pretend = 0, frame = 0
  92              		@ frame_needed = 0, uses_anonymous_args = 0
  93 0000 08B5     		push	{r3, lr}
  94              		.cfi_def_cfa_offset 8
  95              		.cfi_offset 3, -8
  96              		.cfi_offset 14, -4
  97              	.LBB5:
  98              	.LBB6:
  99              	.LBB7:
 100              		.loc 2 22 0
 101 0002 2023     		movs	r3, #32
 102              	@ 22 "/home/ergae/r2p-sdk/core/Middleware/port/chibios/include/r2p/impl/SysLock_.hpp" 1
 103 0004 83F31188 		msr     BASEPRI, r3
 104              	@ 0 "" 2
 105              		.thumb
 106              	.LBE7:
 107 0008 FFF7FEFF 		bl	dbg_check_lock
 108              	.LBE6:
 109              	.LBE5:
 110              		.loc 2 23 0
 111 000c 08BD     		pop	{r3, pc}
 112              		.cfi_endproc
 113              	.LFE18:
 114              		.size	_ZN3r2p8SysLock_7acquireEv, .-_ZN3r2p8SysLock_7acquireEv
ARM GAS  /tmp/ccfWo18f.s 			page 3


 115 000e 00BF     		.section	.text._ZN3r2p8SysLock_7releaseEv,"axG",%progbits,_ZN3r2p8SysLock_7releaseEv,comdat
 116              		.align	2
 117              		.p2align 4,,15
 118              		.weak	_ZN3r2p8SysLock_7releaseEv
 119              		.thumb
 120              		.thumb_func
 121              		.type	_ZN3r2p8SysLock_7releaseEv, %function
 122              	_ZN3r2p8SysLock_7releaseEv:
 123              	.LFB19:
 124              		.loc 2 27 0
 125              		.cfi_startproc
 126              		@ args = 0, pretend = 0, frame = 0
 127              		@ frame_needed = 0, uses_anonymous_args = 0
 128 0000 08B5     		push	{r3, lr}
 129              		.cfi_def_cfa_offset 8
 130              		.cfi_offset 3, -8
 131              		.cfi_offset 14, -4
 132              	.LBB8:
 133              	.LBB9:
 134              		.loc 2 29 0
 135 0002 FFF7FEFF 		bl	dbg_check_unlock
 136              	.LBB10:
 137 0006 0023     		movs	r3, #0
 138              	@ 29 "/home/ergae/r2p-sdk/core/Middleware/port/chibios/include/r2p/impl/SysLock_.hpp" 1
 139 0008 83F31188 		msr     BASEPRI, r3
 140              	@ 0 "" 2
 141              		.thumb
 142              	.LBE10:
 143              	.LBE9:
 144              	.LBE8:
 145              		.loc 2 30 0
 146 000c 08BD     		pop	{r3, pc}
 147              		.cfi_endproc
 148              	.LFE19:
 149              		.size	_ZN3r2p8SysLock_7releaseEv, .-_ZN3r2p8SysLock_7releaseEv
 150 000e 00BF     		.section	.text._ZN3r2p7SysLock7acquireEv,"axG",%progbits,_ZN3r2p7SysLock7acquireEv,comdat
 151              		.align	2
 152              		.p2align 4,,15
 153              		.weak	_ZN3r2p7SysLock7acquireEv
 154              		.thumb
 155              		.thumb_func
 156              		.type	_ZN3r2p7SysLock7acquireEv, %function
 157              	_ZN3r2p7SysLock7acquireEv:
 158              	.LFB26:
 159              		.file 3 "/home/ergae/r2p-sdk/core/Middleware/include/r2p/SysLock.hpp"
 160              		.loc 3 27 0
 161              		.cfi_startproc
 162              		@ args = 0, pretend = 0, frame = 0
 163              		@ frame_needed = 0, uses_anonymous_args = 0
 164 0000 08B5     		push	{r3, lr}
 165              		.cfi_def_cfa_offset 8
 166              		.cfi_offset 3, -8
 167              		.cfi_offset 14, -4
 168              		.loc 3 29 0
 169 0002 FFF7FEFF 		bl	_ZN3r2p8SysLock_7acquireEv
 170              		.loc 3 30 0
 171 0006 08BD     		pop	{r3, pc}
ARM GAS  /tmp/ccfWo18f.s 			page 4


 172              		.cfi_endproc
 173              	.LFE26:
 174              		.size	_ZN3r2p7SysLock7acquireEv, .-_ZN3r2p7SysLock7acquireEv
 175 0008 AFF30080 		.section	.text._ZN3r2p7SysLock7releaseEv,"axG",%progbits,_ZN3r2p7SysLock7releaseEv,comdat
 175      AFF30080 
 176              		.align	2
 177              		.p2align 4,,15
 178              		.weak	_ZN3r2p7SysLock7releaseEv
 179              		.thumb
 180              		.thumb_func
 181              		.type	_ZN3r2p7SysLock7releaseEv, %function
 182              	_ZN3r2p7SysLock7releaseEv:
 183              	.LFB27:
 184              		.loc 3 34 0
 185              		.cfi_startproc
 186              		@ args = 0, pretend = 0, frame = 0
 187              		@ frame_needed = 0, uses_anonymous_args = 0
 188 0000 08B5     		push	{r3, lr}
 189              		.cfi_def_cfa_offset 8
 190              		.cfi_offset 3, -8
 191              		.cfi_offset 14, -4
 192              		.loc 3 36 0
 193 0002 FFF7FEFF 		bl	_ZN3r2p8SysLock_7releaseEv
 194              		.loc 3 37 0
 195 0006 08BD     		pop	{r3, pc}
 196              		.cfi_endproc
 197              	.LFE27:
 198              		.size	_ZN3r2p7SysLock7releaseEv, .-_ZN3r2p7SysLock7releaseEv
 199              		.section	.text._ZN3r2p4TimeC2Ev,"axG",%progbits,_ZN3r2p4TimeC5Ev,comdat
 200              		.align	2
 201              		.p2align 4,,15
 202              		.weak	_ZN3r2p4TimeC2Ev
 203              		.thumb
 204              		.thumb_func
 205              		.type	_ZN3r2p4TimeC2Ev, %function
 206              	_ZN3r2p4TimeC2Ev:
 207              	.LFB144:
 208              		.file 4 "/home/ergae/r2p-sdk/core/Middleware/include/r2p/Time.hpp"
 209              		.loc 4 155 0
 210              		.cfi_startproc
 211              		@ args = 0, pretend = 0, frame = 8
 212              		@ frame_needed = 0, uses_anonymous_args = 0
 213              		@ link register save eliminated.
 214 0000 82B0     		sub	sp, sp, #8
 215              		.cfi_def_cfa_offset 8
 216 0002 0190     		str	r0, [sp, #4]
 217              	.LBB11:
 218              		.loc 4 155 0
 219 0004 019B     		ldr	r3, [sp, #4]
 220 0006 0022     		movs	r2, #0
 221 0008 1A60     		str	r2, [r3]
 222              	.LBE11:
 223 000a 019B     		ldr	r3, [sp, #4]
 224 000c 1846     		mov	r0, r3
 225 000e 02B0     		add	sp, sp, #8
 226              		.cfi_def_cfa_offset 0
 227              		@ sp needed
ARM GAS  /tmp/ccfWo18f.s 			page 5


 228 0010 7047     		bx	lr
 229              		.cfi_endproc
 230              	.LFE144:
 231              		.size	_ZN3r2p4TimeC2Ev, .-_ZN3r2p4TimeC2Ev
 232              		.weak	_ZN3r2p4TimeC1Ev
 233              		.thumb_set _ZN3r2p4TimeC1Ev,_ZN3r2p4TimeC2Ev
 234 0012 00BFAFF3 		.section	.text._ZN3r2p22TimestampedMsgPtrQueue5EntryC2Ev,"axG",%progbits,_ZN3r2p22TimestampedMsgPt
 234      0080AFF3 
 234      0080AFF3 
 234      0080
 235              		.align	2
 236              		.p2align 4,,15
 237              		.weak	_ZN3r2p22TimestampedMsgPtrQueue5EntryC2Ev
 238              		.thumb
 239              		.thumb_func
 240              		.type	_ZN3r2p22TimestampedMsgPtrQueue5EntryC2Ev, %function
 241              	_ZN3r2p22TimestampedMsgPtrQueue5EntryC2Ev:
 242              	.LFB180:
 243              		.file 5 "/home/ergae/r2p-sdk/core/Middleware/include/r2p/TimestampedMsgPtrQueue.hpp"
 244              		.loc 5 106 0
 245              		.cfi_startproc
 246              		@ args = 0, pretend = 0, frame = 8
 247              		@ frame_needed = 0, uses_anonymous_args = 0
 248 0000 00B5     		push	{lr}
 249              		.cfi_def_cfa_offset 4
 250              		.cfi_offset 14, -4
 251 0002 83B0     		sub	sp, sp, #12
 252              		.cfi_def_cfa_offset 16
 253 0004 0190     		str	r0, [sp, #4]
 254              	.LBB12:
 255              		.loc 5 108 0
 256 0006 019B     		ldr	r3, [sp, #4]
 257 0008 0022     		movs	r2, #0
 258 000a 1A60     		str	r2, [r3]
 259 000c 019B     		ldr	r3, [sp, #4]
 260 000e 0433     		adds	r3, r3, #4
 261 0010 1846     		mov	r0, r3
 262 0012 FFF7FEFF 		bl	_ZN3r2p4TimeC1Ev
 263              	.LBE12:
 264              		.loc 5 109 0
 265 0016 019B     		ldr	r3, [sp, #4]
 266 0018 1846     		mov	r0, r3
 267 001a 03B0     		add	sp, sp, #12
 268              		.cfi_def_cfa_offset 4
 269              		@ sp needed
 270 001c 5DF804FB 		ldr	pc, [sp], #4
 271              		.cfi_endproc
 272              	.LFE180:
 273              		.size	_ZN3r2p22TimestampedMsgPtrQueue5EntryC2Ev, .-_ZN3r2p22TimestampedMsgPtrQueue5EntryC2Ev
 274              		.weak	_ZN3r2p22TimestampedMsgPtrQueue5EntryC1Ev
 275              		.thumb_set _ZN3r2p22TimestampedMsgPtrQueue5EntryC1Ev,_ZN3r2p22TimestampedMsgPtrQueue5EntryC2Ev
 276              		.section	.text._ZNK3r2p7Message12get_raw_dataEv,"axG",%progbits,_ZNK3r2p7Message12get_raw_dataEv,c
 277              		.align	2
 278              		.p2align 4,,15
 279              		.weak	_ZNK3r2p7Message12get_raw_dataEv
 280              		.thumb
 281              		.thumb_func
ARM GAS  /tmp/ccfWo18f.s 			page 6


 282              		.type	_ZNK3r2p7Message12get_raw_dataEv, %function
 283              	_ZNK3r2p7Message12get_raw_dataEv:
 284              	.LFB208:
 285              		.file 6 "/home/ergae/r2p-sdk/core/Middleware/include/r2p/Message.hpp"
 286              		.loc 6 67 0
 287              		.cfi_startproc
 288              		@ args = 0, pretend = 0, frame = 8
 289              		@ frame_needed = 0, uses_anonymous_args = 0
 290              		@ link register save eliminated.
 291 0000 82B0     		sub	sp, sp, #8
 292              		.cfi_def_cfa_offset 8
 293 0002 0190     		str	r0, [sp, #4]
 294              		.loc 6 69 0
 295 0004 019B     		ldr	r3, [sp, #4]
 296 0006 0233     		adds	r3, r3, #2
 297              		.loc 6 70 0
 298 0008 1846     		mov	r0, r3
 299 000a 02B0     		add	sp, sp, #8
 300              		.cfi_def_cfa_offset 0
 301              		@ sp needed
 302 000c 7047     		bx	lr
 303              		.cfi_endproc
 304              	.LFE208:
 305              		.size	_ZNK3r2p7Message12get_raw_dataEv, .-_ZNK3r2p7Message12get_raw_dataEv
 306 000e 00BF     		.section	.text._ZN3r2p7Message21get_msg_from_raw_dataEPKh,"axG",%progbits,_ZN3r2p7Message21get_msg
 307              		.align	2
 308              		.p2align 4,,15
 309              		.weak	_ZN3r2p7Message21get_msg_from_raw_dataEPKh
 310              		.thumb
 311              		.thumb_func
 312              		.type	_ZN3r2p7Message21get_msg_from_raw_dataEPKh, %function
 313              	_ZN3r2p7Message21get_msg_from_raw_dataEPKh:
 314              	.LFB209:
 315              		.loc 6 74 0
 316              		.cfi_startproc
 317              		@ args = 0, pretend = 0, frame = 8
 318              		@ frame_needed = 0, uses_anonymous_args = 0
 319              		@ link register save eliminated.
 320 0000 82B0     		sub	sp, sp, #8
 321              		.cfi_def_cfa_offset 8
 322 0002 0190     		str	r0, [sp, #4]
 323              		.loc 6 80 0
 324 0004 6FF00102 		mvn	r2, #1
 325 0008 019B     		ldr	r3, [sp, #4]
 326 000a 1344     		add	r3, r3, r2
 327              		.loc 6 82 0
 328 000c 1846     		mov	r0, r3
 329 000e 02B0     		add	sp, sp, #8
 330              		.cfi_def_cfa_offset 0
 331              		@ sp needed
 332 0010 7047     		bx	lr
 333              		.cfi_endproc
 334              	.LFE209:
 335              		.size	_ZN3r2p7Message21get_msg_from_raw_dataEPKh, .-_ZN3r2p7Message21get_msg_from_raw_dataEPKh
 336 0012 00BFAFF3 		.section	.text._ZN3r2p7Message12reset_unsafeEv,"axG",%progbits,_ZN3r2p7Message12reset_unsafeEv,com
 336      0080AFF3 
 336      0080AFF3 
ARM GAS  /tmp/ccfWo18f.s 			page 7


 336      0080
 337              		.align	2
 338              		.p2align 4,,15
 339              		.weak	_ZN3r2p7Message12reset_unsafeEv
 340              		.thumb
 341              		.thumb_func
 342              		.type	_ZN3r2p7Message12reset_unsafeEv, %function
 343              	_ZN3r2p7Message12reset_unsafeEv:
 344              	.LFB212:
 345              		.loc 6 122 0
 346              		.cfi_startproc
 347              		@ args = 0, pretend = 0, frame = 8
 348              		@ frame_needed = 0, uses_anonymous_args = 0
 349              		@ link register save eliminated.
 350 0000 82B0     		sub	sp, sp, #8
 351              		.cfi_def_cfa_offset 8
 352 0002 0190     		str	r0, [sp, #4]
 353              		.loc 6 127 0
 354 0004 019B     		ldr	r3, [sp, #4]
 355 0006 0022     		movs	r2, #0
 356 0008 1A70     		strb	r2, [r3]
 357 000a 0022     		movs	r2, #0
 358 000c 5A70     		strb	r2, [r3, #1]
 359              		.loc 6 128 0
 360 000e 02B0     		add	sp, sp, #8
 361              		.cfi_def_cfa_offset 0
 362              		@ sp needed
 363 0010 7047     		bx	lr
 364              		.cfi_endproc
 365              	.LFE212:
 366              		.size	_ZN3r2p7Message12reset_unsafeEv, .-_ZN3r2p7Message12reset_unsafeEv
 367 0012 00BFAFF3 		.section	.text._ZN3r2p7MessageC2Ev,"axG",%progbits,_ZN3r2p7MessageC5Ev,comdat
 367      0080AFF3 
 367      0080AFF3 
 367      0080
 368              		.align	2
 369              		.p2align 4,,15
 370              		.weak	_ZN3r2p7MessageC2Ev
 371              		.thumb
 372              		.thumb_func
 373              		.type	_ZN3r2p7MessageC2Ev, %function
 374              	_ZN3r2p7MessageC2Ev:
 375              	.LFB214:
 376              		.loc 6 132 0
 377              		.cfi_startproc
 378              		@ args = 0, pretend = 0, frame = 8
 379              		@ frame_needed = 0, uses_anonymous_args = 0
 380              		@ link register save eliminated.
 381 0000 82B0     		sub	sp, sp, #8
 382              		.cfi_def_cfa_offset 8
 383 0002 0190     		str	r0, [sp, #4]
 384              	.LBB13:
 385              		.loc 6 137 0
 386 0004 019B     		ldr	r3, [sp, #4]
 387 0006 0022     		movs	r2, #0
 388 0008 1A70     		strb	r2, [r3]
 389 000a 0022     		movs	r2, #0
ARM GAS  /tmp/ccfWo18f.s 			page 8


 390 000c 5A70     		strb	r2, [r3, #1]
 391              	.LBE13:
 392              		.loc 6 138 0
 393 000e 019B     		ldr	r3, [sp, #4]
 394 0010 1846     		mov	r0, r3
 395 0012 02B0     		add	sp, sp, #8
 396              		.cfi_def_cfa_offset 0
 397              		@ sp needed
 398 0014 7047     		bx	lr
 399              		.cfi_endproc
 400              	.LFE214:
 401              		.size	_ZN3r2p7MessageC2Ev, .-_ZN3r2p7MessageC2Ev
 402              		.weak	_ZN3r2p7MessageC1Ev
 403              		.thumb_set _ZN3r2p7MessageC1Ev,_ZN3r2p7MessageC2Ev
 404 0016 00BFAFF3 		.section	.text._ZN3r2p7Message16get_payload_sizeEj,"axG",%progbits,_ZN3r2p7Message16get_payload_si
 404      0080AFF3 
 404      0080
 405              		.align	2
 406              		.p2align 4,,15
 407              		.weak	_ZN3r2p7Message16get_payload_sizeEj
 408              		.thumb
 409              		.thumb_func
 410              		.type	_ZN3r2p7Message16get_payload_sizeEj, %function
 411              	_ZN3r2p7Message16get_payload_sizeEj:
 412              	.LFB216:
 413              		.loc 6 142 0
 414              		.cfi_startproc
 415              		@ args = 0, pretend = 0, frame = 8
 416              		@ frame_needed = 0, uses_anonymous_args = 0
 417              		@ link register save eliminated.
 418 0000 82B0     		sub	sp, sp, #8
 419              		.cfi_def_cfa_offset 8
 420 0002 0190     		str	r0, [sp, #4]
 421              		.loc 6 147 0
 422 0004 019B     		ldr	r3, [sp, #4]
 423 0006 023B     		subs	r3, r3, #2
 424              		.loc 6 149 0
 425 0008 1846     		mov	r0, r3
 426 000a 02B0     		add	sp, sp, #8
 427              		.cfi_def_cfa_offset 0
 428              		@ sp needed
 429 000c 7047     		bx	lr
 430              		.cfi_endproc
 431              	.LFE216:
 432              		.size	_ZN3r2p7Message16get_payload_sizeEj, .-_ZN3r2p7Message16get_payload_sizeEj
 433 000e 00BF     		.section	.text._ZNK3r2p11MemoryPool_13get_item_sizeEv,"axG",%progbits,_ZNK3r2p11MemoryPool_13get_i
 434              		.align	2
 435              		.p2align 4,,15
 436              		.weak	_ZNK3r2p11MemoryPool_13get_item_sizeEv
 437              		.thumb
 438              		.thumb_func
 439              		.type	_ZNK3r2p11MemoryPool_13get_item_sizeEv, %function
 440              	_ZNK3r2p11MemoryPool_13get_item_sizeEv:
 441              	.LFB297:
 442              		.file 7 "/home/ergae/r2p-sdk/core/Middleware/port/chibios/include/r2p/impl/MemoryPool_.hpp"
 443              		.loc 7 39 0
 444              		.cfi_startproc
ARM GAS  /tmp/ccfWo18f.s 			page 9


 445              		@ args = 0, pretend = 0, frame = 8
 446              		@ frame_needed = 0, uses_anonymous_args = 0
 447              		@ link register save eliminated.
 448 0000 82B0     		sub	sp, sp, #8
 449              		.cfi_def_cfa_offset 8
 450 0002 0190     		str	r0, [sp, #4]
 451              		.loc 7 41 0
 452 0004 019B     		ldr	r3, [sp, #4]
 453 0006 5B68     		ldr	r3, [r3, #4]
 454              		.loc 7 42 0
 455 0008 1846     		mov	r0, r3
 456 000a 02B0     		add	sp, sp, #8
 457              		.cfi_def_cfa_offset 0
 458              		@ sp needed
 459 000c 7047     		bx	lr
 460              		.cfi_endproc
 461              	.LFE297:
 462              		.size	_ZNK3r2p11MemoryPool_13get_item_sizeEv, .-_ZNK3r2p11MemoryPool_13get_item_sizeEv
 463 000e 00BF     		.section	.text._ZN3r2p11MemoryPool_12alloc_unsafeEv,"axG",%progbits,_ZN3r2p11MemoryPool_12alloc_un
 464              		.align	2
 465              		.p2align 4,,15
 466              		.weak	_ZN3r2p11MemoryPool_12alloc_unsafeEv
 467              		.thumb
 468              		.thumb_func
 469              		.type	_ZN3r2p11MemoryPool_12alloc_unsafeEv, %function
 470              	_ZN3r2p11MemoryPool_12alloc_unsafeEv:
 471              	.LFB299:
 472              		.loc 7 53 0
 473              		.cfi_startproc
 474              		@ args = 0, pretend = 0, frame = 8
 475              		@ frame_needed = 0, uses_anonymous_args = 0
 476 0000 00B5     		push	{lr}
 477              		.cfi_def_cfa_offset 4
 478              		.cfi_offset 14, -4
 479 0002 83B0     		sub	sp, sp, #12
 480              		.cfi_def_cfa_offset 16
 481 0004 0190     		str	r0, [sp, #4]
 482              		.loc 7 55 0
 483 0006 019B     		ldr	r3, [sp, #4]
 484 0008 1846     		mov	r0, r3
 485 000a FFF7FEFF 		bl	chPoolAllocI
 486 000e 0346     		mov	r3, r0
 487              		.loc 7 56 0
 488 0010 1846     		mov	r0, r3
 489 0012 03B0     		add	sp, sp, #12
 490              		.cfi_def_cfa_offset 4
 491              		@ sp needed
 492 0014 5DF804FB 		ldr	pc, [sp], #4
 493              		.cfi_endproc
 494              	.LFE299:
 495              		.size	_ZN3r2p11MemoryPool_12alloc_unsafeEv, .-_ZN3r2p11MemoryPool_12alloc_unsafeEv
 496 0018 AFF30080 		.section	.text._ZN3r2p11MemoryPool_11free_unsafeEPv,"axG",%progbits,_ZN3r2p11MemoryPool_11free_uns
 496      AFF30080 
 497              		.align	2
 498              		.p2align 4,,15
 499              		.weak	_ZN3r2p11MemoryPool_11free_unsafeEPv
 500              		.thumb
ARM GAS  /tmp/ccfWo18f.s 			page 10


 501              		.thumb_func
 502              		.type	_ZN3r2p11MemoryPool_11free_unsafeEPv, %function
 503              	_ZN3r2p11MemoryPool_11free_unsafeEPv:
 504              	.LFB300:
 505              		.loc 7 60 0
 506              		.cfi_startproc
 507              		@ args = 0, pretend = 0, frame = 8
 508              		@ frame_needed = 0, uses_anonymous_args = 0
 509 0000 00B5     		push	{lr}
 510              		.cfi_def_cfa_offset 4
 511              		.cfi_offset 14, -4
 512 0002 83B0     		sub	sp, sp, #12
 513              		.cfi_def_cfa_offset 16
 514 0004 0190     		str	r0, [sp, #4]
 515 0006 0091     		str	r1, [sp]
 516              		.loc 7 62 0
 517 0008 009B     		ldr	r3, [sp]
 518 000a 002B     		cmp	r3, #0
 519 000c 04D0     		beq	.L31
 520              		.loc 7 63 0
 521 000e 019B     		ldr	r3, [sp, #4]
 522 0010 1846     		mov	r0, r3
 523 0012 0099     		ldr	r1, [sp]
 524 0014 FFF7FEFF 		bl	chPoolFreeI
 525              	.L31:
 526              		.loc 7 65 0
 527 0018 03B0     		add	sp, sp, #12
 528              		.cfi_def_cfa_offset 4
 529              		@ sp needed
 530 001a 5DF804FB 		ldr	pc, [sp], #4
 531              		.cfi_endproc
 532              	.LFE300:
 533              		.size	_ZN3r2p11MemoryPool_11free_unsafeEPv, .-_ZN3r2p11MemoryPool_11free_unsafeEPv
 534 001e 00BF     		.section	.text._ZN3r2p11MemoryPool_6extendEPvj,"axG",%progbits,_ZN3r2p11MemoryPool_6extendEPvj,com
 535              		.align	2
 536              		.p2align 4,,15
 537              		.weak	_ZN3r2p11MemoryPool_6extendEPvj
 538              		.thumb
 539              		.thumb_func
 540              		.type	_ZN3r2p11MemoryPool_6extendEPvj, %function
 541              	_ZN3r2p11MemoryPool_6extendEPvj:
 542              	.LFB303:
 543              		.loc 7 85 0
 544              		.cfi_startproc
 545              		@ args = 0, pretend = 0, frame = 16
 546              		@ frame_needed = 0, uses_anonymous_args = 0
 547 0000 00B5     		push	{lr}
 548              		.cfi_def_cfa_offset 4
 549              		.cfi_offset 14, -4
 550 0002 85B0     		sub	sp, sp, #20
 551              		.cfi_def_cfa_offset 24
 552 0004 0390     		str	r0, [sp, #12]
 553 0006 0291     		str	r1, [sp, #8]
 554 0008 0192     		str	r2, [sp, #4]
 555              		.loc 7 87 0
 556 000a 039B     		ldr	r3, [sp, #12]
 557 000c 1846     		mov	r0, r3
ARM GAS  /tmp/ccfWo18f.s 			page 11


 558 000e 0299     		ldr	r1, [sp, #8]
 559 0010 019A     		ldr	r2, [sp, #4]
 560 0012 FFF7FEFF 		bl	chPoolLoadArray
 561              		.loc 7 88 0
 562 0016 05B0     		add	sp, sp, #20
 563              		.cfi_def_cfa_offset 4
 564              		@ sp needed
 565 0018 5DF804FB 		ldr	pc, [sp], #4
 566              		.cfi_endproc
 567              	.LFE303:
 568              		.size	_ZN3r2p11MemoryPool_6extendEPvj, .-_ZN3r2p11MemoryPool_6extendEPvj
 569 001c AFF30080 		.section	.text._ZN3r2p11MemoryPool_C2EPvjj,"axG",%progbits,_ZN3r2p11MemoryPool_C5EPvjj,comdat
 570              		.align	2
 571              		.p2align 4,,15
 572              		.weak	_ZN3r2p11MemoryPool_C2EPvjj
 573              		.thumb
 574              		.thumb_func
 575              		.type	_ZN3r2p11MemoryPool_C2EPvjj, %function
 576              	_ZN3r2p11MemoryPool_C2EPvjj:
 577              	.LFB309:
 578              		.loc 7 106 0
 579              		.cfi_startproc
 580              		@ args = 0, pretend = 0, frame = 16
 581              		@ frame_needed = 0, uses_anonymous_args = 0
 582 0000 00B5     		push	{lr}
 583              		.cfi_def_cfa_offset 4
 584              		.cfi_offset 14, -4
 585 0002 85B0     		sub	sp, sp, #20
 586              		.cfi_def_cfa_offset 24
 587 0004 0390     		str	r0, [sp, #12]
 588 0006 0291     		str	r1, [sp, #8]
 589 0008 0192     		str	r2, [sp, #4]
 590 000a 0093     		str	r3, [sp]
 591              	.LBB14:
 592              		.loc 7 106 0
 593 000c 0398     		ldr	r0, [sp, #12]
 594 000e FFF7FEFF 		bl	_ZN3r2p10UncopyableC2Ev
 595              		.loc 7 108 0
 596 0012 039B     		ldr	r3, [sp, #12]
 597 0014 1846     		mov	r0, r3
 598 0016 0099     		ldr	r1, [sp]
 599 0018 0022     		movs	r2, #0
 600 001a FFF7FEFF 		bl	chPoolInit
 601              		.loc 7 109 0
 602 001e 0398     		ldr	r0, [sp, #12]
 603 0020 0299     		ldr	r1, [sp, #8]
 604 0022 019A     		ldr	r2, [sp, #4]
 605 0024 FFF7FEFF 		bl	_ZN3r2p11MemoryPool_6extendEPvj
 606              	.LBE14:
 607              		.loc 7 110 0
 608 0028 039B     		ldr	r3, [sp, #12]
 609 002a 1846     		mov	r0, r3
 610 002c 05B0     		add	sp, sp, #20
 611              		.cfi_def_cfa_offset 4
 612              		@ sp needed
 613 002e 5DF804FB 		ldr	pc, [sp], #4
 614              		.cfi_endproc
ARM GAS  /tmp/ccfWo18f.s 			page 12


 615              	.LFE309:
 616              		.size	_ZN3r2p11MemoryPool_C2EPvjj, .-_ZN3r2p11MemoryPool_C2EPvjj
 617              		.weak	_ZN3r2p11MemoryPool_C1EPvjj
 618              		.thumb_set _ZN3r2p11MemoryPool_C1EPvjj,_ZN3r2p11MemoryPool_C2EPvjj
 619 0032 00BFAFF3 		.section	.text._ZNK3r2p14BaseSubscriber9get_topicEv,"axG",%progbits,_ZNK3r2p14BaseSubscriber9get_t
 619      0080AFF3 
 619      0080AFF3 
 619      0080
 620              		.align	2
 621              		.p2align 4,,15
 622              		.weak	_ZNK3r2p14BaseSubscriber9get_topicEv
 623              		.thumb
 624              		.thumb_func
 625              		.type	_ZNK3r2p14BaseSubscriber9get_topicEv, %function
 626              	_ZNK3r2p14BaseSubscriber9get_topicEv:
 627              	.LFB462:
 628              		.file 8 "/home/ergae/r2p-sdk/core/Middleware/include/r2p/BaseSubscriber.hpp"
 629              		.loc 8 42 0
 630              		.cfi_startproc
 631              		@ args = 0, pretend = 0, frame = 8
 632              		@ frame_needed = 0, uses_anonymous_args = 0
 633              		@ link register save eliminated.
 634 0000 82B0     		sub	sp, sp, #8
 635              		.cfi_def_cfa_offset 8
 636 0002 0190     		str	r0, [sp, #4]
 637              		.loc 8 44 0
 638 0004 019B     		ldr	r3, [sp, #4]
 639 0006 5B68     		ldr	r3, [r3, #4]
 640              		.loc 8 45 0
 641 0008 1846     		mov	r0, r3
 642 000a 02B0     		add	sp, sp, #8
 643              		.cfi_def_cfa_offset 0
 644              		@ sp needed
 645 000c 7047     		bx	lr
 646              		.cfi_endproc
 647              	.LFE462:
 648              		.size	_ZNK3r2p14BaseSubscriber9get_topicEv, .-_ZNK3r2p14BaseSubscriber9get_topicEv
 649 000e 00BF     		.section	.text._ZNK3r2p16RemoteSubscriber13get_transportEv,"axG",%progbits,_ZNK3r2p16RemoteSubscri
 650              		.align	2
 651              		.p2align 4,,15
 652              		.weak	_ZNK3r2p16RemoteSubscriber13get_transportEv
 653              		.thumb
 654              		.thumb_func
 655              		.type	_ZNK3r2p16RemoteSubscriber13get_transportEv, %function
 656              	_ZNK3r2p16RemoteSubscriber13get_transportEv:
 657              	.LFB505:
 658              		.file 9 "/home/ergae/r2p-sdk/core/Middleware/include/r2p/RemoteSubscriber.hpp"
 659              		.loc 9 31 0
 660              		.cfi_startproc
 661              		@ args = 0, pretend = 0, frame = 8
 662              		@ frame_needed = 0, uses_anonymous_args = 0
 663              		@ link register save eliminated.
 664 0000 82B0     		sub	sp, sp, #8
 665              		.cfi_def_cfa_offset 8
 666 0002 0190     		str	r0, [sp, #4]
 667              		.loc 9 33 0
 668 0004 019B     		ldr	r3, [sp, #4]
ARM GAS  /tmp/ccfWo18f.s 			page 13


 669 0006 9B68     		ldr	r3, [r3, #8]
 670              		.loc 9 34 0
 671 0008 1846     		mov	r0, r3
 672 000a 02B0     		add	sp, sp, #8
 673              		.cfi_def_cfa_offset 0
 674              		@ sp needed
 675 000c 7047     		bx	lr
 676              		.cfi_endproc
 677              	.LFE505:
 678              		.size	_ZNK3r2p16RemoteSubscriber13get_transportEv, .-_ZNK3r2p16RemoteSubscriber13get_transportEv
 679 000e 00BF     		.section	.text._ZNK3r2p5Topic8get_nameEv,"axG",%progbits,_ZNK3r2p5Topic8get_nameEv,comdat
 680              		.align	2
 681              		.p2align 4,,15
 682              		.weak	_ZNK3r2p5Topic8get_nameEv
 683              		.thumb
 684              		.thumb_func
 685              		.type	_ZNK3r2p5Topic8get_nameEv, %function
 686              	_ZNK3r2p5Topic8get_nameEv:
 687              	.LFB506:
 688              		.file 10 "/home/ergae/r2p-sdk/core/Middleware/include/r2p/Topic.hpp"
 689              		.loc 10 131 0
 690              		.cfi_startproc
 691              		@ args = 0, pretend = 0, frame = 8
 692              		@ frame_needed = 0, uses_anonymous_args = 0
 693              		@ link register save eliminated.
 694 0000 82B0     		sub	sp, sp, #8
 695              		.cfi_def_cfa_offset 8
 696 0002 0190     		str	r0, [sp, #4]
 697              		.loc 10 133 0
 698 0004 019B     		ldr	r3, [sp, #4]
 699 0006 1B68     		ldr	r3, [r3]
 700              		.loc 10 134 0
 701 0008 1846     		mov	r0, r3
 702 000a 02B0     		add	sp, sp, #8
 703              		.cfi_def_cfa_offset 0
 704              		@ sp needed
 705 000c 7047     		bx	lr
 706              		.cfi_endproc
 707              	.LFE506:
 708              		.size	_ZNK3r2p5Topic8get_nameEv, .-_ZNK3r2p5Topic8get_nameEv
 709 000e 00BF     		.section	.text._ZNK3r2p5Topic16get_payload_sizeEv,"axG",%progbits,_ZNK3r2p5Topic16get_payload_size
 710              		.align	2
 711              		.p2align 4,,15
 712              		.weak	_ZNK3r2p5Topic16get_payload_sizeEv
 713              		.thumb
 714              		.thumb_func
 715              		.type	_ZNK3r2p5Topic16get_payload_sizeEv, %function
 716              	_ZNK3r2p5Topic16get_payload_sizeEv:
 717              	.LFB509:
 718              		.loc 10 152 0
 719              		.cfi_startproc
 720              		@ args = 0, pretend = 0, frame = 8
 721              		@ frame_needed = 0, uses_anonymous_args = 0
 722 0000 00B5     		push	{lr}
 723              		.cfi_def_cfa_offset 4
 724              		.cfi_offset 14, -4
 725 0002 83B0     		sub	sp, sp, #12
ARM GAS  /tmp/ccfWo18f.s 			page 14


 726              		.cfi_def_cfa_offset 16
 727 0004 0190     		str	r0, [sp, #4]
 728              		.loc 10 154 0
 729 0006 019B     		ldr	r3, [sp, #4]
 730 0008 0833     		adds	r3, r3, #8
 731 000a 1846     		mov	r0, r3
 732 000c FFF7FEFF 		bl	_ZNK3r2p11MemoryPool_13get_item_sizeEv
 733 0010 0346     		mov	r3, r0
 734 0012 1846     		mov	r0, r3
 735 0014 FFF7FEFF 		bl	_ZN3r2p7Message16get_payload_sizeEj
 736 0018 0346     		mov	r3, r0
 737              		.loc 10 155 0
 738 001a 1846     		mov	r0, r3
 739 001c 03B0     		add	sp, sp, #12
 740              		.cfi_def_cfa_offset 4
 741              		@ sp needed
 742 001e 5DF804FB 		ldr	pc, [sp], #4
 743              		.cfi_endproc
 744              	.LFE509:
 745              		.size	_ZNK3r2p5Topic16get_payload_sizeEv, .-_ZNK3r2p5Topic16get_payload_sizeEv
 746 0022 00BFAFF3 		.section	.text._ZN3r2p5Topic12alloc_unsafeEv,"axG",%progbits,_ZN3r2p5Topic12alloc_unsafeEv,comdat
 746      0080AFF3 
 746      0080AFF3 
 746      0080
 747              		.align	2
 748              		.p2align 4,,15
 749              		.weak	_ZN3r2p5Topic12alloc_unsafeEv
 750              		.thumb
 751              		.thumb_func
 752              		.type	_ZN3r2p5Topic12alloc_unsafeEv, %function
 753              	_ZN3r2p5Topic12alloc_unsafeEv:
 754              	.LFB522:
 755              		.loc 10 250 0
 756              		.cfi_startproc
 757              		@ args = 0, pretend = 0, frame = 8
 758              		@ frame_needed = 0, uses_anonymous_args = 0
 759 0000 10B5     		push	{r4, lr}
 760              		.cfi_def_cfa_offset 8
 761              		.cfi_offset 4, -8
 762              		.cfi_offset 14, -4
 763 0002 82B0     		sub	sp, sp, #8
 764              		.cfi_def_cfa_offset 16
 765 0004 0190     		str	r0, [sp, #4]
 766              	.LBB15:
 767              		.loc 10 252 0
 768 0006 019B     		ldr	r3, [sp, #4]
 769 0008 0833     		adds	r3, r3, #8
 770 000a 1846     		mov	r0, r3
 771 000c FFF7FEFF 		bl	_ZN3r2p11MemoryPool_12alloc_unsafeEv
 772 0010 0446     		mov	r4, r0
 773              		.loc 10 253 0
 774 0012 002C     		cmp	r4, #0
 775 0014 04D0     		beq	.L46
 776              		.loc 10 254 0
 777 0016 2046     		mov	r0, r4
 778 0018 FFF7FEFF 		bl	_ZN3r2p7Message12reset_unsafeEv
 779              		.loc 10 255 0
ARM GAS  /tmp/ccfWo18f.s 			page 15


 780 001c 2346     		mov	r3, r4
 781 001e 00E0     		b	.L47
 782              	.L46:
 783              		.loc 10 257 0
 784 0020 0023     		movs	r3, #0
 785              	.L47:
 786              	.LBE15:
 787              		.loc 10 258 0
 788 0022 1846     		mov	r0, r3
 789 0024 02B0     		add	sp, sp, #8
 790              		.cfi_def_cfa_offset 8
 791              		@ sp needed
 792 0026 10BD     		pop	{r4, pc}
 793              		.cfi_endproc
 794              	.LFE522:
 795              		.size	_ZN3r2p5Topic12alloc_unsafeEv, .-_ZN3r2p5Topic12alloc_unsafeEv
 796 0028 AFF30080 		.section	.text._ZN3r2p5Topic8has_nameERKS0_PKc,"axG",%progbits,_ZN3r2p5Topic8has_nameERKS0_PKc,com
 796      AFF30080 
 797              		.align	2
 798              		.p2align 4,,15
 799              		.weak	_ZN3r2p5Topic8has_nameERKS0_PKc
 800              		.thumb
 801              		.thumb_func
 802              		.type	_ZN3r2p5Topic8has_nameERKS0_PKc, %function
 803              	_ZN3r2p5Topic8has_nameERKS0_PKc:
 804              	.LFB532:
 805              		.loc 10 337 0
 806              		.cfi_startproc
 807              		@ args = 0, pretend = 0, frame = 8
 808              		@ frame_needed = 0, uses_anonymous_args = 0
 809 0000 00B5     		push	{lr}
 810              		.cfi_def_cfa_offset 4
 811              		.cfi_offset 14, -4
 812 0002 83B0     		sub	sp, sp, #12
 813              		.cfi_def_cfa_offset 16
 814 0004 0190     		str	r0, [sp, #4]
 815 0006 0091     		str	r1, [sp]
 816              		.loc 10 339 0
 817 0008 009B     		ldr	r3, [sp]
 818 000a 002B     		cmp	r3, #0
 819 000c 0DD0     		beq	.L49
 820              		.loc 10 340 0 discriminator 1
 821 000e 0198     		ldr	r0, [sp, #4]
 822 0010 FFF7FEFF 		bl	_ZNK3r2p5Topic8get_nameEv
 823 0014 0346     		mov	r3, r0
 824 0016 1846     		mov	r0, r3
 825 0018 0099     		ldr	r1, [sp]
 826 001a 1022     		movs	r2, #16
 827 001c FFF7FEFF 		bl	strncmp
 828 0020 0346     		mov	r3, r0
 829              		.loc 10 339 0 discriminator 1
 830 0022 002B     		cmp	r3, #0
 831 0024 01D1     		bne	.L49
 832              		.loc 10 339 0 is_stmt 0 discriminator 3
 833 0026 0123     		movs	r3, #1
 834 0028 00E0     		b	.L50
 835              	.L49:
ARM GAS  /tmp/ccfWo18f.s 			page 16


 836              		.loc 10 339 0 discriminator 4
 837 002a 0023     		movs	r3, #0
 838              	.L50:
 839              		.loc 10 341 0 is_stmt 1
 840 002c 1846     		mov	r0, r3
 841 002e 03B0     		add	sp, sp, #12
 842              		.cfi_def_cfa_offset 4
 843              		@ sp needed
 844 0030 5DF804FB 		ldr	pc, [sp], #4
 845              		.cfi_endproc
 846              	.LFE532:
 847              		.size	_ZN3r2p5Topic8has_nameERKS0_PKc, .-_ZN3r2p5Topic8has_nameERKS0_PKc
 848 0034 AFF30080 		.section	.rodata
 848      AFF30080 
 848      AFF30080 
 849              		.align	2
 850              	.LC0:
 851 0000 5232505F 		.ascii	"R2P_ASSERT()\000"
 851      41535345 
 851      52542829 
 851      00
 852              		.section	.text._ZN3r2p13BasePublisher12alloc_unsafeERPNS_7MessageE,"axG",%progbits,_ZN3r2p13BasePu
 853              		.align	2
 854              		.p2align 4,,15
 855              		.weak	_ZN3r2p13BasePublisher12alloc_unsafeERPNS_7MessageE
 856              		.thumb
 857              		.thumb_func
 858              		.type	_ZN3r2p13BasePublisher12alloc_unsafeERPNS_7MessageE, %function
 859              	_ZN3r2p13BasePublisher12alloc_unsafeERPNS_7MessageE:
 860              	.LFB547:
 861              		.file 11 "/home/ergae/r2p-sdk/core/Middleware/include/r2p/BasePublisher.hpp"
 862              		.loc 11 64 0
 863              		.cfi_startproc
 864              		@ args = 0, pretend = 0, frame = 8
 865              		@ frame_needed = 0, uses_anonymous_args = 0
 866 0000 00B5     		push	{lr}
 867              		.cfi_def_cfa_offset 4
 868              		.cfi_offset 14, -4
 869 0002 83B0     		sub	sp, sp, #12
 870              		.cfi_def_cfa_offset 16
 871 0004 0190     		str	r0, [sp, #4]
 872 0006 0091     		str	r1, [sp]
 873              		.loc 11 66 0
 874 0008 019B     		ldr	r3, [sp, #4]
 875 000a 5B68     		ldr	r3, [r3, #4]
 876 000c 002B     		cmp	r3, #0
 877 000e 02D1     		bne	.L53
 878              		.loc 11 66 0 is_stmt 0 discriminator 1
 879 0010 0A48     		ldr	r0, .L55
 880 0012 FFF7FEFF 		bl	chDbgPanic
 881              	.L53:
 882              		.loc 11 68 0 is_stmt 1
 883 0016 019B     		ldr	r3, [sp, #4]
 884 0018 5B68     		ldr	r3, [r3, #4]
 885 001a 1846     		mov	r0, r3
 886 001c FFF7FEFF 		bl	_ZN3r2p5Topic12alloc_unsafeEv
 887 0020 0246     		mov	r2, r0
ARM GAS  /tmp/ccfWo18f.s 			page 17


 888 0022 009B     		ldr	r3, [sp]
 889 0024 1A60     		str	r2, [r3]
 890              		.loc 11 69 0
 891 0026 009B     		ldr	r3, [sp]
 892 0028 1B68     		ldr	r3, [r3]
 893 002a 002B     		cmp	r3, #0
 894 002c 14BF     		ite	ne
 895 002e 0123     		movne	r3, #1
 896 0030 0023     		moveq	r3, #0
 897 0032 DBB2     		uxtb	r3, r3
 898              		.loc 11 70 0
 899 0034 1846     		mov	r0, r3
 900 0036 03B0     		add	sp, sp, #12
 901              		.cfi_def_cfa_offset 4
 902              		@ sp needed
 903 0038 5DF804FB 		ldr	pc, [sp], #4
 904              	.L56:
 905              		.align	2
 906              	.L55:
 907 003c 00000000 		.word	.LC0
 908              		.cfi_endproc
 909              	.LFE547:
 910              		.size	_ZN3r2p13BasePublisher12alloc_unsafeERPNS_7MessageE, .-_ZN3r2p13BasePublisher12alloc_unsafeE
 911              		.section	.text._ZNK3r2p10Middleware10get_topicsEv,"axG",%progbits,_ZNK3r2p10Middleware10get_topics
 912              		.align	2
 913              		.p2align 4,,15
 914              		.weak	_ZNK3r2p10Middleware10get_topicsEv
 915              		.thumb
 916              		.thumb_func
 917              		.type	_ZNK3r2p10Middleware10get_topicsEv, %function
 918              	_ZNK3r2p10Middleware10get_topicsEv:
 919              	.LFB591:
 920              		.file 12 "/home/ergae/r2p-sdk/core/Middleware/include/r2p/Middleware.hpp"
 921              		.loc 12 184 0
 922              		.cfi_startproc
 923              		@ args = 0, pretend = 0, frame = 8
 924              		@ frame_needed = 0, uses_anonymous_args = 0
 925              		@ link register save eliminated.
 926 0000 82B0     		sub	sp, sp, #8
 927              		.cfi_def_cfa_offset 8
 928 0002 0190     		str	r0, [sp, #4]
 929              		.loc 12 186 0
 930 0004 019B     		ldr	r3, [sp, #4]
 931 0006 0833     		adds	r3, r3, #8
 932              		.loc 12 187 0
 933 0008 1846     		mov	r0, r3
 934 000a 02B0     		add	sp, sp, #8
 935              		.cfi_def_cfa_offset 0
 936              		@ sp needed
 937 000c 7047     		bx	lr
 938              		.cfi_endproc
 939              	.LFE591:
 940              		.size	_ZNK3r2p10Middleware10get_topicsEv, .-_ZNK3r2p10Middleware10get_topicsEv
 941 000e 00BF     		.section	.text._ZN3r2p10Middleware14get_mgmt_topicEv,"axG",%progbits,_ZN3r2p10Middleware14get_mgmt
 942              		.align	2
 943              		.p2align 4,,15
 944              		.weak	_ZN3r2p10Middleware14get_mgmt_topicEv
ARM GAS  /tmp/ccfWo18f.s 			page 18


 945              		.thumb
 946              		.thumb_func
 947              		.type	_ZN3r2p10Middleware14get_mgmt_topicEv, %function
 948              	_ZN3r2p10Middleware14get_mgmt_topicEv:
 949              	.LFB593:
 950              		.loc 12 198 0
 951              		.cfi_startproc
 952              		@ args = 0, pretend = 0, frame = 8
 953              		@ frame_needed = 0, uses_anonymous_args = 0
 954              		@ link register save eliminated.
 955 0000 82B0     		sub	sp, sp, #8
 956              		.cfi_def_cfa_offset 8
 957 0002 0190     		str	r0, [sp, #4]
 958              		.loc 12 200 0
 959 0004 019B     		ldr	r3, [sp, #4]
 960 0006 2833     		adds	r3, r3, #40
 961              		.loc 12 201 0
 962 0008 1846     		mov	r0, r3
 963 000a 02B0     		add	sp, sp, #8
 964              		.cfi_def_cfa_offset 0
 965              		@ sp needed
 966 000c 7047     		bx	lr
 967              		.cfi_endproc
 968              	.LFE593:
 969              		.size	_ZN3r2p10Middleware14get_mgmt_topicEv, .-_ZN3r2p10Middleware14get_mgmt_topicEv
 970 000e 00BF     		.section	.text._ZN3r2p14RTCANTransport4sendEPNS_7MessageEPNS_15RTCANSubscriberE,"ax",%progbits
 971              		.align	2
 972              		.p2align 4,,15
 973              		.global	_ZN3r2p14RTCANTransport4sendEPNS_7MessageEPNS_15RTCANSubscriberE
 974              		.thumb
 975              		.thumb_func
 976              		.type	_ZN3r2p14RTCANTransport4sendEPNS_7MessageEPNS_15RTCANSubscriberE, %function
 977              	_ZN3r2p14RTCANTransport4sendEPNS_7MessageEPNS_15RTCANSubscriberE:
 978              	.LFB596:
 979              		.file 13 "/home/ergae/r2p-sdk/core/Middleware/src/transport/RTCANTransport.cpp"
 980              		.loc 13 14 0
 981              		.cfi_startproc
 982              		@ args = 0, pretend = 0, frame = 24
 983              		@ frame_needed = 0, uses_anonymous_args = 0
 984 0000 00B5     		push	{lr}
 985              		.cfi_def_cfa_offset 4
 986              		.cfi_offset 14, -4
 987 0002 87B0     		sub	sp, sp, #28
 988              		.cfi_def_cfa_offset 32
 989 0004 0390     		str	r0, [sp, #12]
 990 0006 0291     		str	r1, [sp, #8]
 991 0008 0192     		str	r2, [sp, #4]
 992              	.LBB16:
 993              		.loc 13 22 0
 994 000a 039B     		ldr	r3, [sp, #12]
 995 000c 03F5B873 		add	r3, r3, #368
 996 0010 1846     		mov	r0, r3
 997 0012 FFF7FEFF 		bl	_ZN3r2p10MemoryPoolI11rtcan_msg_tE12alloc_unsafeEv
 998 0016 0590     		str	r0, [sp, #20]
 999              		.loc 13 23 0
 1000 0018 059B     		ldr	r3, [sp, #20]
 1001 001a 002B     		cmp	r3, #0
ARM GAS  /tmp/ccfWo18f.s 			page 19


 1002 001c 01D1     		bne	.L62
 1003              		.loc 13 24 0
 1004 001e 0023     		movs	r3, #0
 1005 0020 2BE0     		b	.L63
 1006              	.L62:
 1007              		.loc 13 26 0
 1008 0022 019B     		ldr	r3, [sp, #4]
 1009 0024 9A8B     		ldrh	r2, [r3, #28]
 1010 0026 059B     		ldr	r3, [sp, #20]
 1011 0028 A3F81120 		strh	r2, [r3, #17]	@ unaligned
 1012              		.loc 13 27 0
 1013 002c 059B     		ldr	r3, [sp, #20]
 1014 002e 154A     		ldr	r2, .L64
 1015 0030 C3F80520 		str	r2, [r3, #5]	@ unaligned
 1016              		.loc 13 28 0
 1017 0034 059B     		ldr	r3, [sp, #20]
 1018 0036 019A     		ldr	r2, [sp, #4]
 1019 0038 C3F80920 		str	r2, [r3, #9]	@ unaligned
 1020              		.loc 13 29 0
 1021 003c 019B     		ldr	r3, [sp, #4]
 1022 003e 1846     		mov	r0, r3
 1023 0040 FFF7FEFF 		bl	_ZNK3r2p14BaseSubscriber9get_topicEv
 1024 0044 0346     		mov	r3, r0
 1025 0046 1846     		mov	r0, r3
 1026 0048 FFF7FEFF 		bl	_ZNK3r2p5Topic16get_payload_sizeEv
 1027 004c 0346     		mov	r3, r0
 1028 004e 9AB2     		uxth	r2, r3
 1029 0050 059B     		ldr	r3, [sp, #20]
 1030 0052 A3F81320 		strh	r2, [r3, #19]	@ unaligned
 1031              		.loc 13 30 0
 1032 0056 0298     		ldr	r0, [sp, #8]
 1033 0058 FFF7FEFF 		bl	_ZNK3r2p7Message12get_raw_dataEv
 1034 005c 0246     		mov	r2, r0
 1035 005e 059B     		ldr	r3, [sp, #20]
 1036 0060 C3F81520 		str	r2, [r3, #21]	@ unaligned
 1037              		.loc 13 31 0
 1038 0064 059B     		ldr	r3, [sp, #20]
 1039 0066 0222     		movs	r2, #2
 1040 0068 1A71     		strb	r2, [r3, #4]
 1041              		.loc 13 33 0
 1042 006a 039B     		ldr	r3, [sp, #12]
 1043 006c 1B6C     		ldr	r3, [r3, #64]
 1044 006e 1846     		mov	r0, r3
 1045 0070 0599     		ldr	r1, [sp, #20]
 1046 0072 3222     		movs	r2, #50
 1047 0074 FFF7FEFF 		bl	rtcanTransmitI
 1048              		.loc 13 34 0
 1049 0078 0123     		movs	r3, #1
 1050              	.L63:
 1051              	.LBE16:
 1052              		.loc 13 35 0
 1053 007a 1846     		mov	r0, r3
 1054 007c 07B0     		add	sp, sp, #28
 1055              		.cfi_def_cfa_offset 4
 1056              		@ sp needed
 1057 007e 5DF804FB 		ldr	pc, [sp], #4
 1058              	.L65:
ARM GAS  /tmp/ccfWo18f.s 			page 20


 1059 0082 00BF     		.align	2
 1060              	.L64:
 1061 0084 00000000 		.word	_ZN3r2p14RTCANTransport7send_cbER11rtcan_msg_t
 1062              		.cfi_endproc
 1063              	.LFE596:
 1064              		.size	_ZN3r2p14RTCANTransport4sendEPNS_7MessageEPNS_15RTCANSubscriberE, .-_ZN3r2p14RTCANTransport4
 1065 0088 AFF30080 		.section	.text._ZN3r2p14RTCANTransport7send_cbER11rtcan_msg_t,"ax",%progbits
 1065      AFF30080 
 1066              		.align	2
 1067              		.p2align 4,,15
 1068              		.global	_ZN3r2p14RTCANTransport7send_cbER11rtcan_msg_t
 1069              		.thumb
 1070              		.thumb_func
 1071              		.type	_ZN3r2p14RTCANTransport7send_cbER11rtcan_msg_t, %function
 1072              	_ZN3r2p14RTCANTransport7send_cbER11rtcan_msg_t:
 1073              	.LFB597:
 1074              		.loc 13 37 0
 1075              		.cfi_startproc
 1076              		@ args = 0, pretend = 0, frame = 24
 1077              		@ frame_needed = 0, uses_anonymous_args = 0
 1078 0000 00B5     		push	{lr}
 1079              		.cfi_def_cfa_offset 4
 1080              		.cfi_offset 14, -4
 1081 0002 87B0     		sub	sp, sp, #28
 1082              		.cfi_def_cfa_offset 32
 1083 0004 0190     		str	r0, [sp, #4]
 1084              	.LBB17:
 1085              		.loc 13 38 0
 1086 0006 019B     		ldr	r3, [sp, #4]
 1087 0008 D3F80930 		ldr	r3, [r3, #9]	@ unaligned
 1088 000c 0593     		str	r3, [sp, #20]
 1089              		.loc 13 39 0
 1090 000e 059B     		ldr	r3, [sp, #20]
 1091 0010 1846     		mov	r0, r3
 1092 0012 FFF7FEFF 		bl	_ZNK3r2p16RemoteSubscriber13get_transportEv
 1093 0016 0490     		str	r0, [sp, #16]
 1094              		.loc 13 40 0
 1095 0018 019B     		ldr	r3, [sp, #4]
 1096 001a D3F81530 		ldr	r3, [r3, #21]	@ unaligned
 1097 001e 1846     		mov	r0, r3
 1098 0020 FFF7FEFF 		bl	_ZN3r2p7Message21get_msg_from_raw_dataEPKh
 1099 0024 0390     		str	r0, [sp, #12]
 1100              		.loc 13 42 0
 1101 0026 059B     		ldr	r3, [sp, #20]
 1102 0028 1846     		mov	r0, r3
 1103 002a 0399     		ldr	r1, [sp, #12]
 1104 002c FFF7FEFF 		bl	_ZN3r2p14BaseSubscriber14release_unsafeERNS_7MessageE
 1105              		.loc 13 43 0
 1106 0030 049B     		ldr	r3, [sp, #16]
 1107 0032 03F5B873 		add	r3, r3, #368
 1108 0036 1846     		mov	r0, r3
 1109 0038 0199     		ldr	r1, [sp, #4]
 1110 003a FFF7FEFF 		bl	_ZN3r2p10MemoryPoolI11rtcan_msg_tE11free_unsafeEPS1_
 1111              	.LBE17:
 1112              		.loc 13 44 0
 1113 003e 07B0     		add	sp, sp, #28
 1114              		.cfi_def_cfa_offset 4
ARM GAS  /tmp/ccfWo18f.s 			page 21


 1115              		@ sp needed
 1116 0040 5DF804FB 		ldr	pc, [sp], #4
 1117              		.cfi_endproc
 1118              	.LFE597:
 1119              		.size	_ZN3r2p14RTCANTransport7send_cbER11rtcan_msg_t, .-_ZN3r2p14RTCANTransport7send_cbER11rtcan_m
 1120 0044 AFF30080 		.section	.text._ZN3r2p14RTCANTransport7recv_cbER11rtcan_msg_t,"ax",%progbits
 1120      AFF30080 
 1120      AFF30080 
 1121              		.align	2
 1122              		.p2align 4,,15
 1123              		.global	_ZN3r2p14RTCANTransport7recv_cbER11rtcan_msg_t
 1124              		.thumb
 1125              		.thumb_func
 1126              		.type	_ZN3r2p14RTCANTransport7recv_cbER11rtcan_msg_t, %function
 1127              	_ZN3r2p14RTCANTransport7recv_cbER11rtcan_msg_t:
 1128              	.LFB598:
 1129              		.loc 13 46 0
 1130              		.cfi_startproc
 1131              		@ args = 0, pretend = 0, frame = 16
 1132              		@ frame_needed = 0, uses_anonymous_args = 0
 1133 0000 00B5     		push	{lr}
 1134              		.cfi_def_cfa_offset 4
 1135              		.cfi_offset 14, -4
 1136 0002 85B0     		sub	sp, sp, #20
 1137              		.cfi_def_cfa_offset 24
 1138 0004 0190     		str	r0, [sp, #4]
 1139              	.LBB18:
 1140              		.loc 13 47 0
 1141 0006 019B     		ldr	r3, [sp, #4]
 1142 0008 D3F80930 		ldr	r3, [r3, #9]	@ unaligned
 1143 000c 0393     		str	r3, [sp, #12]
 1144              		.loc 13 48 0
 1145 000e 019B     		ldr	r3, [sp, #4]
 1146 0010 D3F81530 		ldr	r3, [r3, #21]	@ unaligned
 1147 0014 1846     		mov	r0, r3
 1148 0016 FFF7FEFF 		bl	_ZN3r2p7Message21get_msg_from_raw_dataEPKh
 1149 001a 0346     		mov	r3, r0
 1150 001c 0293     		str	r3, [sp, #8]
 1151              		.loc 13 50 0
 1152 001e 019B     		ldr	r3, [sp, #4]
 1153 0020 1B79     		ldrb	r3, [r3, #4]	@ zero_extendqisi2
 1154 0022 012B     		cmp	r3, #1
 1155 0024 05D1     		bne	.L68
 1156              		.loc 13 60 0
 1157 0026 039A     		ldr	r2, [sp, #12]
 1158 0028 029B     		ldr	r3, [sp, #8]
 1159 002a 1046     		mov	r0, r2
 1160 002c 1946     		mov	r1, r3
 1161 002e FFF7FEFF 		bl	_ZN3r2p13BasePublisher22publish_locally_unsafeERNS_7MessageE
 1162              	.L68:
 1163              		.loc 13 65 0
 1164 0032 039A     		ldr	r2, [sp, #12]
 1165 0034 02AB     		add	r3, sp, #8
 1166 0036 1046     		mov	r0, r2
 1167 0038 1946     		mov	r1, r3
 1168 003a FFF7FEFF 		bl	_ZN3r2p13BasePublisher12alloc_unsafeERPNS_7MessageE
 1169 003e 0346     		mov	r3, r0
ARM GAS  /tmp/ccfWo18f.s 			page 22


 1170 0040 002B     		cmp	r3, #0
 1171 0042 0BD0     		beq	.L69
 1172              		.loc 13 66 0
 1173 0044 029B     		ldr	r3, [sp, #8]
 1174 0046 1846     		mov	r0, r3
 1175 0048 FFF7FEFF 		bl	_ZNK3r2p7Message12get_raw_dataEv
 1176 004c 0246     		mov	r2, r0
 1177 004e 019B     		ldr	r3, [sp, #4]
 1178 0050 C3F81520 		str	r2, [r3, #21]	@ unaligned
 1179              		.loc 13 67 0
 1180 0054 019B     		ldr	r3, [sp, #4]
 1181 0056 0222     		movs	r2, #2
 1182 0058 1A71     		strb	r2, [r3, #4]
 1183 005a 02E0     		b	.L67
 1184              	.L69:
 1185              		.loc 13 69 0
 1186 005c 019B     		ldr	r3, [sp, #4]
 1187 005e 0622     		movs	r2, #6
 1188 0060 1A71     		strb	r2, [r3, #4]
 1189              	.L67:
 1190              	.LBE18:
 1191              		.loc 13 72 0
 1192 0062 05B0     		add	sp, sp, #20
 1193              		.cfi_def_cfa_offset 4
 1194              		@ sp needed
 1195 0064 5DF804FB 		ldr	pc, [sp], #4
 1196              		.cfi_endproc
 1197              	.LFE598:
 1198              		.size	_ZN3r2p14RTCANTransport7recv_cbER11rtcan_msg_t, .-_ZN3r2p14RTCANTransport7recv_cbER11rtcan_m
 1199 0068 AFF30080 		.section	.text._ZN3r2p14RTCANTransport11free_headerER11rtcan_msg_t,"ax",%progbits
 1199      AFF30080 
 1200              		.align	2
 1201              		.p2align 4,,15
 1202              		.global	_ZN3r2p14RTCANTransport11free_headerER11rtcan_msg_t
 1203              		.thumb
 1204              		.thumb_func
 1205              		.type	_ZN3r2p14RTCANTransport11free_headerER11rtcan_msg_t, %function
 1206              	_ZN3r2p14RTCANTransport11free_headerER11rtcan_msg_t:
 1207              	.LFB599:
 1208              		.loc 13 74 0
 1209              		.cfi_startproc
 1210              		@ args = 0, pretend = 0, frame = 16
 1211              		@ frame_needed = 0, uses_anonymous_args = 0
 1212 0000 00B5     		push	{lr}
 1213              		.cfi_def_cfa_offset 4
 1214              		.cfi_offset 14, -4
 1215 0002 85B0     		sub	sp, sp, #20
 1216              		.cfi_def_cfa_offset 24
 1217 0004 0190     		str	r0, [sp, #4]
 1218              	.LBB19:
 1219              		.loc 13 75 0
 1220 0006 019B     		ldr	r3, [sp, #4]
 1221 0008 D3F80930 		ldr	r3, [r3, #9]	@ unaligned
 1222 000c 0393     		str	r3, [sp, #12]
 1223              		.loc 13 76 0
 1224 000e 039B     		ldr	r3, [sp, #12]
 1225 0010 03F5B873 		add	r3, r3, #368
ARM GAS  /tmp/ccfWo18f.s 			page 23


 1226 0014 1846     		mov	r0, r3
 1227 0016 0199     		ldr	r1, [sp, #4]
 1228 0018 FFF7FEFF 		bl	_ZN3r2p10MemoryPoolI11rtcan_msg_tE11free_unsafeEPS1_
 1229              	.LBE19:
 1230              		.loc 13 77 0
 1231 001c 05B0     		add	sp, sp, #20
 1232              		.cfi_def_cfa_offset 4
 1233              		@ sp needed
 1234 001e 5DF804FB 		ldr	pc, [sp], #4
 1235              		.cfi_endproc
 1236              	.LFE599:
 1237              		.size	_ZN3r2p14RTCANTransport11free_headerER11rtcan_msg_t, .-_ZN3r2p14RTCANTransport11free_headerE
 1238 0022 00BFAFF3 		.section	.text._ZNK3r2p14RTCANTransport16create_publisherERNS_5TopicEPKh,"ax",%progbits
 1238      0080AFF3 
 1238      0080AFF3 
 1238      0080
 1239              		.align	2
 1240              		.p2align 4,,15
 1241              		.global	_ZNK3r2p14RTCANTransport16create_publisherERNS_5TopicEPKh
 1242              		.thumb
 1243              		.thumb_func
 1244              		.type	_ZNK3r2p14RTCANTransport16create_publisherERNS_5TopicEPKh, %function
 1245              	_ZNK3r2p14RTCANTransport16create_publisherERNS_5TopicEPKh:
 1246              	.LFB600:
 1247              		.loc 13 79 0
 1248              		.cfi_startproc
 1249              		@ args = 0, pretend = 0, frame = 32
 1250              		@ frame_needed = 0, uses_anonymous_args = 0
 1251 0000 10B5     		push	{r4, lr}
 1252              		.cfi_def_cfa_offset 8
 1253              		.cfi_offset 4, -8
 1254              		.cfi_offset 14, -4
 1255 0002 88B0     		sub	sp, sp, #32
 1256              		.cfi_def_cfa_offset 40
 1257 0004 0390     		str	r0, [sp, #12]
 1258 0006 0291     		str	r1, [sp, #8]
 1259 0008 0192     		str	r2, [sp, #4]
 1260              	.LBB20:
 1261              		.loc 13 80 0
 1262 000a 3420     		movs	r0, #52
 1263 000c FFF7FEFF 		bl	_Znwj
 1264 0010 0446     		mov	r4, r0
 1265 0012 039B     		ldr	r3, [sp, #12]
 1266 0014 2046     		mov	r0, r4
 1267 0016 1946     		mov	r1, r3
 1268 0018 FFF7FEFF 		bl	_ZN3r2p14RTCANPublisherC1ERNS_9TransportE
 1269 001c 0794     		str	r4, [sp, #28]
 1270              		.loc 13 84 0
 1271 001e 079B     		ldr	r3, [sp, #28]
 1272 0020 002B     		cmp	r3, #0
 1273 0022 02D1     		bne	.L73
 1274              		.loc 13 84 0 is_stmt 0 discriminator 1
 1275 0024 2048     		ldr	r0, .L76
 1276 0026 FFF7FEFF 		bl	chDbgPanic
 1277              	.L73:
 1278              		.loc 13 86 0 is_stmt 1
 1279 002a 04AB     		add	r3, sp, #16
ARM GAS  /tmp/ccfWo18f.s 			page 24


 1280 002c 0298     		ldr	r0, [sp, #8]
 1281 002e 1946     		mov	r1, r3
 1282 0030 FFF7FEFF 		bl	_ZN3r2p5Topic5allocINS_7MessageEEEbRPT_
 1283 0034 0346     		mov	r3, r0
 1284 0036 8DF81B30 		strb	r3, [sp, #27]
 1285              		.loc 13 87 0
 1286 003a 9DF81B30 		ldrb	r3, [sp, #27]
 1287 003e 83F00103 		eor	r3, r3, #1
 1288 0042 DBB2     		uxtb	r3, r3
 1289 0044 002B     		cmp	r3, #0
 1290 0046 02D0     		beq	.L74
 1291              		.loc 13 87 0 is_stmt 0 discriminator 1
 1292 0048 1748     		ldr	r0, .L76
 1293 004a FFF7FEFF 		bl	chDbgPanic
 1294              	.L74:
 1295              		.loc 13 89 0 is_stmt 1
 1296 004e 079B     		ldr	r3, [sp, #28]
 1297 0050 1433     		adds	r3, r3, #20
 1298 0052 0593     		str	r3, [sp, #20]
 1299              		.loc 13 90 0
 1300 0054 019B     		ldr	r3, [sp, #4]
 1301 0056 1A88     		ldrh	r2, [r3]
 1302 0058 059B     		ldr	r3, [sp, #20]
 1303 005a A3F81120 		strh	r2, [r3, #17]	@ unaligned
 1304              		.loc 13 91 0
 1305 005e 059B     		ldr	r3, [sp, #20]
 1306 0060 124A     		ldr	r2, .L76+4
 1307 0062 C3F80520 		str	r2, [r3, #5]	@ unaligned
 1308              		.loc 13 92 0
 1309 0066 059B     		ldr	r3, [sp, #20]
 1310 0068 079A     		ldr	r2, [sp, #28]
 1311 006a C3F80920 		str	r2, [r3, #9]	@ unaligned
 1312              		.loc 13 93 0
 1313 006e 0298     		ldr	r0, [sp, #8]
 1314 0070 FFF7FEFF 		bl	_ZNK3r2p5Topic16get_payload_sizeEv
 1315 0074 0346     		mov	r3, r0
 1316 0076 9AB2     		uxth	r2, r3
 1317 0078 059B     		ldr	r3, [sp, #20]
 1318 007a A3F81320 		strh	r2, [r3, #19]	@ unaligned
 1319              		.loc 13 94 0
 1320 007e 049B     		ldr	r3, [sp, #16]
 1321 0080 1846     		mov	r0, r3
 1322 0082 FFF7FEFF 		bl	_ZNK3r2p7Message12get_raw_dataEv
 1323 0086 0246     		mov	r2, r0
 1324 0088 059B     		ldr	r3, [sp, #20]
 1325 008a C3F81520 		str	r2, [r3, #21]	@ unaligned
 1326              		.loc 13 96 0
 1327 008e 059B     		ldr	r3, [sp, #20]
 1328 0090 0222     		movs	r2, #2
 1329 0092 1A71     		strb	r2, [r3, #4]
 1330              		.loc 13 98 0
 1331 0094 0648     		ldr	r0, .L76+8
 1332 0096 0599     		ldr	r1, [sp, #20]
 1333 0098 4FF47F42 		mov	r2, #65280
 1334 009c FFF7FEFF 		bl	rtcanReceiveMask
 1335              		.loc 13 99 0
 1336 00a0 079B     		ldr	r3, [sp, #28]
ARM GAS  /tmp/ccfWo18f.s 			page 25


 1337              	.LBE20:
 1338              		.loc 13 100 0
 1339 00a2 1846     		mov	r0, r3
 1340 00a4 08B0     		add	sp, sp, #32
 1341              		.cfi_def_cfa_offset 8
 1342              		@ sp needed
 1343 00a6 10BD     		pop	{r4, pc}
 1344              	.L77:
 1345              		.align	2
 1346              	.L76:
 1347 00a8 00000000 		.word	.LC0
 1348 00ac 00000000 		.word	_ZN3r2p14RTCANTransport7recv_cbER11rtcan_msg_t
 1349 00b0 00000000 		.word	RTCAND1
 1350              		.cfi_endproc
 1351              	.LFE600:
 1352              		.size	_ZNK3r2p14RTCANTransport16create_publisherERNS_5TopicEPKh, .-_ZNK3r2p14RTCANTransport16creat
 1353 00b4 AFF30080 		.section	.text._ZNK3r2p14RTCANTransport17create_subscriberERNS_5TopicEPNS_22TimestampedMsgPtrQueue
 1353      AFF30080 
 1353      AFF30080 
 1354              		.align	2
 1355              		.p2align 4,,15
 1356              		.global	_ZNK3r2p14RTCANTransport17create_subscriberERNS_5TopicEPNS_22TimestampedMsgPtrQueue5EntryE
 1357              		.thumb
 1358              		.thumb_func
 1359              		.type	_ZNK3r2p14RTCANTransport17create_subscriberERNS_5TopicEPNS_22TimestampedMsgPtrQueue5EntryEj,
 1360              	_ZNK3r2p14RTCANTransport17create_subscriberERNS_5TopicEPNS_22TimestampedMsgPtrQueue5EntryEj:
 1361              	.LFB601:
 1362              		.loc 13 103 0
 1363              		.cfi_startproc
 1364              		@ args = 0, pretend = 0, frame = 24
 1365              		@ frame_needed = 0, uses_anonymous_args = 0
 1366 0000 10B5     		push	{r4, lr}
 1367              		.cfi_def_cfa_offset 8
 1368              		.cfi_offset 4, -8
 1369              		.cfi_offset 14, -4
 1370 0002 86B0     		sub	sp, sp, #24
 1371              		.cfi_def_cfa_offset 32
 1372 0004 0390     		str	r0, [sp, #12]
 1373 0006 0291     		str	r1, [sp, #8]
 1374 0008 0192     		str	r2, [sp, #4]
 1375 000a 0093     		str	r3, [sp]
 1376              	.LBB21:
 1377              		.loc 13 104 0
 1378 000c 2020     		movs	r0, #32
 1379 000e FFF7FEFF 		bl	_Znwj
 1380 0012 0446     		mov	r4, r0
 1381 0014 2046     		mov	r0, r4
 1382 0016 0399     		ldr	r1, [sp, #12]
 1383 0018 019A     		ldr	r2, [sp, #4]
 1384 001a 009B     		ldr	r3, [sp]
 1385 001c FFF7FEFF 		bl	_ZN3r2p15RTCANSubscriberC1ERNS_14RTCANTransportEPNS_22TimestampedMsgPtrQueue5EntryEj
 1386 0020 0594     		str	r4, [sp, #20]
 1387              		.loc 13 108 0
 1388 0022 0398     		ldr	r0, [sp, #12]
 1389 0024 0299     		ldr	r1, [sp, #8]
 1390 0026 FFF7FEFF 		bl	_ZNK3r2p14RTCANTransport8topic_idERKNS_5TopicE
 1391 002a 0346     		mov	r3, r0
ARM GAS  /tmp/ccfWo18f.s 			page 26


 1392 002c 1A46     		mov	r2, r3
 1393 002e 059B     		ldr	r3, [sp, #20]
 1394 0030 9A83     		strh	r2, [r3, #28]	@ movhi
 1395              		.loc 13 110 0
 1396 0032 059B     		ldr	r3, [sp, #20]
 1397              	.LBE21:
 1398              		.loc 13 111 0
 1399 0034 1846     		mov	r0, r3
 1400 0036 06B0     		add	sp, sp, #24
 1401              		.cfi_def_cfa_offset 8
 1402              		@ sp needed
 1403 0038 10BD     		pop	{r4, pc}
 1404              		.cfi_endproc
 1405              	.LFE601:
 1406              		.size	_ZNK3r2p14RTCANTransport17create_subscriberERNS_5TopicEPNS_22TimestampedMsgPtrQueue5EntryEj,
 1407 003a 00BFAFF3 		.section	.text._ZN3r2p14RTCANTransport15fill_raw_paramsERKNS_5TopicEPh,"ax",%progbits
 1407      0080
 1408              		.align	2
 1409              		.p2align 4,,15
 1410              		.global	_ZN3r2p14RTCANTransport15fill_raw_paramsERKNS_5TopicEPh
 1411              		.thumb
 1412              		.thumb_func
 1413              		.type	_ZN3r2p14RTCANTransport15fill_raw_paramsERKNS_5TopicEPh, %function
 1414              	_ZN3r2p14RTCANTransport15fill_raw_paramsERKNS_5TopicEPh:
 1415              	.LFB602:
 1416              		.loc 13 113 0
 1417              		.cfi_startproc
 1418              		@ args = 0, pretend = 0, frame = 16
 1419              		@ frame_needed = 0, uses_anonymous_args = 0
 1420 0000 00B5     		push	{lr}
 1421              		.cfi_def_cfa_offset 4
 1422              		.cfi_offset 14, -4
 1423 0002 85B0     		sub	sp, sp, #20
 1424              		.cfi_def_cfa_offset 24
 1425 0004 0390     		str	r0, [sp, #12]
 1426 0006 0291     		str	r1, [sp, #8]
 1427 0008 0192     		str	r2, [sp, #4]
 1428              		.loc 13 114 0
 1429 000a 0398     		ldr	r0, [sp, #12]
 1430 000c 0299     		ldr	r1, [sp, #8]
 1431 000e FFF7FEFF 		bl	_ZNK3r2p14RTCANTransport8topic_idERKNS_5TopicE
 1432 0012 0346     		mov	r3, r0
 1433 0014 1A46     		mov	r2, r3
 1434 0016 019B     		ldr	r3, [sp, #4]
 1435 0018 1A80     		strh	r2, [r3]	@ movhi
 1436              		.loc 13 115 0
 1437 001a 05B0     		add	sp, sp, #20
 1438              		.cfi_def_cfa_offset 4
 1439              		@ sp needed
 1440 001c 5DF804FB 		ldr	pc, [sp], #4
 1441              		.cfi_endproc
 1442              	.LFE602:
 1443              		.size	_ZN3r2p14RTCANTransport15fill_raw_paramsERKNS_5TopicEPh, .-_ZN3r2p14RTCANTransport15fill_raw
 1444              		.section	.rodata
 1445 000d 000000   		.align	2
 1446              	.LC1:
 1447 0010 52325000 		.ascii	"R2P\000"
ARM GAS  /tmp/ccfWo18f.s 			page 27


 1448              		.section	.text._ZN3r2p14RTCANTransport10initializeERK11RTCANConfig,"ax",%progbits
 1449              		.align	2
 1450              		.p2align 4,,15
 1451              		.global	_ZN3r2p14RTCANTransport10initializeERK11RTCANConfig
 1452              		.thumb
 1453              		.thumb_func
 1454              		.type	_ZN3r2p14RTCANTransport10initializeERK11RTCANConfig, %function
 1455              	_ZN3r2p14RTCANTransport10initializeERK11RTCANConfig:
 1456              	.LFB603:
 1457              		.loc 13 117 0
 1458              		.cfi_startproc
 1459              		@ args = 0, pretend = 0, frame = 16
 1460              		@ frame_needed = 0, uses_anonymous_args = 0
 1461 0000 10B5     		push	{r4, lr}
 1462              		.cfi_def_cfa_offset 8
 1463              		.cfi_offset 4, -8
 1464              		.cfi_offset 14, -4
 1465 0002 86B0     		sub	sp, sp, #24
 1466              		.cfi_def_cfa_offset 32
 1467 0004 0390     		str	r0, [sp, #12]
 1468 0006 0291     		str	r1, [sp, #8]
 1469              	.LBB22:
 1470              		.loc 13 118 0
 1471 0008 2948     		ldr	r0, .L82
 1472 000a FFF7FEFF 		bl	_ZN3r2p10Middleware14get_mgmt_topicEv
 1473 000e 0590     		str	r0, [sp, #20]
 1474              		.loc 13 119 0
 1475 0010 0398     		ldr	r0, [sp, #12]
 1476 0012 0599     		ldr	r1, [sp, #20]
 1477 0014 FFF7FEFF 		bl	_ZNK3r2p14RTCANTransport8topic_idERKNS_5TopicE
 1478 0018 0346     		mov	r3, r0
 1479 001a ADF81230 		strh	r3, [sp, #18]	@ movhi
 1480              		.loc 13 121 0
 1481 001e FFF7FEFF 		bl	rtcanInit
 1482              		.loc 13 122 0
 1483 0022 039B     		ldr	r3, [sp, #12]
 1484 0024 1B6C     		ldr	r3, [r3, #64]
 1485 0026 1846     		mov	r0, r3
 1486 0028 0299     		ldr	r1, [sp, #8]
 1487 002a FFF7FEFF 		bl	rtcanStart
 1488              		.loc 13 124 0
 1489 002e 039B     		ldr	r3, [sp, #12]
 1490 0030 1B68     		ldr	r3, [r3]
 1491 0032 0833     		adds	r3, r3, #8
 1492 0034 1C68     		ldr	r4, [r3]
 1493 0036 039B     		ldr	r3, [sp, #12]
 1494 0038 03F50573 		add	r3, r3, #532
 1495 003c 0398     		ldr	r0, [sp, #12]
 1496 003e 0599     		ldr	r1, [sp, #20]
 1497 0040 1A46     		mov	r2, r3
 1498 0042 0423     		movs	r3, #4
 1499 0044 A047     		blx	r4
 1500 0046 0246     		mov	r2, r0
 1501 0048 039B     		ldr	r3, [sp, #12]
 1502 004a C3F83422 		str	r2, [r3, #564]
 1503              		.loc 13 125 0
 1504 004e 039A     		ldr	r2, [sp, #12]
ARM GAS  /tmp/ccfWo18f.s 			page 28


 1505 0050 039B     		ldr	r3, [sp, #12]
 1506 0052 D3F83432 		ldr	r3, [r3, #564]
 1507 0056 1946     		mov	r1, r3
 1508 0058 039B     		ldr	r3, [sp, #12]
 1509 005a 03F5C674 		add	r4, r3, #396
 1510 005e 0423     		movs	r3, #4
 1511 0060 0093     		str	r3, [sp]
 1512 0062 2223     		movs	r3, #34
 1513 0064 0193     		str	r3, [sp, #4]
 1514 0066 1046     		mov	r0, r2
 1515 0068 124A     		ldr	r2, .L82+4
 1516 006a 2346     		mov	r3, r4
 1517 006c FFF7FEFF 		bl	_ZN3r2p9Transport9subscribeERNS_16RemoteSubscriberEPKcPNS_7MessageEjj
 1518              		.loc 13 127 0
 1519 0070 039B     		ldr	r3, [sp, #12]
 1520 0072 1B68     		ldr	r3, [r3]
 1521 0074 0433     		adds	r3, r3, #4
 1522 0076 1B68     		ldr	r3, [r3]
 1523 0078 0DF11202 		add	r2, sp, #18
 1524 007c 0398     		ldr	r0, [sp, #12]
 1525 007e 0599     		ldr	r1, [sp, #20]
 1526 0080 9847     		blx	r3
 1527 0082 0246     		mov	r2, r0
 1528 0084 039B     		ldr	r3, [sp, #12]
 1529 0086 C3F83822 		str	r2, [r3, #568]
 1530              		.loc 13 128 0
 1531 008a 039A     		ldr	r2, [sp, #12]
 1532 008c 039B     		ldr	r3, [sp, #12]
 1533 008e D3F83832 		ldr	r3, [r3, #568]
 1534 0092 1946     		mov	r1, r3
 1535 0094 2223     		movs	r3, #34
 1536 0096 0093     		str	r3, [sp]
 1537 0098 1046     		mov	r0, r2
 1538 009a 064A     		ldr	r2, .L82+4
 1539 009c 064B     		ldr	r3, .L82+8
 1540 009e FFF7FEFF 		bl	_ZN3r2p9Transport9advertiseERNS_15RemotePublisherEPKcRKNS_4TimeEj
 1541              		.loc 13 130 0
 1542 00a2 039B     		ldr	r3, [sp, #12]
 1543 00a4 0248     		ldr	r0, .L82
 1544 00a6 1946     		mov	r1, r3
 1545 00a8 FFF7FEFF 		bl	_ZN3r2p10Middleware3addERNS_9TransportE
 1546              	.LBE22:
 1547              		.loc 13 131 0
 1548 00ac 06B0     		add	sp, sp, #24
 1549              		.cfi_def_cfa_offset 8
 1550              		@ sp needed
 1551 00ae 10BD     		pop	{r4, pc}
 1552              	.L83:
 1553              		.align	2
 1554              	.L82:
 1555 00b0 00000000 		.word	_ZN3r2p10Middleware8instanceE
 1556 00b4 10000000 		.word	.LC1
 1557 00b8 00000000 		.word	_ZN3r2p4Time8INFINITEE
 1558              		.cfi_endproc
 1559              	.LFE603:
 1560              		.size	_ZN3r2p14RTCANTransport10initializeERK11RTCANConfig, .-_ZN3r2p14RTCANTransport10initializeER
 1561 00bc AFF30080 		.section	.text._ZN3r2p11MemoryPool_D2Ev,"axG",%progbits,_ZN3r2p11MemoryPool_D5Ev,comdat
ARM GAS  /tmp/ccfWo18f.s 			page 29


 1562              		.align	2
 1563              		.p2align 4,,15
 1564              		.weak	_ZN3r2p11MemoryPool_D2Ev
 1565              		.thumb
 1566              		.thumb_func
 1567              		.type	_ZN3r2p11MemoryPool_D2Ev, %function
 1568              	_ZN3r2p11MemoryPool_D2Ev:
 1569              	.LFB607:
 1570              		.loc 7 9 0
 1571              		.cfi_startproc
 1572              		@ args = 0, pretend = 0, frame = 8
 1573              		@ frame_needed = 0, uses_anonymous_args = 0
 1574 0000 00B5     		push	{lr}
 1575              		.cfi_def_cfa_offset 4
 1576              		.cfi_offset 14, -4
 1577 0002 83B0     		sub	sp, sp, #12
 1578              		.cfi_def_cfa_offset 16
 1579 0004 0190     		str	r0, [sp, #4]
 1580              	.LBB23:
 1581              		.loc 7 9 0
 1582 0006 0198     		ldr	r0, [sp, #4]
 1583 0008 FFF7FEFF 		bl	_ZN3r2p10UncopyableD2Ev
 1584              	.LBE23:
 1585 000c 019B     		ldr	r3, [sp, #4]
 1586 000e 1846     		mov	r0, r3
 1587 0010 03B0     		add	sp, sp, #12
 1588              		.cfi_def_cfa_offset 4
 1589              		@ sp needed
 1590 0012 5DF804FB 		ldr	pc, [sp], #4
 1591              		.cfi_endproc
 1592              	.LFE607:
 1593              		.size	_ZN3r2p11MemoryPool_D2Ev, .-_ZN3r2p11MemoryPool_D2Ev
 1594              		.weak	_ZN3r2p11MemoryPool_D1Ev
 1595              		.thumb_set _ZN3r2p11MemoryPool_D1Ev,_ZN3r2p11MemoryPool_D2Ev
 1596 0016 00BFAFF3 		.section	.text._ZN3r2p10MemoryPoolI11rtcan_msg_tED2Ev,"axG",%progbits,_ZN3r2p10MemoryPoolI11rtcan_
 1596      0080AFF3 
 1596      0080
 1597              		.align	2
 1598              		.p2align 4,,15
 1599              		.weak	_ZN3r2p10MemoryPoolI11rtcan_msg_tED2Ev
 1600              		.thumb
 1601              		.thumb_func
 1602              		.type	_ZN3r2p10MemoryPoolI11rtcan_msg_tED2Ev, %function
 1603              	_ZN3r2p10MemoryPoolI11rtcan_msg_tED2Ev:
 1604              	.LFB609:
 1605              		.file 14 "/home/ergae/r2p-sdk/core/Middleware/include/r2p/MemoryPool.hpp"
 1606              		.loc 14 10 0
 1607              		.cfi_startproc
 1608              		@ args = 0, pretend = 0, frame = 8
 1609              		@ frame_needed = 0, uses_anonymous_args = 0
 1610 0000 00B5     		push	{lr}
 1611              		.cfi_def_cfa_offset 4
 1612              		.cfi_offset 14, -4
 1613 0002 83B0     		sub	sp, sp, #12
 1614              		.cfi_def_cfa_offset 16
 1615 0004 0190     		str	r0, [sp, #4]
 1616              	.LBB24:
ARM GAS  /tmp/ccfWo18f.s 			page 30


 1617              		.loc 14 10 0
 1618 0006 019B     		ldr	r3, [sp, #4]
 1619 0008 0433     		adds	r3, r3, #4
 1620 000a 1846     		mov	r0, r3
 1621 000c FFF7FEFF 		bl	_ZN3r2p11MemoryPool_D1Ev
 1622 0010 0198     		ldr	r0, [sp, #4]
 1623 0012 FFF7FEFF 		bl	_ZN3r2p10UncopyableD2Ev
 1624              	.LBE24:
 1625 0016 019B     		ldr	r3, [sp, #4]
 1626 0018 1846     		mov	r0, r3
 1627 001a 03B0     		add	sp, sp, #12
 1628              		.cfi_def_cfa_offset 4
 1629              		@ sp needed
 1630 001c 5DF804FB 		ldr	pc, [sp], #4
 1631              		.cfi_endproc
 1632              	.LFE609:
 1633              		.size	_ZN3r2p10MemoryPoolI11rtcan_msg_tED2Ev, .-_ZN3r2p10MemoryPoolI11rtcan_msg_tED2Ev
 1634              		.weak	_ZN3r2p10MemoryPoolI11rtcan_msg_tED1Ev
 1635              		.thumb_set _ZN3r2p10MemoryPoolI11rtcan_msg_tED1Ev,_ZN3r2p10MemoryPoolI11rtcan_msg_tED2Ev
 1636              		.section	.text._ZN3r2p12StaticQueue_D2Ev,"axG",%progbits,_ZN3r2p12StaticQueue_D5Ev,comdat
 1637              		.align	2
 1638              		.p2align 4,,15
 1639              		.weak	_ZN3r2p12StaticQueue_D2Ev
 1640              		.thumb
 1641              		.thumb_func
 1642              		.type	_ZN3r2p12StaticQueue_D2Ev, %function
 1643              	_ZN3r2p12StaticQueue_D2Ev:
 1644              	.LFB614:
 1645              		.file 15 "/home/ergae/r2p-sdk/core/Middleware/include/r2p/impl/StaticQueue_.hpp"
 1646              		.loc 15 10 0
 1647              		.cfi_startproc
 1648              		@ args = 0, pretend = 0, frame = 8
 1649              		@ frame_needed = 0, uses_anonymous_args = 0
 1650 0000 00B5     		push	{lr}
 1651              		.cfi_def_cfa_offset 4
 1652              		.cfi_offset 14, -4
 1653 0002 83B0     		sub	sp, sp, #12
 1654              		.cfi_def_cfa_offset 16
 1655 0004 0190     		str	r0, [sp, #4]
 1656              	.LBB25:
 1657              		.loc 15 10 0
 1658 0006 0198     		ldr	r0, [sp, #4]
 1659 0008 FFF7FEFF 		bl	_ZN3r2p10UncopyableD2Ev
 1660              	.LBE25:
 1661 000c 019B     		ldr	r3, [sp, #4]
 1662 000e 1846     		mov	r0, r3
 1663 0010 03B0     		add	sp, sp, #12
 1664              		.cfi_def_cfa_offset 4
 1665              		@ sp needed
 1666 0012 5DF804FB 		ldr	pc, [sp], #4
 1667              		.cfi_endproc
 1668              	.LFE614:
 1669              		.size	_ZN3r2p12StaticQueue_D2Ev, .-_ZN3r2p12StaticQueue_D2Ev
 1670              		.weak	_ZN3r2p12StaticQueue_D1Ev
 1671              		.thumb_set _ZN3r2p12StaticQueue_D1Ev,_ZN3r2p12StaticQueue_D2Ev
 1672 0016 00BFAFF3 		.section	.text._ZN3r2p11StaticQueueINS_14BaseSubscriberEED2Ev,"axG",%progbits,_ZN3r2p11StaticQueue
 1672      0080AFF3 
ARM GAS  /tmp/ccfWo18f.s 			page 31


 1672      0080
 1673              		.align	2
 1674              		.p2align 4,,15
 1675              		.weak	_ZN3r2p11StaticQueueINS_14BaseSubscriberEED2Ev
 1676              		.thumb
 1677              		.thumb_func
 1678              		.type	_ZN3r2p11StaticQueueINS_14BaseSubscriberEED2Ev, %function
 1679              	_ZN3r2p11StaticQueueINS_14BaseSubscriberEED2Ev:
 1680              	.LFB616:
 1681              		.file 16 "/home/ergae/r2p-sdk/core/Middleware/include/r2p/StaticQueue.hpp"
 1682              		.loc 16 10 0
 1683              		.cfi_startproc
 1684              		@ args = 0, pretend = 0, frame = 8
 1685              		@ frame_needed = 0, uses_anonymous_args = 0
 1686 0000 00B5     		push	{lr}
 1687              		.cfi_def_cfa_offset 4
 1688              		.cfi_offset 14, -4
 1689 0002 83B0     		sub	sp, sp, #12
 1690              		.cfi_def_cfa_offset 16
 1691 0004 0190     		str	r0, [sp, #4]
 1692              	.LBB26:
 1693              		.loc 16 10 0
 1694 0006 019B     		ldr	r3, [sp, #4]
 1695 0008 0433     		adds	r3, r3, #4
 1696 000a 1846     		mov	r0, r3
 1697 000c FFF7FEFF 		bl	_ZN3r2p12StaticQueue_D1Ev
 1698 0010 0198     		ldr	r0, [sp, #4]
 1699 0012 FFF7FEFF 		bl	_ZN3r2p10UncopyableD2Ev
 1700              	.LBE26:
 1701 0016 019B     		ldr	r3, [sp, #4]
 1702 0018 1846     		mov	r0, r3
 1703 001a 03B0     		add	sp, sp, #12
 1704              		.cfi_def_cfa_offset 4
 1705              		@ sp needed
 1706 001c 5DF804FB 		ldr	pc, [sp], #4
 1707              		.cfi_endproc
 1708              	.LFE616:
 1709              		.size	_ZN3r2p11StaticQueueINS_14BaseSubscriberEED2Ev, .-_ZN3r2p11StaticQueueINS_14BaseSubscriberEE
 1710              		.weak	_ZN3r2p11StaticQueueINS_14BaseSubscriberEED1Ev
 1711              		.thumb_set _ZN3r2p11StaticQueueINS_14BaseSubscriberEED1Ev,_ZN3r2p11StaticQueueINS_14BaseSubscriber
 1712              		.section	.text._ZN3r2p19BaseSubscriberQueueD2Ev,"axG",%progbits,_ZN3r2p19BaseSubscriberQueueD5Ev,c
 1713              		.align	2
 1714              		.p2align 4,,15
 1715              		.weak	_ZN3r2p19BaseSubscriberQueueD2Ev
 1716              		.thumb
 1717              		.thumb_func
 1718              		.type	_ZN3r2p19BaseSubscriberQueueD2Ev, %function
 1719              	_ZN3r2p19BaseSubscriberQueueD2Ev:
 1720              	.LFB618:
 1721              		.file 17 "/home/ergae/r2p-sdk/core/Middleware/include/r2p/BaseSubscriberQueue.hpp"
 1722              		.loc 17 11 0
 1723              		.cfi_startproc
 1724              		@ args = 0, pretend = 0, frame = 8
 1725              		@ frame_needed = 0, uses_anonymous_args = 0
 1726 0000 00B5     		push	{lr}
 1727              		.cfi_def_cfa_offset 4
 1728              		.cfi_offset 14, -4
ARM GAS  /tmp/ccfWo18f.s 			page 32


 1729 0002 83B0     		sub	sp, sp, #12
 1730              		.cfi_def_cfa_offset 16
 1731 0004 0190     		str	r0, [sp, #4]
 1732              	.LBB27:
 1733              		.loc 17 11 0
 1734 0006 019B     		ldr	r3, [sp, #4]
 1735 0008 1846     		mov	r0, r3
 1736 000a FFF7FEFF 		bl	_ZN3r2p11StaticQueueINS_14BaseSubscriberEED2Ev
 1737              	.LBE27:
 1738 000e 019B     		ldr	r3, [sp, #4]
 1739 0010 1846     		mov	r0, r3
 1740 0012 03B0     		add	sp, sp, #12
 1741              		.cfi_def_cfa_offset 4
 1742              		@ sp needed
 1743 0014 5DF804FB 		ldr	pc, [sp], #4
 1744              		.cfi_endproc
 1745              	.LFE618:
 1746              		.size	_ZN3r2p19BaseSubscriberQueueD2Ev, .-_ZN3r2p19BaseSubscriberQueueD2Ev
 1747              		.weak	_ZN3r2p19BaseSubscriberQueueD1Ev
 1748              		.thumb_set _ZN3r2p19BaseSubscriberQueueD1Ev,_ZN3r2p19BaseSubscriberQueueD2Ev
 1749 0018 AFF30080 		.section	.text._ZN3r2p7MgmtMsgC2Ev,"axG",%progbits,_ZN3r2p7MgmtMsgC5Ev,comdat
 1749      AFF30080 
 1750              		.align	2
 1751              		.p2align 4,,15
 1752              		.weak	_ZN3r2p7MgmtMsgC2Ev
 1753              		.thumb
 1754              		.thumb_func
 1755              		.type	_ZN3r2p7MgmtMsgC2Ev, %function
 1756              	_ZN3r2p7MgmtMsgC2Ev:
 1757              	.LFB621:
 1758              		.file 18 "/home/ergae/r2p-sdk/core/Middleware/include/r2p/MgmtMsg.hpp"
 1759              		.loc 18 12 0
 1760              		.cfi_startproc
 1761              		@ args = 0, pretend = 0, frame = 8
 1762              		@ frame_needed = 0, uses_anonymous_args = 0
 1763 0000 00B5     		push	{lr}
 1764              		.cfi_def_cfa_offset 4
 1765              		.cfi_offset 14, -4
 1766 0002 83B0     		sub	sp, sp, #12
 1767              		.cfi_def_cfa_offset 16
 1768 0004 0190     		str	r0, [sp, #4]
 1769              	.LBB28:
 1770              		.loc 18 12 0
 1771 0006 019B     		ldr	r3, [sp, #4]
 1772 0008 1846     		mov	r0, r3
 1773 000a FFF7FEFF 		bl	_ZN3r2p7MessageC2Ev
 1774              	.LBE28:
 1775 000e 019B     		ldr	r3, [sp, #4]
 1776 0010 1846     		mov	r0, r3
 1777 0012 03B0     		add	sp, sp, #12
 1778              		.cfi_def_cfa_offset 4
 1779              		@ sp needed
 1780 0014 5DF804FB 		ldr	pc, [sp], #4
 1781              		.cfi_endproc
 1782              	.LFE621:
 1783              		.size	_ZN3r2p7MgmtMsgC2Ev, .-_ZN3r2p7MgmtMsgC2Ev
 1784              		.weak	_ZN3r2p7MgmtMsgC1Ev
ARM GAS  /tmp/ccfWo18f.s 			page 33


 1785              		.thumb_set _ZN3r2p7MgmtMsgC1Ev,_ZN3r2p7MgmtMsgC2Ev
 1786 0018 AFF30080 		.section	.rodata
 1786      AFF30080 
 1787              		.align	2
 1788              	.LC2:
 1789 0014 72746361 		.ascii	"rtcan\000"
 1789      6E00
 1790              		.section	.text._ZN3r2p14RTCANTransportC2ER11RTCANDriver,"ax",%progbits
 1791              		.align	2
 1792              		.p2align 4,,15
 1793              		.global	_ZN3r2p14RTCANTransportC2ER11RTCANDriver
 1794              		.thumb
 1795              		.thumb_func
 1796              		.type	_ZN3r2p14RTCANTransportC2ER11RTCANDriver, %function
 1797              	_ZN3r2p14RTCANTransportC2ER11RTCANDriver:
 1798              	.LFB623:
 1799              		.loc 13 133 0
 1800              		.cfi_startproc
 1801              		@ args = 0, pretend = 0, frame = 8
 1802              		@ frame_needed = 0, uses_anonymous_args = 0
 1803 0000 30B5     		push	{r4, r5, lr}
 1804              		.cfi_def_cfa_offset 12
 1805              		.cfi_offset 4, -12
 1806              		.cfi_offset 5, -8
 1807              		.cfi_offset 14, -4
 1808 0002 83B0     		sub	sp, sp, #12
 1809              		.cfi_def_cfa_offset 24
 1810 0004 0190     		str	r0, [sp, #4]
 1811 0006 0091     		str	r1, [sp]
 1812              	.LBB29:
 1813              		.loc 13 134 0
 1814 0008 019B     		ldr	r3, [sp, #4]
 1815 000a 1846     		mov	r0, r3
 1816 000c 2049     		ldr	r1, .L109
 1817 000e FFF7FEFF 		bl	_ZN3r2p9TransportC2EPKc
 1818 0012 019B     		ldr	r3, [sp, #4]
 1819 0014 1F4A     		ldr	r2, .L109+4
 1820 0016 1A60     		str	r2, [r3]
 1821 0018 019B     		ldr	r3, [sp, #4]
 1822 001a 009A     		ldr	r2, [sp]
 1823 001c 1A64     		str	r2, [r3, #64]
 1824 001e 019B     		ldr	r3, [sp, #4]
 1825 0020 03F5B872 		add	r2, r3, #368
 1826 0024 019B     		ldr	r3, [sp, #4]
 1827 0026 4433     		adds	r3, r3, #68
 1828 0028 1046     		mov	r0, r2
 1829 002a 1946     		mov	r1, r3
 1830 002c 0A22     		movs	r2, #10
 1831 002e FFF7FEFF 		bl	_ZN3r2p10MemoryPoolI11rtcan_msg_tEC1EPS1_j
 1832 0032 019B     		ldr	r3, [sp, #4]
 1833 0034 03F5C073 		add	r3, r3, #384
 1834 0038 1846     		mov	r0, r3
 1835 003a FFF7FEFF 		bl	_ZN3r2p19BaseSubscriberQueueC1Ev
 1836 003e 019B     		ldr	r3, [sp, #4]
 1837 0040 03F5C673 		add	r3, r3, #396
 1838 0044 0324     		movs	r4, #3
 1839 0046 1D46     		mov	r5, r3
ARM GAS  /tmp/ccfWo18f.s 			page 34


 1840 0048 04E0     		b	.L103
 1841              	.L104:
 1842              		.loc 13 134 0 is_stmt 0 discriminator 3
 1843 004a 2846     		mov	r0, r5
 1844 004c FFF7FEFF 		bl	_ZN3r2p7MgmtMsgC1Ev
 1845 0050 2235     		adds	r5, r5, #34
 1846 0052 013C     		subs	r4, r4, #1
 1847              	.L103:
 1848              		.loc 13 134 0 discriminator 1
 1849 0054 B4F1FF3F 		cmp	r4, #-1
 1850 0058 F7D1     		bne	.L104
 1851              		.loc 13 134 0 discriminator 4
 1852 005a 019B     		ldr	r3, [sp, #4]
 1853 005c 03F50573 		add	r3, r3, #532
 1854 0060 0324     		movs	r4, #3
 1855 0062 1D46     		mov	r5, r3
 1856 0064 04E0     		b	.L105
 1857              	.L106:
 1858              		.loc 13 134 0 discriminator 7
 1859 0066 2846     		mov	r0, r5
 1860 0068 FFF7FEFF 		bl	_ZN3r2p22TimestampedMsgPtrQueue5EntryC1Ev
 1861 006c 0835     		adds	r5, r5, #8
 1862 006e 013C     		subs	r4, r4, #1
 1863              	.L105:
 1864              		.loc 13 134 0 discriminator 5
 1865 0070 B4F1FF3F 		cmp	r4, #-1
 1866 0074 F7D1     		bne	.L106
 1867              		.loc 13 134 0 discriminator 8
 1868 0076 019B     		ldr	r3, [sp, #4]
 1869 0078 0022     		movs	r2, #0
 1870 007a C3F83422 		str	r2, [r3, #564]
 1871 007e 019B     		ldr	r3, [sp, #4]
 1872 0080 0022     		movs	r2, #0
 1873 0082 C3F83822 		str	r2, [r3, #568]
 1874              	.LBE29:
 1875              		.loc 13 135 0 is_stmt 1 discriminator 8
 1876 0086 019B     		ldr	r3, [sp, #4]
 1877 0088 1846     		mov	r0, r3
 1878 008a 03B0     		add	sp, sp, #12
 1879              		.cfi_def_cfa_offset 12
 1880              		@ sp needed
 1881 008c 30BD     		pop	{r4, r5, pc}
 1882              	.L110:
 1883 008e 00BF     		.align	2
 1884              	.L109:
 1885 0090 14000000 		.word	.LC2
 1886 0094 08000000 		.word	_ZTVN3r2p14RTCANTransportE+8
 1887              		.cfi_endproc
 1888              	.LFE623:
 1889              		.size	_ZN3r2p14RTCANTransportC2ER11RTCANDriver, .-_ZN3r2p14RTCANTransportC2ER11RTCANDriver
 1890              		.global	_ZN3r2p14RTCANTransportC1ER11RTCANDriver
 1891              		.thumb_set _ZN3r2p14RTCANTransportC1ER11RTCANDriver,_ZN3r2p14RTCANTransportC2ER11RTCANDriver
 1892 0098 AFF30080 		.section	.text._ZN3r2p14RTCANTransportD2Ev,"ax",%progbits
 1892      AFF30080 
 1893              		.align	2
 1894              		.p2align 4,,15
 1895              		.global	_ZN3r2p14RTCANTransportD2Ev
ARM GAS  /tmp/ccfWo18f.s 			page 35


 1896              		.thumb
 1897              		.thumb_func
 1898              		.type	_ZN3r2p14RTCANTransportD2Ev, %function
 1899              	_ZN3r2p14RTCANTransportD2Ev:
 1900              	.LFB626:
 1901              		.loc 13 137 0
 1902              		.cfi_startproc
 1903              		@ args = 0, pretend = 0, frame = 8
 1904              		@ frame_needed = 0, uses_anonymous_args = 0
 1905 0000 00B5     		push	{lr}
 1906              		.cfi_def_cfa_offset 4
 1907              		.cfi_offset 14, -4
 1908 0002 83B0     		sub	sp, sp, #12
 1909              		.cfi_def_cfa_offset 16
 1910 0004 0190     		str	r0, [sp, #4]
 1911              	.LBB30:
 1912              		.loc 13 137 0
 1913 0006 019B     		ldr	r3, [sp, #4]
 1914 0008 0E4A     		ldr	r2, .L115
 1915 000a 1A60     		str	r2, [r3]
 1916 000c 019B     		ldr	r3, [sp, #4]
 1917 000e 03F5C073 		add	r3, r3, #384
 1918 0012 1846     		mov	r0, r3
 1919 0014 FFF7FEFF 		bl	_ZN3r2p19BaseSubscriberQueueD1Ev
 1920 0018 019B     		ldr	r3, [sp, #4]
 1921 001a 03F5B873 		add	r3, r3, #368
 1922 001e 1846     		mov	r0, r3
 1923 0020 FFF7FEFF 		bl	_ZN3r2p10MemoryPoolI11rtcan_msg_tED1Ev
 1924 0024 019B     		ldr	r3, [sp, #4]
 1925 0026 1846     		mov	r0, r3
 1926 0028 FFF7FEFF 		bl	_ZN3r2p9TransportD2Ev
 1927              	.LBE30:
 1928              		.loc 13 138 0
 1929 002c 0023     		movs	r3, #0
 1930 002e 002B     		cmp	r3, #0
 1931 0030 02D0     		beq	.L113
 1932              		.loc 13 138 0 is_stmt 0 discriminator 2
 1933 0032 0198     		ldr	r0, [sp, #4]
 1934 0034 FFF7FEFF 		bl	_ZdlPv
 1935              	.L113:
 1936              		.loc 13 138 0 discriminator 4
 1937 0038 019B     		ldr	r3, [sp, #4]
 1938 003a 1846     		mov	r0, r3
 1939 003c 03B0     		add	sp, sp, #12
 1940              		.cfi_def_cfa_offset 4
 1941              		@ sp needed
 1942 003e 5DF804FB 		ldr	pc, [sp], #4
 1943              	.L116:
 1944 0042 00BF     		.align	2
 1945              	.L115:
 1946 0044 08000000 		.word	_ZTVN3r2p14RTCANTransportE+8
 1947              		.cfi_endproc
 1948              	.LFE626:
 1949              		.size	_ZN3r2p14RTCANTransportD2Ev, .-_ZN3r2p14RTCANTransportD2Ev
 1950              		.global	_ZN3r2p14RTCANTransportD1Ev
 1951              		.thumb_set _ZN3r2p14RTCANTransportD1Ev,_ZN3r2p14RTCANTransportD2Ev
 1952 0048 AFF30080 		.section	.text._ZN3r2p14RTCANTransportD0Ev,"ax",%progbits
ARM GAS  /tmp/ccfWo18f.s 			page 36


 1952      AFF30080 
 1953              		.align	2
 1954              		.p2align 4,,15
 1955              		.global	_ZN3r2p14RTCANTransportD0Ev
 1956              		.thumb
 1957              		.thumb_func
 1958              		.type	_ZN3r2p14RTCANTransportD0Ev, %function
 1959              	_ZN3r2p14RTCANTransportD0Ev:
 1960              	.LFB628:
 1961              		.loc 13 137 0 is_stmt 1
 1962              		.cfi_startproc
 1963              		@ args = 0, pretend = 0, frame = 8
 1964              		@ frame_needed = 0, uses_anonymous_args = 0
 1965 0000 00B5     		push	{lr}
 1966              		.cfi_def_cfa_offset 4
 1967              		.cfi_offset 14, -4
 1968 0002 83B0     		sub	sp, sp, #12
 1969              		.cfi_def_cfa_offset 16
 1970 0004 0190     		str	r0, [sp, #4]
 1971              		.loc 13 138 0
 1972 0006 0198     		ldr	r0, [sp, #4]
 1973 0008 FFF7FEFF 		bl	_ZN3r2p14RTCANTransportD2Ev
 1974 000c 0198     		ldr	r0, [sp, #4]
 1975 000e FFF7FEFF 		bl	_ZdlPv
 1976 0012 019B     		ldr	r3, [sp, #4]
 1977 0014 1846     		mov	r0, r3
 1978 0016 03B0     		add	sp, sp, #12
 1979              		.cfi_def_cfa_offset 4
 1980              		@ sp needed
 1981 0018 5DF804FB 		ldr	pc, [sp], #4
 1982              		.cfi_endproc
 1983              	.LFE628:
 1984              		.size	_ZN3r2p14RTCANTransportD0Ev, .-_ZN3r2p14RTCANTransportD0Ev
 1985 001c AFF30080 		.section	.rodata
 1986 001a 0000     		.align	2
 1987              	.LC3:
 1988 001c 74657374 		.ascii	"test\000"
 1988      00
 1989 0021 000000   		.section	.text._ZNK3r2p14RTCANTransport8topic_idERKNS_5TopicE,"ax",%progbits
 1990              		.align	2
 1991              		.p2align 4,,15
 1992              		.global	_ZNK3r2p14RTCANTransport8topic_idERKNS_5TopicE
 1993              		.thumb
 1994              		.thumb_func
 1995              		.type	_ZNK3r2p14RTCANTransport8topic_idERKNS_5TopicE, %function
 1996              	_ZNK3r2p14RTCANTransport8topic_idERKNS_5TopicE:
 1997              	.LFB629:
 1998              		.loc 13 141 0
 1999              		.cfi_startproc
 2000              		@ args = 0, pretend = 0, frame = 24
 2001              		@ frame_needed = 0, uses_anonymous_args = 0
 2002 0000 10B5     		push	{r4, lr}
 2003              		.cfi_def_cfa_offset 8
 2004              		.cfi_offset 4, -8
 2005              		.cfi_offset 14, -4
 2006 0002 86B0     		sub	sp, sp, #24
 2007              		.cfi_def_cfa_offset 32
ARM GAS  /tmp/ccfWo18f.s 			page 37


 2008 0004 0190     		str	r0, [sp, #4]
 2009 0006 0091     		str	r1, [sp]
 2010              	.LBB31:
 2011              		.loc 13 142 0
 2012 0008 2348     		ldr	r0, .L125
 2013 000a FFF7FEFF 		bl	_ZNK3r2p10Middleware10get_topicsEv
 2014 000e 0590     		str	r0, [sp, #20]
 2015              		.loc 13 143 0
 2016 0010 2148     		ldr	r0, .L125
 2017 0012 FFF7FEFF 		bl	_ZN3r2p10Middleware14get_mgmt_topicEv
 2018 0016 0490     		str	r0, [sp, #16]
 2019              		.loc 13 144 0
 2020 0018 0598     		ldr	r0, [sp, #20]
 2021 001a 0099     		ldr	r1, [sp]
 2022 001c FFF7FEFF 		bl	_ZNK3r2p10StaticListINS_5TopicEE8index_ofERKS1_
 2023 0020 0390     		str	r0, [sp, #12]
 2024              		.loc 13 148 0
 2025 0022 009A     		ldr	r2, [sp]
 2026 0024 049B     		ldr	r3, [sp, #16]
 2027 0026 9A42     		cmp	r2, r3
 2028 0028 04D1     		bne	.L121
 2029              		.loc 13 148 0 is_stmt 0 discriminator 1
 2030 002a FFF7FEFF 		bl	stm32_id8
 2031 002e 0346     		mov	r3, r0
 2032 0030 9BB2     		uxth	r3, r3
 2033 0032 2EE0     		b	.L122
 2034              	.L121:
 2035              		.loc 13 151 0 is_stmt 1
 2036 0034 0098     		ldr	r0, [sp]
 2037 0036 1949     		ldr	r1, .L125+4
 2038 0038 FFF7FEFF 		bl	_ZN3r2p5Topic8has_nameERKS0_PKc
 2039 003c 0346     		mov	r3, r0
 2040 003e 002B     		cmp	r3, #0
 2041 0040 09D0     		beq	.L123
 2042              		.loc 13 151 0 is_stmt 0 discriminator 1
 2043 0042 FFF7FEFF 		bl	stm32_id8
 2044 0046 0346     		mov	r3, r0
 2045 0048 9BB2     		uxth	r3, r3
 2046 004a 6FEAC353 		mvn	r3, r3, lsl #23
 2047 004e 6FEAD353 		mvn	r3, r3, lsr #23
 2048 0052 9BB2     		uxth	r3, r3
 2049 0054 1DE0     		b	.L122
 2050              	.L123:
 2051              		.loc 13 153 0 is_stmt 1
 2052 0056 039B     		ldr	r3, [sp, #12]
 2053 0058 002B     		cmp	r3, #0
 2054 005a 02DA     		bge	.L124
 2055              		.loc 13 153 0 is_stmt 0 discriminator 1
 2056 005c 4FF47F43 		mov	r3, #65280
 2057 0060 17E0     		b	.L122
 2058              	.L124:
 2059              		.loc 13 155 0 is_stmt 1
 2060 0062 039B     		ldr	r3, [sp, #12]
 2061 0064 1B03     		lsls	r3, r3, #12
 2062 0066 9CB2     		uxth	r4, r3
 2063 0068 FFF7FEFF 		bl	stm32_id8
 2064 006c 0346     		mov	r3, r0
ARM GAS  /tmp/ccfWo18f.s 			page 38


 2065 006e 03F00F03 		and	r3, r3, #15
 2066 0072 1B02     		lsls	r3, r3, #8
 2067 0074 9BB2     		uxth	r3, r3
 2068 0076 2246     		mov	r2, r4	@ movhi
 2069 0078 1343     		orrs	r3, r3, r2
 2070 007a 9CB2     		uxth	r4, r3
 2071 007c FFF7FEFF 		bl	stm32_id8
 2072 0080 0346     		mov	r3, r0
 2073 0082 9BB2     		uxth	r3, r3
 2074 0084 2246     		mov	r2, r4	@ movhi
 2075 0086 1343     		orrs	r3, r3, r2
 2076 0088 9BB2     		uxth	r3, r3
 2077 008a ADF80A30 		strh	r3, [sp, #10]	@ movhi
 2078              		.loc 13 156 0
 2079 008e BDF80A30 		ldrh	r3, [sp, #10]
 2080              	.L122:
 2081              	.LBE31:
 2082              		.loc 13 157 0
 2083 0092 1846     		mov	r0, r3
 2084 0094 06B0     		add	sp, sp, #24
 2085              		.cfi_def_cfa_offset 8
 2086              		@ sp needed
 2087 0096 10BD     		pop	{r4, pc}
 2088              	.L126:
 2089              		.align	2
 2090              	.L125:
 2091 0098 00000000 		.word	_ZN3r2p10Middleware8instanceE
 2092 009c 1C000000 		.word	.LC3
 2093              		.cfi_endproc
 2094              	.LFE629:
 2095              		.size	_ZNK3r2p14RTCANTransport8topic_idERKNS_5TopicE, .-_ZNK3r2p14RTCANTransport8topic_idERKNS_5To
 2096              		.section	.text._ZN3r2p10MemoryPoolI11rtcan_msg_tE12alloc_unsafeEv,"axG",%progbits,_ZN3r2p10MemoryP
 2097              		.align	2
 2098              		.p2align 4,,15
 2099              		.weak	_ZN3r2p10MemoryPoolI11rtcan_msg_tE12alloc_unsafeEv
 2100              		.thumb
 2101              		.thumb_func
 2102              		.type	_ZN3r2p10MemoryPoolI11rtcan_msg_tE12alloc_unsafeEv, %function
 2103              	_ZN3r2p10MemoryPoolI11rtcan_msg_tE12alloc_unsafeEv:
 2104              	.LFB651:
 2105              		.loc 14 58 0
 2106              		.cfi_startproc
 2107              		@ args = 0, pretend = 0, frame = 8
 2108              		@ frame_needed = 0, uses_anonymous_args = 0
 2109 0000 00B5     		push	{lr}
 2110              		.cfi_def_cfa_offset 4
 2111              		.cfi_offset 14, -4
 2112 0002 83B0     		sub	sp, sp, #12
 2113              		.cfi_def_cfa_offset 16
 2114 0004 0190     		str	r0, [sp, #4]
 2115              		.loc 14 60 0
 2116 0006 019B     		ldr	r3, [sp, #4]
 2117 0008 0433     		adds	r3, r3, #4
 2118 000a 1846     		mov	r0, r3
 2119 000c FFF7FEFF 		bl	_ZN3r2p11MemoryPool_12alloc_unsafeEv
 2120 0010 0346     		mov	r3, r0
 2121              		.loc 14 61 0
ARM GAS  /tmp/ccfWo18f.s 			page 39


 2122 0012 1846     		mov	r0, r3
 2123 0014 03B0     		add	sp, sp, #12
 2124              		.cfi_def_cfa_offset 4
 2125              		@ sp needed
 2126 0016 5DF804FB 		ldr	pc, [sp], #4
 2127              		.cfi_endproc
 2128              	.LFE651:
 2129              		.size	_ZN3r2p10MemoryPoolI11rtcan_msg_tE12alloc_unsafeEv, .-_ZN3r2p10MemoryPoolI11rtcan_msg_tE12al
 2130 001a 00BFAFF3 		.section	.text._ZN3r2p10MemoryPoolI11rtcan_msg_tE11free_unsafeEPS1_,"axG",%progbits,_ZN3r2p10Memor
 2130      0080
 2131              		.align	2
 2132              		.p2align 4,,15
 2133              		.weak	_ZN3r2p10MemoryPoolI11rtcan_msg_tE11free_unsafeEPS1_
 2134              		.thumb
 2135              		.thumb_func
 2136              		.type	_ZN3r2p10MemoryPoolI11rtcan_msg_tE11free_unsafeEPS1_, %function
 2137              	_ZN3r2p10MemoryPoolI11rtcan_msg_tE11free_unsafeEPS1_:
 2138              	.LFB652:
 2139              		.loc 14 66 0
 2140              		.cfi_startproc
 2141              		@ args = 0, pretend = 0, frame = 8
 2142              		@ frame_needed = 0, uses_anonymous_args = 0
 2143 0000 00B5     		push	{lr}
 2144              		.cfi_def_cfa_offset 4
 2145              		.cfi_offset 14, -4
 2146 0002 83B0     		sub	sp, sp, #12
 2147              		.cfi_def_cfa_offset 16
 2148 0004 0190     		str	r0, [sp, #4]
 2149 0006 0091     		str	r1, [sp]
 2150              		.loc 14 68 0
 2151 0008 019B     		ldr	r3, [sp, #4]
 2152 000a 0433     		adds	r3, r3, #4
 2153 000c 1846     		mov	r0, r3
 2154 000e 0099     		ldr	r1, [sp]
 2155 0010 FFF7FEFF 		bl	_ZN3r2p11MemoryPool_11free_unsafeEPv
 2156              		.loc 14 69 0
 2157 0014 03B0     		add	sp, sp, #12
 2158              		.cfi_def_cfa_offset 4
 2159              		@ sp needed
 2160 0016 5DF804FB 		ldr	pc, [sp], #4
 2161              		.cfi_endproc
 2162              	.LFE652:
 2163              		.size	_ZN3r2p10MemoryPoolI11rtcan_msg_tE11free_unsafeEPS1_, .-_ZN3r2p10MemoryPoolI11rtcan_msg_tE11
 2164 001a 00BFAFF3 		.section	.text._ZN3r2p5Topic5allocINS_7MessageEEEbRPT_,"axG",%progbits,_ZN3r2p5Topic5allocINS_7Mes
 2164      0080
 2165              		.align	2
 2166              		.p2align 4,,15
 2167              		.weak	_ZN3r2p5Topic5allocINS_7MessageEEEbRPT_
 2168              		.thumb
 2169              		.thumb_func
 2170              		.type	_ZN3r2p5Topic5allocINS_7MessageEEEbRPT_, %function
 2171              	_ZN3r2p5Topic5allocINS_7MessageEEEbRPT_:
 2172              	.LFB653:
 2173              		.loc 10 305 0
 2174              		.cfi_startproc
 2175              		@ args = 0, pretend = 0, frame = 8
 2176              		@ frame_needed = 0, uses_anonymous_args = 0
ARM GAS  /tmp/ccfWo18f.s 			page 40


 2177 0000 00B5     		push	{lr}
 2178              		.cfi_def_cfa_offset 4
 2179              		.cfi_offset 14, -4
 2180 0002 83B0     		sub	sp, sp, #12
 2181              		.cfi_def_cfa_offset 16
 2182 0004 0190     		str	r0, [sp, #4]
 2183 0006 0091     		str	r1, [sp]
 2184              		.loc 10 308 0
 2185 0008 0198     		ldr	r0, [sp, #4]
 2186 000a FFF7FEFF 		bl	_ZN3r2p5Topic5allocEv
 2187 000e 0246     		mov	r2, r0
 2188 0010 009B     		ldr	r3, [sp]
 2189 0012 1A60     		str	r2, [r3]
 2190 0014 009B     		ldr	r3, [sp]
 2191 0016 1B68     		ldr	r3, [r3]
 2192 0018 002B     		cmp	r3, #0
 2193 001a 14BF     		ite	ne
 2194 001c 0123     		movne	r3, #1
 2195 001e 0023     		moveq	r3, #0
 2196 0020 DBB2     		uxtb	r3, r3
 2197              		.loc 10 309 0
 2198 0022 1846     		mov	r0, r3
 2199 0024 03B0     		add	sp, sp, #12
 2200              		.cfi_def_cfa_offset 4
 2201              		@ sp needed
 2202 0026 5DF804FB 		ldr	pc, [sp], #4
 2203              		.cfi_endproc
 2204              	.LFE653:
 2205              		.size	_ZN3r2p5Topic5allocINS_7MessageEEEbRPT_, .-_ZN3r2p5Topic5allocINS_7MessageEEEbRPT_
 2206 002a 00BFAFF3 		.section	.text._ZN3r2p10MemoryPoolI11rtcan_msg_tEC2EPS1_j,"axG",%progbits,_ZN3r2p10MemoryPoolI11rt
 2206      0080
 2207              		.align	2
 2208              		.p2align 4,,15
 2209              		.weak	_ZN3r2p10MemoryPoolI11rtcan_msg_tEC2EPS1_j
 2210              		.thumb
 2211              		.thumb_func
 2212              		.type	_ZN3r2p10MemoryPoolI11rtcan_msg_tEC2EPS1_j, %function
 2213              	_ZN3r2p10MemoryPoolI11rtcan_msg_tEC2EPS1_j:
 2214              	.LFB655:
 2215              		.loc 14 108 0
 2216              		.cfi_startproc
 2217              		@ args = 0, pretend = 0, frame = 16
 2218              		@ frame_needed = 0, uses_anonymous_args = 0
 2219 0000 00B5     		push	{lr}
 2220              		.cfi_def_cfa_offset 4
 2221              		.cfi_offset 14, -4
 2222 0002 85B0     		sub	sp, sp, #20
 2223              		.cfi_def_cfa_offset 24
 2224 0004 0390     		str	r0, [sp, #12]
 2225 0006 0291     		str	r1, [sp, #8]
 2226 0008 0192     		str	r2, [sp, #4]
 2227              	.LBB32:
 2228              		.loc 14 110 0
 2229 000a 0398     		ldr	r0, [sp, #12]
 2230 000c FFF7FEFF 		bl	_ZN3r2p10UncopyableC2Ev
 2231 0010 039B     		ldr	r3, [sp, #12]
 2232 0012 0433     		adds	r3, r3, #4
ARM GAS  /tmp/ccfWo18f.s 			page 41


 2233 0014 1846     		mov	r0, r3
 2234 0016 0299     		ldr	r1, [sp, #8]
 2235 0018 019A     		ldr	r2, [sp, #4]
 2236 001a 1E23     		movs	r3, #30
 2237 001c FFF7FEFF 		bl	_ZN3r2p11MemoryPool_C1EPvjj
 2238              	.LBE32:
 2239              		.loc 14 113 0
 2240 0020 039B     		ldr	r3, [sp, #12]
 2241 0022 1846     		mov	r0, r3
 2242 0024 05B0     		add	sp, sp, #20
 2243              		.cfi_def_cfa_offset 4
 2244              		@ sp needed
 2245 0026 5DF804FB 		ldr	pc, [sp], #4
 2246              		.cfi_endproc
 2247              	.LFE655:
 2248              		.size	_ZN3r2p10MemoryPoolI11rtcan_msg_tEC2EPS1_j, .-_ZN3r2p10MemoryPoolI11rtcan_msg_tEC2EPS1_j
 2249              		.weak	_ZN3r2p10MemoryPoolI11rtcan_msg_tEC1EPS1_j
 2250              		.thumb_set _ZN3r2p10MemoryPoolI11rtcan_msg_tEC1EPS1_j,_ZN3r2p10MemoryPoolI11rtcan_msg_tEC2EPS1_j
 2251 002a 00BFAFF3 		.section	.text._ZNK3r2p10StaticListINS_5TopicEE8index_ofERKS1_,"axG",%progbits,_ZNK3r2p10StaticLis
 2251      0080
 2252              		.align	2
 2253              		.p2align 4,,15
 2254              		.weak	_ZNK3r2p10StaticListINS_5TopicEE8index_ofERKS1_
 2255              		.thumb
 2256              		.thumb_func
 2257              		.type	_ZNK3r2p10StaticListINS_5TopicEE8index_ofERKS1_, %function
 2258              	_ZNK3r2p10StaticListINS_5TopicEE8index_ofERKS1_:
 2259              	.LFB657:
 2260              		.file 19 "/home/ergae/r2p-sdk/core/Middleware/include/r2p/StaticList.hpp"
 2261              		.loc 19 650 0
 2262              		.cfi_startproc
 2263              		@ args = 0, pretend = 0, frame = 16
 2264              		@ frame_needed = 0, uses_anonymous_args = 0
 2265 0000 00B5     		push	{lr}
 2266              		.cfi_def_cfa_offset 4
 2267              		.cfi_offset 14, -4
 2268 0002 85B0     		sub	sp, sp, #20
 2269              		.cfi_def_cfa_offset 24
 2270 0004 0190     		str	r0, [sp, #4]
 2271 0006 0091     		str	r1, [sp]
 2272              	.LBB33:
 2273              		.loc 19 652 0
 2274 0008 0023     		movs	r3, #0
 2275 000a 0393     		str	r3, [sp, #12]
 2276              		.loc 19 653 0
 2277 000c FFF7FEFF 		bl	_ZN3r2p7SysLock7acquireEv
 2278              	.LBB34:
 2279              		.loc 19 654 0
 2280 0010 019B     		ldr	r3, [sp, #4]
 2281 0012 1B68     		ldr	r3, [r3]
 2282 0014 0293     		str	r3, [sp, #8]
 2283 0016 10E0     		b	.L136
 2284              	.L139:
 2285              		.loc 19 655 0
 2286 0018 FFF7FEFF 		bl	_ZN3r2p7SysLock7releaseEv
 2287              		.loc 19 656 0
 2288 001c 029B     		ldr	r3, [sp, #8]
ARM GAS  /tmp/ccfWo18f.s 			page 42


 2289 001e 5A68     		ldr	r2, [r3, #4]
 2290 0020 009B     		ldr	r3, [sp]
 2291 0022 9A42     		cmp	r2, r3
 2292 0024 01D1     		bne	.L137
 2293              		.loc 19 657 0
 2294 0026 039B     		ldr	r3, [sp, #12]
 2295 0028 0EE0     		b	.L138
 2296              	.L137:
 2297              		.loc 19 659 0 discriminator 2
 2298 002a FFF7FEFF 		bl	_ZN3r2p7SysLock7acquireEv
 2299              		.loc 19 654 0 discriminator 2
 2300 002e 039B     		ldr	r3, [sp, #12]
 2301 0030 0133     		adds	r3, r3, #1
 2302 0032 0393     		str	r3, [sp, #12]
 2303 0034 029B     		ldr	r3, [sp, #8]
 2304 0036 1B68     		ldr	r3, [r3]
 2305 0038 0293     		str	r3, [sp, #8]
 2306              	.L136:
 2307              		.loc 19 654 0 is_stmt 0 discriminator 1
 2308 003a 029B     		ldr	r3, [sp, #8]
 2309 003c 002B     		cmp	r3, #0
 2310 003e EBD1     		bne	.L139
 2311              	.LBE34:
 2312              		.loc 19 661 0 is_stmt 1
 2313 0040 FFF7FEFF 		bl	_ZN3r2p7SysLock7releaseEv
 2314              		.loc 19 662 0
 2315 0044 4FF0FF33 		mov	r3, #-1
 2316              	.L138:
 2317              	.LBE33:
 2318              		.loc 19 663 0
 2319 0048 1846     		mov	r0, r3
 2320 004a 05B0     		add	sp, sp, #20
 2321              		.cfi_def_cfa_offset 4
 2322              		@ sp needed
 2323 004c 5DF804FB 		ldr	pc, [sp], #4
 2324              		.cfi_endproc
 2325              	.LFE657:
 2326              		.size	_ZNK3r2p10StaticListINS_5TopicEE8index_ofERKS1_, .-_ZNK3r2p10StaticListINS_5TopicEE8index_of
 2327              		.global	_ZTVN3r2p14RTCANTransportE
 2328              		.section	.rodata._ZTVN3r2p14RTCANTransportE,"a",%progbits
 2329              		.align	3
 2330              		.type	_ZTVN3r2p14RTCANTransportE, %object
 2331              		.size	_ZTVN3r2p14RTCANTransportE, 28
 2332              	_ZTVN3r2p14RTCANTransportE:
 2333 0000 00000000 		.word	0
 2334 0004 00000000 		.word	0
 2335 0008 00000000 		.word	_ZN3r2p14RTCANTransport15fill_raw_paramsERKNS_5TopicEPh
 2336 000c 00000000 		.word	_ZNK3r2p14RTCANTransport16create_publisherERNS_5TopicEPKh
 2337 0010 00000000 		.word	_ZNK3r2p14RTCANTransport17create_subscriberERNS_5TopicEPNS_22TimestampedMsgPtrQueue5EntryEj
 2338 0014 00000000 		.word	_ZN3r2p14RTCANTransportD1Ev
 2339 0018 00000000 		.word	_ZN3r2p14RTCANTransportD0Ev
 2340 001c 00000000 		.text
 2341              	.Letext0:
 2342              		.file 20 "/home/ergae/r2p-sdk/tools/gcc-arm-none-eabi-4_9-2014q4/lib/gcc/arm-none-eabi/4.9.3/inclu
 2343              		.file 21 "/home/ergae/r2p-sdk/tools/gcc-arm-none-eabi-4_9-2014q4/arm-none-eabi/include/machine/_de
 2344              		.file 22 "/home/ergae/r2p-sdk/tools/gcc-arm-none-eabi-4_9-2014q4/arm-none-eabi/include/c++/4.9.3/c
 2345              		.file 23 "/home/ergae/r2p-sdk/tools/gcc-arm-none-eabi-4_9-2014q4/arm-none-eabi/include/string.h"
ARM GAS  /tmp/ccfWo18f.s 			page 43


 2346              		.file 24 "<built-in>"
 2347              		.file 25 "/home/ergae/r2p-sdk/core/Middleware/include/r2p/ArrayQueue.hpp"
 2348              		.file 26 "/home/ergae/r2p-sdk/core/Middleware/port/chibios/include/r2p/impl/Mutex_.hpp"
 2349              		.file 27 "/home/ergae/r2p-sdk/core/Middleware/include/r2p/Mutex.hpp"
 2350              		.file 28 "/home/ergae/r2p-sdk/core/Middleware/port/chibios/include/r2p/impl/Thread_.hpp"
 2351              		.file 29 "/home/ergae/r2p-sdk/core/Middleware/include/r2p/Thread.hpp"
 2352              		.file 30 "/home/ergae/r2p-sdk/core/Middleware/port/chibios/include/r2p/impl/SpinEvent_.hpp"
 2353              		.file 31 "/home/ergae/r2p-sdk/core/Middleware/include/r2p/SpinEvent.hpp"
 2354              		.file 32 "/home/ergae/r2p-sdk/core/Middleware/include/r2p/Node.hpp"
 2355              		.file 33 "/home/ergae/r2p-sdk/core/Middleware/include/r2p/transport/RTCANTransport.hpp"
 2356              		.file 34 "/home/ergae/r2p-sdk/core/Middleware/include/r2p/ReMutex.hpp"
 2357              		.file 35 "/home/ergae/r2p-sdk/core/Middleware/include/r2p/common.hpp"
 2358              		.file 36 "/home/ergae/r2p-sdk/tools/gcc-arm-none-eabi-4_9-2014q4/arm-none-eabi/include/stdint.h"
 2359              		.file 37 "/home/ergae/r2p-sdk/core/ChibiOS/os/ports/GCC/ARMCMx/chtypes.h"
 2360              		.file 38 "/home/ergae/r2p-sdk/core/ChibiOS/os/kernel/include/chlists.h"
 2361              		.file 39 "/home/ergae/r2p-sdk/core/ChibiOS/os/kernel/include/chthreads.h"
 2362              		.file 40 "/home/ergae/r2p-sdk/core/ChibiOS/os/ports/GCC/ARMCMx/chcore_v7m.h"
 2363              		.file 41 "/home/ergae/r2p-sdk/core/ChibiOS/os/kernel/include/chschd.h"
 2364              		.file 42 "/home/ergae/r2p-sdk/core/ChibiOS/os/kernel/include/chmtx.h"
 2365              		.file 43 "/home/ergae/r2p-sdk/core/ChibiOS/os/kernel/include/chmemcore.h"
 2366              		.file 44 "/home/ergae/r2p-sdk/core/ChibiOS/os/kernel/include/chmempools.h"
 2367              		.file 45 "/home/ergae/r2p-sdk/core/ChibiOS/os/hal/platforms/STM32F30x/stm32f30x.h"
 2368              		.file 46 "/home/ergae/r2p-sdk/core/RTCAN/include/rtcan.h"
 2369              		.file 47 "/home/ergae/r2p-sdk/core/RTCAN/include/msgqueue.h"
 2370              		.file 48 "/home/ergae/r2p-sdk/core/RTCAN/include/hrt.h"
 2371              		.file 49 "/home/ergae/r2p-sdk/core/ChibiOS/os/ports/common/ARMCMx/CMSIS/include/core_cm4.h"
 2372              		.file 50 "/home/ergae/r2p-sdk/core/RTCAN/platforms/STM32/rtcan_lld_can.h"