ARM GAS  /tmp/ccQjMht4.s 			page 1


   1              		.syntax unified
   2              		.cpu cortex-m4
   3              		.eabi_attribute 27, 3
   4              		.eabi_attribute 28, 1
   5              		.fpu fpv4-sp-d16
   6              		.eabi_attribute 20, 1
   7              		.eabi_attribute 21, 1
   8              		.eabi_attribute 23, 3
   9              		.eabi_attribute 24, 1
  10              		.eabi_attribute 25, 1
  11              		.eabi_attribute 26, 1
  12              		.eabi_attribute 30, 6
  13              		.eabi_attribute 34, 1
  14              		.eabi_attribute 18, 4
  15              		.thumb
  16              		.file	"serial_usb.c"
  17              		.text
  18              	.Ltext0:
  19              		.cfi_sections	.debug_frame
  20              		.section	.data.linecoding,"aw",%progbits
  21              		.align	2
  22              		.type	linecoding, %object
  23              		.size	linecoding, 7
  24              	linecoding:
  25 0000 00       		.byte	0
  26 0001 96       		.byte	-106
  27 0002 00       		.byte	0
  28 0003 00       		.byte	0
  29 0004 00       		.byte	0
  30 0005 00       		.byte	0
  31 0006 08       		.byte	8
  32 0007 00       		.section	.text.write,"ax",%progbits
  33              		.align	2
  34              		.p2align 4,,15
  35              		.thumb
  36              		.thumb_func
  37              		.type	write, %function
  38              	write:
  39              	.LFB118:
  40              		.file 1 "/home/ergae/r2p-sdk/core/ChibiOS/os/hal/src/serial_usb.c"
  41              		.loc 1 69 0
  42              		.cfi_startproc
  43              		@ args = 0, pretend = 0, frame = 16
  44              		@ frame_needed = 0, uses_anonymous_args = 0
  45 0000 00B5     		push	{lr}
  46              		.cfi_def_cfa_offset 4
  47              		.cfi_offset 14, -4
  48 0002 85B0     		sub	sp, sp, #20
  49              		.cfi_def_cfa_offset 24
  50 0004 0390     		str	r0, [sp, #12]
  51 0006 0291     		str	r1, [sp, #8]
  52 0008 0192     		str	r2, [sp, #4]
  53              		.loc 1 71 0
  54 000a 039B     		ldr	r3, [sp, #12]
  55 000c 3033     		adds	r3, r3, #48
  56 000e 1846     		mov	r0, r3
  57 0010 0299     		ldr	r1, [sp, #8]
ARM GAS  /tmp/ccQjMht4.s 			page 2


  58 0012 019A     		ldr	r2, [sp, #4]
  59 0014 4FF0FF33 		mov	r3, #-1
  60 0018 FFF7FEFF 		bl	chOQWriteTimeout
  61 001c 0346     		mov	r3, r0
  62              		.loc 1 73 0
  63 001e 1846     		mov	r0, r3
  64 0020 05B0     		add	sp, sp, #20
  65              		.cfi_def_cfa_offset 4
  66              		@ sp needed
  67 0022 5DF804FB 		ldr	pc, [sp], #4
  68              		.cfi_endproc
  69              	.LFE118:
  70              		.size	write, .-write
  71 0026 00BFAFF3 		.section	.text.read,"ax",%progbits
  71      0080AFF3 
  71      0080
  72              		.align	2
  73              		.p2align 4,,15
  74              		.thumb
  75              		.thumb_func
  76              		.type	read, %function
  77              	read:
  78              	.LFB119:
  79              		.loc 1 75 0
  80              		.cfi_startproc
  81              		@ args = 0, pretend = 0, frame = 16
  82              		@ frame_needed = 0, uses_anonymous_args = 0
  83 0000 00B5     		push	{lr}
  84              		.cfi_def_cfa_offset 4
  85              		.cfi_offset 14, -4
  86 0002 85B0     		sub	sp, sp, #20
  87              		.cfi_def_cfa_offset 24
  88 0004 0390     		str	r0, [sp, #12]
  89 0006 0291     		str	r1, [sp, #8]
  90 0008 0192     		str	r2, [sp, #4]
  91              		.loc 1 77 0
  92 000a 039B     		ldr	r3, [sp, #12]
  93 000c 0C33     		adds	r3, r3, #12
  94 000e 1846     		mov	r0, r3
  95 0010 0299     		ldr	r1, [sp, #8]
  96 0012 019A     		ldr	r2, [sp, #4]
  97 0014 4FF0FF33 		mov	r3, #-1
  98 0018 FFF7FEFF 		bl	chIQReadTimeout
  99 001c 0346     		mov	r3, r0
 100              		.loc 1 79 0
 101 001e 1846     		mov	r0, r3
 102 0020 05B0     		add	sp, sp, #20
 103              		.cfi_def_cfa_offset 4
 104              		@ sp needed
 105 0022 5DF804FB 		ldr	pc, [sp], #4
 106              		.cfi_endproc
 107              	.LFE119:
 108              		.size	read, .-read
 109 0026 00BFAFF3 		.section	.text.put,"ax",%progbits
 109      0080AFF3 
 109      0080
 110              		.align	2
ARM GAS  /tmp/ccQjMht4.s 			page 3


 111              		.p2align 4,,15
 112              		.thumb
 113              		.thumb_func
 114              		.type	put, %function
 115              	put:
 116              	.LFB120:
 117              		.loc 1 81 0
 118              		.cfi_startproc
 119              		@ args = 0, pretend = 0, frame = 8
 120              		@ frame_needed = 0, uses_anonymous_args = 0
 121 0000 00B5     		push	{lr}
 122              		.cfi_def_cfa_offset 4
 123              		.cfi_offset 14, -4
 124 0002 83B0     		sub	sp, sp, #12
 125              		.cfi_def_cfa_offset 16
 126 0004 0190     		str	r0, [sp, #4]
 127 0006 0B46     		mov	r3, r1
 128 0008 8DF80330 		strb	r3, [sp, #3]
 129              		.loc 1 83 0
 130 000c 019B     		ldr	r3, [sp, #4]
 131 000e 03F13002 		add	r2, r3, #48
 132 0012 9DF80330 		ldrb	r3, [sp, #3]	@ zero_extendqisi2
 133 0016 1046     		mov	r0, r2
 134 0018 1946     		mov	r1, r3
 135 001a 4FF0FF32 		mov	r2, #-1
 136 001e FFF7FEFF 		bl	chOQPutTimeout
 137 0022 0346     		mov	r3, r0
 138              		.loc 1 84 0
 139 0024 1846     		mov	r0, r3
 140 0026 03B0     		add	sp, sp, #12
 141              		.cfi_def_cfa_offset 4
 142              		@ sp needed
 143 0028 5DF804FB 		ldr	pc, [sp], #4
 144              		.cfi_endproc
 145              	.LFE120:
 146              		.size	put, .-put
 147 002c AFF30080 		.section	.text.get,"ax",%progbits
 148              		.align	2
 149              		.p2align 4,,15
 150              		.thumb
 151              		.thumb_func
 152              		.type	get, %function
 153              	get:
 154              	.LFB121:
 155              		.loc 1 86 0
 156              		.cfi_startproc
 157              		@ args = 0, pretend = 0, frame = 8
 158              		@ frame_needed = 0, uses_anonymous_args = 0
 159 0000 00B5     		push	{lr}
 160              		.cfi_def_cfa_offset 4
 161              		.cfi_offset 14, -4
 162 0002 83B0     		sub	sp, sp, #12
 163              		.cfi_def_cfa_offset 16
 164 0004 0190     		str	r0, [sp, #4]
 165              		.loc 1 88 0
 166 0006 019B     		ldr	r3, [sp, #4]
 167 0008 0C33     		adds	r3, r3, #12
ARM GAS  /tmp/ccQjMht4.s 			page 4


 168 000a 1846     		mov	r0, r3
 169 000c 4FF0FF31 		mov	r1, #-1
 170 0010 FFF7FEFF 		bl	chIQGetTimeout
 171 0014 0346     		mov	r3, r0
 172              		.loc 1 89 0
 173 0016 1846     		mov	r0, r3
 174 0018 03B0     		add	sp, sp, #12
 175              		.cfi_def_cfa_offset 4
 176              		@ sp needed
 177 001a 5DF804FB 		ldr	pc, [sp], #4
 178              		.cfi_endproc
 179              	.LFE121:
 180              		.size	get, .-get
 181 001e 00BF     		.section	.text.putt,"ax",%progbits
 182              		.align	2
 183              		.p2align 4,,15
 184              		.thumb
 185              		.thumb_func
 186              		.type	putt, %function
 187              	putt:
 188              	.LFB122:
 189              		.loc 1 91 0
 190              		.cfi_startproc
 191              		@ args = 0, pretend = 0, frame = 16
 192              		@ frame_needed = 0, uses_anonymous_args = 0
 193 0000 00B5     		push	{lr}
 194              		.cfi_def_cfa_offset 4
 195              		.cfi_offset 14, -4
 196 0002 85B0     		sub	sp, sp, #20
 197              		.cfi_def_cfa_offset 24
 198 0004 0390     		str	r0, [sp, #12]
 199 0006 0B46     		mov	r3, r1
 200 0008 0192     		str	r2, [sp, #4]
 201 000a 8DF80B30 		strb	r3, [sp, #11]
 202              		.loc 1 93 0
 203 000e 039B     		ldr	r3, [sp, #12]
 204 0010 03F13002 		add	r2, r3, #48
 205 0014 9DF80B30 		ldrb	r3, [sp, #11]	@ zero_extendqisi2
 206 0018 1046     		mov	r0, r2
 207 001a 1946     		mov	r1, r3
 208 001c 019A     		ldr	r2, [sp, #4]
 209 001e FFF7FEFF 		bl	chOQPutTimeout
 210 0022 0346     		mov	r3, r0
 211              		.loc 1 94 0
 212 0024 1846     		mov	r0, r3
 213 0026 05B0     		add	sp, sp, #20
 214              		.cfi_def_cfa_offset 4
 215              		@ sp needed
 216 0028 5DF804FB 		ldr	pc, [sp], #4
 217              		.cfi_endproc
 218              	.LFE122:
 219              		.size	putt, .-putt
 220 002c AFF30080 		.section	.text.gett,"ax",%progbits
 221              		.align	2
 222              		.p2align 4,,15
 223              		.thumb
 224              		.thumb_func
ARM GAS  /tmp/ccQjMht4.s 			page 5


 225              		.type	gett, %function
 226              	gett:
 227              	.LFB123:
 228              		.loc 1 96 0
 229              		.cfi_startproc
 230              		@ args = 0, pretend = 0, frame = 8
 231              		@ frame_needed = 0, uses_anonymous_args = 0
 232 0000 00B5     		push	{lr}
 233              		.cfi_def_cfa_offset 4
 234              		.cfi_offset 14, -4
 235 0002 83B0     		sub	sp, sp, #12
 236              		.cfi_def_cfa_offset 16
 237 0004 0190     		str	r0, [sp, #4]
 238 0006 0091     		str	r1, [sp]
 239              		.loc 1 98 0
 240 0008 019B     		ldr	r3, [sp, #4]
 241 000a 0C33     		adds	r3, r3, #12
 242 000c 1846     		mov	r0, r3
 243 000e 0099     		ldr	r1, [sp]
 244 0010 FFF7FEFF 		bl	chIQGetTimeout
 245 0014 0346     		mov	r3, r0
 246              		.loc 1 99 0
 247 0016 1846     		mov	r0, r3
 248 0018 03B0     		add	sp, sp, #12
 249              		.cfi_def_cfa_offset 4
 250              		@ sp needed
 251 001a 5DF804FB 		ldr	pc, [sp], #4
 252              		.cfi_endproc
 253              	.LFE123:
 254              		.size	gett, .-gett
 255 001e 00BF     		.section	.text.writet,"ax",%progbits
 256              		.align	2
 257              		.p2align 4,,15
 258              		.thumb
 259              		.thumb_func
 260              		.type	writet, %function
 261              	writet:
 262              	.LFB124:
 263              		.loc 1 101 0
 264              		.cfi_startproc
 265              		@ args = 0, pretend = 0, frame = 16
 266              		@ frame_needed = 0, uses_anonymous_args = 0
 267 0000 00B5     		push	{lr}
 268              		.cfi_def_cfa_offset 4
 269              		.cfi_offset 14, -4
 270 0002 85B0     		sub	sp, sp, #20
 271              		.cfi_def_cfa_offset 24
 272 0004 0390     		str	r0, [sp, #12]
 273 0006 0291     		str	r1, [sp, #8]
 274 0008 0192     		str	r2, [sp, #4]
 275 000a 0093     		str	r3, [sp]
 276              		.loc 1 103 0
 277 000c 039B     		ldr	r3, [sp, #12]
 278 000e 3033     		adds	r3, r3, #48
 279 0010 1846     		mov	r0, r3
 280 0012 0299     		ldr	r1, [sp, #8]
 281 0014 019A     		ldr	r2, [sp, #4]
ARM GAS  /tmp/ccQjMht4.s 			page 6


 282 0016 009B     		ldr	r3, [sp]
 283 0018 FFF7FEFF 		bl	chOQWriteTimeout
 284 001c 0346     		mov	r3, r0
 285              		.loc 1 104 0
 286 001e 1846     		mov	r0, r3
 287 0020 05B0     		add	sp, sp, #20
 288              		.cfi_def_cfa_offset 4
 289              		@ sp needed
 290 0022 5DF804FB 		ldr	pc, [sp], #4
 291              		.cfi_endproc
 292              	.LFE124:
 293              		.size	writet, .-writet
 294 0026 00BFAFF3 		.section	.text.readt,"ax",%progbits
 294      0080AFF3 
 294      0080
 295              		.align	2
 296              		.p2align 4,,15
 297              		.thumb
 298              		.thumb_func
 299              		.type	readt, %function
 300              	readt:
 301              	.LFB125:
 302              		.loc 1 106 0
 303              		.cfi_startproc
 304              		@ args = 0, pretend = 0, frame = 16
 305              		@ frame_needed = 0, uses_anonymous_args = 0
 306 0000 00B5     		push	{lr}
 307              		.cfi_def_cfa_offset 4
 308              		.cfi_offset 14, -4
 309 0002 85B0     		sub	sp, sp, #20
 310              		.cfi_def_cfa_offset 24
 311 0004 0390     		str	r0, [sp, #12]
 312 0006 0291     		str	r1, [sp, #8]
 313 0008 0192     		str	r2, [sp, #4]
 314 000a 0093     		str	r3, [sp]
 315              		.loc 1 108 0
 316 000c 039B     		ldr	r3, [sp, #12]
 317 000e 0C33     		adds	r3, r3, #12
 318 0010 1846     		mov	r0, r3
 319 0012 0299     		ldr	r1, [sp, #8]
 320 0014 019A     		ldr	r2, [sp, #4]
 321 0016 009B     		ldr	r3, [sp]
 322 0018 FFF7FEFF 		bl	chIQReadTimeout
 323 001c 0346     		mov	r3, r0
 324              		.loc 1 109 0
 325 001e 1846     		mov	r0, r3
 326 0020 05B0     		add	sp, sp, #20
 327              		.cfi_def_cfa_offset 4
 328              		@ sp needed
 329 0022 5DF804FB 		ldr	pc, [sp], #4
 330              		.cfi_endproc
 331              	.LFE125:
 332              		.size	readt, .-readt
 333 0026 00BFAFF3 		.section	.rodata.vmt,"a",%progbits
 333      0080AFF3 
 333      0080
 334              		.align	2
ARM GAS  /tmp/ccQjMht4.s 			page 7


 335              		.type	vmt, %object
 336              		.size	vmt, 32
 337              	vmt:
 338 0000 00000000 		.word	write
 339 0004 00000000 		.word	read
 340 0008 00000000 		.word	put
 341 000c 00000000 		.word	get
 342 0010 00000000 		.word	putt
 343 0014 00000000 		.word	gett
 344 0018 00000000 		.word	writet
 345 001c 00000000 		.word	readt
 346              		.section	.text.inotify,"ax",%progbits
 347              		.align	2
 348              		.p2align 4,,15
 349              		.thumb
 350              		.thumb_func
 351              		.type	inotify, %function
 352              	inotify:
 353              	.LFB126:
 354              		.loc 1 119 0
 355              		.cfi_startproc
 356              		@ args = 0, pretend = 0, frame = 24
 357              		@ frame_needed = 0, uses_anonymous_args = 0
 358 0000 00B5     		push	{lr}
 359              		.cfi_def_cfa_offset 4
 360              		.cfi_offset 14, -4
 361 0002 87B0     		sub	sp, sp, #28
 362              		.cfi_def_cfa_offset 32
 363 0004 0190     		str	r0, [sp, #4]
 364              		.loc 1 121 0
 365 0006 019B     		ldr	r3, [sp, #4]
 366 0008 1B6A     		ldr	r3, [r3, #32]
 367 000a 0593     		str	r3, [sp, #20]
 368              		.loc 1 125 0
 369 000c 059B     		ldr	r3, [sp, #20]
 370 000e D3F85432 		ldr	r3, [r3, #596]
 371 0012 1B68     		ldr	r3, [r3]
 372 0014 1B78     		ldrb	r3, [r3]	@ zero_extendqisi2
 373 0016 042B     		cmp	r3, #4
 374 0018 03D1     		bne	.L18
 375              		.loc 1 126 0 discriminator 1
 376 001a 059B     		ldr	r3, [sp, #20]
 377 001c 1B7A     		ldrb	r3, [r3, #8]	@ zero_extendqisi2
 378              		.loc 1 125 0 discriminator 1
 379 001e 022B     		cmp	r3, #2
 380 0020 00D0     		beq	.L19
 381              	.L18:
 382              		.loc 1 127 0
 383 0022 5AE0     		b	.L17
 384              	.L19:
 385              		.loc 1 132 0
 386 0024 059B     		ldr	r3, [sp, #20]
 387 0026 D3F85432 		ldr	r3, [r3, #596]
 388 002a 1A68     		ldr	r2, [r3]
 389 002c 059B     		ldr	r3, [sp, #20]
 390 002e D3F85432 		ldr	r3, [r3, #596]
 391 0032 5B79     		ldrb	r3, [r3, #5]	@ zero_extendqisi2
ARM GAS  /tmp/ccQjMht4.s 			page 8


 392 0034 0233     		adds	r3, r3, #2
 393 0036 9B00     		lsls	r3, r3, #2
 394 0038 1344     		add	r3, r3, r2
 395 003a 5B68     		ldr	r3, [r3, #4]
 396 003c 5B8A     		ldrh	r3, [r3, #18]
 397 003e 0493     		str	r3, [sp, #16]
 398              		.loc 1 133 0
 399 0040 059B     		ldr	r3, [sp, #20]
 400 0042 D3F85432 		ldr	r3, [r3, #596]
 401 0046 1B68     		ldr	r3, [r3]
 402 0048 5B89     		ldrh	r3, [r3, #10]
 403 004a 1A46     		mov	r2, r3
 404 004c 059B     		ldr	r3, [sp, #20]
 405 004e D3F85432 		ldr	r3, [r3, #596]
 406 0052 5B79     		ldrb	r3, [r3, #5]	@ zero_extendqisi2
 407 0054 42FA03F3 		asr	r3, r2, r3
 408 0058 03F00103 		and	r3, r3, #1
 409 005c 002B     		cmp	r3, #0
 410 005e 3CD1     		bne	.L17
 411              		.loc 1 134 0 discriminator 1
 412 0060 059B     		ldr	r3, [sp, #20]
 413 0062 DB69     		ldr	r3, [r3, #28]
 414 0064 1A46     		mov	r2, r3
 415 0066 059B     		ldr	r3, [sp, #20]
 416 0068 9B69     		ldr	r3, [r3, #24]
 417 006a D31A     		subs	r3, r2, r3
 418 006c 1A46     		mov	r2, r3
 419 006e 059B     		ldr	r3, [sp, #20]
 420 0070 5B69     		ldr	r3, [r3, #20]
 421 0072 D31A     		subs	r3, r2, r3
 422 0074 0393     		str	r3, [sp, #12]
 423              		.loc 1 133 0 discriminator 1
 424 0076 039A     		ldr	r2, [sp, #12]
 425 0078 049B     		ldr	r3, [sp, #16]
 426 007a 9A42     		cmp	r2, r3
 427 007c 2DD3     		bcc	.L17
 428              		.loc 1 135 0
 429 007e FFF7FEFF 		bl	dbg_check_unlock
 430              	.LBB2:
 431 0082 0023     		movs	r3, #0
 432              	@ 135 "/home/ergae/r2p-sdk/core/ChibiOS/os/hal/src/serial_usb.c" 1
 433 0084 83F31188 		msr     BASEPRI, r3
 434              	@ 0 "" 2
 435              		.thumb
 436              	.LBE2:
 437              		.loc 1 137 0
 438 0088 039A     		ldr	r2, [sp, #12]
 439 008a 049B     		ldr	r3, [sp, #16]
 440 008c B2FBF3F3 		udiv	r3, r2, r3
 441 0090 049A     		ldr	r2, [sp, #16]
 442 0092 02FB03F3 		mul	r3, r2, r3
 443 0096 0393     		str	r3, [sp, #12]
 444              		.loc 1 138 0
 445 0098 059B     		ldr	r3, [sp, #20]
 446 009a D3F85432 		ldr	r3, [r3, #596]
 447 009e 1968     		ldr	r1, [r3]
 448              		.loc 1 139 0
ARM GAS  /tmp/ccQjMht4.s 			page 9


 449 00a0 059B     		ldr	r3, [sp, #20]
 450 00a2 D3F85432 		ldr	r3, [r3, #596]
 451              		.loc 1 138 0
 452 00a6 5A79     		ldrb	r2, [r3, #5]	@ zero_extendqisi2
 453 00a8 059B     		ldr	r3, [sp, #20]
 454 00aa 0C33     		adds	r3, r3, #12
 455 00ac 0846     		mov	r0, r1
 456 00ae 1146     		mov	r1, r2
 457 00b0 1A46     		mov	r2, r3
 458 00b2 039B     		ldr	r3, [sp, #12]
 459 00b4 FFF7FEFF 		bl	usbPrepareQueuedReceive
 460              	.LBB3:
 461              		.loc 1 142 0
 462 00b8 2023     		movs	r3, #32
 463              	@ 142 "/home/ergae/r2p-sdk/core/ChibiOS/os/hal/src/serial_usb.c" 1
 464 00ba 83F31188 		msr     BASEPRI, r3
 465              	@ 0 "" 2
 466              		.thumb
 467              	.LBE3:
 468 00be FFF7FEFF 		bl	dbg_check_lock
 469              		.loc 1 143 0
 470 00c2 059B     		ldr	r3, [sp, #20]
 471 00c4 D3F85432 		ldr	r3, [r3, #596]
 472 00c8 1A68     		ldr	r2, [r3]
 473 00ca 059B     		ldr	r3, [sp, #20]
 474 00cc D3F85432 		ldr	r3, [r3, #596]
 475 00d0 5B79     		ldrb	r3, [r3, #5]	@ zero_extendqisi2
 476 00d2 1046     		mov	r0, r2
 477 00d4 1946     		mov	r1, r3
 478 00d6 FFF7FEFF 		bl	usbStartReceiveI
 479              	.L17:
 480              		.loc 1 145 0
 481 00da 07B0     		add	sp, sp, #28
 482              		.cfi_def_cfa_offset 4
 483              		@ sp needed
 484 00dc 5DF804FB 		ldr	pc, [sp], #4
 485              		.cfi_endproc
 486              	.LFE126:
 487              		.size	inotify, .-inotify
 488              		.section	.text.onotify,"ax",%progbits
 489              		.align	2
 490              		.p2align 4,,15
 491              		.thumb
 492              		.thumb_func
 493              		.type	onotify, %function
 494              	onotify:
 495              	.LFB127:
 496              		.loc 1 150 0
 497              		.cfi_startproc
 498              		@ args = 0, pretend = 0, frame = 16
 499              		@ frame_needed = 0, uses_anonymous_args = 0
 500 0000 00B5     		push	{lr}
 501              		.cfi_def_cfa_offset 4
 502              		.cfi_offset 14, -4
 503 0002 85B0     		sub	sp, sp, #20
 504              		.cfi_def_cfa_offset 24
 505 0004 0190     		str	r0, [sp, #4]
ARM GAS  /tmp/ccQjMht4.s 			page 10


 506              		.loc 1 152 0
 507 0006 019B     		ldr	r3, [sp, #4]
 508 0008 1B6A     		ldr	r3, [r3, #32]
 509 000a 0393     		str	r3, [sp, #12]
 510              		.loc 1 156 0
 511 000c 039B     		ldr	r3, [sp, #12]
 512 000e D3F85432 		ldr	r3, [r3, #596]
 513 0012 1B68     		ldr	r3, [r3]
 514 0014 1B78     		ldrb	r3, [r3]	@ zero_extendqisi2
 515 0016 042B     		cmp	r3, #4
 516 0018 03D1     		bne	.L22
 517              		.loc 1 157 0 discriminator 1
 518 001a 039B     		ldr	r3, [sp, #12]
 519 001c 1B7A     		ldrb	r3, [r3, #8]	@ zero_extendqisi2
 520              		.loc 1 156 0 discriminator 1
 521 001e 022B     		cmp	r3, #2
 522 0020 00D0     		beq	.L23
 523              	.L22:
 524              		.loc 1 158 0
 525 0022 43E0     		b	.L21
 526              	.L23:
 527              		.loc 1 162 0
 528 0024 039B     		ldr	r3, [sp, #12]
 529 0026 D3F85432 		ldr	r3, [r3, #596]
 530 002a 1B68     		ldr	r3, [r3]
 531 002c 1B89     		ldrh	r3, [r3, #8]
 532 002e 1A46     		mov	r2, r3
 533 0030 039B     		ldr	r3, [sp, #12]
 534 0032 D3F85432 		ldr	r3, [r3, #596]
 535 0036 1B79     		ldrb	r3, [r3, #4]	@ zero_extendqisi2
 536 0038 42FA03F3 		asr	r3, r2, r3
 537 003c 03F00103 		and	r3, r3, #1
 538 0040 002B     		cmp	r3, #0
 539 0042 33D1     		bne	.L21
 540              		.loc 1 163 0 discriminator 1
 541 0044 039B     		ldr	r3, [sp, #12]
 542 0046 1B6C     		ldr	r3, [r3, #64]
 543 0048 1A46     		mov	r2, r3
 544 004a 039B     		ldr	r3, [sp, #12]
 545 004c DB6B     		ldr	r3, [r3, #60]
 546 004e D31A     		subs	r3, r2, r3
 547 0050 1A46     		mov	r2, r3
 548 0052 039B     		ldr	r3, [sp, #12]
 549 0054 9B6B     		ldr	r3, [r3, #56]
 550 0056 D31A     		subs	r3, r2, r3
 551 0058 0293     		str	r3, [sp, #8]
 552              		.loc 1 162 0 discriminator 1
 553 005a 029B     		ldr	r3, [sp, #8]
 554 005c 002B     		cmp	r3, #0
 555 005e 25D0     		beq	.L21
 556              		.loc 1 164 0
 557 0060 FFF7FEFF 		bl	dbg_check_unlock
 558              	.LBB4:
 559 0064 0023     		movs	r3, #0
 560              	@ 164 "/home/ergae/r2p-sdk/core/ChibiOS/os/hal/src/serial_usb.c" 1
 561 0066 83F31188 		msr     BASEPRI, r3
 562              	@ 0 "" 2
ARM GAS  /tmp/ccQjMht4.s 			page 11


 563              		.thumb
 564              	.LBE4:
 565              		.loc 1 166 0
 566 006a 039B     		ldr	r3, [sp, #12]
 567 006c D3F85432 		ldr	r3, [r3, #596]
 568 0070 1968     		ldr	r1, [r3]
 569              		.loc 1 167 0
 570 0072 039B     		ldr	r3, [sp, #12]
 571 0074 D3F85432 		ldr	r3, [r3, #596]
 572              		.loc 1 166 0
 573 0078 1A79     		ldrb	r2, [r3, #4]	@ zero_extendqisi2
 574 007a 039B     		ldr	r3, [sp, #12]
 575 007c 3033     		adds	r3, r3, #48
 576 007e 0846     		mov	r0, r1
 577 0080 1146     		mov	r1, r2
 578 0082 1A46     		mov	r2, r3
 579 0084 029B     		ldr	r3, [sp, #8]
 580 0086 FFF7FEFF 		bl	usbPrepareQueuedTransmit
 581              	.LBB5:
 582              		.loc 1 170 0
 583 008a 2023     		movs	r3, #32
 584              	@ 170 "/home/ergae/r2p-sdk/core/ChibiOS/os/hal/src/serial_usb.c" 1
 585 008c 83F31188 		msr     BASEPRI, r3
 586              	@ 0 "" 2
 587              		.thumb
 588              	.LBE5:
 589 0090 FFF7FEFF 		bl	dbg_check_lock
 590              		.loc 1 171 0
 591 0094 039B     		ldr	r3, [sp, #12]
 592 0096 D3F85432 		ldr	r3, [r3, #596]
 593 009a 1A68     		ldr	r2, [r3]
 594 009c 039B     		ldr	r3, [sp, #12]
 595 009e D3F85432 		ldr	r3, [r3, #596]
 596 00a2 1B79     		ldrb	r3, [r3, #4]	@ zero_extendqisi2
 597 00a4 1046     		mov	r0, r2
 598 00a6 1946     		mov	r1, r3
 599 00a8 FFF7FEFF 		bl	usbStartTransmitI
 600              	.L21:
 601              		.loc 1 173 0
 602 00ac 05B0     		add	sp, sp, #20
 603              		.cfi_def_cfa_offset 4
 604              		@ sp needed
 605 00ae 5DF804FB 		ldr	pc, [sp], #4
 606              		.cfi_endproc
 607              	.LFE127:
 608              		.size	onotify, .-onotify
 609 00b2 00BFAFF3 		.section	.text.sduInit,"ax",%progbits
 609      0080AFF3 
 609      0080AFF3 
 609      0080
 610              		.align	2
 611              		.p2align 4,,15
 612              		.global	sduInit
 613              		.thumb
 614              		.thumb_func
 615              		.type	sduInit, %function
 616              	sduInit:
ARM GAS  /tmp/ccQjMht4.s 			page 12


 617              	.LFB128:
 618              		.loc 1 186 0
 619              		.cfi_startproc
 620              		@ args = 0, pretend = 0, frame = 0
 621              		@ frame_needed = 0, uses_anonymous_args = 0
 622              		@ link register save eliminated.
 623              		.loc 1 187 0
 624 0000 7047     		bx	lr
 625              		.cfi_endproc
 626              	.LFE128:
 627              		.size	sduInit, .-sduInit
 628 0002 00BFAFF3 		.section	.text.sduObjectInit,"ax",%progbits
 628      0080AFF3 
 628      0080AFF3 
 628      0080
 629              		.align	2
 630              		.p2align 4,,15
 631              		.global	sduObjectInit
 632              		.thumb
 633              		.thumb_func
 634              		.type	sduObjectInit, %function
 635              	sduObjectInit:
 636              	.LFB129:
 637              		.loc 1 198 0
 638              		.cfi_startproc
 639              		@ args = 0, pretend = 0, frame = 8
 640              		@ frame_needed = 0, uses_anonymous_args = 0
 641 0000 00B5     		push	{lr}
 642              		.cfi_def_cfa_offset 4
 643              		.cfi_offset 14, -4
 644 0002 85B0     		sub	sp, sp, #20
 645              		.cfi_def_cfa_offset 24
 646 0004 0390     		str	r0, [sp, #12]
 647              		.loc 1 200 0
 648 0006 039B     		ldr	r3, [sp, #12]
 649 0008 144A     		ldr	r2, .L27
 650 000a 1A60     		str	r2, [r3]
 651              		.loc 1 201 0
 652 000c 039B     		ldr	r3, [sp, #12]
 653 000e 1A1D     		adds	r2, r3, #4
 654 0010 039B     		ldr	r3, [sp, #12]
 655 0012 5A60     		str	r2, [r3, #4]
 656              		.loc 1 202 0
 657 0014 039B     		ldr	r3, [sp, #12]
 658 0016 0122     		movs	r2, #1
 659 0018 1A72     		strb	r2, [r3, #8]
 660              		.loc 1 203 0
 661 001a 039B     		ldr	r3, [sp, #12]
 662 001c 03F10C01 		add	r1, r3, #12
 663 0020 039B     		ldr	r3, [sp, #12]
 664 0022 03F15402 		add	r2, r3, #84
 665 0026 039B     		ldr	r3, [sp, #12]
 666 0028 0093     		str	r3, [sp]
 667 002a 0846     		mov	r0, r1
 668 002c 1146     		mov	r1, r2
 669 002e 4FF48072 		mov	r2, #256
 670 0032 0B4B     		ldr	r3, .L27+4
ARM GAS  /tmp/ccQjMht4.s 			page 13


 671 0034 FFF7FEFF 		bl	chIQInit
 672              		.loc 1 204 0
 673 0038 039B     		ldr	r3, [sp, #12]
 674 003a 03F13001 		add	r1, r3, #48
 675 003e 039B     		ldr	r3, [sp, #12]
 676 0040 03F5AA72 		add	r2, r3, #340
 677 0044 039B     		ldr	r3, [sp, #12]
 678 0046 0093     		str	r3, [sp]
 679 0048 0846     		mov	r0, r1
 680 004a 1146     		mov	r1, r2
 681 004c 4FF48072 		mov	r2, #256
 682 0050 044B     		ldr	r3, .L27+8
 683 0052 FFF7FEFF 		bl	chOQInit
 684              		.loc 1 205 0
 685 0056 05B0     		add	sp, sp, #20
 686              		.cfi_def_cfa_offset 4
 687              		@ sp needed
 688 0058 5DF804FB 		ldr	pc, [sp], #4
 689              	.L28:
 690              		.align	2
 691              	.L27:
 692 005c 00000000 		.word	vmt
 693 0060 00000000 		.word	inotify
 694 0064 00000000 		.word	onotify
 695              		.cfi_endproc
 696              	.LFE129:
 697              		.size	sduObjectInit, .-sduObjectInit
 698 0068 AFF30080 		.section	.rodata
 698      AFF30080 
 699              		.align	2
 700              	.LC0:
 701 0000 22736475 		.ascii	"\"sduStart\"()\000"
 701      53746172 
 701      74222829 
 701      00
 702 000d 000000   		.align	2
 703              	.LC1:
 704 0010 73647553 		.ascii	"sduStart(), #1\000"
 704      74617274 
 704      28292C20 
 704      233100
 705              		.section	.text.sduStart,"ax",%progbits
 706              		.align	2
 707              		.p2align 4,,15
 708              		.global	sduStart
 709              		.thumb
 710              		.thumb_func
 711              		.type	sduStart, %function
 712              	sduStart:
 713              	.LFB130:
 714              		.loc 1 215 0
 715              		.cfi_startproc
 716              		@ args = 0, pretend = 0, frame = 16
 717              		@ frame_needed = 0, uses_anonymous_args = 0
 718 0000 00B5     		push	{lr}
 719              		.cfi_def_cfa_offset 4
 720              		.cfi_offset 14, -4
ARM GAS  /tmp/ccQjMht4.s 			page 14


 721 0002 85B0     		sub	sp, sp, #20
 722              		.cfi_def_cfa_offset 24
 723 0004 0190     		str	r0, [sp, #4]
 724 0006 0091     		str	r1, [sp]
 725              		.loc 1 216 0
 726 0008 009B     		ldr	r3, [sp]
 727 000a 1B68     		ldr	r3, [r3]
 728 000c 0393     		str	r3, [sp, #12]
 729              		.loc 1 218 0
 730 000e 019B     		ldr	r3, [sp, #4]
 731 0010 002B     		cmp	r3, #0
 732 0012 02D1     		bne	.L30
 733              		.loc 1 218 0 is_stmt 0 discriminator 1
 734 0014 1D48     		ldr	r0, .L32
 735 0016 FFF7FEFF 		bl	chDbgPanic
 736              	.L30:
 737              	.LBB6:
 738              		.loc 1 220 0 is_stmt 1
 739 001a 2023     		movs	r3, #32
 740              	@ 220 "/home/ergae/r2p-sdk/core/ChibiOS/os/hal/src/serial_usb.c" 1
 741 001c 83F31188 		msr     BASEPRI, r3
 742              	@ 0 "" 2
 743              		.thumb
 744              	.LBE6:
 745 0020 FFF7FEFF 		bl	dbg_check_lock
 746              		.loc 1 221 0
 747 0024 019B     		ldr	r3, [sp, #4]
 748 0026 1B7A     		ldrb	r3, [r3, #8]	@ zero_extendqisi2
 749 0028 012B     		cmp	r3, #1
 750 002a 06D0     		beq	.L31
 751              		.loc 1 221 0 is_stmt 0 discriminator 1
 752 002c 019B     		ldr	r3, [sp, #4]
 753 002e 1B7A     		ldrb	r3, [r3, #8]	@ zero_extendqisi2
 754 0030 022B     		cmp	r3, #2
 755 0032 02D0     		beq	.L31
 756              		.loc 1 221 0 discriminator 2
 757 0034 1648     		ldr	r0, .L32+4
 758 0036 FFF7FEFF 		bl	chDbgPanic
 759              	.L31:
 760              		.loc 1 224 0 is_stmt 1
 761 003a 009B     		ldr	r3, [sp]
 762 003c 1B79     		ldrb	r3, [r3, #4]	@ zero_extendqisi2
 763 003e 013B     		subs	r3, r3, #1
 764 0040 039A     		ldr	r2, [sp, #12]
 765 0042 0A33     		adds	r3, r3, #10
 766 0044 9B00     		lsls	r3, r3, #2
 767 0046 1344     		add	r3, r3, r2
 768 0048 019A     		ldr	r2, [sp, #4]
 769 004a 5A60     		str	r2, [r3, #4]
 770              		.loc 1 225 0
 771 004c 009B     		ldr	r3, [sp]
 772 004e 5B79     		ldrb	r3, [r3, #5]	@ zero_extendqisi2
 773 0050 5A1E     		subs	r2, r3, #1
 774 0052 039B     		ldr	r3, [sp, #12]
 775 0054 1232     		adds	r2, r2, #18
 776 0056 0199     		ldr	r1, [sp, #4]
 777 0058 43F82210 		str	r1, [r3, r2, lsl #2]
ARM GAS  /tmp/ccQjMht4.s 			page 15


 778              		.loc 1 226 0
 779 005c 009B     		ldr	r3, [sp]
 780 005e 9B79     		ldrb	r3, [r3, #6]	@ zero_extendqisi2
 781 0060 013B     		subs	r3, r3, #1
 782 0062 039A     		ldr	r2, [sp, #12]
 783 0064 0A33     		adds	r3, r3, #10
 784 0066 9B00     		lsls	r3, r3, #2
 785 0068 1344     		add	r3, r3, r2
 786 006a 019A     		ldr	r2, [sp, #4]
 787 006c 5A60     		str	r2, [r3, #4]
 788              		.loc 1 227 0
 789 006e 019B     		ldr	r3, [sp, #4]
 790 0070 009A     		ldr	r2, [sp]
 791 0072 C3F85422 		str	r2, [r3, #596]
 792              		.loc 1 228 0
 793 0076 019B     		ldr	r3, [sp, #4]
 794 0078 0222     		movs	r2, #2
 795 007a 1A72     		strb	r2, [r3, #8]
 796              		.loc 1 229 0
 797 007c FFF7FEFF 		bl	dbg_check_unlock
 798              	.LBB7:
 799 0080 0023     		movs	r3, #0
 800              	@ 229 "/home/ergae/r2p-sdk/core/ChibiOS/os/hal/src/serial_usb.c" 1
 801 0082 83F31188 		msr     BASEPRI, r3
 802              	@ 0 "" 2
 803              		.thumb
 804              	.LBE7:
 805              		.loc 1 230 0
 806 0086 05B0     		add	sp, sp, #20
 807              		.cfi_def_cfa_offset 4
 808              		@ sp needed
 809 0088 5DF804FB 		ldr	pc, [sp], #4
 810              	.L33:
 811              		.align	2
 812              	.L32:
 813 008c 00000000 		.word	.LC0
 814 0090 10000000 		.word	.LC1
 815              		.cfi_endproc
 816              	.LFE130:
 817              		.size	sduStart, .-sduStart
 818 0094 AFF30080 		.section	.rodata
 818      AFF30080 
 818      AFF30080 
 819 001f 00       		.align	2
 820              	.LC2:
 821 0020 22736453 		.ascii	"\"sdStop\"()\000"
 821      746F7022 
 821      282900
 822 002b 00       		.align	2
 823              	.LC3:
 824 002c 73647553 		.ascii	"sduStop(), #1\000"
 824      746F7028 
 824      292C2023 
 824      3100
 825 003a 0000     		.section	.text.sduStop,"ax",%progbits
 826              		.align	2
 827              		.p2align 4,,15
ARM GAS  /tmp/ccQjMht4.s 			page 16


 828              		.global	sduStop
 829              		.thumb
 830              		.thumb_func
 831              		.type	sduStop, %function
 832              	sduStop:
 833              	.LFB131:
 834              		.loc 1 241 0
 835              		.cfi_startproc
 836              		@ args = 0, pretend = 0, frame = 16
 837              		@ frame_needed = 0, uses_anonymous_args = 0
 838 0000 00B5     		push	{lr}
 839              		.cfi_def_cfa_offset 4
 840              		.cfi_offset 14, -4
 841 0002 85B0     		sub	sp, sp, #20
 842              		.cfi_def_cfa_offset 24
 843 0004 0190     		str	r0, [sp, #4]
 844              		.loc 1 242 0
 845 0006 019B     		ldr	r3, [sp, #4]
 846 0008 D3F85432 		ldr	r3, [r3, #596]
 847 000c 1B68     		ldr	r3, [r3]
 848 000e 0393     		str	r3, [sp, #12]
 849              		.loc 1 244 0
 850 0010 019B     		ldr	r3, [sp, #4]
 851 0012 002B     		cmp	r3, #0
 852 0014 02D1     		bne	.L35
 853              		.loc 1 244 0 is_stmt 0 discriminator 1
 854 0016 2848     		ldr	r0, .L37
 855 0018 FFF7FEFF 		bl	chDbgPanic
 856              	.L35:
 857              	.LBB8:
 858              		.loc 1 246 0 is_stmt 1
 859 001c 2023     		movs	r3, #32
 860              	@ 246 "/home/ergae/r2p-sdk/core/ChibiOS/os/hal/src/serial_usb.c" 1
 861 001e 83F31188 		msr     BASEPRI, r3
 862              	@ 0 "" 2
 863              		.thumb
 864              	.LBE8:
 865 0022 FFF7FEFF 		bl	dbg_check_lock
 866              		.loc 1 248 0
 867 0026 019B     		ldr	r3, [sp, #4]
 868 0028 1B7A     		ldrb	r3, [r3, #8]	@ zero_extendqisi2
 869 002a 012B     		cmp	r3, #1
 870 002c 06D0     		beq	.L36
 871              		.loc 1 248 0 is_stmt 0 discriminator 1
 872 002e 019B     		ldr	r3, [sp, #4]
 873 0030 1B7A     		ldrb	r3, [r3, #8]	@ zero_extendqisi2
 874 0032 022B     		cmp	r3, #2
 875 0034 02D0     		beq	.L36
 876              		.loc 1 248 0 discriminator 2
 877 0036 2148     		ldr	r0, .L37+4
 878 0038 FFF7FEFF 		bl	chDbgPanic
 879              	.L36:
 880              		.loc 1 253 0 is_stmt 1
 881 003c 019B     		ldr	r3, [sp, #4]
 882 003e D3F85432 		ldr	r3, [r3, #596]
 883 0042 1B79     		ldrb	r3, [r3, #4]	@ zero_extendqisi2
 884 0044 013B     		subs	r3, r3, #1
ARM GAS  /tmp/ccQjMht4.s 			page 17


 885 0046 039A     		ldr	r2, [sp, #12]
 886 0048 0A33     		adds	r3, r3, #10
 887 004a 9B00     		lsls	r3, r3, #2
 888 004c 1344     		add	r3, r3, r2
 889 004e 0022     		movs	r2, #0
 890 0050 5A60     		str	r2, [r3, #4]
 891              		.loc 1 254 0
 892 0052 019B     		ldr	r3, [sp, #4]
 893 0054 D3F85432 		ldr	r3, [r3, #596]
 894 0058 5B79     		ldrb	r3, [r3, #5]	@ zero_extendqisi2
 895 005a 5A1E     		subs	r2, r3, #1
 896 005c 039B     		ldr	r3, [sp, #12]
 897 005e 1232     		adds	r2, r2, #18
 898 0060 0021     		movs	r1, #0
 899 0062 43F82210 		str	r1, [r3, r2, lsl #2]
 900              		.loc 1 255 0
 901 0066 019B     		ldr	r3, [sp, #4]
 902 0068 D3F85432 		ldr	r3, [r3, #596]
 903 006c 9B79     		ldrb	r3, [r3, #6]	@ zero_extendqisi2
 904 006e 013B     		subs	r3, r3, #1
 905 0070 039A     		ldr	r2, [sp, #12]
 906 0072 0A33     		adds	r3, r3, #10
 907 0074 9B00     		lsls	r3, r3, #2
 908 0076 1344     		add	r3, r3, r2
 909 0078 0022     		movs	r2, #0
 910 007a 5A60     		str	r2, [r3, #4]
 911              		.loc 1 256 0
 912 007c 019B     		ldr	r3, [sp, #4]
 913 007e 0122     		movs	r2, #1
 914 0080 1A72     		strb	r2, [r3, #8]
 915              		.loc 1 259 0
 916 0082 019B     		ldr	r3, [sp, #4]
 917 0084 0433     		adds	r3, r3, #4
 918 0086 1846     		mov	r0, r3
 919 0088 0221     		movs	r1, #2
 920 008a FFF7FEFF 		bl	chEvtBroadcastFlagsI
 921              		.loc 1 260 0
 922 008e 019B     		ldr	r3, [sp, #4]
 923 0090 0C33     		adds	r3, r3, #12
 924 0092 1846     		mov	r0, r3
 925 0094 FFF7FEFF 		bl	chIQResetI
 926              		.loc 1 261 0
 927 0098 019B     		ldr	r3, [sp, #4]
 928 009a 3033     		adds	r3, r3, #48
 929 009c 1846     		mov	r0, r3
 930 009e FFF7FEFF 		bl	chOQResetI
 931              		.loc 1 262 0
 932 00a2 FFF7FEFF 		bl	chSchRescheduleS
 933              		.loc 1 264 0
 934 00a6 FFF7FEFF 		bl	dbg_check_unlock
 935              	.LBB9:
 936 00aa 0023     		movs	r3, #0
 937              	@ 264 "/home/ergae/r2p-sdk/core/ChibiOS/os/hal/src/serial_usb.c" 1
 938 00ac 83F31188 		msr     BASEPRI, r3
 939              	@ 0 "" 2
 940              		.thumb
 941              	.LBE9:
ARM GAS  /tmp/ccQjMht4.s 			page 18


 942              		.loc 1 265 0
 943 00b0 05B0     		add	sp, sp, #20
 944              		.cfi_def_cfa_offset 4
 945              		@ sp needed
 946 00b2 5DF804FB 		ldr	pc, [sp], #4
 947              	.L38:
 948 00b6 00BF     		.align	2
 949              	.L37:
 950 00b8 20000000 		.word	.LC2
 951 00bc 2C000000 		.word	.LC3
 952              		.cfi_endproc
 953              	.LFE131:
 954              		.size	sduStop, .-sduStop
 955              		.section	.text.sduConfigureHookI,"ax",%progbits
 956              		.align	2
 957              		.p2align 4,,15
 958              		.global	sduConfigureHookI
 959              		.thumb
 960              		.thumb_func
 961              		.type	sduConfigureHookI, %function
 962              	sduConfigureHookI:
 963              	.LFB132:
 964              		.loc 1 274 0
 965              		.cfi_startproc
 966              		@ args = 0, pretend = 0, frame = 16
 967              		@ frame_needed = 0, uses_anonymous_args = 0
 968 0000 10B5     		push	{r4, lr}
 969              		.cfi_def_cfa_offset 8
 970              		.cfi_offset 4, -8
 971              		.cfi_offset 14, -4
 972 0002 84B0     		sub	sp, sp, #16
 973              		.cfi_def_cfa_offset 24
 974 0004 0190     		str	r0, [sp, #4]
 975              		.loc 1 275 0
 976 0006 019B     		ldr	r3, [sp, #4]
 977 0008 D3F85432 		ldr	r3, [r3, #596]
 978 000c 1B68     		ldr	r3, [r3]
 979 000e 0393     		str	r3, [sp, #12]
 980              		.loc 1 277 0
 981 0010 019B     		ldr	r3, [sp, #4]
 982 0012 0C33     		adds	r3, r3, #12
 983 0014 1846     		mov	r0, r3
 984 0016 FFF7FEFF 		bl	chIQResetI
 985              		.loc 1 278 0
 986 001a 019B     		ldr	r3, [sp, #4]
 987 001c 3033     		adds	r3, r3, #48
 988 001e 1846     		mov	r0, r3
 989 0020 FFF7FEFF 		bl	chOQResetI
 990              		.loc 1 279 0
 991 0024 019B     		ldr	r3, [sp, #4]
 992 0026 0433     		adds	r3, r3, #4
 993 0028 1846     		mov	r0, r3
 994 002a 0121     		movs	r1, #1
 995 002c FFF7FEFF 		bl	chEvtBroadcastFlagsI
 996              		.loc 1 282 0
 997 0030 019B     		ldr	r3, [sp, #4]
 998 0032 D3F85432 		ldr	r3, [r3, #596]
ARM GAS  /tmp/ccQjMht4.s 			page 19


 999 0036 5979     		ldrb	r1, [r3, #5]	@ zero_extendqisi2
 1000 0038 019B     		ldr	r3, [sp, #4]
 1001 003a 03F10C04 		add	r4, r3, #12
 1002              		.loc 1 283 0
 1003 003e 019B     		ldr	r3, [sp, #4]
 1004 0040 D3F85432 		ldr	r3, [r3, #596]
 1005 0044 5B79     		ldrb	r3, [r3, #5]	@ zero_extendqisi2
 1006 0046 039A     		ldr	r2, [sp, #12]
 1007 0048 0233     		adds	r3, r3, #2
 1008 004a 9B00     		lsls	r3, r3, #2
 1009 004c 1344     		add	r3, r3, r2
 1010 004e 5B68     		ldr	r3, [r3, #4]
 1011 0050 5B8A     		ldrh	r3, [r3, #18]
 1012              		.loc 1 282 0
 1013 0052 0398     		ldr	r0, [sp, #12]
 1014 0054 2246     		mov	r2, r4
 1015 0056 FFF7FEFF 		bl	usbPrepareQueuedReceive
 1016              		.loc 1 284 0
 1017 005a 019B     		ldr	r3, [sp, #4]
 1018 005c D3F85432 		ldr	r3, [r3, #596]
 1019 0060 5B79     		ldrb	r3, [r3, #5]	@ zero_extendqisi2
 1020 0062 0398     		ldr	r0, [sp, #12]
 1021 0064 1946     		mov	r1, r3
 1022 0066 FFF7FEFF 		bl	usbStartReceiveI
 1023              		.loc 1 285 0
 1024 006a 04B0     		add	sp, sp, #16
 1025              		.cfi_def_cfa_offset 8
 1026              		@ sp needed
 1027 006c 10BD     		pop	{r4, pc}
 1028              		.cfi_endproc
 1029              	.LFE132:
 1030              		.size	sduConfigureHookI, .-sduConfigureHookI
 1031 006e 00BF     		.section	.text.sduRequestsHook,"ax",%progbits
 1032              		.align	2
 1033              		.p2align 4,,15
 1034              		.global	sduRequestsHook
 1035              		.thumb
 1036              		.thumb_func
 1037              		.type	sduRequestsHook, %function
 1038              	sduRequestsHook:
 1039              	.LFB133:
 1040              		.loc 1 302 0
 1041              		.cfi_startproc
 1042              		@ args = 0, pretend = 0, frame = 8
 1043              		@ frame_needed = 0, uses_anonymous_args = 0
 1044              		@ link register save eliminated.
 1045 0000 82B0     		sub	sp, sp, #8
 1046              		.cfi_def_cfa_offset 8
 1047 0002 0190     		str	r0, [sp, #4]
 1048              		.loc 1 304 0
 1049 0004 019B     		ldr	r3, [sp, #4]
 1050 0006 93F87430 		ldrb	r3, [r3, #116]	@ zero_extendqisi2
 1051 000a 03F06003 		and	r3, r3, #96
 1052 000e 202B     		cmp	r3, #32
 1053 0010 2CD1     		bne	.L41
 1054              		.loc 1 305 0
 1055 0012 019B     		ldr	r3, [sp, #4]
ARM GAS  /tmp/ccQjMht4.s 			page 20


 1056 0014 93F87530 		ldrb	r3, [r3, #117]	@ zero_extendqisi2
 1057 0018 212B     		cmp	r3, #33
 1058 001a 04D0     		beq	.L43
 1059 001c 222B     		cmp	r3, #34
 1060 001e 18D0     		beq	.L44
 1061 0020 202B     		cmp	r3, #32
 1062 0022 0BD0     		beq	.L45
 1063 0024 20E0     		b	.L47
 1064              	.L43:
 1065              		.loc 1 307 0
 1066 0026 019B     		ldr	r3, [sp, #4]
 1067 0028 124A     		ldr	r2, .L48
 1068 002a 9A66     		str	r2, [r3, #104]
 1069 002c 019B     		ldr	r3, [sp, #4]
 1070 002e 0722     		movs	r2, #7
 1071 0030 DA66     		str	r2, [r3, #108]
 1072 0032 019B     		ldr	r3, [sp, #4]
 1073 0034 0022     		movs	r2, #0
 1074 0036 1A67     		str	r2, [r3, #112]
 1075              		.loc 1 308 0
 1076 0038 0123     		movs	r3, #1
 1077 003a 18E0     		b	.L46
 1078              	.L45:
 1079              		.loc 1 310 0
 1080 003c 019B     		ldr	r3, [sp, #4]
 1081 003e 0D4A     		ldr	r2, .L48
 1082 0040 9A66     		str	r2, [r3, #104]
 1083 0042 019B     		ldr	r3, [sp, #4]
 1084 0044 0722     		movs	r2, #7
 1085 0046 DA66     		str	r2, [r3, #108]
 1086 0048 019B     		ldr	r3, [sp, #4]
 1087 004a 0022     		movs	r2, #0
 1088 004c 1A67     		str	r2, [r3, #112]
 1089              		.loc 1 311 0
 1090 004e 0123     		movs	r3, #1
 1091 0050 0DE0     		b	.L46
 1092              	.L44:
 1093              		.loc 1 314 0
 1094 0052 019B     		ldr	r3, [sp, #4]
 1095 0054 0022     		movs	r2, #0
 1096 0056 9A66     		str	r2, [r3, #104]
 1097 0058 019B     		ldr	r3, [sp, #4]
 1098 005a 0022     		movs	r2, #0
 1099 005c DA66     		str	r2, [r3, #108]
 1100 005e 019B     		ldr	r3, [sp, #4]
 1101 0060 0022     		movs	r2, #0
 1102 0062 1A67     		str	r2, [r3, #112]
 1103              		.loc 1 315 0
 1104 0064 0123     		movs	r3, #1
 1105 0066 02E0     		b	.L46
 1106              	.L47:
 1107              		.loc 1 317 0
 1108 0068 0023     		movs	r3, #0
 1109 006a 00E0     		b	.L46
 1110              	.L41:
 1111              		.loc 1 320 0
 1112 006c 0023     		movs	r3, #0
ARM GAS  /tmp/ccQjMht4.s 			page 21


 1113              	.L46:
 1114              		.loc 1 321 0
 1115 006e 1846     		mov	r0, r3
 1116 0070 02B0     		add	sp, sp, #8
 1117              		.cfi_def_cfa_offset 0
 1118              		@ sp needed
 1119 0072 7047     		bx	lr
 1120              	.L49:
 1121              		.align	2
 1122              	.L48:
 1123 0074 00000000 		.word	linecoding
 1124              		.cfi_endproc
 1125              	.LFE133:
 1126              		.size	sduRequestsHook, .-sduRequestsHook
 1127 0078 AFF30080 		.section	.text.sduDataTransmitted,"ax",%progbits
 1127      AFF30080 
 1128              		.align	2
 1129              		.p2align 4,,15
 1130              		.global	sduDataTransmitted
 1131              		.thumb
 1132              		.thumb_func
 1133              		.type	sduDataTransmitted, %function
 1134              	sduDataTransmitted:
 1135              	.LFB134:
 1136              		.loc 1 331 0
 1137              		.cfi_startproc
 1138              		@ args = 0, pretend = 0, frame = 16
 1139              		@ frame_needed = 0, uses_anonymous_args = 0
 1140 0000 00B5     		push	{lr}
 1141              		.cfi_def_cfa_offset 4
 1142              		.cfi_offset 14, -4
 1143 0002 85B0     		sub	sp, sp, #20
 1144              		.cfi_def_cfa_offset 24
 1145 0004 0190     		str	r0, [sp, #4]
 1146 0006 0B46     		mov	r3, r1
 1147 0008 8DF80330 		strb	r3, [sp, #3]
 1148              		.loc 1 333 0
 1149 000c 9DF80330 		ldrb	r3, [sp, #3]	@ zero_extendqisi2
 1150 0010 013B     		subs	r3, r3, #1
 1151 0012 019A     		ldr	r2, [sp, #4]
 1152 0014 0A33     		adds	r3, r3, #10
 1153 0016 9B00     		lsls	r3, r3, #2
 1154 0018 1344     		add	r3, r3, r2
 1155 001a 5B68     		ldr	r3, [r3, #4]
 1156 001c 0393     		str	r3, [sp, #12]
 1157              		.loc 1 335 0
 1158 001e 039B     		ldr	r3, [sp, #12]
 1159 0020 002B     		cmp	r3, #0
 1160 0022 00D1     		bne	.L51
 1161              		.loc 1 336 0
 1162 0024 72E0     		b	.L50
 1163              	.L51:
 1164              	.LBB10:
 1165              		.loc 1 338 0
 1166 0026 2023     		movs	r3, #32
 1167              	@ 338 "/home/ergae/r2p-sdk/core/ChibiOS/os/hal/src/serial_usb.c" 1
 1168 0028 83F31188 		msr     BASEPRI, r3
ARM GAS  /tmp/ccQjMht4.s 			page 22


 1169              	@ 0 "" 2
 1170              		.thumb
 1171              	.LBE10:
 1172 002c FFF7FEFF 		bl	dbg_check_lock_from_isr
 1173              		.loc 1 339 0
 1174 0030 039B     		ldr	r3, [sp, #12]
 1175 0032 0433     		adds	r3, r3, #4
 1176 0034 1846     		mov	r0, r3
 1177 0036 0821     		movs	r1, #8
 1178 0038 FFF7FEFF 		bl	chEvtBroadcastFlagsI
 1179              		.loc 1 341 0
 1180 003c 039B     		ldr	r3, [sp, #12]
 1181 003e 1B6C     		ldr	r3, [r3, #64]
 1182 0040 1A46     		mov	r2, r3
 1183 0042 039B     		ldr	r3, [sp, #12]
 1184 0044 DB6B     		ldr	r3, [r3, #60]
 1185 0046 D31A     		subs	r3, r2, r3
 1186 0048 1A46     		mov	r2, r3
 1187 004a 039B     		ldr	r3, [sp, #12]
 1188 004c 9B6B     		ldr	r3, [r3, #56]
 1189 004e D31A     		subs	r3, r2, r3
 1190 0050 0293     		str	r3, [sp, #8]
 1191 0052 029B     		ldr	r3, [sp, #8]
 1192 0054 002B     		cmp	r3, #0
 1193 0056 1AD0     		beq	.L53
 1194              		.loc 1 344 0
 1195 0058 FFF7FEFF 		bl	dbg_check_unlock_from_isr
 1196              	.LBB11:
 1197 005c 0023     		movs	r3, #0
 1198              	@ 344 "/home/ergae/r2p-sdk/core/ChibiOS/os/hal/src/serial_usb.c" 1
 1199 005e 83F31188 		msr     BASEPRI, r3
 1200              	@ 0 "" 2
 1201              		.thumb
 1202              	.LBE11:
 1203              		.loc 1 346 0
 1204 0062 039B     		ldr	r3, [sp, #12]
 1205 0064 3033     		adds	r3, r3, #48
 1206 0066 9DF80320 		ldrb	r2, [sp, #3]	@ zero_extendqisi2
 1207 006a 0198     		ldr	r0, [sp, #4]
 1208 006c 1146     		mov	r1, r2
 1209 006e 1A46     		mov	r2, r3
 1210 0070 029B     		ldr	r3, [sp, #8]
 1211 0072 FFF7FEFF 		bl	usbPrepareQueuedTransmit
 1212              	.LBB12:
 1213              		.loc 1 348 0
 1214 0076 2023     		movs	r3, #32
 1215              	@ 348 "/home/ergae/r2p-sdk/core/ChibiOS/os/hal/src/serial_usb.c" 1
 1216 0078 83F31188 		msr     BASEPRI, r3
 1217              	@ 0 "" 2
 1218              		.thumb
 1219              	.LBE12:
 1220 007c FFF7FEFF 		bl	dbg_check_lock_from_isr
 1221              		.loc 1 349 0
 1222 0080 9DF80330 		ldrb	r3, [sp, #3]	@ zero_extendqisi2
 1223 0084 0198     		ldr	r0, [sp, #4]
 1224 0086 1946     		mov	r1, r3
 1225 0088 FFF7FEFF 		bl	usbStartTransmitI
ARM GAS  /tmp/ccQjMht4.s 			page 23


 1226 008c 39E0     		b	.L54
 1227              	.L53:
 1228              		.loc 1 351 0
 1229 008e 9DF80330 		ldrb	r3, [sp, #3]	@ zero_extendqisi2
 1230 0092 019A     		ldr	r2, [sp, #4]
 1231 0094 0233     		adds	r3, r3, #2
 1232 0096 9B00     		lsls	r3, r3, #2
 1233 0098 1344     		add	r3, r3, r2
 1234 009a 5B68     		ldr	r3, [r3, #4]
 1235 009c 5B69     		ldr	r3, [r3, #20]
 1236 009e 5B68     		ldr	r3, [r3, #4]
 1237 00a0 002B     		cmp	r3, #0
 1238 00a2 2ED0     		beq	.L54
 1239              		.loc 1 352 0 discriminator 1
 1240 00a4 9DF80330 		ldrb	r3, [sp, #3]	@ zero_extendqisi2
 1241 00a8 019A     		ldr	r2, [sp, #4]
 1242 00aa 0233     		adds	r3, r3, #2
 1243 00ac 9B00     		lsls	r3, r3, #2
 1244 00ae 1344     		add	r3, r3, r2
 1245 00b0 5B68     		ldr	r3, [r3, #4]
 1246 00b2 5B69     		ldr	r3, [r3, #20]
 1247 00b4 5A68     		ldr	r2, [r3, #4]
 1248              		.loc 1 353 0 discriminator 1
 1249 00b6 9DF80330 		ldrb	r3, [sp, #3]	@ zero_extendqisi2
 1250 00ba 0199     		ldr	r1, [sp, #4]
 1251 00bc 0233     		adds	r3, r3, #2
 1252 00be 9B00     		lsls	r3, r3, #2
 1253 00c0 0B44     		add	r3, r3, r1
 1254 00c2 5B68     		ldr	r3, [r3, #4]
 1255 00c4 1B8A     		ldrh	r3, [r3, #16]
 1256 00c6 013B     		subs	r3, r3, #1
 1257              		.loc 1 352 0 discriminator 1
 1258 00c8 1340     		ands	r3, r3, r2
 1259              		.loc 1 351 0 discriminator 1
 1260 00ca 002B     		cmp	r3, #0
 1261 00cc 19D1     		bne	.L54
 1262              		.loc 1 358 0
 1263 00ce FFF7FEFF 		bl	dbg_check_unlock_from_isr
 1264              	.LBB13:
 1265 00d2 0023     		movs	r3, #0
 1266              	@ 358 "/home/ergae/r2p-sdk/core/ChibiOS/os/hal/src/serial_usb.c" 1
 1267 00d4 83F31188 		msr     BASEPRI, r3
 1268              	@ 0 "" 2
 1269              		.thumb
 1270              	.LBE13:
 1271              		.loc 1 360 0
 1272 00d8 039B     		ldr	r3, [sp, #12]
 1273 00da 3033     		adds	r3, r3, #48
 1274 00dc 9DF80320 		ldrb	r2, [sp, #3]	@ zero_extendqisi2
 1275 00e0 0198     		ldr	r0, [sp, #4]
 1276 00e2 1146     		mov	r1, r2
 1277 00e4 1A46     		mov	r2, r3
 1278 00e6 0023     		movs	r3, #0
 1279 00e8 FFF7FEFF 		bl	usbPrepareQueuedTransmit
 1280              	.LBB14:
 1281              		.loc 1 362 0
 1282 00ec 2023     		movs	r3, #32
ARM GAS  /tmp/ccQjMht4.s 			page 24


 1283              	@ 362 "/home/ergae/r2p-sdk/core/ChibiOS/os/hal/src/serial_usb.c" 1
 1284 00ee 83F31188 		msr     BASEPRI, r3
 1285              	@ 0 "" 2
 1286              		.thumb
 1287              	.LBE14:
 1288 00f2 FFF7FEFF 		bl	dbg_check_lock_from_isr
 1289              		.loc 1 363 0
 1290 00f6 9DF80330 		ldrb	r3, [sp, #3]	@ zero_extendqisi2
 1291 00fa 0198     		ldr	r0, [sp, #4]
 1292 00fc 1946     		mov	r1, r3
 1293 00fe FFF7FEFF 		bl	usbStartTransmitI
 1294              	.L54:
 1295              		.loc 1 366 0
 1296 0102 FFF7FEFF 		bl	dbg_check_unlock_from_isr
 1297              	.LBB15:
 1298 0106 0023     		movs	r3, #0
 1299              	@ 366 "/home/ergae/r2p-sdk/core/ChibiOS/os/hal/src/serial_usb.c" 1
 1300 0108 83F31188 		msr     BASEPRI, r3
 1301              	@ 0 "" 2
 1302              		.thumb
 1303              	.L50:
 1304              	.LBE15:
 1305              		.loc 1 367 0
 1306 010c 05B0     		add	sp, sp, #20
 1307              		.cfi_def_cfa_offset 4
 1308              		@ sp needed
 1309 010e 5DF804FB 		ldr	pc, [sp], #4
 1310              		.cfi_endproc
 1311              	.LFE134:
 1312              		.size	sduDataTransmitted, .-sduDataTransmitted
 1313 0112 00BFAFF3 		.section	.text.sduDataReceived,"ax",%progbits
 1313      0080AFF3 
 1313      0080AFF3 
 1313      0080
 1314              		.align	2
 1315              		.p2align 4,,15
 1316              		.global	sduDataReceived
 1317              		.thumb
 1318              		.thumb_func
 1319              		.type	sduDataReceived, %function
 1320              	sduDataReceived:
 1321              	.LFB135:
 1322              		.loc 1 377 0
 1323              		.cfi_startproc
 1324              		@ args = 0, pretend = 0, frame = 24
 1325              		@ frame_needed = 0, uses_anonymous_args = 0
 1326 0000 00B5     		push	{lr}
 1327              		.cfi_def_cfa_offset 4
 1328              		.cfi_offset 14, -4
 1329 0002 87B0     		sub	sp, sp, #28
 1330              		.cfi_def_cfa_offset 32
 1331 0004 0190     		str	r0, [sp, #4]
 1332 0006 0B46     		mov	r3, r1
 1333 0008 8DF80330 		strb	r3, [sp, #3]
 1334              		.loc 1 379 0
 1335 000c 9DF80330 		ldrb	r3, [sp, #3]	@ zero_extendqisi2
 1336 0010 5A1E     		subs	r2, r3, #1
ARM GAS  /tmp/ccQjMht4.s 			page 25


 1337 0012 019B     		ldr	r3, [sp, #4]
 1338 0014 1232     		adds	r2, r2, #18
 1339 0016 53F82230 		ldr	r3, [r3, r2, lsl #2]
 1340 001a 0593     		str	r3, [sp, #20]
 1341              		.loc 1 381 0
 1342 001c 059B     		ldr	r3, [sp, #20]
 1343 001e 002B     		cmp	r3, #0
 1344 0020 00D1     		bne	.L56
 1345              		.loc 1 382 0
 1346 0022 49E0     		b	.L55
 1347              	.L56:
 1348              	.LBB16:
 1349              		.loc 1 384 0
 1350 0024 2023     		movs	r3, #32
 1351              	@ 384 "/home/ergae/r2p-sdk/core/ChibiOS/os/hal/src/serial_usb.c" 1
 1352 0026 83F31188 		msr     BASEPRI, r3
 1353              	@ 0 "" 2
 1354              		.thumb
 1355              	.LBE16:
 1356 002a FFF7FEFF 		bl	dbg_check_lock_from_isr
 1357              		.loc 1 385 0
 1358 002e 059B     		ldr	r3, [sp, #20]
 1359 0030 0433     		adds	r3, r3, #4
 1360 0032 1846     		mov	r0, r3
 1361 0034 0421     		movs	r1, #4
 1362 0036 FFF7FEFF 		bl	chEvtBroadcastFlagsI
 1363              		.loc 1 389 0
 1364 003a 9DF80330 		ldrb	r3, [sp, #3]	@ zero_extendqisi2
 1365 003e 019A     		ldr	r2, [sp, #4]
 1366 0040 0233     		adds	r3, r3, #2
 1367 0042 9B00     		lsls	r3, r3, #2
 1368 0044 1344     		add	r3, r3, r2
 1369 0046 5B68     		ldr	r3, [r3, #4]
 1370 0048 5B8A     		ldrh	r3, [r3, #18]
 1371 004a 0493     		str	r3, [sp, #16]
 1372              		.loc 1 390 0
 1373 004c 059B     		ldr	r3, [sp, #20]
 1374 004e DB69     		ldr	r3, [r3, #28]
 1375 0050 1A46     		mov	r2, r3
 1376 0052 059B     		ldr	r3, [sp, #20]
 1377 0054 9B69     		ldr	r3, [r3, #24]
 1378 0056 D31A     		subs	r3, r2, r3
 1379 0058 1A46     		mov	r2, r3
 1380 005a 059B     		ldr	r3, [sp, #20]
 1381 005c 5B69     		ldr	r3, [r3, #20]
 1382 005e D31A     		subs	r3, r2, r3
 1383 0060 0393     		str	r3, [sp, #12]
 1384 0062 039A     		ldr	r2, [sp, #12]
 1385 0064 049B     		ldr	r3, [sp, #16]
 1386 0066 9A42     		cmp	r2, r3
 1387 0068 21D3     		bcc	.L58
 1388              		.loc 1 393 0
 1389 006a FFF7FEFF 		bl	dbg_check_unlock_from_isr
 1390              	.LBB17:
 1391 006e 0023     		movs	r3, #0
 1392              	@ 393 "/home/ergae/r2p-sdk/core/ChibiOS/os/hal/src/serial_usb.c" 1
 1393 0070 83F31188 		msr     BASEPRI, r3
ARM GAS  /tmp/ccQjMht4.s 			page 26


 1394              	@ 0 "" 2
 1395              		.thumb
 1396              	.LBE17:
 1397              		.loc 1 395 0
 1398 0074 039A     		ldr	r2, [sp, #12]
 1399 0076 049B     		ldr	r3, [sp, #16]
 1400 0078 B2FBF3F3 		udiv	r3, r2, r3
 1401 007c 049A     		ldr	r2, [sp, #16]
 1402 007e 02FB03F3 		mul	r3, r2, r3
 1403 0082 0393     		str	r3, [sp, #12]
 1404              		.loc 1 396 0
 1405 0084 059B     		ldr	r3, [sp, #20]
 1406 0086 0C33     		adds	r3, r3, #12
 1407 0088 9DF80320 		ldrb	r2, [sp, #3]	@ zero_extendqisi2
 1408 008c 0198     		ldr	r0, [sp, #4]
 1409 008e 1146     		mov	r1, r2
 1410 0090 1A46     		mov	r2, r3
 1411 0092 039B     		ldr	r3, [sp, #12]
 1412 0094 FFF7FEFF 		bl	usbPrepareQueuedReceive
 1413              	.LBB18:
 1414              		.loc 1 398 0
 1415 0098 2023     		movs	r3, #32
 1416              	@ 398 "/home/ergae/r2p-sdk/core/ChibiOS/os/hal/src/serial_usb.c" 1
 1417 009a 83F31188 		msr     BASEPRI, r3
 1418              	@ 0 "" 2
 1419              		.thumb
 1420              	.LBE18:
 1421 009e FFF7FEFF 		bl	dbg_check_lock_from_isr
 1422              		.loc 1 399 0
 1423 00a2 9DF80330 		ldrb	r3, [sp, #3]	@ zero_extendqisi2
 1424 00a6 0198     		ldr	r0, [sp, #4]
 1425 00a8 1946     		mov	r1, r3
 1426 00aa FFF7FEFF 		bl	usbStartReceiveI
 1427              	.L58:
 1428              		.loc 1 402 0
 1429 00ae FFF7FEFF 		bl	dbg_check_unlock_from_isr
 1430              	.LBB19:
 1431 00b2 0023     		movs	r3, #0
 1432              	@ 402 "/home/ergae/r2p-sdk/core/ChibiOS/os/hal/src/serial_usb.c" 1
 1433 00b4 83F31188 		msr     BASEPRI, r3
 1434              	@ 0 "" 2
 1435              		.thumb
 1436              	.L55:
 1437              	.LBE19:
 1438              		.loc 1 403 0
 1439 00b8 07B0     		add	sp, sp, #28
 1440              		.cfi_def_cfa_offset 4
 1441              		@ sp needed
 1442 00ba 5DF804FB 		ldr	pc, [sp], #4
 1443              		.cfi_endproc
 1444              	.LFE135:
 1445              		.size	sduDataReceived, .-sduDataReceived
 1446 00be 00BF     		.section	.text.sduInterruptTransmitted,"ax",%progbits
 1447              		.align	2
 1448              		.p2align 4,,15
 1449              		.global	sduInterruptTransmitted
 1450              		.thumb
ARM GAS  /tmp/ccQjMht4.s 			page 27


 1451              		.thumb_func
 1452              		.type	sduInterruptTransmitted, %function
 1453              	sduInterruptTransmitted:
 1454              	.LFB136:
 1455              		.loc 1 413 0
 1456              		.cfi_startproc
 1457              		@ args = 0, pretend = 0, frame = 8
 1458              		@ frame_needed = 0, uses_anonymous_args = 0
 1459              		@ link register save eliminated.
 1460 0000 82B0     		sub	sp, sp, #8
 1461              		.cfi_def_cfa_offset 8
 1462 0002 0190     		str	r0, [sp, #4]
 1463 0004 0B46     		mov	r3, r1
 1464 0006 8DF80330 		strb	r3, [sp, #3]
 1465              		.loc 1 417 0
 1466 000a 02B0     		add	sp, sp, #8
 1467              		.cfi_def_cfa_offset 0
 1468              		@ sp needed
 1469 000c 7047     		bx	lr
 1470              		.cfi_endproc
 1471              	.LFE136:
 1472              		.size	sduInterruptTransmitted, .-sduInterruptTransmitted
 1473 000e 00BF     		.text
 1474              	.Letext0:
 1475              		.file 2 "/home/ergae/r2p-sdk/tools/gcc-arm-none-eabi-4_9-2014q4/lib/gcc/arm-none-eabi/4.9.3/includ
 1476              		.file 3 "/home/ergae/r2p-sdk/tools/gcc-arm-none-eabi-4_9-2014q4/arm-none-eabi/include/machine/_def
 1477              		.file 4 "/home/ergae/r2p-sdk/tools/gcc-arm-none-eabi-4_9-2014q4/arm-none-eabi/include/stdint.h"
 1478              		.file 5 "/home/ergae/r2p-sdk/core/ChibiOS/os/ports/GCC/ARMCMx/chtypes.h"
 1479              		.file 6 "/home/ergae/r2p-sdk/core/ChibiOS/os/kernel/include/chlists.h"
 1480              		.file 7 "/home/ergae/r2p-sdk/core/ChibiOS/os/kernel/include/chthreads.h"
 1481              		.file 8 "/home/ergae/r2p-sdk/core/ChibiOS/os/ports/GCC/ARMCMx/chcore_v7m.h"
 1482              		.file 9 "/home/ergae/r2p-sdk/core/ChibiOS/os/kernel/include/chmtx.h"
 1483              		.file 10 "/home/ergae/r2p-sdk/core/ChibiOS/os/kernel/include/chevents.h"
 1484              		.file 11 "/home/ergae/r2p-sdk/core/ChibiOS/os/kernel/include/chqueues.h"
 1485              		.file 12 "/home/ergae/r2p-sdk/core/ChibiOS/os/hal/include/usb.h"
 1486              		.file 13 "/home/ergae/r2p-sdk/core/ChibiOS/os/hal/platforms/STM32/USBv1/usb_lld.h"
 1487              		.file 14 "/home/ergae/r2p-sdk/core/ChibiOS/os/hal/include/serial_usb.h"
 1488              		.file 15 "/home/ergae/r2p-sdk/core/ChibiOS/os/ports/common/ARMCMx/CMSIS/include/core_cm4.h"