ARM GAS  /tmp/ccCFeLkC.s 			page 1


   1              		.syntax unified
   2              		.cpu cortex-m4
   3              		.eabi_attribute 27, 3
   4              		.eabi_attribute 28, 1
   5              		.fpu fpv4-sp-d16
   6              		.eabi_attribute 20, 1
   7              		.eabi_attribute 21, 1
   8              		.eabi_attribute 23, 3
   9              		.eabi_attribute 24, 1
  10              		.eabi_attribute 25, 1
  11              		.eabi_attribute 26, 1
  12              		.eabi_attribute 30, 6
  13              		.eabi_attribute 34, 1
  14              		.eabi_attribute 18, 4
  15              		.thumb
  16              		.file	"serial_lld.c"
  17              		.text
  18              	.Ltext0:
  19              		.cfi_sections	.debug_frame
  20              		.global	SD1
  21              		.section	.bss.SD1,"aw",%nobits
  22              		.align	2
  23              		.type	SD1, %object
  24              		.size	SD1, 604
  25              	SD1:
  26 0000 00000000 		.space	604
  26      00000000 
  26      00000000 
  26      00000000 
  26      00000000 
  27              		.section	.rodata.default_config,"a",%progbits
  28              		.align	2
  29              		.type	default_config, %object
  30              		.size	default_config, 16
  31              	default_config:
  32 0000 00C20100 		.word	115200
  33 0004 00000000 		.word	0
  34 0008 00400000 		.word	16384
  35 000c 00000000 		.word	0
  36              		.section	.text.usart_init,"ax",%progbits
  37              		.align	2
  38              		.p2align 4,,15
  39              		.thumb
  40              		.thumb_func
  41              		.type	usart_init, %function
  42              	usart_init:
  43              	.LFB118:
  44              		.file 1 "/home/ergae/r2p-sdk/core/ChibiOS/os/hal/platforms/STM32/USARTv2/serial_lld.c"
  45              		.loc 1 92 0
  46              		.cfi_startproc
  47              		@ args = 0, pretend = 0, frame = 16
  48              		@ frame_needed = 0, uses_anonymous_args = 0
  49              		@ link register save eliminated.
  50 0000 84B0     		sub	sp, sp, #16
  51              		.cfi_def_cfa_offset 16
  52 0002 0190     		str	r0, [sp, #4]
  53 0004 0091     		str	r1, [sp]
ARM GAS  /tmp/ccCFeLkC.s 			page 2


  54              		.loc 1 93 0
  55 0006 019B     		ldr	r3, [sp, #4]
  56 0008 D3F85432 		ldr	r3, [r3, #596]
  57 000c 0393     		str	r3, [sp, #12]
  58              		.loc 1 96 0
  59 000e 019B     		ldr	r3, [sp, #4]
  60 0010 D3F85822 		ldr	r2, [r3, #600]
  61 0014 009B     		ldr	r3, [sp]
  62 0016 1B68     		ldr	r3, [r3]
  63 0018 B2FBF3F3 		udiv	r3, r2, r3
  64 001c 9AB2     		uxth	r2, r3
  65 001e 039B     		ldr	r3, [sp, #12]
  66 0020 9A81     		strh	r2, [r3, #12]	@ movhi
  67              		.loc 1 99 0
  68 0022 009B     		ldr	r3, [sp]
  69 0024 9B68     		ldr	r3, [r3, #8]
  70 0026 43F04002 		orr	r2, r3, #64
  71 002a 039B     		ldr	r3, [sp, #12]
  72 002c 5A60     		str	r2, [r3, #4]
  73              		.loc 1 100 0
  74 002e 009B     		ldr	r3, [sp]
  75 0030 DB68     		ldr	r3, [r3, #12]
  76 0032 43F00102 		orr	r2, r3, #1
  77 0036 039B     		ldr	r3, [sp, #12]
  78 0038 9A60     		str	r2, [r3, #8]
  79              		.loc 1 101 0
  80 003a 009B     		ldr	r3, [sp]
  81 003c 5B68     		ldr	r3, [r3, #4]
  82              		.loc 1 102 0
  83 003e 43F49673 		orr	r3, r3, #300
  84 0042 43F00103 		orr	r3, r3, #1
  85              		.loc 1 101 0
  86 0046 039A     		ldr	r2, [sp, #12]
  87 0048 1360     		str	r3, [r2]
  88              		.loc 1 104 0
  89 004a 039B     		ldr	r3, [sp, #12]
  90 004c 4FF0FF32 		mov	r2, #-1
  91 0050 1A62     		str	r2, [r3, #32]
  92              		.loc 1 105 0
  93 0052 04B0     		add	sp, sp, #16
  94              		.cfi_def_cfa_offset 0
  95              		@ sp needed
  96 0054 7047     		bx	lr
  97              		.cfi_endproc
  98              	.LFE118:
  99              		.size	usart_init, .-usart_init
 100 0056 00BFAFF3 		.section	.text.usart_deinit,"ax",%progbits
 100      0080AFF3 
 100      0080
 101              		.align	2
 102              		.p2align 4,,15
 103              		.thumb
 104              		.thumb_func
 105              		.type	usart_deinit, %function
 106              	usart_deinit:
 107              	.LFB119:
 108              		.loc 1 113 0
ARM GAS  /tmp/ccCFeLkC.s 			page 3


 109              		.cfi_startproc
 110              		@ args = 0, pretend = 0, frame = 8
 111              		@ frame_needed = 0, uses_anonymous_args = 0
 112              		@ link register save eliminated.
 113 0000 82B0     		sub	sp, sp, #8
 114              		.cfi_def_cfa_offset 8
 115 0002 0190     		str	r0, [sp, #4]
 116              		.loc 1 115 0
 117 0004 019B     		ldr	r3, [sp, #4]
 118 0006 0022     		movs	r2, #0
 119 0008 1A60     		str	r2, [r3]
 120              		.loc 1 116 0
 121 000a 019B     		ldr	r3, [sp, #4]
 122 000c 0022     		movs	r2, #0
 123 000e 5A60     		str	r2, [r3, #4]
 124              		.loc 1 117 0
 125 0010 019B     		ldr	r3, [sp, #4]
 126 0012 0022     		movs	r2, #0
 127 0014 9A60     		str	r2, [r3, #8]
 128              		.loc 1 118 0
 129 0016 02B0     		add	sp, sp, #8
 130              		.cfi_def_cfa_offset 0
 131              		@ sp needed
 132 0018 7047     		bx	lr
 133              		.cfi_endproc
 134              	.LFE119:
 135              		.size	usart_deinit, .-usart_deinit
 136 001a 00BFAFF3 		.section	.text.set_error,"ax",%progbits
 136      0080
 137              		.align	2
 138              		.p2align 4,,15
 139              		.thumb
 140              		.thumb_func
 141              		.type	set_error, %function
 142              	set_error:
 143              	.LFB120:
 144              		.loc 1 126 0
 145              		.cfi_startproc
 146              		@ args = 0, pretend = 0, frame = 16
 147              		@ frame_needed = 0, uses_anonymous_args = 0
 148 0000 00B5     		push	{lr}
 149              		.cfi_def_cfa_offset 4
 150              		.cfi_offset 14, -4
 151 0002 85B0     		sub	sp, sp, #20
 152              		.cfi_def_cfa_offset 24
 153 0004 0190     		str	r0, [sp, #4]
 154 0006 0091     		str	r1, [sp]
 155              		.loc 1 127 0
 156 0008 0023     		movs	r3, #0
 157 000a 0393     		str	r3, [sp, #12]
 158              		.loc 1 129 0
 159 000c 009B     		ldr	r3, [sp]
 160 000e 03F00803 		and	r3, r3, #8
 161 0012 002B     		cmp	r3, #0
 162 0014 03D0     		beq	.L4
 163              		.loc 1 130 0
 164 0016 039B     		ldr	r3, [sp, #12]
ARM GAS  /tmp/ccCFeLkC.s 			page 4


 165 0018 43F08003 		orr	r3, r3, #128
 166 001c 0393     		str	r3, [sp, #12]
 167              	.L4:
 168              		.loc 1 131 0
 169 001e 009B     		ldr	r3, [sp]
 170 0020 03F00103 		and	r3, r3, #1
 171 0024 002B     		cmp	r3, #0
 172 0026 03D0     		beq	.L5
 173              		.loc 1 132 0
 174 0028 039B     		ldr	r3, [sp, #12]
 175 002a 43F02003 		orr	r3, r3, #32
 176 002e 0393     		str	r3, [sp, #12]
 177              	.L5:
 178              		.loc 1 133 0
 179 0030 009B     		ldr	r3, [sp]
 180 0032 03F00203 		and	r3, r3, #2
 181 0036 002B     		cmp	r3, #0
 182 0038 03D0     		beq	.L6
 183              		.loc 1 134 0
 184 003a 039B     		ldr	r3, [sp, #12]
 185 003c 43F04003 		orr	r3, r3, #64
 186 0040 0393     		str	r3, [sp, #12]
 187              	.L6:
 188              		.loc 1 135 0
 189 0042 009B     		ldr	r3, [sp]
 190 0044 03F00403 		and	r3, r3, #4
 191 0048 002B     		cmp	r3, #0
 192 004a 03D0     		beq	.L7
 193              		.loc 1 136 0
 194 004c 039B     		ldr	r3, [sp, #12]
 195 004e 43F48073 		orr	r3, r3, #256
 196 0052 0393     		str	r3, [sp, #12]
 197              	.L7:
 198              	.LBB2:
 199              		.loc 1 137 0
 200 0054 2023     		movs	r3, #32
 201              	@ 137 "/home/ergae/r2p-sdk/core/ChibiOS/os/hal/platforms/STM32/USARTv2/serial_lld.c" 1
 202 0056 83F31188 		msr     BASEPRI, r3
 203              	@ 0 "" 2
 204              		.thumb
 205              	.LBE2:
 206 005a FFF7FEFF 		bl	dbg_check_lock_from_isr
 207              		.loc 1 138 0
 208 005e 019B     		ldr	r3, [sp, #4]
 209 0060 0433     		adds	r3, r3, #4
 210 0062 1846     		mov	r0, r3
 211 0064 0399     		ldr	r1, [sp, #12]
 212 0066 FFF7FEFF 		bl	chEvtBroadcastFlagsI
 213              		.loc 1 139 0
 214 006a FFF7FEFF 		bl	dbg_check_unlock_from_isr
 215              	.LBB3:
 216 006e 0023     		movs	r3, #0
 217              	@ 139 "/home/ergae/r2p-sdk/core/ChibiOS/os/hal/platforms/STM32/USARTv2/serial_lld.c" 1
 218 0070 83F31188 		msr     BASEPRI, r3
 219              	@ 0 "" 2
 220              		.thumb
 221              	.LBE3:
ARM GAS  /tmp/ccCFeLkC.s 			page 5


 222              		.loc 1 140 0
 223 0074 05B0     		add	sp, sp, #20
 224              		.cfi_def_cfa_offset 4
 225              		@ sp needed
 226 0076 5DF804FB 		ldr	pc, [sp], #4
 227              		.cfi_endproc
 228              	.LFE120:
 229              		.size	set_error, .-set_error
 230 007a 00BFAFF3 		.section	.text.serve_interrupt,"ax",%progbits
 230      0080
 231              		.align	2
 232              		.p2align 4,,15
 233              		.thumb
 234              		.thumb_func
 235              		.type	serve_interrupt, %function
 236              	serve_interrupt:
 237              	.LFB121:
 238              		.loc 1 147 0
 239              		.cfi_startproc
 240              		@ args = 0, pretend = 0, frame = 24
 241              		@ frame_needed = 0, uses_anonymous_args = 0
 242 0000 00B5     		push	{lr}
 243              		.cfi_def_cfa_offset 4
 244              		.cfi_offset 14, -4
 245 0002 87B0     		sub	sp, sp, #28
 246              		.cfi_def_cfa_offset 32
 247 0004 0190     		str	r0, [sp, #4]
 248              		.loc 1 148 0
 249 0006 019B     		ldr	r3, [sp, #4]
 250 0008 D3F85432 		ldr	r3, [r3, #596]
 251 000c 0593     		str	r3, [sp, #20]
 252              		.loc 1 149 0
 253 000e 059B     		ldr	r3, [sp, #20]
 254 0010 1B68     		ldr	r3, [r3]
 255 0012 0493     		str	r3, [sp, #16]
 256              		.loc 1 153 0
 257 0014 059B     		ldr	r3, [sp, #20]
 258 0016 DB69     		ldr	r3, [r3, #28]
 259 0018 0393     		str	r3, [sp, #12]
 260              		.loc 1 154 0
 261 001a 059B     		ldr	r3, [sp, #20]
 262 001c 039A     		ldr	r2, [sp, #12]
 263 001e 1A62     		str	r2, [r3, #32]
 264              		.loc 1 157 0
 265 0020 039B     		ldr	r3, [sp, #12]
 266 0022 03F00F03 		and	r3, r3, #15
 267 0026 002B     		cmp	r3, #0
 268 0028 03D0     		beq	.L9
 269              		.loc 1 158 0
 270 002a 0198     		ldr	r0, [sp, #4]
 271 002c 0399     		ldr	r1, [sp, #12]
 272 002e FFF7FEFF 		bl	set_error
 273              	.L9:
 274              		.loc 1 161 0
 275 0032 039B     		ldr	r3, [sp, #12]
 276 0034 03F48073 		and	r3, r3, #256
 277 0038 002B     		cmp	r3, #0
ARM GAS  /tmp/ccCFeLkC.s 			page 6


 278 003a 10D0     		beq	.L10
 279              	.LBB4:
 280              		.loc 1 162 0
 281 003c 2023     		movs	r3, #32
 282              	@ 162 "/home/ergae/r2p-sdk/core/ChibiOS/os/hal/platforms/STM32/USARTv2/serial_lld.c" 1
 283 003e 83F31188 		msr     BASEPRI, r3
 284              	@ 0 "" 2
 285              		.thumb
 286              	.LBE4:
 287 0042 FFF7FEFF 		bl	dbg_check_lock_from_isr
 288              		.loc 1 163 0
 289 0046 019B     		ldr	r3, [sp, #4]
 290 0048 0433     		adds	r3, r3, #4
 291 004a 1846     		mov	r0, r3
 292 004c 4FF40071 		mov	r1, #512
 293 0050 FFF7FEFF 		bl	chEvtBroadcastFlagsI
 294              		.loc 1 164 0
 295 0054 FFF7FEFF 		bl	dbg_check_unlock_from_isr
 296              	.LBB5:
 297 0058 0023     		movs	r3, #0
 298              	@ 164 "/home/ergae/r2p-sdk/core/ChibiOS/os/hal/platforms/STM32/USARTv2/serial_lld.c" 1
 299 005a 83F31188 		msr     BASEPRI, r3
 300              	@ 0 "" 2
 301              		.thumb
 302              	.L10:
 303              	.LBE5:
 304              		.loc 1 168 0
 305 005e 039B     		ldr	r3, [sp, #12]
 306 0060 03F02003 		and	r3, r3, #32
 307 0064 002B     		cmp	r3, #0
 308 0066 11D0     		beq	.L11
 309              	.LBB6:
 310              		.loc 1 169 0
 311 0068 2023     		movs	r3, #32
 312              	@ 169 "/home/ergae/r2p-sdk/core/ChibiOS/os/hal/platforms/STM32/USARTv2/serial_lld.c" 1
 313 006a 83F31188 		msr     BASEPRI, r3
 314              	@ 0 "" 2
 315              		.thumb
 316              	.LBE6:
 317 006e FFF7FEFF 		bl	dbg_check_lock_from_isr
 318              		.loc 1 170 0
 319 0072 059B     		ldr	r3, [sp, #20]
 320 0074 9B8C     		ldrh	r3, [r3, #36]	@ movhi
 321 0076 9BB2     		uxth	r3, r3
 322 0078 DBB2     		uxtb	r3, r3
 323 007a 0198     		ldr	r0, [sp, #4]
 324 007c 1946     		mov	r1, r3
 325 007e FFF7FEFF 		bl	sdIncomingDataI
 326              		.loc 1 171 0
 327 0082 FFF7FEFF 		bl	dbg_check_unlock_from_isr
 328              	.LBB7:
 329 0086 0023     		movs	r3, #0
 330              	@ 171 "/home/ergae/r2p-sdk/core/ChibiOS/os/hal/platforms/STM32/USARTv2/serial_lld.c" 1
 331 0088 83F31188 		msr     BASEPRI, r3
 332              	@ 0 "" 2
 333              		.thumb
 334              	.L11:
ARM GAS  /tmp/ccCFeLkC.s 			page 7


 335              	.LBE7:
 336              		.loc 1 175 0
 337 008c 049B     		ldr	r3, [sp, #16]
 338 008e 03F08003 		and	r3, r3, #128
 339 0092 002B     		cmp	r3, #0
 340 0094 29D0     		beq	.L12
 341              		.loc 1 175 0 is_stmt 0 discriminator 1
 342 0096 039B     		ldr	r3, [sp, #12]
 343 0098 03F08003 		and	r3, r3, #128
 344 009c 002B     		cmp	r3, #0
 345 009e 24D0     		beq	.L12
 346              	.LBB8:
 347              	.LBB9:
 348              		.loc 1 177 0 is_stmt 1
 349 00a0 2023     		movs	r3, #32
 350              	@ 177 "/home/ergae/r2p-sdk/core/ChibiOS/os/hal/platforms/STM32/USARTv2/serial_lld.c" 1
 351 00a2 83F31188 		msr     BASEPRI, r3
 352              	@ 0 "" 2
 353              		.thumb
 354              	.LBE9:
 355 00a6 FFF7FEFF 		bl	dbg_check_lock_from_isr
 356              		.loc 1 178 0
 357 00aa 019B     		ldr	r3, [sp, #4]
 358 00ac 3033     		adds	r3, r3, #48
 359 00ae 1846     		mov	r0, r3
 360 00b0 FFF7FEFF 		bl	chOQGetI
 361 00b4 0290     		str	r0, [sp, #8]
 362              		.loc 1 179 0
 363 00b6 029B     		ldr	r3, [sp, #8]
 364 00b8 002B     		cmp	r3, #0
 365 00ba 0DDA     		bge	.L13
 366              		.loc 1 180 0
 367 00bc 019B     		ldr	r3, [sp, #4]
 368 00be 0433     		adds	r3, r3, #4
 369 00c0 1846     		mov	r0, r3
 370 00c2 0821     		movs	r1, #8
 371 00c4 FFF7FEFF 		bl	chEvtBroadcastFlagsI
 372              		.loc 1 181 0
 373 00c8 049B     		ldr	r3, [sp, #16]
 374 00ca 23F0C003 		bic	r3, r3, #192
 375 00ce 43F04002 		orr	r2, r3, #64
 376 00d2 059B     		ldr	r3, [sp, #20]
 377 00d4 1A60     		str	r2, [r3]
 378 00d6 03E0     		b	.L14
 379              	.L13:
 380              		.loc 1 184 0
 381 00d8 029B     		ldr	r3, [sp, #8]
 382 00da 9AB2     		uxth	r2, r3
 383 00dc 059B     		ldr	r3, [sp, #20]
 384 00de 1A85     		strh	r2, [r3, #40]	@ movhi
 385              	.L14:
 386              		.loc 1 185 0
 387 00e0 FFF7FEFF 		bl	dbg_check_unlock_from_isr
 388              	.LBB10:
 389 00e4 0023     		movs	r3, #0
 390              	@ 185 "/home/ergae/r2p-sdk/core/ChibiOS/os/hal/platforms/STM32/USARTv2/serial_lld.c" 1
 391 00e6 83F31188 		msr     BASEPRI, r3
ARM GAS  /tmp/ccCFeLkC.s 			page 8


 392              	@ 0 "" 2
 393              		.thumb
 394              	.L12:
 395              	.LBE10:
 396              	.LBE8:
 397              		.loc 1 189 0
 398 00ea 039B     		ldr	r3, [sp, #12]
 399 00ec 03F04003 		and	r3, r3, #64
 400 00f0 002B     		cmp	r3, #0
 401 00f2 26D0     		beq	.L8
 402              	.LBB11:
 403              		.loc 1 190 0
 404 00f4 2023     		movs	r3, #32
 405              	@ 190 "/home/ergae/r2p-sdk/core/ChibiOS/os/hal/platforms/STM32/USARTv2/serial_lld.c" 1
 406 00f6 83F31188 		msr     BASEPRI, r3
 407              	@ 0 "" 2
 408              		.thumb
 409              	.LBE11:
 410 00fa FFF7FEFF 		bl	dbg_check_lock_from_isr
 411              		.loc 1 191 0
 412 00fe 019B     		ldr	r3, [sp, #4]
 413 0100 5A6C     		ldr	r2, [r3, #68]
 414 0102 019B     		ldr	r3, [sp, #4]
 415 0104 9B6C     		ldr	r3, [r3, #72]
 416 0106 9A42     		cmp	r2, r3
 417 0108 05D1     		bne	.L16
 418              		.loc 1 191 0 is_stmt 0 discriminator 1
 419 010a 019B     		ldr	r3, [sp, #4]
 420 010c 9B6B     		ldr	r3, [r3, #56]
 421 010e 002B     		cmp	r3, #0
 422 0110 01D0     		beq	.L16
 423              		.loc 1 191 0 discriminator 3
 424 0112 0123     		movs	r3, #1
 425 0114 00E0     		b	.L17
 426              	.L16:
 427              		.loc 1 191 0 discriminator 4
 428 0116 0023     		movs	r3, #0
 429              	.L17:
 430              		.loc 1 191 0 discriminator 6
 431 0118 03F00103 		and	r3, r3, #1
 432 011c DBB2     		uxtb	r3, r3
 433 011e 002B     		cmp	r3, #0
 434 0120 05D0     		beq	.L18
 435              		.loc 1 192 0 is_stmt 1
 436 0122 019B     		ldr	r3, [sp, #4]
 437 0124 0433     		adds	r3, r3, #4
 438 0126 1846     		mov	r0, r3
 439 0128 1021     		movs	r1, #16
 440 012a FFF7FEFF 		bl	chEvtBroadcastFlagsI
 441              	.L18:
 442              		.loc 1 193 0
 443 012e 049B     		ldr	r3, [sp, #16]
 444 0130 23F04002 		bic	r2, r3, #64
 445 0134 059B     		ldr	r3, [sp, #20]
 446 0136 1A60     		str	r2, [r3]
 447              		.loc 1 194 0
 448 0138 FFF7FEFF 		bl	dbg_check_unlock_from_isr
ARM GAS  /tmp/ccCFeLkC.s 			page 9


 449              	.LBB12:
 450 013c 0023     		movs	r3, #0
 451              	@ 194 "/home/ergae/r2p-sdk/core/ChibiOS/os/hal/platforms/STM32/USARTv2/serial_lld.c" 1
 452 013e 83F31188 		msr     BASEPRI, r3
 453              	@ 0 "" 2
 454              		.thumb
 455              	.L8:
 456              	.LBE12:
 457              		.loc 1 196 0
 458 0142 07B0     		add	sp, sp, #28
 459              		.cfi_def_cfa_offset 4
 460              		@ sp needed
 461 0144 5DF804FB 		ldr	pc, [sp], #4
 462              		.cfi_endproc
 463              	.LFE121:
 464              		.size	serve_interrupt, .-serve_interrupt
 465 0148 AFF30080 		.section	.text.notify1,"ax",%progbits
 465      AFF30080 
 466              		.align	2
 467              		.p2align 4,,15
 468              		.thumb
 469              		.thumb_func
 470              		.type	notify1, %function
 471              	notify1:
 472              	.LFB122:
 473              		.loc 1 199 0
 474              		.cfi_startproc
 475              		@ args = 0, pretend = 0, frame = 8
 476              		@ frame_needed = 0, uses_anonymous_args = 0
 477              		@ link register save eliminated.
 478 0000 82B0     		sub	sp, sp, #8
 479              		.cfi_def_cfa_offset 8
 480 0002 0190     		str	r0, [sp, #4]
 481              		.loc 1 202 0
 482 0004 034A     		ldr	r2, .L20
 483 0006 034B     		ldr	r3, .L20
 484 0008 1B68     		ldr	r3, [r3]
 485 000a 43F08003 		orr	r3, r3, #128
 486 000e 1360     		str	r3, [r2]
 487              		.loc 1 203 0
 488 0010 02B0     		add	sp, sp, #8
 489              		.cfi_def_cfa_offset 0
 490              		@ sp needed
 491 0012 7047     		bx	lr
 492              	.L21:
 493              		.align	2
 494              	.L20:
 495 0014 00380140 		.word	1073821696
 496              		.cfi_endproc
 497              	.LFE122:
 498              		.size	notify1, .-notify1
 499 0018 AFF30080 		.section	.text.VectorD4,"ax",%progbits
 499      AFF30080 
 500              		.align	2
 501              		.p2align 4,,15
 502              		.global	VectorD4
 503              		.thumb
ARM GAS  /tmp/ccCFeLkC.s 			page 10


 504              		.thumb_func
 505              		.type	VectorD4, %function
 506              	VectorD4:
 507              	.LFB123:
 508              		.loc 1 259 0
 509              		.cfi_startproc
 510              		@ args = 0, pretend = 0, frame = 0
 511              		@ frame_needed = 0, uses_anonymous_args = 0
 512 0000 08B5     		push	{r3, lr}
 513              		.cfi_def_cfa_offset 8
 514              		.cfi_offset 3, -8
 515              		.cfi_offset 14, -4
 516              		.loc 1 261 0
 517 0002 FFF7FEFF 		bl	dbg_check_enter_isr
 518              		.loc 1 263 0
 519 0006 0448     		ldr	r0, .L23
 520 0008 FFF7FEFF 		bl	serve_interrupt
 521              		.loc 1 265 0
 522 000c FFF7FEFF 		bl	dbg_check_leave_isr
 523 0010 FFF7FEFF 		bl	_port_irq_epilogue
 524              		.loc 1 266 0
 525 0014 08BD     		pop	{r3, pc}
 526              	.L24:
 527 0016 00BF     		.align	2
 528              	.L23:
 529 0018 00000000 		.word	SD1
 530              		.cfi_endproc
 531              	.LFE123:
 532              		.size	VectorD4, .-VectorD4
 533 001c AFF30080 		.section	.text.sd_lld_init,"ax",%progbits
 534              		.align	2
 535              		.p2align 4,,15
 536              		.global	sd_lld_init
 537              		.thumb
 538              		.thumb_func
 539              		.type	sd_lld_init, %function
 540              	sd_lld_init:
 541              	.LFB124:
 542              		.loc 1 373 0
 543              		.cfi_startproc
 544              		@ args = 0, pretend = 0, frame = 0
 545              		@ frame_needed = 0, uses_anonymous_args = 0
 546 0000 08B5     		push	{r3, lr}
 547              		.cfi_def_cfa_offset 8
 548              		.cfi_offset 3, -8
 549              		.cfi_offset 14, -4
 550              		.loc 1 376 0
 551 0002 0748     		ldr	r0, .L26
 552 0004 0021     		movs	r1, #0
 553 0006 074A     		ldr	r2, .L26+4
 554 0008 FFF7FEFF 		bl	sdObjectInit
 555              		.loc 1 377 0
 556 000c 044B     		ldr	r3, .L26
 557 000e 064A     		ldr	r2, .L26+8
 558 0010 C3F85422 		str	r2, [r3, #596]
 559              		.loc 1 378 0
 560 0014 024B     		ldr	r3, .L26
ARM GAS  /tmp/ccCFeLkC.s 			page 11


 561 0016 054A     		ldr	r2, .L26+12
 562 0018 C3F85822 		str	r2, [r3, #600]
 563              		.loc 1 410 0
 564 001c 08BD     		pop	{r3, pc}
 565              	.L27:
 566 001e 00BF     		.align	2
 567              	.L26:
 568 0020 00000000 		.word	SD1
 569 0024 00000000 		.word	notify1
 570 0028 00380140 		.word	1073821696
 571 002c 00512502 		.word	36000000
 572              		.cfi_endproc
 573              	.LFE124:
 574              		.size	sd_lld_init, .-sd_lld_init
 575              		.section	.text.sd_lld_start,"ax",%progbits
 576              		.align	2
 577              		.p2align 4,,15
 578              		.global	sd_lld_start
 579              		.thumb
 580              		.thumb_func
 581              		.type	sd_lld_start, %function
 582              	sd_lld_start:
 583              	.LFB125:
 584              		.loc 1 422 0
 585              		.cfi_startproc
 586              		@ args = 0, pretend = 0, frame = 8
 587              		@ frame_needed = 0, uses_anonymous_args = 0
 588 0000 00B5     		push	{lr}
 589              		.cfi_def_cfa_offset 4
 590              		.cfi_offset 14, -4
 591 0002 83B0     		sub	sp, sp, #12
 592              		.cfi_def_cfa_offset 16
 593 0004 0190     		str	r0, [sp, #4]
 594 0006 0091     		str	r1, [sp]
 595              		.loc 1 424 0
 596 0008 009B     		ldr	r3, [sp]
 597 000a 002B     		cmp	r3, #0
 598 000c 01D1     		bne	.L29
 599              		.loc 1 425 0
 600 000e 0D4B     		ldr	r3, .L31
 601 0010 0093     		str	r3, [sp]
 602              	.L29:
 603              		.loc 1 427 0
 604 0012 019B     		ldr	r3, [sp, #4]
 605 0014 1B7A     		ldrb	r3, [r3, #8]	@ zero_extendqisi2
 606 0016 012B     		cmp	r3, #1
 607 0018 0DD1     		bne	.L30
 608              		.loc 1 429 0
 609 001a 019B     		ldr	r3, [sp, #4]
 610 001c 0A4A     		ldr	r2, .L31+4
 611 001e 9342     		cmp	r3, r2
 612 0020 09D1     		bne	.L30
 613              		.loc 1 430 0
 614 0022 0A4A     		ldr	r2, .L31+8
 615 0024 094B     		ldr	r3, .L31+8
 616 0026 9B69     		ldr	r3, [r3, #24]
 617 0028 43F48043 		orr	r3, r3, #16384
ARM GAS  /tmp/ccCFeLkC.s 			page 12


 618 002c 9361     		str	r3, [r2, #24]
 619              		.loc 1 431 0
 620 002e 2520     		movs	r0, #37
 621 0030 C021     		movs	r1, #192
 622 0032 FFF7FEFF 		bl	nvicEnableVector
 623              	.L30:
 624              		.loc 1 471 0
 625 0036 0198     		ldr	r0, [sp, #4]
 626 0038 0099     		ldr	r1, [sp]
 627 003a FFF7FEFF 		bl	usart_init
 628              		.loc 1 472 0
 629 003e 03B0     		add	sp, sp, #12
 630              		.cfi_def_cfa_offset 4
 631              		@ sp needed
 632 0040 5DF804FB 		ldr	pc, [sp], #4
 633              	.L32:
 634              		.align	2
 635              	.L31:
 636 0044 00000000 		.word	default_config
 637 0048 00000000 		.word	SD1
 638 004c 00100240 		.word	1073876992
 639              		.cfi_endproc
 640              	.LFE125:
 641              		.size	sd_lld_start, .-sd_lld_start
 642              		.section	.text.sd_lld_stop,"ax",%progbits
 643              		.align	2
 644              		.p2align 4,,15
 645              		.global	sd_lld_stop
 646              		.thumb
 647              		.thumb_func
 648              		.type	sd_lld_stop, %function
 649              	sd_lld_stop:
 650              	.LFB126:
 651              		.loc 1 483 0
 652              		.cfi_startproc
 653              		@ args = 0, pretend = 0, frame = 8
 654              		@ frame_needed = 0, uses_anonymous_args = 0
 655 0000 00B5     		push	{lr}
 656              		.cfi_def_cfa_offset 4
 657              		.cfi_offset 14, -4
 658 0002 83B0     		sub	sp, sp, #12
 659              		.cfi_def_cfa_offset 16
 660 0004 0190     		str	r0, [sp, #4]
 661              		.loc 1 485 0
 662 0006 019B     		ldr	r3, [sp, #4]
 663 0008 1B7A     		ldrb	r3, [r3, #8]	@ zero_extendqisi2
 664 000a 022B     		cmp	r3, #2
 665 000c 13D1     		bne	.L33
 666              		.loc 1 486 0
 667 000e 019B     		ldr	r3, [sp, #4]
 668 0010 D3F85432 		ldr	r3, [r3, #596]
 669 0014 1846     		mov	r0, r3
 670 0016 FFF7FEFF 		bl	usart_deinit
 671              		.loc 1 488 0
 672 001a 019B     		ldr	r3, [sp, #4]
 673 001c 074A     		ldr	r2, .L35
 674 001e 9342     		cmp	r3, r2
ARM GAS  /tmp/ccCFeLkC.s 			page 13


 675 0020 09D1     		bne	.L33
 676              		.loc 1 489 0
 677 0022 074A     		ldr	r2, .L35+4
 678 0024 064B     		ldr	r3, .L35+4
 679 0026 9B69     		ldr	r3, [r3, #24]
 680 0028 23F48043 		bic	r3, r3, #16384
 681 002c 9361     		str	r3, [r2, #24]
 682              		.loc 1 490 0
 683 002e 2520     		movs	r0, #37
 684 0030 FFF7FEFF 		bl	nvicDisableVector
 685              		.loc 1 491 0
 686 0034 00BF     		nop
 687              	.L33:
 688              		.loc 1 530 0
 689 0036 03B0     		add	sp, sp, #12
 690              		.cfi_def_cfa_offset 4
 691              		@ sp needed
 692 0038 5DF804FB 		ldr	pc, [sp], #4
 693              	.L36:
 694              		.align	2
 695              	.L35:
 696 003c 00000000 		.word	SD1
 697 0040 00100240 		.word	1073876992
 698              		.cfi_endproc
 699              	.LFE126:
 700              		.size	sd_lld_stop, .-sd_lld_stop
 701 0044 AFF30080 		.text
 701      AFF30080 
 701      AFF30080 
 702              	.Letext0:
 703              		.file 2 "/home/ergae/r2p-sdk/tools/gcc-arm-none-eabi-4_9-2014q4/lib/gcc/arm-none-eabi/4.9.3/includ
 704              		.file 3 "/home/ergae/r2p-sdk/tools/gcc-arm-none-eabi-4_9-2014q4/arm-none-eabi/include/machine/_def
 705              		.file 4 "/home/ergae/r2p-sdk/tools/gcc-arm-none-eabi-4_9-2014q4/arm-none-eabi/include/stdint.h"
 706              		.file 5 "/home/ergae/r2p-sdk/core/ChibiOS/os/ports/GCC/ARMCMx/chtypes.h"
 707              		.file 6 "/home/ergae/r2p-sdk/core/ChibiOS/os/kernel/include/chlists.h"
 708              		.file 7 "/home/ergae/r2p-sdk/core/ChibiOS/os/kernel/include/chthreads.h"
 709              		.file 8 "/home/ergae/r2p-sdk/core/ChibiOS/os/ports/GCC/ARMCMx/chcore_v7m.h"
 710              		.file 9 "/home/ergae/r2p-sdk/core/ChibiOS/os/kernel/include/chmtx.h"
 711              		.file 10 "/home/ergae/r2p-sdk/core/ChibiOS/os/kernel/include/chevents.h"
 712              		.file 11 "/home/ergae/r2p-sdk/core/ChibiOS/os/kernel/include/chqueues.h"
 713              		.file 12 "/home/ergae/r2p-sdk/core/ChibiOS/os/hal/platforms/STM32F30x/stm32f30x.h"
 714              		.file 13 "/home/ergae/r2p-sdk/core/ChibiOS/os/hal/include/serial.h"
 715              		.file 14 "/home/ergae/r2p-sdk/core/ChibiOS/os/hal/platforms/STM32/USARTv2/serial_lld.h"
 716              		.file 15 "/home/ergae/r2p-sdk/core/ChibiOS/os/ports/common/ARMCMx/CMSIS/include/core_cm4.h"