ARM GAS  /tmp/ccypRU8x.s 			page 1


   1              		.syntax unified
   2              		.cpu cortex-m4
   3              		.eabi_attribute 27, 3
   4              		.eabi_attribute 28, 1
   5              		.fpu fpv4-sp-d16
   6              		.eabi_attribute 20, 1
   7              		.eabi_attribute 21, 1
   8              		.eabi_attribute 23, 3
   9              		.eabi_attribute 24, 1
  10              		.eabi_attribute 25, 1
  11              		.eabi_attribute 26, 1
  12              		.eabi_attribute 30, 6
  13              		.eabi_attribute 34, 1
  14              		.eabi_attribute 18, 4
  15              		.thumb
  16              		.file	"shell_node.cpp"
  17              		.text
  18              	.Ltext0:
  19              		.cfi_sections	.debug_frame
  20              		.section	.text._ZL8chprintfP20BaseSequentialStreamPKcz,"ax",%progbits
  21              		.align	2
  22              		.p2align 4,,15
  23              		.thumb
  24              		.thumb_func
  25              		.type	_ZL8chprintfP20BaseSequentialStreamPKcz, %function
  26              	_ZL8chprintfP20BaseSequentialStreamPKcz:
  27              	.LFB118:
  28              		.file 1 "/home/ergae/r2p-sdk/core/ChibiOS/os/various/chprintf.h"
  29              		.loc 1 69 0
  30              		.cfi_startproc
  31              		@ args = 4, pretend = 12, frame = 16
  32              		@ frame_needed = 0, uses_anonymous_args = 1
  33 0000 0EB4     		push	{r1, r2, r3}
  34              		.cfi_def_cfa_offset 12
  35              		.cfi_offset 1, -12
  36              		.cfi_offset 2, -8
  37              		.cfi_offset 3, -4
  38 0002 00B5     		push	{lr}
  39              		.cfi_def_cfa_offset 16
  40              		.cfi_offset 14, -16
  41 0004 84B0     		sub	sp, sp, #16
  42              		.cfi_def_cfa_offset 32
  43 0006 0190     		str	r0, [sp, #4]
  44              	.LBB52:
  45              		.loc 1 72 0
  46 0008 06AB     		add	r3, sp, #24
  47 000a 0393     		str	r3, [sp, #12]
  48              		.loc 1 73 0
  49 000c 0198     		ldr	r0, [sp, #4]
  50 000e 0599     		ldr	r1, [sp, #20]
  51 0010 039A     		ldr	r2, [sp, #12]
  52 0012 FFF7FEFF 		bl	chvprintf
  53              	.LBE52:
  54              		.loc 1 75 0
  55 0016 04B0     		add	sp, sp, #16
  56              		.cfi_def_cfa_offset 16
  57              		@ sp needed
ARM GAS  /tmp/ccypRU8x.s 			page 2


  58 0018 5DF804EB 		ldr	lr, [sp], #4
  59              		.cfi_restore 14
  60              		.cfi_def_cfa_offset 12
  61 001c 03B0     		add	sp, sp, #12
  62              		.cfi_restore 3
  63              		.cfi_restore 2
  64              		.cfi_restore 1
  65              		.cfi_def_cfa_offset 0
  66 001e 7047     		bx	lr
  67              		.cfi_endproc
  68              	.LFE118:
  69              		.size	_ZL8chprintfP20BaseSequentialStreamPKcz, .-_ZL8chprintfP20BaseSequentialStreamPKcz
  70              		.section	.text._ZN3r2p8SysLock_7acquireEv,"axG",%progbits,_ZN3r2p8SysLock_7acquireEv,comdat
  71              		.align	2
  72              		.p2align 4,,15
  73              		.weak	_ZN3r2p8SysLock_7acquireEv
  74              		.thumb
  75              		.thumb_func
  76              		.type	_ZN3r2p8SysLock_7acquireEv, %function
  77              	_ZN3r2p8SysLock_7acquireEv:
  78              	.LFB130:
  79              		.file 2 "/home/ergae/r2p-sdk/core/Middleware/port/chibios/include/r2p/impl/SysLock_.hpp"
  80              		.loc 2 20 0
  81              		.cfi_startproc
  82              		@ args = 0, pretend = 0, frame = 0
  83              		@ frame_needed = 0, uses_anonymous_args = 0
  84 0000 08B5     		push	{r3, lr}
  85              		.cfi_def_cfa_offset 8
  86              		.cfi_offset 3, -8
  87              		.cfi_offset 14, -4
  88              	.LBB53:
  89              	.LBB54:
  90              	.LBB55:
  91              		.loc 2 22 0
  92 0002 2023     		movs	r3, #32
  93              	@ 22 "/home/ergae/r2p-sdk/core/Middleware/port/chibios/include/r2p/impl/SysLock_.hpp" 1
  94 0004 83F31188 		msr     BASEPRI, r3
  95              	@ 0 "" 2
  96              		.thumb
  97              	.LBE55:
  98 0008 FFF7FEFF 		bl	dbg_check_lock
  99              	.LBE54:
 100              	.LBE53:
 101              		.loc 2 23 0
 102 000c 08BD     		pop	{r3, pc}
 103              		.cfi_endproc
 104              	.LFE130:
 105              		.size	_ZN3r2p8SysLock_7acquireEv, .-_ZN3r2p8SysLock_7acquireEv
 106 000e 00BF     		.section	.text._ZN3r2p8SysLock_7releaseEv,"axG",%progbits,_ZN3r2p8SysLock_7releaseEv,comdat
 107              		.align	2
 108              		.p2align 4,,15
 109              		.weak	_ZN3r2p8SysLock_7releaseEv
 110              		.thumb
 111              		.thumb_func
 112              		.type	_ZN3r2p8SysLock_7releaseEv, %function
 113              	_ZN3r2p8SysLock_7releaseEv:
 114              	.LFB131:
ARM GAS  /tmp/ccypRU8x.s 			page 3


 115              		.loc 2 27 0
 116              		.cfi_startproc
 117              		@ args = 0, pretend = 0, frame = 0
 118              		@ frame_needed = 0, uses_anonymous_args = 0
 119 0000 08B5     		push	{r3, lr}
 120              		.cfi_def_cfa_offset 8
 121              		.cfi_offset 3, -8
 122              		.cfi_offset 14, -4
 123              	.LBB56:
 124              	.LBB57:
 125              		.loc 2 29 0
 126 0002 FFF7FEFF 		bl	dbg_check_unlock
 127              	.LBB58:
 128 0006 0023     		movs	r3, #0
 129              	@ 29 "/home/ergae/r2p-sdk/core/Middleware/port/chibios/include/r2p/impl/SysLock_.hpp" 1
 130 0008 83F31188 		msr     BASEPRI, r3
 131              	@ 0 "" 2
 132              		.thumb
 133              	.LBE58:
 134              	.LBE57:
 135              	.LBE56:
 136              		.loc 2 30 0
 137 000c 08BD     		pop	{r3, pc}
 138              		.cfi_endproc
 139              	.LFE131:
 140              		.size	_ZN3r2p8SysLock_7releaseEv, .-_ZN3r2p8SysLock_7releaseEv
 141 000e 00BF     		.section	.text._ZN3r2p7SysLock7acquireEv,"axG",%progbits,_ZN3r2p7SysLock7acquireEv,comdat
 142              		.align	2
 143              		.p2align 4,,15
 144              		.weak	_ZN3r2p7SysLock7acquireEv
 145              		.thumb
 146              		.thumb_func
 147              		.type	_ZN3r2p7SysLock7acquireEv, %function
 148              	_ZN3r2p7SysLock7acquireEv:
 149              	.LFB138:
 150              		.file 3 "/home/ergae/r2p-sdk/core/Middleware/include/r2p/SysLock.hpp"
 151              		.loc 3 27 0
 152              		.cfi_startproc
 153              		@ args = 0, pretend = 0, frame = 0
 154              		@ frame_needed = 0, uses_anonymous_args = 0
 155 0000 08B5     		push	{r3, lr}
 156              		.cfi_def_cfa_offset 8
 157              		.cfi_offset 3, -8
 158              		.cfi_offset 14, -4
 159              		.loc 3 29 0
 160 0002 FFF7FEFF 		bl	_ZN3r2p8SysLock_7acquireEv
 161              		.loc 3 30 0
 162 0006 08BD     		pop	{r3, pc}
 163              		.cfi_endproc
 164              	.LFE138:
 165              		.size	_ZN3r2p7SysLock7acquireEv, .-_ZN3r2p7SysLock7acquireEv
 166 0008 AFF30080 		.section	.text._ZN3r2p7SysLock7releaseEv,"axG",%progbits,_ZN3r2p7SysLock7releaseEv,comdat
 166      AFF30080 
 167              		.align	2
 168              		.p2align 4,,15
 169              		.weak	_ZN3r2p7SysLock7releaseEv
 170              		.thumb
ARM GAS  /tmp/ccypRU8x.s 			page 4


 171              		.thumb_func
 172              		.type	_ZN3r2p7SysLock7releaseEv, %function
 173              	_ZN3r2p7SysLock7releaseEv:
 174              	.LFB139:
 175              		.loc 3 34 0
 176              		.cfi_startproc
 177              		@ args = 0, pretend = 0, frame = 0
 178              		@ frame_needed = 0, uses_anonymous_args = 0
 179 0000 08B5     		push	{r3, lr}
 180              		.cfi_def_cfa_offset 8
 181              		.cfi_offset 3, -8
 182              		.cfi_offset 14, -4
 183              		.loc 3 36 0
 184 0002 FFF7FEFF 		bl	_ZN3r2p8SysLock_7releaseEv
 185              		.loc 3 37 0
 186 0006 08BD     		pop	{r3, pc}
 187              		.cfi_endproc
 188              	.LFE139:
 189              		.size	_ZN3r2p7SysLock7releaseEv, .-_ZN3r2p7SysLock7releaseEv
 190              		.section	.text._ZN3r2p11MemoryPool_12alloc_unsafeEv,"axG",%progbits,_ZN3r2p11MemoryPool_12alloc_un
 191              		.align	2
 192              		.p2align 4,,15
 193              		.weak	_ZN3r2p11MemoryPool_12alloc_unsafeEv
 194              		.thumb
 195              		.thumb_func
 196              		.type	_ZN3r2p11MemoryPool_12alloc_unsafeEv, %function
 197              	_ZN3r2p11MemoryPool_12alloc_unsafeEv:
 198              	.LFB237:
 199              		.file 4 "/home/ergae/r2p-sdk/core/Middleware/port/chibios/include/r2p/impl/MemoryPool_.hpp"
 200              		.loc 4 53 0
 201              		.cfi_startproc
 202              		@ args = 0, pretend = 0, frame = 8
 203              		@ frame_needed = 0, uses_anonymous_args = 0
 204 0000 00B5     		push	{lr}
 205              		.cfi_def_cfa_offset 4
 206              		.cfi_offset 14, -4
 207 0002 83B0     		sub	sp, sp, #12
 208              		.cfi_def_cfa_offset 16
 209 0004 0190     		str	r0, [sp, #4]
 210              		.loc 4 55 0
 211 0006 019B     		ldr	r3, [sp, #4]
 212 0008 1846     		mov	r0, r3
 213 000a FFF7FEFF 		bl	chPoolAllocI
 214 000e 0346     		mov	r3, r0
 215              		.loc 4 56 0
 216 0010 1846     		mov	r0, r3
 217 0012 03B0     		add	sp, sp, #12
 218              		.cfi_def_cfa_offset 4
 219              		@ sp needed
 220 0014 5DF804FB 		ldr	pc, [sp], #4
 221              		.cfi_endproc
 222              	.LFE237:
 223              		.size	_ZN3r2p11MemoryPool_12alloc_unsafeEv, .-_ZN3r2p11MemoryPool_12alloc_unsafeEv
 224 0018 AFF30080 		.section	.text._ZNK3r2p4Time8to_s_rawEv,"axG",%progbits,_ZNK3r2p4Time8to_s_rawEv,comdat
 224      AFF30080 
 225              		.align	2
 226              		.p2align 4,,15
ARM GAS  /tmp/ccypRU8x.s 			page 5


 227              		.weak	_ZNK3r2p4Time8to_s_rawEv
 228              		.thumb
 229              		.thumb_func
 230              		.type	_ZNK3r2p4Time8to_s_rawEv, %function
 231              	_ZNK3r2p4Time8to_s_rawEv:
 232              	.LFB257:
 233              		.file 5 "/home/ergae/r2p-sdk/core/Middleware/include/r2p/Time.hpp"
 234              		.loc 5 89 0
 235              		.cfi_startproc
 236              		@ args = 0, pretend = 0, frame = 8
 237              		@ frame_needed = 0, uses_anonymous_args = 0
 238              		@ link register save eliminated.
 239 0000 82B0     		sub	sp, sp, #8
 240              		.cfi_def_cfa_offset 8
 241 0002 0190     		str	r0, [sp, #4]
 242              		.loc 5 91 0
 243 0004 019B     		ldr	r3, [sp, #4]
 244 0006 1B68     		ldr	r3, [r3]
 245 0008 044A     		ldr	r2, .L10
 246 000a 82FB0312 		smull	r1, r2, r2, r3
 247 000e 9214     		asrs	r2, r2, #18
 248 0010 DB17     		asrs	r3, r3, #31
 249 0012 D31A     		subs	r3, r2, r3
 250              		.loc 5 92 0
 251 0014 1846     		mov	r0, r3
 252 0016 02B0     		add	sp, sp, #8
 253              		.cfi_def_cfa_offset 0
 254              		@ sp needed
 255 0018 7047     		bx	lr
 256              	.L11:
 257 001a 00BF     		.align	2
 258              	.L10:
 259 001c 83DE1B43 		.word	1125899907
 260              		.cfi_endproc
 261              	.LFE257:
 262              		.size	_ZNK3r2p4Time8to_s_rawEv, .-_ZNK3r2p4Time8to_s_rawEv
 263              		.section	.text._ZN3r2p4TimeaSERKS0_,"axG",%progbits,_ZN3r2p4TimeaSERKS0_,comdat
 264              		.align	2
 265              		.p2align 4,,15
 266              		.weak	_ZN3r2p4TimeaSERKS0_
 267              		.thumb
 268              		.thumb_func
 269              		.type	_ZN3r2p4TimeaSERKS0_, %function
 270              	_ZN3r2p4TimeaSERKS0_:
 271              	.LFB263:
 272              		.loc 5 131 0
 273              		.cfi_startproc
 274              		@ args = 0, pretend = 0, frame = 8
 275              		@ frame_needed = 0, uses_anonymous_args = 0
 276              		@ link register save eliminated.
 277 0000 82B0     		sub	sp, sp, #8
 278              		.cfi_def_cfa_offset 8
 279 0002 0190     		str	r0, [sp, #4]
 280 0004 0091     		str	r1, [sp]
 281              		.loc 5 133 0
 282 0006 009B     		ldr	r3, [sp]
 283 0008 1A68     		ldr	r2, [r3]
ARM GAS  /tmp/ccypRU8x.s 			page 6


 284 000a 019B     		ldr	r3, [sp, #4]
 285 000c 1A60     		str	r2, [r3]
 286              		.loc 5 134 0
 287 000e 019B     		ldr	r3, [sp, #4]
 288              		.loc 5 135 0
 289 0010 1846     		mov	r0, r3
 290 0012 02B0     		add	sp, sp, #8
 291              		.cfi_def_cfa_offset 0
 292              		@ sp needed
 293 0014 7047     		bx	lr
 294              		.cfi_endproc
 295              	.LFE263:
 296              		.size	_ZN3r2p4TimeaSERKS0_, .-_ZN3r2p4TimeaSERKS0_
 297 0016 00BFAFF3 		.section	.text._ZN3r2p4Time2msEl,"axG",%progbits,_ZN3r2p4Time2msEl,comdat
 297      0080AFF3 
 297      0080
 298              		.align	2
 299              		.p2align 4,,15
 300              		.weak	_ZN3r2p4Time2msEl
 301              		.thumb
 302              		.thumb_func
 303              		.type	_ZN3r2p4Time2msEl, %function
 304              	_ZN3r2p4Time2msEl:
 305              	.LFB277:
 306              		.loc 5 184 0
 307              		.cfi_startproc
 308              		@ args = 0, pretend = 0, frame = 8
 309              		@ frame_needed = 0, uses_anonymous_args = 0
 310 0000 00B5     		push	{lr}
 311              		.cfi_def_cfa_offset 4
 312              		.cfi_offset 14, -4
 313 0002 83B0     		sub	sp, sp, #12
 314              		.cfi_def_cfa_offset 16
 315 0004 0190     		str	r0, [sp, #4]
 316 0006 0091     		str	r1, [sp]
 317              		.loc 5 186 0
 318 0008 009B     		ldr	r3, [sp]
 319 000a 4FF47A72 		mov	r2, #1000
 320 000e 02FB03F3 		mul	r3, r2, r3
 321 0012 0198     		ldr	r0, [sp, #4]
 322 0014 1946     		mov	r1, r3
 323 0016 FFF7FEFF 		bl	_ZN3r2p4TimeC1IlEET_
 324              		.loc 5 187 0
 325 001a 0198     		ldr	r0, [sp, #4]
 326 001c 03B0     		add	sp, sp, #12
 327              		.cfi_def_cfa_offset 4
 328              		@ sp needed
 329 001e 5DF804FB 		ldr	pc, [sp], #4
 330              		.cfi_endproc
 331              	.LFE277:
 332              		.size	_ZN3r2p4Time2msEl, .-_ZN3r2p4Time2msEl
 333 0022 00BFAFF3 		.section	.text._ZN3r2p7Message12reset_unsafeEv,"axG",%progbits,_ZN3r2p7Message12reset_unsafeEv,com
 333      0080AFF3 
 333      0080AFF3 
 333      0080
 334              		.align	2
 335              		.p2align 4,,15
ARM GAS  /tmp/ccypRU8x.s 			page 7


 336              		.weak	_ZN3r2p7Message12reset_unsafeEv
 337              		.thumb
 338              		.thumb_func
 339              		.type	_ZN3r2p7Message12reset_unsafeEv, %function
 340              	_ZN3r2p7Message12reset_unsafeEv:
 341              	.LFB293:
 342              		.file 6 "/home/ergae/r2p-sdk/core/Middleware/include/r2p/Message.hpp"
 343              		.loc 6 122 0
 344              		.cfi_startproc
 345              		@ args = 0, pretend = 0, frame = 8
 346              		@ frame_needed = 0, uses_anonymous_args = 0
 347              		@ link register save eliminated.
 348 0000 82B0     		sub	sp, sp, #8
 349              		.cfi_def_cfa_offset 8
 350 0002 0190     		str	r0, [sp, #4]
 351              		.loc 6 127 0
 352 0004 019B     		ldr	r3, [sp, #4]
 353 0006 0022     		movs	r2, #0
 354 0008 1A70     		strb	r2, [r3]
 355 000a 0022     		movs	r2, #0
 356 000c 5A70     		strb	r2, [r3, #1]
 357              		.loc 6 128 0
 358 000e 02B0     		add	sp, sp, #8
 359              		.cfi_def_cfa_offset 0
 360              		@ sp needed
 361 0010 7047     		bx	lr
 362              		.cfi_endproc
 363              	.LFE293:
 364              		.size	_ZN3r2p7Message12reset_unsafeEv, .-_ZN3r2p7Message12reset_unsafeEv
 365 0012 00BFAFF3 		.section	.text._ZN3r2p7MessageC2Ev,"axG",%progbits,_ZN3r2p7MessageC5Ev,comdat
 365      0080AFF3 
 365      0080AFF3 
 365      0080
 366              		.align	2
 367              		.p2align 4,,15
 368              		.weak	_ZN3r2p7MessageC2Ev
 369              		.thumb
 370              		.thumb_func
 371              		.type	_ZN3r2p7MessageC2Ev, %function
 372              	_ZN3r2p7MessageC2Ev:
 373              	.LFB295:
 374              		.loc 6 132 0
 375              		.cfi_startproc
 376              		@ args = 0, pretend = 0, frame = 8
 377              		@ frame_needed = 0, uses_anonymous_args = 0
 378              		@ link register save eliminated.
 379 0000 82B0     		sub	sp, sp, #8
 380              		.cfi_def_cfa_offset 8
 381 0002 0190     		str	r0, [sp, #4]
 382              	.LBB59:
 383              		.loc 6 137 0
 384 0004 019B     		ldr	r3, [sp, #4]
 385 0006 0022     		movs	r2, #0
 386 0008 1A70     		strb	r2, [r3]
 387 000a 0022     		movs	r2, #0
 388 000c 5A70     		strb	r2, [r3, #1]
 389              	.LBE59:
ARM GAS  /tmp/ccypRU8x.s 			page 8


 390              		.loc 6 138 0
 391 000e 019B     		ldr	r3, [sp, #4]
 392 0010 1846     		mov	r0, r3
 393 0012 02B0     		add	sp, sp, #8
 394              		.cfi_def_cfa_offset 0
 395              		@ sp needed
 396 0014 7047     		bx	lr
 397              		.cfi_endproc
 398              	.LFE295:
 399              		.size	_ZN3r2p7MessageC2Ev, .-_ZN3r2p7MessageC2Ev
 400              		.weak	_ZN3r2p7MessageC1Ev
 401              		.thumb_set _ZN3r2p7MessageC1Ev,_ZN3r2p7MessageC2Ev
 402 0016 00BFAFF3 		.section	.rodata
 402      0080AFF3 
 402      0080
 403              		.align	2
 404              	.LC0:
 405 0000 5232505F 		.ascii	"R2P_ASSERT()\000"
 405      41535345 
 405      52542829 
 405      00
 406              		.section	.text._ZN3r2p13BasePublisher12alloc_unsafeERPNS_7MessageE,"axG",%progbits,_ZN3r2p13BasePu
 407              		.align	2
 408              		.p2align 4,,15
 409              		.weak	_ZN3r2p13BasePublisher12alloc_unsafeERPNS_7MessageE
 410              		.thumb
 411              		.thumb_func
 412              		.type	_ZN3r2p13BasePublisher12alloc_unsafeERPNS_7MessageE, %function
 413              	_ZN3r2p13BasePublisher12alloc_unsafeERPNS_7MessageE:
 414              	.LFB304:
 415              		.file 7 "/home/ergae/r2p-sdk/core/Middleware/include/r2p/BasePublisher.hpp"
 416              		.loc 7 64 0
 417              		.cfi_startproc
 418              		@ args = 0, pretend = 0, frame = 8
 419              		@ frame_needed = 0, uses_anonymous_args = 0
 420 0000 00B5     		push	{lr}
 421              		.cfi_def_cfa_offset 4
 422              		.cfi_offset 14, -4
 423 0002 83B0     		sub	sp, sp, #12
 424              		.cfi_def_cfa_offset 16
 425 0004 0190     		str	r0, [sp, #4]
 426 0006 0091     		str	r1, [sp]
 427              		.loc 7 66 0
 428 0008 019B     		ldr	r3, [sp, #4]
 429 000a 5B68     		ldr	r3, [r3, #4]
 430 000c 002B     		cmp	r3, #0
 431 000e 02D1     		bne	.L21
 432              		.loc 7 66 0 is_stmt 0 discriminator 1
 433 0010 0A48     		ldr	r0, .L23
 434 0012 FFF7FEFF 		bl	chDbgPanic
 435              	.L21:
 436              		.loc 7 68 0 is_stmt 1
 437 0016 019B     		ldr	r3, [sp, #4]
 438 0018 5B68     		ldr	r3, [r3, #4]
 439 001a 1846     		mov	r0, r3
 440 001c FFF7FEFF 		bl	_ZN3r2p5Topic12alloc_unsafeEv
 441 0020 0246     		mov	r2, r0
ARM GAS  /tmp/ccypRU8x.s 			page 9


 442 0022 009B     		ldr	r3, [sp]
 443 0024 1A60     		str	r2, [r3]
 444              		.loc 7 69 0
 445 0026 009B     		ldr	r3, [sp]
 446 0028 1B68     		ldr	r3, [r3]
 447 002a 002B     		cmp	r3, #0
 448 002c 14BF     		ite	ne
 449 002e 0123     		movne	r3, #1
 450 0030 0023     		moveq	r3, #0
 451 0032 DBB2     		uxtb	r3, r3
 452              		.loc 7 70 0
 453 0034 1846     		mov	r0, r3
 454 0036 03B0     		add	sp, sp, #12
 455              		.cfi_def_cfa_offset 4
 456              		@ sp needed
 457 0038 5DF804FB 		ldr	pc, [sp], #4
 458              	.L24:
 459              		.align	2
 460              	.L23:
 461 003c 00000000 		.word	.LC0
 462              		.cfi_endproc
 463              	.LFE304:
 464              		.size	_ZN3r2p13BasePublisher12alloc_unsafeERPNS_7MessageE, .-_ZN3r2p13BasePublisher12alloc_unsafeE
 465              		.section	.text._ZN3r2p13BasePublisher5allocERPNS_7MessageE,"axG",%progbits,_ZN3r2p13BasePublisher5
 466              		.align	2
 467              		.p2align 4,,15
 468              		.weak	_ZN3r2p13BasePublisher5allocERPNS_7MessageE
 469              		.thumb
 470              		.thumb_func
 471              		.type	_ZN3r2p13BasePublisher5allocERPNS_7MessageE, %function
 472              	_ZN3r2p13BasePublisher5allocERPNS_7MessageE:
 473              	.LFB305:
 474              		.loc 7 74 0
 475              		.cfi_startproc
 476              		@ args = 0, pretend = 0, frame = 16
 477              		@ frame_needed = 0, uses_anonymous_args = 0
 478 0000 00B5     		push	{lr}
 479              		.cfi_def_cfa_offset 4
 480              		.cfi_offset 14, -4
 481 0002 85B0     		sub	sp, sp, #20
 482              		.cfi_def_cfa_offset 24
 483 0004 0190     		str	r0, [sp, #4]
 484 0006 0091     		str	r1, [sp]
 485              	.LBB60:
 486              		.loc 7 76 0
 487 0008 FFF7FEFF 		bl	_ZN3r2p7SysLock7acquireEv
 488              		.loc 7 77 0
 489 000c 0198     		ldr	r0, [sp, #4]
 490 000e 0099     		ldr	r1, [sp]
 491 0010 FFF7FEFF 		bl	_ZN3r2p13BasePublisher12alloc_unsafeERPNS_7MessageE
 492 0014 0346     		mov	r3, r0
 493 0016 8DF80F30 		strb	r3, [sp, #15]
 494              		.loc 7 78 0
 495 001a FFF7FEFF 		bl	_ZN3r2p7SysLock7releaseEv
 496              		.loc 7 79 0
 497 001e 9DF80F30 		ldrb	r3, [sp, #15]	@ zero_extendqisi2
 498              	.LBE60:
ARM GAS  /tmp/ccypRU8x.s 			page 10


 499              		.loc 7 80 0
 500 0022 1846     		mov	r0, r3
 501 0024 05B0     		add	sp, sp, #20
 502              		.cfi_def_cfa_offset 4
 503              		@ sp needed
 504 0026 5DF804FB 		ldr	pc, [sp], #4
 505              		.cfi_endproc
 506              	.LFE305:
 507              		.size	_ZN3r2p13BasePublisher5allocERPNS_7MessageE, .-_ZN3r2p13BasePublisher5allocERPNS_7MessageE
 508 002a 00BFAFF3 		.section	.text._ZN3r2p7Thread_4selfEv,"axG",%progbits,_ZN3r2p7Thread_4selfEv,comdat
 508      0080
 509              		.align	2
 510              		.p2align 4,,15
 511              		.weak	_ZN3r2p7Thread_4selfEv
 512              		.thumb
 513              		.thumb_func
 514              		.type	_ZN3r2p7Thread_4selfEv, %function
 515              	_ZN3r2p7Thread_4selfEv:
 516              	.LFB337:
 517              		.file 8 "/home/ergae/r2p-sdk/core/Middleware/port/chibios/include/r2p/impl/Thread_.hpp"
 518              		.loc 8 152 0
 519              		.cfi_startproc
 520              		@ args = 0, pretend = 0, frame = 0
 521              		@ frame_needed = 0, uses_anonymous_args = 0
 522              		@ link register save eliminated.
 523              		.loc 8 154 0
 524 0000 014B     		ldr	r3, .L29
 525 0002 9B69     		ldr	r3, [r3, #24]
 526              		.loc 8 155 0
 527 0004 1846     		mov	r0, r3
 528 0006 7047     		bx	lr
 529              	.L30:
 530              		.align	2
 531              	.L29:
 532 0008 00000000 		.word	rlist
 533              		.cfi_endproc
 534              	.LFE337:
 535              		.size	_ZN3r2p7Thread_4selfEv, .-_ZN3r2p7Thread_4selfEv
 536 000c AFF30080 		.section	.text._ZN3r2p7Thread_5sleepERKNS_4TimeE,"axG",%progbits,_ZN3r2p7Thread_5sleepERKNS_4TimeE
 537              		.align	2
 538              		.p2align 4,,15
 539              		.weak	_ZN3r2p7Thread_5sleepERKNS_4TimeE
 540              		.thumb
 541              		.thumb_func
 542              		.type	_ZN3r2p7Thread_5sleepERKNS_4TimeE, %function
 543              	_ZN3r2p7Thread_5sleepERKNS_4TimeE:
 544              	.LFB341:
 545              		.loc 8 180 0
 546              		.cfi_startproc
 547              		@ args = 0, pretend = 0, frame = 8
 548              		@ frame_needed = 0, uses_anonymous_args = 0
 549 0000 00B5     		push	{lr}
 550              		.cfi_def_cfa_offset 4
 551              		.cfi_offset 14, -4
 552 0002 83B0     		sub	sp, sp, #12
 553              		.cfi_def_cfa_offset 16
 554 0004 0190     		str	r0, [sp, #4]
ARM GAS  /tmp/ccypRU8x.s 			page 11


 555              		.loc 8 182 0
 556 0006 019B     		ldr	r3, [sp, #4]
 557 0008 1B68     		ldr	r3, [r3]
 558 000a 002B     		cmp	r3, #0
 559 000c 21DD     		ble	.L32
 560              		.loc 8 183 0
 561 000e 019B     		ldr	r3, [sp, #4]
 562 0010 1B68     		ldr	r3, [r3]
 563 0012 124A     		ldr	r2, .L36
 564 0014 9342     		cmp	r3, r2
 565 0016 10DC     		bgt	.L33
 566              		.loc 8 184 0
 567 0018 019B     		ldr	r3, [sp, #4]
 568 001a 1B68     		ldr	r3, [r3]
 569 001c 1A46     		mov	r2, r3
 570 001e 4FF47A73 		mov	r3, #1000
 571 0022 03FB02F3 		mul	r3, r3, r2
 572 0026 013B     		subs	r3, r3, #1
 573 0028 0D4A     		ldr	r2, .L36+4
 574 002a A2FB0323 		umull	r2, r3, r2, r3
 575 002e 9B0C     		lsrs	r3, r3, #18
 576 0030 0133     		adds	r3, r3, #1
 577 0032 1846     		mov	r0, r3
 578 0034 FFF7FEFF 		bl	chThdSleep
 579 0038 0DE0     		b	.L31
 580              	.L33:
 581              		.loc 8 186 0
 582 003a 0198     		ldr	r0, [sp, #4]
 583 003c FFF7FEFF 		bl	_ZNK3r2p4Time8to_s_rawEv
 584 0040 0246     		mov	r2, r0
 585 0042 4FF47A73 		mov	r3, #1000
 586 0046 03FB02F3 		mul	r3, r3, r2
 587 004a 1846     		mov	r0, r3
 588 004c FFF7FEFF 		bl	chThdSleep
 589 0050 01E0     		b	.L31
 590              	.L32:
 591              		.loc 8 189 0
 592 0052 FFF7FEFF 		bl	chThdYield
 593              	.L31:
 594              		.loc 8 191 0
 595 0056 03B0     		add	sp, sp, #12
 596              		.cfi_def_cfa_offset 4
 597              		@ sp needed
 598 0058 5DF804FB 		ldr	pc, [sp], #4
 599              	.L37:
 600              		.align	2
 601              	.L36:
 602 005c 3F420F00 		.word	999999
 603 0060 83DE1B43 		.word	1125899907
 604              		.cfi_endproc
 605              	.LFE341:
 606              		.size	_ZN3r2p7Thread_5sleepERKNS_4TimeE, .-_ZN3r2p7Thread_5sleepERKNS_4TimeE
 607 0064 AFF30080 		.section	.text._ZN3r2p6Thread4selfEv,"axG",%progbits,_ZN3r2p6Thread4selfEv,comdat
 607      AFF30080 
 607      AFF30080 
 608              		.align	2
 609              		.p2align 4,,15
ARM GAS  /tmp/ccypRU8x.s 			page 12


 610              		.weak	_ZN3r2p6Thread4selfEv
 611              		.thumb
 612              		.thumb_func
 613              		.type	_ZN3r2p6Thread4selfEv, %function
 614              	_ZN3r2p6Thread4selfEv:
 615              	.LFB348:
 616              		.file 9 "/home/ergae/r2p-sdk/core/Middleware/include/r2p/Thread.hpp"
 617              		.loc 9 112 0
 618              		.cfi_startproc
 619              		@ args = 0, pretend = 0, frame = 0
 620              		@ frame_needed = 0, uses_anonymous_args = 0
 621 0000 08B5     		push	{r3, lr}
 622              		.cfi_def_cfa_offset 8
 623              		.cfi_offset 3, -8
 624              		.cfi_offset 14, -4
 625              		.loc 9 114 0
 626 0002 FFF7FEFF 		bl	_ZN3r2p7Thread_4selfEv
 627 0006 0346     		mov	r3, r0
 628              		.loc 9 115 0
 629 0008 1846     		mov	r0, r3
 630 000a 08BD     		pop	{r3, pc}
 631              		.cfi_endproc
 632              	.LFE348:
 633              		.size	_ZN3r2p6Thread4selfEv, .-_ZN3r2p6Thread4selfEv
 634 000c AFF30080 		.section	.text._ZN3r2p6Thread5sleepERKNS_4TimeE,"axG",%progbits,_ZN3r2p6Thread5sleepERKNS_4TimeE,c
 635              		.align	2
 636              		.p2align 4,,15
 637              		.weak	_ZN3r2p6Thread5sleepERKNS_4TimeE
 638              		.thumb
 639              		.thumb_func
 640              		.type	_ZN3r2p6Thread5sleepERKNS_4TimeE, %function
 641              	_ZN3r2p6Thread5sleepERKNS_4TimeE:
 642              	.LFB352:
 643              		.loc 9 140 0
 644              		.cfi_startproc
 645              		@ args = 0, pretend = 0, frame = 8
 646              		@ frame_needed = 0, uses_anonymous_args = 0
 647 0000 00B5     		push	{lr}
 648              		.cfi_def_cfa_offset 4
 649              		.cfi_offset 14, -4
 650 0002 83B0     		sub	sp, sp, #12
 651              		.cfi_def_cfa_offset 16
 652 0004 0190     		str	r0, [sp, #4]
 653              		.loc 9 142 0
 654 0006 0198     		ldr	r0, [sp, #4]
 655 0008 FFF7FEFF 		bl	_ZN3r2p7Thread_5sleepERKNS_4TimeE
 656              		.loc 9 143 0
 657 000c 03B0     		add	sp, sp, #12
 658              		.cfi_def_cfa_offset 4
 659              		@ sp needed
 660 000e 5DF804FB 		ldr	pc, [sp], #4
 661              		.cfi_endproc
 662              	.LFE352:
 663              		.size	_ZN3r2p6Thread5sleepERKNS_4TimeE, .-_ZN3r2p6Thread5sleepERKNS_4TimeE
 664 0012 00BFAFF3 		.section	.text._ZNK3r2p10SpinEvent_10get_threadEv,"axG",%progbits,_ZNK3r2p10SpinEvent_10get_thread
 664      0080AFF3 
 664      0080AFF3 
ARM GAS  /tmp/ccypRU8x.s 			page 13


 664      0080
 665              		.align	2
 666              		.p2align 4,,15
 667              		.weak	_ZNK3r2p10SpinEvent_10get_threadEv
 668              		.thumb
 669              		.thumb_func
 670              		.type	_ZNK3r2p10SpinEvent_10get_threadEv, %function
 671              	_ZNK3r2p10SpinEvent_10get_threadEv:
 672              	.LFB354:
 673              		.file 10 "/home/ergae/r2p-sdk/core/Middleware/port/chibios/include/r2p/impl/SpinEvent_.hpp"
 674              		.loc 10 36 0
 675              		.cfi_startproc
 676              		@ args = 0, pretend = 0, frame = 8
 677              		@ frame_needed = 0, uses_anonymous_args = 0
 678              		@ link register save eliminated.
 679 0000 82B0     		sub	sp, sp, #8
 680              		.cfi_def_cfa_offset 8
 681 0002 0190     		str	r0, [sp, #4]
 682              		.loc 10 38 0
 683 0004 019B     		ldr	r3, [sp, #4]
 684 0006 1B68     		ldr	r3, [r3]
 685              		.loc 10 39 0
 686 0008 1846     		mov	r0, r3
 687 000a 02B0     		add	sp, sp, #8
 688              		.cfi_def_cfa_offset 0
 689              		@ sp needed
 690 000c 7047     		bx	lr
 691              		.cfi_endproc
 692              	.LFE354:
 693              		.size	_ZNK3r2p10SpinEvent_10get_threadEv, .-_ZNK3r2p10SpinEvent_10get_threadEv
 694 000e 00BF     		.section	.text._ZN3r2p10SpinEvent_10set_threadEPNS_6ThreadE,"axG",%progbits,_ZN3r2p10SpinEvent_10s
 695              		.align	2
 696              		.p2align 4,,15
 697              		.weak	_ZN3r2p10SpinEvent_10set_threadEPNS_6ThreadE
 698              		.thumb
 699              		.thumb_func
 700              		.type	_ZN3r2p10SpinEvent_10set_threadEPNS_6ThreadE, %function
 701              	_ZN3r2p10SpinEvent_10set_threadEPNS_6ThreadE:
 702              	.LFB355:
 703              		.loc 10 43 0
 704              		.cfi_startproc
 705              		@ args = 0, pretend = 0, frame = 8
 706              		@ frame_needed = 0, uses_anonymous_args = 0
 707              		@ link register save eliminated.
 708 0000 82B0     		sub	sp, sp, #8
 709              		.cfi_def_cfa_offset 8
 710 0002 0190     		str	r0, [sp, #4]
 711 0004 0091     		str	r1, [sp]
 712              		.loc 10 45 0
 713 0006 019B     		ldr	r3, [sp, #4]
 714 0008 009A     		ldr	r2, [sp]
 715 000a 1A60     		str	r2, [r3]
 716              		.loc 10 46 0
 717 000c 02B0     		add	sp, sp, #8
 718              		.cfi_def_cfa_offset 0
 719              		@ sp needed
 720 000e 7047     		bx	lr
ARM GAS  /tmp/ccypRU8x.s 			page 14


 721              		.cfi_endproc
 722              	.LFE355:
 723              		.size	_ZN3r2p10SpinEvent_10set_threadEPNS_6ThreadE, .-_ZN3r2p10SpinEvent_10set_threadEPNS_6ThreadE
 724              		.section	.text._ZN3r2p10SpinEvent_13signal_unsafeEj,"axG",%progbits,_ZN3r2p10SpinEvent_13signal_un
 725              		.align	2
 726              		.p2align 4,,15
 727              		.weak	_ZN3r2p10SpinEvent_13signal_unsafeEj
 728              		.thumb
 729              		.thumb_func
 730              		.type	_ZN3r2p10SpinEvent_13signal_unsafeEj, %function
 731              	_ZN3r2p10SpinEvent_13signal_unsafeEj:
 732              	.LFB356:
 733              		.loc 10 50 0
 734              		.cfi_startproc
 735              		@ args = 0, pretend = 0, frame = 8
 736              		@ frame_needed = 0, uses_anonymous_args = 0
 737 0000 00B5     		push	{lr}
 738              		.cfi_def_cfa_offset 4
 739              		.cfi_offset 14, -4
 740 0002 83B0     		sub	sp, sp, #12
 741              		.cfi_def_cfa_offset 16
 742 0004 0190     		str	r0, [sp, #4]
 743 0006 0091     		str	r1, [sp]
 744              		.loc 10 52 0
 745 0008 019B     		ldr	r3, [sp, #4]
 746 000a 1B68     		ldr	r3, [r3]
 747 000c 002B     		cmp	r3, #0
 748 000e 10D0     		beq	.L44
 749              		.loc 10 53 0
 750 0010 2022     		movs	r2, #32
 751 0012 009B     		ldr	r3, [sp]
 752 0014 9A42     		cmp	r2, r3
 753 0016 02D8     		bhi	.L46
 754              		.loc 10 53 0 is_stmt 0 discriminator 1
 755 0018 0748     		ldr	r0, .L47
 756 001a FFF7FEFF 		bl	chDbgPanic
 757              	.L46:
 758              		.loc 10 54 0 is_stmt 1
 759 001e 019B     		ldr	r3, [sp, #4]
 760 0020 1968     		ldr	r1, [r3]
 761 0022 009B     		ldr	r3, [sp]
 762 0024 0122     		movs	r2, #1
 763 0026 02FA03F3 		lsl	r3, r2, r3
 764 002a 0846     		mov	r0, r1
 765 002c 1946     		mov	r1, r3
 766 002e FFF7FEFF 		bl	chEvtSignalI
 767              	.L44:
 768              		.loc 10 56 0
 769 0032 03B0     		add	sp, sp, #12
 770              		.cfi_def_cfa_offset 4
 771              		@ sp needed
 772 0034 5DF804FB 		ldr	pc, [sp], #4
 773              	.L48:
 774              		.align	2
 775              	.L47:
 776 0038 00000000 		.word	.LC0
 777              		.cfi_endproc
ARM GAS  /tmp/ccypRU8x.s 			page 15


 778              	.LFE356:
 779              		.size	_ZN3r2p10SpinEvent_13signal_unsafeEj, .-_ZN3r2p10SpinEvent_13signal_unsafeEj
 780 003c AFF30080 		.section	.text._ZNK3r2p9SpinEvent10get_threadEv,"axG",%progbits,_ZNK3r2p9SpinEvent10get_threadEv,c
 781              		.align	2
 782              		.p2align 4,,15
 783              		.weak	_ZNK3r2p9SpinEvent10get_threadEv
 784              		.thumb
 785              		.thumb_func
 786              		.type	_ZNK3r2p9SpinEvent10get_threadEv, %function
 787              	_ZNK3r2p9SpinEvent10get_threadEv:
 788              	.LFB362:
 789              		.file 11 "/home/ergae/r2p-sdk/core/Middleware/include/r2p/SpinEvent.hpp"
 790              		.loc 11 35 0
 791              		.cfi_startproc
 792              		@ args = 0, pretend = 0, frame = 8
 793              		@ frame_needed = 0, uses_anonymous_args = 0
 794 0000 00B5     		push	{lr}
 795              		.cfi_def_cfa_offset 4
 796              		.cfi_offset 14, -4
 797 0002 83B0     		sub	sp, sp, #12
 798              		.cfi_def_cfa_offset 16
 799 0004 0190     		str	r0, [sp, #4]
 800              		.loc 11 37 0
 801 0006 019B     		ldr	r3, [sp, #4]
 802 0008 1846     		mov	r0, r3
 803 000a FFF7FEFF 		bl	_ZNK3r2p10SpinEvent_10get_threadEv
 804 000e 0346     		mov	r3, r0
 805              		.loc 11 38 0
 806 0010 1846     		mov	r0, r3
 807 0012 03B0     		add	sp, sp, #12
 808              		.cfi_def_cfa_offset 4
 809              		@ sp needed
 810 0014 5DF804FB 		ldr	pc, [sp], #4
 811              		.cfi_endproc
 812              	.LFE362:
 813              		.size	_ZNK3r2p9SpinEvent10get_threadEv, .-_ZNK3r2p9SpinEvent10get_threadEv
 814 0018 AFF30080 		.section	.text._ZN3r2p9SpinEvent10set_threadEPNS_6ThreadE,"axG",%progbits,_ZN3r2p9SpinEvent10set_t
 814      AFF30080 
 815              		.align	2
 816              		.p2align 4,,15
 817              		.weak	_ZN3r2p9SpinEvent10set_threadEPNS_6ThreadE
 818              		.thumb
 819              		.thumb_func
 820              		.type	_ZN3r2p9SpinEvent10set_threadEPNS_6ThreadE, %function
 821              	_ZN3r2p9SpinEvent10set_threadEPNS_6ThreadE:
 822              	.LFB363:
 823              		.loc 11 42 0
 824              		.cfi_startproc
 825              		@ args = 0, pretend = 0, frame = 8
 826              		@ frame_needed = 0, uses_anonymous_args = 0
 827 0000 00B5     		push	{lr}
 828              		.cfi_def_cfa_offset 4
 829              		.cfi_offset 14, -4
 830 0002 83B0     		sub	sp, sp, #12
 831              		.cfi_def_cfa_offset 16
 832 0004 0190     		str	r0, [sp, #4]
 833 0006 0091     		str	r1, [sp]
ARM GAS  /tmp/ccypRU8x.s 			page 16


 834              		.loc 11 44 0
 835 0008 019B     		ldr	r3, [sp, #4]
 836 000a 1846     		mov	r0, r3
 837 000c 0099     		ldr	r1, [sp]
 838 000e FFF7FEFF 		bl	_ZN3r2p10SpinEvent_10set_threadEPNS_6ThreadE
 839              		.loc 11 45 0
 840 0012 03B0     		add	sp, sp, #12
 841              		.cfi_def_cfa_offset 4
 842              		@ sp needed
 843 0014 5DF804FB 		ldr	pc, [sp], #4
 844              		.cfi_endproc
 845              	.LFE363:
 846              		.size	_ZN3r2p9SpinEvent10set_threadEPNS_6ThreadE, .-_ZN3r2p9SpinEvent10set_threadEPNS_6ThreadE
 847 0018 AFF30080 		.section	.text._ZN3r2p9SpinEvent13signal_unsafeEj,"axG",%progbits,_ZN3r2p9SpinEvent13signal_unsafe
 847      AFF30080 
 848              		.align	2
 849              		.p2align 4,,15
 850              		.weak	_ZN3r2p9SpinEvent13signal_unsafeEj
 851              		.thumb
 852              		.thumb_func
 853              		.type	_ZN3r2p9SpinEvent13signal_unsafeEj, %function
 854              	_ZN3r2p9SpinEvent13signal_unsafeEj:
 855              	.LFB364:
 856              		.loc 11 49 0
 857              		.cfi_startproc
 858              		@ args = 0, pretend = 0, frame = 8
 859              		@ frame_needed = 0, uses_anonymous_args = 0
 860 0000 00B5     		push	{lr}
 861              		.cfi_def_cfa_offset 4
 862              		.cfi_offset 14, -4
 863 0002 83B0     		sub	sp, sp, #12
 864              		.cfi_def_cfa_offset 16
 865 0004 0190     		str	r0, [sp, #4]
 866 0006 0091     		str	r1, [sp]
 867              		.loc 11 51 0
 868 0008 019B     		ldr	r3, [sp, #4]
 869 000a 1846     		mov	r0, r3
 870 000c 0099     		ldr	r1, [sp]
 871 000e FFF7FEFF 		bl	_ZN3r2p10SpinEvent_13signal_unsafeEj
 872              		.loc 11 52 0
 873 0012 03B0     		add	sp, sp, #12
 874              		.cfi_def_cfa_offset 4
 875              		@ sp needed
 876 0014 5DF804FB 		ldr	pc, [sp], #4
 877              		.cfi_endproc
 878              	.LFE364:
 879              		.size	_ZN3r2p9SpinEvent13signal_unsafeEj, .-_ZN3r2p9SpinEvent13signal_unsafeEj
 880 0018 AFF30080 		.section	.text._ZNK3r2p4Node11get_enabledEv,"axG",%progbits,_ZNK3r2p4Node11get_enabledEv,comdat
 880      AFF30080 
 881              		.align	2
 882              		.p2align 4,,15
 883              		.weak	_ZNK3r2p4Node11get_enabledEv
 884              		.thumb
 885              		.thumb_func
 886              		.type	_ZNK3r2p4Node11get_enabledEv, %function
 887              	_ZNK3r2p4Node11get_enabledEv:
 888              	.LFB381:
ARM GAS  /tmp/ccypRU8x.s 			page 17


 889              		.file 12 "/home/ergae/r2p-sdk/core/Middleware/include/r2p/Node.hpp"
 890              		.loc 12 103 0
 891              		.cfi_startproc
 892              		@ args = 0, pretend = 0, frame = 8
 893              		@ frame_needed = 0, uses_anonymous_args = 0
 894 0000 00B5     		push	{lr}
 895              		.cfi_def_cfa_offset 4
 896              		.cfi_offset 14, -4
 897 0002 83B0     		sub	sp, sp, #12
 898              		.cfi_def_cfa_offset 16
 899 0004 0190     		str	r0, [sp, #4]
 900              		.loc 12 105 0
 901 0006 019B     		ldr	r3, [sp, #4]
 902 0008 0C33     		adds	r3, r3, #12
 903 000a 1846     		mov	r0, r3
 904 000c FFF7FEFF 		bl	_ZNK3r2p9SpinEvent10get_threadEv
 905 0010 0346     		mov	r3, r0
 906 0012 002B     		cmp	r3, #0
 907 0014 14BF     		ite	ne
 908 0016 0123     		movne	r3, #1
 909 0018 0023     		moveq	r3, #0
 910 001a DBB2     		uxtb	r3, r3
 911              		.loc 12 106 0
 912 001c 1846     		mov	r0, r3
 913 001e 03B0     		add	sp, sp, #12
 914              		.cfi_def_cfa_offset 4
 915              		@ sp needed
 916 0020 5DF804FB 		ldr	pc, [sp], #4
 917              		.cfi_endproc
 918              	.LFE381:
 919              		.size	_ZNK3r2p4Node11get_enabledEv, .-_ZNK3r2p4Node11get_enabledEv
 920 0024 AFF30080 		.section	.text._ZN3r2p4Node11set_enabledEb,"axG",%progbits,_ZN3r2p4Node11set_enabledEb,comdat
 920      AFF30080 
 920      AFF30080 
 921              		.align	2
 922              		.p2align 4,,15
 923              		.weak	_ZN3r2p4Node11set_enabledEb
 924              		.thumb
 925              		.thumb_func
 926              		.type	_ZN3r2p4Node11set_enabledEb, %function
 927              	_ZN3r2p4Node11set_enabledEb:
 928              	.LFB382:
 929              		.loc 12 110 0
 930              		.cfi_startproc
 931              		@ args = 0, pretend = 0, frame = 8
 932              		@ frame_needed = 0, uses_anonymous_args = 0
 933 0000 10B5     		push	{r4, lr}
 934              		.cfi_def_cfa_offset 8
 935              		.cfi_offset 4, -8
 936              		.cfi_offset 14, -4
 937 0002 82B0     		sub	sp, sp, #8
 938              		.cfi_def_cfa_offset 16
 939 0004 0190     		str	r0, [sp, #4]
 940 0006 0B46     		mov	r3, r1
 941 0008 8DF80330 		strb	r3, [sp, #3]
 942              		.loc 12 112 0
 943 000c 019B     		ldr	r3, [sp, #4]
ARM GAS  /tmp/ccypRU8x.s 			page 18


 944 000e 03F10C04 		add	r4, r3, #12
 945 0012 9DF80330 		ldrb	r3, [sp, #3]	@ zero_extendqisi2
 946 0016 002B     		cmp	r3, #0
 947 0018 03D0     		beq	.L56
 948              		.loc 12 112 0 is_stmt 0 discriminator 1
 949 001a FFF7FEFF 		bl	_ZN3r2p6Thread4selfEv
 950 001e 0346     		mov	r3, r0
 951 0020 00E0     		b	.L57
 952              	.L56:
 953              		.loc 12 112 0 discriminator 2
 954 0022 0023     		movs	r3, #0
 955              	.L57:
 956              		.loc 12 112 0 discriminator 4
 957 0024 2046     		mov	r0, r4
 958 0026 1946     		mov	r1, r3
 959 0028 FFF7FEFF 		bl	_ZN3r2p9SpinEvent10set_threadEPNS_6ThreadE
 960              		.loc 12 113 0 is_stmt 1 discriminator 4
 961 002c 02B0     		add	sp, sp, #8
 962              		.cfi_def_cfa_offset 8
 963              		@ sp needed
 964 002e 10BD     		pop	{r4, pc}
 965              		.cfi_endproc
 966              	.LFE382:
 967              		.size	_ZN3r2p4Node11set_enabledEb, .-_ZN3r2p4Node11set_enabledEb
 968              		.section	.text._ZN3r2p4Node13notify_unsafeEj,"axG",%progbits,_ZN3r2p4Node13notify_unsafeEj,comdat
 969              		.align	2
 970              		.p2align 4,,15
 971              		.weak	_ZN3r2p4Node13notify_unsafeEj
 972              		.thumb
 973              		.thumb_func
 974              		.type	_ZN3r2p4Node13notify_unsafeEj, %function
 975              	_ZN3r2p4Node13notify_unsafeEj:
 976              	.LFB386:
 977              		.loc 12 140 0
 978              		.cfi_startproc
 979              		@ args = 0, pretend = 0, frame = 8
 980              		@ frame_needed = 0, uses_anonymous_args = 0
 981 0000 00B5     		push	{lr}
 982              		.cfi_def_cfa_offset 4
 983              		.cfi_offset 14, -4
 984 0002 83B0     		sub	sp, sp, #12
 985              		.cfi_def_cfa_offset 16
 986 0004 0190     		str	r0, [sp, #4]
 987 0006 0091     		str	r1, [sp]
 988              		.loc 12 142 0
 989 0008 019B     		ldr	r3, [sp, #4]
 990 000a 0C33     		adds	r3, r3, #12
 991 000c 1846     		mov	r0, r3
 992 000e 0099     		ldr	r1, [sp]
 993 0010 FFF7FEFF 		bl	_ZN3r2p9SpinEvent13signal_unsafeEj
 994              		.loc 12 143 0
 995 0014 03B0     		add	sp, sp, #12
 996              		.cfi_def_cfa_offset 4
 997              		@ sp needed
 998 0016 5DF804FB 		ldr	pc, [sp], #4
 999              		.cfi_endproc
 1000              	.LFE386:
ARM GAS  /tmp/ccypRU8x.s 			page 19


 1001              		.size	_ZN3r2p4Node13notify_unsafeEj, .-_ZN3r2p4Node13notify_unsafeEj
 1002 001a 00BFAFF3 		.section	.text._ZNK3r2p15LocalSubscriber16get_queue_lengthEv,"axG",%progbits,_ZNK3r2p15LocalSubscr
 1002      0080
 1003              		.align	2
 1004              		.p2align 4,,15
 1005              		.weak	_ZNK3r2p15LocalSubscriber16get_queue_lengthEv
 1006              		.thumb
 1007              		.thumb_func
 1008              		.type	_ZNK3r2p15LocalSubscriber16get_queue_lengthEv, %function
 1009              	_ZNK3r2p15LocalSubscriber16get_queue_lengthEv:
 1010              	.LFB392:
 1011              		.file 13 "/home/ergae/r2p-sdk/core/Middleware/include/r2p/LocalSubscriber.hpp"
 1012              		.loc 13 64 0
 1013              		.cfi_startproc
 1014              		@ args = 0, pretend = 0, frame = 8
 1015              		@ frame_needed = 0, uses_anonymous_args = 0
 1016 0000 00B5     		push	{lr}
 1017              		.cfi_def_cfa_offset 4
 1018              		.cfi_offset 14, -4
 1019 0002 83B0     		sub	sp, sp, #12
 1020              		.cfi_def_cfa_offset 16
 1021 0004 0190     		str	r0, [sp, #4]
 1022              		.loc 13 66 0
 1023 0006 019B     		ldr	r3, [sp, #4]
 1024 0008 1033     		adds	r3, r3, #16
 1025 000a 1846     		mov	r0, r3
 1026 000c FFF7FEFF 		bl	_ZNK3r2p10ArrayQueueIPNS_7MessageEE10get_lengthEv
 1027 0010 0346     		mov	r3, r0
 1028              		.loc 13 67 0
 1029 0012 1846     		mov	r0, r3
 1030 0014 03B0     		add	sp, sp, #12
 1031              		.cfi_def_cfa_offset 4
 1032              		@ sp needed
 1033 0016 5DF804FB 		ldr	pc, [sp], #4
 1034              		.cfi_endproc
 1035              	.LFE392:
 1036              		.size	_ZNK3r2p15LocalSubscriber16get_queue_lengthEv, .-_ZNK3r2p15LocalSubscriber16get_queue_length
 1037 001a 00BFAFF3 		.section	.text._ZN3r2p15LocalSubscriber12fetch_unsafeERPNS_7MessageERNS_4TimeE,"axG",%progbits,_ZN
 1037      0080
 1038              		.align	2
 1039              		.p2align 4,,15
 1040              		.weak	_ZN3r2p15LocalSubscriber12fetch_unsafeERPNS_7MessageERNS_4TimeE
 1041              		.thumb
 1042              		.thumb_func
 1043              		.type	_ZN3r2p15LocalSubscriber12fetch_unsafeERPNS_7MessageERNS_4TimeE, %function
 1044              	_ZN3r2p15LocalSubscriber12fetch_unsafeERPNS_7MessageERNS_4TimeE:
 1045              	.LFB393:
 1046              		.loc 13 71 0
 1047              		.cfi_startproc
 1048              		@ args = 0, pretend = 0, frame = 24
 1049              		@ frame_needed = 0, uses_anonymous_args = 0
 1050 0000 00B5     		push	{lr}
 1051              		.cfi_def_cfa_offset 4
 1052              		.cfi_offset 14, -4
 1053 0002 87B0     		sub	sp, sp, #28
 1054              		.cfi_def_cfa_offset 32
 1055 0004 0390     		str	r0, [sp, #12]
ARM GAS  /tmp/ccypRU8x.s 			page 20


 1056 0006 0291     		str	r1, [sp, #8]
 1057 0008 0192     		str	r2, [sp, #4]
 1058              		.loc 13 73 0
 1059 000a 039B     		ldr	r3, [sp, #12]
 1060 000c 1033     		adds	r3, r3, #16
 1061 000e 1846     		mov	r0, r3
 1062 0010 0299     		ldr	r1, [sp, #8]
 1063 0012 FFF7FEFF 		bl	_ZN3r2p10ArrayQueueIPNS_7MessageEE12fetch_unsafeERS2_
 1064 0016 0346     		mov	r3, r0
 1065 0018 002B     		cmp	r3, #0
 1066 001a 0AD0     		beq	.L62
 1067              		.loc 13 74 0
 1068 001c 05AB     		add	r3, sp, #20
 1069 001e 1846     		mov	r0, r3
 1070 0020 FFF7FEFF 		bl	_ZN3r2p4Time3nowEv
 1071 0024 05AB     		add	r3, sp, #20
 1072 0026 0198     		ldr	r0, [sp, #4]
 1073 0028 1946     		mov	r1, r3
 1074 002a FFF7FEFF 		bl	_ZN3r2p4TimeaSERKS0_
 1075              		.loc 13 75 0
 1076 002e 0123     		movs	r3, #1
 1077 0030 00E0     		b	.L63
 1078              	.L62:
 1079              		.loc 13 77 0
 1080 0032 0023     		movs	r3, #0
 1081              	.L63:
 1082              		.loc 13 78 0
 1083 0034 1846     		mov	r0, r3
 1084 0036 07B0     		add	sp, sp, #28
 1085              		.cfi_def_cfa_offset 4
 1086              		@ sp needed
 1087 0038 5DF804FB 		ldr	pc, [sp], #4
 1088              		.cfi_endproc
 1089              	.LFE393:
 1090              		.size	_ZN3r2p15LocalSubscriber12fetch_unsafeERPNS_7MessageERNS_4TimeE, .-_ZN3r2p15LocalSubscriber1
 1091 003c AFF30080 		.section	.text._ZN3r2p15LocalSubscriber13notify_unsafeERNS_7MessageERKNS_4TimeE,"axG",%progbits,_Z
 1092              		.align	2
 1093              		.p2align 4,,15
 1094              		.weak	_ZN3r2p15LocalSubscriber13notify_unsafeERNS_7MessageERKNS_4TimeE
 1095              		.thumb
 1096              		.thumb_func
 1097              		.type	_ZN3r2p15LocalSubscriber13notify_unsafeERNS_7MessageERKNS_4TimeE, %function
 1098              	_ZN3r2p15LocalSubscriber13notify_unsafeERNS_7MessageERKNS_4TimeE:
 1099              	.LFB394:
 1100              		.loc 13 82 0
 1101              		.cfi_startproc
 1102              		@ args = 0, pretend = 0, frame = 16
 1103              		@ frame_needed = 0, uses_anonymous_args = 0
 1104 0000 00B5     		push	{lr}
 1105              		.cfi_def_cfa_offset 4
 1106              		.cfi_offset 14, -4
 1107 0002 85B0     		sub	sp, sp, #20
 1108              		.cfi_def_cfa_offset 24
 1109 0004 0390     		str	r0, [sp, #12]
 1110 0006 0291     		str	r1, [sp, #8]
 1111 0008 0192     		str	r2, [sp, #4]
 1112              		.loc 13 86 0
ARM GAS  /tmp/ccypRU8x.s 			page 21


 1113 000a 039B     		ldr	r3, [sp, #12]
 1114 000c 9B68     		ldr	r3, [r3, #8]
 1115 000e 1846     		mov	r0, r3
 1116 0010 FFF7FEFF 		bl	_ZNK3r2p4Node11get_enabledEv
 1117 0014 0346     		mov	r3, r0
 1118 0016 002B     		cmp	r3, #0
 1119 0018 0AD0     		beq	.L65
 1120              		.loc 13 86 0 is_stmt 0 discriminator 1
 1121 001a 039B     		ldr	r3, [sp, #12]
 1122 001c 1033     		adds	r3, r3, #16
 1123 001e 1846     		mov	r0, r3
 1124 0020 0299     		ldr	r1, [sp, #8]
 1125 0022 FFF7FEFF 		bl	_ZN3r2p10ArrayQueueIPNS_7MessageEE11post_unsafeES2_
 1126 0026 0346     		mov	r3, r0
 1127 0028 002B     		cmp	r3, #0
 1128 002a 01D0     		beq	.L65
 1129              		.loc 13 86 0 discriminator 3
 1130 002c 0123     		movs	r3, #1
 1131 002e 00E0     		b	.L66
 1132              	.L65:
 1133              		.loc 13 86 0 discriminator 4
 1134 0030 0023     		movs	r3, #0
 1135              	.L66:
 1136              		.loc 13 86 0 discriminator 6
 1137 0032 002B     		cmp	r3, #0
 1138 0034 0AD0     		beq	.L67
 1139              		.loc 13 87 0 is_stmt 1
 1140 0036 039B     		ldr	r3, [sp, #12]
 1141 0038 9A68     		ldr	r2, [r3, #8]
 1142 003a 039B     		ldr	r3, [sp, #12]
 1143 003c 93F82430 		ldrb	r3, [r3, #36]	@ zero_extendqisi2
 1144 0040 1046     		mov	r0, r2
 1145 0042 1946     		mov	r1, r3
 1146 0044 FFF7FEFF 		bl	_ZN3r2p4Node13notify_unsafeEj
 1147              		.loc 13 88 0
 1148 0048 0123     		movs	r3, #1
 1149 004a 00E0     		b	.L68
 1150              	.L67:
 1151              		.loc 13 90 0
 1152 004c 0023     		movs	r3, #0
 1153              	.L68:
 1154              		.loc 13 91 0
 1155 004e 1846     		mov	r0, r3
 1156 0050 05B0     		add	sp, sp, #20
 1157              		.cfi_def_cfa_offset 4
 1158              		@ sp needed
 1159 0052 5DF804FB 		ldr	pc, [sp], #4
 1160              		.cfi_endproc
 1161              	.LFE394:
 1162              		.size	_ZN3r2p15LocalSubscriber13notify_unsafeERNS_7MessageERKNS_4TimeE, .-_ZN3r2p15LocalSubscriber
 1163 0056 00BFAFF3 		.section	.text._ZN3r2p5Topic12alloc_unsafeEv,"axG",%progbits,_ZN3r2p5Topic12alloc_unsafeEv,comdat
 1163      0080AFF3 
 1163      0080
 1164              		.align	2
 1165              		.p2align 4,,15
 1166              		.weak	_ZN3r2p5Topic12alloc_unsafeEv
 1167              		.thumb
ARM GAS  /tmp/ccypRU8x.s 			page 22


 1168              		.thumb_func
 1169              		.type	_ZN3r2p5Topic12alloc_unsafeEv, %function
 1170              	_ZN3r2p5Topic12alloc_unsafeEv:
 1171              	.LFB413:
 1172              		.file 14 "/home/ergae/r2p-sdk/core/Middleware/include/r2p/Topic.hpp"
 1173              		.loc 14 250 0
 1174              		.cfi_startproc
 1175              		@ args = 0, pretend = 0, frame = 8
 1176              		@ frame_needed = 0, uses_anonymous_args = 0
 1177 0000 10B5     		push	{r4, lr}
 1178              		.cfi_def_cfa_offset 8
 1179              		.cfi_offset 4, -8
 1180              		.cfi_offset 14, -4
 1181 0002 82B0     		sub	sp, sp, #8
 1182              		.cfi_def_cfa_offset 16
 1183 0004 0190     		str	r0, [sp, #4]
 1184              	.LBB61:
 1185              		.loc 14 252 0
 1186 0006 019B     		ldr	r3, [sp, #4]
 1187 0008 0833     		adds	r3, r3, #8
 1188 000a 1846     		mov	r0, r3
 1189 000c FFF7FEFF 		bl	_ZN3r2p11MemoryPool_12alloc_unsafeEv
 1190 0010 0446     		mov	r4, r0
 1191              		.loc 14 253 0
 1192 0012 002C     		cmp	r4, #0
 1193 0014 04D0     		beq	.L70
 1194              		.loc 14 254 0
 1195 0016 2046     		mov	r0, r4
 1196 0018 FFF7FEFF 		bl	_ZN3r2p7Message12reset_unsafeEv
 1197              		.loc 14 255 0
 1198 001c 2346     		mov	r3, r4
 1199 001e 00E0     		b	.L71
 1200              	.L70:
 1201              		.loc 14 257 0
 1202 0020 0023     		movs	r3, #0
 1203              	.L71:
 1204              	.LBE61:
 1205              		.loc 14 258 0
 1206 0022 1846     		mov	r0, r3
 1207 0024 02B0     		add	sp, sp, #8
 1208              		.cfi_def_cfa_offset 8
 1209              		@ sp needed
 1210 0026 10BD     		pop	{r4, pc}
 1211              		.cfi_endproc
 1212              	.LFE413:
 1213              		.size	_ZN3r2p5Topic12alloc_unsafeEv, .-_ZN3r2p5Topic12alloc_unsafeEv
 1214              		.global	vel_node
 1215 0028 AFF30080 		.section	.bss.vel_node,"aw",%nobits
 1215      AFF30080 
 1216              		.align	2
 1217              		.type	vel_node, %object
 1218              		.size	vel_node, 28
 1219              	vel_node:
 1220 0000 00000000 		.space	28
 1220      00000000 
 1220      00000000 
 1220      00000000 
ARM GAS  /tmp/ccypRU8x.s 			page 23


 1220      00000000 
 1221              		.global	vel_pub
 1222              		.section	.bss.vel_pub,"aw",%nobits
 1223              		.align	2
 1224              		.type	vel_pub, %object
 1225              		.size	vel_pub, 16
 1226              	vel_pub:
 1227 0000 00000000 		.space	16
 1227      00000000 
 1227      00000000 
 1227      00000000 
 1228              		.global	speed_first_time
 1229              		.section	.data.speed_first_time,"aw",%progbits
 1230              		.type	speed_first_time, %object
 1231              		.size	speed_first_time, 1
 1232              	speed_first_time:
 1233 0000 01       		.byte	1
 1234              		.global	pidcfg_node
 1235              		.section	.bss.pidcfg_node,"aw",%nobits
 1236              		.align	2
 1237              		.type	pidcfg_node, %object
 1238              		.size	pidcfg_node, 28
 1239              	pidcfg_node:
 1240 0000 00000000 		.space	28
 1240      00000000 
 1240      00000000 
 1240      00000000 
 1240      00000000 
 1241              		.global	pidcfg_pub
 1242              		.section	.bss.pidcfg_pub,"aw",%nobits
 1243              		.align	2
 1244              		.type	pidcfg_pub, %object
 1245              		.size	pidcfg_pub, 16
 1246              	pidcfg_pub:
 1247 0000 00000000 		.space	16
 1247      00000000 
 1247      00000000 
 1247      00000000 
 1248              		.global	pidcfg_first_time
 1249              		.section	.data.pidcfg_first_time,"aw",%progbits
 1250              		.type	pidcfg_first_time, %object
 1251              		.size	pidcfg_first_time, 1
 1252              	pidcfg_first_time:
 1253 0000 01       		.byte	1
 1254              		.global	pixy_node
 1255              		.section	.bss.pixy_node,"aw",%nobits
 1256              		.align	2
 1257              		.type	pixy_node, %object
 1258              		.size	pixy_node, 28
 1259              	pixy_node:
 1260 0000 00000000 		.space	28
 1260      00000000 
 1260      00000000 
 1260      00000000 
 1260      00000000 
 1261              		.global	pixy_sub
 1262              		.section	.bss.pixy_sub,"aw",%nobits
ARM GAS  /tmp/ccypRU8x.s 			page 24


 1263              		.align	2
 1264              		.type	pixy_sub, %object
 1265              		.size	pixy_sub, 156
 1266              	pixy_sub:
 1267 0000 00000000 		.space	156
 1267      00000000 
 1267      00000000 
 1267      00000000 
 1267      00000000 
 1268              		.global	pixy_first_time
 1269              		.section	.data.pixy_first_time,"aw",%progbits
 1270              		.type	pixy_first_time, %object
 1271              		.size	pixy_first_time, 1
 1272              	pixy_first_time:
 1273 0000 01       		.byte	1
 1274              		.global	proximity_values
 1275              		.section	.bss.proximity_values,"aw",%nobits
 1276              		.align	2
 1277              		.type	proximity_values, %object
 1278              		.size	proximity_values, 32
 1279              	proximity_values:
 1280 0000 00000000 		.space	32
 1280      00000000 
 1280      00000000 
 1280      00000000 
 1280      00000000 
 1281              		.global	proximity_node
 1282              		.section	.bss.proximity_node,"aw",%nobits
 1283              		.align	2
 1284              		.type	proximity_node, %object
 1285              		.size	proximity_node, 28
 1286              	proximity_node:
 1287 0000 00000000 		.space	28
 1287      00000000 
 1287      00000000 
 1287      00000000 
 1287      00000000 
 1288              		.global	proximity_sub
 1289              		.section	.bss.proximity_sub,"aw",%nobits
 1290              		.align	2
 1291              		.type	proximity_sub, %object
 1292              		.size	proximity_sub, 168
 1293              	proximity_sub:
 1294 0000 00000000 		.space	168
 1294      00000000 
 1294      00000000 
 1294      00000000 
 1294      00000000 
 1295              		.global	proxy_first_time
 1296              		.section	.data.proxy_first_time,"aw",%progbits
 1297              		.type	proxy_first_time, %object
 1298              		.size	proxy_first_time, 1
 1299              	proxy_first_time:
 1300 0000 01       		.byte	1
 1301              		.global	serialp
 1302              		.section	.bss.serialp,"aw",%nobits
 1303              		.align	2
ARM GAS  /tmp/ccypRU8x.s 			page 25


 1304              		.type	serialp, %object
 1305              		.size	serialp, 4
 1306              	serialp:
 1307 0000 00000000 		.space	4
 1308              		.global	stream_enc
 1309              		.section	.bss.stream_enc,"aw",%nobits
 1310              		.type	stream_enc, %object
 1311              		.size	stream_enc, 1
 1312              	stream_enc:
 1313 0000 00       		.space	1
 1314              		.section	.text._Z22usb_lld_disconnect_busP9USBDriver,"ax",%progbits
 1315              		.align	2
 1316              		.p2align 4,,15
 1317              		.global	_Z22usb_lld_disconnect_busP9USBDriver
 1318              		.thumb
 1319              		.thumb_func
 1320              		.type	_Z22usb_lld_disconnect_busP9USBDriver, %function
 1321              	_Z22usb_lld_disconnect_busP9USBDriver:
 1322              	.LFB598:
 1323              		.file 15 "nodes/shell_node.cpp"
 1324              		.loc 15 107 0
 1325              		.cfi_startproc
 1326              		@ args = 0, pretend = 0, frame = 8
 1327              		@ frame_needed = 0, uses_anonymous_args = 0
 1328 0000 00B5     		push	{lr}
 1329              		.cfi_def_cfa_offset 4
 1330              		.cfi_offset 14, -4
 1331 0002 83B0     		sub	sp, sp, #12
 1332              		.cfi_def_cfa_offset 16
 1333 0004 0190     		str	r0, [sp, #4]
 1334              		.loc 15 110 0
 1335 0006 4FF09043 		mov	r3, #1207959552
 1336 000a 4FF4C052 		mov	r2, #6144
 1337 000e 5A83     		strh	r2, [r3, #26]	@ movhi
 1338              		.loc 15 111 0
 1339 0010 4FF09040 		mov	r0, #1207959552
 1340 0014 4FF40061 		mov	r1, #2048
 1341 0018 0122     		movs	r2, #1
 1342 001a FFF7FEFF 		bl	_pal_lld_setgroupmode
 1343              		.loc 15 112 0
 1344 001e 4FF09040 		mov	r0, #1207959552
 1345 0022 4FF48051 		mov	r1, #4096
 1346 0026 0122     		movs	r2, #1
 1347 0028 FFF7FEFF 		bl	_pal_lld_setgroupmode
 1348              		.loc 15 113 0
 1349 002c 03B0     		add	sp, sp, #12
 1350              		.cfi_def_cfa_offset 4
 1351              		@ sp needed
 1352 002e 5DF804FB 		ldr	pc, [sp], #4
 1353              		.cfi_endproc
 1354              	.LFE598:
 1355              		.size	_Z22usb_lld_disconnect_busP9USBDriver, .-_Z22usb_lld_disconnect_busP9USBDriver
 1356 0032 00BFAFF3 		.section	.text._Z19usb_lld_connect_busP9USBDriver,"ax",%progbits
 1356      0080AFF3 
 1356      0080AFF3 
 1356      0080
 1357              		.align	2
ARM GAS  /tmp/ccypRU8x.s 			page 26


 1358              		.p2align 4,,15
 1359              		.global	_Z19usb_lld_connect_busP9USBDriver
 1360              		.thumb
 1361              		.thumb_func
 1362              		.type	_Z19usb_lld_connect_busP9USBDriver, %function
 1363              	_Z19usb_lld_connect_busP9USBDriver:
 1364              	.LFB599:
 1365              		.loc 15 115 0
 1366              		.cfi_startproc
 1367              		@ args = 0, pretend = 0, frame = 8
 1368              		@ frame_needed = 0, uses_anonymous_args = 0
 1369 0000 00B5     		push	{lr}
 1370              		.cfi_def_cfa_offset 4
 1371              		.cfi_offset 14, -4
 1372 0002 83B0     		sub	sp, sp, #12
 1373              		.cfi_def_cfa_offset 16
 1374 0004 0190     		str	r0, [sp, #4]
 1375              		.loc 15 118 0
 1376 0006 4FF09043 		mov	r3, #1207959552
 1377 000a 4FF4C052 		mov	r2, #6144
 1378 000e 5A83     		strh	r2, [r3, #26]	@ movhi
 1379              		.loc 15 119 0
 1380 0010 4FF09040 		mov	r0, #1207959552
 1381 0014 4FF40061 		mov	r1, #2048
 1382 0018 40F20272 		movw	r2, #1794
 1383 001c FFF7FEFF 		bl	_pal_lld_setgroupmode
 1384              		.loc 15 120 0
 1385 0020 4FF09040 		mov	r0, #1207959552
 1386 0024 4FF48051 		mov	r1, #4096
 1387 0028 40F20272 		movw	r2, #1794
 1388 002c FFF7FEFF 		bl	_pal_lld_setgroupmode
 1389              		.loc 15 121 0
 1390 0030 03B0     		add	sp, sp, #12
 1391              		.cfi_def_cfa_offset 4
 1392              		@ sp needed
 1393 0032 5DF804FB 		ldr	pc, [sp], #4
 1394              		.cfi_endproc
 1395              	.LFE599:
 1396              		.size	_Z19usb_lld_connect_busP9USBDriver, .-_Z19usb_lld_connect_busP9USBDriver
 1397 0036 00BFAFF3 		.section	.rodata
 1397      0080AFF3 
 1397      0080
 1398 000d 000000   		.align	2
 1399              	.LC1:
 1400 0010 55736167 		.ascii	"Usage: run <forward> <strafe> <angular>\015\012\000"
 1400      653A2072 
 1400      756E203C 
 1400      666F7277 
 1400      6172643E 
 1401 003a 0000     		.align	2
 1402              	.LC2:
 1403 003c 73706565 		.ascii	"speed3\000"
 1403      643300
 1404              		.global	__aeabi_d2f
 1405              		.global	__aeabi_f2d
 1406 0043 00       		.align	2
 1407              	.LC3:
ARM GAS  /tmp/ccypRU8x.s 			page 27


 1408 0044 53455450 		.ascii	"SETPOINT: %f %f %f\015\012\000"
 1408      4F494E54 
 1408      3A202566 
 1408      20256620 
 1408      25660D0A 
 1409              		.section	.text._ZL7cmd_runP20BaseSequentialStreamiPPc,"ax",%progbits
 1410              		.align	2
 1411              		.p2align 4,,15
 1412              		.thumb
 1413              		.thumb_func
 1414              		.type	_ZL7cmd_runP20BaseSequentialStreamiPPc, %function
 1415              	_ZL7cmd_runP20BaseSequentialStreamiPPc:
 1416              	.LFB600:
 1417              		.loc 15 129 0
 1418              		.cfi_startproc
 1419              		@ args = 0, pretend = 0, frame = 56
 1420              		@ frame_needed = 0, uses_anonymous_args = 0
 1421 0000 F0B5     		push	{r4, r5, r6, r7, lr}
 1422              		.cfi_def_cfa_offset 20
 1423              		.cfi_offset 4, -20
 1424              		.cfi_offset 5, -16
 1425              		.cfi_offset 6, -12
 1426              		.cfi_offset 7, -8
 1427              		.cfi_offset 14, -4
 1428 0002 93B0     		sub	sp, sp, #76
 1429              		.cfi_def_cfa_offset 96
 1430 0004 0790     		str	r0, [sp, #28]
 1431 0006 0691     		str	r1, [sp, #24]
 1432 0008 0592     		str	r2, [sp, #20]
 1433              	.LBB62:
 1434              		.loc 15 134 0
 1435 000a 069B     		ldr	r3, [sp, #24]
 1436 000c 032B     		cmp	r3, #3
 1437 000e 04D0     		beq	.L75
 1438              		.loc 15 135 0
 1439 0010 0798     		ldr	r0, [sp, #28]
 1440 0012 7C49     		ldr	r1, .L79
 1441 0014 FFF7FEFF 		bl	_ZL8chprintfP20BaseSequentialStreamPKcz
 1442 0018 F1E0     		b	.L74
 1443              	.L75:
 1444              		.loc 15 139 0
 1445 001a 7B48     		ldr	r0, .L79+4
 1446 001c 0121     		movs	r1, #1
 1447 001e FFF7FEFF 		bl	_ZN3r2p4Node11set_enabledEb
 1448              		.loc 15 141 0
 1449 0022 7A4B     		ldr	r3, .L79+8
 1450 0024 1B78     		ldrb	r3, [r3]	@ zero_extendqisi2
 1451 0026 002B     		cmp	r3, #0
 1452 0028 08D0     		beq	.L77
 1453              		.loc 15 142 0
 1454 002a 7748     		ldr	r0, .L79+4
 1455 002c 7849     		ldr	r1, .L79+12
 1456 002e 794A     		ldr	r2, .L79+16
 1457 0030 794B     		ldr	r3, .L79+20
 1458 0032 FFF7FEFF 		bl	_ZN3r2p4Node9advertiseINS_9Speed3MsgEEEbRNS_9PublisherIT_EEPKcRKNS_4TimeE
 1459              		.loc 15 143 0
 1460 0036 754B     		ldr	r3, .L79+8
ARM GAS  /tmp/ccypRU8x.s 			page 28


 1461 0038 0022     		movs	r2, #0
 1462 003a 1A70     		strb	r2, [r3]
 1463              	.L77:
 1464              		.loc 15 146 0
 1465 003c 059B     		ldr	r3, [sp, #20]
 1466 003e 1B68     		ldr	r3, [r3]
 1467 0040 1846     		mov	r0, r3
 1468 0042 FFF7FEFF 		bl	atof
 1469 0046 53EC102B 		fmrrd	r2, r3, d0
 1470 004a 1046     		mov	r0, r2
 1471 004c 1946     		mov	r1, r3
 1472 004e FFF7FEFF 		bl	__aeabi_d2f
 1473 0052 0346     		mov	r3, r0	@ float
 1474 0054 1193     		str	r3, [sp, #68]	@ float
 1475              		.loc 15 147 0
 1476 0056 059B     		ldr	r3, [sp, #20]
 1477 0058 0433     		adds	r3, r3, #4
 1478 005a 1B68     		ldr	r3, [r3]
 1479 005c 1846     		mov	r0, r3
 1480 005e FFF7FEFF 		bl	atof
 1481 0062 53EC102B 		fmrrd	r2, r3, d0
 1482 0066 1046     		mov	r0, r2
 1483 0068 1946     		mov	r1, r3
 1484 006a FFF7FEFF 		bl	__aeabi_d2f
 1485 006e 0346     		mov	r3, r0	@ float
 1486 0070 1093     		str	r3, [sp, #64]	@ float
 1487              		.loc 15 148 0
 1488 0072 059B     		ldr	r3, [sp, #20]
 1489 0074 0833     		adds	r3, r3, #8
 1490 0076 1B68     		ldr	r3, [r3]
 1491 0078 1846     		mov	r0, r3
 1492 007a FFF7FEFF 		bl	atof
 1493 007e 53EC102B 		fmrrd	r2, r3, d0
 1494 0082 1046     		mov	r0, r2
 1495 0084 1946     		mov	r1, r3
 1496 0086 FFF7FEFF 		bl	__aeabi_d2f
 1497 008a 0346     		mov	r3, r0	@ float
 1498 008c 0F93     		str	r3, [sp, #60]	@ float
 1499              		.loc 15 151 0
 1500 008e DDED0F7A 		flds	s15, [sp, #60]
 1501 0092 9FED627A 		flds	s14, .L79+24
 1502 0096 67EE877A 		fmuls	s15, s15, s14
 1503 009a CDED0E7A 		fsts	s15, [sp, #56]
 1504              		.loc 15 152 0
 1505 009e DDED107A 		flds	s15, [sp, #64]
 1506 00a2 9FED5F7A 		flds	s14, .L79+28
 1507 00a6 67EE877A 		fmuls	s15, s15, s14
 1508 00aa CDED0D7A 		fsts	s15, [sp, #52]
 1509              		.loc 15 153 0
 1510 00ae DDED117A 		flds	s15, [sp, #68]
 1511 00b2 9FED5C7A 		flds	s14, .L79+32
 1512 00b6 67EE877A 		fmuls	s15, s15, s14
 1513 00ba CDED0C7A 		fsts	s15, [sp, #48]
 1514              		.loc 15 155 0
 1515 00be 9DED0D7A 		flds	s14, [sp, #52]
 1516 00c2 DDED0C7A 		flds	s15, [sp, #48]
 1517 00c6 37EE677A 		fsubs	s14, s14, s15
ARM GAS  /tmp/ccypRU8x.s 			page 29


 1518 00ca DDED0E7A 		flds	s15, [sp, #56]
 1519 00ce 77EE277A 		fadds	s15, s14, s15
 1520 00d2 CDED0B7A 		fsts	s15, [sp, #44]
 1521              		.loc 15 156 0
 1522 00d6 9DED0D7A 		flds	s14, [sp, #52]
 1523 00da DDED0C7A 		flds	s15, [sp, #48]
 1524 00de 37EE277A 		fadds	s14, s14, s15
 1525 00e2 DDED0E7A 		flds	s15, [sp, #56]
 1526 00e6 77EE277A 		fadds	s15, s14, s15
 1527 00ea CDED0A7A 		fsts	s15, [sp, #40]
 1528              		.loc 15 157 0
 1529 00ee DDED107A 		flds	s15, [sp, #64]
 1530 00f2 9FED4D7A 		flds	s14, .L79+36
 1531 00f6 27EE877A 		fmuls	s14, s15, s14
 1532 00fa DDED0E7A 		flds	s15, [sp, #56]
 1533 00fe 77EE277A 		fadds	s15, s14, s15
 1534 0102 CDED097A 		fsts	s15, [sp, #36]
 1535              		.loc 15 160 0
 1536 0106 08AB     		add	r3, sp, #32
 1537 0108 4148     		ldr	r0, .L79+12
 1538 010a 1946     		mov	r1, r3
 1539 010c FFF7FEFF 		bl	_ZN3r2p9PublisherINS_9Speed3MsgEE5allocERPS1_
 1540 0110 0346     		mov	r3, r0
 1541 0112 002B     		cmp	r3, #0
 1542 0114 56D0     		beq	.L78
 1543              		.loc 15 161 0
 1544 0116 089C     		ldr	r4, [sp, #32]
 1545 0118 9FED440A 		flds	s0, .L79+40
 1546 011c DDED0B0A 		flds	s1, [sp, #44]
 1547 0120 9FED431A 		flds	s2, .L79+44
 1548 0124 FFF7FEFF 		bl	_Z5clampIfET_S0_S0_S0_
 1549 0128 F0EE407A 		fcpys	s15, s0
 1550 012c FDEEE77A 		ftosizs	s15, s15
 1551 0130 CDED047A 		fsts	s15, [sp, #16]	@ int
 1552 0134 BDF81030 		ldrh	r3, [sp, #16]	@ movhi
 1553 0138 9BB2     		uxth	r3, r3
 1554 013a 1BB2     		sxth	r3, r3
 1555 013c 07EE903A 		fmsr	s15, r3	@ int
 1556 0140 F8EEE77A 		fsitos	s15, s15
 1557 0144 A31C     		adds	r3, r4, #2
 1558 0146 17EE902A 		fmrs	r2, s15
 1559 014a 1A60     		str	r2, [r3]	@ unaligned
 1560              		.loc 15 162 0
 1561 014c 089C     		ldr	r4, [sp, #32]
 1562 014e 9FED370A 		flds	s0, .L79+40
 1563 0152 DDED0A0A 		flds	s1, [sp, #40]
 1564 0156 9FED361A 		flds	s2, .L79+44
 1565 015a FFF7FEFF 		bl	_Z5clampIfET_S0_S0_S0_
 1566 015e F0EE407A 		fcpys	s15, s0
 1567 0162 FDEEE77A 		ftosizs	s15, s15
 1568 0166 CDED047A 		fsts	s15, [sp, #16]	@ int
 1569 016a BDF81030 		ldrh	r3, [sp, #16]	@ movhi
 1570 016e 9BB2     		uxth	r3, r3
 1571 0170 1BB2     		sxth	r3, r3
 1572 0172 07EE903A 		fmsr	s15, r3	@ int
 1573 0176 F8EEE77A 		fsitos	s15, s15
 1574 017a A31D     		adds	r3, r4, #6
ARM GAS  /tmp/ccypRU8x.s 			page 30


 1575 017c 17EE902A 		fmrs	r2, s15
 1576 0180 1A60     		str	r2, [r3]	@ unaligned
 1577              		.loc 15 163 0
 1578 0182 089C     		ldr	r4, [sp, #32]
 1579 0184 9FED290A 		flds	s0, .L79+40
 1580 0188 DDED090A 		flds	s1, [sp, #36]
 1581 018c 9FED281A 		flds	s2, .L79+44
 1582 0190 FFF7FEFF 		bl	_Z5clampIfET_S0_S0_S0_
 1583 0194 F0EE407A 		fcpys	s15, s0
 1584 0198 FDEEE77A 		ftosizs	s15, s15
 1585 019c CDED047A 		fsts	s15, [sp, #16]	@ int
 1586 01a0 BDF81030 		ldrh	r3, [sp, #16]	@ movhi
 1587 01a4 9BB2     		uxth	r3, r3
 1588 01a6 1BB2     		sxth	r3, r3
 1589 01a8 07EE903A 		fmsr	s15, r3	@ int
 1590 01ac F8EEE77A 		fsitos	s15, s15
 1591 01b0 04F10A03 		add	r3, r4, #10
 1592 01b4 17EE902A 		fmrs	r2, s15
 1593 01b8 1A60     		str	r2, [r3]	@ unaligned
 1594              		.loc 15 164 0
 1595 01ba 089B     		ldr	r3, [sp, #32]
 1596 01bc 1448     		ldr	r0, .L79+12
 1597 01be 1946     		mov	r1, r3
 1598 01c0 FFF7FEFF 		bl	_ZN3r2p9PublisherINS_9Speed3MsgEE7publishERS1_
 1599              	.L78:
 1600              		.loc 15 167 0
 1601 01c4 0B98     		ldr	r0, [sp, #44]	@ float
 1602 01c6 FFF7FEFF 		bl	__aeabi_f2d
 1603 01ca 0646     		mov	r6, r0
 1604 01cc 0F46     		mov	r7, r1
 1605 01ce 0A98     		ldr	r0, [sp, #40]	@ float
 1606 01d0 FFF7FEFF 		bl	__aeabi_f2d
 1607 01d4 0446     		mov	r4, r0
 1608 01d6 0D46     		mov	r5, r1
 1609 01d8 0998     		ldr	r0, [sp, #36]	@ float
 1610 01da FFF7FEFF 		bl	__aeabi_f2d
 1611 01de 0246     		mov	r2, r0
 1612 01e0 0B46     		mov	r3, r1
 1613 01e2 CDE90045 		strd	r4, [sp]
 1614 01e6 CDE90223 		strd	r2, [sp, #8]
 1615 01ea 0798     		ldr	r0, [sp, #28]
 1616 01ec 1149     		ldr	r1, .L79+48
 1617 01ee 3246     		mov	r2, r6
 1618 01f0 3B46     		mov	r3, r7
 1619 01f2 FFF7FEFF 		bl	_ZL8chprintfP20BaseSequentialStreamPKcz
 1620              		.loc 15 169 0
 1621 01f6 0448     		ldr	r0, .L79+4
 1622 01f8 0021     		movs	r1, #0
 1623 01fa FFF7FEFF 		bl	_ZN3r2p4Node11set_enabledEb
 1624              	.L74:
 1625              	.LBE62:
 1626              		.loc 15 170 0
 1627 01fe 13B0     		add	sp, sp, #76
 1628              		.cfi_def_cfa_offset 20
 1629              		@ sp needed
 1630 0200 F0BD     		pop	{r4, r5, r6, r7, pc}
 1631              	.L80:
ARM GAS  /tmp/ccypRU8x.s 			page 31


 1632 0202 00BF     		.align	2
 1633              	.L79:
 1634 0204 10000000 		.word	.LC1
 1635 0208 00000000 		.word	vel_node
 1636 020c 00000000 		.word	speed_first_time
 1637 0210 00000000 		.word	vel_pub
 1638 0214 3C000000 		.word	.LC2
 1639 0218 00000000 		.word	_ZN3r2p4Time8INFINITEE
 1640 021c 244992C0 		.word	-1064154844
 1641 0220 49926441 		.word	1097110089
 1642 0224 DBF2C541 		.word	1103491803
 1643 0228 4992E4C1 		.word	-1041984951
 1644 022c 000050C2 		.word	-1034944512
 1645 0230 00005042 		.word	1112539136
 1646 0234 44000000 		.word	.LC3
 1647              		.cfi_endproc
 1648              	.LFE600:
 1649              		.size	_ZL7cmd_runP20BaseSequentialStreamiPPc, .-_ZL7cmd_runP20BaseSequentialStreamiPPc
 1650 0238 AFF30080 		.section	.rodata
 1650      AFF30080 
 1651 0059 000000   		.align	2
 1652              	.LC4:
 1653 005c 25642073 		.ascii	"%d second to explosion\012\000"
 1653      65636F6E 
 1653      6420746F 
 1653      20657870 
 1653      6C6F7369 
 1654              		.align	2
 1655              	.LC5:
 1656 0074 424F4F4F 		.ascii	"BOOOOOOM\012\000"
 1656      4F4F4F4D 
 1656      0A00
 1657 007e 0000     		.align	2
 1658              	.LC6:
 1659 0080 70697879 		.ascii	"pixy\000"
 1659      00
 1660 0085 000000   		.align	2
 1661              	.LC7:
 1662 0088 48656967 		.ascii	"Height: %d \012\000"
 1662      68743A20 
 1662      2564200A 
 1662      00
 1663 0095 000000   		.align	2
 1664              	.LC8:
 1665 0098 526F7461 		.ascii	"Rotating Right\012\000"
 1665      74696E67 
 1665      20526967 
 1665      68740A00 
 1666              		.align	2
 1667              	.LC9:
 1668 00a8 526F7461 		.ascii	"Rotating Left\012\000"
 1668      74696E67 
 1668      204C6566 
 1668      740A00
 1669 00b7 00       		.align	2
 1670              	.LC10:
 1671 00b8 476F696E 		.ascii	"Going Ahead\012\000"
ARM GAS  /tmp/ccypRU8x.s 			page 32


 1671      67204168 
 1671      6561640A 
 1671      00
 1672 00c5 000000   		.align	2
 1673              	.LC11:
 1674 00c8 4F626A65 		.ascii	"Object Found\012\000"
 1674      63742046 
 1674      6F756E64 
 1674      0A00
 1675 00d6 0000     		.align	2
 1676              	.LC12:
 1677 00d8 4F626A65 		.ascii	"Object Centered\012\000"
 1677      63742043 
 1677      656E7465 
 1677      7265640A 
 1677      00
 1678 00e9 000000   		.align	2
 1679              	.LC13:
 1680 00ec 53656172 		.ascii	"Searching\012\000"
 1680      6368696E 
 1680      670A00
 1681              		.section	.text._ZL10cmd_followP20BaseSequentialStreamiPPc,"ax",%progbits
 1682              		.align	2
 1683              		.p2align 4,,15
 1684              		.thumb
 1685              		.thumb_func
 1686              		.type	_ZL10cmd_followP20BaseSequentialStreamiPPc, %function
 1687              	_ZL10cmd_followP20BaseSequentialStreamiPPc:
 1688              	.LFB601:
 1689              		.loc 15 172 0
 1690              		.cfi_startproc
 1691              		@ args = 0, pretend = 0, frame = 80
 1692              		@ frame_needed = 0, uses_anonymous_args = 0
 1693 0000 10B5     		push	{r4, lr}
 1694              		.cfi_def_cfa_offset 8
 1695              		.cfi_offset 4, -8
 1696              		.cfi_offset 14, -4
 1697 0002 94B0     		sub	sp, sp, #80
 1698              		.cfi_def_cfa_offset 88
 1699 0004 0390     		str	r0, [sp, #12]
 1700 0006 0291     		str	r1, [sp, #8]
 1701 0008 0192     		str	r2, [sp, #4]
 1702              	.LBB63:
 1703              	.LBB64:
 1704              		.loc 15 175 0
 1705 000a 0A23     		movs	r3, #10
 1706 000c 1393     		str	r3, [sp, #76]
 1707 000e 11E0     		b	.L82
 1708              	.L83:
 1709              		.loc 15 177 0 discriminator 3
 1710 0010 0398     		ldr	r0, [sp, #12]
 1711 0012 7D49     		ldr	r1, .L103
 1712 0014 139A     		ldr	r2, [sp, #76]
 1713 0016 FFF7FEFF 		bl	_ZL8chprintfP20BaseSequentialStreamPKcz
 1714              		.loc 15 178 0 discriminator 3
 1715 001a 06AB     		add	r3, sp, #24
 1716 001c 1846     		mov	r0, r3
ARM GAS  /tmp/ccypRU8x.s 			page 33


 1717 001e 4FF47A71 		mov	r1, #1000
 1718 0022 FFF7FEFF 		bl	_ZN3r2p4Time2msEl
 1719 0026 06AB     		add	r3, sp, #24
 1720 0028 1846     		mov	r0, r3
 1721 002a FFF7FEFF 		bl	_ZN3r2p6Thread5sleepERKNS_4TimeE
 1722              		.loc 15 175 0 discriminator 3
 1723 002e 139B     		ldr	r3, [sp, #76]
 1724 0030 013B     		subs	r3, r3, #1
 1725 0032 1393     		str	r3, [sp, #76]
 1726              	.L82:
 1727              		.loc 15 175 0 is_stmt 0 discriminator 1
 1728 0034 139B     		ldr	r3, [sp, #76]
 1729 0036 002B     		cmp	r3, #0
 1730 0038 EADC     		bgt	.L83
 1731              	.LBE64:
 1732              		.loc 15 180 0 is_stmt 1
 1733 003a 0398     		ldr	r0, [sp, #12]
 1734 003c 7349     		ldr	r1, .L103+4
 1735 003e FFF7FEFF 		bl	_ZL8chprintfP20BaseSequentialStreamPKcz
 1736              		.loc 15 183 0
 1737 0042 734B     		ldr	r3, .L103+8
 1738 0044 1B78     		ldrb	r3, [r3]	@ zero_extendqisi2
 1739 0046 002B     		cmp	r3, #0
 1740 0048 07D0     		beq	.L84
 1741              		.loc 15 184 0
 1742 004a 7248     		ldr	r0, .L103+12
 1743 004c 7249     		ldr	r1, .L103+16
 1744 004e 734A     		ldr	r2, .L103+20
 1745 0050 FFF7FEFF 		bl	_ZN3r2p4Node9subscribeINS_7PixyMsgELj5EEEbRNS_10SubscriberIT_XT0_EEEPKc
 1746              		.loc 15 185 0
 1747 0054 6E4B     		ldr	r3, .L103+8
 1748 0056 0022     		movs	r2, #0
 1749 0058 1A70     		strb	r2, [r3]
 1750              	.L84:
 1751              		.loc 15 187 0
 1752 005a 6E48     		ldr	r0, .L103+12
 1753 005c 0121     		movs	r1, #1
 1754 005e FFF7FEFF 		bl	_ZN3r2p4Node11set_enabledEb
 1755              		.loc 15 191 0
 1756 0062 6F48     		ldr	r0, .L103+24
 1757 0064 0121     		movs	r1, #1
 1758 0066 FFF7FEFF 		bl	_ZN3r2p4Node11set_enabledEb
 1759              		.loc 15 193 0
 1760 006a 6E4B     		ldr	r3, .L103+28
 1761 006c 1B78     		ldrb	r3, [r3]	@ zero_extendqisi2
 1762 006e 002B     		cmp	r3, #0
 1763 0070 08D0     		beq	.L85
 1764              		.loc 15 194 0
 1765 0072 6B48     		ldr	r0, .L103+24
 1766 0074 6C49     		ldr	r1, .L103+32
 1767 0076 6D4A     		ldr	r2, .L103+36
 1768 0078 6D4B     		ldr	r3, .L103+40
 1769 007a FFF7FEFF 		bl	_ZN3r2p4Node9advertiseINS_9Speed3MsgEEEbRNS_9PublisherIT_EEPKcRKNS_4TimeE
 1770              		.loc 15 195 0
 1771 007e 694B     		ldr	r3, .L103+28
 1772 0080 0022     		movs	r2, #0
 1773 0082 1A70     		strb	r2, [r3]
ARM GAS  /tmp/ccypRU8x.s 			page 34


 1774              	.L85:
 1775              		.loc 15 197 0
 1776 0084 4FF00003 		mov	r3, #0
 1777 0088 1293     		str	r3, [sp, #72]	@ float
 1778              		.loc 15 198 0
 1779 008a 4FF00003 		mov	r3, #0
 1780 008e 1193     		str	r3, [sp, #68]	@ float
 1781              		.loc 15 199 0
 1782 0090 4FF00003 		mov	r3, #0
 1783 0094 1093     		str	r3, [sp, #64]	@ float
 1784              	.L102:
 1785              	.LBB65:
 1786              	.LBB66:
 1787              		.loc 15 202 0
 1788 0096 4FF00003 		mov	r3, #0
 1789 009a 1293     		str	r3, [sp, #72]	@ float
 1790              		.loc 15 203 0
 1791 009c 4FF00003 		mov	r3, #0
 1792 00a0 1193     		str	r3, [sp, #68]	@ float
 1793              		.loc 15 204 0
 1794 00a2 4FF00003 		mov	r3, #0
 1795 00a6 1093     		str	r3, [sp, #64]	@ float
 1796              		.loc 15 205 0
 1797 00a8 0023     		movs	r3, #0
 1798 00aa 0F93     		str	r3, [sp, #60]
 1799              		.loc 15 206 0
 1800 00ac 0BE0     		b	.L86
 1801              	.L89:
 1802              		.loc 15 207 0
 1803 00ae 07AB     		add	r3, sp, #28
 1804 00b0 1846     		mov	r0, r3
 1805 00b2 0521     		movs	r1, #5
 1806 00b4 FFF7FEFF 		bl	_ZN3r2p4Time2msEl
 1807 00b8 07AB     		add	r3, sp, #28
 1808 00ba 1846     		mov	r0, r3
 1809 00bc FFF7FEFF 		bl	_ZN3r2p6Thread5sleepERKNS_4TimeE
 1810              		.loc 15 208 0
 1811 00c0 0F9B     		ldr	r3, [sp, #60]
 1812 00c2 0133     		adds	r3, r3, #1
 1813 00c4 0F93     		str	r3, [sp, #60]
 1814              	.L86:
 1815              		.loc 15 206 0
 1816 00c6 05AB     		add	r3, sp, #20
 1817 00c8 5348     		ldr	r0, .L103+16
 1818 00ca 1946     		mov	r1, r3
 1819 00cc FFF7FEFF 		bl	_ZN3r2p16SubscriberExtBufINS_7PixyMsgEE5fetchERPS1_
 1820 00d0 0346     		mov	r3, r0
 1821 00d2 83F00103 		eor	r3, r3, #1
 1822 00d6 DBB2     		uxtb	r3, r3
 1823 00d8 002B     		cmp	r3, #0
 1824 00da 05D0     		beq	.L87
 1825              		.loc 15 206 0 is_stmt 0 discriminator 1
 1826 00dc 0F9B     		ldr	r3, [sp, #60]
 1827 00de B3F57A7F 		cmp	r3, #1000
 1828 00e2 01DA     		bge	.L87
 1829              		.loc 15 206 0 discriminator 3
 1830 00e4 0123     		movs	r3, #1
ARM GAS  /tmp/ccypRU8x.s 			page 35


 1831 00e6 00E0     		b	.L88
 1832              	.L87:
 1833              		.loc 15 206 0 discriminator 4
 1834 00e8 0023     		movs	r3, #0
 1835              	.L88:
 1836              		.loc 15 206 0 discriminator 6
 1837 00ea 002B     		cmp	r3, #0
 1838 00ec DFD1     		bne	.L89
 1839              	.LBB67:
 1840              		.loc 15 211 0 is_stmt 1
 1841 00ee 0F9B     		ldr	r3, [sp, #60]
 1842 00f0 B3F57A7F 		cmp	r3, #1000
 1843 00f4 80F2B080 		bge	.L90
 1844              	.LBB68:
 1845              	.LBB69:
 1846              		.loc 15 212 0
 1847 00f8 0023     		movs	r3, #0
 1848 00fa 0E93     		str	r3, [sp, #56]
 1849 00fc 0CE0     		b	.L91
 1850              	.L92:
 1851              		.loc 15 213 0 discriminator 3
 1852 00fe 059B     		ldr	r3, [sp, #20]
 1853 0100 4548     		ldr	r0, .L103+16
 1854 0102 1946     		mov	r1, r3
 1855 0104 FFF7FEFF 		bl	_ZN3r2p16SubscriberExtBufINS_7PixyMsgEE7releaseERS1_
 1856              		.loc 15 214 0 discriminator 3
 1857 0108 05AB     		add	r3, sp, #20
 1858 010a 4348     		ldr	r0, .L103+16
 1859 010c 1946     		mov	r1, r3
 1860 010e FFF7FEFF 		bl	_ZN3r2p16SubscriberExtBufINS_7PixyMsgEE5fetchERPS1_
 1861              		.loc 15 212 0 discriminator 3
 1862 0112 0E9B     		ldr	r3, [sp, #56]
 1863 0114 0133     		adds	r3, r3, #1
 1864 0116 0E93     		str	r3, [sp, #56]
 1865              	.L91:
 1866              		.loc 15 212 0 is_stmt 0 discriminator 1
 1867 0118 0E9B     		ldr	r3, [sp, #56]
 1868 011a 032B     		cmp	r3, #3
 1869 011c EFDD     		ble	.L92
 1870              	.LBE69:
 1871              		.loc 15 216 0 is_stmt 1
 1872 011e 059B     		ldr	r3, [sp, #20]
 1873 0120 9B89     		ldrh	r3, [r3, #12]	@ unaligned
 1874 0122 9BB2     		uxth	r3, r3
 1875 0124 0398     		ldr	r0, [sp, #12]
 1876 0126 4349     		ldr	r1, .L103+44
 1877 0128 1A46     		mov	r2, r3
 1878 012a FFF7FEFF 		bl	_ZL8chprintfP20BaseSequentialStreamPKcz
 1879              		.loc 15 217 0
 1880 012e 059B     		ldr	r3, [sp, #20]
 1881 0130 9B89     		ldrh	r3, [r3, #12]	@ unaligned
 1882 0132 9BB2     		uxth	r3, r3
 1883 0134 632B     		cmp	r3, #99
 1884 0136 2ED8     		bhi	.L93
 1885              		.loc 15 218 0
 1886 0138 059B     		ldr	r3, [sp, #20]
 1887 013a DB88     		ldrh	r3, [r3, #6]	@ unaligned
ARM GAS  /tmp/ccypRU8x.s 			page 36


 1888 013c 9BB2     		uxth	r3, r3
 1889 013e C82B     		cmp	r3, #200
 1890 0140 0BD9     		bls	.L94
 1891              		.loc 15 219 0
 1892 0142 0398     		ldr	r0, [sp, #12]
 1893 0144 3C49     		ldr	r1, .L103+48
 1894 0146 FFF7FEFF 		bl	_ZL8chprintfP20BaseSequentialStreamPKcz
 1895              		.loc 15 220 0
 1896 014a 3C4B     		ldr	r3, .L103+52
 1897 014c 1293     		str	r3, [sp, #72]	@ float
 1898              		.loc 15 221 0
 1899 014e 4FF00003 		mov	r3, #0
 1900 0152 1193     		str	r3, [sp, #68]	@ float
 1901              		.loc 15 222 0
 1902 0154 3A4B     		ldr	r3, .L103+56
 1903 0156 1093     		str	r3, [sp, #64]	@ float
 1904 0158 50E0     		b	.L97
 1905              	.L94:
 1906              		.loc 15 223 0
 1907 015a 059B     		ldr	r3, [sp, #20]
 1908 015c DB88     		ldrh	r3, [r3, #6]	@ unaligned
 1909 015e 9BB2     		uxth	r3, r3
 1910 0160 772B     		cmp	r3, #119
 1911 0162 0BD8     		bhi	.L96
 1912              		.loc 15 224 0
 1913 0164 0398     		ldr	r0, [sp, #12]
 1914 0166 3749     		ldr	r1, .L103+60
 1915 0168 FFF7FEFF 		bl	_ZL8chprintfP20BaseSequentialStreamPKcz
 1916              		.loc 15 225 0
 1917 016c 334B     		ldr	r3, .L103+52
 1918 016e 1293     		str	r3, [sp, #72]	@ float
 1919              		.loc 15 226 0
 1920 0170 4FF00003 		mov	r3, #0
 1921 0174 1193     		str	r3, [sp, #68]	@ float
 1922              		.loc 15 227 0
 1923 0176 314B     		ldr	r3, .L103+52
 1924 0178 1093     		str	r3, [sp, #64]	@ float
 1925 017a 3FE0     		b	.L97
 1926              	.L96:
 1927              		.loc 15 229 0
 1928 017c 0398     		ldr	r0, [sp, #12]
 1929 017e 3249     		ldr	r1, .L103+64
 1930 0180 FFF7FEFF 		bl	_ZL8chprintfP20BaseSequentialStreamPKcz
 1931              		.loc 15 230 0
 1932 0184 314B     		ldr	r3, .L103+68
 1933 0186 1293     		str	r3, [sp, #72]	@ float
 1934              		.loc 15 231 0
 1935 0188 4FF00003 		mov	r3, #0
 1936 018c 1193     		str	r3, [sp, #68]	@ float
 1937              		.loc 15 232 0
 1938 018e 4FF00003 		mov	r3, #0
 1939 0192 1093     		str	r3, [sp, #64]	@ float
 1940 0194 32E0     		b	.L97
 1941              	.L93:
 1942              		.loc 15 236 0
 1943 0196 0398     		ldr	r0, [sp, #12]
 1944 0198 2D49     		ldr	r1, .L103+72
ARM GAS  /tmp/ccypRU8x.s 			page 37


 1945 019a FFF7FEFF 		bl	_ZL8chprintfP20BaseSequentialStreamPKcz
 1946              		.loc 15 237 0
 1947 019e 059B     		ldr	r3, [sp, #20]
 1948 01a0 DB88     		ldrh	r3, [r3, #6]	@ unaligned
 1949 01a2 9BB2     		uxth	r3, r3
 1950 01a4 AA2B     		cmp	r3, #170
 1951 01a6 0BD9     		bls	.L98
 1952              		.loc 15 238 0
 1953 01a8 0398     		ldr	r0, [sp, #12]
 1954 01aa 2349     		ldr	r1, .L103+48
 1955 01ac FFF7FEFF 		bl	_ZL8chprintfP20BaseSequentialStreamPKcz
 1956              		.loc 15 239 0
 1957 01b0 224B     		ldr	r3, .L103+52
 1958 01b2 1293     		str	r3, [sp, #72]	@ float
 1959              		.loc 15 240 0
 1960 01b4 4FF00003 		mov	r3, #0
 1961 01b8 1193     		str	r3, [sp, #68]	@ float
 1962              		.loc 15 241 0
 1963 01ba 214B     		ldr	r3, .L103+56
 1964 01bc 1093     		str	r3, [sp, #64]	@ float
 1965 01be 1DE0     		b	.L97
 1966              	.L98:
 1967              		.loc 15 242 0
 1968 01c0 059B     		ldr	r3, [sp, #20]
 1969 01c2 DB88     		ldrh	r3, [r3, #6]	@ unaligned
 1970 01c4 9BB2     		uxth	r3, r3
 1971 01c6 952B     		cmp	r3, #149
 1972 01c8 0BD8     		bhi	.L99
 1973              		.loc 15 243 0
 1974 01ca 0398     		ldr	r0, [sp, #12]
 1975 01cc 1D49     		ldr	r1, .L103+60
 1976 01ce FFF7FEFF 		bl	_ZL8chprintfP20BaseSequentialStreamPKcz
 1977              		.loc 15 244 0
 1978 01d2 1A4B     		ldr	r3, .L103+52
 1979 01d4 1293     		str	r3, [sp, #72]	@ float
 1980              		.loc 15 245 0
 1981 01d6 4FF00003 		mov	r3, #0
 1982 01da 1193     		str	r3, [sp, #68]	@ float
 1983              		.loc 15 246 0
 1984 01dc 174B     		ldr	r3, .L103+52
 1985 01de 1093     		str	r3, [sp, #64]	@ float
 1986 01e0 0CE0     		b	.L97
 1987              	.L99:
 1988              		.loc 15 248 0
 1989 01e2 0398     		ldr	r0, [sp, #12]
 1990 01e4 1B49     		ldr	r1, .L103+76
 1991 01e6 FFF7FEFF 		bl	_ZL8chprintfP20BaseSequentialStreamPKcz
 1992              		.loc 15 249 0
 1993 01ea 4FF00003 		mov	r3, #0
 1994 01ee 1293     		str	r3, [sp, #72]	@ float
 1995              		.loc 15 250 0
 1996 01f0 4FF00003 		mov	r3, #0
 1997 01f4 1193     		str	r3, [sp, #68]	@ float
 1998              		.loc 15 251 0
 1999 01f6 4FF00003 		mov	r3, #0
 2000 01fa 1093     		str	r3, [sp, #64]	@ float
 2001              	.L97:
ARM GAS  /tmp/ccypRU8x.s 			page 38


 2002              		.loc 15 254 0
 2003 01fc 059B     		ldr	r3, [sp, #20]
 2004 01fe 0648     		ldr	r0, .L103+16
 2005 0200 1946     		mov	r1, r3
 2006 0202 FFF7FEFF 		bl	_ZN3r2p16SubscriberExtBufINS_7PixyMsgEE7releaseERS1_
 2007              	.LBE68:
 2008 0206 34E0     		b	.L100
 2009              	.L104:
 2010              		.align	2
 2011              	.L103:
 2012 0208 5C000000 		.word	.LC4
 2013 020c 74000000 		.word	.LC5
 2014 0210 00000000 		.word	pixy_first_time
 2015 0214 00000000 		.word	pixy_node
 2016 0218 00000000 		.word	pixy_sub
 2017 021c 80000000 		.word	.LC6
 2018 0220 00000000 		.word	vel_node
 2019 0224 00000000 		.word	speed_first_time
 2020 0228 00000000 		.word	vel_pub
 2021 022c 3C000000 		.word	.LC2
 2022 0230 00000000 		.word	_ZN3r2p4Time8INFINITEE
 2023 0234 88000000 		.word	.LC7
 2024 0238 98000000 		.word	.LC8
 2025 023c CDCC4CBE 		.word	-1102263091
 2026 0240 CDCCCC3D 		.word	1036831949
 2027 0244 A8000000 		.word	.LC9
 2028 0248 B8000000 		.word	.LC10
 2029 024c CDCCCCBE 		.word	-1093874483
 2030 0250 C8000000 		.word	.LC11
 2031 0254 D8000000 		.word	.LC12
 2032              	.L90:
 2033              		.loc 15 258 0
 2034 0258 0398     		ldr	r0, [sp, #12]
 2035 025a 5449     		ldr	r1, .L105
 2036 025c FFF7FEFF 		bl	_ZL8chprintfP20BaseSequentialStreamPKcz
 2037              		.loc 15 259 0
 2038 0260 4FF00003 		mov	r3, #0
 2039 0264 1293     		str	r3, [sp, #72]	@ float
 2040              		.loc 15 260 0
 2041 0266 4FF00003 		mov	r3, #0
 2042 026a 1193     		str	r3, [sp, #68]	@ float
 2043              		.loc 15 261 0
 2044 026c 4FF07E53 		mov	r3, #1065353216
 2045 0270 1093     		str	r3, [sp, #64]	@ float
 2046              	.L100:
 2047              	.LBE67:
 2048              		.loc 15 266 0
 2049 0272 DDED107A 		flds	s15, [sp, #64]
 2050 0276 9FED4E7A 		flds	s14, .L105+4
 2051 027a 67EE877A 		fmuls	s15, s15, s14
 2052 027e CDED0D7A 		fsts	s15, [sp, #52]
 2053              		.loc 15 267 0
 2054 0282 DDED117A 		flds	s15, [sp, #68]
 2055 0286 9FED4B7A 		flds	s14, .L105+8
 2056 028a 67EE877A 		fmuls	s15, s15, s14
 2057 028e CDED0C7A 		fsts	s15, [sp, #48]
 2058              		.loc 15 268 0
ARM GAS  /tmp/ccypRU8x.s 			page 39


 2059 0292 DDED127A 		flds	s15, [sp, #72]
 2060 0296 9FED487A 		flds	s14, .L105+12
 2061 029a 67EE877A 		fmuls	s15, s15, s14
 2062 029e CDED0B7A 		fsts	s15, [sp, #44]
 2063              		.loc 15 270 0
 2064 02a2 9DED0C7A 		flds	s14, [sp, #48]
 2065 02a6 DDED0B7A 		flds	s15, [sp, #44]
 2066 02aa 37EE677A 		fsubs	s14, s14, s15
 2067 02ae DDED0D7A 		flds	s15, [sp, #52]
 2068 02b2 77EE277A 		fadds	s15, s14, s15
 2069 02b6 CDED0A7A 		fsts	s15, [sp, #40]
 2070              		.loc 15 271 0
 2071 02ba 9DED0C7A 		flds	s14, [sp, #48]
 2072 02be DDED0B7A 		flds	s15, [sp, #44]
 2073 02c2 37EE277A 		fadds	s14, s14, s15
 2074 02c6 DDED0D7A 		flds	s15, [sp, #52]
 2075 02ca 77EE277A 		fadds	s15, s14, s15
 2076 02ce CDED097A 		fsts	s15, [sp, #36]
 2077              		.loc 15 272 0
 2078 02d2 DDED117A 		flds	s15, [sp, #68]
 2079 02d6 9FED397A 		flds	s14, .L105+16
 2080 02da 27EE877A 		fmuls	s14, s15, s14
 2081 02de DDED0D7A 		flds	s15, [sp, #52]
 2082 02e2 77EE277A 		fadds	s15, s14, s15
 2083 02e6 CDED087A 		fsts	s15, [sp, #32]
 2084              		.loc 15 275 0
 2085 02ea 04AB     		add	r3, sp, #16
 2086 02ec 3448     		ldr	r0, .L105+20
 2087 02ee 1946     		mov	r1, r3
 2088 02f0 FFF7FEFF 		bl	_ZN3r2p9PublisherINS_9Speed3MsgEE5allocERPS1_
 2089 02f4 0346     		mov	r3, r0
 2090 02f6 002B     		cmp	r3, #0
 2091 02f8 56D0     		beq	.L101
 2092              		.loc 15 276 0
 2093 02fa 049C     		ldr	r4, [sp, #16]
 2094 02fc 9FED310A 		flds	s0, .L105+24
 2095 0300 DDED0A0A 		flds	s1, [sp, #40]
 2096 0304 9FED301A 		flds	s2, .L105+28
 2097 0308 FFF7FEFF 		bl	_Z5clampIfET_S0_S0_S0_
 2098 030c F0EE407A 		fcpys	s15, s0
 2099 0310 FDEEE77A 		ftosizs	s15, s15
 2100 0314 CDED007A 		fsts	s15, [sp]	@ int
 2101 0318 BDF80030 		ldrh	r3, [sp]	@ movhi
 2102 031c 9BB2     		uxth	r3, r3
 2103 031e 1BB2     		sxth	r3, r3
 2104 0320 07EE903A 		fmsr	s15, r3	@ int
 2105 0324 F8EEE77A 		fsitos	s15, s15
 2106 0328 A31C     		adds	r3, r4, #2
 2107 032a 17EE902A 		fmrs	r2, s15
 2108 032e 1A60     		str	r2, [r3]	@ unaligned
 2109              		.loc 15 277 0
 2110 0330 049C     		ldr	r4, [sp, #16]
 2111 0332 9FED240A 		flds	s0, .L105+24
 2112 0336 DDED090A 		flds	s1, [sp, #36]
 2113 033a 9FED231A 		flds	s2, .L105+28
 2114 033e FFF7FEFF 		bl	_Z5clampIfET_S0_S0_S0_
 2115 0342 F0EE407A 		fcpys	s15, s0
ARM GAS  /tmp/ccypRU8x.s 			page 40


 2116 0346 FDEEE77A 		ftosizs	s15, s15
 2117 034a CDED007A 		fsts	s15, [sp]	@ int
 2118 034e BDF80030 		ldrh	r3, [sp]	@ movhi
 2119 0352 9BB2     		uxth	r3, r3
 2120 0354 1BB2     		sxth	r3, r3
 2121 0356 07EE903A 		fmsr	s15, r3	@ int
 2122 035a F8EEE77A 		fsitos	s15, s15
 2123 035e A31D     		adds	r3, r4, #6
 2124 0360 17EE902A 		fmrs	r2, s15
 2125 0364 1A60     		str	r2, [r3]	@ unaligned
 2126              		.loc 15 278 0
 2127 0366 049C     		ldr	r4, [sp, #16]
 2128 0368 9FED160A 		flds	s0, .L105+24
 2129 036c DDED080A 		flds	s1, [sp, #32]
 2130 0370 9FED151A 		flds	s2, .L105+28
 2131 0374 FFF7FEFF 		bl	_Z5clampIfET_S0_S0_S0_
 2132 0378 F0EE407A 		fcpys	s15, s0
 2133 037c FDEEE77A 		ftosizs	s15, s15
 2134 0380 CDED007A 		fsts	s15, [sp]	@ int
 2135 0384 BDF80030 		ldrh	r3, [sp]	@ movhi
 2136 0388 9BB2     		uxth	r3, r3
 2137 038a 1BB2     		sxth	r3, r3
 2138 038c 07EE903A 		fmsr	s15, r3	@ int
 2139 0390 F8EEE77A 		fsitos	s15, s15
 2140 0394 04F10A03 		add	r3, r4, #10
 2141 0398 17EE902A 		fmrs	r2, s15
 2142 039c 1A60     		str	r2, [r3]	@ unaligned
 2143              		.loc 15 279 0
 2144 039e 049B     		ldr	r3, [sp, #16]
 2145 03a0 0748     		ldr	r0, .L105+20
 2146 03a2 1946     		mov	r1, r3
 2147 03a4 FFF7FEFF 		bl	_ZN3r2p9PublisherINS_9Speed3MsgEE7publishERS1_
 2148              	.L101:
 2149              	.LBE66:
 2150              		.loc 15 281 0
 2151 03a8 75E6     		b	.L102
 2152              	.L106:
 2153 03aa 00BF     		.align	2
 2154              	.L105:
 2155 03ac EC000000 		.word	.LC13
 2156 03b0 244992C0 		.word	-1064154844
 2157 03b4 49926441 		.word	1097110089
 2158 03b8 DBF2C541 		.word	1103491803
 2159 03bc 4992E4C1 		.word	-1041984951
 2160 03c0 00000000 		.word	vel_pub
 2161 03c4 000050C2 		.word	-1034944512
 2162 03c8 00005042 		.word	1112539136
 2163              	.LBE65:
 2164              	.LBE63:
 2165              		.cfi_endproc
 2166              	.LFE601:
 2167              		.size	_ZL10cmd_followP20BaseSequentialStreamiPPc, .-_ZL10cmd_followP20BaseSequentialStreamiPPc
 2168 03cc AFF30080 		.section	.rodata
 2169 00f7 00       		.align	2
 2170              	.LC14:
 2171 00f8 70726F78 		.ascii	"proximity\000"
 2171      696D6974 
ARM GAS  /tmp/ccypRU8x.s 			page 41


 2171      7900
 2172 0102 0000     		.align	2
 2173              	.LC15:
 2174 0104 5072696E 		.ascii	"Print from Proximity\015\012\000"
 2174      74206672 
 2174      6F6D2050 
 2174      726F7869 
 2174      6D697479 
 2175 011b 00       		.align	2
 2176              	.LC16:
 2177 011c 6972206E 		.ascii	"ir n:%d value : %d\015\012\000"
 2177      3A256420 
 2177      76616C75 
 2177      65203A20 
 2177      25640D0A 
 2178 0131 000000   		.align	2
 2179              	.LC17:
 2180 0134 0D0A00   		.ascii	"\015\012\000"
 2181              		.section	.text._ZL13cmd_proximityP20BaseSequentialStreamiPPc,"ax",%progbits
 2182              		.align	2
 2183              		.p2align 4,,15
 2184              		.thumb
 2185              		.thumb_func
 2186              		.type	_ZL13cmd_proximityP20BaseSequentialStreamiPPc, %function
 2187              	_ZL13cmd_proximityP20BaseSequentialStreamiPPc:
 2188              	.LFB602:
 2189              		.loc 15 289 0
 2190              		.cfi_startproc
 2191              		@ args = 0, pretend = 0, frame = 32
 2192              		@ frame_needed = 0, uses_anonymous_args = 0
 2193 0000 00B5     		push	{lr}
 2194              		.cfi_def_cfa_offset 4
 2195              		.cfi_offset 14, -4
 2196 0002 89B0     		sub	sp, sp, #36
 2197              		.cfi_def_cfa_offset 40
 2198 0004 0390     		str	r0, [sp, #12]
 2199 0006 0291     		str	r1, [sp, #8]
 2200 0008 0192     		str	r2, [sp, #4]
 2201              	.LBB70:
 2202              		.loc 15 292 0
 2203 000a 0023     		movs	r3, #0
 2204 000c 0793     		str	r3, [sp, #28]
 2205              		.loc 15 295 0
 2206 000e 2E4B     		ldr	r3, .L116
 2207 0010 1B78     		ldrb	r3, [r3]	@ zero_extendqisi2
 2208 0012 002B     		cmp	r3, #0
 2209 0014 07D0     		beq	.L108
 2210              		.loc 15 296 0
 2211 0016 2D48     		ldr	r0, .L116+4
 2212 0018 2D49     		ldr	r1, .L116+8
 2213 001a 2E4A     		ldr	r2, .L116+12
 2214 001c FFF7FEFF 		bl	_ZN3r2p4Node9subscribeINS_12ProximityMsgELj5EEEbRNS_10SubscriberIT_XT0_EEEPKc
 2215              		.loc 15 297 0
 2216 0020 294B     		ldr	r3, .L116
 2217 0022 0022     		movs	r2, #0
 2218 0024 1A70     		strb	r2, [r3]
 2219              	.L108:
ARM GAS  /tmp/ccypRU8x.s 			page 42


 2220              		.loc 15 299 0
 2221 0026 2948     		ldr	r0, .L116+4
 2222 0028 0121     		movs	r1, #1
 2223 002a FFF7FEFF 		bl	_ZN3r2p4Node11set_enabledEb
 2224              		.loc 15 301 0
 2225 002e 0398     		ldr	r0, [sp, #12]
 2226 0030 2949     		ldr	r1, .L116+16
 2227 0032 FFF7FEFF 		bl	_ZL8chprintfP20BaseSequentialStreamPKcz
 2228              		.loc 15 302 0
 2229 0036 0BE0     		b	.L109
 2230              	.L112:
 2231              		.loc 15 303 0
 2232 0038 05AB     		add	r3, sp, #20
 2233 003a 1846     		mov	r0, r3
 2234 003c 0521     		movs	r1, #5
 2235 003e FFF7FEFF 		bl	_ZN3r2p4Time2msEl
 2236 0042 05AB     		add	r3, sp, #20
 2237 0044 1846     		mov	r0, r3
 2238 0046 FFF7FEFF 		bl	_ZN3r2p6Thread5sleepERKNS_4TimeE
 2239              		.loc 15 304 0
 2240 004a 079B     		ldr	r3, [sp, #28]
 2241 004c 0133     		adds	r3, r3, #1
 2242 004e 0793     		str	r3, [sp, #28]
 2243              	.L109:
 2244              		.loc 15 302 0
 2245 0050 04AB     		add	r3, sp, #16
 2246 0052 1F48     		ldr	r0, .L116+8
 2247 0054 1946     		mov	r1, r3
 2248 0056 FFF7FEFF 		bl	_ZN3r2p16SubscriberExtBufINS_12ProximityMsgEE5fetchERPS1_
 2249 005a 0346     		mov	r3, r0
 2250 005c 83F00103 		eor	r3, r3, #1
 2251 0060 DBB2     		uxtb	r3, r3
 2252 0062 002B     		cmp	r3, #0
 2253 0064 05D0     		beq	.L110
 2254              		.loc 15 302 0 is_stmt 0 discriminator 1
 2255 0066 079B     		ldr	r3, [sp, #28]
 2256 0068 B3F57A7F 		cmp	r3, #1000
 2257 006c 01DA     		bge	.L110
 2258              		.loc 15 302 0 discriminator 3
 2259 006e 0123     		movs	r3, #1
 2260 0070 00E0     		b	.L111
 2261              	.L110:
 2262              		.loc 15 302 0 discriminator 4
 2263 0072 0023     		movs	r3, #0
 2264              	.L111:
 2265              		.loc 15 302 0 discriminator 6
 2266 0074 002B     		cmp	r3, #0
 2267 0076 DFD1     		bne	.L112
 2268              	.LBB71:
 2269              		.loc 15 307 0 is_stmt 1
 2270 0078 079B     		ldr	r3, [sp, #28]
 2271 007a B3F57A7F 		cmp	r3, #1000
 2272 007e 17DA     		bge	.L113
 2273              	.LBB72:
 2274              	.LBB73:
 2275              		.loc 15 309 0
 2276 0080 0023     		movs	r3, #0
ARM GAS  /tmp/ccypRU8x.s 			page 43


 2277 0082 0693     		str	r3, [sp, #24]
 2278 0084 0DE0     		b	.L114
 2279              	.L115:
 2280              		.loc 15 311 0 discriminator 3
 2281 0086 049A     		ldr	r2, [sp, #16]
 2282 0088 069B     		ldr	r3, [sp, #24]
 2283 008a 5B00     		lsls	r3, r3, #1
 2284 008c 1344     		add	r3, r3, r2
 2285 008e 5B88     		ldrh	r3, [r3, #2]	@ unaligned
 2286 0090 9BB2     		uxth	r3, r3
 2287 0092 0398     		ldr	r0, [sp, #12]
 2288 0094 1149     		ldr	r1, .L116+20
 2289 0096 069A     		ldr	r2, [sp, #24]
 2290 0098 FFF7FEFF 		bl	_ZL8chprintfP20BaseSequentialStreamPKcz
 2291              		.loc 15 309 0 discriminator 3
 2292 009c 069B     		ldr	r3, [sp, #24]
 2293 009e 0133     		adds	r3, r3, #1
 2294 00a0 0693     		str	r3, [sp, #24]
 2295              	.L114:
 2296              		.loc 15 309 0 is_stmt 0 discriminator 1
 2297 00a2 069B     		ldr	r3, [sp, #24]
 2298 00a4 072B     		cmp	r3, #7
 2299 00a6 EEDD     		ble	.L115
 2300              	.LBE73:
 2301              		.loc 15 314 0 is_stmt 1
 2302 00a8 0398     		ldr	r0, [sp, #12]
 2303 00aa 0D49     		ldr	r1, .L116+24
 2304 00ac FFF7FEFF 		bl	_ZL8chprintfP20BaseSequentialStreamPKcz
 2305              	.L113:
 2306              	.LBE72:
 2307              	.LBE71:
 2308              		.loc 15 316 0
 2309 00b0 049B     		ldr	r3, [sp, #16]
 2310 00b2 0748     		ldr	r0, .L116+8
 2311 00b4 1946     		mov	r1, r3
 2312 00b6 FFF7FEFF 		bl	_ZN3r2p16SubscriberExtBufINS_12ProximityMsgEE7releaseERS1_
 2313              		.loc 15 317 0
 2314 00ba 0448     		ldr	r0, .L116+4
 2315 00bc 0021     		movs	r1, #0
 2316 00be FFF7FEFF 		bl	_ZN3r2p4Node11set_enabledEb
 2317              	.LBE70:
 2318              		.loc 15 318 0
 2319 00c2 09B0     		add	sp, sp, #36
 2320              		.cfi_def_cfa_offset 4
 2321              		@ sp needed
 2322 00c4 5DF804FB 		ldr	pc, [sp], #4
 2323              	.L117:
 2324              		.align	2
 2325              	.L116:
 2326 00c8 00000000 		.word	proxy_first_time
 2327 00cc 00000000 		.word	proximity_node
 2328 00d0 00000000 		.word	proximity_sub
 2329 00d4 F8000000 		.word	.LC14
 2330 00d8 04010000 		.word	.LC15
 2331 00dc 1C010000 		.word	.LC16
 2332 00e0 34010000 		.word	.LC17
 2333              		.cfi_endproc
ARM GAS  /tmp/ccypRU8x.s 			page 44


 2334              	.LFE602:
 2335              		.size	_ZL13cmd_proximityP20BaseSequentialStreamiPPc, .-_ZL13cmd_proximityP20BaseSequentialStreamiP
 2336 00e4 AFF30080 		.section	.rodata
 2336      AFF30080 
 2336      AFF30080 
 2337 0137 00       		.align	2
 2338              	.LC18:
 2339 0138 5072696E 		.ascii	"Print from Pixy\015\012\000"
 2339      74206672 
 2339      6F6D2050 
 2339      6978790D 
 2339      0A00
 2340 014a 0000     		.align	2
 2341              	.LC19:
 2342 014c 53696720 		.ascii	"Sig %d \000"
 2342      25642000 
 2343              		.align	2
 2344              	.LC20:
 2345 0154 58202564 		.ascii	"X %d \000"
 2345      2000
 2346 015a 0000     		.align	2
 2347              	.LC21:
 2348 015c 59202564 		.ascii	"Y %d \000"
 2348      2000
 2349 0162 0000     		.align	2
 2350              	.LC22:
 2351 0164 57696474 		.ascii	"Width %d \000"
 2351      68202564 
 2351      2000
 2352 016e 0000     		.align	2
 2353              	.LC23:
 2354 0170 48656967 		.ascii	"Height %d \000"
 2354      68742025 
 2354      642000
 2355 017b 00       		.align	2
 2356              	.LC24:
 2357 017c 74696D65 		.ascii	"timeout\000"
 2357      6F757400 
 2358              		.section	.text._ZL8cmd_pixyP20BaseSequentialStreamiPPc,"ax",%progbits
 2359              		.align	2
 2360              		.p2align 4,,15
 2361              		.thumb
 2362              		.thumb_func
 2363              		.type	_ZL8cmd_pixyP20BaseSequentialStreamiPPc, %function
 2364              	_ZL8cmd_pixyP20BaseSequentialStreamiPPc:
 2365              	.LFB603:
 2366              		.loc 15 321 0
 2367              		.cfi_startproc
 2368              		@ args = 0, pretend = 0, frame = 24
 2369              		@ frame_needed = 0, uses_anonymous_args = 0
 2370 0000 00B5     		push	{lr}
 2371              		.cfi_def_cfa_offset 4
 2372              		.cfi_offset 14, -4
 2373 0002 87B0     		sub	sp, sp, #28
 2374              		.cfi_def_cfa_offset 32
 2375 0004 0390     		str	r0, [sp, #12]
 2376 0006 0291     		str	r1, [sp, #8]
ARM GAS  /tmp/ccypRU8x.s 			page 45


 2377 0008 0192     		str	r2, [sp, #4]
 2378              	.LBB74:
 2379              		.loc 15 325 0
 2380 000a 394B     		ldr	r3, .L126
 2381 000c 1B78     		ldrb	r3, [r3]	@ zero_extendqisi2
 2382 000e 002B     		cmp	r3, #0
 2383 0010 07D0     		beq	.L119
 2384              		.loc 15 326 0
 2385 0012 3848     		ldr	r0, .L126+4
 2386 0014 3849     		ldr	r1, .L126+8
 2387 0016 394A     		ldr	r2, .L126+12
 2388 0018 FFF7FEFF 		bl	_ZN3r2p4Node9subscribeINS_7PixyMsgELj5EEEbRNS_10SubscriberIT_XT0_EEEPKc
 2389              		.loc 15 327 0
 2390 001c 344B     		ldr	r3, .L126
 2391 001e 0022     		movs	r2, #0
 2392 0020 1A70     		strb	r2, [r3]
 2393              	.L119:
 2394              		.loc 15 329 0
 2395 0022 3448     		ldr	r0, .L126+4
 2396 0024 0121     		movs	r1, #1
 2397 0026 FFF7FEFF 		bl	_ZN3r2p4Node11set_enabledEb
 2398              		.loc 15 331 0
 2399 002a 0398     		ldr	r0, [sp, #12]
 2400 002c 3449     		ldr	r1, .L126+16
 2401 002e FFF7FEFF 		bl	_ZL8chprintfP20BaseSequentialStreamPKcz
 2402              		.loc 15 333 0
 2403 0032 0023     		movs	r3, #0
 2404 0034 0593     		str	r3, [sp, #20]
 2405              		.loc 15 334 0
 2406 0036 05E0     		b	.L120
 2407              	.L123:
 2408              		.loc 15 335 0
 2409 0038 0520     		movs	r0, #5
 2410 003a FFF7FEFF 		bl	chThdSleep
 2411              		.loc 15 336 0
 2412 003e 059B     		ldr	r3, [sp, #20]
 2413 0040 0133     		adds	r3, r3, #1
 2414 0042 0593     		str	r3, [sp, #20]
 2415              	.L120:
 2416              		.loc 15 334 0
 2417 0044 04AB     		add	r3, sp, #16
 2418 0046 2C48     		ldr	r0, .L126+8
 2419 0048 1946     		mov	r1, r3
 2420 004a FFF7FEFF 		bl	_ZN3r2p16SubscriberExtBufINS_7PixyMsgEE5fetchERPS1_
 2421 004e 0346     		mov	r3, r0
 2422 0050 83F00103 		eor	r3, r3, #1
 2423 0054 DBB2     		uxtb	r3, r3
 2424 0056 002B     		cmp	r3, #0
 2425 0058 05D0     		beq	.L121
 2426              		.loc 15 334 0 is_stmt 0 discriminator 1
 2427 005a 059B     		ldr	r3, [sp, #20]
 2428 005c B3F57A7F 		cmp	r3, #1000
 2429 0060 01DA     		bge	.L121
 2430              		.loc 15 334 0 discriminator 3
 2431 0062 0123     		movs	r3, #1
 2432 0064 00E0     		b	.L122
 2433              	.L121:
ARM GAS  /tmp/ccypRU8x.s 			page 46


 2434              		.loc 15 334 0 discriminator 4
 2435 0066 0023     		movs	r3, #0
 2436              	.L122:
 2437              		.loc 15 334 0 discriminator 6
 2438 0068 002B     		cmp	r3, #0
 2439 006a E5D1     		bne	.L123
 2440              		.loc 15 338 0 is_stmt 1
 2441 006c 059B     		ldr	r3, [sp, #20]
 2442 006e B3F57A7F 		cmp	r3, #1000
 2443 0072 31DA     		bge	.L124
 2444              		.loc 15 340 0
 2445 0074 049B     		ldr	r3, [sp, #16]
 2446 0076 9B88     		ldrh	r3, [r3, #4]	@ unaligned
 2447 0078 9BB2     		uxth	r3, r3
 2448 007a 0398     		ldr	r0, [sp, #12]
 2449 007c 2149     		ldr	r1, .L126+20
 2450 007e 1A46     		mov	r2, r3
 2451 0080 FFF7FEFF 		bl	_ZL8chprintfP20BaseSequentialStreamPKcz
 2452              		.loc 15 341 0
 2453 0084 049B     		ldr	r3, [sp, #16]
 2454 0086 DB88     		ldrh	r3, [r3, #6]	@ unaligned
 2455 0088 9BB2     		uxth	r3, r3
 2456 008a 0398     		ldr	r0, [sp, #12]
 2457 008c 1E49     		ldr	r1, .L126+24
 2458 008e 1A46     		mov	r2, r3
 2459 0090 FFF7FEFF 		bl	_ZL8chprintfP20BaseSequentialStreamPKcz
 2460              		.loc 15 342 0
 2461 0094 049B     		ldr	r3, [sp, #16]
 2462 0096 1B89     		ldrh	r3, [r3, #8]	@ unaligned
 2463 0098 9BB2     		uxth	r3, r3
 2464 009a 0398     		ldr	r0, [sp, #12]
 2465 009c 1B49     		ldr	r1, .L126+28
 2466 009e 1A46     		mov	r2, r3
 2467 00a0 FFF7FEFF 		bl	_ZL8chprintfP20BaseSequentialStreamPKcz
 2468              		.loc 15 343 0
 2469 00a4 049B     		ldr	r3, [sp, #16]
 2470 00a6 5B89     		ldrh	r3, [r3, #10]	@ unaligned
 2471 00a8 9BB2     		uxth	r3, r3
 2472 00aa 0398     		ldr	r0, [sp, #12]
 2473 00ac 1849     		ldr	r1, .L126+32
 2474 00ae 1A46     		mov	r2, r3
 2475 00b0 FFF7FEFF 		bl	_ZL8chprintfP20BaseSequentialStreamPKcz
 2476              		.loc 15 344 0
 2477 00b4 049B     		ldr	r3, [sp, #16]
 2478 00b6 9B89     		ldrh	r3, [r3, #12]	@ unaligned
 2479 00b8 9BB2     		uxth	r3, r3
 2480 00ba 0398     		ldr	r0, [sp, #12]
 2481 00bc 1549     		ldr	r1, .L126+36
 2482 00be 1A46     		mov	r2, r3
 2483 00c0 FFF7FEFF 		bl	_ZL8chprintfP20BaseSequentialStreamPKcz
 2484              		.loc 15 346 0
 2485 00c4 0398     		ldr	r0, [sp, #12]
 2486 00c6 1449     		ldr	r1, .L126+40
 2487 00c8 FFF7FEFF 		bl	_ZL8chprintfP20BaseSequentialStreamPKcz
 2488              		.loc 15 348 0
 2489 00cc 049B     		ldr	r3, [sp, #16]
 2490 00ce 0A48     		ldr	r0, .L126+8
ARM GAS  /tmp/ccypRU8x.s 			page 47


 2491 00d0 1946     		mov	r1, r3
 2492 00d2 FFF7FEFF 		bl	_ZN3r2p16SubscriberExtBufINS_7PixyMsgEE7releaseERS1_
 2493 00d6 03E0     		b	.L125
 2494              	.L124:
 2495              		.loc 15 351 0
 2496 00d8 0398     		ldr	r0, [sp, #12]
 2497 00da 1049     		ldr	r1, .L126+44
 2498 00dc FFF7FEFF 		bl	_ZL8chprintfP20BaseSequentialStreamPKcz
 2499              	.L125:
 2500              		.loc 15 354 0
 2501 00e0 0448     		ldr	r0, .L126+4
 2502 00e2 0021     		movs	r1, #0
 2503 00e4 FFF7FEFF 		bl	_ZN3r2p4Node11set_enabledEb
 2504              	.LBE74:
 2505              		.loc 15 356 0
 2506 00e8 07B0     		add	sp, sp, #28
 2507              		.cfi_def_cfa_offset 4
 2508              		@ sp needed
 2509 00ea 5DF804FB 		ldr	pc, [sp], #4
 2510              	.L127:
 2511 00ee 00BF     		.align	2
 2512              	.L126:
 2513 00f0 00000000 		.word	pixy_first_time
 2514 00f4 00000000 		.word	pixy_node
 2515 00f8 00000000 		.word	pixy_sub
 2516 00fc 80000000 		.word	.LC6
 2517 0100 38010000 		.word	.LC18
 2518 0104 4C010000 		.word	.LC19
 2519 0108 54010000 		.word	.LC20
 2520 010c 5C010000 		.word	.LC21
 2521 0110 64010000 		.word	.LC22
 2522 0114 70010000 		.word	.LC23
 2523 0118 34010000 		.word	.LC17
 2524 011c 7C010000 		.word	.LC24
 2525              		.cfi_endproc
 2526              	.LFE603:
 2527              		.size	_ZL8cmd_pixyP20BaseSequentialStreamiPPc, .-_ZL8cmd_pixyP20BaseSequentialStreamiPPc
 2528              		.section	.rodata
 2529              		.align	2
 2530              	.LC25:
 2531 0184 55736167 		.ascii	"Usage: stop\015\012\000"
 2531      653A2073 
 2531      746F700D 
 2531      0A00
 2532              		.section	.text._ZL8cmd_stopP20BaseSequentialStreamiPPc,"ax",%progbits
 2533              		.align	2
 2534              		.p2align 4,,15
 2535              		.thumb
 2536              		.thumb_func
 2537              		.type	_ZL8cmd_stopP20BaseSequentialStreamiPPc, %function
 2538              	_ZL8cmd_stopP20BaseSequentialStreamiPPc:
 2539              	.LFB604:
 2540              		.loc 15 359 0
 2541              		.cfi_startproc
 2542              		@ args = 0, pretend = 0, frame = 24
 2543              		@ frame_needed = 0, uses_anonymous_args = 0
 2544 0000 00B5     		push	{lr}
ARM GAS  /tmp/ccypRU8x.s 			page 48


 2545              		.cfi_def_cfa_offset 4
 2546              		.cfi_offset 14, -4
 2547 0002 87B0     		sub	sp, sp, #28
 2548              		.cfi_def_cfa_offset 32
 2549 0004 0390     		str	r0, [sp, #12]
 2550 0006 0291     		str	r1, [sp, #8]
 2551 0008 0192     		str	r2, [sp, #4]
 2552              	.LBB75:
 2553              		.loc 15 364 0
 2554 000a 029B     		ldr	r3, [sp, #8]
 2555 000c 002B     		cmp	r3, #0
 2556 000e 04DD     		ble	.L129
 2557              		.loc 15 365 0
 2558 0010 0398     		ldr	r0, [sp, #12]
 2559 0012 1C49     		ldr	r1, .L133
 2560 0014 FFF7FEFF 		bl	_ZL8chprintfP20BaseSequentialStreamPKcz
 2561 0018 30E0     		b	.L128
 2562              	.L129:
 2563              		.loc 15 369 0
 2564 001a 1B48     		ldr	r0, .L133+4
 2565 001c 0121     		movs	r1, #1
 2566 001e FFF7FEFF 		bl	_ZN3r2p4Node11set_enabledEb
 2567              		.loc 15 371 0
 2568 0022 1A4B     		ldr	r3, .L133+8
 2569 0024 1B78     		ldrb	r3, [r3]	@ zero_extendqisi2
 2570 0026 002B     		cmp	r3, #0
 2571 0028 08D0     		beq	.L131
 2572              		.loc 15 372 0
 2573 002a 1748     		ldr	r0, .L133+4
 2574 002c 1849     		ldr	r1, .L133+12
 2575 002e 194A     		ldr	r2, .L133+16
 2576 0030 194B     		ldr	r3, .L133+20
 2577 0032 FFF7FEFF 		bl	_ZN3r2p4Node9advertiseINS_9Speed3MsgEEEbRNS_9PublisherIT_EEPKcRKNS_4TimeE
 2578              		.loc 15 373 0
 2579 0036 154B     		ldr	r3, .L133+8
 2580 0038 0022     		movs	r2, #0
 2581 003a 1A70     		strb	r2, [r3]
 2582              	.L131:
 2583              		.loc 15 377 0
 2584 003c 05AB     		add	r3, sp, #20
 2585 003e 1448     		ldr	r0, .L133+12
 2586 0040 1946     		mov	r1, r3
 2587 0042 FFF7FEFF 		bl	_ZN3r2p9PublisherINS_9Speed3MsgEE5allocERPS1_
 2588 0046 0346     		mov	r3, r0
 2589 0048 002B     		cmp	r3, #0
 2590 004a 13D0     		beq	.L132
 2591              		.loc 15 378 0
 2592 004c 059B     		ldr	r3, [sp, #20]
 2593 004e 0233     		adds	r3, r3, #2
 2594 0050 4FF00002 		mov	r2, #0
 2595 0054 1A60     		str	r2, [r3]	@ unaligned
 2596              		.loc 15 379 0
 2597 0056 059B     		ldr	r3, [sp, #20]
 2598 0058 0633     		adds	r3, r3, #6
 2599 005a 4FF00002 		mov	r2, #0
 2600 005e 1A60     		str	r2, [r3]	@ unaligned
 2601              		.loc 15 380 0
ARM GAS  /tmp/ccypRU8x.s 			page 49


 2602 0060 059B     		ldr	r3, [sp, #20]
 2603 0062 0A33     		adds	r3, r3, #10
 2604 0064 4FF00002 		mov	r2, #0
 2605 0068 1A60     		str	r2, [r3]	@ unaligned
 2606              		.loc 15 381 0
 2607 006a 059B     		ldr	r3, [sp, #20]
 2608 006c 0848     		ldr	r0, .L133+12
 2609 006e 1946     		mov	r1, r3
 2610 0070 FFF7FEFF 		bl	_ZN3r2p9PublisherINS_9Speed3MsgEE7publishERS1_
 2611              	.L132:
 2612              		.loc 15 384 0
 2613 0074 0448     		ldr	r0, .L133+4
 2614 0076 0021     		movs	r1, #0
 2615 0078 FFF7FEFF 		bl	_ZN3r2p4Node11set_enabledEb
 2616              	.L128:
 2617              	.LBE75:
 2618              		.loc 15 385 0
 2619 007c 07B0     		add	sp, sp, #28
 2620              		.cfi_def_cfa_offset 4
 2621              		@ sp needed
 2622 007e 5DF804FB 		ldr	pc, [sp], #4
 2623              	.L134:
 2624 0082 00BF     		.align	2
 2625              	.L133:
 2626 0084 84010000 		.word	.LC25
 2627 0088 00000000 		.word	vel_node
 2628 008c 00000000 		.word	speed_first_time
 2629 0090 00000000 		.word	vel_pub
 2630 0094 3C000000 		.word	.LC2
 2631 0098 00000000 		.word	_ZN3r2p4Time8INFINITEE
 2632              		.cfi_endproc
 2633              	.LFE604:
 2634              		.size	_ZL8cmd_stopP20BaseSequentialStreamiPPc, .-_ZL8cmd_stopP20BaseSequentialStreamiPPc
 2635 009c AFF30080 		.section	.rodata
 2636 0192 0000     		.align	2
 2637              	.LC26:
 2638 0194 55736167 		.ascii	"Usage: e\015\012\000"
 2638      653A2065 
 2638      0D0A00
 2639              		.section	.text._ZL7cmd_encP20BaseSequentialStreamiPPc,"ax",%progbits
 2640              		.align	2
 2641              		.p2align 4,,15
 2642              		.thumb
 2643              		.thumb_func
 2644              		.type	_ZL7cmd_encP20BaseSequentialStreamiPPc, %function
 2645              	_ZL7cmd_encP20BaseSequentialStreamiPPc:
 2646              	.LFB605:
 2647              		.loc 15 388 0
 2648              		.cfi_startproc
 2649              		@ args = 0, pretend = 0, frame = 16
 2650              		@ frame_needed = 0, uses_anonymous_args = 0
 2651 0000 00B5     		push	{lr}
 2652              		.cfi_def_cfa_offset 4
 2653              		.cfi_offset 14, -4
 2654 0002 85B0     		sub	sp, sp, #20
 2655              		.cfi_def_cfa_offset 24
 2656 0004 0390     		str	r0, [sp, #12]
ARM GAS  /tmp/ccypRU8x.s 			page 50


 2657 0006 0291     		str	r1, [sp, #8]
 2658 0008 0192     		str	r2, [sp, #4]
 2659              		.loc 15 392 0
 2660 000a 029B     		ldr	r3, [sp, #8]
 2661 000c 002B     		cmp	r3, #0
 2662 000e 04DD     		ble	.L136
 2663              		.loc 15 393 0
 2664 0010 0398     		ldr	r0, [sp, #12]
 2665 0012 0849     		ldr	r1, .L138
 2666 0014 FFF7FEFF 		bl	_ZL8chprintfP20BaseSequentialStreamPKcz
 2667              		.loc 15 394 0
 2668 0018 09E0     		b	.L135
 2669              	.L136:
 2670              		.loc 15 397 0
 2671 001a 074A     		ldr	r2, .L138+4
 2672 001c 039B     		ldr	r3, [sp, #12]
 2673 001e 1360     		str	r3, [r2]
 2674              		.loc 15 398 0
 2675 0020 064B     		ldr	r3, .L138+8
 2676 0022 1B78     		ldrb	r3, [r3]	@ zero_extendqisi2
 2677 0024 83F00103 		eor	r3, r3, #1
 2678 0028 DAB2     		uxtb	r2, r3
 2679 002a 044B     		ldr	r3, .L138+8
 2680 002c 1A70     		strb	r2, [r3]
 2681              	.L135:
 2682              		.loc 15 399 0
 2683 002e 05B0     		add	sp, sp, #20
 2684              		.cfi_def_cfa_offset 4
 2685              		@ sp needed
 2686 0030 5DF804FB 		ldr	pc, [sp], #4
 2687              	.L139:
 2688              		.align	2
 2689              	.L138:
 2690 0034 94010000 		.word	.LC26
 2691 0038 00000000 		.word	serialp
 2692 003c 00000000 		.word	stream_enc
 2693              		.cfi_endproc
 2694              	.LFE605:
 2695              		.size	_ZL7cmd_encP20BaseSequentialStreamiPPc, .-_ZL7cmd_encP20BaseSequentialStreamiPPc
 2696              		.section	.rodata
 2697 019f 00       		.align	2
 2698              	.LC27:
 2699 01a0 55736167 		.ascii	"Usage: pidcfg <k> <ti> <td>\015\012\000"
 2699      653A2070 
 2699      69646366 
 2699      67203C6B 
 2699      3E203C74 
 2700 01be 0000     		.align	2
 2701              	.LC28:
 2702 01c0 70696463 		.ascii	"pidcfg\000"
 2702      666700
 2703              		.section	.text._ZL10cmd_pidcfgP20BaseSequentialStreamiPPc,"ax",%progbits
 2704              		.align	2
 2705              		.p2align 4,,15
 2706              		.thumb
 2707              		.thumb_func
 2708              		.type	_ZL10cmd_pidcfgP20BaseSequentialStreamiPPc, %function
ARM GAS  /tmp/ccypRU8x.s 			page 51


 2709              	_ZL10cmd_pidcfgP20BaseSequentialStreamiPPc:
 2710              	.LFB606:
 2711              		.loc 15 402 0
 2712              		.cfi_startproc
 2713              		@ args = 0, pretend = 0, frame = 24
 2714              		@ frame_needed = 0, uses_anonymous_args = 0
 2715 0000 10B5     		push	{r4, lr}
 2716              		.cfi_def_cfa_offset 8
 2717              		.cfi_offset 4, -8
 2718              		.cfi_offset 14, -4
 2719 0002 86B0     		sub	sp, sp, #24
 2720              		.cfi_def_cfa_offset 32
 2721 0004 0390     		str	r0, [sp, #12]
 2722 0006 0291     		str	r1, [sp, #8]
 2723 0008 0192     		str	r2, [sp, #4]
 2724              	.LBB76:
 2725              		.loc 15 407 0
 2726 000a 029B     		ldr	r3, [sp, #8]
 2727 000c 032B     		cmp	r3, #3
 2728 000e 04D0     		beq	.L141
 2729              		.loc 15 408 0
 2730 0010 0398     		ldr	r0, [sp, #12]
 2731 0012 2C49     		ldr	r1, .L145
 2732 0014 FFF7FEFF 		bl	_ZL8chprintfP20BaseSequentialStreamPKcz
 2733 0018 51E0     		b	.L140
 2734              	.L141:
 2735              		.loc 15 412 0
 2736 001a 2B48     		ldr	r0, .L145+4
 2737 001c 0121     		movs	r1, #1
 2738 001e FFF7FEFF 		bl	_ZN3r2p4Node11set_enabledEb
 2739              		.loc 15 414 0
 2740 0022 2A4B     		ldr	r3, .L145+8
 2741 0024 1B78     		ldrb	r3, [r3]	@ zero_extendqisi2
 2742 0026 002B     		cmp	r3, #0
 2743 0028 08D0     		beq	.L143
 2744              		.loc 15 415 0
 2745 002a 2748     		ldr	r0, .L145+4
 2746 002c 2849     		ldr	r1, .L145+12
 2747 002e 294A     		ldr	r2, .L145+16
 2748 0030 294B     		ldr	r3, .L145+20
 2749 0032 FFF7FEFF 		bl	_ZN3r2p4Node9advertiseINS_9PIDCfgMsgEEEbRNS_9PublisherIT_EEPKcRKNS_4TimeE
 2750              		.loc 15 416 0
 2751 0036 254B     		ldr	r3, .L145+8
 2752 0038 0022     		movs	r2, #0
 2753 003a 1A70     		strb	r2, [r3]
 2754              	.L143:
 2755              		.loc 15 419 0
 2756 003c 05AB     		add	r3, sp, #20
 2757 003e 2448     		ldr	r0, .L145+12
 2758 0040 1946     		mov	r1, r3
 2759 0042 FFF7FEFF 		bl	_ZN3r2p9PublisherINS_9PIDCfgMsgEE5allocERPS1_
 2760 0046 0346     		mov	r3, r0
 2761 0048 002B     		cmp	r3, #0
 2762 004a 34D0     		beq	.L144
 2763              		.loc 15 420 0
 2764 004c 059C     		ldr	r4, [sp, #20]
 2765 004e 019B     		ldr	r3, [sp, #4]
ARM GAS  /tmp/ccypRU8x.s 			page 52


 2766 0050 1B68     		ldr	r3, [r3]
 2767 0052 1846     		mov	r0, r3
 2768 0054 FFF7FEFF 		bl	atof
 2769 0058 53EC102B 		fmrrd	r2, r3, d0
 2770 005c 1046     		mov	r0, r2
 2771 005e 1946     		mov	r1, r3
 2772 0060 FFF7FEFF 		bl	__aeabi_d2f
 2773 0064 0246     		mov	r2, r0	@ float
 2774 0066 A31C     		adds	r3, r4, #2
 2775 0068 1A60     		str	r2, [r3]	@ unaligned
 2776              		.loc 15 421 0
 2777 006a 059C     		ldr	r4, [sp, #20]
 2778 006c 019B     		ldr	r3, [sp, #4]
 2779 006e 0433     		adds	r3, r3, #4
 2780 0070 1B68     		ldr	r3, [r3]
 2781 0072 1846     		mov	r0, r3
 2782 0074 FFF7FEFF 		bl	atof
 2783 0078 53EC102B 		fmrrd	r2, r3, d0
 2784 007c 1046     		mov	r0, r2
 2785 007e 1946     		mov	r1, r3
 2786 0080 FFF7FEFF 		bl	__aeabi_d2f
 2787 0084 0246     		mov	r2, r0	@ float
 2788 0086 A31D     		adds	r3, r4, #6
 2789 0088 1A60     		str	r2, [r3]	@ unaligned
 2790              		.loc 15 422 0
 2791 008a 059C     		ldr	r4, [sp, #20]
 2792 008c 019B     		ldr	r3, [sp, #4]
 2793 008e 0833     		adds	r3, r3, #8
 2794 0090 1B68     		ldr	r3, [r3]
 2795 0092 1846     		mov	r0, r3
 2796 0094 FFF7FEFF 		bl	atof
 2797 0098 53EC102B 		fmrrd	r2, r3, d0
 2798 009c 1046     		mov	r0, r2
 2799 009e 1946     		mov	r1, r3
 2800 00a0 FFF7FEFF 		bl	__aeabi_d2f
 2801 00a4 0246     		mov	r2, r0	@ float
 2802 00a6 04F10A03 		add	r3, r4, #10
 2803 00aa 1A60     		str	r2, [r3]	@ unaligned
 2804              		.loc 15 423 0
 2805 00ac 059B     		ldr	r3, [sp, #20]
 2806 00ae 0848     		ldr	r0, .L145+12
 2807 00b0 1946     		mov	r1, r3
 2808 00b2 FFF7FEFF 		bl	_ZN3r2p9PublisherINS_9PIDCfgMsgEE7publishERS1_
 2809              	.L144:
 2810              		.loc 15 426 0
 2811 00b6 0448     		ldr	r0, .L145+4
 2812 00b8 0021     		movs	r1, #0
 2813 00ba FFF7FEFF 		bl	_ZN3r2p4Node11set_enabledEb
 2814              	.L140:
 2815              	.LBE76:
 2816              		.loc 15 427 0
 2817 00be 06B0     		add	sp, sp, #24
 2818              		.cfi_def_cfa_offset 8
 2819              		@ sp needed
 2820 00c0 10BD     		pop	{r4, pc}
 2821              	.L146:
 2822 00c2 00BF     		.align	2
ARM GAS  /tmp/ccypRU8x.s 			page 53


 2823              	.L145:
 2824 00c4 A0010000 		.word	.LC27
 2825 00c8 00000000 		.word	pidcfg_node
 2826 00cc 00000000 		.word	pidcfg_first_time
 2827 00d0 00000000 		.word	pidcfg_pub
 2828 00d4 C0010000 		.word	.LC28
 2829 00d8 00000000 		.word	_ZN3r2p4Time8INFINITEE
 2830              		.cfi_endproc
 2831              	.LFE606:
 2832              		.size	_ZL10cmd_pidcfgP20BaseSequentialStreamiPPc, .-_ZL10cmd_pidcfgP20BaseSequentialStreamiPPc
 2833 00dc AFF30080 		.section	.rodata
 2834 01c7 00       		.align	2
 2835              	.LC29:
 2836 01c8 7368656C 		.ascii	"shell\000"
 2836      6C00
 2837              		.section	.text._Z10shell_nodePv,"ax",%progbits
 2838              		.align	2
 2839              		.p2align 4,,15
 2840              		.global	_Z10shell_nodePv
 2841              		.thumb
 2842              		.thumb_func
 2843              		.type	_Z10shell_nodePv, %function
 2844              	_Z10shell_nodePv:
 2845              	.LFB607:
 2846              		.loc 15 436 0
 2847              		.cfi_startproc
 2848              		@ args = 0, pretend = 0, frame = 48
 2849              		@ frame_needed = 0, uses_anonymous_args = 0
 2850 0000 00B5     		push	{lr}
 2851              		.cfi_def_cfa_offset 4
 2852              		.cfi_offset 14, -4
 2853 0002 8DB0     		sub	sp, sp, #52
 2854              		.cfi_def_cfa_offset 56
 2855 0004 0190     		str	r0, [sp, #4]
 2856              	.LBB77:
 2857              		.loc 15 437 0
 2858 0006 03AB     		add	r3, sp, #12
 2859 0008 1846     		mov	r0, r3
 2860 000a 2849     		ldr	r1, .L151
 2861 000c 0122     		movs	r2, #1
 2862 000e FFF7FEFF 		bl	_ZN3r2p4NodeC1EPKcb
 2863              		.loc 15 438 0
 2864 0012 0023     		movs	r3, #0
 2865 0014 0B93     		str	r3, [sp, #44]
 2866              		.loc 15 443 0
 2867 0016 2648     		ldr	r0, .L151+4
 2868 0018 FFF7FEFF 		bl	sduObjectInit
 2869              		.loc 15 444 0
 2870 001c 2448     		ldr	r0, .L151+4
 2871 001e 2549     		ldr	r1, .L151+8
 2872 0020 FFF7FEFF 		bl	sduStart
 2873              		.loc 15 451 0
 2874 0024 234B     		ldr	r3, .L151+8
 2875 0026 1B68     		ldr	r3, [r3]
 2876 0028 1846     		mov	r0, r3
 2877 002a FFF7FEFF 		bl	_Z22usb_lld_disconnect_busP9USBDriver
 2878              		.loc 15 452 0
ARM GAS  /tmp/ccypRU8x.s 			page 54


 2879 002e 4FF4FA70 		mov	r0, #500
 2880 0032 FFF7FEFF 		bl	chThdSleep
 2881              		.loc 15 453 0
 2882 0036 1F4B     		ldr	r3, .L151+8
 2883 0038 1B68     		ldr	r3, [r3]
 2884 003a 1846     		mov	r0, r3
 2885 003c 1E49     		ldr	r1, .L151+12
 2886 003e FFF7FEFF 		bl	usbStart
 2887              		.loc 15 454 0
 2888 0042 1C4B     		ldr	r3, .L151+8
 2889 0044 1B68     		ldr	r3, [r3]
 2890 0046 1846     		mov	r0, r3
 2891 0048 FFF7FEFF 		bl	_Z19usb_lld_connect_busP9USBDriver
 2892              		.loc 15 459 0
 2893 004c FFF7FEFF 		bl	shellInit
 2894              	.L150:
 2895              		.loc 15 462 0
 2896 0050 0B9B     		ldr	r3, [sp, #44]
 2897 0052 002B     		cmp	r3, #0
 2898 0054 15D1     		bne	.L148
 2899              		.loc 15 462 0 is_stmt 0 discriminator 1
 2900 0056 164B     		ldr	r3, .L151+4
 2901 0058 D3F85432 		ldr	r3, [r3, #596]
 2902 005c 1B68     		ldr	r3, [r3]
 2903 005e 1B78     		ldrb	r3, [r3]	@ zero_extendqisi2
 2904 0060 042B     		cmp	r3, #4
 2905 0062 0ED1     		bne	.L148
 2906              		.loc 15 463 0 is_stmt 1
 2907 0064 B023     		movs	r3, #176
 2908 0066 6833     		adds	r3, r3, #104
 2909 0068 03F58153 		add	r3, r3, #4128
 2910 006c 1F33     		adds	r3, r3, #31
 2911 006e 0722     		movs	r2, #7
 2912 0070 1343     		orrs	r3, r3, r2
 2913 0072 0133     		adds	r3, r3, #1
 2914 0074 1148     		ldr	r0, .L151+16
 2915 0076 1946     		mov	r1, r3
 2916 0078 3F22     		movs	r2, #63
 2917 007a FFF7FEFF 		bl	shellCreate
 2918 007e 0B90     		str	r0, [sp, #44]
 2919 0080 09E0     		b	.L149
 2920              	.L148:
 2921              		.loc 15 464 0
 2922 0082 0B9B     		ldr	r3, [sp, #44]
 2923 0084 93F82030 		ldrb	r3, [r3, #32]	@ zero_extendqisi2
 2924 0088 0E2B     		cmp	r3, #14
 2925 008a 04D1     		bne	.L149
 2926              		.loc 15 465 0
 2927 008c 0B98     		ldr	r0, [sp, #44]
 2928 008e FFF7FEFF 		bl	chThdRelease
 2929              		.loc 15 466 0
 2930 0092 0023     		movs	r3, #0
 2931 0094 0B93     		str	r3, [sp, #44]
 2932              	.L149:
 2933              		.loc 15 469 0
 2934 0096 0AAB     		add	r3, sp, #40
 2935 0098 1846     		mov	r0, r3
ARM GAS  /tmp/ccypRU8x.s 			page 55


 2936 009a 4FF4FA71 		mov	r1, #500
 2937 009e FFF7FEFF 		bl	_ZN3r2p4Time2msEl
 2938 00a2 0AAB     		add	r3, sp, #40
 2939 00a4 1846     		mov	r0, r3
 2940 00a6 FFF7FEFF 		bl	_ZN3r2p6Thread5sleepERKNS_4TimeE
 2941 00aa D1E7     		b	.L150
 2942              	.L152:
 2943              		.align	2
 2944              	.L151:
 2945 00ac C8010000 		.word	.LC29
 2946 00b0 00000000 		.word	SDU1
 2947 00b4 00000000 		.word	serusbcfg
 2948 00b8 00000000 		.word	usbcfg
 2949 00bc 00000000 		.word	_ZL13usb_shell_cfg
 2950              	.LBE77:
 2951              		.cfi_endproc
 2952              	.LFE607:
 2953              		.size	_Z10shell_nodePv, .-_Z10shell_nodePv
 2954              		.section	.text._ZN3r2p4TimeC2IlEET_,"axG",%progbits,_ZN3r2p4TimeC5IlEET_,comdat
 2955              		.align	2
 2956              		.p2align 4,,15
 2957              		.weak	_ZN3r2p4TimeC2IlEET_
 2958              		.thumb
 2959              		.thumb_func
 2960              		.type	_ZN3r2p4TimeC2IlEET_, %function
 2961              	_ZN3r2p4TimeC2IlEET_:
 2962              	.LFB609:
 2963              		.loc 5 159 0
 2964              		.cfi_startproc
 2965              		@ args = 0, pretend = 0, frame = 8
 2966              		@ frame_needed = 0, uses_anonymous_args = 0
 2967              		@ link register save eliminated.
 2968 0000 82B0     		sub	sp, sp, #8
 2969              		.cfi_def_cfa_offset 8
 2970 0002 0190     		str	r0, [sp, #4]
 2971 0004 0091     		str	r1, [sp]
 2972              	.LBB78:
 2973              		.loc 5 161 0
 2974 0006 019B     		ldr	r3, [sp, #4]
 2975 0008 009A     		ldr	r2, [sp]
 2976 000a 1A60     		str	r2, [r3]
 2977              	.LBE78:
 2978              		.loc 5 162 0
 2979 000c 019B     		ldr	r3, [sp, #4]
 2980 000e 1846     		mov	r0, r3
 2981 0010 02B0     		add	sp, sp, #8
 2982              		.cfi_def_cfa_offset 0
 2983              		@ sp needed
 2984 0012 7047     		bx	lr
 2985              		.cfi_endproc
 2986              	.LFE609:
 2987              		.size	_ZN3r2p4TimeC2IlEET_, .-_ZN3r2p4TimeC2IlEET_
 2988              		.weak	_ZN3r2p4TimeC1IlEET_
 2989              		.thumb_set _ZN3r2p4TimeC1IlEET_,_ZN3r2p4TimeC2IlEET_
 2990 0014 AFF30080 		.section	.text._ZNK3r2p10ArrayQueueIPNS_7MessageEE10get_lengthEv,"axG",%progbits,_ZNK3r2p10ArrayQu
 2990      AFF30080 
 2990      AFF30080 
ARM GAS  /tmp/ccypRU8x.s 			page 56


 2991              		.align	2
 2992              		.p2align 4,,15
 2993              		.weak	_ZNK3r2p10ArrayQueueIPNS_7MessageEE10get_lengthEv
 2994              		.thumb
 2995              		.thumb_func
 2996              		.type	_ZNK3r2p10ArrayQueueIPNS_7MessageEE10get_lengthEv, %function
 2997              	_ZNK3r2p10ArrayQueueIPNS_7MessageEE10get_lengthEv:
 2998              	.LFB617:
 2999              		.file 16 "/home/ergae/r2p-sdk/core/Middleware/include/r2p/ArrayQueue.hpp"
 3000              		.loc 16 81 0
 3001              		.cfi_startproc
 3002              		@ args = 0, pretend = 0, frame = 8
 3003              		@ frame_needed = 0, uses_anonymous_args = 0
 3004              		@ link register save eliminated.
 3005 0000 82B0     		sub	sp, sp, #8
 3006              		.cfi_def_cfa_offset 8
 3007 0002 0190     		str	r0, [sp, #4]
 3008              		.loc 16 83 0
 3009 0004 019B     		ldr	r3, [sp, #4]
 3010 0006 5B68     		ldr	r3, [r3, #4]
 3011              		.loc 16 84 0
 3012 0008 1846     		mov	r0, r3
 3013 000a 02B0     		add	sp, sp, #8
 3014              		.cfi_def_cfa_offset 0
 3015              		@ sp needed
 3016 000c 7047     		bx	lr
 3017              		.cfi_endproc
 3018              	.LFE617:
 3019              		.size	_ZNK3r2p10ArrayQueueIPNS_7MessageEE10get_lengthEv, .-_ZNK3r2p10ArrayQueueIPNS_7MessageEE10ge
 3020 000e 00BF     		.section	.text._ZN3r2p10ArrayQueueIPNS_7MessageEE12fetch_unsafeERS2_,"axG",%progbits,_ZN3r2p10Arra
 3021              		.align	2
 3022              		.p2align 4,,15
 3023              		.weak	_ZN3r2p10ArrayQueueIPNS_7MessageEE12fetch_unsafeERS2_
 3024              		.thumb
 3025              		.thumb_func
 3026              		.type	_ZN3r2p10ArrayQueueIPNS_7MessageEE12fetch_unsafeERS2_, %function
 3027              	_ZN3r2p10ArrayQueueIPNS_7MessageEE12fetch_unsafeERS2_:
 3028              	.LFB618:
 3029              		.loc 16 52 0
 3030              		.cfi_startproc
 3031              		@ args = 0, pretend = 0, frame = 8
 3032              		@ frame_needed = 0, uses_anonymous_args = 0
 3033              		@ link register save eliminated.
 3034 0000 82B0     		sub	sp, sp, #8
 3035              		.cfi_def_cfa_offset 8
 3036 0002 0190     		str	r0, [sp, #4]
 3037 0004 0091     		str	r1, [sp]
 3038              		.loc 16 54 0
 3039 0006 019B     		ldr	r3, [sp, #4]
 3040 0008 9B68     		ldr	r3, [r3, #8]
 3041 000a 002B     		cmp	r3, #0
 3042 000c 23D0     		beq	.L159
 3043              		.loc 16 55 0
 3044 000e 019B     		ldr	r3, [sp, #4]
 3045 0010 9B68     		ldr	r3, [r3, #8]
 3046 0012 5A1E     		subs	r2, r3, #1
 3047 0014 019B     		ldr	r3, [sp, #4]
ARM GAS  /tmp/ccypRU8x.s 			page 57


 3048 0016 9A60     		str	r2, [r3, #8]
 3049              		.loc 16 56 0
 3050 0018 019B     		ldr	r3, [sp, #4]
 3051 001a DB68     		ldr	r3, [r3, #12]
 3052 001c 1A68     		ldr	r2, [r3]
 3053 001e 009B     		ldr	r3, [sp]
 3054 0020 1A60     		str	r2, [r3]
 3055              		.loc 16 57 0
 3056 0022 019B     		ldr	r3, [sp, #4]
 3057 0024 DB68     		ldr	r3, [r3, #12]
 3058 0026 1A1D     		adds	r2, r3, #4
 3059 0028 019B     		ldr	r3, [sp, #4]
 3060 002a DA60     		str	r2, [r3, #12]
 3061 002c 019B     		ldr	r3, [sp, #4]
 3062 002e DA68     		ldr	r2, [r3, #12]
 3063 0030 019B     		ldr	r3, [sp, #4]
 3064 0032 1968     		ldr	r1, [r3]
 3065 0034 019B     		ldr	r3, [sp, #4]
 3066 0036 5B68     		ldr	r3, [r3, #4]
 3067 0038 9B00     		lsls	r3, r3, #2
 3068 003a 0B44     		add	r3, r3, r1
 3069 003c 9A42     		cmp	r2, r3
 3070 003e 2CBF     		ite	cs
 3071 0040 0123     		movcs	r3, #1
 3072 0042 0023     		movcc	r3, #0
 3073 0044 DBB2     		uxtb	r3, r3
 3074 0046 002B     		cmp	r3, #0
 3075 0048 03D0     		beq	.L160
 3076              		.loc 16 58 0
 3077 004a 019B     		ldr	r3, [sp, #4]
 3078 004c 1A68     		ldr	r2, [r3]
 3079 004e 019B     		ldr	r3, [sp, #4]
 3080 0050 DA60     		str	r2, [r3, #12]
 3081              	.L160:
 3082              		.loc 16 60 0
 3083 0052 0123     		movs	r3, #1
 3084 0054 00E0     		b	.L161
 3085              	.L159:
 3086              		.loc 16 62 0
 3087 0056 0023     		movs	r3, #0
 3088              	.L161:
 3089              		.loc 16 63 0
 3090 0058 1846     		mov	r0, r3
 3091 005a 02B0     		add	sp, sp, #8
 3092              		.cfi_def_cfa_offset 0
 3093              		@ sp needed
 3094 005c 7047     		bx	lr
 3095              		.cfi_endproc
 3096              	.LFE618:
 3097              		.size	_ZN3r2p10ArrayQueueIPNS_7MessageEE12fetch_unsafeERS2_, .-_ZN3r2p10ArrayQueueIPNS_7MessageEE1
 3098 005e 00BF     		.section	.text._ZN3r2p10ArrayQueueIPNS_7MessageEE11post_unsafeES2_,"axG",%progbits,_ZN3r2p10ArrayQ
 3099              		.align	2
 3100              		.p2align 4,,15
 3101              		.weak	_ZN3r2p10ArrayQueueIPNS_7MessageEE11post_unsafeES2_
 3102              		.thumb
 3103              		.thumb_func
 3104              		.type	_ZN3r2p10ArrayQueueIPNS_7MessageEE11post_unsafeES2_, %function
ARM GAS  /tmp/ccypRU8x.s 			page 58


 3105              	_ZN3r2p10ArrayQueueIPNS_7MessageEE11post_unsafeES2_:
 3106              	.LFB619:
 3107              		.loc 16 37 0
 3108              		.cfi_startproc
 3109              		@ args = 0, pretend = 0, frame = 8
 3110              		@ frame_needed = 0, uses_anonymous_args = 0
 3111              		@ link register save eliminated.
 3112 0000 82B0     		sub	sp, sp, #8
 3113              		.cfi_def_cfa_offset 8
 3114 0002 0190     		str	r0, [sp, #4]
 3115 0004 0091     		str	r1, [sp]
 3116              		.loc 16 39 0
 3117 0006 019B     		ldr	r3, [sp, #4]
 3118 0008 9A68     		ldr	r2, [r3, #8]
 3119 000a 019B     		ldr	r3, [sp, #4]
 3120 000c 5B68     		ldr	r3, [r3, #4]
 3121 000e 9A42     		cmp	r2, r3
 3122 0010 22D2     		bcs	.L163
 3123              		.loc 16 40 0
 3124 0012 019B     		ldr	r3, [sp, #4]
 3125 0014 9B68     		ldr	r3, [r3, #8]
 3126 0016 5A1C     		adds	r2, r3, #1
 3127 0018 019B     		ldr	r3, [sp, #4]
 3128 001a 9A60     		str	r2, [r3, #8]
 3129              		.loc 16 41 0
 3130 001c 019B     		ldr	r3, [sp, #4]
 3131 001e 1B69     		ldr	r3, [r3, #16]
 3132 0020 009A     		ldr	r2, [sp]
 3133 0022 1A60     		str	r2, [r3]
 3134              		.loc 16 42 0
 3135 0024 019B     		ldr	r3, [sp, #4]
 3136 0026 1B69     		ldr	r3, [r3, #16]
 3137 0028 1A1D     		adds	r2, r3, #4
 3138 002a 019B     		ldr	r3, [sp, #4]
 3139 002c 1A61     		str	r2, [r3, #16]
 3140 002e 019B     		ldr	r3, [sp, #4]
 3141 0030 1A69     		ldr	r2, [r3, #16]
 3142 0032 019B     		ldr	r3, [sp, #4]
 3143 0034 1968     		ldr	r1, [r3]
 3144 0036 019B     		ldr	r3, [sp, #4]
 3145 0038 5B68     		ldr	r3, [r3, #4]
 3146 003a 9B00     		lsls	r3, r3, #2
 3147 003c 0B44     		add	r3, r3, r1
 3148 003e 9A42     		cmp	r2, r3
 3149 0040 2CBF     		ite	cs
 3150 0042 0123     		movcs	r3, #1
 3151 0044 0023     		movcc	r3, #0
 3152 0046 DBB2     		uxtb	r3, r3
 3153 0048 002B     		cmp	r3, #0
 3154 004a 03D0     		beq	.L164
 3155              		.loc 16 43 0
 3156 004c 019B     		ldr	r3, [sp, #4]
 3157 004e 1A68     		ldr	r2, [r3]
 3158 0050 019B     		ldr	r3, [sp, #4]
 3159 0052 1A61     		str	r2, [r3, #16]
 3160              	.L164:
 3161              		.loc 16 45 0
ARM GAS  /tmp/ccypRU8x.s 			page 59


 3162 0054 0123     		movs	r3, #1
 3163 0056 00E0     		b	.L165
 3164              	.L163:
 3165              		.loc 16 47 0
 3166 0058 0023     		movs	r3, #0
 3167              	.L165:
 3168              		.loc 16 48 0
 3169 005a 1846     		mov	r0, r3
 3170 005c 02B0     		add	sp, sp, #8
 3171              		.cfi_def_cfa_offset 0
 3172              		@ sp needed
 3173 005e 7047     		bx	lr
 3174              		.cfi_endproc
 3175              	.LFE619:
 3176              		.size	_ZN3r2p10ArrayQueueIPNS_7MessageEE11post_unsafeES2_, .-_ZN3r2p10ArrayQueueIPNS_7MessageEE11p
 3177              		.section	.text._ZN3r2p9PublisherINS_9Speed3MsgEEC2Ev,"axG",%progbits,_ZN3r2p9PublisherINS_9Speed3M
 3178              		.align	2
 3179              		.p2align 4,,15
 3180              		.weak	_ZN3r2p9PublisherINS_9Speed3MsgEEC2Ev
 3181              		.thumb
 3182              		.thumb_func
 3183              		.type	_ZN3r2p9PublisherINS_9Speed3MsgEEC2Ev, %function
 3184              	_ZN3r2p9PublisherINS_9Speed3MsgEEC2Ev:
 3185              	.LFB630:
 3186              		.file 17 "/home/ergae/r2p-sdk/core/Middleware/include/r2p/Publisher.hpp"
 3187              		.loc 17 47 0
 3188              		.cfi_startproc
 3189              		@ args = 0, pretend = 0, frame = 8
 3190              		@ frame_needed = 0, uses_anonymous_args = 0
 3191 0000 00B5     		push	{lr}
 3192              		.cfi_def_cfa_offset 4
 3193              		.cfi_offset 14, -4
 3194 0002 83B0     		sub	sp, sp, #12
 3195              		.cfi_def_cfa_offset 16
 3196 0004 0190     		str	r0, [sp, #4]
 3197              	.LBB79:
 3198              		.loc 17 47 0
 3199 0006 019B     		ldr	r3, [sp, #4]
 3200 0008 1846     		mov	r0, r3
 3201 000a FFF7FEFF 		bl	_ZN3r2p14LocalPublisherC2Ev
 3202 000e 019B     		ldr	r3, [sp, #4]
 3203 0010 034A     		ldr	r2, .L169
 3204 0012 1A60     		str	r2, [r3]
 3205              	.LBE79:
 3206              		.loc 17 50 0
 3207 0014 019B     		ldr	r3, [sp, #4]
 3208 0016 1846     		mov	r0, r3
 3209 0018 03B0     		add	sp, sp, #12
 3210              		.cfi_def_cfa_offset 4
 3211              		@ sp needed
 3212 001a 5DF804FB 		ldr	pc, [sp], #4
 3213              	.L170:
 3214 001e 00BF     		.align	2
 3215              	.L169:
 3216 0020 08000000 		.word	_ZTVN3r2p9PublisherINS_9Speed3MsgEEE+8
 3217              		.cfi_endproc
 3218              	.LFE630:
ARM GAS  /tmp/ccypRU8x.s 			page 60


 3219              		.size	_ZN3r2p9PublisherINS_9Speed3MsgEEC2Ev, .-_ZN3r2p9PublisherINS_9Speed3MsgEEC2Ev
 3220              		.weak	_ZN3r2p9PublisherINS_9Speed3MsgEEC1Ev
 3221              		.thumb_set _ZN3r2p9PublisherINS_9Speed3MsgEEC1Ev,_ZN3r2p9PublisherINS_9Speed3MsgEEC2Ev
 3222 0024 AFF30080 		.section	.text._ZN3r2p9PublisherINS_9PIDCfgMsgEEC2Ev,"axG",%progbits,_ZN3r2p9PublisherINS_9PIDCfgM
 3222      AFF30080 
 3222      AFF30080 
 3223              		.align	2
 3224              		.p2align 4,,15
 3225              		.weak	_ZN3r2p9PublisherINS_9PIDCfgMsgEEC2Ev
 3226              		.thumb
 3227              		.thumb_func
 3228              		.type	_ZN3r2p9PublisherINS_9PIDCfgMsgEEC2Ev, %function
 3229              	_ZN3r2p9PublisherINS_9PIDCfgMsgEEC2Ev:
 3230              	.LFB633:
 3231              		.loc 17 47 0
 3232              		.cfi_startproc
 3233              		@ args = 0, pretend = 0, frame = 8
 3234              		@ frame_needed = 0, uses_anonymous_args = 0
 3235 0000 00B5     		push	{lr}
 3236              		.cfi_def_cfa_offset 4
 3237              		.cfi_offset 14, -4
 3238 0002 83B0     		sub	sp, sp, #12
 3239              		.cfi_def_cfa_offset 16
 3240 0004 0190     		str	r0, [sp, #4]
 3241              	.LBB80:
 3242              		.loc 17 47 0
 3243 0006 019B     		ldr	r3, [sp, #4]
 3244 0008 1846     		mov	r0, r3
 3245 000a FFF7FEFF 		bl	_ZN3r2p14LocalPublisherC2Ev
 3246 000e 019B     		ldr	r3, [sp, #4]
 3247 0010 034A     		ldr	r2, .L174
 3248 0012 1A60     		str	r2, [r3]
 3249              	.LBE80:
 3250              		.loc 17 50 0
 3251 0014 019B     		ldr	r3, [sp, #4]
 3252 0016 1846     		mov	r0, r3
 3253 0018 03B0     		add	sp, sp, #12
 3254              		.cfi_def_cfa_offset 4
 3255              		@ sp needed
 3256 001a 5DF804FB 		ldr	pc, [sp], #4
 3257              	.L175:
 3258 001e 00BF     		.align	2
 3259              	.L174:
 3260 0020 08000000 		.word	_ZTVN3r2p9PublisherINS_9PIDCfgMsgEEE+8
 3261              		.cfi_endproc
 3262              	.LFE633:
 3263              		.size	_ZN3r2p9PublisherINS_9PIDCfgMsgEEC2Ev, .-_ZN3r2p9PublisherINS_9PIDCfgMsgEEC2Ev
 3264              		.weak	_ZN3r2p9PublisherINS_9PIDCfgMsgEEC1Ev
 3265              		.thumb_set _ZN3r2p9PublisherINS_9PIDCfgMsgEEC1Ev,_ZN3r2p9PublisherINS_9PIDCfgMsgEEC2Ev
 3266 0024 AFF30080 		.section	.text._ZN3r2p7PixyMsgC2Ev,"axG",%progbits,_ZN3r2p7PixyMsgC5Ev,comdat
 3266      AFF30080 
 3266      AFF30080 
 3267              		.align	2
 3268              		.p2align 4,,15
 3269              		.weak	_ZN3r2p7PixyMsgC2Ev
 3270              		.thumb
 3271              		.thumb_func
ARM GAS  /tmp/ccypRU8x.s 			page 61


 3272              		.type	_ZN3r2p7PixyMsgC2Ev, %function
 3273              	_ZN3r2p7PixyMsgC2Ev:
 3274              	.LFB637:
 3275              		.file 18 "/home/ergae/r2p-sdk/core/Middleware/include/r2p/msg/pixy.hpp"
 3276              		.loc 18 4 0
 3277              		.cfi_startproc
 3278              		@ args = 0, pretend = 0, frame = 8
 3279              		@ frame_needed = 0, uses_anonymous_args = 0
 3280 0000 00B5     		push	{lr}
 3281              		.cfi_def_cfa_offset 4
 3282              		.cfi_offset 14, -4
 3283 0002 83B0     		sub	sp, sp, #12
 3284              		.cfi_def_cfa_offset 16
 3285 0004 0190     		str	r0, [sp, #4]
 3286              	.LBB81:
 3287              		.loc 18 4 0
 3288 0006 019B     		ldr	r3, [sp, #4]
 3289 0008 1846     		mov	r0, r3
 3290 000a FFF7FEFF 		bl	_ZN3r2p7MessageC2Ev
 3291              	.LBE81:
 3292 000e 019B     		ldr	r3, [sp, #4]
 3293 0010 1846     		mov	r0, r3
 3294 0012 03B0     		add	sp, sp, #12
 3295              		.cfi_def_cfa_offset 4
 3296              		@ sp needed
 3297 0014 5DF804FB 		ldr	pc, [sp], #4
 3298              		.cfi_endproc
 3299              	.LFE637:
 3300              		.size	_ZN3r2p7PixyMsgC2Ev, .-_ZN3r2p7PixyMsgC2Ev
 3301              		.weak	_ZN3r2p7PixyMsgC1Ev
 3302              		.thumb_set _ZN3r2p7PixyMsgC1Ev,_ZN3r2p7PixyMsgC2Ev
 3303 0018 AFF30080 		.section	.text._ZN3r2p10SubscriberINS_7PixyMsgELj5EEC2EPFbRKS1_E,"axG",%progbits,_ZN3r2p10Subscrib
 3303      AFF30080 
 3304              		.align	2
 3305              		.p2align 4,,15
 3306              		.weak	_ZN3r2p10SubscriberINS_7PixyMsgELj5EEC2EPFbRKS1_E
 3307              		.thumb
 3308              		.thumb_func
 3309              		.type	_ZN3r2p10SubscriberINS_7PixyMsgELj5EEC2EPFbRKS1_E, %function
 3310              	_ZN3r2p10SubscriberINS_7PixyMsgELj5EEC2EPFbRKS1_E:
 3311              	.LFB639:
 3312              		.file 19 "/home/ergae/r2p-sdk/core/Middleware/include/r2p/Subscriber.hpp"
 3313              		.loc 19 31 0
 3314              		.cfi_startproc
 3315              		@ args = 0, pretend = 0, frame = 8
 3316              		@ frame_needed = 0, uses_anonymous_args = 0
 3317 0000 30B5     		push	{r4, r5, lr}
 3318              		.cfi_def_cfa_offset 12
 3319              		.cfi_offset 4, -12
 3320              		.cfi_offset 5, -8
 3321              		.cfi_offset 14, -4
 3322 0002 83B0     		sub	sp, sp, #12
 3323              		.cfi_def_cfa_offset 24
 3324 0004 0190     		str	r0, [sp, #4]
 3325 0006 0091     		str	r1, [sp]
 3326              	.LBB82:
 3327              		.loc 19 33 0
ARM GAS  /tmp/ccypRU8x.s 			page 62


 3328 0008 019A     		ldr	r2, [sp, #4]
 3329 000a 019B     		ldr	r3, [sp, #4]
 3330 000c 8833     		adds	r3, r3, #136
 3331 000e 1046     		mov	r0, r2
 3332 0010 1946     		mov	r1, r3
 3333 0012 0522     		movs	r2, #5
 3334 0014 009B     		ldr	r3, [sp]
 3335 0016 FFF7FEFF 		bl	_ZN3r2p16SubscriberExtBufINS_7PixyMsgEEC2EPPS1_jPFbRKS1_E
 3336 001a 019B     		ldr	r3, [sp, #4]
 3337 001c 094A     		ldr	r2, .L184
 3338 001e 1A60     		str	r2, [r3]
 3339 0020 019B     		ldr	r3, [sp, #4]
 3340 0022 3833     		adds	r3, r3, #56
 3341 0024 0424     		movs	r4, #4
 3342 0026 1D46     		mov	r5, r3
 3343 0028 04E0     		b	.L180
 3344              	.L181:
 3345              		.loc 19 33 0 is_stmt 0 discriminator 3
 3346 002a 2846     		mov	r0, r5
 3347 002c FFF7FEFF 		bl	_ZN3r2p7PixyMsgC1Ev
 3348 0030 1035     		adds	r5, r5, #16
 3349 0032 013C     		subs	r4, r4, #1
 3350              	.L180:
 3351              		.loc 19 33 0 discriminator 1
 3352 0034 B4F1FF3F 		cmp	r4, #-1
 3353 0038 F7D1     		bne	.L181
 3354              	.LBE82:
 3355              		.loc 19 34 0 is_stmt 1 discriminator 4
 3356 003a 019B     		ldr	r3, [sp, #4]
 3357 003c 1846     		mov	r0, r3
 3358 003e 03B0     		add	sp, sp, #12
 3359              		.cfi_def_cfa_offset 12
 3360              		@ sp needed
 3361 0040 30BD     		pop	{r4, r5, pc}
 3362              	.L185:
 3363 0042 00BF     		.align	2
 3364              	.L184:
 3365 0044 08000000 		.word	_ZTVN3r2p10SubscriberINS_7PixyMsgELj5EEE+8
 3366              		.cfi_endproc
 3367              	.LFE639:
 3368              		.size	_ZN3r2p10SubscriberINS_7PixyMsgELj5EEC2EPFbRKS1_E, .-_ZN3r2p10SubscriberINS_7PixyMsgELj5EEC2
 3369              		.weak	_ZN3r2p10SubscriberINS_7PixyMsgELj5EEC1EPFbRKS1_E
 3370              		.thumb_set _ZN3r2p10SubscriberINS_7PixyMsgELj5EEC1EPFbRKS1_E,_ZN3r2p10SubscriberINS_7PixyMsgELj5EE
 3371 0048 AFF30080 		.section	.text._ZN3r2p12ProximityMsgC2Ev,"axG",%progbits,_ZN3r2p12ProximityMsgC5Ev,comdat
 3371      AFF30080 
 3372              		.align	2
 3373              		.p2align 4,,15
 3374              		.weak	_ZN3r2p12ProximityMsgC2Ev
 3375              		.thumb
 3376              		.thumb_func
 3377              		.type	_ZN3r2p12ProximityMsgC2Ev, %function
 3378              	_ZN3r2p12ProximityMsgC2Ev:
 3379              	.LFB643:
 3380              		.file 20 "/home/ergae/r2p-sdk/core/Middleware/include/r2p/msg/proximity.hpp"
 3381              		.loc 20 7 0
 3382              		.cfi_startproc
 3383              		@ args = 0, pretend = 0, frame = 8
ARM GAS  /tmp/ccypRU8x.s 			page 63


 3384              		@ frame_needed = 0, uses_anonymous_args = 0
 3385 0000 00B5     		push	{lr}
 3386              		.cfi_def_cfa_offset 4
 3387              		.cfi_offset 14, -4
 3388 0002 83B0     		sub	sp, sp, #12
 3389              		.cfi_def_cfa_offset 16
 3390 0004 0190     		str	r0, [sp, #4]
 3391              	.LBB83:
 3392              		.loc 20 7 0
 3393 0006 019B     		ldr	r3, [sp, #4]
 3394 0008 1846     		mov	r0, r3
 3395 000a FFF7FEFF 		bl	_ZN3r2p7MessageC2Ev
 3396              	.LBE83:
 3397 000e 019B     		ldr	r3, [sp, #4]
 3398 0010 1846     		mov	r0, r3
 3399 0012 03B0     		add	sp, sp, #12
 3400              		.cfi_def_cfa_offset 4
 3401              		@ sp needed
 3402 0014 5DF804FB 		ldr	pc, [sp], #4
 3403              		.cfi_endproc
 3404              	.LFE643:
 3405              		.size	_ZN3r2p12ProximityMsgC2Ev, .-_ZN3r2p12ProximityMsgC2Ev
 3406              		.weak	_ZN3r2p12ProximityMsgC1Ev
 3407              		.thumb_set _ZN3r2p12ProximityMsgC1Ev,_ZN3r2p12ProximityMsgC2Ev
 3408 0018 AFF30080 		.section	.text._ZN3r2p10SubscriberINS_12ProximityMsgELj5EEC2EPFbRKS1_E,"axG",%progbits,_ZN3r2p10Su
 3408      AFF30080 
 3409              		.align	2
 3410              		.p2align 4,,15
 3411              		.weak	_ZN3r2p10SubscriberINS_12ProximityMsgELj5EEC2EPFbRKS1_E
 3412              		.thumb
 3413              		.thumb_func
 3414              		.type	_ZN3r2p10SubscriberINS_12ProximityMsgELj5EEC2EPFbRKS1_E, %function
 3415              	_ZN3r2p10SubscriberINS_12ProximityMsgELj5EEC2EPFbRKS1_E:
 3416              	.LFB645:
 3417              		.loc 19 31 0
 3418              		.cfi_startproc
 3419              		@ args = 0, pretend = 0, frame = 8
 3420              		@ frame_needed = 0, uses_anonymous_args = 0
 3421 0000 30B5     		push	{r4, r5, lr}
 3422              		.cfi_def_cfa_offset 12
 3423              		.cfi_offset 4, -12
 3424              		.cfi_offset 5, -8
 3425              		.cfi_offset 14, -4
 3426 0002 83B0     		sub	sp, sp, #12
 3427              		.cfi_def_cfa_offset 24
 3428 0004 0190     		str	r0, [sp, #4]
 3429 0006 0091     		str	r1, [sp]
 3430              	.LBB84:
 3431              		.loc 19 33 0
 3432 0008 019A     		ldr	r2, [sp, #4]
 3433 000a 019B     		ldr	r3, [sp, #4]
 3434 000c 9433     		adds	r3, r3, #148
 3435 000e 1046     		mov	r0, r2
 3436 0010 1946     		mov	r1, r3
 3437 0012 0522     		movs	r2, #5
 3438 0014 009B     		ldr	r3, [sp]
 3439 0016 FFF7FEFF 		bl	_ZN3r2p16SubscriberExtBufINS_12ProximityMsgEEC2EPPS1_jPFbRKS1_E
ARM GAS  /tmp/ccypRU8x.s 			page 64


 3440 001a 019B     		ldr	r3, [sp, #4]
 3441 001c 094A     		ldr	r2, .L194
 3442 001e 1A60     		str	r2, [r3]
 3443 0020 019B     		ldr	r3, [sp, #4]
 3444 0022 3833     		adds	r3, r3, #56
 3445 0024 0424     		movs	r4, #4
 3446 0026 1D46     		mov	r5, r3
 3447 0028 04E0     		b	.L190
 3448              	.L191:
 3449              		.loc 19 33 0 is_stmt 0 discriminator 3
 3450 002a 2846     		mov	r0, r5
 3451 002c FFF7FEFF 		bl	_ZN3r2p12ProximityMsgC1Ev
 3452 0030 1235     		adds	r5, r5, #18
 3453 0032 013C     		subs	r4, r4, #1
 3454              	.L190:
 3455              		.loc 19 33 0 discriminator 1
 3456 0034 B4F1FF3F 		cmp	r4, #-1
 3457 0038 F7D1     		bne	.L191
 3458              	.LBE84:
 3459              		.loc 19 34 0 is_stmt 1 discriminator 4
 3460 003a 019B     		ldr	r3, [sp, #4]
 3461 003c 1846     		mov	r0, r3
 3462 003e 03B0     		add	sp, sp, #12
 3463              		.cfi_def_cfa_offset 12
 3464              		@ sp needed
 3465 0040 30BD     		pop	{r4, r5, pc}
 3466              	.L195:
 3467 0042 00BF     		.align	2
 3468              	.L194:
 3469 0044 08000000 		.word	_ZTVN3r2p10SubscriberINS_12ProximityMsgELj5EEE+8
 3470              		.cfi_endproc
 3471              	.LFE645:
 3472              		.size	_ZN3r2p10SubscriberINS_12ProximityMsgELj5EEC2EPFbRKS1_E, .-_ZN3r2p10SubscriberINS_12Proximit
 3473              		.weak	_ZN3r2p10SubscriberINS_12ProximityMsgELj5EEC1EPFbRKS1_E
 3474              		.thumb_set _ZN3r2p10SubscriberINS_12ProximityMsgELj5EEC1EPFbRKS1_E,_ZN3r2p10SubscriberINS_12Proxim
 3475 0048 AFF30080 		.section	.text._ZN3r2p4Node9advertiseINS_9Speed3MsgEEEbRNS_9PublisherIT_EEPKcRKNS_4TimeE,"axG",%pr
 3475      AFF30080 
 3476              		.align	2
 3477              		.p2align 4,,15
 3478              		.weak	_ZN3r2p4Node9advertiseINS_9Speed3MsgEEEbRNS_9PublisherIT_EEPKcRKNS_4TimeE
 3479              		.thumb
 3480              		.thumb_func
 3481              		.type	_ZN3r2p4Node9advertiseINS_9Speed3MsgEEEbRNS_9PublisherIT_EEPKcRKNS_4TimeE, %function
 3482              	_ZN3r2p4Node9advertiseINS_9Speed3MsgEEEbRNS_9PublisherIT_EEPKcRKNS_4TimeE:
 3483              	.LFB647:
 3484              		.loc 12 117 0
 3485              		.cfi_startproc
 3486              		@ args = 0, pretend = 0, frame = 16
 3487              		@ frame_needed = 0, uses_anonymous_args = 0
 3488 0000 00B5     		push	{lr}
 3489              		.cfi_def_cfa_offset 4
 3490              		.cfi_offset 14, -4
 3491 0002 87B0     		sub	sp, sp, #28
 3492              		.cfi_def_cfa_offset 32
 3493 0004 0590     		str	r0, [sp, #20]
 3494 0006 0491     		str	r1, [sp, #16]
 3495 0008 0392     		str	r2, [sp, #12]
ARM GAS  /tmp/ccypRU8x.s 			page 65


 3496 000a 0293     		str	r3, [sp, #8]
 3497              		.loc 12 120 0
 3498 000c 049A     		ldr	r2, [sp, #16]
 3499 000e 0E23     		movs	r3, #14
 3500 0010 0093     		str	r3, [sp]
 3501 0012 0598     		ldr	r0, [sp, #20]
 3502 0014 1146     		mov	r1, r2
 3503 0016 039A     		ldr	r2, [sp, #12]
 3504 0018 029B     		ldr	r3, [sp, #8]
 3505 001a FFF7FEFF 		bl	_ZN3r2p4Node9advertiseERNS_14LocalPublisherEPKcRKNS_4TimeEj
 3506 001e 0346     		mov	r3, r0
 3507              		.loc 12 121 0
 3508 0020 1846     		mov	r0, r3
 3509 0022 07B0     		add	sp, sp, #28
 3510              		.cfi_def_cfa_offset 4
 3511              		@ sp needed
 3512 0024 5DF804FB 		ldr	pc, [sp], #4
 3513              		.cfi_endproc
 3514              	.LFE647:
 3515              		.size	_ZN3r2p4Node9advertiseINS_9Speed3MsgEEEbRNS_9PublisherIT_EEPKcRKNS_4TimeE, .-_ZN3r2p4Node9ad
 3516 0028 AFF30080 		.section	.text._ZN3r2p9PublisherINS_9Speed3MsgEE5allocERPS1_,"axG",%progbits,_ZN3r2p9PublisherINS_
 3516      AFF30080 
 3517              		.align	2
 3518              		.p2align 4,,15
 3519              		.weak	_ZN3r2p9PublisherINS_9Speed3MsgEE5allocERPS1_
 3520              		.thumb
 3521              		.thumb_func
 3522              		.type	_ZN3r2p9PublisherINS_9Speed3MsgEE5allocERPS1_, %function
 3523              	_ZN3r2p9PublisherINS_9Speed3MsgEE5allocERPS1_:
 3524              	.LFB648:
 3525              		.loc 17 25 0
 3526              		.cfi_startproc
 3527              		@ args = 0, pretend = 0, frame = 8
 3528              		@ frame_needed = 0, uses_anonymous_args = 0
 3529 0000 00B5     		push	{lr}
 3530              		.cfi_def_cfa_offset 4
 3531              		.cfi_offset 14, -4
 3532 0002 83B0     		sub	sp, sp, #12
 3533              		.cfi_def_cfa_offset 16
 3534 0004 0190     		str	r0, [sp, #4]
 3535 0006 0091     		str	r1, [sp]
 3536              		.loc 17 28 0
 3537 0008 019B     		ldr	r3, [sp, #4]
 3538 000a 1846     		mov	r0, r3
 3539 000c 0099     		ldr	r1, [sp]
 3540 000e FFF7FEFF 		bl	_ZN3r2p13BasePublisher5allocERPNS_7MessageE
 3541 0012 0346     		mov	r3, r0
 3542              		.loc 17 29 0
 3543 0014 1846     		mov	r0, r3
 3544 0016 03B0     		add	sp, sp, #12
 3545              		.cfi_def_cfa_offset 4
 3546              		@ sp needed
 3547 0018 5DF804FB 		ldr	pc, [sp], #4
 3548              		.cfi_endproc
 3549              	.LFE648:
 3550              		.size	_ZN3r2p9PublisherINS_9Speed3MsgEE5allocERPS1_, .-_ZN3r2p9PublisherINS_9Speed3MsgEE5allocERPS
 3551 001c AFF30080 		.section	.text._Z5clampIfET_S0_S0_S0_,"ax",%progbits
ARM GAS  /tmp/ccypRU8x.s 			page 66


 3552              		.align	2
 3553              		.p2align 4,,15
 3554              		.thumb
 3555              		.thumb_func
 3556              		.type	_Z5clampIfET_S0_S0_S0_, %function
 3557              	_Z5clampIfET_S0_S0_S0_:
 3558              	.LFB649:
 3559              		.loc 15 53 0
 3560              		.cfi_startproc
 3561              		@ args = 0, pretend = 0, frame = 16
 3562              		@ frame_needed = 0, uses_anonymous_args = 0
 3563              		@ link register save eliminated.
 3564 0000 84B0     		sub	sp, sp, #16
 3565              		.cfi_def_cfa_offset 16
 3566 0002 8DED030A 		fsts	s0, [sp, #12]
 3567 0006 CDED020A 		fsts	s1, [sp, #8]
 3568 000a 8DED011A 		fsts	s2, [sp, #4]
 3569              		.loc 15 54 0
 3570 000e 9DED027A 		flds	s14, [sp, #8]
 3571 0012 DDED037A 		flds	s15, [sp, #12]
 3572 0016 B4EEE77A 		fcmpes	s14, s15
 3573 001a F1EE10FA 		fmstat
 3574 001e 01D5     		bpl	.L210
 3575              		.loc 15 54 0 is_stmt 0 discriminator 1
 3576 0020 039B     		ldr	r3, [sp, #12]	@ float
 3577 0022 0BE0     		b	.L203
 3578              	.L210:
 3579              		.loc 15 54 0 discriminator 2
 3580 0024 9DED027A 		flds	s14, [sp, #8]
 3581 0028 DDED017A 		flds	s15, [sp, #4]
 3582 002c B4EEE77A 		fcmpes	s14, s15
 3583 0030 F1EE10FA 		fmstat
 3584 0034 01DD     		ble	.L211
 3585              		.loc 15 54 0 discriminator 4
 3586 0036 019B     		ldr	r3, [sp, #4]	@ float
 3587 0038 00E0     		b	.L203
 3588              	.L211:
 3589              		.loc 15 54 0 discriminator 5
 3590 003a 029B     		ldr	r3, [sp, #8]	@ float
 3591              	.L203:
 3592              		.loc 15 54 0 discriminator 8
 3593 003c 07EE903A 		fmsr	s15, r3
 3594              		.loc 15 55 0 is_stmt 1 discriminator 8
 3595 0040 B0EE670A 		fcpys	s0, s15
 3596 0044 04B0     		add	sp, sp, #16
 3597              		.cfi_def_cfa_offset 0
 3598              		@ sp needed
 3599 0046 7047     		bx	lr
 3600              		.cfi_endproc
 3601              	.LFE649:
 3602              		.size	_Z5clampIfET_S0_S0_S0_, .-_Z5clampIfET_S0_S0_S0_
 3603 0048 AFF30080 		.section	.text._ZN3r2p9PublisherINS_9Speed3MsgEE7publishERS1_,"axG",%progbits,_ZN3r2p9PublisherINS
 3603      AFF30080 
 3604              		.align	2
 3605              		.p2align 4,,15
 3606              		.weak	_ZN3r2p9PublisherINS_9Speed3MsgEE7publishERS1_
 3607              		.thumb
ARM GAS  /tmp/ccypRU8x.s 			page 67


 3608              		.thumb_func
 3609              		.type	_ZN3r2p9PublisherINS_9Speed3MsgEE7publishERS1_, %function
 3610              	_ZN3r2p9PublisherINS_9Speed3MsgEE7publishERS1_:
 3611              	.LFB650:
 3612              		.loc 17 33 0
 3613              		.cfi_startproc
 3614              		@ args = 0, pretend = 0, frame = 8
 3615              		@ frame_needed = 0, uses_anonymous_args = 0
 3616 0000 00B5     		push	{lr}
 3617              		.cfi_def_cfa_offset 4
 3618              		.cfi_offset 14, -4
 3619 0002 83B0     		sub	sp, sp, #12
 3620              		.cfi_def_cfa_offset 16
 3621 0004 0190     		str	r0, [sp, #4]
 3622 0006 0091     		str	r1, [sp]
 3623              		.loc 17 36 0
 3624 0008 019A     		ldr	r2, [sp, #4]
 3625 000a 009B     		ldr	r3, [sp]
 3626 000c 1046     		mov	r0, r2
 3627 000e 1946     		mov	r1, r3
 3628 0010 FFF7FEFF 		bl	_ZN3r2p13BasePublisher7publishERNS_7MessageE
 3629 0014 0346     		mov	r3, r0
 3630              		.loc 17 37 0
 3631 0016 1846     		mov	r0, r3
 3632 0018 03B0     		add	sp, sp, #12
 3633              		.cfi_def_cfa_offset 4
 3634              		@ sp needed
 3635 001a 5DF804FB 		ldr	pc, [sp], #4
 3636              		.cfi_endproc
 3637              	.LFE650:
 3638              		.size	_ZN3r2p9PublisherINS_9Speed3MsgEE7publishERS1_, .-_ZN3r2p9PublisherINS_9Speed3MsgEE7publishE
 3639 001e 00BF     		.section	.text._ZN3r2p4Node9subscribeINS_7PixyMsgELj5EEEbRNS_10SubscriberIT_XT0_EEEPKc,"axG",%prog
 3640              		.align	2
 3641              		.p2align 4,,15
 3642              		.weak	_ZN3r2p4Node9subscribeINS_7PixyMsgELj5EEEbRNS_10SubscriberIT_XT0_EEEPKc
 3643              		.thumb
 3644              		.thumb_func
 3645              		.type	_ZN3r2p4Node9subscribeINS_7PixyMsgELj5EEEbRNS_10SubscriberIT_XT0_EEEPKc, %function
 3646              	_ZN3r2p4Node9subscribeINS_7PixyMsgELj5EEEbRNS_10SubscriberIT_XT0_EEEPKc:
 3647              	.LFB651:
 3648              		.loc 12 133 0
 3649              		.cfi_startproc
 3650              		@ args = 0, pretend = 0, frame = 16
 3651              		@ frame_needed = 0, uses_anonymous_args = 0
 3652 0000 10B5     		push	{r4, lr}
 3653              		.cfi_def_cfa_offset 8
 3654              		.cfi_offset 4, -8
 3655              		.cfi_offset 14, -4
 3656 0002 86B0     		sub	sp, sp, #24
 3657              		.cfi_def_cfa_offset 32
 3658 0004 0590     		str	r0, [sp, #20]
 3659 0006 0491     		str	r1, [sp, #16]
 3660 0008 0392     		str	r2, [sp, #12]
 3661              		.loc 12 135 0
 3662 000a 049A     		ldr	r2, [sp, #16]
 3663 000c 049B     		ldr	r3, [sp, #16]
 3664 000e 03F13804 		add	r4, r3, #56
ARM GAS  /tmp/ccypRU8x.s 			page 68


 3665 0012 1023     		movs	r3, #16
 3666 0014 0093     		str	r3, [sp]
 3667 0016 0598     		ldr	r0, [sp, #20]
 3668 0018 1146     		mov	r1, r2
 3669 001a 039A     		ldr	r2, [sp, #12]
 3670 001c 2346     		mov	r3, r4
 3671 001e FFF7FEFF 		bl	_ZN3r2p4Node9subscribeERNS_15LocalSubscriberEPKcPNS_7MessageEj
 3672 0022 0346     		mov	r3, r0
 3673              		.loc 12 136 0
 3674 0024 1846     		mov	r0, r3
 3675 0026 06B0     		add	sp, sp, #24
 3676              		.cfi_def_cfa_offset 8
 3677              		@ sp needed
 3678 0028 10BD     		pop	{r4, pc}
 3679              		.cfi_endproc
 3680              	.LFE651:
 3681              		.size	_ZN3r2p4Node9subscribeINS_7PixyMsgELj5EEEbRNS_10SubscriberIT_XT0_EEEPKc, .-_ZN3r2p4Node9subs
 3682 002a 00BFAFF3 		.section	.text._ZN3r2p16SubscriberExtBufINS_7PixyMsgEE5fetchERPS1_,"axG",%progbits,_ZN3r2p16Subscr
 3682      0080
 3683              		.align	2
 3684              		.p2align 4,,15
 3685              		.weak	_ZN3r2p16SubscriberExtBufINS_7PixyMsgEE5fetchERPS1_
 3686              		.thumb
 3687              		.thumb_func
 3688              		.type	_ZN3r2p16SubscriberExtBufINS_7PixyMsgEE5fetchERPS1_, %function
 3689              	_ZN3r2p16SubscriberExtBufINS_7PixyMsgEE5fetchERPS1_:
 3690              	.LFB652:
 3691              		.file 21 "/home/ergae/r2p-sdk/core/Middleware/include/r2p/SubscriberExtBuf.hpp"
 3692              		.loc 21 31 0
 3693              		.cfi_startproc
 3694              		@ args = 0, pretend = 0, frame = 8
 3695              		@ frame_needed = 0, uses_anonymous_args = 0
 3696 0000 00B5     		push	{lr}
 3697              		.cfi_def_cfa_offset 4
 3698              		.cfi_offset 14, -4
 3699 0002 83B0     		sub	sp, sp, #12
 3700              		.cfi_def_cfa_offset 16
 3701 0004 0190     		str	r0, [sp, #4]
 3702 0006 0091     		str	r1, [sp]
 3703              		.loc 21 34 0
 3704 0008 019B     		ldr	r3, [sp, #4]
 3705 000a 1846     		mov	r0, r3
 3706 000c 0099     		ldr	r1, [sp]
 3707 000e FFF7FEFF 		bl	_ZN3r2p15LocalSubscriber5fetchERPNS_7MessageE
 3708 0012 0346     		mov	r3, r0
 3709              		.loc 21 35 0
 3710 0014 1846     		mov	r0, r3
 3711 0016 03B0     		add	sp, sp, #12
 3712              		.cfi_def_cfa_offset 4
 3713              		@ sp needed
 3714 0018 5DF804FB 		ldr	pc, [sp], #4
 3715              		.cfi_endproc
 3716              	.LFE652:
 3717              		.size	_ZN3r2p16SubscriberExtBufINS_7PixyMsgEE5fetchERPS1_, .-_ZN3r2p16SubscriberExtBufINS_7PixyMsg
 3718 001c AFF30080 		.section	.text._ZN3r2p16SubscriberExtBufINS_7PixyMsgEE7releaseERS1_,"axG",%progbits,_ZN3r2p16Subsc
 3719              		.align	2
 3720              		.p2align 4,,15
ARM GAS  /tmp/ccypRU8x.s 			page 69


 3721              		.weak	_ZN3r2p16SubscriberExtBufINS_7PixyMsgEE7releaseERS1_
 3722              		.thumb
 3723              		.thumb_func
 3724              		.type	_ZN3r2p16SubscriberExtBufINS_7PixyMsgEE7releaseERS1_, %function
 3725              	_ZN3r2p16SubscriberExtBufINS_7PixyMsgEE7releaseERS1_:
 3726              	.LFB653:
 3727              		.loc 21 57 0
 3728              		.cfi_startproc
 3729              		@ args = 0, pretend = 0, frame = 8
 3730              		@ frame_needed = 0, uses_anonymous_args = 0
 3731 0000 00B5     		push	{lr}
 3732              		.cfi_def_cfa_offset 4
 3733              		.cfi_offset 14, -4
 3734 0002 83B0     		sub	sp, sp, #12
 3735              		.cfi_def_cfa_offset 16
 3736 0004 0190     		str	r0, [sp, #4]
 3737 0006 0091     		str	r1, [sp]
 3738              		.loc 21 60 0
 3739 0008 019A     		ldr	r2, [sp, #4]
 3740 000a 009B     		ldr	r3, [sp]
 3741 000c 1046     		mov	r0, r2
 3742 000e 1946     		mov	r1, r3
 3743 0010 FFF7FEFF 		bl	_ZN3r2p14BaseSubscriber7releaseERNS_7MessageE
 3744 0014 0346     		mov	r3, r0
 3745              		.loc 21 61 0
 3746 0016 1846     		mov	r0, r3
 3747 0018 03B0     		add	sp, sp, #12
 3748              		.cfi_def_cfa_offset 4
 3749              		@ sp needed
 3750 001a 5DF804FB 		ldr	pc, [sp], #4
 3751              		.cfi_endproc
 3752              	.LFE653:
 3753              		.size	_ZN3r2p16SubscriberExtBufINS_7PixyMsgEE7releaseERS1_, .-_ZN3r2p16SubscriberExtBufINS_7PixyMs
 3754 001e 00BF     		.section	.text._ZN3r2p4Node9subscribeINS_12ProximityMsgELj5EEEbRNS_10SubscriberIT_XT0_EEEPKc,"axG"
 3755              		.align	2
 3756              		.p2align 4,,15
 3757              		.weak	_ZN3r2p4Node9subscribeINS_12ProximityMsgELj5EEEbRNS_10SubscriberIT_XT0_EEEPKc
 3758              		.thumb
 3759              		.thumb_func
 3760              		.type	_ZN3r2p4Node9subscribeINS_12ProximityMsgELj5EEEbRNS_10SubscriberIT_XT0_EEEPKc, %function
 3761              	_ZN3r2p4Node9subscribeINS_12ProximityMsgELj5EEEbRNS_10SubscriberIT_XT0_EEEPKc:
 3762              	.LFB654:
 3763              		.loc 12 133 0
 3764              		.cfi_startproc
 3765              		@ args = 0, pretend = 0, frame = 16
 3766              		@ frame_needed = 0, uses_anonymous_args = 0
 3767 0000 10B5     		push	{r4, lr}
 3768              		.cfi_def_cfa_offset 8
 3769              		.cfi_offset 4, -8
 3770              		.cfi_offset 14, -4
 3771 0002 86B0     		sub	sp, sp, #24
 3772              		.cfi_def_cfa_offset 32
 3773 0004 0590     		str	r0, [sp, #20]
 3774 0006 0491     		str	r1, [sp, #16]
 3775 0008 0392     		str	r2, [sp, #12]
 3776              		.loc 12 135 0
 3777 000a 049A     		ldr	r2, [sp, #16]
ARM GAS  /tmp/ccypRU8x.s 			page 70


 3778 000c 049B     		ldr	r3, [sp, #16]
 3779 000e 03F13804 		add	r4, r3, #56
 3780 0012 1223     		movs	r3, #18
 3781 0014 0093     		str	r3, [sp]
 3782 0016 0598     		ldr	r0, [sp, #20]
 3783 0018 1146     		mov	r1, r2
 3784 001a 039A     		ldr	r2, [sp, #12]
 3785 001c 2346     		mov	r3, r4
 3786 001e FFF7FEFF 		bl	_ZN3r2p4Node9subscribeERNS_15LocalSubscriberEPKcPNS_7MessageEj
 3787 0022 0346     		mov	r3, r0
 3788              		.loc 12 136 0
 3789 0024 1846     		mov	r0, r3
 3790 0026 06B0     		add	sp, sp, #24
 3791              		.cfi_def_cfa_offset 8
 3792              		@ sp needed
 3793 0028 10BD     		pop	{r4, pc}
 3794              		.cfi_endproc
 3795              	.LFE654:
 3796              		.size	_ZN3r2p4Node9subscribeINS_12ProximityMsgELj5EEEbRNS_10SubscriberIT_XT0_EEEPKc, .-_ZN3r2p4Nod
 3797 002a 00BFAFF3 		.section	.text._ZN3r2p16SubscriberExtBufINS_12ProximityMsgEE5fetchERPS1_,"axG",%progbits,_ZN3r2p16
 3797      0080
 3798              		.align	2
 3799              		.p2align 4,,15
 3800              		.weak	_ZN3r2p16SubscriberExtBufINS_12ProximityMsgEE5fetchERPS1_
 3801              		.thumb
 3802              		.thumb_func
 3803              		.type	_ZN3r2p16SubscriberExtBufINS_12ProximityMsgEE5fetchERPS1_, %function
 3804              	_ZN3r2p16SubscriberExtBufINS_12ProximityMsgEE5fetchERPS1_:
 3805              	.LFB655:
 3806              		.loc 21 31 0
 3807              		.cfi_startproc
 3808              		@ args = 0, pretend = 0, frame = 8
 3809              		@ frame_needed = 0, uses_anonymous_args = 0
 3810 0000 00B5     		push	{lr}
 3811              		.cfi_def_cfa_offset 4
 3812              		.cfi_offset 14, -4
 3813 0002 83B0     		sub	sp, sp, #12
 3814              		.cfi_def_cfa_offset 16
 3815 0004 0190     		str	r0, [sp, #4]
 3816 0006 0091     		str	r1, [sp]
 3817              		.loc 21 34 0
 3818 0008 019B     		ldr	r3, [sp, #4]
 3819 000a 1846     		mov	r0, r3
 3820 000c 0099     		ldr	r1, [sp]
 3821 000e FFF7FEFF 		bl	_ZN3r2p15LocalSubscriber5fetchERPNS_7MessageE
 3822 0012 0346     		mov	r3, r0
 3823              		.loc 21 35 0
 3824 0014 1846     		mov	r0, r3
 3825 0016 03B0     		add	sp, sp, #12
 3826              		.cfi_def_cfa_offset 4
 3827              		@ sp needed
 3828 0018 5DF804FB 		ldr	pc, [sp], #4
 3829              		.cfi_endproc
 3830              	.LFE655:
 3831              		.size	_ZN3r2p16SubscriberExtBufINS_12ProximityMsgEE5fetchERPS1_, .-_ZN3r2p16SubscriberExtBufINS_12
 3832 001c AFF30080 		.section	.text._ZN3r2p16SubscriberExtBufINS_12ProximityMsgEE7releaseERS1_,"axG",%progbits,_ZN3r2p1
 3833              		.align	2
ARM GAS  /tmp/ccypRU8x.s 			page 71


 3834              		.p2align 4,,15
 3835              		.weak	_ZN3r2p16SubscriberExtBufINS_12ProximityMsgEE7releaseERS1_
 3836              		.thumb
 3837              		.thumb_func
 3838              		.type	_ZN3r2p16SubscriberExtBufINS_12ProximityMsgEE7releaseERS1_, %function
 3839              	_ZN3r2p16SubscriberExtBufINS_12ProximityMsgEE7releaseERS1_:
 3840              	.LFB656:
 3841              		.loc 21 57 0
 3842              		.cfi_startproc
 3843              		@ args = 0, pretend = 0, frame = 8
 3844              		@ frame_needed = 0, uses_anonymous_args = 0
 3845 0000 00B5     		push	{lr}
 3846              		.cfi_def_cfa_offset 4
 3847              		.cfi_offset 14, -4
 3848 0002 83B0     		sub	sp, sp, #12
 3849              		.cfi_def_cfa_offset 16
 3850 0004 0190     		str	r0, [sp, #4]
 3851 0006 0091     		str	r1, [sp]
 3852              		.loc 21 60 0
 3853 0008 019A     		ldr	r2, [sp, #4]
 3854 000a 009B     		ldr	r3, [sp]
 3855 000c 1046     		mov	r0, r2
 3856 000e 1946     		mov	r1, r3
 3857 0010 FFF7FEFF 		bl	_ZN3r2p14BaseSubscriber7releaseERNS_7MessageE
 3858 0014 0346     		mov	r3, r0
 3859              		.loc 21 61 0
 3860 0016 1846     		mov	r0, r3
 3861 0018 03B0     		add	sp, sp, #12
 3862              		.cfi_def_cfa_offset 4
 3863              		@ sp needed
 3864 001a 5DF804FB 		ldr	pc, [sp], #4
 3865              		.cfi_endproc
 3866              	.LFE656:
 3867              		.size	_ZN3r2p16SubscriberExtBufINS_12ProximityMsgEE7releaseERS1_, .-_ZN3r2p16SubscriberExtBufINS_1
 3868 001e 00BF     		.section	.text._ZN3r2p4Node9advertiseINS_9PIDCfgMsgEEEbRNS_9PublisherIT_EEPKcRKNS_4TimeE,"axG",%pr
 3869              		.align	2
 3870              		.p2align 4,,15
 3871              		.weak	_ZN3r2p4Node9advertiseINS_9PIDCfgMsgEEEbRNS_9PublisherIT_EEPKcRKNS_4TimeE
 3872              		.thumb
 3873              		.thumb_func
 3874              		.type	_ZN3r2p4Node9advertiseINS_9PIDCfgMsgEEEbRNS_9PublisherIT_EEPKcRKNS_4TimeE, %function
 3875              	_ZN3r2p4Node9advertiseINS_9PIDCfgMsgEEEbRNS_9PublisherIT_EEPKcRKNS_4TimeE:
 3876              	.LFB657:
 3877              		.loc 12 117 0
 3878              		.cfi_startproc
 3879              		@ args = 0, pretend = 0, frame = 16
 3880              		@ frame_needed = 0, uses_anonymous_args = 0
 3881 0000 00B5     		push	{lr}
 3882              		.cfi_def_cfa_offset 4
 3883              		.cfi_offset 14, -4
 3884 0002 87B0     		sub	sp, sp, #28
 3885              		.cfi_def_cfa_offset 32
 3886 0004 0590     		str	r0, [sp, #20]
 3887 0006 0491     		str	r1, [sp, #16]
 3888 0008 0392     		str	r2, [sp, #12]
 3889 000a 0293     		str	r3, [sp, #8]
 3890              		.loc 12 120 0
ARM GAS  /tmp/ccypRU8x.s 			page 72


 3891 000c 049A     		ldr	r2, [sp, #16]
 3892 000e 0E23     		movs	r3, #14
 3893 0010 0093     		str	r3, [sp]
 3894 0012 0598     		ldr	r0, [sp, #20]
 3895 0014 1146     		mov	r1, r2
 3896 0016 039A     		ldr	r2, [sp, #12]
 3897 0018 029B     		ldr	r3, [sp, #8]
 3898 001a FFF7FEFF 		bl	_ZN3r2p4Node9advertiseERNS_14LocalPublisherEPKcRKNS_4TimeEj
 3899 001e 0346     		mov	r3, r0
 3900              		.loc 12 121 0
 3901 0020 1846     		mov	r0, r3
 3902 0022 07B0     		add	sp, sp, #28
 3903              		.cfi_def_cfa_offset 4
 3904              		@ sp needed
 3905 0024 5DF804FB 		ldr	pc, [sp], #4
 3906              		.cfi_endproc
 3907              	.LFE657:
 3908              		.size	_ZN3r2p4Node9advertiseINS_9PIDCfgMsgEEEbRNS_9PublisherIT_EEPKcRKNS_4TimeE, .-_ZN3r2p4Node9ad
 3909 0028 AFF30080 		.section	.text._ZN3r2p9PublisherINS_9PIDCfgMsgEE5allocERPS1_,"axG",%progbits,_ZN3r2p9PublisherINS_
 3909      AFF30080 
 3910              		.align	2
 3911              		.p2align 4,,15
 3912              		.weak	_ZN3r2p9PublisherINS_9PIDCfgMsgEE5allocERPS1_
 3913              		.thumb
 3914              		.thumb_func
 3915              		.type	_ZN3r2p9PublisherINS_9PIDCfgMsgEE5allocERPS1_, %function
 3916              	_ZN3r2p9PublisherINS_9PIDCfgMsgEE5allocERPS1_:
 3917              	.LFB658:
 3918              		.loc 17 25 0
 3919              		.cfi_startproc
 3920              		@ args = 0, pretend = 0, frame = 8
 3921              		@ frame_needed = 0, uses_anonymous_args = 0
 3922 0000 00B5     		push	{lr}
 3923              		.cfi_def_cfa_offset 4
 3924              		.cfi_offset 14, -4
 3925 0002 83B0     		sub	sp, sp, #12
 3926              		.cfi_def_cfa_offset 16
 3927 0004 0190     		str	r0, [sp, #4]
 3928 0006 0091     		str	r1, [sp]
 3929              		.loc 17 28 0
 3930 0008 019B     		ldr	r3, [sp, #4]
 3931 000a 1846     		mov	r0, r3
 3932 000c 0099     		ldr	r1, [sp]
 3933 000e FFF7FEFF 		bl	_ZN3r2p13BasePublisher5allocERPNS_7MessageE
 3934 0012 0346     		mov	r3, r0
 3935              		.loc 17 29 0
 3936 0014 1846     		mov	r0, r3
 3937 0016 03B0     		add	sp, sp, #12
 3938              		.cfi_def_cfa_offset 4
 3939              		@ sp needed
 3940 0018 5DF804FB 		ldr	pc, [sp], #4
 3941              		.cfi_endproc
 3942              	.LFE658:
 3943              		.size	_ZN3r2p9PublisherINS_9PIDCfgMsgEE5allocERPS1_, .-_ZN3r2p9PublisherINS_9PIDCfgMsgEE5allocERPS
 3944 001c AFF30080 		.section	.text._ZN3r2p9PublisherINS_9PIDCfgMsgEE7publishERS1_,"axG",%progbits,_ZN3r2p9PublisherINS
 3945              		.align	2
 3946              		.p2align 4,,15
ARM GAS  /tmp/ccypRU8x.s 			page 73


 3947              		.weak	_ZN3r2p9PublisherINS_9PIDCfgMsgEE7publishERS1_
 3948              		.thumb
 3949              		.thumb_func
 3950              		.type	_ZN3r2p9PublisherINS_9PIDCfgMsgEE7publishERS1_, %function
 3951              	_ZN3r2p9PublisherINS_9PIDCfgMsgEE7publishERS1_:
 3952              	.LFB659:
 3953              		.loc 17 33 0
 3954              		.cfi_startproc
 3955              		@ args = 0, pretend = 0, frame = 8
 3956              		@ frame_needed = 0, uses_anonymous_args = 0
 3957 0000 00B5     		push	{lr}
 3958              		.cfi_def_cfa_offset 4
 3959              		.cfi_offset 14, -4
 3960 0002 83B0     		sub	sp, sp, #12
 3961              		.cfi_def_cfa_offset 16
 3962 0004 0190     		str	r0, [sp, #4]
 3963 0006 0091     		str	r1, [sp]
 3964              		.loc 17 36 0
 3965 0008 019A     		ldr	r2, [sp, #4]
 3966 000a 009B     		ldr	r3, [sp]
 3967 000c 1046     		mov	r0, r2
 3968 000e 1946     		mov	r1, r3
 3969 0010 FFF7FEFF 		bl	_ZN3r2p13BasePublisher7publishERNS_7MessageE
 3970 0014 0346     		mov	r3, r0
 3971              		.loc 17 37 0
 3972 0016 1846     		mov	r0, r3
 3973 0018 03B0     		add	sp, sp, #12
 3974              		.cfi_def_cfa_offset 4
 3975              		@ sp needed
 3976 001a 5DF804FB 		ldr	pc, [sp], #4
 3977              		.cfi_endproc
 3978              	.LFE659:
 3979              		.size	_ZN3r2p9PublisherINS_9PIDCfgMsgEE7publishERS1_, .-_ZN3r2p9PublisherINS_9PIDCfgMsgEE7publishE
 3980 001e 00BF     		.section	.text._ZN3r2p16SubscriberExtBufINS_7PixyMsgEEC2EPPS1_jPFbRKS1_E,"axG",%progbits,_ZN3r2p16
 3981              		.align	2
 3982              		.p2align 4,,15
 3983              		.weak	_ZN3r2p16SubscriberExtBufINS_7PixyMsgEEC2EPPS1_jPFbRKS1_E
 3984              		.thumb
 3985              		.thumb_func
 3986              		.type	_ZN3r2p16SubscriberExtBufINS_7PixyMsgEEC2EPPS1_jPFbRKS1_E, %function
 3987              	_ZN3r2p16SubscriberExtBufINS_7PixyMsgEEC2EPPS1_jPFbRKS1_E:
 3988              	.LFB663:
 3989              		.loc 21 65 0
 3990              		.cfi_startproc
 3991              		@ args = 0, pretend = 0, frame = 16
 3992              		@ frame_needed = 0, uses_anonymous_args = 0
 3993 0000 00B5     		push	{lr}
 3994              		.cfi_def_cfa_offset 4
 3995              		.cfi_offset 14, -4
 3996 0002 85B0     		sub	sp, sp, #20
 3997              		.cfi_def_cfa_offset 24
 3998 0004 0390     		str	r0, [sp, #12]
 3999 0006 0291     		str	r1, [sp, #8]
 4000 0008 0192     		str	r2, [sp, #4]
 4001 000a 0093     		str	r3, [sp]
 4002              	.LBB85:
 4003              		.loc 21 69 0
ARM GAS  /tmp/ccypRU8x.s 			page 74


 4004 000c 039B     		ldr	r3, [sp, #12]
 4005 000e 1846     		mov	r0, r3
 4006 0010 0299     		ldr	r1, [sp, #8]
 4007 0012 019A     		ldr	r2, [sp, #4]
 4008 0014 009B     		ldr	r3, [sp]
 4009 0016 FFF7FEFF 		bl	_ZN3r2p15LocalSubscriberC2EPPNS_7MessageEjPFbRKS1_E
 4010 001a 039B     		ldr	r3, [sp, #12]
 4011 001c 034A     		ldr	r2, .L235
 4012 001e 1A60     		str	r2, [r3]
 4013              	.LBE85:
 4014              		.loc 21 72 0
 4015 0020 039B     		ldr	r3, [sp, #12]
 4016 0022 1846     		mov	r0, r3
 4017 0024 05B0     		add	sp, sp, #20
 4018              		.cfi_def_cfa_offset 4
 4019              		@ sp needed
 4020 0026 5DF804FB 		ldr	pc, [sp], #4
 4021              	.L236:
 4022 002a 00BF     		.align	2
 4023              	.L235:
 4024 002c 08000000 		.word	_ZTVN3r2p16SubscriberExtBufINS_7PixyMsgEEE+8
 4025              		.cfi_endproc
 4026              	.LFE663:
 4027              		.size	_ZN3r2p16SubscriberExtBufINS_7PixyMsgEEC2EPPS1_jPFbRKS1_E, .-_ZN3r2p16SubscriberExtBufINS_7P
 4028              		.weak	_ZN3r2p16SubscriberExtBufINS_7PixyMsgEEC1EPPS1_jPFbRKS1_E
 4029              		.thumb_set _ZN3r2p16SubscriberExtBufINS_7PixyMsgEEC1EPPS1_jPFbRKS1_E,_ZN3r2p16SubscriberExtBufINS_
 4030              		.section	.text._ZN3r2p16SubscriberExtBufINS_7PixyMsgEED2Ev,"axG",%progbits,_ZN3r2p16SubscriberExtB
 4031              		.align	2
 4032              		.p2align 4,,15
 4033              		.weak	_ZN3r2p16SubscriberExtBufINS_7PixyMsgEED2Ev
 4034              		.thumb
 4035              		.thumb_func
 4036              		.type	_ZN3r2p16SubscriberExtBufINS_7PixyMsgEED2Ev, %function
 4037              	_ZN3r2p16SubscriberExtBufINS_7PixyMsgEED2Ev:
 4038              	.LFB666:
 4039              		.loc 21 76 0
 4040              		.cfi_startproc
 4041              		@ args = 0, pretend = 0, frame = 8
 4042              		@ frame_needed = 0, uses_anonymous_args = 0
 4043 0000 00B5     		push	{lr}
 4044              		.cfi_def_cfa_offset 4
 4045              		.cfi_offset 14, -4
 4046 0002 83B0     		sub	sp, sp, #12
 4047              		.cfi_def_cfa_offset 16
 4048 0004 0190     		str	r0, [sp, #4]
 4049              	.LBB86:
 4050              		.loc 21 79 0
 4051 0006 019B     		ldr	r3, [sp, #4]
 4052 0008 084A     		ldr	r2, .L241
 4053 000a 1A60     		str	r2, [r3]
 4054 000c 019B     		ldr	r3, [sp, #4]
 4055 000e 1846     		mov	r0, r3
 4056 0010 FFF7FEFF 		bl	_ZN3r2p15LocalSubscriberD2Ev
 4057              	.LBE86:
 4058 0014 0023     		movs	r3, #0
 4059 0016 002B     		cmp	r3, #0
 4060 0018 02D0     		beq	.L239
ARM GAS  /tmp/ccypRU8x.s 			page 75


 4061              		.loc 21 79 0 is_stmt 0 discriminator 2
 4062 001a 0198     		ldr	r0, [sp, #4]
 4063 001c FFF7FEFF 		bl	_ZdlPv
 4064              	.L239:
 4065              		.loc 21 79 0 discriminator 4
 4066 0020 019B     		ldr	r3, [sp, #4]
 4067 0022 1846     		mov	r0, r3
 4068 0024 03B0     		add	sp, sp, #12
 4069              		.cfi_def_cfa_offset 4
 4070              		@ sp needed
 4071 0026 5DF804FB 		ldr	pc, [sp], #4
 4072              	.L242:
 4073 002a 00BF     		.align	2
 4074              	.L241:
 4075 002c 08000000 		.word	_ZTVN3r2p16SubscriberExtBufINS_7PixyMsgEEE+8
 4076              		.cfi_endproc
 4077              	.LFE666:
 4078              		.size	_ZN3r2p16SubscriberExtBufINS_7PixyMsgEED2Ev, .-_ZN3r2p16SubscriberExtBufINS_7PixyMsgEED2Ev
 4079              		.weak	_ZN3r2p16SubscriberExtBufINS_7PixyMsgEED1Ev
 4080              		.thumb_set _ZN3r2p16SubscriberExtBufINS_7PixyMsgEED1Ev,_ZN3r2p16SubscriberExtBufINS_7PixyMsgEED2Ev
 4081              		.section	.text._ZN3r2p16SubscriberExtBufINS_7PixyMsgEED0Ev,"axG",%progbits,_ZN3r2p16SubscriberExtB
 4082              		.align	2
 4083              		.p2align 4,,15
 4084              		.weak	_ZN3r2p16SubscriberExtBufINS_7PixyMsgEED0Ev
 4085              		.thumb
 4086              		.thumb_func
 4087              		.type	_ZN3r2p16SubscriberExtBufINS_7PixyMsgEED0Ev, %function
 4088              	_ZN3r2p16SubscriberExtBufINS_7PixyMsgEED0Ev:
 4089              	.LFB668:
 4090              		.loc 21 76 0 is_stmt 1
 4091              		.cfi_startproc
 4092              		@ args = 0, pretend = 0, frame = 8
 4093              		@ frame_needed = 0, uses_anonymous_args = 0
 4094 0000 00B5     		push	{lr}
 4095              		.cfi_def_cfa_offset 4
 4096              		.cfi_offset 14, -4
 4097 0002 83B0     		sub	sp, sp, #12
 4098              		.cfi_def_cfa_offset 16
 4099 0004 0190     		str	r0, [sp, #4]
 4100              		.loc 21 79 0
 4101 0006 0198     		ldr	r0, [sp, #4]
 4102 0008 FFF7FEFF 		bl	_ZN3r2p16SubscriberExtBufINS_7PixyMsgEED1Ev
 4103 000c 0198     		ldr	r0, [sp, #4]
 4104 000e FFF7FEFF 		bl	_ZdlPv
 4105 0012 019B     		ldr	r3, [sp, #4]
 4106 0014 1846     		mov	r0, r3
 4107 0016 03B0     		add	sp, sp, #12
 4108              		.cfi_def_cfa_offset 4
 4109              		@ sp needed
 4110 0018 5DF804FB 		ldr	pc, [sp], #4
 4111              		.cfi_endproc
 4112              	.LFE668:
 4113              		.size	_ZN3r2p16SubscriberExtBufINS_7PixyMsgEED0Ev, .-_ZN3r2p16SubscriberExtBufINS_7PixyMsgEED0Ev
 4114 001c AFF30080 		.section	.text._ZN3r2p16SubscriberExtBufINS_12ProximityMsgEEC2EPPS1_jPFbRKS1_E,"axG",%progbits,_ZN
 4115              		.align	2
 4116              		.p2align 4,,15
 4117              		.weak	_ZN3r2p16SubscriberExtBufINS_12ProximityMsgEEC2EPPS1_jPFbRKS1_E
ARM GAS  /tmp/ccypRU8x.s 			page 76


 4118              		.thumb
 4119              		.thumb_func
 4120              		.type	_ZN3r2p16SubscriberExtBufINS_12ProximityMsgEEC2EPPS1_jPFbRKS1_E, %function
 4121              	_ZN3r2p16SubscriberExtBufINS_12ProximityMsgEEC2EPPS1_jPFbRKS1_E:
 4122              	.LFB670:
 4123              		.loc 21 65 0
 4124              		.cfi_startproc
 4125              		@ args = 0, pretend = 0, frame = 16
 4126              		@ frame_needed = 0, uses_anonymous_args = 0
 4127 0000 00B5     		push	{lr}
 4128              		.cfi_def_cfa_offset 4
 4129              		.cfi_offset 14, -4
 4130 0002 85B0     		sub	sp, sp, #20
 4131              		.cfi_def_cfa_offset 24
 4132 0004 0390     		str	r0, [sp, #12]
 4133 0006 0291     		str	r1, [sp, #8]
 4134 0008 0192     		str	r2, [sp, #4]
 4135 000a 0093     		str	r3, [sp]
 4136              	.LBB87:
 4137              		.loc 21 69 0
 4138 000c 039B     		ldr	r3, [sp, #12]
 4139 000e 1846     		mov	r0, r3
 4140 0010 0299     		ldr	r1, [sp, #8]
 4141 0012 019A     		ldr	r2, [sp, #4]
 4142 0014 009B     		ldr	r3, [sp]
 4143 0016 FFF7FEFF 		bl	_ZN3r2p15LocalSubscriberC2EPPNS_7MessageEjPFbRKS1_E
 4144 001a 039B     		ldr	r3, [sp, #12]
 4145 001c 034A     		ldr	r2, .L249
 4146 001e 1A60     		str	r2, [r3]
 4147              	.LBE87:
 4148              		.loc 21 72 0
 4149 0020 039B     		ldr	r3, [sp, #12]
 4150 0022 1846     		mov	r0, r3
 4151 0024 05B0     		add	sp, sp, #20
 4152              		.cfi_def_cfa_offset 4
 4153              		@ sp needed
 4154 0026 5DF804FB 		ldr	pc, [sp], #4
 4155              	.L250:
 4156 002a 00BF     		.align	2
 4157              	.L249:
 4158 002c 08000000 		.word	_ZTVN3r2p16SubscriberExtBufINS_12ProximityMsgEEE+8
 4159              		.cfi_endproc
 4160              	.LFE670:
 4161              		.size	_ZN3r2p16SubscriberExtBufINS_12ProximityMsgEEC2EPPS1_jPFbRKS1_E, .-_ZN3r2p16SubscriberExtBuf
 4162              		.weak	_ZN3r2p16SubscriberExtBufINS_12ProximityMsgEEC1EPPS1_jPFbRKS1_E
 4163              		.thumb_set _ZN3r2p16SubscriberExtBufINS_12ProximityMsgEEC1EPPS1_jPFbRKS1_E,_ZN3r2p16SubscriberExtB
 4164              		.section	.text._ZN3r2p16SubscriberExtBufINS_12ProximityMsgEED2Ev,"axG",%progbits,_ZN3r2p16Subscrib
 4165              		.align	2
 4166              		.p2align 4,,15
 4167              		.weak	_ZN3r2p16SubscriberExtBufINS_12ProximityMsgEED2Ev
 4168              		.thumb
 4169              		.thumb_func
 4170              		.type	_ZN3r2p16SubscriberExtBufINS_12ProximityMsgEED2Ev, %function
 4171              	_ZN3r2p16SubscriberExtBufINS_12ProximityMsgEED2Ev:
 4172              	.LFB673:
 4173              		.loc 21 76 0
 4174              		.cfi_startproc
ARM GAS  /tmp/ccypRU8x.s 			page 77


 4175              		@ args = 0, pretend = 0, frame = 8
 4176              		@ frame_needed = 0, uses_anonymous_args = 0
 4177 0000 00B5     		push	{lr}
 4178              		.cfi_def_cfa_offset 4
 4179              		.cfi_offset 14, -4
 4180 0002 83B0     		sub	sp, sp, #12
 4181              		.cfi_def_cfa_offset 16
 4182 0004 0190     		str	r0, [sp, #4]
 4183              	.LBB88:
 4184              		.loc 21 79 0
 4185 0006 019B     		ldr	r3, [sp, #4]
 4186 0008 084A     		ldr	r2, .L255
 4187 000a 1A60     		str	r2, [r3]
 4188 000c 019B     		ldr	r3, [sp, #4]
 4189 000e 1846     		mov	r0, r3
 4190 0010 FFF7FEFF 		bl	_ZN3r2p15LocalSubscriberD2Ev
 4191              	.LBE88:
 4192 0014 0023     		movs	r3, #0
 4193 0016 002B     		cmp	r3, #0
 4194 0018 02D0     		beq	.L253
 4195              		.loc 21 79 0 is_stmt 0 discriminator 2
 4196 001a 0198     		ldr	r0, [sp, #4]
 4197 001c FFF7FEFF 		bl	_ZdlPv
 4198              	.L253:
 4199              		.loc 21 79 0 discriminator 4
 4200 0020 019B     		ldr	r3, [sp, #4]
 4201 0022 1846     		mov	r0, r3
 4202 0024 03B0     		add	sp, sp, #12
 4203              		.cfi_def_cfa_offset 4
 4204              		@ sp needed
 4205 0026 5DF804FB 		ldr	pc, [sp], #4
 4206              	.L256:
 4207 002a 00BF     		.align	2
 4208              	.L255:
 4209 002c 08000000 		.word	_ZTVN3r2p16SubscriberExtBufINS_12ProximityMsgEEE+8
 4210              		.cfi_endproc
 4211              	.LFE673:
 4212              		.size	_ZN3r2p16SubscriberExtBufINS_12ProximityMsgEED2Ev, .-_ZN3r2p16SubscriberExtBufINS_12Proximit
 4213              		.weak	_ZN3r2p16SubscriberExtBufINS_12ProximityMsgEED1Ev
 4214              		.thumb_set _ZN3r2p16SubscriberExtBufINS_12ProximityMsgEED1Ev,_ZN3r2p16SubscriberExtBufINS_12Proxim
 4215              		.section	.text._ZN3r2p16SubscriberExtBufINS_12ProximityMsgEED0Ev,"axG",%progbits,_ZN3r2p16Subscrib
 4216              		.align	2
 4217              		.p2align 4,,15
 4218              		.weak	_ZN3r2p16SubscriberExtBufINS_12ProximityMsgEED0Ev
 4219              		.thumb
 4220              		.thumb_func
 4221              		.type	_ZN3r2p16SubscriberExtBufINS_12ProximityMsgEED0Ev, %function
 4222              	_ZN3r2p16SubscriberExtBufINS_12ProximityMsgEED0Ev:
 4223              	.LFB675:
 4224              		.loc 21 76 0 is_stmt 1
 4225              		.cfi_startproc
 4226              		@ args = 0, pretend = 0, frame = 8
 4227              		@ frame_needed = 0, uses_anonymous_args = 0
 4228 0000 00B5     		push	{lr}
 4229              		.cfi_def_cfa_offset 4
 4230              		.cfi_offset 14, -4
 4231 0002 83B0     		sub	sp, sp, #12
ARM GAS  /tmp/ccypRU8x.s 			page 78


 4232              		.cfi_def_cfa_offset 16
 4233 0004 0190     		str	r0, [sp, #4]
 4234              		.loc 21 79 0
 4235 0006 0198     		ldr	r0, [sp, #4]
 4236 0008 FFF7FEFF 		bl	_ZN3r2p16SubscriberExtBufINS_12ProximityMsgEED1Ev
 4237 000c 0198     		ldr	r0, [sp, #4]
 4238 000e FFF7FEFF 		bl	_ZdlPv
 4239 0012 019B     		ldr	r3, [sp, #4]
 4240 0014 1846     		mov	r0, r3
 4241 0016 03B0     		add	sp, sp, #12
 4242              		.cfi_def_cfa_offset 4
 4243              		@ sp needed
 4244 0018 5DF804FB 		ldr	pc, [sp], #4
 4245              		.cfi_endproc
 4246              	.LFE675:
 4247              		.size	_ZN3r2p16SubscriberExtBufINS_12ProximityMsgEED0Ev, .-_ZN3r2p16SubscriberExtBufINS_12Proximit
 4248              		.weak	_ZTVN3r2p10SubscriberINS_12ProximityMsgELj5EEE
 4249 001c AFF30080 		.section	.rodata._ZTVN3r2p10SubscriberINS_12ProximityMsgELj5EEE,"aG",%progbits,_ZTVN3r2p10Subscrib
 4250              		.align	3
 4251              		.type	_ZTVN3r2p10SubscriberINS_12ProximityMsgELj5EEE, %object
 4252              		.size	_ZTVN3r2p10SubscriberINS_12ProximityMsgELj5EEE, 36
 4253              	_ZTVN3r2p10SubscriberINS_12ProximityMsgELj5EEE:
 4254 0000 00000000 		.word	0
 4255 0004 00000000 		.word	0
 4256 0008 00000000 		.word	_ZNK3r2p15LocalSubscriber16get_queue_lengthEv
 4257 000c 00000000 		.word	_ZN3r2p15LocalSubscriber13notify_unsafeERNS_7MessageERKNS_4TimeE
 4258 0010 00000000 		.word	_ZN3r2p15LocalSubscriber12fetch_unsafeERPNS_7MessageERNS_4TimeE
 4259 0014 00000000 		.word	_ZN3r2p15LocalSubscriber6notifyERNS_7MessageERKNS_4TimeE
 4260 0018 00000000 		.word	_ZN3r2p15LocalSubscriber5fetchERPNS_7MessageERNS_4TimeE
 4261 001c 00000000 		.word	_ZN3r2p10SubscriberINS_12ProximityMsgELj5EED1Ev
 4262 0020 00000000 		.word	_ZN3r2p10SubscriberINS_12ProximityMsgELj5EED0Ev
 4263              		.weak	_ZTVN3r2p16SubscriberExtBufINS_12ProximityMsgEEE
 4264 0024 00000000 		.section	.rodata._ZTVN3r2p16SubscriberExtBufINS_12ProximityMsgEEE,"aG",%progbits,_ZTVN3r2p16Subscr
 4265              		.align	3
 4266              		.type	_ZTVN3r2p16SubscriberExtBufINS_12ProximityMsgEEE, %object
 4267              		.size	_ZTVN3r2p16SubscriberExtBufINS_12ProximityMsgEEE, 36
 4268              	_ZTVN3r2p16SubscriberExtBufINS_12ProximityMsgEEE:
 4269 0000 00000000 		.word	0
 4270 0004 00000000 		.word	0
 4271 0008 00000000 		.word	_ZNK3r2p15LocalSubscriber16get_queue_lengthEv
 4272 000c 00000000 		.word	_ZN3r2p15LocalSubscriber13notify_unsafeERNS_7MessageERKNS_4TimeE
 4273 0010 00000000 		.word	_ZN3r2p15LocalSubscriber12fetch_unsafeERPNS_7MessageERNS_4TimeE
 4274 0014 00000000 		.word	_ZN3r2p15LocalSubscriber6notifyERNS_7MessageERKNS_4TimeE
 4275 0018 00000000 		.word	_ZN3r2p15LocalSubscriber5fetchERPNS_7MessageERNS_4TimeE
 4276 001c 00000000 		.word	_ZN3r2p16SubscriberExtBufINS_12ProximityMsgEED1Ev
 4277 0020 00000000 		.word	_ZN3r2p16SubscriberExtBufINS_12ProximityMsgEED0Ev
 4278              		.weak	_ZTVN3r2p10SubscriberINS_7PixyMsgELj5EEE
 4279 0024 00000000 		.section	.rodata._ZTVN3r2p10SubscriberINS_7PixyMsgELj5EEE,"aG",%progbits,_ZTVN3r2p10SubscriberINS_
 4280              		.align	3
 4281              		.type	_ZTVN3r2p10SubscriberINS_7PixyMsgELj5EEE, %object
 4282              		.size	_ZTVN3r2p10SubscriberINS_7PixyMsgELj5EEE, 36
 4283              	_ZTVN3r2p10SubscriberINS_7PixyMsgELj5EEE:
 4284 0000 00000000 		.word	0
 4285 0004 00000000 		.word	0
 4286 0008 00000000 		.word	_ZNK3r2p15LocalSubscriber16get_queue_lengthEv
 4287 000c 00000000 		.word	_ZN3r2p15LocalSubscriber13notify_unsafeERNS_7MessageERKNS_4TimeE
 4288 0010 00000000 		.word	_ZN3r2p15LocalSubscriber12fetch_unsafeERPNS_7MessageERNS_4TimeE
ARM GAS  /tmp/ccypRU8x.s 			page 79


 4289 0014 00000000 		.word	_ZN3r2p15LocalSubscriber6notifyERNS_7MessageERKNS_4TimeE
 4290 0018 00000000 		.word	_ZN3r2p15LocalSubscriber5fetchERPNS_7MessageERNS_4TimeE
 4291 001c 00000000 		.word	_ZN3r2p10SubscriberINS_7PixyMsgELj5EED1Ev
 4292 0020 00000000 		.word	_ZN3r2p10SubscriberINS_7PixyMsgELj5EED0Ev
 4293              		.weak	_ZTVN3r2p16SubscriberExtBufINS_7PixyMsgEEE
 4294 0024 00000000 		.section	.rodata._ZTVN3r2p16SubscriberExtBufINS_7PixyMsgEEE,"aG",%progbits,_ZTVN3r2p16SubscriberEx
 4295              		.align	3
 4296              		.type	_ZTVN3r2p16SubscriberExtBufINS_7PixyMsgEEE, %object
 4297              		.size	_ZTVN3r2p16SubscriberExtBufINS_7PixyMsgEEE, 36
 4298              	_ZTVN3r2p16SubscriberExtBufINS_7PixyMsgEEE:
 4299 0000 00000000 		.word	0
 4300 0004 00000000 		.word	0
 4301 0008 00000000 		.word	_ZNK3r2p15LocalSubscriber16get_queue_lengthEv
 4302 000c 00000000 		.word	_ZN3r2p15LocalSubscriber13notify_unsafeERNS_7MessageERKNS_4TimeE
 4303 0010 00000000 		.word	_ZN3r2p15LocalSubscriber12fetch_unsafeERPNS_7MessageERNS_4TimeE
 4304 0014 00000000 		.word	_ZN3r2p15LocalSubscriber6notifyERNS_7MessageERKNS_4TimeE
 4305 0018 00000000 		.word	_ZN3r2p15LocalSubscriber5fetchERPNS_7MessageERNS_4TimeE
 4306 001c 00000000 		.word	_ZN3r2p16SubscriberExtBufINS_7PixyMsgEED1Ev
 4307 0020 00000000 		.word	_ZN3r2p16SubscriberExtBufINS_7PixyMsgEED0Ev
 4308              		.weak	_ZTVN3r2p9PublisherINS_9PIDCfgMsgEEE
 4309 0024 00000000 		.section	.rodata._ZTVN3r2p9PublisherINS_9PIDCfgMsgEEE,"aG",%progbits,_ZTVN3r2p9PublisherINS_9PIDCf
 4310              		.align	3
 4311              		.type	_ZTVN3r2p9PublisherINS_9PIDCfgMsgEEE, %object
 4312              		.size	_ZTVN3r2p9PublisherINS_9PIDCfgMsgEEE, 16
 4313              	_ZTVN3r2p9PublisherINS_9PIDCfgMsgEEE:
 4314 0000 00000000 		.word	0
 4315 0004 00000000 		.word	0
 4316 0008 00000000 		.word	_ZN3r2p9PublisherINS_9PIDCfgMsgEED1Ev
 4317 000c 00000000 		.word	_ZN3r2p9PublisherINS_9PIDCfgMsgEED0Ev
 4318              		.weak	_ZTVN3r2p9PublisherINS_9Speed3MsgEEE
 4319              		.section	.rodata._ZTVN3r2p9PublisherINS_9Speed3MsgEEE,"aG",%progbits,_ZTVN3r2p9PublisherINS_9Speed
 4320              		.align	3
 4321              		.type	_ZTVN3r2p9PublisherINS_9Speed3MsgEEE, %object
 4322              		.size	_ZTVN3r2p9PublisherINS_9Speed3MsgEEE, 16
 4323              	_ZTVN3r2p9PublisherINS_9Speed3MsgEEE:
 4324 0000 00000000 		.word	0
 4325 0004 00000000 		.word	0
 4326 0008 00000000 		.word	_ZN3r2p9PublisherINS_9Speed3MsgEED1Ev
 4327 000c 00000000 		.word	_ZN3r2p9PublisherINS_9Speed3MsgEED0Ev
 4328              		.section	.rodata
 4329 01ce 0000     		.align	2
 4330              	.LC30:
 4331 01d0 73706565 		.ascii	"speedpub\000"
 4331      64707562 
 4331      00
 4332              		.section	.text._Z41__static_initialization_and_destruction_0ii,"ax",%progbits
 4333              		.align	2
 4334              		.p2align 4,,15
 4335              		.thumb
 4336              		.thumb_func
 4337              		.type	_Z41__static_initialization_and_destruction_0ii, %function
 4338              	_Z41__static_initialization_and_destruction_0ii:
 4339              	.LFB678:
 4340              		.loc 15 473 0
 4341              		.cfi_startproc
 4342              		@ args = 0, pretend = 0, frame = 8
 4343              		@ frame_needed = 0, uses_anonymous_args = 0
ARM GAS  /tmp/ccypRU8x.s 			page 80


 4344 0000 00B5     		push	{lr}
 4345              		.cfi_def_cfa_offset 4
 4346              		.cfi_offset 14, -4
 4347 0002 83B0     		sub	sp, sp, #12
 4348              		.cfi_def_cfa_offset 16
 4349 0004 0190     		str	r0, [sp, #4]
 4350 0006 0091     		str	r1, [sp]
 4351              		.loc 15 473 0
 4352 0008 019B     		ldr	r3, [sp, #4]
 4353 000a 012B     		cmp	r3, #1
 4354 000c 4ED1     		bne	.L260
 4355              		.loc 15 473 0 is_stmt 0 discriminator 1
 4356 000e 009B     		ldr	r3, [sp]
 4357 0010 4FF6FF72 		movw	r2, #65535
 4358 0014 9342     		cmp	r3, r2
 4359 0016 49D1     		bne	.L260
 4360              		.loc 15 15 0 is_stmt 1
 4361 0018 2648     		ldr	r0, .L262
 4362 001a 2749     		ldr	r1, .L262+4
 4363 001c 0022     		movs	r2, #0
 4364 001e FFF7FEFF 		bl	_ZN3r2p4NodeC1EPKcb
 4365 0022 2448     		ldr	r0, .L262
 4366 0024 2549     		ldr	r1, .L262+8
 4367 0026 264A     		ldr	r2, .L262+12
 4368 0028 FFF7FEFF 		bl	__aeabi_atexit
 4369              		.loc 15 16 0
 4370 002c 2548     		ldr	r0, .L262+16
 4371 002e FFF7FEFF 		bl	_ZN3r2p9PublisherINS_9Speed3MsgEEC1Ev
 4372 0032 2448     		ldr	r0, .L262+16
 4373 0034 2449     		ldr	r1, .L262+20
 4374 0036 224A     		ldr	r2, .L262+12
 4375 0038 FFF7FEFF 		bl	__aeabi_atexit
 4376              		.loc 15 19 0
 4377 003c 2348     		ldr	r0, .L262+24
 4378 003e 2449     		ldr	r1, .L262+28
 4379 0040 0022     		movs	r2, #0
 4380 0042 FFF7FEFF 		bl	_ZN3r2p4NodeC1EPKcb
 4381 0046 2148     		ldr	r0, .L262+24
 4382 0048 1C49     		ldr	r1, .L262+8
 4383 004a 1D4A     		ldr	r2, .L262+12
 4384 004c FFF7FEFF 		bl	__aeabi_atexit
 4385              		.loc 15 20 0
 4386 0050 2048     		ldr	r0, .L262+32
 4387 0052 FFF7FEFF 		bl	_ZN3r2p9PublisherINS_9PIDCfgMsgEEC1Ev
 4388 0056 1F48     		ldr	r0, .L262+32
 4389 0058 1F49     		ldr	r1, .L262+36
 4390 005a 194A     		ldr	r2, .L262+12
 4391 005c FFF7FEFF 		bl	__aeabi_atexit
 4392              		.loc 15 23 0
 4393 0060 1E48     		ldr	r0, .L262+40
 4394 0062 1F49     		ldr	r1, .L262+44
 4395 0064 0022     		movs	r2, #0
 4396 0066 FFF7FEFF 		bl	_ZN3r2p4NodeC1EPKcb
 4397 006a 1C48     		ldr	r0, .L262+40
 4398 006c 1349     		ldr	r1, .L262+8
 4399 006e 144A     		ldr	r2, .L262+12
 4400 0070 FFF7FEFF 		bl	__aeabi_atexit
ARM GAS  /tmp/ccypRU8x.s 			page 81


 4401              		.loc 15 24 0
 4402 0074 1B48     		ldr	r0, .L262+48
 4403 0076 0021     		movs	r1, #0
 4404 0078 FFF7FEFF 		bl	_ZN3r2p10SubscriberINS_7PixyMsgELj5EEC1EPFbRKS1_E
 4405 007c 1948     		ldr	r0, .L262+48
 4406 007e 1A49     		ldr	r1, .L262+52
 4407 0080 0F4A     		ldr	r2, .L262+12
 4408 0082 FFF7FEFF 		bl	__aeabi_atexit
 4409              		.loc 15 41 0
 4410 0086 1948     		ldr	r0, .L262+56
 4411 0088 1949     		ldr	r1, .L262+60
 4412 008a 0022     		movs	r2, #0
 4413 008c FFF7FEFF 		bl	_ZN3r2p4NodeC1EPKcb
 4414 0090 1648     		ldr	r0, .L262+56
 4415 0092 0A49     		ldr	r1, .L262+8
 4416 0094 0A4A     		ldr	r2, .L262+12
 4417 0096 FFF7FEFF 		bl	__aeabi_atexit
 4418              		.loc 15 43 0
 4419 009a 1648     		ldr	r0, .L262+64
 4420 009c 0021     		movs	r1, #0
 4421 009e FFF7FEFF 		bl	_ZN3r2p10SubscriberINS_12ProximityMsgELj5EEC1EPFbRKS1_E
 4422 00a2 1448     		ldr	r0, .L262+64
 4423 00a4 1449     		ldr	r1, .L262+68
 4424 00a6 064A     		ldr	r2, .L262+12
 4425 00a8 FFF7FEFF 		bl	__aeabi_atexit
 4426              	.L260:
 4427              		.loc 15 473 0
 4428 00ac 03B0     		add	sp, sp, #12
 4429              		.cfi_def_cfa_offset 4
 4430              		@ sp needed
 4431 00ae 5DF804FB 		ldr	pc, [sp], #4
 4432              	.L263:
 4433 00b2 00BF     		.align	2
 4434              	.L262:
 4435 00b4 00000000 		.word	vel_node
 4436 00b8 D0010000 		.word	.LC30
 4437 00bc 00000000 		.word	_ZN3r2p4NodeD1Ev
 4438 00c0 00000000 		.word	__dso_handle
 4439 00c4 00000000 		.word	vel_pub
 4440 00c8 00000000 		.word	_ZN3r2p9PublisherINS_9Speed3MsgEED1Ev
 4441 00cc 00000000 		.word	pidcfg_node
 4442 00d0 C0010000 		.word	.LC28
 4443 00d4 00000000 		.word	pidcfg_pub
 4444 00d8 00000000 		.word	_ZN3r2p9PublisherINS_9PIDCfgMsgEED1Ev
 4445 00dc 00000000 		.word	pixy_node
 4446 00e0 80000000 		.word	.LC6
 4447 00e4 00000000 		.word	pixy_sub
 4448 00e8 00000000 		.word	_ZN3r2p10SubscriberINS_7PixyMsgELj5EED1Ev
 4449 00ec 00000000 		.word	proximity_node
 4450 00f0 F8000000 		.word	.LC14
 4451 00f4 00000000 		.word	proximity_sub
 4452 00f8 00000000 		.word	_ZN3r2p10SubscriberINS_12ProximityMsgELj5EED1Ev
 4453              		.cfi_endproc
 4454              	.LFE678:
 4455              		.size	_Z41__static_initialization_and_destruction_0ii, .-_Z41__static_initialization_and_destructi
 4456 00fc AFF30080 		.section	.rodata
 4457 01d9 000000   		.align	2
ARM GAS  /tmp/ccypRU8x.s 			page 82


 4458              	.LC31:
 4459 01dc 666F6C6C 		.ascii	"follow\000"
 4459      6F7700
 4460 01e3 00       		.align	2
 4461              	.LC32:
 4462 01e4 7200     		.ascii	"r\000"
 4463 01e6 0000     		.align	2
 4464              	.LC33:
 4465 01e8 7300     		.ascii	"s\000"
 4466 01ea 0000     		.align	2
 4467              	.LC34:
 4468 01ec 6500     		.ascii	"e\000"
 4469 01ee 0000     		.section	.rodata._ZL8commands,"a",%progbits
 4470              		.align	2
 4471              		.type	_ZL8commands, %object
 4472              		.size	_ZL8commands, 64
 4473              	_ZL8commands:
 4474 0000 DC010000 		.word	.LC31
 4475 0004 00000000 		.word	_ZL10cmd_followP20BaseSequentialStreamiPPc
 4476 0008 80000000 		.word	.LC6
 4477 000c 00000000 		.word	_ZL8cmd_pixyP20BaseSequentialStreamiPPc
 4478 0010 F8000000 		.word	.LC14
 4479 0014 00000000 		.word	_ZL13cmd_proximityP20BaseSequentialStreamiPPc
 4480 0018 E4010000 		.word	.LC32
 4481 001c 00000000 		.word	_ZL7cmd_runP20BaseSequentialStreamiPPc
 4482 0020 E8010000 		.word	.LC33
 4483 0024 00000000 		.word	_ZL8cmd_stopP20BaseSequentialStreamiPPc
 4484 0028 EC010000 		.word	.LC34
 4485 002c 00000000 		.word	_ZL7cmd_encP20BaseSequentialStreamiPPc
 4486 0030 C0010000 		.word	.LC28
 4487 0034 00000000 		.word	_ZL10cmd_pidcfgP20BaseSequentialStreamiPPc
 4488 0038 00000000 		.word	0
 4489 003c 00000000 		.word	0
 4490              		.section	.rodata._ZL13usb_shell_cfg,"a",%progbits
 4491              		.align	2
 4492              		.type	_ZL13usb_shell_cfg, %object
 4493              		.size	_ZL13usb_shell_cfg, 8
 4494              	_ZL13usb_shell_cfg:
 4495 0000 00000000 		.word	SDU1
 4496 0004 00000000 		.word	_ZL8commands
 4497              		.section	.text._ZN3r2p10SubscriberINS_12ProximityMsgELj5EED2Ev,"axG",%progbits,_ZN3r2p10Subscriber
 4498              		.align	2
 4499              		.p2align 4,,15
 4500              		.weak	_ZN3r2p10SubscriberINS_12ProximityMsgELj5EED2Ev
 4501              		.thumb
 4502              		.thumb_func
 4503              		.type	_ZN3r2p10SubscriberINS_12ProximityMsgELj5EED2Ev, %function
 4504              	_ZN3r2p10SubscriberINS_12ProximityMsgELj5EED2Ev:
 4505              	.LFB680:
 4506              		.loc 19 38 0
 4507              		.cfi_startproc
 4508              		@ args = 0, pretend = 0, frame = 8
 4509              		@ frame_needed = 0, uses_anonymous_args = 0
 4510 0000 00B5     		push	{lr}
 4511              		.cfi_def_cfa_offset 4
 4512              		.cfi_offset 14, -4
 4513 0002 83B0     		sub	sp, sp, #12
ARM GAS  /tmp/ccypRU8x.s 			page 83


 4514              		.cfi_def_cfa_offset 16
 4515 0004 0190     		str	r0, [sp, #4]
 4516              	.LBB89:
 4517              		.loc 19 38 0
 4518 0006 019B     		ldr	r3, [sp, #4]
 4519 0008 084A     		ldr	r2, .L268
 4520 000a 1A60     		str	r2, [r3]
 4521 000c 019B     		ldr	r3, [sp, #4]
 4522 000e 1846     		mov	r0, r3
 4523 0010 FFF7FEFF 		bl	_ZN3r2p16SubscriberExtBufINS_12ProximityMsgEED2Ev
 4524              	.LBE89:
 4525 0014 0023     		movs	r3, #0
 4526 0016 002B     		cmp	r3, #0
 4527 0018 02D0     		beq	.L266
 4528              		.loc 19 38 0 is_stmt 0 discriminator 2
 4529 001a 0198     		ldr	r0, [sp, #4]
 4530 001c FFF7FEFF 		bl	_ZdlPv
 4531              	.L266:
 4532              		.loc 19 38 0 discriminator 4
 4533 0020 019B     		ldr	r3, [sp, #4]
 4534 0022 1846     		mov	r0, r3
 4535 0024 03B0     		add	sp, sp, #12
 4536              		.cfi_def_cfa_offset 4
 4537              		@ sp needed
 4538 0026 5DF804FB 		ldr	pc, [sp], #4
 4539              	.L269:
 4540 002a 00BF     		.align	2
 4541              	.L268:
 4542 002c 08000000 		.word	_ZTVN3r2p10SubscriberINS_12ProximityMsgELj5EEE+8
 4543              		.cfi_endproc
 4544              	.LFE680:
 4545              		.size	_ZN3r2p10SubscriberINS_12ProximityMsgELj5EED2Ev, .-_ZN3r2p10SubscriberINS_12ProximityMsgELj5
 4546              		.weak	_ZN3r2p10SubscriberINS_12ProximityMsgELj5EED1Ev
 4547              		.thumb_set _ZN3r2p10SubscriberINS_12ProximityMsgELj5EED1Ev,_ZN3r2p10SubscriberINS_12ProximityMsgEL
 4548              		.section	.text._ZN3r2p10SubscriberINS_12ProximityMsgELj5EED0Ev,"axG",%progbits,_ZN3r2p10Subscriber
 4549              		.align	2
 4550              		.p2align 4,,15
 4551              		.weak	_ZN3r2p10SubscriberINS_12ProximityMsgELj5EED0Ev
 4552              		.thumb
 4553              		.thumb_func
 4554              		.type	_ZN3r2p10SubscriberINS_12ProximityMsgELj5EED0Ev, %function
 4555              	_ZN3r2p10SubscriberINS_12ProximityMsgELj5EED0Ev:
 4556              	.LFB682:
 4557              		.loc 19 38 0 is_stmt 1
 4558              		.cfi_startproc
 4559              		@ args = 0, pretend = 0, frame = 8
 4560              		@ frame_needed = 0, uses_anonymous_args = 0
 4561 0000 00B5     		push	{lr}
 4562              		.cfi_def_cfa_offset 4
 4563              		.cfi_offset 14, -4
 4564 0002 83B0     		sub	sp, sp, #12
 4565              		.cfi_def_cfa_offset 16
 4566 0004 0190     		str	r0, [sp, #4]
 4567              		.loc 19 38 0
 4568 0006 0198     		ldr	r0, [sp, #4]
 4569 0008 FFF7FEFF 		bl	_ZN3r2p10SubscriberINS_12ProximityMsgELj5EED1Ev
 4570 000c 0198     		ldr	r0, [sp, #4]
ARM GAS  /tmp/ccypRU8x.s 			page 84


 4571 000e FFF7FEFF 		bl	_ZdlPv
 4572 0012 019B     		ldr	r3, [sp, #4]
 4573 0014 1846     		mov	r0, r3
 4574 0016 03B0     		add	sp, sp, #12
 4575              		.cfi_def_cfa_offset 4
 4576              		@ sp needed
 4577 0018 5DF804FB 		ldr	pc, [sp], #4
 4578              		.cfi_endproc
 4579              	.LFE682:
 4580              		.size	_ZN3r2p10SubscriberINS_12ProximityMsgELj5EED0Ev, .-_ZN3r2p10SubscriberINS_12ProximityMsgELj5
 4581 001c AFF30080 		.section	.text._ZN3r2p10SubscriberINS_7PixyMsgELj5EED2Ev,"axG",%progbits,_ZN3r2p10SubscriberINS_7P
 4582              		.align	2
 4583              		.p2align 4,,15
 4584              		.weak	_ZN3r2p10SubscriberINS_7PixyMsgELj5EED2Ev
 4585              		.thumb
 4586              		.thumb_func
 4587              		.type	_ZN3r2p10SubscriberINS_7PixyMsgELj5EED2Ev, %function
 4588              	_ZN3r2p10SubscriberINS_7PixyMsgELj5EED2Ev:
 4589              	.LFB684:
 4590              		.loc 19 38 0
 4591              		.cfi_startproc
 4592              		@ args = 0, pretend = 0, frame = 8
 4593              		@ frame_needed = 0, uses_anonymous_args = 0
 4594 0000 00B5     		push	{lr}
 4595              		.cfi_def_cfa_offset 4
 4596              		.cfi_offset 14, -4
 4597 0002 83B0     		sub	sp, sp, #12
 4598              		.cfi_def_cfa_offset 16
 4599 0004 0190     		str	r0, [sp, #4]
 4600              	.LBB90:
 4601              		.loc 19 38 0
 4602 0006 019B     		ldr	r3, [sp, #4]
 4603 0008 084A     		ldr	r2, .L277
 4604 000a 1A60     		str	r2, [r3]
 4605 000c 019B     		ldr	r3, [sp, #4]
 4606 000e 1846     		mov	r0, r3
 4607 0010 FFF7FEFF 		bl	_ZN3r2p16SubscriberExtBufINS_7PixyMsgEED2Ev
 4608              	.LBE90:
 4609 0014 0023     		movs	r3, #0
 4610 0016 002B     		cmp	r3, #0
 4611 0018 02D0     		beq	.L275
 4612              		.loc 19 38 0 is_stmt 0 discriminator 2
 4613 001a 0198     		ldr	r0, [sp, #4]
 4614 001c FFF7FEFF 		bl	_ZdlPv
 4615              	.L275:
 4616              		.loc 19 38 0 discriminator 4
 4617 0020 019B     		ldr	r3, [sp, #4]
 4618 0022 1846     		mov	r0, r3
 4619 0024 03B0     		add	sp, sp, #12
 4620              		.cfi_def_cfa_offset 4
 4621              		@ sp needed
 4622 0026 5DF804FB 		ldr	pc, [sp], #4
 4623              	.L278:
 4624 002a 00BF     		.align	2
 4625              	.L277:
 4626 002c 08000000 		.word	_ZTVN3r2p10SubscriberINS_7PixyMsgELj5EEE+8
 4627              		.cfi_endproc
ARM GAS  /tmp/ccypRU8x.s 			page 85


 4628              	.LFE684:
 4629              		.size	_ZN3r2p10SubscriberINS_7PixyMsgELj5EED2Ev, .-_ZN3r2p10SubscriberINS_7PixyMsgELj5EED2Ev
 4630              		.weak	_ZN3r2p10SubscriberINS_7PixyMsgELj5EED1Ev
 4631              		.thumb_set _ZN3r2p10SubscriberINS_7PixyMsgELj5EED1Ev,_ZN3r2p10SubscriberINS_7PixyMsgELj5EED2Ev
 4632              		.section	.text._ZN3r2p10SubscriberINS_7PixyMsgELj5EED0Ev,"axG",%progbits,_ZN3r2p10SubscriberINS_7P
 4633              		.align	2
 4634              		.p2align 4,,15
 4635              		.weak	_ZN3r2p10SubscriberINS_7PixyMsgELj5EED0Ev
 4636              		.thumb
 4637              		.thumb_func
 4638              		.type	_ZN3r2p10SubscriberINS_7PixyMsgELj5EED0Ev, %function
 4639              	_ZN3r2p10SubscriberINS_7PixyMsgELj5EED0Ev:
 4640              	.LFB686:
 4641              		.loc 19 38 0 is_stmt 1
 4642              		.cfi_startproc
 4643              		@ args = 0, pretend = 0, frame = 8
 4644              		@ frame_needed = 0, uses_anonymous_args = 0
 4645 0000 00B5     		push	{lr}
 4646              		.cfi_def_cfa_offset 4
 4647              		.cfi_offset 14, -4
 4648 0002 83B0     		sub	sp, sp, #12
 4649              		.cfi_def_cfa_offset 16
 4650 0004 0190     		str	r0, [sp, #4]
 4651              		.loc 19 38 0
 4652 0006 0198     		ldr	r0, [sp, #4]
 4653 0008 FFF7FEFF 		bl	_ZN3r2p10SubscriberINS_7PixyMsgELj5EED1Ev
 4654 000c 0198     		ldr	r0, [sp, #4]
 4655 000e FFF7FEFF 		bl	_ZdlPv
 4656 0012 019B     		ldr	r3, [sp, #4]
 4657 0014 1846     		mov	r0, r3
 4658 0016 03B0     		add	sp, sp, #12
 4659              		.cfi_def_cfa_offset 4
 4660              		@ sp needed
 4661 0018 5DF804FB 		ldr	pc, [sp], #4
 4662              		.cfi_endproc
 4663              	.LFE686:
 4664              		.size	_ZN3r2p10SubscriberINS_7PixyMsgELj5EED0Ev, .-_ZN3r2p10SubscriberINS_7PixyMsgELj5EED0Ev
 4665 001c AFF30080 		.section	.text._ZN3r2p9PublisherINS_9PIDCfgMsgEED2Ev,"axG",%progbits,_ZN3r2p9PublisherINS_9PIDCfgM
 4666              		.align	2
 4667              		.p2align 4,,15
 4668              		.weak	_ZN3r2p9PublisherINS_9PIDCfgMsgEED2Ev
 4669              		.thumb
 4670              		.thumb_func
 4671              		.type	_ZN3r2p9PublisherINS_9PIDCfgMsgEED2Ev, %function
 4672              	_ZN3r2p9PublisherINS_9PIDCfgMsgEED2Ev:
 4673              	.LFB688:
 4674              		.loc 17 54 0
 4675              		.cfi_startproc
 4676              		@ args = 0, pretend = 0, frame = 8
 4677              		@ frame_needed = 0, uses_anonymous_args = 0
 4678 0000 00B5     		push	{lr}
 4679              		.cfi_def_cfa_offset 4
 4680              		.cfi_offset 14, -4
 4681 0002 83B0     		sub	sp, sp, #12
 4682              		.cfi_def_cfa_offset 16
 4683 0004 0190     		str	r0, [sp, #4]
 4684              	.LBB91:
ARM GAS  /tmp/ccypRU8x.s 			page 86


 4685              		.loc 17 57 0
 4686 0006 019B     		ldr	r3, [sp, #4]
 4687 0008 084A     		ldr	r2, .L286
 4688 000a 1A60     		str	r2, [r3]
 4689 000c 019B     		ldr	r3, [sp, #4]
 4690 000e 1846     		mov	r0, r3
 4691 0010 FFF7FEFF 		bl	_ZN3r2p14LocalPublisherD2Ev
 4692              	.LBE91:
 4693 0014 0023     		movs	r3, #0
 4694 0016 002B     		cmp	r3, #0
 4695 0018 02D0     		beq	.L284
 4696              		.loc 17 57 0 is_stmt 0 discriminator 2
 4697 001a 0198     		ldr	r0, [sp, #4]
 4698 001c FFF7FEFF 		bl	_ZdlPv
 4699              	.L284:
 4700              		.loc 17 57 0 discriminator 4
 4701 0020 019B     		ldr	r3, [sp, #4]
 4702 0022 1846     		mov	r0, r3
 4703 0024 03B0     		add	sp, sp, #12
 4704              		.cfi_def_cfa_offset 4
 4705              		@ sp needed
 4706 0026 5DF804FB 		ldr	pc, [sp], #4
 4707              	.L287:
 4708 002a 00BF     		.align	2
 4709              	.L286:
 4710 002c 08000000 		.word	_ZTVN3r2p9PublisherINS_9PIDCfgMsgEEE+8
 4711              		.cfi_endproc
 4712              	.LFE688:
 4713              		.size	_ZN3r2p9PublisherINS_9PIDCfgMsgEED2Ev, .-_ZN3r2p9PublisherINS_9PIDCfgMsgEED2Ev
 4714              		.weak	_ZN3r2p9PublisherINS_9PIDCfgMsgEED1Ev
 4715              		.thumb_set _ZN3r2p9PublisherINS_9PIDCfgMsgEED1Ev,_ZN3r2p9PublisherINS_9PIDCfgMsgEED2Ev
 4716              		.section	.text._ZN3r2p9PublisherINS_9PIDCfgMsgEED0Ev,"axG",%progbits,_ZN3r2p9PublisherINS_9PIDCfgM
 4717              		.align	2
 4718              		.p2align 4,,15
 4719              		.weak	_ZN3r2p9PublisherINS_9PIDCfgMsgEED0Ev
 4720              		.thumb
 4721              		.thumb_func
 4722              		.type	_ZN3r2p9PublisherINS_9PIDCfgMsgEED0Ev, %function
 4723              	_ZN3r2p9PublisherINS_9PIDCfgMsgEED0Ev:
 4724              	.LFB690:
 4725              		.loc 17 54 0 is_stmt 1
 4726              		.cfi_startproc
 4727              		@ args = 0, pretend = 0, frame = 8
 4728              		@ frame_needed = 0, uses_anonymous_args = 0
 4729 0000 00B5     		push	{lr}
 4730              		.cfi_def_cfa_offset 4
 4731              		.cfi_offset 14, -4
 4732 0002 83B0     		sub	sp, sp, #12
 4733              		.cfi_def_cfa_offset 16
 4734 0004 0190     		str	r0, [sp, #4]
 4735              		.loc 17 57 0
 4736 0006 0198     		ldr	r0, [sp, #4]
 4737 0008 FFF7FEFF 		bl	_ZN3r2p9PublisherINS_9PIDCfgMsgEED1Ev
 4738 000c 0198     		ldr	r0, [sp, #4]
 4739 000e FFF7FEFF 		bl	_ZdlPv
 4740 0012 019B     		ldr	r3, [sp, #4]
 4741 0014 1846     		mov	r0, r3
ARM GAS  /tmp/ccypRU8x.s 			page 87


 4742 0016 03B0     		add	sp, sp, #12
 4743              		.cfi_def_cfa_offset 4
 4744              		@ sp needed
 4745 0018 5DF804FB 		ldr	pc, [sp], #4
 4746              		.cfi_endproc
 4747              	.LFE690:
 4748              		.size	_ZN3r2p9PublisherINS_9PIDCfgMsgEED0Ev, .-_ZN3r2p9PublisherINS_9PIDCfgMsgEED0Ev
 4749 001c AFF30080 		.section	.text._ZN3r2p9PublisherINS_9Speed3MsgEED2Ev,"axG",%progbits,_ZN3r2p9PublisherINS_9Speed3M
 4750              		.align	2
 4751              		.p2align 4,,15
 4752              		.weak	_ZN3r2p9PublisherINS_9Speed3MsgEED2Ev
 4753              		.thumb
 4754              		.thumb_func
 4755              		.type	_ZN3r2p9PublisherINS_9Speed3MsgEED2Ev, %function
 4756              	_ZN3r2p9PublisherINS_9Speed3MsgEED2Ev:
 4757              	.LFB692:
 4758              		.loc 17 54 0
 4759              		.cfi_startproc
 4760              		@ args = 0, pretend = 0, frame = 8
 4761              		@ frame_needed = 0, uses_anonymous_args = 0
 4762 0000 00B5     		push	{lr}
 4763              		.cfi_def_cfa_offset 4
 4764              		.cfi_offset 14, -4
 4765 0002 83B0     		sub	sp, sp, #12
 4766              		.cfi_def_cfa_offset 16
 4767 0004 0190     		str	r0, [sp, #4]
 4768              	.LBB92:
 4769              		.loc 17 57 0
 4770 0006 019B     		ldr	r3, [sp, #4]
 4771 0008 084A     		ldr	r2, .L295
 4772 000a 1A60     		str	r2, [r3]
 4773 000c 019B     		ldr	r3, [sp, #4]
 4774 000e 1846     		mov	r0, r3
 4775 0010 FFF7FEFF 		bl	_ZN3r2p14LocalPublisherD2Ev
 4776              	.LBE92:
 4777 0014 0023     		movs	r3, #0
 4778 0016 002B     		cmp	r3, #0
 4779 0018 02D0     		beq	.L293
 4780              		.loc 17 57 0 is_stmt 0 discriminator 2
 4781 001a 0198     		ldr	r0, [sp, #4]
 4782 001c FFF7FEFF 		bl	_ZdlPv
 4783              	.L293:
 4784              		.loc 17 57 0 discriminator 4
 4785 0020 019B     		ldr	r3, [sp, #4]
 4786 0022 1846     		mov	r0, r3
 4787 0024 03B0     		add	sp, sp, #12
 4788              		.cfi_def_cfa_offset 4
 4789              		@ sp needed
 4790 0026 5DF804FB 		ldr	pc, [sp], #4
 4791              	.L296:
 4792 002a 00BF     		.align	2
 4793              	.L295:
 4794 002c 08000000 		.word	_ZTVN3r2p9PublisherINS_9Speed3MsgEEE+8
 4795              		.cfi_endproc
 4796              	.LFE692:
 4797              		.size	_ZN3r2p9PublisherINS_9Speed3MsgEED2Ev, .-_ZN3r2p9PublisherINS_9Speed3MsgEED2Ev
 4798              		.weak	_ZN3r2p9PublisherINS_9Speed3MsgEED1Ev
ARM GAS  /tmp/ccypRU8x.s 			page 88


 4799              		.thumb_set _ZN3r2p9PublisherINS_9Speed3MsgEED1Ev,_ZN3r2p9PublisherINS_9Speed3MsgEED2Ev
 4800              		.section	.text._ZN3r2p9PublisherINS_9Speed3MsgEED0Ev,"axG",%progbits,_ZN3r2p9PublisherINS_9Speed3M
 4801              		.align	2
 4802              		.p2align 4,,15
 4803              		.weak	_ZN3r2p9PublisherINS_9Speed3MsgEED0Ev
 4804              		.thumb
 4805              		.thumb_func
 4806              		.type	_ZN3r2p9PublisherINS_9Speed3MsgEED0Ev, %function
 4807              	_ZN3r2p9PublisherINS_9Speed3MsgEED0Ev:
 4808              	.LFB694:
 4809              		.loc 17 54 0 is_stmt 1
 4810              		.cfi_startproc
 4811              		@ args = 0, pretend = 0, frame = 8
 4812              		@ frame_needed = 0, uses_anonymous_args = 0
 4813 0000 00B5     		push	{lr}
 4814              		.cfi_def_cfa_offset 4
 4815              		.cfi_offset 14, -4
 4816 0002 83B0     		sub	sp, sp, #12
 4817              		.cfi_def_cfa_offset 16
 4818 0004 0190     		str	r0, [sp, #4]
 4819              		.loc 17 57 0
 4820 0006 0198     		ldr	r0, [sp, #4]
 4821 0008 FFF7FEFF 		bl	_ZN3r2p9PublisherINS_9Speed3MsgEED1Ev
 4822 000c 0198     		ldr	r0, [sp, #4]
 4823 000e FFF7FEFF 		bl	_ZdlPv
 4824 0012 019B     		ldr	r3, [sp, #4]
 4825 0014 1846     		mov	r0, r3
 4826 0016 03B0     		add	sp, sp, #12
 4827              		.cfi_def_cfa_offset 4
 4828              		@ sp needed
 4829 0018 5DF804FB 		ldr	pc, [sp], #4
 4830              		.cfi_endproc
 4831              	.LFE694:
 4832              		.size	_ZN3r2p9PublisherINS_9Speed3MsgEED0Ev, .-_ZN3r2p9PublisherINS_9Speed3MsgEED0Ev
 4833 001c AFF30080 		.section	.text._GLOBAL__sub_I_vel_node,"ax",%progbits
 4834              		.align	2
 4835              		.p2align 4,,15
 4836              		.thumb
 4837              		.thumb_func
 4838              		.type	_GLOBAL__sub_I_vel_node, %function
 4839              	_GLOBAL__sub_I_vel_node:
 4840              	.LFB695:
 4841              		.loc 15 473 0
 4842              		.cfi_startproc
 4843              		@ args = 0, pretend = 0, frame = 0
 4844              		@ frame_needed = 0, uses_anonymous_args = 0
 4845 0000 08B5     		push	{r3, lr}
 4846              		.cfi_def_cfa_offset 8
 4847              		.cfi_offset 3, -8
 4848              		.cfi_offset 14, -4
 4849              		.loc 15 473 0
 4850 0002 0120     		movs	r0, #1
 4851 0004 4FF6FF71 		movw	r1, #65535
 4852 0008 FFF7FEFF 		bl	_Z41__static_initialization_and_destruction_0ii
 4853 000c 08BD     		pop	{r3, pc}
 4854              		.cfi_endproc
 4855              	.LFE695:
ARM GAS  /tmp/ccypRU8x.s 			page 89


 4856              		.size	_GLOBAL__sub_I_vel_node, .-_GLOBAL__sub_I_vel_node
 4857 000e 00BF     		.section	.init_array,"aw",%init_array
 4858              		.align	2
 4859 0000 00000000 		.word	_GLOBAL__sub_I_vel_node(target1)
 4860              		.text
 4861              	.Letext0:
 4862              		.file 22 "/home/ergae/r2p-sdk/tools/gcc-arm-none-eabi-4_9-2014q4/lib/gcc/arm-none-eabi/4.9.3/inclu
 4863              		.file 23 "/home/ergae/r2p-sdk/tools/gcc-arm-none-eabi-4_9-2014q4/arm-none-eabi/include/machine/_de
 4864              		.file 24 "/home/ergae/r2p-sdk/tools/gcc-arm-none-eabi-4_9-2014q4/arm-none-eabi/include/stdint.h"
 4865              		.file 25 "/home/ergae/r2p-sdk/core/ChibiOS/os/ports/GCC/ARMCMx/chtypes.h"
 4866              		.file 26 "/home/ergae/r2p-sdk/core/ChibiOS/os/kernel/include/chlists.h"
 4867              		.file 27 "/home/ergae/r2p-sdk/core/ChibiOS/os/kernel/include/chthreads.h"
 4868              		.file 28 "/home/ergae/r2p-sdk/core/ChibiOS/os/ports/GCC/ARMCMx/chcore_v7m.h"
 4869              		.file 29 "/home/ergae/r2p-sdk/core/ChibiOS/os/kernel/include/chschd.h"
 4870              		.file 30 "/home/ergae/r2p-sdk/core/ChibiOS/os/kernel/include/chmtx.h"
 4871              		.file 31 "/home/ergae/r2p-sdk/core/ChibiOS/os/kernel/include/chevents.h"
 4872              		.file 32 "/home/ergae/r2p-sdk/core/ChibiOS/os/kernel/include/chmemcore.h"
 4873              		.file 33 "/home/ergae/r2p-sdk/core/ChibiOS/os/kernel/include/chmempools.h"
 4874              		.file 34 "/home/ergae/r2p-sdk/core/ChibiOS/os/kernel/include/chqueues.h"
 4875              		.file 35 "/home/ergae/r2p-sdk/core/ChibiOS/os/kernel/include/chstreams.h"
 4876              		.file 36 "/home/ergae/r2p-sdk/core/ChibiOS/os/hal/platforms/STM32/GPIOv2/pal_lld.h"
 4877              		.file 37 "/home/ergae/r2p-sdk/core/ChibiOS/os/hal/include/usb.h"
 4878              		.file 38 "/home/ergae/r2p-sdk/core/ChibiOS/os/hal/platforms/STM32/USBv1/usb_lld.h"
 4879              		.file 39 "/home/ergae/r2p-sdk/core/ChibiOS/os/hal/include/serial_usb.h"
 4880              		.file 40 "/home/ergae/r2p-sdk/tools/gcc-arm-none-eabi-4_9-2014q4/lib/gcc/arm-none-eabi/4.9.3/inclu
 4881              		.file 41 "<built-in>"
 4882              		.file 42 "/home/ergae/r2p-sdk/core/ChibiOS/os/various/shell.h"
 4883              		.file 43 "/home/ergae/r2p-sdk/tools/gcc-arm-none-eabi-4_9-2014q4/arm-none-eabi/include/c++/4.9.3/c
 4884              		.file 44 "/home/ergae/r2p-sdk/tools/gcc-arm-none-eabi-4_9-2014q4/arm-none-eabi/include/string.h"
 4885              		.file 45 "/home/ergae/r2p-sdk/core/Middleware/include/r2p/Uncopyable.hpp"
 4886              		.file 46 "/home/ergae/r2p-sdk/core/Middleware/include/r2p/StaticList.hpp"
 4887              		.file 47 "/home/ergae/r2p-sdk/core/Middleware/include/r2p/LocalPublisher.hpp"
 4888              		.file 48 "/home/ergae/r2p-sdk/core/Middleware/include/r2p/BaseSubscriber.hpp"
 4889              		.file 49 "/home/ergae/r2p-sdk/core/Middleware/include/r2p/msg/motor.hpp"
 4890              		.file 50 "/home/ergae/r2p-sdk/core/Middleware/include/r2p/common.hpp"
 4891              		.file 51 "/home/ergae/r2p-sdk/core/ChibiOS/os/ports/common/ARMCMx/CMSIS/include/core_cm4.h"
 4892              		.file 52 "/home/ergae/r2p-sdk/modules/USB_module/usbcfg.h"