ARM GAS  /tmp/ccB5ynkg.s 			page 1


   1              		.syntax unified
   2              		.cpu cortex-m4
   3              		.eabi_attribute 27, 3
   4              		.eabi_attribute 28, 1
   5              		.fpu fpv4-sp-d16
   6              		.eabi_attribute 20, 1
   7              		.eabi_attribute 21, 1
   8              		.eabi_attribute 23, 3
   9              		.eabi_attribute 24, 1
  10              		.eabi_attribute 25, 1
  11              		.eabi_attribute 26, 1
  12              		.eabi_attribute 30, 6
  13              		.eabi_attribute 34, 1
  14              		.eabi_attribute 18, 4
  15              		.thumb
  16              		.file	"shell_node.cpp"
  17              		.text
  18              	.Ltext0:
  19              		.cfi_sections	.debug_frame
  20              		.section	.text._ZL8chprintfP20BaseSequentialStreamPKcz,"ax",%progbits
  21              		.align	2
  22              		.p2align 4,,15
  23              		.thumb
  24              		.thumb_func
  25              		.type	_ZL8chprintfP20BaseSequentialStreamPKcz, %function
  26              	_ZL8chprintfP20BaseSequentialStreamPKcz:
  27              	.LFB118:
  28              		.file 1 "/home/ergae/r2p-sdk/core/ChibiOS/os/various/chprintf.h"
  29              		.loc 1 69 0
  30              		.cfi_startproc
  31              		@ args = 4, pretend = 12, frame = 16
  32              		@ frame_needed = 0, uses_anonymous_args = 1
  33 0000 0EB4     		push	{r1, r2, r3}
  34              		.cfi_def_cfa_offset 12
  35              		.cfi_offset 1, -12
  36              		.cfi_offset 2, -8
  37              		.cfi_offset 3, -4
  38 0002 00B5     		push	{lr}
  39              		.cfi_def_cfa_offset 16
  40              		.cfi_offset 14, -16
  41 0004 84B0     		sub	sp, sp, #16
  42              		.cfi_def_cfa_offset 32
  43 0006 0190     		str	r0, [sp, #4]
  44              	.LBB41:
  45              		.loc 1 72 0
  46 0008 06AB     		add	r3, sp, #24
  47 000a 0393     		str	r3, [sp, #12]
  48              		.loc 1 73 0
  49 000c 0198     		ldr	r0, [sp, #4]
  50 000e 0599     		ldr	r1, [sp, #20]
  51 0010 039A     		ldr	r2, [sp, #12]
  52 0012 FFF7FEFF 		bl	chvprintf
  53              	.LBE41:
  54              		.loc 1 75 0
  55 0016 04B0     		add	sp, sp, #16
  56              		.cfi_def_cfa_offset 16
  57              		@ sp needed
ARM GAS  /tmp/ccB5ynkg.s 			page 2


  58 0018 5DF804EB 		ldr	lr, [sp], #4
  59              		.cfi_restore 14
  60              		.cfi_def_cfa_offset 12
  61 001c 03B0     		add	sp, sp, #12
  62              		.cfi_restore 3
  63              		.cfi_restore 2
  64              		.cfi_restore 1
  65              		.cfi_def_cfa_offset 0
  66 001e 7047     		bx	lr
  67              		.cfi_endproc
  68              	.LFE118:
  69              		.size	_ZL8chprintfP20BaseSequentialStreamPKcz, .-_ZL8chprintfP20BaseSequentialStreamPKcz
  70              		.section	.text._ZN3r2p8SysLock_7acquireEv,"axG",%progbits,_ZN3r2p8SysLock_7acquireEv,comdat
  71              		.align	2
  72              		.p2align 4,,15
  73              		.weak	_ZN3r2p8SysLock_7acquireEv
  74              		.thumb
  75              		.thumb_func
  76              		.type	_ZN3r2p8SysLock_7acquireEv, %function
  77              	_ZN3r2p8SysLock_7acquireEv:
  78              	.LFB130:
  79              		.file 2 "/home/ergae/r2p-sdk/core/Middleware/port/chibios/include/r2p/impl/SysLock_.hpp"
  80              		.loc 2 20 0
  81              		.cfi_startproc
  82              		@ args = 0, pretend = 0, frame = 0
  83              		@ frame_needed = 0, uses_anonymous_args = 0
  84 0000 08B5     		push	{r3, lr}
  85              		.cfi_def_cfa_offset 8
  86              		.cfi_offset 3, -8
  87              		.cfi_offset 14, -4
  88              	.LBB42:
  89              	.LBB43:
  90              	.LBB44:
  91              		.loc 2 22 0
  92 0002 2023     		movs	r3, #32
  93              	@ 22 "/home/ergae/r2p-sdk/core/Middleware/port/chibios/include/r2p/impl/SysLock_.hpp" 1
  94 0004 83F31188 		msr     BASEPRI, r3
  95              	@ 0 "" 2
  96              		.thumb
  97              	.LBE44:
  98 0008 FFF7FEFF 		bl	dbg_check_lock
  99              	.LBE43:
 100              	.LBE42:
 101              		.loc 2 23 0
 102 000c 08BD     		pop	{r3, pc}
 103              		.cfi_endproc
 104              	.LFE130:
 105              		.size	_ZN3r2p8SysLock_7acquireEv, .-_ZN3r2p8SysLock_7acquireEv
 106 000e 00BF     		.section	.text._ZN3r2p8SysLock_7releaseEv,"axG",%progbits,_ZN3r2p8SysLock_7releaseEv,comdat
 107              		.align	2
 108              		.p2align 4,,15
 109              		.weak	_ZN3r2p8SysLock_7releaseEv
 110              		.thumb
 111              		.thumb_func
 112              		.type	_ZN3r2p8SysLock_7releaseEv, %function
 113              	_ZN3r2p8SysLock_7releaseEv:
 114              	.LFB131:
ARM GAS  /tmp/ccB5ynkg.s 			page 3


 115              		.loc 2 27 0
 116              		.cfi_startproc
 117              		@ args = 0, pretend = 0, frame = 0
 118              		@ frame_needed = 0, uses_anonymous_args = 0
 119 0000 08B5     		push	{r3, lr}
 120              		.cfi_def_cfa_offset 8
 121              		.cfi_offset 3, -8
 122              		.cfi_offset 14, -4
 123              	.LBB45:
 124              	.LBB46:
 125              		.loc 2 29 0
 126 0002 FFF7FEFF 		bl	dbg_check_unlock
 127              	.LBB47:
 128 0006 0023     		movs	r3, #0
 129              	@ 29 "/home/ergae/r2p-sdk/core/Middleware/port/chibios/include/r2p/impl/SysLock_.hpp" 1
 130 0008 83F31188 		msr     BASEPRI, r3
 131              	@ 0 "" 2
 132              		.thumb
 133              	.LBE47:
 134              	.LBE46:
 135              	.LBE45:
 136              		.loc 2 30 0
 137 000c 08BD     		pop	{r3, pc}
 138              		.cfi_endproc
 139              	.LFE131:
 140              		.size	_ZN3r2p8SysLock_7releaseEv, .-_ZN3r2p8SysLock_7releaseEv
 141 000e 00BF     		.section	.text._ZN3r2p7SysLock7acquireEv,"axG",%progbits,_ZN3r2p7SysLock7acquireEv,comdat
 142              		.align	2
 143              		.p2align 4,,15
 144              		.weak	_ZN3r2p7SysLock7acquireEv
 145              		.thumb
 146              		.thumb_func
 147              		.type	_ZN3r2p7SysLock7acquireEv, %function
 148              	_ZN3r2p7SysLock7acquireEv:
 149              	.LFB138:
 150              		.file 3 "/home/ergae/r2p-sdk/core/Middleware/include/r2p/SysLock.hpp"
 151              		.loc 3 27 0
 152              		.cfi_startproc
 153              		@ args = 0, pretend = 0, frame = 0
 154              		@ frame_needed = 0, uses_anonymous_args = 0
 155 0000 08B5     		push	{r3, lr}
 156              		.cfi_def_cfa_offset 8
 157              		.cfi_offset 3, -8
 158              		.cfi_offset 14, -4
 159              		.loc 3 29 0
 160 0002 FFF7FEFF 		bl	_ZN3r2p8SysLock_7acquireEv
 161              		.loc 3 30 0
 162 0006 08BD     		pop	{r3, pc}
 163              		.cfi_endproc
 164              	.LFE138:
 165              		.size	_ZN3r2p7SysLock7acquireEv, .-_ZN3r2p7SysLock7acquireEv
 166 0008 AFF30080 		.section	.text._ZN3r2p7SysLock7releaseEv,"axG",%progbits,_ZN3r2p7SysLock7releaseEv,comdat
 166      AFF30080 
 167              		.align	2
 168              		.p2align 4,,15
 169              		.weak	_ZN3r2p7SysLock7releaseEv
 170              		.thumb
ARM GAS  /tmp/ccB5ynkg.s 			page 4


 171              		.thumb_func
 172              		.type	_ZN3r2p7SysLock7releaseEv, %function
 173              	_ZN3r2p7SysLock7releaseEv:
 174              	.LFB139:
 175              		.loc 3 34 0
 176              		.cfi_startproc
 177              		@ args = 0, pretend = 0, frame = 0
 178              		@ frame_needed = 0, uses_anonymous_args = 0
 179 0000 08B5     		push	{r3, lr}
 180              		.cfi_def_cfa_offset 8
 181              		.cfi_offset 3, -8
 182              		.cfi_offset 14, -4
 183              		.loc 3 36 0
 184 0002 FFF7FEFF 		bl	_ZN3r2p8SysLock_7releaseEv
 185              		.loc 3 37 0
 186 0006 08BD     		pop	{r3, pc}
 187              		.cfi_endproc
 188              	.LFE139:
 189              		.size	_ZN3r2p7SysLock7releaseEv, .-_ZN3r2p7SysLock7releaseEv
 190              		.section	.text._ZN3r2p11MemoryPool_12alloc_unsafeEv,"axG",%progbits,_ZN3r2p11MemoryPool_12alloc_un
 191              		.align	2
 192              		.p2align 4,,15
 193              		.weak	_ZN3r2p11MemoryPool_12alloc_unsafeEv
 194              		.thumb
 195              		.thumb_func
 196              		.type	_ZN3r2p11MemoryPool_12alloc_unsafeEv, %function
 197              	_ZN3r2p11MemoryPool_12alloc_unsafeEv:
 198              	.LFB237:
 199              		.file 4 "/home/ergae/r2p-sdk/core/Middleware/port/chibios/include/r2p/impl/MemoryPool_.hpp"
 200              		.loc 4 53 0
 201              		.cfi_startproc
 202              		@ args = 0, pretend = 0, frame = 8
 203              		@ frame_needed = 0, uses_anonymous_args = 0
 204 0000 00B5     		push	{lr}
 205              		.cfi_def_cfa_offset 4
 206              		.cfi_offset 14, -4
 207 0002 83B0     		sub	sp, sp, #12
 208              		.cfi_def_cfa_offset 16
 209 0004 0190     		str	r0, [sp, #4]
 210              		.loc 4 55 0
 211 0006 019B     		ldr	r3, [sp, #4]
 212 0008 1846     		mov	r0, r3
 213 000a FFF7FEFF 		bl	chPoolAllocI
 214 000e 0346     		mov	r3, r0
 215              		.loc 4 56 0
 216 0010 1846     		mov	r0, r3
 217 0012 03B0     		add	sp, sp, #12
 218              		.cfi_def_cfa_offset 4
 219              		@ sp needed
 220 0014 5DF804FB 		ldr	pc, [sp], #4
 221              		.cfi_endproc
 222              	.LFE237:
 223              		.size	_ZN3r2p11MemoryPool_12alloc_unsafeEv, .-_ZN3r2p11MemoryPool_12alloc_unsafeEv
 224 0018 AFF30080 		.section	.text._ZNK3r2p4Time8to_s_rawEv,"axG",%progbits,_ZNK3r2p4Time8to_s_rawEv,comdat
 224      AFF30080 
 225              		.align	2
 226              		.p2align 4,,15
ARM GAS  /tmp/ccB5ynkg.s 			page 5


 227              		.weak	_ZNK3r2p4Time8to_s_rawEv
 228              		.thumb
 229              		.thumb_func
 230              		.type	_ZNK3r2p4Time8to_s_rawEv, %function
 231              	_ZNK3r2p4Time8to_s_rawEv:
 232              	.LFB257:
 233              		.file 5 "/home/ergae/r2p-sdk/core/Middleware/include/r2p/Time.hpp"
 234              		.loc 5 89 0
 235              		.cfi_startproc
 236              		@ args = 0, pretend = 0, frame = 8
 237              		@ frame_needed = 0, uses_anonymous_args = 0
 238              		@ link register save eliminated.
 239 0000 82B0     		sub	sp, sp, #8
 240              		.cfi_def_cfa_offset 8
 241 0002 0190     		str	r0, [sp, #4]
 242              		.loc 5 91 0
 243 0004 019B     		ldr	r3, [sp, #4]
 244 0006 1B68     		ldr	r3, [r3]
 245 0008 044A     		ldr	r2, .L10
 246 000a 82FB0312 		smull	r1, r2, r2, r3
 247 000e 9214     		asrs	r2, r2, #18
 248 0010 DB17     		asrs	r3, r3, #31
 249 0012 D31A     		subs	r3, r2, r3
 250              		.loc 5 92 0
 251 0014 1846     		mov	r0, r3
 252 0016 02B0     		add	sp, sp, #8
 253              		.cfi_def_cfa_offset 0
 254              		@ sp needed
 255 0018 7047     		bx	lr
 256              	.L11:
 257 001a 00BF     		.align	2
 258              	.L10:
 259 001c 83DE1B43 		.word	1125899907
 260              		.cfi_endproc
 261              	.LFE257:
 262              		.size	_ZNK3r2p4Time8to_s_rawEv, .-_ZNK3r2p4Time8to_s_rawEv
 263              		.section	.text._ZN3r2p4TimeaSERKS0_,"axG",%progbits,_ZN3r2p4TimeaSERKS0_,comdat
 264              		.align	2
 265              		.p2align 4,,15
 266              		.weak	_ZN3r2p4TimeaSERKS0_
 267              		.thumb
 268              		.thumb_func
 269              		.type	_ZN3r2p4TimeaSERKS0_, %function
 270              	_ZN3r2p4TimeaSERKS0_:
 271              	.LFB263:
 272              		.loc 5 131 0
 273              		.cfi_startproc
 274              		@ args = 0, pretend = 0, frame = 8
 275              		@ frame_needed = 0, uses_anonymous_args = 0
 276              		@ link register save eliminated.
 277 0000 82B0     		sub	sp, sp, #8
 278              		.cfi_def_cfa_offset 8
 279 0002 0190     		str	r0, [sp, #4]
 280 0004 0091     		str	r1, [sp]
 281              		.loc 5 133 0
 282 0006 009B     		ldr	r3, [sp]
 283 0008 1A68     		ldr	r2, [r3]
ARM GAS  /tmp/ccB5ynkg.s 			page 6


 284 000a 019B     		ldr	r3, [sp, #4]
 285 000c 1A60     		str	r2, [r3]
 286              		.loc 5 134 0
 287 000e 019B     		ldr	r3, [sp, #4]
 288              		.loc 5 135 0
 289 0010 1846     		mov	r0, r3
 290 0012 02B0     		add	sp, sp, #8
 291              		.cfi_def_cfa_offset 0
 292              		@ sp needed
 293 0014 7047     		bx	lr
 294              		.cfi_endproc
 295              	.LFE263:
 296              		.size	_ZN3r2p4TimeaSERKS0_, .-_ZN3r2p4TimeaSERKS0_
 297 0016 00BFAFF3 		.section	.text._ZN3r2p4Time2msEl,"axG",%progbits,_ZN3r2p4Time2msEl,comdat
 297      0080AFF3 
 297      0080
 298              		.align	2
 299              		.p2align 4,,15
 300              		.weak	_ZN3r2p4Time2msEl
 301              		.thumb
 302              		.thumb_func
 303              		.type	_ZN3r2p4Time2msEl, %function
 304              	_ZN3r2p4Time2msEl:
 305              	.LFB277:
 306              		.loc 5 184 0
 307              		.cfi_startproc
 308              		@ args = 0, pretend = 0, frame = 8
 309              		@ frame_needed = 0, uses_anonymous_args = 0
 310 0000 00B5     		push	{lr}
 311              		.cfi_def_cfa_offset 4
 312              		.cfi_offset 14, -4
 313 0002 83B0     		sub	sp, sp, #12
 314              		.cfi_def_cfa_offset 16
 315 0004 0190     		str	r0, [sp, #4]
 316 0006 0091     		str	r1, [sp]
 317              		.loc 5 186 0
 318 0008 009B     		ldr	r3, [sp]
 319 000a 4FF47A72 		mov	r2, #1000
 320 000e 02FB03F3 		mul	r3, r2, r3
 321 0012 0198     		ldr	r0, [sp, #4]
 322 0014 1946     		mov	r1, r3
 323 0016 FFF7FEFF 		bl	_ZN3r2p4TimeC1IlEET_
 324              		.loc 5 187 0
 325 001a 0198     		ldr	r0, [sp, #4]
 326 001c 03B0     		add	sp, sp, #12
 327              		.cfi_def_cfa_offset 4
 328              		@ sp needed
 329 001e 5DF804FB 		ldr	pc, [sp], #4
 330              		.cfi_endproc
 331              	.LFE277:
 332              		.size	_ZN3r2p4Time2msEl, .-_ZN3r2p4Time2msEl
 333 0022 00BFAFF3 		.section	.text._ZN3r2p7Message12reset_unsafeEv,"axG",%progbits,_ZN3r2p7Message12reset_unsafeEv,com
 333      0080AFF3 
 333      0080AFF3 
 333      0080
 334              		.align	2
 335              		.p2align 4,,15
ARM GAS  /tmp/ccB5ynkg.s 			page 7


 336              		.weak	_ZN3r2p7Message12reset_unsafeEv
 337              		.thumb
 338              		.thumb_func
 339              		.type	_ZN3r2p7Message12reset_unsafeEv, %function
 340              	_ZN3r2p7Message12reset_unsafeEv:
 341              	.LFB293:
 342              		.file 6 "/home/ergae/r2p-sdk/core/Middleware/include/r2p/Message.hpp"
 343              		.loc 6 122 0
 344              		.cfi_startproc
 345              		@ args = 0, pretend = 0, frame = 8
 346              		@ frame_needed = 0, uses_anonymous_args = 0
 347              		@ link register save eliminated.
 348 0000 82B0     		sub	sp, sp, #8
 349              		.cfi_def_cfa_offset 8
 350 0002 0190     		str	r0, [sp, #4]
 351              		.loc 6 127 0
 352 0004 019B     		ldr	r3, [sp, #4]
 353 0006 0022     		movs	r2, #0
 354 0008 1A70     		strb	r2, [r3]
 355 000a 0022     		movs	r2, #0
 356 000c 5A70     		strb	r2, [r3, #1]
 357              		.loc 6 128 0
 358 000e 02B0     		add	sp, sp, #8
 359              		.cfi_def_cfa_offset 0
 360              		@ sp needed
 361 0010 7047     		bx	lr
 362              		.cfi_endproc
 363              	.LFE293:
 364              		.size	_ZN3r2p7Message12reset_unsafeEv, .-_ZN3r2p7Message12reset_unsafeEv
 365 0012 00BFAFF3 		.section	.text._ZN3r2p7MessageC2Ev,"axG",%progbits,_ZN3r2p7MessageC5Ev,comdat
 365      0080AFF3 
 365      0080AFF3 
 365      0080
 366              		.align	2
 367              		.p2align 4,,15
 368              		.weak	_ZN3r2p7MessageC2Ev
 369              		.thumb
 370              		.thumb_func
 371              		.type	_ZN3r2p7MessageC2Ev, %function
 372              	_ZN3r2p7MessageC2Ev:
 373              	.LFB295:
 374              		.loc 6 132 0
 375              		.cfi_startproc
 376              		@ args = 0, pretend = 0, frame = 8
 377              		@ frame_needed = 0, uses_anonymous_args = 0
 378              		@ link register save eliminated.
 379 0000 82B0     		sub	sp, sp, #8
 380              		.cfi_def_cfa_offset 8
 381 0002 0190     		str	r0, [sp, #4]
 382              	.LBB48:
 383              		.loc 6 137 0
 384 0004 019B     		ldr	r3, [sp, #4]
 385 0006 0022     		movs	r2, #0
 386 0008 1A70     		strb	r2, [r3]
 387 000a 0022     		movs	r2, #0
 388 000c 5A70     		strb	r2, [r3, #1]
 389              	.LBE48:
ARM GAS  /tmp/ccB5ynkg.s 			page 8


 390              		.loc 6 138 0
 391 000e 019B     		ldr	r3, [sp, #4]
 392 0010 1846     		mov	r0, r3
 393 0012 02B0     		add	sp, sp, #8
 394              		.cfi_def_cfa_offset 0
 395              		@ sp needed
 396 0014 7047     		bx	lr
 397              		.cfi_endproc
 398              	.LFE295:
 399              		.size	_ZN3r2p7MessageC2Ev, .-_ZN3r2p7MessageC2Ev
 400              		.weak	_ZN3r2p7MessageC1Ev
 401              		.thumb_set _ZN3r2p7MessageC1Ev,_ZN3r2p7MessageC2Ev
 402 0016 00BFAFF3 		.section	.rodata
 402      0080AFF3 
 402      0080
 403              		.align	2
 404              	.LC0:
 405 0000 5232505F 		.ascii	"R2P_ASSERT()\000"
 405      41535345 
 405      52542829 
 405      00
 406              		.section	.text._ZN3r2p13BasePublisher12alloc_unsafeERPNS_7MessageE,"axG",%progbits,_ZN3r2p13BasePu
 407              		.align	2
 408              		.p2align 4,,15
 409              		.weak	_ZN3r2p13BasePublisher12alloc_unsafeERPNS_7MessageE
 410              		.thumb
 411              		.thumb_func
 412              		.type	_ZN3r2p13BasePublisher12alloc_unsafeERPNS_7MessageE, %function
 413              	_ZN3r2p13BasePublisher12alloc_unsafeERPNS_7MessageE:
 414              	.LFB304:
 415              		.file 7 "/home/ergae/r2p-sdk/core/Middleware/include/r2p/BasePublisher.hpp"
 416              		.loc 7 64 0
 417              		.cfi_startproc
 418              		@ args = 0, pretend = 0, frame = 8
 419              		@ frame_needed = 0, uses_anonymous_args = 0
 420 0000 00B5     		push	{lr}
 421              		.cfi_def_cfa_offset 4
 422              		.cfi_offset 14, -4
 423 0002 83B0     		sub	sp, sp, #12
 424              		.cfi_def_cfa_offset 16
 425 0004 0190     		str	r0, [sp, #4]
 426 0006 0091     		str	r1, [sp]
 427              		.loc 7 66 0
 428 0008 019B     		ldr	r3, [sp, #4]
 429 000a 5B68     		ldr	r3, [r3, #4]
 430 000c 002B     		cmp	r3, #0
 431 000e 02D1     		bne	.L21
 432              		.loc 7 66 0 is_stmt 0 discriminator 1
 433 0010 0A48     		ldr	r0, .L23
 434 0012 FFF7FEFF 		bl	chDbgPanic
 435              	.L21:
 436              		.loc 7 68 0 is_stmt 1
 437 0016 019B     		ldr	r3, [sp, #4]
 438 0018 5B68     		ldr	r3, [r3, #4]
 439 001a 1846     		mov	r0, r3
 440 001c FFF7FEFF 		bl	_ZN3r2p5Topic12alloc_unsafeEv
 441 0020 0246     		mov	r2, r0
ARM GAS  /tmp/ccB5ynkg.s 			page 9


 442 0022 009B     		ldr	r3, [sp]
 443 0024 1A60     		str	r2, [r3]
 444              		.loc 7 69 0
 445 0026 009B     		ldr	r3, [sp]
 446 0028 1B68     		ldr	r3, [r3]
 447 002a 002B     		cmp	r3, #0
 448 002c 14BF     		ite	ne
 449 002e 0123     		movne	r3, #1
 450 0030 0023     		moveq	r3, #0
 451 0032 DBB2     		uxtb	r3, r3
 452              		.loc 7 70 0
 453 0034 1846     		mov	r0, r3
 454 0036 03B0     		add	sp, sp, #12
 455              		.cfi_def_cfa_offset 4
 456              		@ sp needed
 457 0038 5DF804FB 		ldr	pc, [sp], #4
 458              	.L24:
 459              		.align	2
 460              	.L23:
 461 003c 00000000 		.word	.LC0
 462              		.cfi_endproc
 463              	.LFE304:
 464              		.size	_ZN3r2p13BasePublisher12alloc_unsafeERPNS_7MessageE, .-_ZN3r2p13BasePublisher12alloc_unsafeE
 465              		.section	.text._ZN3r2p13BasePublisher5allocERPNS_7MessageE,"axG",%progbits,_ZN3r2p13BasePublisher5
 466              		.align	2
 467              		.p2align 4,,15
 468              		.weak	_ZN3r2p13BasePublisher5allocERPNS_7MessageE
 469              		.thumb
 470              		.thumb_func
 471              		.type	_ZN3r2p13BasePublisher5allocERPNS_7MessageE, %function
 472              	_ZN3r2p13BasePublisher5allocERPNS_7MessageE:
 473              	.LFB305:
 474              		.loc 7 74 0
 475              		.cfi_startproc
 476              		@ args = 0, pretend = 0, frame = 16
 477              		@ frame_needed = 0, uses_anonymous_args = 0
 478 0000 00B5     		push	{lr}
 479              		.cfi_def_cfa_offset 4
 480              		.cfi_offset 14, -4
 481 0002 85B0     		sub	sp, sp, #20
 482              		.cfi_def_cfa_offset 24
 483 0004 0190     		str	r0, [sp, #4]
 484 0006 0091     		str	r1, [sp]
 485              	.LBB49:
 486              		.loc 7 76 0
 487 0008 FFF7FEFF 		bl	_ZN3r2p7SysLock7acquireEv
 488              		.loc 7 77 0
 489 000c 0198     		ldr	r0, [sp, #4]
 490 000e 0099     		ldr	r1, [sp]
 491 0010 FFF7FEFF 		bl	_ZN3r2p13BasePublisher12alloc_unsafeERPNS_7MessageE
 492 0014 0346     		mov	r3, r0
 493 0016 8DF80F30 		strb	r3, [sp, #15]
 494              		.loc 7 78 0
 495 001a FFF7FEFF 		bl	_ZN3r2p7SysLock7releaseEv
 496              		.loc 7 79 0
 497 001e 9DF80F30 		ldrb	r3, [sp, #15]	@ zero_extendqisi2
 498              	.LBE49:
ARM GAS  /tmp/ccB5ynkg.s 			page 10


 499              		.loc 7 80 0
 500 0022 1846     		mov	r0, r3
 501 0024 05B0     		add	sp, sp, #20
 502              		.cfi_def_cfa_offset 4
 503              		@ sp needed
 504 0026 5DF804FB 		ldr	pc, [sp], #4
 505              		.cfi_endproc
 506              	.LFE305:
 507              		.size	_ZN3r2p13BasePublisher5allocERPNS_7MessageE, .-_ZN3r2p13BasePublisher5allocERPNS_7MessageE
 508 002a 00BFAFF3 		.section	.text._ZN3r2p7Thread_4selfEv,"axG",%progbits,_ZN3r2p7Thread_4selfEv,comdat
 508      0080
 509              		.align	2
 510              		.p2align 4,,15
 511              		.weak	_ZN3r2p7Thread_4selfEv
 512              		.thumb
 513              		.thumb_func
 514              		.type	_ZN3r2p7Thread_4selfEv, %function
 515              	_ZN3r2p7Thread_4selfEv:
 516              	.LFB337:
 517              		.file 8 "/home/ergae/r2p-sdk/core/Middleware/port/chibios/include/r2p/impl/Thread_.hpp"
 518              		.loc 8 152 0
 519              		.cfi_startproc
 520              		@ args = 0, pretend = 0, frame = 0
 521              		@ frame_needed = 0, uses_anonymous_args = 0
 522              		@ link register save eliminated.
 523              		.loc 8 154 0
 524 0000 014B     		ldr	r3, .L29
 525 0002 9B69     		ldr	r3, [r3, #24]
 526              		.loc 8 155 0
 527 0004 1846     		mov	r0, r3
 528 0006 7047     		bx	lr
 529              	.L30:
 530              		.align	2
 531              	.L29:
 532 0008 00000000 		.word	rlist
 533              		.cfi_endproc
 534              	.LFE337:
 535              		.size	_ZN3r2p7Thread_4selfEv, .-_ZN3r2p7Thread_4selfEv
 536 000c AFF30080 		.section	.text._ZN3r2p7Thread_5sleepERKNS_4TimeE,"axG",%progbits,_ZN3r2p7Thread_5sleepERKNS_4TimeE
 537              		.align	2
 538              		.p2align 4,,15
 539              		.weak	_ZN3r2p7Thread_5sleepERKNS_4TimeE
 540              		.thumb
 541              		.thumb_func
 542              		.type	_ZN3r2p7Thread_5sleepERKNS_4TimeE, %function
 543              	_ZN3r2p7Thread_5sleepERKNS_4TimeE:
 544              	.LFB341:
 545              		.loc 8 180 0
 546              		.cfi_startproc
 547              		@ args = 0, pretend = 0, frame = 8
 548              		@ frame_needed = 0, uses_anonymous_args = 0
 549 0000 00B5     		push	{lr}
 550              		.cfi_def_cfa_offset 4
 551              		.cfi_offset 14, -4
 552 0002 83B0     		sub	sp, sp, #12
 553              		.cfi_def_cfa_offset 16
 554 0004 0190     		str	r0, [sp, #4]
ARM GAS  /tmp/ccB5ynkg.s 			page 11


 555              		.loc 8 182 0
 556 0006 019B     		ldr	r3, [sp, #4]
 557 0008 1B68     		ldr	r3, [r3]
 558 000a 002B     		cmp	r3, #0
 559 000c 21DD     		ble	.L32
 560              		.loc 8 183 0
 561 000e 019B     		ldr	r3, [sp, #4]
 562 0010 1B68     		ldr	r3, [r3]
 563 0012 124A     		ldr	r2, .L36
 564 0014 9342     		cmp	r3, r2
 565 0016 10DC     		bgt	.L33
 566              		.loc 8 184 0
 567 0018 019B     		ldr	r3, [sp, #4]
 568 001a 1B68     		ldr	r3, [r3]
 569 001c 1A46     		mov	r2, r3
 570 001e 4FF47A73 		mov	r3, #1000
 571 0022 03FB02F3 		mul	r3, r3, r2
 572 0026 013B     		subs	r3, r3, #1
 573 0028 0D4A     		ldr	r2, .L36+4
 574 002a A2FB0323 		umull	r2, r3, r2, r3
 575 002e 9B0C     		lsrs	r3, r3, #18
 576 0030 0133     		adds	r3, r3, #1
 577 0032 1846     		mov	r0, r3
 578 0034 FFF7FEFF 		bl	chThdSleep
 579 0038 0DE0     		b	.L31
 580              	.L33:
 581              		.loc 8 186 0
 582 003a 0198     		ldr	r0, [sp, #4]
 583 003c FFF7FEFF 		bl	_ZNK3r2p4Time8to_s_rawEv
 584 0040 0246     		mov	r2, r0
 585 0042 4FF47A73 		mov	r3, #1000
 586 0046 03FB02F3 		mul	r3, r3, r2
 587 004a 1846     		mov	r0, r3
 588 004c FFF7FEFF 		bl	chThdSleep
 589 0050 01E0     		b	.L31
 590              	.L32:
 591              		.loc 8 189 0
 592 0052 FFF7FEFF 		bl	chThdYield
 593              	.L31:
 594              		.loc 8 191 0
 595 0056 03B0     		add	sp, sp, #12
 596              		.cfi_def_cfa_offset 4
 597              		@ sp needed
 598 0058 5DF804FB 		ldr	pc, [sp], #4
 599              	.L37:
 600              		.align	2
 601              	.L36:
 602 005c 3F420F00 		.word	999999
 603 0060 83DE1B43 		.word	1125899907
 604              		.cfi_endproc
 605              	.LFE341:
 606              		.size	_ZN3r2p7Thread_5sleepERKNS_4TimeE, .-_ZN3r2p7Thread_5sleepERKNS_4TimeE
 607 0064 AFF30080 		.section	.text._ZN3r2p6Thread4selfEv,"axG",%progbits,_ZN3r2p6Thread4selfEv,comdat
 607      AFF30080 
 607      AFF30080 
 608              		.align	2
 609              		.p2align 4,,15
ARM GAS  /tmp/ccB5ynkg.s 			page 12


 610              		.weak	_ZN3r2p6Thread4selfEv
 611              		.thumb
 612              		.thumb_func
 613              		.type	_ZN3r2p6Thread4selfEv, %function
 614              	_ZN3r2p6Thread4selfEv:
 615              	.LFB348:
 616              		.file 9 "/home/ergae/r2p-sdk/core/Middleware/include/r2p/Thread.hpp"
 617              		.loc 9 112 0
 618              		.cfi_startproc
 619              		@ args = 0, pretend = 0, frame = 0
 620              		@ frame_needed = 0, uses_anonymous_args = 0
 621 0000 08B5     		push	{r3, lr}
 622              		.cfi_def_cfa_offset 8
 623              		.cfi_offset 3, -8
 624              		.cfi_offset 14, -4
 625              		.loc 9 114 0
 626 0002 FFF7FEFF 		bl	_ZN3r2p7Thread_4selfEv
 627 0006 0346     		mov	r3, r0
 628              		.loc 9 115 0
 629 0008 1846     		mov	r0, r3
 630 000a 08BD     		pop	{r3, pc}
 631              		.cfi_endproc
 632              	.LFE348:
 633              		.size	_ZN3r2p6Thread4selfEv, .-_ZN3r2p6Thread4selfEv
 634 000c AFF30080 		.section	.text._ZN3r2p6Thread5sleepERKNS_4TimeE,"axG",%progbits,_ZN3r2p6Thread5sleepERKNS_4TimeE,c
 635              		.align	2
 636              		.p2align 4,,15
 637              		.weak	_ZN3r2p6Thread5sleepERKNS_4TimeE
 638              		.thumb
 639              		.thumb_func
 640              		.type	_ZN3r2p6Thread5sleepERKNS_4TimeE, %function
 641              	_ZN3r2p6Thread5sleepERKNS_4TimeE:
 642              	.LFB352:
 643              		.loc 9 140 0
 644              		.cfi_startproc
 645              		@ args = 0, pretend = 0, frame = 8
 646              		@ frame_needed = 0, uses_anonymous_args = 0
 647 0000 00B5     		push	{lr}
 648              		.cfi_def_cfa_offset 4
 649              		.cfi_offset 14, -4
 650 0002 83B0     		sub	sp, sp, #12
 651              		.cfi_def_cfa_offset 16
 652 0004 0190     		str	r0, [sp, #4]
 653              		.loc 9 142 0
 654 0006 0198     		ldr	r0, [sp, #4]
 655 0008 FFF7FEFF 		bl	_ZN3r2p7Thread_5sleepERKNS_4TimeE
 656              		.loc 9 143 0
 657 000c 03B0     		add	sp, sp, #12
 658              		.cfi_def_cfa_offset 4
 659              		@ sp needed
 660 000e 5DF804FB 		ldr	pc, [sp], #4
 661              		.cfi_endproc
 662              	.LFE352:
 663              		.size	_ZN3r2p6Thread5sleepERKNS_4TimeE, .-_ZN3r2p6Thread5sleepERKNS_4TimeE
 664 0012 00BFAFF3 		.section	.text._ZNK3r2p10SpinEvent_10get_threadEv,"axG",%progbits,_ZNK3r2p10SpinEvent_10get_thread
 664      0080AFF3 
 664      0080AFF3 
ARM GAS  /tmp/ccB5ynkg.s 			page 13


 664      0080
 665              		.align	2
 666              		.p2align 4,,15
 667              		.weak	_ZNK3r2p10SpinEvent_10get_threadEv
 668              		.thumb
 669              		.thumb_func
 670              		.type	_ZNK3r2p10SpinEvent_10get_threadEv, %function
 671              	_ZNK3r2p10SpinEvent_10get_threadEv:
 672              	.LFB354:
 673              		.file 10 "/home/ergae/r2p-sdk/core/Middleware/port/chibios/include/r2p/impl/SpinEvent_.hpp"
 674              		.loc 10 36 0
 675              		.cfi_startproc
 676              		@ args = 0, pretend = 0, frame = 8
 677              		@ frame_needed = 0, uses_anonymous_args = 0
 678              		@ link register save eliminated.
 679 0000 82B0     		sub	sp, sp, #8
 680              		.cfi_def_cfa_offset 8
 681 0002 0190     		str	r0, [sp, #4]
 682              		.loc 10 38 0
 683 0004 019B     		ldr	r3, [sp, #4]
 684 0006 1B68     		ldr	r3, [r3]
 685              		.loc 10 39 0
 686 0008 1846     		mov	r0, r3
 687 000a 02B0     		add	sp, sp, #8
 688              		.cfi_def_cfa_offset 0
 689              		@ sp needed
 690 000c 7047     		bx	lr
 691              		.cfi_endproc
 692              	.LFE354:
 693              		.size	_ZNK3r2p10SpinEvent_10get_threadEv, .-_ZNK3r2p10SpinEvent_10get_threadEv
 694 000e 00BF     		.section	.text._ZN3r2p10SpinEvent_10set_threadEPNS_6ThreadE,"axG",%progbits,_ZN3r2p10SpinEvent_10s
 695              		.align	2
 696              		.p2align 4,,15
 697              		.weak	_ZN3r2p10SpinEvent_10set_threadEPNS_6ThreadE
 698              		.thumb
 699              		.thumb_func
 700              		.type	_ZN3r2p10SpinEvent_10set_threadEPNS_6ThreadE, %function
 701              	_ZN3r2p10SpinEvent_10set_threadEPNS_6ThreadE:
 702              	.LFB355:
 703              		.loc 10 43 0
 704              		.cfi_startproc
 705              		@ args = 0, pretend = 0, frame = 8
 706              		@ frame_needed = 0, uses_anonymous_args = 0
 707              		@ link register save eliminated.
 708 0000 82B0     		sub	sp, sp, #8
 709              		.cfi_def_cfa_offset 8
 710 0002 0190     		str	r0, [sp, #4]
 711 0004 0091     		str	r1, [sp]
 712              		.loc 10 45 0
 713 0006 019B     		ldr	r3, [sp, #4]
 714 0008 009A     		ldr	r2, [sp]
 715 000a 1A60     		str	r2, [r3]
 716              		.loc 10 46 0
 717 000c 02B0     		add	sp, sp, #8
 718              		.cfi_def_cfa_offset 0
 719              		@ sp needed
 720 000e 7047     		bx	lr
ARM GAS  /tmp/ccB5ynkg.s 			page 14


 721              		.cfi_endproc
 722              	.LFE355:
 723              		.size	_ZN3r2p10SpinEvent_10set_threadEPNS_6ThreadE, .-_ZN3r2p10SpinEvent_10set_threadEPNS_6ThreadE
 724              		.section	.text._ZN3r2p10SpinEvent_13signal_unsafeEj,"axG",%progbits,_ZN3r2p10SpinEvent_13signal_un
 725              		.align	2
 726              		.p2align 4,,15
 727              		.weak	_ZN3r2p10SpinEvent_13signal_unsafeEj
 728              		.thumb
 729              		.thumb_func
 730              		.type	_ZN3r2p10SpinEvent_13signal_unsafeEj, %function
 731              	_ZN3r2p10SpinEvent_13signal_unsafeEj:
 732              	.LFB356:
 733              		.loc 10 50 0
 734              		.cfi_startproc
 735              		@ args = 0, pretend = 0, frame = 8
 736              		@ frame_needed = 0, uses_anonymous_args = 0
 737 0000 00B5     		push	{lr}
 738              		.cfi_def_cfa_offset 4
 739              		.cfi_offset 14, -4
 740 0002 83B0     		sub	sp, sp, #12
 741              		.cfi_def_cfa_offset 16
 742 0004 0190     		str	r0, [sp, #4]
 743 0006 0091     		str	r1, [sp]
 744              		.loc 10 52 0
 745 0008 019B     		ldr	r3, [sp, #4]
 746 000a 1B68     		ldr	r3, [r3]
 747 000c 002B     		cmp	r3, #0
 748 000e 10D0     		beq	.L44
 749              		.loc 10 53 0
 750 0010 2022     		movs	r2, #32
 751 0012 009B     		ldr	r3, [sp]
 752 0014 9A42     		cmp	r2, r3
 753 0016 02D8     		bhi	.L46
 754              		.loc 10 53 0 is_stmt 0 discriminator 1
 755 0018 0748     		ldr	r0, .L47
 756 001a FFF7FEFF 		bl	chDbgPanic
 757              	.L46:
 758              		.loc 10 54 0 is_stmt 1
 759 001e 019B     		ldr	r3, [sp, #4]
 760 0020 1968     		ldr	r1, [r3]
 761 0022 009B     		ldr	r3, [sp]
 762 0024 0122     		movs	r2, #1
 763 0026 02FA03F3 		lsl	r3, r2, r3
 764 002a 0846     		mov	r0, r1
 765 002c 1946     		mov	r1, r3
 766 002e FFF7FEFF 		bl	chEvtSignalI
 767              	.L44:
 768              		.loc 10 56 0
 769 0032 03B0     		add	sp, sp, #12
 770              		.cfi_def_cfa_offset 4
 771              		@ sp needed
 772 0034 5DF804FB 		ldr	pc, [sp], #4
 773              	.L48:
 774              		.align	2
 775              	.L47:
 776 0038 00000000 		.word	.LC0
 777              		.cfi_endproc
ARM GAS  /tmp/ccB5ynkg.s 			page 15


 778              	.LFE356:
 779              		.size	_ZN3r2p10SpinEvent_13signal_unsafeEj, .-_ZN3r2p10SpinEvent_13signal_unsafeEj
 780 003c AFF30080 		.section	.text._ZNK3r2p9SpinEvent10get_threadEv,"axG",%progbits,_ZNK3r2p9SpinEvent10get_threadEv,c
 781              		.align	2
 782              		.p2align 4,,15
 783              		.weak	_ZNK3r2p9SpinEvent10get_threadEv
 784              		.thumb
 785              		.thumb_func
 786              		.type	_ZNK3r2p9SpinEvent10get_threadEv, %function
 787              	_ZNK3r2p9SpinEvent10get_threadEv:
 788              	.LFB362:
 789              		.file 11 "/home/ergae/r2p-sdk/core/Middleware/include/r2p/SpinEvent.hpp"
 790              		.loc 11 35 0
 791              		.cfi_startproc
 792              		@ args = 0, pretend = 0, frame = 8
 793              		@ frame_needed = 0, uses_anonymous_args = 0
 794 0000 00B5     		push	{lr}
 795              		.cfi_def_cfa_offset 4
 796              		.cfi_offset 14, -4
 797 0002 83B0     		sub	sp, sp, #12
 798              		.cfi_def_cfa_offset 16
 799 0004 0190     		str	r0, [sp, #4]
 800              		.loc 11 37 0
 801 0006 019B     		ldr	r3, [sp, #4]
 802 0008 1846     		mov	r0, r3
 803 000a FFF7FEFF 		bl	_ZNK3r2p10SpinEvent_10get_threadEv
 804 000e 0346     		mov	r3, r0
 805              		.loc 11 38 0
 806 0010 1846     		mov	r0, r3
 807 0012 03B0     		add	sp, sp, #12
 808              		.cfi_def_cfa_offset 4
 809              		@ sp needed
 810 0014 5DF804FB 		ldr	pc, [sp], #4
 811              		.cfi_endproc
 812              	.LFE362:
 813              		.size	_ZNK3r2p9SpinEvent10get_threadEv, .-_ZNK3r2p9SpinEvent10get_threadEv
 814 0018 AFF30080 		.section	.text._ZN3r2p9SpinEvent10set_threadEPNS_6ThreadE,"axG",%progbits,_ZN3r2p9SpinEvent10set_t
 814      AFF30080 
 815              		.align	2
 816              		.p2align 4,,15
 817              		.weak	_ZN3r2p9SpinEvent10set_threadEPNS_6ThreadE
 818              		.thumb
 819              		.thumb_func
 820              		.type	_ZN3r2p9SpinEvent10set_threadEPNS_6ThreadE, %function
 821              	_ZN3r2p9SpinEvent10set_threadEPNS_6ThreadE:
 822              	.LFB363:
 823              		.loc 11 42 0
 824              		.cfi_startproc
 825              		@ args = 0, pretend = 0, frame = 8
 826              		@ frame_needed = 0, uses_anonymous_args = 0
 827 0000 00B5     		push	{lr}
 828              		.cfi_def_cfa_offset 4
 829              		.cfi_offset 14, -4
 830 0002 83B0     		sub	sp, sp, #12
 831              		.cfi_def_cfa_offset 16
 832 0004 0190     		str	r0, [sp, #4]
 833 0006 0091     		str	r1, [sp]
ARM GAS  /tmp/ccB5ynkg.s 			page 16


 834              		.loc 11 44 0
 835 0008 019B     		ldr	r3, [sp, #4]
 836 000a 1846     		mov	r0, r3
 837 000c 0099     		ldr	r1, [sp]
 838 000e FFF7FEFF 		bl	_ZN3r2p10SpinEvent_10set_threadEPNS_6ThreadE
 839              		.loc 11 45 0
 840 0012 03B0     		add	sp, sp, #12
 841              		.cfi_def_cfa_offset 4
 842              		@ sp needed
 843 0014 5DF804FB 		ldr	pc, [sp], #4
 844              		.cfi_endproc
 845              	.LFE363:
 846              		.size	_ZN3r2p9SpinEvent10set_threadEPNS_6ThreadE, .-_ZN3r2p9SpinEvent10set_threadEPNS_6ThreadE
 847 0018 AFF30080 		.section	.text._ZN3r2p9SpinEvent13signal_unsafeEj,"axG",%progbits,_ZN3r2p9SpinEvent13signal_unsafe
 847      AFF30080 
 848              		.align	2
 849              		.p2align 4,,15
 850              		.weak	_ZN3r2p9SpinEvent13signal_unsafeEj
 851              		.thumb
 852              		.thumb_func
 853              		.type	_ZN3r2p9SpinEvent13signal_unsafeEj, %function
 854              	_ZN3r2p9SpinEvent13signal_unsafeEj:
 855              	.LFB364:
 856              		.loc 11 49 0
 857              		.cfi_startproc
 858              		@ args = 0, pretend = 0, frame = 8
 859              		@ frame_needed = 0, uses_anonymous_args = 0
 860 0000 00B5     		push	{lr}
 861              		.cfi_def_cfa_offset 4
 862              		.cfi_offset 14, -4
 863 0002 83B0     		sub	sp, sp, #12
 864              		.cfi_def_cfa_offset 16
 865 0004 0190     		str	r0, [sp, #4]
 866 0006 0091     		str	r1, [sp]
 867              		.loc 11 51 0
 868 0008 019B     		ldr	r3, [sp, #4]
 869 000a 1846     		mov	r0, r3
 870 000c 0099     		ldr	r1, [sp]
 871 000e FFF7FEFF 		bl	_ZN3r2p10SpinEvent_13signal_unsafeEj
 872              		.loc 11 52 0
 873 0012 03B0     		add	sp, sp, #12
 874              		.cfi_def_cfa_offset 4
 875              		@ sp needed
 876 0014 5DF804FB 		ldr	pc, [sp], #4
 877              		.cfi_endproc
 878              	.LFE364:
 879              		.size	_ZN3r2p9SpinEvent13signal_unsafeEj, .-_ZN3r2p9SpinEvent13signal_unsafeEj
 880 0018 AFF30080 		.section	.text._ZNK3r2p4Node11get_enabledEv,"axG",%progbits,_ZNK3r2p4Node11get_enabledEv,comdat
 880      AFF30080 
 881              		.align	2
 882              		.p2align 4,,15
 883              		.weak	_ZNK3r2p4Node11get_enabledEv
 884              		.thumb
 885              		.thumb_func
 886              		.type	_ZNK3r2p4Node11get_enabledEv, %function
 887              	_ZNK3r2p4Node11get_enabledEv:
 888              	.LFB381:
ARM GAS  /tmp/ccB5ynkg.s 			page 17


 889              		.file 12 "/home/ergae/r2p-sdk/core/Middleware/include/r2p/Node.hpp"
 890              		.loc 12 103 0
 891              		.cfi_startproc
 892              		@ args = 0, pretend = 0, frame = 8
 893              		@ frame_needed = 0, uses_anonymous_args = 0
 894 0000 00B5     		push	{lr}
 895              		.cfi_def_cfa_offset 4
 896              		.cfi_offset 14, -4
 897 0002 83B0     		sub	sp, sp, #12
 898              		.cfi_def_cfa_offset 16
 899 0004 0190     		str	r0, [sp, #4]
 900              		.loc 12 105 0
 901 0006 019B     		ldr	r3, [sp, #4]
 902 0008 0C33     		adds	r3, r3, #12
 903 000a 1846     		mov	r0, r3
 904 000c FFF7FEFF 		bl	_ZNK3r2p9SpinEvent10get_threadEv
 905 0010 0346     		mov	r3, r0
 906 0012 002B     		cmp	r3, #0
 907 0014 14BF     		ite	ne
 908 0016 0123     		movne	r3, #1
 909 0018 0023     		moveq	r3, #0
 910 001a DBB2     		uxtb	r3, r3
 911              		.loc 12 106 0
 912 001c 1846     		mov	r0, r3
 913 001e 03B0     		add	sp, sp, #12
 914              		.cfi_def_cfa_offset 4
 915              		@ sp needed
 916 0020 5DF804FB 		ldr	pc, [sp], #4
 917              		.cfi_endproc
 918              	.LFE381:
 919              		.size	_ZNK3r2p4Node11get_enabledEv, .-_ZNK3r2p4Node11get_enabledEv
 920 0024 AFF30080 		.section	.text._ZN3r2p4Node11set_enabledEb,"axG",%progbits,_ZN3r2p4Node11set_enabledEb,comdat
 920      AFF30080 
 920      AFF30080 
 921              		.align	2
 922              		.p2align 4,,15
 923              		.weak	_ZN3r2p4Node11set_enabledEb
 924              		.thumb
 925              		.thumb_func
 926              		.type	_ZN3r2p4Node11set_enabledEb, %function
 927              	_ZN3r2p4Node11set_enabledEb:
 928              	.LFB382:
 929              		.loc 12 110 0
 930              		.cfi_startproc
 931              		@ args = 0, pretend = 0, frame = 8
 932              		@ frame_needed = 0, uses_anonymous_args = 0
 933 0000 10B5     		push	{r4, lr}
 934              		.cfi_def_cfa_offset 8
 935              		.cfi_offset 4, -8
 936              		.cfi_offset 14, -4
 937 0002 82B0     		sub	sp, sp, #8
 938              		.cfi_def_cfa_offset 16
 939 0004 0190     		str	r0, [sp, #4]
 940 0006 0B46     		mov	r3, r1
 941 0008 8DF80330 		strb	r3, [sp, #3]
 942              		.loc 12 112 0
 943 000c 019B     		ldr	r3, [sp, #4]
ARM GAS  /tmp/ccB5ynkg.s 			page 18


 944 000e 03F10C04 		add	r4, r3, #12
 945 0012 9DF80330 		ldrb	r3, [sp, #3]	@ zero_extendqisi2
 946 0016 002B     		cmp	r3, #0
 947 0018 03D0     		beq	.L56
 948              		.loc 12 112 0 is_stmt 0 discriminator 1
 949 001a FFF7FEFF 		bl	_ZN3r2p6Thread4selfEv
 950 001e 0346     		mov	r3, r0
 951 0020 00E0     		b	.L57
 952              	.L56:
 953              		.loc 12 112 0 discriminator 2
 954 0022 0023     		movs	r3, #0
 955              	.L57:
 956              		.loc 12 112 0 discriminator 4
 957 0024 2046     		mov	r0, r4
 958 0026 1946     		mov	r1, r3
 959 0028 FFF7FEFF 		bl	_ZN3r2p9SpinEvent10set_threadEPNS_6ThreadE
 960              		.loc 12 113 0 is_stmt 1 discriminator 4
 961 002c 02B0     		add	sp, sp, #8
 962              		.cfi_def_cfa_offset 8
 963              		@ sp needed
 964 002e 10BD     		pop	{r4, pc}
 965              		.cfi_endproc
 966              	.LFE382:
 967              		.size	_ZN3r2p4Node11set_enabledEb, .-_ZN3r2p4Node11set_enabledEb
 968              		.section	.text._ZN3r2p4Node13notify_unsafeEj,"axG",%progbits,_ZN3r2p4Node13notify_unsafeEj,comdat
 969              		.align	2
 970              		.p2align 4,,15
 971              		.weak	_ZN3r2p4Node13notify_unsafeEj
 972              		.thumb
 973              		.thumb_func
 974              		.type	_ZN3r2p4Node13notify_unsafeEj, %function
 975              	_ZN3r2p4Node13notify_unsafeEj:
 976              	.LFB386:
 977              		.loc 12 140 0
 978              		.cfi_startproc
 979              		@ args = 0, pretend = 0, frame = 8
 980              		@ frame_needed = 0, uses_anonymous_args = 0
 981 0000 00B5     		push	{lr}
 982              		.cfi_def_cfa_offset 4
 983              		.cfi_offset 14, -4
 984 0002 83B0     		sub	sp, sp, #12
 985              		.cfi_def_cfa_offset 16
 986 0004 0190     		str	r0, [sp, #4]
 987 0006 0091     		str	r1, [sp]
 988              		.loc 12 142 0
 989 0008 019B     		ldr	r3, [sp, #4]
 990 000a 0C33     		adds	r3, r3, #12
 991 000c 1846     		mov	r0, r3
 992 000e 0099     		ldr	r1, [sp]
 993 0010 FFF7FEFF 		bl	_ZN3r2p9SpinEvent13signal_unsafeEj
 994              		.loc 12 143 0
 995 0014 03B0     		add	sp, sp, #12
 996              		.cfi_def_cfa_offset 4
 997              		@ sp needed
 998 0016 5DF804FB 		ldr	pc, [sp], #4
 999              		.cfi_endproc
 1000              	.LFE386:
ARM GAS  /tmp/ccB5ynkg.s 			page 19


 1001              		.size	_ZN3r2p4Node13notify_unsafeEj, .-_ZN3r2p4Node13notify_unsafeEj
 1002 001a 00BFAFF3 		.section	.text._ZNK3r2p15LocalSubscriber16get_queue_lengthEv,"axG",%progbits,_ZNK3r2p15LocalSubscr
 1002      0080
 1003              		.align	2
 1004              		.p2align 4,,15
 1005              		.weak	_ZNK3r2p15LocalSubscriber16get_queue_lengthEv
 1006              		.thumb
 1007              		.thumb_func
 1008              		.type	_ZNK3r2p15LocalSubscriber16get_queue_lengthEv, %function
 1009              	_ZNK3r2p15LocalSubscriber16get_queue_lengthEv:
 1010              	.LFB392:
 1011              		.file 13 "/home/ergae/r2p-sdk/core/Middleware/include/r2p/LocalSubscriber.hpp"
 1012              		.loc 13 64 0
 1013              		.cfi_startproc
 1014              		@ args = 0, pretend = 0, frame = 8
 1015              		@ frame_needed = 0, uses_anonymous_args = 0
 1016 0000 00B5     		push	{lr}
 1017              		.cfi_def_cfa_offset 4
 1018              		.cfi_offset 14, -4
 1019 0002 83B0     		sub	sp, sp, #12
 1020              		.cfi_def_cfa_offset 16
 1021 0004 0190     		str	r0, [sp, #4]
 1022              		.loc 13 66 0
 1023 0006 019B     		ldr	r3, [sp, #4]
 1024 0008 1033     		adds	r3, r3, #16
 1025 000a 1846     		mov	r0, r3
 1026 000c FFF7FEFF 		bl	_ZNK3r2p10ArrayQueueIPNS_7MessageEE10get_lengthEv
 1027 0010 0346     		mov	r3, r0
 1028              		.loc 13 67 0
 1029 0012 1846     		mov	r0, r3
 1030 0014 03B0     		add	sp, sp, #12
 1031              		.cfi_def_cfa_offset 4
 1032              		@ sp needed
 1033 0016 5DF804FB 		ldr	pc, [sp], #4
 1034              		.cfi_endproc
 1035              	.LFE392:
 1036              		.size	_ZNK3r2p15LocalSubscriber16get_queue_lengthEv, .-_ZNK3r2p15LocalSubscriber16get_queue_length
 1037 001a 00BFAFF3 		.section	.text._ZN3r2p15LocalSubscriber12fetch_unsafeERPNS_7MessageERNS_4TimeE,"axG",%progbits,_ZN
 1037      0080
 1038              		.align	2
 1039              		.p2align 4,,15
 1040              		.weak	_ZN3r2p15LocalSubscriber12fetch_unsafeERPNS_7MessageERNS_4TimeE
 1041              		.thumb
 1042              		.thumb_func
 1043              		.type	_ZN3r2p15LocalSubscriber12fetch_unsafeERPNS_7MessageERNS_4TimeE, %function
 1044              	_ZN3r2p15LocalSubscriber12fetch_unsafeERPNS_7MessageERNS_4TimeE:
 1045              	.LFB393:
 1046              		.loc 13 71 0
 1047              		.cfi_startproc
 1048              		@ args = 0, pretend = 0, frame = 24
 1049              		@ frame_needed = 0, uses_anonymous_args = 0
 1050 0000 00B5     		push	{lr}
 1051              		.cfi_def_cfa_offset 4
 1052              		.cfi_offset 14, -4
 1053 0002 87B0     		sub	sp, sp, #28
 1054              		.cfi_def_cfa_offset 32
 1055 0004 0390     		str	r0, [sp, #12]
ARM GAS  /tmp/ccB5ynkg.s 			page 20


 1056 0006 0291     		str	r1, [sp, #8]
 1057 0008 0192     		str	r2, [sp, #4]
 1058              		.loc 13 73 0
 1059 000a 039B     		ldr	r3, [sp, #12]
 1060 000c 1033     		adds	r3, r3, #16
 1061 000e 1846     		mov	r0, r3
 1062 0010 0299     		ldr	r1, [sp, #8]
 1063 0012 FFF7FEFF 		bl	_ZN3r2p10ArrayQueueIPNS_7MessageEE12fetch_unsafeERS2_
 1064 0016 0346     		mov	r3, r0
 1065 0018 002B     		cmp	r3, #0
 1066 001a 0AD0     		beq	.L62
 1067              		.loc 13 74 0
 1068 001c 05AB     		add	r3, sp, #20
 1069 001e 1846     		mov	r0, r3
 1070 0020 FFF7FEFF 		bl	_ZN3r2p4Time3nowEv
 1071 0024 05AB     		add	r3, sp, #20
 1072 0026 0198     		ldr	r0, [sp, #4]
 1073 0028 1946     		mov	r1, r3
 1074 002a FFF7FEFF 		bl	_ZN3r2p4TimeaSERKS0_
 1075              		.loc 13 75 0
 1076 002e 0123     		movs	r3, #1
 1077 0030 00E0     		b	.L63
 1078              	.L62:
 1079              		.loc 13 77 0
 1080 0032 0023     		movs	r3, #0
 1081              	.L63:
 1082              		.loc 13 78 0
 1083 0034 1846     		mov	r0, r3
 1084 0036 07B0     		add	sp, sp, #28
 1085              		.cfi_def_cfa_offset 4
 1086              		@ sp needed
 1087 0038 5DF804FB 		ldr	pc, [sp], #4
 1088              		.cfi_endproc
 1089              	.LFE393:
 1090              		.size	_ZN3r2p15LocalSubscriber12fetch_unsafeERPNS_7MessageERNS_4TimeE, .-_ZN3r2p15LocalSubscriber1
 1091 003c AFF30080 		.section	.text._ZN3r2p15LocalSubscriber13notify_unsafeERNS_7MessageERKNS_4TimeE,"axG",%progbits,_Z
 1092              		.align	2
 1093              		.p2align 4,,15
 1094              		.weak	_ZN3r2p15LocalSubscriber13notify_unsafeERNS_7MessageERKNS_4TimeE
 1095              		.thumb
 1096              		.thumb_func
 1097              		.type	_ZN3r2p15LocalSubscriber13notify_unsafeERNS_7MessageERKNS_4TimeE, %function
 1098              	_ZN3r2p15LocalSubscriber13notify_unsafeERNS_7MessageERKNS_4TimeE:
 1099              	.LFB394:
 1100              		.loc 13 82 0
 1101              		.cfi_startproc
 1102              		@ args = 0, pretend = 0, frame = 16
 1103              		@ frame_needed = 0, uses_anonymous_args = 0
 1104 0000 00B5     		push	{lr}
 1105              		.cfi_def_cfa_offset 4
 1106              		.cfi_offset 14, -4
 1107 0002 85B0     		sub	sp, sp, #20
 1108              		.cfi_def_cfa_offset 24
 1109 0004 0390     		str	r0, [sp, #12]
 1110 0006 0291     		str	r1, [sp, #8]
 1111 0008 0192     		str	r2, [sp, #4]
 1112              		.loc 13 86 0
ARM GAS  /tmp/ccB5ynkg.s 			page 21


 1113 000a 039B     		ldr	r3, [sp, #12]
 1114 000c 9B68     		ldr	r3, [r3, #8]
 1115 000e 1846     		mov	r0, r3
 1116 0010 FFF7FEFF 		bl	_ZNK3r2p4Node11get_enabledEv
 1117 0014 0346     		mov	r3, r0
 1118 0016 002B     		cmp	r3, #0
 1119 0018 0AD0     		beq	.L65
 1120              		.loc 13 86 0 is_stmt 0 discriminator 1
 1121 001a 039B     		ldr	r3, [sp, #12]
 1122 001c 1033     		adds	r3, r3, #16
 1123 001e 1846     		mov	r0, r3
 1124 0020 0299     		ldr	r1, [sp, #8]
 1125 0022 FFF7FEFF 		bl	_ZN3r2p10ArrayQueueIPNS_7MessageEE11post_unsafeES2_
 1126 0026 0346     		mov	r3, r0
 1127 0028 002B     		cmp	r3, #0
 1128 002a 01D0     		beq	.L65
 1129              		.loc 13 86 0 discriminator 3
 1130 002c 0123     		movs	r3, #1
 1131 002e 00E0     		b	.L66
 1132              	.L65:
 1133              		.loc 13 86 0 discriminator 4
 1134 0030 0023     		movs	r3, #0
 1135              	.L66:
 1136              		.loc 13 86 0 discriminator 6
 1137 0032 002B     		cmp	r3, #0
 1138 0034 0AD0     		beq	.L67
 1139              		.loc 13 87 0 is_stmt 1
 1140 0036 039B     		ldr	r3, [sp, #12]
 1141 0038 9A68     		ldr	r2, [r3, #8]
 1142 003a 039B     		ldr	r3, [sp, #12]
 1143 003c 93F82430 		ldrb	r3, [r3, #36]	@ zero_extendqisi2
 1144 0040 1046     		mov	r0, r2
 1145 0042 1946     		mov	r1, r3
 1146 0044 FFF7FEFF 		bl	_ZN3r2p4Node13notify_unsafeEj
 1147              		.loc 13 88 0
 1148 0048 0123     		movs	r3, #1
 1149 004a 00E0     		b	.L68
 1150              	.L67:
 1151              		.loc 13 90 0
 1152 004c 0023     		movs	r3, #0
 1153              	.L68:
 1154              		.loc 13 91 0
 1155 004e 1846     		mov	r0, r3
 1156 0050 05B0     		add	sp, sp, #20
 1157              		.cfi_def_cfa_offset 4
 1158              		@ sp needed
 1159 0052 5DF804FB 		ldr	pc, [sp], #4
 1160              		.cfi_endproc
 1161              	.LFE394:
 1162              		.size	_ZN3r2p15LocalSubscriber13notify_unsafeERNS_7MessageERKNS_4TimeE, .-_ZN3r2p15LocalSubscriber
 1163 0056 00BFAFF3 		.section	.text._ZN3r2p5Topic12alloc_unsafeEv,"axG",%progbits,_ZN3r2p5Topic12alloc_unsafeEv,comdat
 1163      0080AFF3 
 1163      0080
 1164              		.align	2
 1165              		.p2align 4,,15
 1166              		.weak	_ZN3r2p5Topic12alloc_unsafeEv
 1167              		.thumb
ARM GAS  /tmp/ccB5ynkg.s 			page 22


 1168              		.thumb_func
 1169              		.type	_ZN3r2p5Topic12alloc_unsafeEv, %function
 1170              	_ZN3r2p5Topic12alloc_unsafeEv:
 1171              	.LFB413:
 1172              		.file 14 "/home/ergae/r2p-sdk/core/Middleware/include/r2p/Topic.hpp"
 1173              		.loc 14 250 0
 1174              		.cfi_startproc
 1175              		@ args = 0, pretend = 0, frame = 8
 1176              		@ frame_needed = 0, uses_anonymous_args = 0
 1177 0000 10B5     		push	{r4, lr}
 1178              		.cfi_def_cfa_offset 8
 1179              		.cfi_offset 4, -8
 1180              		.cfi_offset 14, -4
 1181 0002 82B0     		sub	sp, sp, #8
 1182              		.cfi_def_cfa_offset 16
 1183 0004 0190     		str	r0, [sp, #4]
 1184              	.LBB50:
 1185              		.loc 14 252 0
 1186 0006 019B     		ldr	r3, [sp, #4]
 1187 0008 0833     		adds	r3, r3, #8
 1188 000a 1846     		mov	r0, r3
 1189 000c FFF7FEFF 		bl	_ZN3r2p11MemoryPool_12alloc_unsafeEv
 1190 0010 0446     		mov	r4, r0
 1191              		.loc 14 253 0
 1192 0012 002C     		cmp	r4, #0
 1193 0014 04D0     		beq	.L70
 1194              		.loc 14 254 0
 1195 0016 2046     		mov	r0, r4
 1196 0018 FFF7FEFF 		bl	_ZN3r2p7Message12reset_unsafeEv
 1197              		.loc 14 255 0
 1198 001c 2346     		mov	r3, r4
 1199 001e 00E0     		b	.L71
 1200              	.L70:
 1201              		.loc 14 257 0
 1202 0020 0023     		movs	r3, #0
 1203              	.L71:
 1204              	.LBE50:
 1205              		.loc 14 258 0
 1206 0022 1846     		mov	r0, r3
 1207 0024 02B0     		add	sp, sp, #8
 1208              		.cfi_def_cfa_offset 8
 1209              		@ sp needed
 1210 0026 10BD     		pop	{r4, pc}
 1211              		.cfi_endproc
 1212              	.LFE413:
 1213              		.size	_ZN3r2p5Topic12alloc_unsafeEv, .-_ZN3r2p5Topic12alloc_unsafeEv
 1214              		.global	vel_node
 1215 0028 AFF30080 		.section	.bss.vel_node,"aw",%nobits
 1215      AFF30080 
 1216              		.align	2
 1217              		.type	vel_node, %object
 1218              		.size	vel_node, 28
 1219              	vel_node:
 1220 0000 00000000 		.space	28
 1220      00000000 
 1220      00000000 
 1220      00000000 
ARM GAS  /tmp/ccB5ynkg.s 			page 23


 1220      00000000 
 1221              		.global	vel_pub
 1222              		.section	.bss.vel_pub,"aw",%nobits
 1223              		.align	2
 1224              		.type	vel_pub, %object
 1225              		.size	vel_pub, 16
 1226              	vel_pub:
 1227 0000 00000000 		.space	16
 1227      00000000 
 1227      00000000 
 1227      00000000 
 1228              		.global	speed_first_time
 1229              		.section	.data.speed_first_time,"aw",%progbits
 1230              		.type	speed_first_time, %object
 1231              		.size	speed_first_time, 1
 1232              	speed_first_time:
 1233 0000 01       		.byte	1
 1234              		.global	pidcfg_node
 1235              		.section	.bss.pidcfg_node,"aw",%nobits
 1236              		.align	2
 1237              		.type	pidcfg_node, %object
 1238              		.size	pidcfg_node, 28
 1239              	pidcfg_node:
 1240 0000 00000000 		.space	28
 1240      00000000 
 1240      00000000 
 1240      00000000 
 1240      00000000 
 1241              		.global	pidcfg_pub
 1242              		.section	.bss.pidcfg_pub,"aw",%nobits
 1243              		.align	2
 1244              		.type	pidcfg_pub, %object
 1245              		.size	pidcfg_pub, 16
 1246              	pidcfg_pub:
 1247 0000 00000000 		.space	16
 1247      00000000 
 1247      00000000 
 1247      00000000 
 1248              		.global	pidcfg_first_time
 1249              		.section	.data.pidcfg_first_time,"aw",%progbits
 1250              		.type	pidcfg_first_time, %object
 1251              		.size	pidcfg_first_time, 1
 1252              	pidcfg_first_time:
 1253 0000 01       		.byte	1
 1254              		.global	pixy_node
 1255              		.section	.bss.pixy_node,"aw",%nobits
 1256              		.align	2
 1257              		.type	pixy_node, %object
 1258              		.size	pixy_node, 28
 1259              	pixy_node:
 1260 0000 00000000 		.space	28
 1260      00000000 
 1260      00000000 
 1260      00000000 
 1260      00000000 
 1261              		.global	pixy_sub
 1262              		.section	.bss.pixy_sub,"aw",%nobits
ARM GAS  /tmp/ccB5ynkg.s 			page 24


 1263              		.align	2
 1264              		.type	pixy_sub, %object
 1265              		.size	pixy_sub, 156
 1266              	pixy_sub:
 1267 0000 00000000 		.space	156
 1267      00000000 
 1267      00000000 
 1267      00000000 
 1267      00000000 
 1268              		.global	pixy_first_time
 1269              		.section	.data.pixy_first_time,"aw",%progbits
 1270              		.type	pixy_first_time, %object
 1271              		.size	pixy_first_time, 1
 1272              	pixy_first_time:
 1273 0000 01       		.byte	1
 1274              		.global	serialp
 1275              		.section	.bss.serialp,"aw",%nobits
 1276              		.align	2
 1277              		.type	serialp, %object
 1278              		.size	serialp, 4
 1279              	serialp:
 1280 0000 00000000 		.space	4
 1281              		.global	stream_enc
 1282              		.section	.bss.stream_enc,"aw",%nobits
 1283              		.type	stream_enc, %object
 1284              		.size	stream_enc, 1
 1285              	stream_enc:
 1286 0000 00       		.space	1
 1287              		.section	.text._Z22usb_lld_disconnect_busP9USBDriver,"ax",%progbits
 1288              		.align	2
 1289              		.p2align 4,,15
 1290              		.global	_Z22usb_lld_disconnect_busP9USBDriver
 1291              		.thumb
 1292              		.thumb_func
 1293              		.type	_Z22usb_lld_disconnect_busP9USBDriver, %function
 1294              	_Z22usb_lld_disconnect_busP9USBDriver:
 1295              	.LFB598:
 1296              		.file 15 "nodes/shell_node.cpp"
 1297              		.loc 15 86 0
 1298              		.cfi_startproc
 1299              		@ args = 0, pretend = 0, frame = 8
 1300              		@ frame_needed = 0, uses_anonymous_args = 0
 1301 0000 00B5     		push	{lr}
 1302              		.cfi_def_cfa_offset 4
 1303              		.cfi_offset 14, -4
 1304 0002 83B0     		sub	sp, sp, #12
 1305              		.cfi_def_cfa_offset 16
 1306 0004 0190     		str	r0, [sp, #4]
 1307              		.loc 15 89 0
 1308 0006 4FF09043 		mov	r3, #1207959552
 1309 000a 4FF4C052 		mov	r2, #6144
 1310 000e 5A83     		strh	r2, [r3, #26]	@ movhi
 1311              		.loc 15 90 0
 1312 0010 4FF09040 		mov	r0, #1207959552
 1313 0014 4FF40061 		mov	r1, #2048
 1314 0018 0122     		movs	r2, #1
 1315 001a FFF7FEFF 		bl	_pal_lld_setgroupmode
ARM GAS  /tmp/ccB5ynkg.s 			page 25


 1316              		.loc 15 91 0
 1317 001e 4FF09040 		mov	r0, #1207959552
 1318 0022 4FF48051 		mov	r1, #4096
 1319 0026 0122     		movs	r2, #1
 1320 0028 FFF7FEFF 		bl	_pal_lld_setgroupmode
 1321              		.loc 15 92 0
 1322 002c 03B0     		add	sp, sp, #12
 1323              		.cfi_def_cfa_offset 4
 1324              		@ sp needed
 1325 002e 5DF804FB 		ldr	pc, [sp], #4
 1326              		.cfi_endproc
 1327              	.LFE598:
 1328              		.size	_Z22usb_lld_disconnect_busP9USBDriver, .-_Z22usb_lld_disconnect_busP9USBDriver
 1329 0032 00BFAFF3 		.section	.text._Z19usb_lld_connect_busP9USBDriver,"ax",%progbits
 1329      0080AFF3 
 1329      0080AFF3 
 1329      0080
 1330              		.align	2
 1331              		.p2align 4,,15
 1332              		.global	_Z19usb_lld_connect_busP9USBDriver
 1333              		.thumb
 1334              		.thumb_func
 1335              		.type	_Z19usb_lld_connect_busP9USBDriver, %function
 1336              	_Z19usb_lld_connect_busP9USBDriver:
 1337              	.LFB599:
 1338              		.loc 15 94 0
 1339              		.cfi_startproc
 1340              		@ args = 0, pretend = 0, frame = 8
 1341              		@ frame_needed = 0, uses_anonymous_args = 0
 1342 0000 00B5     		push	{lr}
 1343              		.cfi_def_cfa_offset 4
 1344              		.cfi_offset 14, -4
 1345 0002 83B0     		sub	sp, sp, #12
 1346              		.cfi_def_cfa_offset 16
 1347 0004 0190     		str	r0, [sp, #4]
 1348              		.loc 15 97 0
 1349 0006 4FF09043 		mov	r3, #1207959552
 1350 000a 4FF4C052 		mov	r2, #6144
 1351 000e 5A83     		strh	r2, [r3, #26]	@ movhi
 1352              		.loc 15 98 0
 1353 0010 4FF09040 		mov	r0, #1207959552
 1354 0014 4FF40061 		mov	r1, #2048
 1355 0018 40F20272 		movw	r2, #1794
 1356 001c FFF7FEFF 		bl	_pal_lld_setgroupmode
 1357              		.loc 15 99 0
 1358 0020 4FF09040 		mov	r0, #1207959552
 1359 0024 4FF48051 		mov	r1, #4096
 1360 0028 40F20272 		movw	r2, #1794
 1361 002c FFF7FEFF 		bl	_pal_lld_setgroupmode
 1362              		.loc 15 100 0
 1363 0030 03B0     		add	sp, sp, #12
 1364              		.cfi_def_cfa_offset 4
 1365              		@ sp needed
 1366 0032 5DF804FB 		ldr	pc, [sp], #4
 1367              		.cfi_endproc
 1368              	.LFE599:
 1369              		.size	_Z19usb_lld_connect_busP9USBDriver, .-_Z19usb_lld_connect_busP9USBDriver
ARM GAS  /tmp/ccB5ynkg.s 			page 26


 1370 0036 00BFAFF3 		.section	.rodata
 1370      0080AFF3 
 1370      0080
 1371 000d 000000   		.align	2
 1372              	.LC1:
 1373 0010 55736167 		.ascii	"Usage: run <forward> <strafe> <angular>\015\012\000"
 1373      653A2072 
 1373      756E203C 
 1373      666F7277 
 1373      6172643E 
 1374 003a 0000     		.align	2
 1375              	.LC2:
 1376 003c 73706565 		.ascii	"speed3\000"
 1376      643300
 1377              		.global	__aeabi_d2f
 1378              		.global	__aeabi_f2d
 1379 0043 00       		.align	2
 1380              	.LC3:
 1381 0044 53455450 		.ascii	"SETPOINT: %f %f %f\015\012\000"
 1381      4F494E54 
 1381      3A202566 
 1381      20256620 
 1381      25660D0A 
 1382              		.section	.text._ZL7cmd_runP20BaseSequentialStreamiPPc,"ax",%progbits
 1383              		.align	2
 1384              		.p2align 4,,15
 1385              		.thumb
 1386              		.thumb_func
 1387              		.type	_ZL7cmd_runP20BaseSequentialStreamiPPc, %function
 1388              	_ZL7cmd_runP20BaseSequentialStreamiPPc:
 1389              	.LFB600:
 1390              		.loc 15 108 0
 1391              		.cfi_startproc
 1392              		@ args = 0, pretend = 0, frame = 56
 1393              		@ frame_needed = 0, uses_anonymous_args = 0
 1394 0000 F0B5     		push	{r4, r5, r6, r7, lr}
 1395              		.cfi_def_cfa_offset 20
 1396              		.cfi_offset 4, -20
 1397              		.cfi_offset 5, -16
 1398              		.cfi_offset 6, -12
 1399              		.cfi_offset 7, -8
 1400              		.cfi_offset 14, -4
 1401 0002 93B0     		sub	sp, sp, #76
 1402              		.cfi_def_cfa_offset 96
 1403 0004 0790     		str	r0, [sp, #28]
 1404 0006 0691     		str	r1, [sp, #24]
 1405 0008 0592     		str	r2, [sp, #20]
 1406              	.LBB51:
 1407              		.loc 15 113 0
 1408 000a 069B     		ldr	r3, [sp, #24]
 1409 000c 032B     		cmp	r3, #3
 1410 000e 04D0     		beq	.L75
 1411              		.loc 15 114 0
 1412 0010 0798     		ldr	r0, [sp, #28]
 1413 0012 7C49     		ldr	r1, .L79
 1414 0014 FFF7FEFF 		bl	_ZL8chprintfP20BaseSequentialStreamPKcz
 1415 0018 F1E0     		b	.L74
ARM GAS  /tmp/ccB5ynkg.s 			page 27


 1416              	.L75:
 1417              		.loc 15 118 0
 1418 001a 7B48     		ldr	r0, .L79+4
 1419 001c 0121     		movs	r1, #1
 1420 001e FFF7FEFF 		bl	_ZN3r2p4Node11set_enabledEb
 1421              		.loc 15 120 0
 1422 0022 7A4B     		ldr	r3, .L79+8
 1423 0024 1B78     		ldrb	r3, [r3]	@ zero_extendqisi2
 1424 0026 002B     		cmp	r3, #0
 1425 0028 08D0     		beq	.L77
 1426              		.loc 15 121 0
 1427 002a 7748     		ldr	r0, .L79+4
 1428 002c 7849     		ldr	r1, .L79+12
 1429 002e 794A     		ldr	r2, .L79+16
 1430 0030 794B     		ldr	r3, .L79+20
 1431 0032 FFF7FEFF 		bl	_ZN3r2p4Node9advertiseINS_9Speed3MsgEEEbRNS_9PublisherIT_EEPKcRKNS_4TimeE
 1432              		.loc 15 122 0
 1433 0036 754B     		ldr	r3, .L79+8
 1434 0038 0022     		movs	r2, #0
 1435 003a 1A70     		strb	r2, [r3]
 1436              	.L77:
 1437              		.loc 15 125 0
 1438 003c 059B     		ldr	r3, [sp, #20]
 1439 003e 1B68     		ldr	r3, [r3]
 1440 0040 1846     		mov	r0, r3
 1441 0042 FFF7FEFF 		bl	atof
 1442 0046 53EC102B 		fmrrd	r2, r3, d0
 1443 004a 1046     		mov	r0, r2
 1444 004c 1946     		mov	r1, r3
 1445 004e FFF7FEFF 		bl	__aeabi_d2f
 1446 0052 0346     		mov	r3, r0	@ float
 1447 0054 1193     		str	r3, [sp, #68]	@ float
 1448              		.loc 15 126 0
 1449 0056 059B     		ldr	r3, [sp, #20]
 1450 0058 0433     		adds	r3, r3, #4
 1451 005a 1B68     		ldr	r3, [r3]
 1452 005c 1846     		mov	r0, r3
 1453 005e FFF7FEFF 		bl	atof
 1454 0062 53EC102B 		fmrrd	r2, r3, d0
 1455 0066 1046     		mov	r0, r2
 1456 0068 1946     		mov	r1, r3
 1457 006a FFF7FEFF 		bl	__aeabi_d2f
 1458 006e 0346     		mov	r3, r0	@ float
 1459 0070 1093     		str	r3, [sp, #64]	@ float
 1460              		.loc 15 127 0
 1461 0072 059B     		ldr	r3, [sp, #20]
 1462 0074 0833     		adds	r3, r3, #8
 1463 0076 1B68     		ldr	r3, [r3]
 1464 0078 1846     		mov	r0, r3
 1465 007a FFF7FEFF 		bl	atof
 1466 007e 53EC102B 		fmrrd	r2, r3, d0
 1467 0082 1046     		mov	r0, r2
 1468 0084 1946     		mov	r1, r3
 1469 0086 FFF7FEFF 		bl	__aeabi_d2f
 1470 008a 0346     		mov	r3, r0	@ float
 1471 008c 0F93     		str	r3, [sp, #60]	@ float
 1472              		.loc 15 130 0
ARM GAS  /tmp/ccB5ynkg.s 			page 28


 1473 008e DDED0F7A 		flds	s15, [sp, #60]
 1474 0092 9FED627A 		flds	s14, .L79+24
 1475 0096 67EE877A 		fmuls	s15, s15, s14
 1476 009a CDED0E7A 		fsts	s15, [sp, #56]
 1477              		.loc 15 131 0
 1478 009e DDED107A 		flds	s15, [sp, #64]
 1479 00a2 9FED5F7A 		flds	s14, .L79+28
 1480 00a6 67EE877A 		fmuls	s15, s15, s14
 1481 00aa CDED0D7A 		fsts	s15, [sp, #52]
 1482              		.loc 15 132 0
 1483 00ae DDED117A 		flds	s15, [sp, #68]
 1484 00b2 9FED5C7A 		flds	s14, .L79+32
 1485 00b6 67EE877A 		fmuls	s15, s15, s14
 1486 00ba CDED0C7A 		fsts	s15, [sp, #48]
 1487              		.loc 15 134 0
 1488 00be 9DED0D7A 		flds	s14, [sp, #52]
 1489 00c2 DDED0C7A 		flds	s15, [sp, #48]
 1490 00c6 37EE677A 		fsubs	s14, s14, s15
 1491 00ca DDED0E7A 		flds	s15, [sp, #56]
 1492 00ce 77EE277A 		fadds	s15, s14, s15
 1493 00d2 CDED0B7A 		fsts	s15, [sp, #44]
 1494              		.loc 15 135 0
 1495 00d6 9DED0D7A 		flds	s14, [sp, #52]
 1496 00da DDED0C7A 		flds	s15, [sp, #48]
 1497 00de 37EE277A 		fadds	s14, s14, s15
 1498 00e2 DDED0E7A 		flds	s15, [sp, #56]
 1499 00e6 77EE277A 		fadds	s15, s14, s15
 1500 00ea CDED0A7A 		fsts	s15, [sp, #40]
 1501              		.loc 15 136 0
 1502 00ee DDED107A 		flds	s15, [sp, #64]
 1503 00f2 9FED4D7A 		flds	s14, .L79+36
 1504 00f6 27EE877A 		fmuls	s14, s15, s14
 1505 00fa DDED0E7A 		flds	s15, [sp, #56]
 1506 00fe 77EE277A 		fadds	s15, s14, s15
 1507 0102 CDED097A 		fsts	s15, [sp, #36]
 1508              		.loc 15 139 0
 1509 0106 08AB     		add	r3, sp, #32
 1510 0108 4148     		ldr	r0, .L79+12
 1511 010a 1946     		mov	r1, r3
 1512 010c FFF7FEFF 		bl	_ZN3r2p9PublisherINS_9Speed3MsgEE5allocERPS1_
 1513 0110 0346     		mov	r3, r0
 1514 0112 002B     		cmp	r3, #0
 1515 0114 56D0     		beq	.L78
 1516              		.loc 15 140 0
 1517 0116 089C     		ldr	r4, [sp, #32]
 1518 0118 9FED440A 		flds	s0, .L79+40
 1519 011c DDED0B0A 		flds	s1, [sp, #44]
 1520 0120 9FED431A 		flds	s2, .L79+44
 1521 0124 FFF7FEFF 		bl	_Z5clampIfET_S0_S0_S0_
 1522 0128 F0EE407A 		fcpys	s15, s0
 1523 012c FDEEE77A 		ftosizs	s15, s15
 1524 0130 CDED047A 		fsts	s15, [sp, #16]	@ int
 1525 0134 BDF81030 		ldrh	r3, [sp, #16]	@ movhi
 1526 0138 9BB2     		uxth	r3, r3
 1527 013a 1BB2     		sxth	r3, r3
 1528 013c 07EE903A 		fmsr	s15, r3	@ int
 1529 0140 F8EEE77A 		fsitos	s15, s15
ARM GAS  /tmp/ccB5ynkg.s 			page 29


 1530 0144 A31C     		adds	r3, r4, #2
 1531 0146 17EE902A 		fmrs	r2, s15
 1532 014a 1A60     		str	r2, [r3]	@ unaligned
 1533              		.loc 15 141 0
 1534 014c 089C     		ldr	r4, [sp, #32]
 1535 014e 9FED370A 		flds	s0, .L79+40
 1536 0152 DDED0A0A 		flds	s1, [sp, #40]
 1537 0156 9FED361A 		flds	s2, .L79+44
 1538 015a FFF7FEFF 		bl	_Z5clampIfET_S0_S0_S0_
 1539 015e F0EE407A 		fcpys	s15, s0
 1540 0162 FDEEE77A 		ftosizs	s15, s15
 1541 0166 CDED047A 		fsts	s15, [sp, #16]	@ int
 1542 016a BDF81030 		ldrh	r3, [sp, #16]	@ movhi
 1543 016e 9BB2     		uxth	r3, r3
 1544 0170 1BB2     		sxth	r3, r3
 1545 0172 07EE903A 		fmsr	s15, r3	@ int
 1546 0176 F8EEE77A 		fsitos	s15, s15
 1547 017a A31D     		adds	r3, r4, #6
 1548 017c 17EE902A 		fmrs	r2, s15
 1549 0180 1A60     		str	r2, [r3]	@ unaligned
 1550              		.loc 15 142 0
 1551 0182 089C     		ldr	r4, [sp, #32]
 1552 0184 9FED290A 		flds	s0, .L79+40
 1553 0188 DDED090A 		flds	s1, [sp, #36]
 1554 018c 9FED281A 		flds	s2, .L79+44
 1555 0190 FFF7FEFF 		bl	_Z5clampIfET_S0_S0_S0_
 1556 0194 F0EE407A 		fcpys	s15, s0
 1557 0198 FDEEE77A 		ftosizs	s15, s15
 1558 019c CDED047A 		fsts	s15, [sp, #16]	@ int
 1559 01a0 BDF81030 		ldrh	r3, [sp, #16]	@ movhi
 1560 01a4 9BB2     		uxth	r3, r3
 1561 01a6 1BB2     		sxth	r3, r3
 1562 01a8 07EE903A 		fmsr	s15, r3	@ int
 1563 01ac F8EEE77A 		fsitos	s15, s15
 1564 01b0 04F10A03 		add	r3, r4, #10
 1565 01b4 17EE902A 		fmrs	r2, s15
 1566 01b8 1A60     		str	r2, [r3]	@ unaligned
 1567              		.loc 15 143 0
 1568 01ba 089B     		ldr	r3, [sp, #32]
 1569 01bc 1448     		ldr	r0, .L79+12
 1570 01be 1946     		mov	r1, r3
 1571 01c0 FFF7FEFF 		bl	_ZN3r2p9PublisherINS_9Speed3MsgEE7publishERS1_
 1572              	.L78:
 1573              		.loc 15 146 0
 1574 01c4 0B98     		ldr	r0, [sp, #44]	@ float
 1575 01c6 FFF7FEFF 		bl	__aeabi_f2d
 1576 01ca 0646     		mov	r6, r0
 1577 01cc 0F46     		mov	r7, r1
 1578 01ce 0A98     		ldr	r0, [sp, #40]	@ float
 1579 01d0 FFF7FEFF 		bl	__aeabi_f2d
 1580 01d4 0446     		mov	r4, r0
 1581 01d6 0D46     		mov	r5, r1
 1582 01d8 0998     		ldr	r0, [sp, #36]	@ float
 1583 01da FFF7FEFF 		bl	__aeabi_f2d
 1584 01de 0246     		mov	r2, r0
 1585 01e0 0B46     		mov	r3, r1
 1586 01e2 CDE90045 		strd	r4, [sp]
ARM GAS  /tmp/ccB5ynkg.s 			page 30


 1587 01e6 CDE90223 		strd	r2, [sp, #8]
 1588 01ea 0798     		ldr	r0, [sp, #28]
 1589 01ec 1149     		ldr	r1, .L79+48
 1590 01ee 3246     		mov	r2, r6
 1591 01f0 3B46     		mov	r3, r7
 1592 01f2 FFF7FEFF 		bl	_ZL8chprintfP20BaseSequentialStreamPKcz
 1593              		.loc 15 148 0
 1594 01f6 0448     		ldr	r0, .L79+4
 1595 01f8 0021     		movs	r1, #0
 1596 01fa FFF7FEFF 		bl	_ZN3r2p4Node11set_enabledEb
 1597              	.L74:
 1598              	.LBE51:
 1599              		.loc 15 149 0
 1600 01fe 13B0     		add	sp, sp, #76
 1601              		.cfi_def_cfa_offset 20
 1602              		@ sp needed
 1603 0200 F0BD     		pop	{r4, r5, r6, r7, pc}
 1604              	.L80:
 1605 0202 00BF     		.align	2
 1606              	.L79:
 1607 0204 10000000 		.word	.LC1
 1608 0208 00000000 		.word	vel_node
 1609 020c 00000000 		.word	speed_first_time
 1610 0210 00000000 		.word	vel_pub
 1611 0214 3C000000 		.word	.LC2
 1612 0218 00000000 		.word	_ZN3r2p4Time8INFINITEE
 1613 021c 244992C0 		.word	-1064154844
 1614 0220 49926441 		.word	1097110089
 1615 0224 DBF2C541 		.word	1103491803
 1616 0228 4992E4C1 		.word	-1041984951
 1617 022c 000050C2 		.word	-1034944512
 1618 0230 00005042 		.word	1112539136
 1619 0234 44000000 		.word	.LC3
 1620              		.cfi_endproc
 1621              	.LFE600:
 1622              		.size	_ZL7cmd_runP20BaseSequentialStreamiPPc, .-_ZL7cmd_runP20BaseSequentialStreamiPPc
 1623 0238 AFF30080 		.section	.rodata
 1623      AFF30080 
 1624 0059 000000   		.align	2
 1625              	.LC4:
 1626 005c 70697879 		.ascii	"pixy\000"
 1626      00
 1627 0061 000000   		.align	2
 1628              	.LC5:
 1629 0064 5072696E 		.ascii	"Print from Pixy\015\012\000"
 1629      74206672 
 1629      6F6D2050 
 1629      6978790D 
 1629      0A00
 1630 0076 0000     		.align	2
 1631              	.LC6:
 1632 0078 6D73673A 		.ascii	"msg: %x %x %x %x\015\012\000"
 1632      20257820 
 1632      25782025 
 1632      78202578 
 1632      0D0A00
 1633              		.section	.text._ZL8cmd_pixyP20BaseSequentialStreamiPPc,"ax",%progbits
ARM GAS  /tmp/ccB5ynkg.s 			page 31


 1634              		.align	2
 1635              		.p2align 4,,15
 1636              		.thumb
 1637              		.thumb_func
 1638              		.type	_ZL8cmd_pixyP20BaseSequentialStreamiPPc, %function
 1639              	_ZL8cmd_pixyP20BaseSequentialStreamiPPc:
 1640              	.LFB601:
 1641              		.loc 15 152 0
 1642              		.cfi_startproc
 1643              		@ args = 0, pretend = 0, frame = 24
 1644              		@ frame_needed = 0, uses_anonymous_args = 0
 1645 0000 30B5     		push	{r4, r5, lr}
 1646              		.cfi_def_cfa_offset 12
 1647              		.cfi_offset 4, -12
 1648              		.cfi_offset 5, -8
 1649              		.cfi_offset 14, -4
 1650 0002 89B0     		sub	sp, sp, #36
 1651              		.cfi_def_cfa_offset 48
 1652 0004 0590     		str	r0, [sp, #20]
 1653 0006 0491     		str	r1, [sp, #16]
 1654 0008 0392     		str	r2, [sp, #12]
 1655              	.LBB52:
 1656              		.loc 15 156 0
 1657 000a 234B     		ldr	r3, .L85
 1658 000c 1B78     		ldrb	r3, [r3]	@ zero_extendqisi2
 1659 000e 002B     		cmp	r3, #0
 1660 0010 07D0     		beq	.L82
 1661              		.loc 15 157 0
 1662 0012 2248     		ldr	r0, .L85+4
 1663 0014 2249     		ldr	r1, .L85+8
 1664 0016 234A     		ldr	r2, .L85+12
 1665 0018 FFF7FEFF 		bl	_ZN3r2p4Node9subscribeINS_7PixyMsgELj5EEEbRNS_10SubscriberIT_XT0_EEEPKc
 1666              		.loc 15 158 0
 1667 001c 1E4B     		ldr	r3, .L85
 1668 001e 0022     		movs	r2, #0
 1669 0020 1A70     		strb	r2, [r3]
 1670              	.L82:
 1671              		.loc 15 160 0
 1672 0022 1E48     		ldr	r0, .L85+4
 1673 0024 0121     		movs	r1, #1
 1674 0026 FFF7FEFF 		bl	_ZN3r2p4Node11set_enabledEb
 1675              		.loc 15 162 0
 1676 002a 0598     		ldr	r0, [sp, #20]
 1677 002c 1E49     		ldr	r1, .L85+16
 1678 002e FFF7FEFF 		bl	_ZL8chprintfP20BaseSequentialStreamPKcz
 1679              		.loc 15 163 0
 1680 0032 08E0     		b	.L83
 1681              	.L84:
 1682              		.loc 15 164 0
 1683 0034 07AB     		add	r3, sp, #28
 1684 0036 1846     		mov	r0, r3
 1685 0038 0521     		movs	r1, #5
 1686 003a FFF7FEFF 		bl	_ZN3r2p4Time2msEl
 1687 003e 07AB     		add	r3, sp, #28
 1688 0040 1846     		mov	r0, r3
 1689 0042 FFF7FEFF 		bl	_ZN3r2p6Thread5sleepERKNS_4TimeE
 1690              	.L83:
ARM GAS  /tmp/ccB5ynkg.s 			page 32


 1691              		.loc 15 163 0
 1692 0046 06AB     		add	r3, sp, #24
 1693 0048 1548     		ldr	r0, .L85+8
 1694 004a 1946     		mov	r1, r3
 1695 004c FFF7FEFF 		bl	_ZN3r2p16SubscriberExtBufINS_7PixyMsgEE5fetchERPS1_
 1696 0050 0346     		mov	r3, r0
 1697 0052 83F00103 		eor	r3, r3, #1
 1698 0056 DBB2     		uxtb	r3, r3
 1699 0058 002B     		cmp	r3, #0
 1700 005a EBD1     		bne	.L84
 1701              		.loc 15 167 0
 1702 005c 069B     		ldr	r3, [sp, #24]
 1703 005e 9B78     		ldrb	r3, [r3, #2]	@ zero_extendqisi2
 1704 0060 1D46     		mov	r5, r3
 1705 0062 069B     		ldr	r3, [sp, #24]
 1706 0064 DB78     		ldrb	r3, [r3, #3]	@ zero_extendqisi2
 1707 0066 1C46     		mov	r4, r3
 1708 0068 069B     		ldr	r3, [sp, #24]
 1709 006a 1B79     		ldrb	r3, [r3, #4]	@ zero_extendqisi2
 1710 006c 1A46     		mov	r2, r3
 1711 006e 069B     		ldr	r3, [sp, #24]
 1712 0070 5B79     		ldrb	r3, [r3, #5]	@ zero_extendqisi2
 1713 0072 0092     		str	r2, [sp]
 1714 0074 0193     		str	r3, [sp, #4]
 1715 0076 0598     		ldr	r0, [sp, #20]
 1716 0078 0C49     		ldr	r1, .L85+20
 1717 007a 2A46     		mov	r2, r5
 1718 007c 2346     		mov	r3, r4
 1719 007e FFF7FEFF 		bl	_ZL8chprintfP20BaseSequentialStreamPKcz
 1720              		.loc 15 169 0
 1721 0082 069B     		ldr	r3, [sp, #24]
 1722 0084 0648     		ldr	r0, .L85+8
 1723 0086 1946     		mov	r1, r3
 1724 0088 FFF7FEFF 		bl	_ZN3r2p16SubscriberExtBufINS_7PixyMsgEE7releaseERS1_
 1725              		.loc 15 171 0
 1726 008c 0348     		ldr	r0, .L85+4
 1727 008e 0021     		movs	r1, #0
 1728 0090 FFF7FEFF 		bl	_ZN3r2p4Node11set_enabledEb
 1729              	.LBE52:
 1730              		.loc 15 172 0
 1731 0094 09B0     		add	sp, sp, #36
 1732              		.cfi_def_cfa_offset 12
 1733              		@ sp needed
 1734 0096 30BD     		pop	{r4, r5, pc}
 1735              	.L86:
 1736              		.align	2
 1737              	.L85:
 1738 0098 00000000 		.word	pixy_first_time
 1739 009c 00000000 		.word	pixy_node
 1740 00a0 00000000 		.word	pixy_sub
 1741 00a4 5C000000 		.word	.LC4
 1742 00a8 64000000 		.word	.LC5
 1743 00ac 78000000 		.word	.LC6
 1744              		.cfi_endproc
 1745              	.LFE601:
 1746              		.size	_ZL8cmd_pixyP20BaseSequentialStreamiPPc, .-_ZL8cmd_pixyP20BaseSequentialStreamiPPc
 1747              		.section	.rodata
ARM GAS  /tmp/ccB5ynkg.s 			page 33


 1748 008b 00       		.align	2
 1749              	.LC7:
 1750 008c 55736167 		.ascii	"Usage: stop\015\012\000"
 1750      653A2073 
 1750      746F700D 
 1750      0A00
 1751              		.section	.text._ZL8cmd_stopP20BaseSequentialStreamiPPc,"ax",%progbits
 1752              		.align	2
 1753              		.p2align 4,,15
 1754              		.thumb
 1755              		.thumb_func
 1756              		.type	_ZL8cmd_stopP20BaseSequentialStreamiPPc, %function
 1757              	_ZL8cmd_stopP20BaseSequentialStreamiPPc:
 1758              	.LFB602:
 1759              		.loc 15 174 0
 1760              		.cfi_startproc
 1761              		@ args = 0, pretend = 0, frame = 24
 1762              		@ frame_needed = 0, uses_anonymous_args = 0
 1763 0000 00B5     		push	{lr}
 1764              		.cfi_def_cfa_offset 4
 1765              		.cfi_offset 14, -4
 1766 0002 87B0     		sub	sp, sp, #28
 1767              		.cfi_def_cfa_offset 32
 1768 0004 0390     		str	r0, [sp, #12]
 1769 0006 0291     		str	r1, [sp, #8]
 1770 0008 0192     		str	r2, [sp, #4]
 1771              	.LBB53:
 1772              		.loc 15 179 0
 1773 000a 029B     		ldr	r3, [sp, #8]
 1774 000c 002B     		cmp	r3, #0
 1775 000e 04DD     		ble	.L88
 1776              		.loc 15 180 0
 1777 0010 0398     		ldr	r0, [sp, #12]
 1778 0012 1C49     		ldr	r1, .L92
 1779 0014 FFF7FEFF 		bl	_ZL8chprintfP20BaseSequentialStreamPKcz
 1780 0018 30E0     		b	.L87
 1781              	.L88:
 1782              		.loc 15 184 0
 1783 001a 1B48     		ldr	r0, .L92+4
 1784 001c 0121     		movs	r1, #1
 1785 001e FFF7FEFF 		bl	_ZN3r2p4Node11set_enabledEb
 1786              		.loc 15 186 0
 1787 0022 1A4B     		ldr	r3, .L92+8
 1788 0024 1B78     		ldrb	r3, [r3]	@ zero_extendqisi2
 1789 0026 002B     		cmp	r3, #0
 1790 0028 08D0     		beq	.L90
 1791              		.loc 15 187 0
 1792 002a 1748     		ldr	r0, .L92+4
 1793 002c 1849     		ldr	r1, .L92+12
 1794 002e 194A     		ldr	r2, .L92+16
 1795 0030 194B     		ldr	r3, .L92+20
 1796 0032 FFF7FEFF 		bl	_ZN3r2p4Node9advertiseINS_9Speed3MsgEEEbRNS_9PublisherIT_EEPKcRKNS_4TimeE
 1797              		.loc 15 188 0
 1798 0036 154B     		ldr	r3, .L92+8
 1799 0038 0022     		movs	r2, #0
 1800 003a 1A70     		strb	r2, [r3]
 1801              	.L90:
ARM GAS  /tmp/ccB5ynkg.s 			page 34


 1802              		.loc 15 192 0
 1803 003c 05AB     		add	r3, sp, #20
 1804 003e 1448     		ldr	r0, .L92+12
 1805 0040 1946     		mov	r1, r3
 1806 0042 FFF7FEFF 		bl	_ZN3r2p9PublisherINS_9Speed3MsgEE5allocERPS1_
 1807 0046 0346     		mov	r3, r0
 1808 0048 002B     		cmp	r3, #0
 1809 004a 13D0     		beq	.L91
 1810              		.loc 15 193 0
 1811 004c 059B     		ldr	r3, [sp, #20]
 1812 004e 0233     		adds	r3, r3, #2
 1813 0050 4FF00002 		mov	r2, #0
 1814 0054 1A60     		str	r2, [r3]	@ unaligned
 1815              		.loc 15 194 0
 1816 0056 059B     		ldr	r3, [sp, #20]
 1817 0058 0633     		adds	r3, r3, #6
 1818 005a 4FF00002 		mov	r2, #0
 1819 005e 1A60     		str	r2, [r3]	@ unaligned
 1820              		.loc 15 195 0
 1821 0060 059B     		ldr	r3, [sp, #20]
 1822 0062 0A33     		adds	r3, r3, #10
 1823 0064 4FF00002 		mov	r2, #0
 1824 0068 1A60     		str	r2, [r3]	@ unaligned
 1825              		.loc 15 196 0
 1826 006a 059B     		ldr	r3, [sp, #20]
 1827 006c 0848     		ldr	r0, .L92+12
 1828 006e 1946     		mov	r1, r3
 1829 0070 FFF7FEFF 		bl	_ZN3r2p9PublisherINS_9Speed3MsgEE7publishERS1_
 1830              	.L91:
 1831              		.loc 15 199 0
 1832 0074 0448     		ldr	r0, .L92+4
 1833 0076 0021     		movs	r1, #0
 1834 0078 FFF7FEFF 		bl	_ZN3r2p4Node11set_enabledEb
 1835              	.L87:
 1836              	.LBE53:
 1837              		.loc 15 200 0
 1838 007c 07B0     		add	sp, sp, #28
 1839              		.cfi_def_cfa_offset 4
 1840              		@ sp needed
 1841 007e 5DF804FB 		ldr	pc, [sp], #4
 1842              	.L93:
 1843 0082 00BF     		.align	2
 1844              	.L92:
 1845 0084 8C000000 		.word	.LC7
 1846 0088 00000000 		.word	vel_node
 1847 008c 00000000 		.word	speed_first_time
 1848 0090 00000000 		.word	vel_pub
 1849 0094 3C000000 		.word	.LC2
 1850 0098 00000000 		.word	_ZN3r2p4Time8INFINITEE
 1851              		.cfi_endproc
 1852              	.LFE602:
 1853              		.size	_ZL8cmd_stopP20BaseSequentialStreamiPPc, .-_ZL8cmd_stopP20BaseSequentialStreamiPPc
 1854 009c AFF30080 		.section	.rodata
 1855 009a 0000     		.align	2
 1856              	.LC8:
 1857 009c 55736167 		.ascii	"Usage: e\015\012\000"
 1857      653A2065 
ARM GAS  /tmp/ccB5ynkg.s 			page 35


 1857      0D0A00
 1858              		.section	.text._ZL7cmd_encP20BaseSequentialStreamiPPc,"ax",%progbits
 1859              		.align	2
 1860              		.p2align 4,,15
 1861              		.thumb
 1862              		.thumb_func
 1863              		.type	_ZL7cmd_encP20BaseSequentialStreamiPPc, %function
 1864              	_ZL7cmd_encP20BaseSequentialStreamiPPc:
 1865              	.LFB603:
 1866              		.loc 15 203 0
 1867              		.cfi_startproc
 1868              		@ args = 0, pretend = 0, frame = 16
 1869              		@ frame_needed = 0, uses_anonymous_args = 0
 1870 0000 00B5     		push	{lr}
 1871              		.cfi_def_cfa_offset 4
 1872              		.cfi_offset 14, -4
 1873 0002 85B0     		sub	sp, sp, #20
 1874              		.cfi_def_cfa_offset 24
 1875 0004 0390     		str	r0, [sp, #12]
 1876 0006 0291     		str	r1, [sp, #8]
 1877 0008 0192     		str	r2, [sp, #4]
 1878              		.loc 15 207 0
 1879 000a 029B     		ldr	r3, [sp, #8]
 1880 000c 002B     		cmp	r3, #0
 1881 000e 04DD     		ble	.L95
 1882              		.loc 15 208 0
 1883 0010 0398     		ldr	r0, [sp, #12]
 1884 0012 0849     		ldr	r1, .L97
 1885 0014 FFF7FEFF 		bl	_ZL8chprintfP20BaseSequentialStreamPKcz
 1886              		.loc 15 209 0
 1887 0018 09E0     		b	.L94
 1888              	.L95:
 1889              		.loc 15 212 0
 1890 001a 074A     		ldr	r2, .L97+4
 1891 001c 039B     		ldr	r3, [sp, #12]
 1892 001e 1360     		str	r3, [r2]
 1893              		.loc 15 213 0
 1894 0020 064B     		ldr	r3, .L97+8
 1895 0022 1B78     		ldrb	r3, [r3]	@ zero_extendqisi2
 1896 0024 83F00103 		eor	r3, r3, #1
 1897 0028 DAB2     		uxtb	r2, r3
 1898 002a 044B     		ldr	r3, .L97+8
 1899 002c 1A70     		strb	r2, [r3]
 1900              	.L94:
 1901              		.loc 15 214 0
 1902 002e 05B0     		add	sp, sp, #20
 1903              		.cfi_def_cfa_offset 4
 1904              		@ sp needed
 1905 0030 5DF804FB 		ldr	pc, [sp], #4
 1906              	.L98:
 1907              		.align	2
 1908              	.L97:
 1909 0034 9C000000 		.word	.LC8
 1910 0038 00000000 		.word	serialp
 1911 003c 00000000 		.word	stream_enc
 1912              		.cfi_endproc
 1913              	.LFE603:
ARM GAS  /tmp/ccB5ynkg.s 			page 36


 1914              		.size	_ZL7cmd_encP20BaseSequentialStreamiPPc, .-_ZL7cmd_encP20BaseSequentialStreamiPPc
 1915              		.section	.rodata
 1916 00a7 00       		.align	2
 1917              	.LC9:
 1918 00a8 55736167 		.ascii	"Usage: pidcfg <k> <ti> <td>\015\012\000"
 1918      653A2070 
 1918      69646366 
 1918      67203C6B 
 1918      3E203C74 
 1919 00c6 0000     		.align	2
 1920              	.LC10:
 1921 00c8 70696463 		.ascii	"pidcfg\000"
 1921      666700
 1922              		.section	.text._ZL10cmd_pidcfgP20BaseSequentialStreamiPPc,"ax",%progbits
 1923              		.align	2
 1924              		.p2align 4,,15
 1925              		.thumb
 1926              		.thumb_func
 1927              		.type	_ZL10cmd_pidcfgP20BaseSequentialStreamiPPc, %function
 1928              	_ZL10cmd_pidcfgP20BaseSequentialStreamiPPc:
 1929              	.LFB604:
 1930              		.loc 15 217 0
 1931              		.cfi_startproc
 1932              		@ args = 0, pretend = 0, frame = 24
 1933              		@ frame_needed = 0, uses_anonymous_args = 0
 1934 0000 10B5     		push	{r4, lr}
 1935              		.cfi_def_cfa_offset 8
 1936              		.cfi_offset 4, -8
 1937              		.cfi_offset 14, -4
 1938 0002 86B0     		sub	sp, sp, #24
 1939              		.cfi_def_cfa_offset 32
 1940 0004 0390     		str	r0, [sp, #12]
 1941 0006 0291     		str	r1, [sp, #8]
 1942 0008 0192     		str	r2, [sp, #4]
 1943              	.LBB54:
 1944              		.loc 15 222 0
 1945 000a 029B     		ldr	r3, [sp, #8]
 1946 000c 032B     		cmp	r3, #3
 1947 000e 04D0     		beq	.L100
 1948              		.loc 15 223 0
 1949 0010 0398     		ldr	r0, [sp, #12]
 1950 0012 2C49     		ldr	r1, .L104
 1951 0014 FFF7FEFF 		bl	_ZL8chprintfP20BaseSequentialStreamPKcz
 1952 0018 51E0     		b	.L99
 1953              	.L100:
 1954              		.loc 15 227 0
 1955 001a 2B48     		ldr	r0, .L104+4
 1956 001c 0121     		movs	r1, #1
 1957 001e FFF7FEFF 		bl	_ZN3r2p4Node11set_enabledEb
 1958              		.loc 15 229 0
 1959 0022 2A4B     		ldr	r3, .L104+8
 1960 0024 1B78     		ldrb	r3, [r3]	@ zero_extendqisi2
 1961 0026 002B     		cmp	r3, #0
 1962 0028 08D0     		beq	.L102
 1963              		.loc 15 230 0
 1964 002a 2748     		ldr	r0, .L104+4
 1965 002c 2849     		ldr	r1, .L104+12
ARM GAS  /tmp/ccB5ynkg.s 			page 37


 1966 002e 294A     		ldr	r2, .L104+16
 1967 0030 294B     		ldr	r3, .L104+20
 1968 0032 FFF7FEFF 		bl	_ZN3r2p4Node9advertiseINS_9PIDCfgMsgEEEbRNS_9PublisherIT_EEPKcRKNS_4TimeE
 1969              		.loc 15 231 0
 1970 0036 254B     		ldr	r3, .L104+8
 1971 0038 0022     		movs	r2, #0
 1972 003a 1A70     		strb	r2, [r3]
 1973              	.L102:
 1974              		.loc 15 234 0
 1975 003c 05AB     		add	r3, sp, #20
 1976 003e 2448     		ldr	r0, .L104+12
 1977 0040 1946     		mov	r1, r3
 1978 0042 FFF7FEFF 		bl	_ZN3r2p9PublisherINS_9PIDCfgMsgEE5allocERPS1_
 1979 0046 0346     		mov	r3, r0
 1980 0048 002B     		cmp	r3, #0
 1981 004a 34D0     		beq	.L103
 1982              		.loc 15 235 0
 1983 004c 059C     		ldr	r4, [sp, #20]
 1984 004e 019B     		ldr	r3, [sp, #4]
 1985 0050 1B68     		ldr	r3, [r3]
 1986 0052 1846     		mov	r0, r3
 1987 0054 FFF7FEFF 		bl	atof
 1988 0058 53EC102B 		fmrrd	r2, r3, d0
 1989 005c 1046     		mov	r0, r2
 1990 005e 1946     		mov	r1, r3
 1991 0060 FFF7FEFF 		bl	__aeabi_d2f
 1992 0064 0246     		mov	r2, r0	@ float
 1993 0066 A31C     		adds	r3, r4, #2
 1994 0068 1A60     		str	r2, [r3]	@ unaligned
 1995              		.loc 15 236 0
 1996 006a 059C     		ldr	r4, [sp, #20]
 1997 006c 019B     		ldr	r3, [sp, #4]
 1998 006e 0433     		adds	r3, r3, #4
 1999 0070 1B68     		ldr	r3, [r3]
 2000 0072 1846     		mov	r0, r3
 2001 0074 FFF7FEFF 		bl	atof
 2002 0078 53EC102B 		fmrrd	r2, r3, d0
 2003 007c 1046     		mov	r0, r2
 2004 007e 1946     		mov	r1, r3
 2005 0080 FFF7FEFF 		bl	__aeabi_d2f
 2006 0084 0246     		mov	r2, r0	@ float
 2007 0086 A31D     		adds	r3, r4, #6
 2008 0088 1A60     		str	r2, [r3]	@ unaligned
 2009              		.loc 15 237 0
 2010 008a 059C     		ldr	r4, [sp, #20]
 2011 008c 019B     		ldr	r3, [sp, #4]
 2012 008e 0833     		adds	r3, r3, #8
 2013 0090 1B68     		ldr	r3, [r3]
 2014 0092 1846     		mov	r0, r3
 2015 0094 FFF7FEFF 		bl	atof
 2016 0098 53EC102B 		fmrrd	r2, r3, d0
 2017 009c 1046     		mov	r0, r2
 2018 009e 1946     		mov	r1, r3
 2019 00a0 FFF7FEFF 		bl	__aeabi_d2f
 2020 00a4 0246     		mov	r2, r0	@ float
 2021 00a6 04F10A03 		add	r3, r4, #10
 2022 00aa 1A60     		str	r2, [r3]	@ unaligned
ARM GAS  /tmp/ccB5ynkg.s 			page 38


 2023              		.loc 15 238 0
 2024 00ac 059B     		ldr	r3, [sp, #20]
 2025 00ae 0848     		ldr	r0, .L104+12
 2026 00b0 1946     		mov	r1, r3
 2027 00b2 FFF7FEFF 		bl	_ZN3r2p9PublisherINS_9PIDCfgMsgEE7publishERS1_
 2028              	.L103:
 2029              		.loc 15 241 0
 2030 00b6 0448     		ldr	r0, .L104+4
 2031 00b8 0021     		movs	r1, #0
 2032 00ba FFF7FEFF 		bl	_ZN3r2p4Node11set_enabledEb
 2033              	.L99:
 2034              	.LBE54:
 2035              		.loc 15 242 0
 2036 00be 06B0     		add	sp, sp, #24
 2037              		.cfi_def_cfa_offset 8
 2038              		@ sp needed
 2039 00c0 10BD     		pop	{r4, pc}
 2040              	.L105:
 2041 00c2 00BF     		.align	2
 2042              	.L104:
 2043 00c4 A8000000 		.word	.LC9
 2044 00c8 00000000 		.word	pidcfg_node
 2045 00cc 00000000 		.word	pidcfg_first_time
 2046 00d0 00000000 		.word	pidcfg_pub
 2047 00d4 C8000000 		.word	.LC10
 2048 00d8 00000000 		.word	_ZN3r2p4Time8INFINITEE
 2049              		.cfi_endproc
 2050              	.LFE604:
 2051              		.size	_ZL10cmd_pidcfgP20BaseSequentialStreamiPPc, .-_ZL10cmd_pidcfgP20BaseSequentialStreamiPPc
 2052 00dc AFF30080 		.section	.rodata
 2053 00cf 00       		.align	2
 2054              	.LC11:
 2055 00d0 7368656C 		.ascii	"shell\000"
 2055      6C00
 2056              		.section	.text._Z10shell_nodePv,"ax",%progbits
 2057              		.align	2
 2058              		.p2align 4,,15
 2059              		.global	_Z10shell_nodePv
 2060              		.thumb
 2061              		.thumb_func
 2062              		.type	_Z10shell_nodePv, %function
 2063              	_Z10shell_nodePv:
 2064              	.LFB605:
 2065              		.loc 15 249 0
 2066              		.cfi_startproc
 2067              		@ args = 0, pretend = 0, frame = 48
 2068              		@ frame_needed = 0, uses_anonymous_args = 0
 2069 0000 00B5     		push	{lr}
 2070              		.cfi_def_cfa_offset 4
 2071              		.cfi_offset 14, -4
 2072 0002 8DB0     		sub	sp, sp, #52
 2073              		.cfi_def_cfa_offset 56
 2074 0004 0190     		str	r0, [sp, #4]
 2075              	.LBB55:
 2076              		.loc 15 250 0
 2077 0006 03AB     		add	r3, sp, #12
 2078 0008 1846     		mov	r0, r3
ARM GAS  /tmp/ccB5ynkg.s 			page 39


 2079 000a 2849     		ldr	r1, .L110
 2080 000c 0122     		movs	r2, #1
 2081 000e FFF7FEFF 		bl	_ZN3r2p4NodeC1EPKcb
 2082              		.loc 15 251 0
 2083 0012 0023     		movs	r3, #0
 2084 0014 0B93     		str	r3, [sp, #44]
 2085              		.loc 15 256 0
 2086 0016 2648     		ldr	r0, .L110+4
 2087 0018 FFF7FEFF 		bl	sduObjectInit
 2088              		.loc 15 257 0
 2089 001c 2448     		ldr	r0, .L110+4
 2090 001e 2549     		ldr	r1, .L110+8
 2091 0020 FFF7FEFF 		bl	sduStart
 2092              		.loc 15 264 0
 2093 0024 234B     		ldr	r3, .L110+8
 2094 0026 1B68     		ldr	r3, [r3]
 2095 0028 1846     		mov	r0, r3
 2096 002a FFF7FEFF 		bl	_Z22usb_lld_disconnect_busP9USBDriver
 2097              		.loc 15 265 0
 2098 002e 4FF4FA70 		mov	r0, #500
 2099 0032 FFF7FEFF 		bl	chThdSleep
 2100              		.loc 15 266 0
 2101 0036 1F4B     		ldr	r3, .L110+8
 2102 0038 1B68     		ldr	r3, [r3]
 2103 003a 1846     		mov	r0, r3
 2104 003c 1E49     		ldr	r1, .L110+12
 2105 003e FFF7FEFF 		bl	usbStart
 2106              		.loc 15 267 0
 2107 0042 1C4B     		ldr	r3, .L110+8
 2108 0044 1B68     		ldr	r3, [r3]
 2109 0046 1846     		mov	r0, r3
 2110 0048 FFF7FEFF 		bl	_Z19usb_lld_connect_busP9USBDriver
 2111              		.loc 15 272 0
 2112 004c FFF7FEFF 		bl	shellInit
 2113              	.L109:
 2114              		.loc 15 275 0
 2115 0050 0B9B     		ldr	r3, [sp, #44]
 2116 0052 002B     		cmp	r3, #0
 2117 0054 15D1     		bne	.L107
 2118              		.loc 15 275 0 is_stmt 0 discriminator 1
 2119 0056 164B     		ldr	r3, .L110+4
 2120 0058 D3F85432 		ldr	r3, [r3, #596]
 2121 005c 1B68     		ldr	r3, [r3]
 2122 005e 1B78     		ldrb	r3, [r3]	@ zero_extendqisi2
 2123 0060 042B     		cmp	r3, #4
 2124 0062 0ED1     		bne	.L107
 2125              		.loc 15 276 0 is_stmt 1
 2126 0064 B023     		movs	r3, #176
 2127 0066 6833     		adds	r3, r3, #104
 2128 0068 03F58153 		add	r3, r3, #4128
 2129 006c 1F33     		adds	r3, r3, #31
 2130 006e 0722     		movs	r2, #7
 2131 0070 1343     		orrs	r3, r3, r2
 2132 0072 0133     		adds	r3, r3, #1
 2133 0074 1148     		ldr	r0, .L110+16
 2134 0076 1946     		mov	r1, r3
 2135 0078 4022     		movs	r2, #64
ARM GAS  /tmp/ccB5ynkg.s 			page 40


 2136 007a FFF7FEFF 		bl	shellCreate
 2137 007e 0B90     		str	r0, [sp, #44]
 2138 0080 09E0     		b	.L108
 2139              	.L107:
 2140              		.loc 15 277 0
 2141 0082 0B9B     		ldr	r3, [sp, #44]
 2142 0084 93F82030 		ldrb	r3, [r3, #32]	@ zero_extendqisi2
 2143 0088 0E2B     		cmp	r3, #14
 2144 008a 04D1     		bne	.L108
 2145              		.loc 15 278 0
 2146 008c 0B98     		ldr	r0, [sp, #44]
 2147 008e FFF7FEFF 		bl	chThdRelease
 2148              		.loc 15 279 0
 2149 0092 0023     		movs	r3, #0
 2150 0094 0B93     		str	r3, [sp, #44]
 2151              	.L108:
 2152              		.loc 15 282 0
 2153 0096 0AAB     		add	r3, sp, #40
 2154 0098 1846     		mov	r0, r3
 2155 009a 4FF4FA71 		mov	r1, #500
 2156 009e FFF7FEFF 		bl	_ZN3r2p4Time2msEl
 2157 00a2 0AAB     		add	r3, sp, #40
 2158 00a4 1846     		mov	r0, r3
 2159 00a6 FFF7FEFF 		bl	_ZN3r2p6Thread5sleepERKNS_4TimeE
 2160 00aa D1E7     		b	.L109
 2161              	.L111:
 2162              		.align	2
 2163              	.L110:
 2164 00ac D0000000 		.word	.LC11
 2165 00b0 00000000 		.word	SDU1
 2166 00b4 00000000 		.word	serusbcfg
 2167 00b8 00000000 		.word	usbcfg
 2168 00bc 00000000 		.word	_ZL13usb_shell_cfg
 2169              	.LBE55:
 2170              		.cfi_endproc
 2171              	.LFE605:
 2172              		.size	_Z10shell_nodePv, .-_Z10shell_nodePv
 2173              		.section	.text._ZN3r2p4TimeC2IlEET_,"axG",%progbits,_ZN3r2p4TimeC5IlEET_,comdat
 2174              		.align	2
 2175              		.p2align 4,,15
 2176              		.weak	_ZN3r2p4TimeC2IlEET_
 2177              		.thumb
 2178              		.thumb_func
 2179              		.type	_ZN3r2p4TimeC2IlEET_, %function
 2180              	_ZN3r2p4TimeC2IlEET_:
 2181              	.LFB607:
 2182              		.loc 5 159 0
 2183              		.cfi_startproc
 2184              		@ args = 0, pretend = 0, frame = 8
 2185              		@ frame_needed = 0, uses_anonymous_args = 0
 2186              		@ link register save eliminated.
 2187 0000 82B0     		sub	sp, sp, #8
 2188              		.cfi_def_cfa_offset 8
 2189 0002 0190     		str	r0, [sp, #4]
 2190 0004 0091     		str	r1, [sp]
 2191              	.LBB56:
 2192              		.loc 5 161 0
ARM GAS  /tmp/ccB5ynkg.s 			page 41


 2193 0006 019B     		ldr	r3, [sp, #4]
 2194 0008 009A     		ldr	r2, [sp]
 2195 000a 1A60     		str	r2, [r3]
 2196              	.LBE56:
 2197              		.loc 5 162 0
 2198 000c 019B     		ldr	r3, [sp, #4]
 2199 000e 1846     		mov	r0, r3
 2200 0010 02B0     		add	sp, sp, #8
 2201              		.cfi_def_cfa_offset 0
 2202              		@ sp needed
 2203 0012 7047     		bx	lr
 2204              		.cfi_endproc
 2205              	.LFE607:
 2206              		.size	_ZN3r2p4TimeC2IlEET_, .-_ZN3r2p4TimeC2IlEET_
 2207              		.weak	_ZN3r2p4TimeC1IlEET_
 2208              		.thumb_set _ZN3r2p4TimeC1IlEET_,_ZN3r2p4TimeC2IlEET_
 2209 0014 AFF30080 		.section	.text._ZNK3r2p10ArrayQueueIPNS_7MessageEE10get_lengthEv,"axG",%progbits,_ZNK3r2p10ArrayQu
 2209      AFF30080 
 2209      AFF30080 
 2210              		.align	2
 2211              		.p2align 4,,15
 2212              		.weak	_ZNK3r2p10ArrayQueueIPNS_7MessageEE10get_lengthEv
 2213              		.thumb
 2214              		.thumb_func
 2215              		.type	_ZNK3r2p10ArrayQueueIPNS_7MessageEE10get_lengthEv, %function
 2216              	_ZNK3r2p10ArrayQueueIPNS_7MessageEE10get_lengthEv:
 2217              	.LFB615:
 2218              		.file 16 "/home/ergae/r2p-sdk/core/Middleware/include/r2p/ArrayQueue.hpp"
 2219              		.loc 16 81 0
 2220              		.cfi_startproc
 2221              		@ args = 0, pretend = 0, frame = 8
 2222              		@ frame_needed = 0, uses_anonymous_args = 0
 2223              		@ link register save eliminated.
 2224 0000 82B0     		sub	sp, sp, #8
 2225              		.cfi_def_cfa_offset 8
 2226 0002 0190     		str	r0, [sp, #4]
 2227              		.loc 16 83 0
 2228 0004 019B     		ldr	r3, [sp, #4]
 2229 0006 5B68     		ldr	r3, [r3, #4]
 2230              		.loc 16 84 0
 2231 0008 1846     		mov	r0, r3
 2232 000a 02B0     		add	sp, sp, #8
 2233              		.cfi_def_cfa_offset 0
 2234              		@ sp needed
 2235 000c 7047     		bx	lr
 2236              		.cfi_endproc
 2237              	.LFE615:
 2238              		.size	_ZNK3r2p10ArrayQueueIPNS_7MessageEE10get_lengthEv, .-_ZNK3r2p10ArrayQueueIPNS_7MessageEE10ge
 2239 000e 00BF     		.section	.text._ZN3r2p10ArrayQueueIPNS_7MessageEE12fetch_unsafeERS2_,"axG",%progbits,_ZN3r2p10Arra
 2240              		.align	2
 2241              		.p2align 4,,15
 2242              		.weak	_ZN3r2p10ArrayQueueIPNS_7MessageEE12fetch_unsafeERS2_
 2243              		.thumb
 2244              		.thumb_func
 2245              		.type	_ZN3r2p10ArrayQueueIPNS_7MessageEE12fetch_unsafeERS2_, %function
 2246              	_ZN3r2p10ArrayQueueIPNS_7MessageEE12fetch_unsafeERS2_:
 2247              	.LFB616:
ARM GAS  /tmp/ccB5ynkg.s 			page 42


 2248              		.loc 16 52 0
 2249              		.cfi_startproc
 2250              		@ args = 0, pretend = 0, frame = 8
 2251              		@ frame_needed = 0, uses_anonymous_args = 0
 2252              		@ link register save eliminated.
 2253 0000 82B0     		sub	sp, sp, #8
 2254              		.cfi_def_cfa_offset 8
 2255 0002 0190     		str	r0, [sp, #4]
 2256 0004 0091     		str	r1, [sp]
 2257              		.loc 16 54 0
 2258 0006 019B     		ldr	r3, [sp, #4]
 2259 0008 9B68     		ldr	r3, [r3, #8]
 2260 000a 002B     		cmp	r3, #0
 2261 000c 23D0     		beq	.L118
 2262              		.loc 16 55 0
 2263 000e 019B     		ldr	r3, [sp, #4]
 2264 0010 9B68     		ldr	r3, [r3, #8]
 2265 0012 5A1E     		subs	r2, r3, #1
 2266 0014 019B     		ldr	r3, [sp, #4]
 2267 0016 9A60     		str	r2, [r3, #8]
 2268              		.loc 16 56 0
 2269 0018 019B     		ldr	r3, [sp, #4]
 2270 001a DB68     		ldr	r3, [r3, #12]
 2271 001c 1A68     		ldr	r2, [r3]
 2272 001e 009B     		ldr	r3, [sp]
 2273 0020 1A60     		str	r2, [r3]
 2274              		.loc 16 57 0
 2275 0022 019B     		ldr	r3, [sp, #4]
 2276 0024 DB68     		ldr	r3, [r3, #12]
 2277 0026 1A1D     		adds	r2, r3, #4
 2278 0028 019B     		ldr	r3, [sp, #4]
 2279 002a DA60     		str	r2, [r3, #12]
 2280 002c 019B     		ldr	r3, [sp, #4]
 2281 002e DA68     		ldr	r2, [r3, #12]
 2282 0030 019B     		ldr	r3, [sp, #4]
 2283 0032 1968     		ldr	r1, [r3]
 2284 0034 019B     		ldr	r3, [sp, #4]
 2285 0036 5B68     		ldr	r3, [r3, #4]
 2286 0038 9B00     		lsls	r3, r3, #2
 2287 003a 0B44     		add	r3, r3, r1
 2288 003c 9A42     		cmp	r2, r3
 2289 003e 2CBF     		ite	cs
 2290 0040 0123     		movcs	r3, #1
 2291 0042 0023     		movcc	r3, #0
 2292 0044 DBB2     		uxtb	r3, r3
 2293 0046 002B     		cmp	r3, #0
 2294 0048 03D0     		beq	.L119
 2295              		.loc 16 58 0
 2296 004a 019B     		ldr	r3, [sp, #4]
 2297 004c 1A68     		ldr	r2, [r3]
 2298 004e 019B     		ldr	r3, [sp, #4]
 2299 0050 DA60     		str	r2, [r3, #12]
 2300              	.L119:
 2301              		.loc 16 60 0
 2302 0052 0123     		movs	r3, #1
 2303 0054 00E0     		b	.L120
 2304              	.L118:
ARM GAS  /tmp/ccB5ynkg.s 			page 43


 2305              		.loc 16 62 0
 2306 0056 0023     		movs	r3, #0
 2307              	.L120:
 2308              		.loc 16 63 0
 2309 0058 1846     		mov	r0, r3
 2310 005a 02B0     		add	sp, sp, #8
 2311              		.cfi_def_cfa_offset 0
 2312              		@ sp needed
 2313 005c 7047     		bx	lr
 2314              		.cfi_endproc
 2315              	.LFE616:
 2316              		.size	_ZN3r2p10ArrayQueueIPNS_7MessageEE12fetch_unsafeERS2_, .-_ZN3r2p10ArrayQueueIPNS_7MessageEE1
 2317 005e 00BF     		.section	.text._ZN3r2p10ArrayQueueIPNS_7MessageEE11post_unsafeES2_,"axG",%progbits,_ZN3r2p10ArrayQ
 2318              		.align	2
 2319              		.p2align 4,,15
 2320              		.weak	_ZN3r2p10ArrayQueueIPNS_7MessageEE11post_unsafeES2_
 2321              		.thumb
 2322              		.thumb_func
 2323              		.type	_ZN3r2p10ArrayQueueIPNS_7MessageEE11post_unsafeES2_, %function
 2324              	_ZN3r2p10ArrayQueueIPNS_7MessageEE11post_unsafeES2_:
 2325              	.LFB617:
 2326              		.loc 16 37 0
 2327              		.cfi_startproc
 2328              		@ args = 0, pretend = 0, frame = 8
 2329              		@ frame_needed = 0, uses_anonymous_args = 0
 2330              		@ link register save eliminated.
 2331 0000 82B0     		sub	sp, sp, #8
 2332              		.cfi_def_cfa_offset 8
 2333 0002 0190     		str	r0, [sp, #4]
 2334 0004 0091     		str	r1, [sp]
 2335              		.loc 16 39 0
 2336 0006 019B     		ldr	r3, [sp, #4]
 2337 0008 9A68     		ldr	r2, [r3, #8]
 2338 000a 019B     		ldr	r3, [sp, #4]
 2339 000c 5B68     		ldr	r3, [r3, #4]
 2340 000e 9A42     		cmp	r2, r3
 2341 0010 22D2     		bcs	.L122
 2342              		.loc 16 40 0
 2343 0012 019B     		ldr	r3, [sp, #4]
 2344 0014 9B68     		ldr	r3, [r3, #8]
 2345 0016 5A1C     		adds	r2, r3, #1
 2346 0018 019B     		ldr	r3, [sp, #4]
 2347 001a 9A60     		str	r2, [r3, #8]
 2348              		.loc 16 41 0
 2349 001c 019B     		ldr	r3, [sp, #4]
 2350 001e 1B69     		ldr	r3, [r3, #16]
 2351 0020 009A     		ldr	r2, [sp]
 2352 0022 1A60     		str	r2, [r3]
 2353              		.loc 16 42 0
 2354 0024 019B     		ldr	r3, [sp, #4]
 2355 0026 1B69     		ldr	r3, [r3, #16]
 2356 0028 1A1D     		adds	r2, r3, #4
 2357 002a 019B     		ldr	r3, [sp, #4]
 2358 002c 1A61     		str	r2, [r3, #16]
 2359 002e 019B     		ldr	r3, [sp, #4]
 2360 0030 1A69     		ldr	r2, [r3, #16]
 2361 0032 019B     		ldr	r3, [sp, #4]
ARM GAS  /tmp/ccB5ynkg.s 			page 44


 2362 0034 1968     		ldr	r1, [r3]
 2363 0036 019B     		ldr	r3, [sp, #4]
 2364 0038 5B68     		ldr	r3, [r3, #4]
 2365 003a 9B00     		lsls	r3, r3, #2
 2366 003c 0B44     		add	r3, r3, r1
 2367 003e 9A42     		cmp	r2, r3
 2368 0040 2CBF     		ite	cs
 2369 0042 0123     		movcs	r3, #1
 2370 0044 0023     		movcc	r3, #0
 2371 0046 DBB2     		uxtb	r3, r3
 2372 0048 002B     		cmp	r3, #0
 2373 004a 03D0     		beq	.L123
 2374              		.loc 16 43 0
 2375 004c 019B     		ldr	r3, [sp, #4]
 2376 004e 1A68     		ldr	r2, [r3]
 2377 0050 019B     		ldr	r3, [sp, #4]
 2378 0052 1A61     		str	r2, [r3, #16]
 2379              	.L123:
 2380              		.loc 16 45 0
 2381 0054 0123     		movs	r3, #1
 2382 0056 00E0     		b	.L124
 2383              	.L122:
 2384              		.loc 16 47 0
 2385 0058 0023     		movs	r3, #0
 2386              	.L124:
 2387              		.loc 16 48 0
 2388 005a 1846     		mov	r0, r3
 2389 005c 02B0     		add	sp, sp, #8
 2390              		.cfi_def_cfa_offset 0
 2391              		@ sp needed
 2392 005e 7047     		bx	lr
 2393              		.cfi_endproc
 2394              	.LFE617:
 2395              		.size	_ZN3r2p10ArrayQueueIPNS_7MessageEE11post_unsafeES2_, .-_ZN3r2p10ArrayQueueIPNS_7MessageEE11p
 2396              		.section	.text._ZN3r2p9PublisherINS_9Speed3MsgEEC2Ev,"axG",%progbits,_ZN3r2p9PublisherINS_9Speed3M
 2397              		.align	2
 2398              		.p2align 4,,15
 2399              		.weak	_ZN3r2p9PublisherINS_9Speed3MsgEEC2Ev
 2400              		.thumb
 2401              		.thumb_func
 2402              		.type	_ZN3r2p9PublisherINS_9Speed3MsgEEC2Ev, %function
 2403              	_ZN3r2p9PublisherINS_9Speed3MsgEEC2Ev:
 2404              	.LFB628:
 2405              		.file 17 "/home/ergae/r2p-sdk/core/Middleware/include/r2p/Publisher.hpp"
 2406              		.loc 17 47 0
 2407              		.cfi_startproc
 2408              		@ args = 0, pretend = 0, frame = 8
 2409              		@ frame_needed = 0, uses_anonymous_args = 0
 2410 0000 00B5     		push	{lr}
 2411              		.cfi_def_cfa_offset 4
 2412              		.cfi_offset 14, -4
 2413 0002 83B0     		sub	sp, sp, #12
 2414              		.cfi_def_cfa_offset 16
 2415 0004 0190     		str	r0, [sp, #4]
 2416              	.LBB57:
 2417              		.loc 17 47 0
 2418 0006 019B     		ldr	r3, [sp, #4]
ARM GAS  /tmp/ccB5ynkg.s 			page 45


 2419 0008 1846     		mov	r0, r3
 2420 000a FFF7FEFF 		bl	_ZN3r2p14LocalPublisherC2Ev
 2421 000e 019B     		ldr	r3, [sp, #4]
 2422 0010 034A     		ldr	r2, .L128
 2423 0012 1A60     		str	r2, [r3]
 2424              	.LBE57:
 2425              		.loc 17 50 0
 2426 0014 019B     		ldr	r3, [sp, #4]
 2427 0016 1846     		mov	r0, r3
 2428 0018 03B0     		add	sp, sp, #12
 2429              		.cfi_def_cfa_offset 4
 2430              		@ sp needed
 2431 001a 5DF804FB 		ldr	pc, [sp], #4
 2432              	.L129:
 2433 001e 00BF     		.align	2
 2434              	.L128:
 2435 0020 08000000 		.word	_ZTVN3r2p9PublisherINS_9Speed3MsgEEE+8
 2436              		.cfi_endproc
 2437              	.LFE628:
 2438              		.size	_ZN3r2p9PublisherINS_9Speed3MsgEEC2Ev, .-_ZN3r2p9PublisherINS_9Speed3MsgEEC2Ev
 2439              		.weak	_ZN3r2p9PublisherINS_9Speed3MsgEEC1Ev
 2440              		.thumb_set _ZN3r2p9PublisherINS_9Speed3MsgEEC1Ev,_ZN3r2p9PublisherINS_9Speed3MsgEEC2Ev
 2441 0024 AFF30080 		.section	.text._ZN3r2p9PublisherINS_9PIDCfgMsgEEC2Ev,"axG",%progbits,_ZN3r2p9PublisherINS_9PIDCfgM
 2441      AFF30080 
 2441      AFF30080 
 2442              		.align	2
 2443              		.p2align 4,,15
 2444              		.weak	_ZN3r2p9PublisherINS_9PIDCfgMsgEEC2Ev
 2445              		.thumb
 2446              		.thumb_func
 2447              		.type	_ZN3r2p9PublisherINS_9PIDCfgMsgEEC2Ev, %function
 2448              	_ZN3r2p9PublisherINS_9PIDCfgMsgEEC2Ev:
 2449              	.LFB631:
 2450              		.loc 17 47 0
 2451              		.cfi_startproc
 2452              		@ args = 0, pretend = 0, frame = 8
 2453              		@ frame_needed = 0, uses_anonymous_args = 0
 2454 0000 00B5     		push	{lr}
 2455              		.cfi_def_cfa_offset 4
 2456              		.cfi_offset 14, -4
 2457 0002 83B0     		sub	sp, sp, #12
 2458              		.cfi_def_cfa_offset 16
 2459 0004 0190     		str	r0, [sp, #4]
 2460              	.LBB58:
 2461              		.loc 17 47 0
 2462 0006 019B     		ldr	r3, [sp, #4]
 2463 0008 1846     		mov	r0, r3
 2464 000a FFF7FEFF 		bl	_ZN3r2p14LocalPublisherC2Ev
 2465 000e 019B     		ldr	r3, [sp, #4]
 2466 0010 034A     		ldr	r2, .L133
 2467 0012 1A60     		str	r2, [r3]
 2468              	.LBE58:
 2469              		.loc 17 50 0
 2470 0014 019B     		ldr	r3, [sp, #4]
 2471 0016 1846     		mov	r0, r3
 2472 0018 03B0     		add	sp, sp, #12
 2473              		.cfi_def_cfa_offset 4
ARM GAS  /tmp/ccB5ynkg.s 			page 46


 2474              		@ sp needed
 2475 001a 5DF804FB 		ldr	pc, [sp], #4
 2476              	.L134:
 2477 001e 00BF     		.align	2
 2478              	.L133:
 2479 0020 08000000 		.word	_ZTVN3r2p9PublisherINS_9PIDCfgMsgEEE+8
 2480              		.cfi_endproc
 2481              	.LFE631:
 2482              		.size	_ZN3r2p9PublisherINS_9PIDCfgMsgEEC2Ev, .-_ZN3r2p9PublisherINS_9PIDCfgMsgEEC2Ev
 2483              		.weak	_ZN3r2p9PublisherINS_9PIDCfgMsgEEC1Ev
 2484              		.thumb_set _ZN3r2p9PublisherINS_9PIDCfgMsgEEC1Ev,_ZN3r2p9PublisherINS_9PIDCfgMsgEEC2Ev
 2485 0024 AFF30080 		.section	.text._ZN3r2p7PixyMsgC2Ev,"axG",%progbits,_ZN3r2p7PixyMsgC5Ev,comdat
 2485      AFF30080 
 2485      AFF30080 
 2486              		.align	2
 2487              		.p2align 4,,15
 2488              		.weak	_ZN3r2p7PixyMsgC2Ev
 2489              		.thumb
 2490              		.thumb_func
 2491              		.type	_ZN3r2p7PixyMsgC2Ev, %function
 2492              	_ZN3r2p7PixyMsgC2Ev:
 2493              	.LFB635:
 2494              		.file 18 "/home/ergae/r2p-sdk/core/Middleware/include/r2p/msg/pixy.hpp"
 2495              		.loc 18 4 0
 2496              		.cfi_startproc
 2497              		@ args = 0, pretend = 0, frame = 8
 2498              		@ frame_needed = 0, uses_anonymous_args = 0
 2499 0000 00B5     		push	{lr}
 2500              		.cfi_def_cfa_offset 4
 2501              		.cfi_offset 14, -4
 2502 0002 83B0     		sub	sp, sp, #12
 2503              		.cfi_def_cfa_offset 16
 2504 0004 0190     		str	r0, [sp, #4]
 2505              	.LBB59:
 2506              		.loc 18 4 0
 2507 0006 019B     		ldr	r3, [sp, #4]
 2508 0008 1846     		mov	r0, r3
 2509 000a FFF7FEFF 		bl	_ZN3r2p7MessageC2Ev
 2510              	.LBE59:
 2511 000e 019B     		ldr	r3, [sp, #4]
 2512 0010 1846     		mov	r0, r3
 2513 0012 03B0     		add	sp, sp, #12
 2514              		.cfi_def_cfa_offset 4
 2515              		@ sp needed
 2516 0014 5DF804FB 		ldr	pc, [sp], #4
 2517              		.cfi_endproc
 2518              	.LFE635:
 2519              		.size	_ZN3r2p7PixyMsgC2Ev, .-_ZN3r2p7PixyMsgC2Ev
 2520              		.weak	_ZN3r2p7PixyMsgC1Ev
 2521              		.thumb_set _ZN3r2p7PixyMsgC1Ev,_ZN3r2p7PixyMsgC2Ev
 2522 0018 AFF30080 		.section	.text._ZN3r2p10SubscriberINS_7PixyMsgELj5EEC2EPFbRKS1_E,"axG",%progbits,_ZN3r2p10Subscrib
 2522      AFF30080 
 2523              		.align	2
 2524              		.p2align 4,,15
 2525              		.weak	_ZN3r2p10SubscriberINS_7PixyMsgELj5EEC2EPFbRKS1_E
 2526              		.thumb
 2527              		.thumb_func
ARM GAS  /tmp/ccB5ynkg.s 			page 47


 2528              		.type	_ZN3r2p10SubscriberINS_7PixyMsgELj5EEC2EPFbRKS1_E, %function
 2529              	_ZN3r2p10SubscriberINS_7PixyMsgELj5EEC2EPFbRKS1_E:
 2530              	.LFB637:
 2531              		.file 19 "/home/ergae/r2p-sdk/core/Middleware/include/r2p/Subscriber.hpp"
 2532              		.loc 19 31 0
 2533              		.cfi_startproc
 2534              		@ args = 0, pretend = 0, frame = 8
 2535              		@ frame_needed = 0, uses_anonymous_args = 0
 2536 0000 30B5     		push	{r4, r5, lr}
 2537              		.cfi_def_cfa_offset 12
 2538              		.cfi_offset 4, -12
 2539              		.cfi_offset 5, -8
 2540              		.cfi_offset 14, -4
 2541 0002 83B0     		sub	sp, sp, #12
 2542              		.cfi_def_cfa_offset 24
 2543 0004 0190     		str	r0, [sp, #4]
 2544 0006 0091     		str	r1, [sp]
 2545              	.LBB60:
 2546              		.loc 19 33 0
 2547 0008 019A     		ldr	r2, [sp, #4]
 2548 000a 019B     		ldr	r3, [sp, #4]
 2549 000c 8833     		adds	r3, r3, #136
 2550 000e 1046     		mov	r0, r2
 2551 0010 1946     		mov	r1, r3
 2552 0012 0522     		movs	r2, #5
 2553 0014 009B     		ldr	r3, [sp]
 2554 0016 FFF7FEFF 		bl	_ZN3r2p16SubscriberExtBufINS_7PixyMsgEEC2EPPS1_jPFbRKS1_E
 2555 001a 019B     		ldr	r3, [sp, #4]
 2556 001c 094A     		ldr	r2, .L143
 2557 001e 1A60     		str	r2, [r3]
 2558 0020 019B     		ldr	r3, [sp, #4]
 2559 0022 3833     		adds	r3, r3, #56
 2560 0024 0424     		movs	r4, #4
 2561 0026 1D46     		mov	r5, r3
 2562 0028 04E0     		b	.L139
 2563              	.L140:
 2564              		.loc 19 33 0 is_stmt 0 discriminator 3
 2565 002a 2846     		mov	r0, r5
 2566 002c FFF7FEFF 		bl	_ZN3r2p7PixyMsgC1Ev
 2567 0030 1035     		adds	r5, r5, #16
 2568 0032 013C     		subs	r4, r4, #1
 2569              	.L139:
 2570              		.loc 19 33 0 discriminator 1
 2571 0034 B4F1FF3F 		cmp	r4, #-1
 2572 0038 F7D1     		bne	.L140
 2573              	.LBE60:
 2574              		.loc 19 34 0 is_stmt 1 discriminator 4
 2575 003a 019B     		ldr	r3, [sp, #4]
 2576 003c 1846     		mov	r0, r3
 2577 003e 03B0     		add	sp, sp, #12
 2578              		.cfi_def_cfa_offset 12
 2579              		@ sp needed
 2580 0040 30BD     		pop	{r4, r5, pc}
 2581              	.L144:
 2582 0042 00BF     		.align	2
 2583              	.L143:
 2584 0044 08000000 		.word	_ZTVN3r2p10SubscriberINS_7PixyMsgELj5EEE+8
ARM GAS  /tmp/ccB5ynkg.s 			page 48


 2585              		.cfi_endproc
 2586              	.LFE637:
 2587              		.size	_ZN3r2p10SubscriberINS_7PixyMsgELj5EEC2EPFbRKS1_E, .-_ZN3r2p10SubscriberINS_7PixyMsgELj5EEC2
 2588              		.weak	_ZN3r2p10SubscriberINS_7PixyMsgELj5EEC1EPFbRKS1_E
 2589              		.thumb_set _ZN3r2p10SubscriberINS_7PixyMsgELj5EEC1EPFbRKS1_E,_ZN3r2p10SubscriberINS_7PixyMsgELj5EE
 2590 0048 AFF30080 		.section	.text._ZN3r2p4Node9advertiseINS_9Speed3MsgEEEbRNS_9PublisherIT_EEPKcRKNS_4TimeE,"axG",%pr
 2590      AFF30080 
 2591              		.align	2
 2592              		.p2align 4,,15
 2593              		.weak	_ZN3r2p4Node9advertiseINS_9Speed3MsgEEEbRNS_9PublisherIT_EEPKcRKNS_4TimeE
 2594              		.thumb
 2595              		.thumb_func
 2596              		.type	_ZN3r2p4Node9advertiseINS_9Speed3MsgEEEbRNS_9PublisherIT_EEPKcRKNS_4TimeE, %function
 2597              	_ZN3r2p4Node9advertiseINS_9Speed3MsgEEEbRNS_9PublisherIT_EEPKcRKNS_4TimeE:
 2598              	.LFB639:
 2599              		.loc 12 117 0
 2600              		.cfi_startproc
 2601              		@ args = 0, pretend = 0, frame = 16
 2602              		@ frame_needed = 0, uses_anonymous_args = 0
 2603 0000 00B5     		push	{lr}
 2604              		.cfi_def_cfa_offset 4
 2605              		.cfi_offset 14, -4
 2606 0002 87B0     		sub	sp, sp, #28
 2607              		.cfi_def_cfa_offset 32
 2608 0004 0590     		str	r0, [sp, #20]
 2609 0006 0491     		str	r1, [sp, #16]
 2610 0008 0392     		str	r2, [sp, #12]
 2611 000a 0293     		str	r3, [sp, #8]
 2612              		.loc 12 120 0
 2613 000c 049A     		ldr	r2, [sp, #16]
 2614 000e 0E23     		movs	r3, #14
 2615 0010 0093     		str	r3, [sp]
 2616 0012 0598     		ldr	r0, [sp, #20]
 2617 0014 1146     		mov	r1, r2
 2618 0016 039A     		ldr	r2, [sp, #12]
 2619 0018 029B     		ldr	r3, [sp, #8]
 2620 001a FFF7FEFF 		bl	_ZN3r2p4Node9advertiseERNS_14LocalPublisherEPKcRKNS_4TimeEj
 2621 001e 0346     		mov	r3, r0
 2622              		.loc 12 121 0
 2623 0020 1846     		mov	r0, r3
 2624 0022 07B0     		add	sp, sp, #28
 2625              		.cfi_def_cfa_offset 4
 2626              		@ sp needed
 2627 0024 5DF804FB 		ldr	pc, [sp], #4
 2628              		.cfi_endproc
 2629              	.LFE639:
 2630              		.size	_ZN3r2p4Node9advertiseINS_9Speed3MsgEEEbRNS_9PublisherIT_EEPKcRKNS_4TimeE, .-_ZN3r2p4Node9ad
 2631 0028 AFF30080 		.section	.text._ZN3r2p9PublisherINS_9Speed3MsgEE5allocERPS1_,"axG",%progbits,_ZN3r2p9PublisherINS_
 2631      AFF30080 
 2632              		.align	2
 2633              		.p2align 4,,15
 2634              		.weak	_ZN3r2p9PublisherINS_9Speed3MsgEE5allocERPS1_
 2635              		.thumb
 2636              		.thumb_func
 2637              		.type	_ZN3r2p9PublisherINS_9Speed3MsgEE5allocERPS1_, %function
 2638              	_ZN3r2p9PublisherINS_9Speed3MsgEE5allocERPS1_:
 2639              	.LFB640:
ARM GAS  /tmp/ccB5ynkg.s 			page 49


 2640              		.loc 17 25 0
 2641              		.cfi_startproc
 2642              		@ args = 0, pretend = 0, frame = 8
 2643              		@ frame_needed = 0, uses_anonymous_args = 0
 2644 0000 00B5     		push	{lr}
 2645              		.cfi_def_cfa_offset 4
 2646              		.cfi_offset 14, -4
 2647 0002 83B0     		sub	sp, sp, #12
 2648              		.cfi_def_cfa_offset 16
 2649 0004 0190     		str	r0, [sp, #4]
 2650 0006 0091     		str	r1, [sp]
 2651              		.loc 17 28 0
 2652 0008 019B     		ldr	r3, [sp, #4]
 2653 000a 1846     		mov	r0, r3
 2654 000c 0099     		ldr	r1, [sp]
 2655 000e FFF7FEFF 		bl	_ZN3r2p13BasePublisher5allocERPNS_7MessageE
 2656 0012 0346     		mov	r3, r0
 2657              		.loc 17 29 0
 2658 0014 1846     		mov	r0, r3
 2659 0016 03B0     		add	sp, sp, #12
 2660              		.cfi_def_cfa_offset 4
 2661              		@ sp needed
 2662 0018 5DF804FB 		ldr	pc, [sp], #4
 2663              		.cfi_endproc
 2664              	.LFE640:
 2665              		.size	_ZN3r2p9PublisherINS_9Speed3MsgEE5allocERPS1_, .-_ZN3r2p9PublisherINS_9Speed3MsgEE5allocERPS
 2666 001c AFF30080 		.section	.text._Z5clampIfET_S0_S0_S0_,"ax",%progbits
 2667              		.align	2
 2668              		.p2align 4,,15
 2669              		.thumb
 2670              		.thumb_func
 2671              		.type	_Z5clampIfET_S0_S0_S0_, %function
 2672              	_Z5clampIfET_S0_S0_S0_:
 2673              	.LFB641:
 2674              		.loc 15 32 0
 2675              		.cfi_startproc
 2676              		@ args = 0, pretend = 0, frame = 16
 2677              		@ frame_needed = 0, uses_anonymous_args = 0
 2678              		@ link register save eliminated.
 2679 0000 84B0     		sub	sp, sp, #16
 2680              		.cfi_def_cfa_offset 16
 2681 0002 8DED030A 		fsts	s0, [sp, #12]
 2682 0006 CDED020A 		fsts	s1, [sp, #8]
 2683 000a 8DED011A 		fsts	s2, [sp, #4]
 2684              		.loc 15 33 0
 2685 000e 9DED027A 		flds	s14, [sp, #8]
 2686 0012 DDED037A 		flds	s15, [sp, #12]
 2687 0016 B4EEE77A 		fcmpes	s14, s15
 2688 001a F1EE10FA 		fmstat
 2689 001e 01D5     		bpl	.L159
 2690              		.loc 15 33 0 is_stmt 0 discriminator 1
 2691 0020 039B     		ldr	r3, [sp, #12]	@ float
 2692 0022 0BE0     		b	.L152
 2693              	.L159:
 2694              		.loc 15 33 0 discriminator 2
 2695 0024 9DED027A 		flds	s14, [sp, #8]
 2696 0028 DDED017A 		flds	s15, [sp, #4]
ARM GAS  /tmp/ccB5ynkg.s 			page 50


 2697 002c B4EEE77A 		fcmpes	s14, s15
 2698 0030 F1EE10FA 		fmstat
 2699 0034 01DD     		ble	.L160
 2700              		.loc 15 33 0 discriminator 4
 2701 0036 019B     		ldr	r3, [sp, #4]	@ float
 2702 0038 00E0     		b	.L152
 2703              	.L160:
 2704              		.loc 15 33 0 discriminator 5
 2705 003a 029B     		ldr	r3, [sp, #8]	@ float
 2706              	.L152:
 2707              		.loc 15 33 0 discriminator 8
 2708 003c 07EE903A 		fmsr	s15, r3
 2709              		.loc 15 34 0 is_stmt 1 discriminator 8
 2710 0040 B0EE670A 		fcpys	s0, s15
 2711 0044 04B0     		add	sp, sp, #16
 2712              		.cfi_def_cfa_offset 0
 2713              		@ sp needed
 2714 0046 7047     		bx	lr
 2715              		.cfi_endproc
 2716              	.LFE641:
 2717              		.size	_Z5clampIfET_S0_S0_S0_, .-_Z5clampIfET_S0_S0_S0_
 2718 0048 AFF30080 		.section	.text._ZN3r2p9PublisherINS_9Speed3MsgEE7publishERS1_,"axG",%progbits,_ZN3r2p9PublisherINS
 2718      AFF30080 
 2719              		.align	2
 2720              		.p2align 4,,15
 2721              		.weak	_ZN3r2p9PublisherINS_9Speed3MsgEE7publishERS1_
 2722              		.thumb
 2723              		.thumb_func
 2724              		.type	_ZN3r2p9PublisherINS_9Speed3MsgEE7publishERS1_, %function
 2725              	_ZN3r2p9PublisherINS_9Speed3MsgEE7publishERS1_:
 2726              	.LFB642:
 2727              		.loc 17 33 0
 2728              		.cfi_startproc
 2729              		@ args = 0, pretend = 0, frame = 8
 2730              		@ frame_needed = 0, uses_anonymous_args = 0
 2731 0000 00B5     		push	{lr}
 2732              		.cfi_def_cfa_offset 4
 2733              		.cfi_offset 14, -4
 2734 0002 83B0     		sub	sp, sp, #12
 2735              		.cfi_def_cfa_offset 16
 2736 0004 0190     		str	r0, [sp, #4]
 2737 0006 0091     		str	r1, [sp]
 2738              		.loc 17 36 0
 2739 0008 019A     		ldr	r2, [sp, #4]
 2740 000a 009B     		ldr	r3, [sp]
 2741 000c 1046     		mov	r0, r2
 2742 000e 1946     		mov	r1, r3
 2743 0010 FFF7FEFF 		bl	_ZN3r2p13BasePublisher7publishERNS_7MessageE
 2744 0014 0346     		mov	r3, r0
 2745              		.loc 17 37 0
 2746 0016 1846     		mov	r0, r3
 2747 0018 03B0     		add	sp, sp, #12
 2748              		.cfi_def_cfa_offset 4
 2749              		@ sp needed
 2750 001a 5DF804FB 		ldr	pc, [sp], #4
 2751              		.cfi_endproc
 2752              	.LFE642:
ARM GAS  /tmp/ccB5ynkg.s 			page 51


 2753              		.size	_ZN3r2p9PublisherINS_9Speed3MsgEE7publishERS1_, .-_ZN3r2p9PublisherINS_9Speed3MsgEE7publishE
 2754 001e 00BF     		.section	.text._ZN3r2p4Node9subscribeINS_7PixyMsgELj5EEEbRNS_10SubscriberIT_XT0_EEEPKc,"axG",%prog
 2755              		.align	2
 2756              		.p2align 4,,15
 2757              		.weak	_ZN3r2p4Node9subscribeINS_7PixyMsgELj5EEEbRNS_10SubscriberIT_XT0_EEEPKc
 2758              		.thumb
 2759              		.thumb_func
 2760              		.type	_ZN3r2p4Node9subscribeINS_7PixyMsgELj5EEEbRNS_10SubscriberIT_XT0_EEEPKc, %function
 2761              	_ZN3r2p4Node9subscribeINS_7PixyMsgELj5EEEbRNS_10SubscriberIT_XT0_EEEPKc:
 2762              	.LFB643:
 2763              		.loc 12 133 0
 2764              		.cfi_startproc
 2765              		@ args = 0, pretend = 0, frame = 16
 2766              		@ frame_needed = 0, uses_anonymous_args = 0
 2767 0000 10B5     		push	{r4, lr}
 2768              		.cfi_def_cfa_offset 8
 2769              		.cfi_offset 4, -8
 2770              		.cfi_offset 14, -4
 2771 0002 86B0     		sub	sp, sp, #24
 2772              		.cfi_def_cfa_offset 32
 2773 0004 0590     		str	r0, [sp, #20]
 2774 0006 0491     		str	r1, [sp, #16]
 2775 0008 0392     		str	r2, [sp, #12]
 2776              		.loc 12 135 0
 2777 000a 049A     		ldr	r2, [sp, #16]
 2778 000c 049B     		ldr	r3, [sp, #16]
 2779 000e 03F13804 		add	r4, r3, #56
 2780 0012 1023     		movs	r3, #16
 2781 0014 0093     		str	r3, [sp]
 2782 0016 0598     		ldr	r0, [sp, #20]
 2783 0018 1146     		mov	r1, r2
 2784 001a 039A     		ldr	r2, [sp, #12]
 2785 001c 2346     		mov	r3, r4
 2786 001e FFF7FEFF 		bl	_ZN3r2p4Node9subscribeERNS_15LocalSubscriberEPKcPNS_7MessageEj
 2787 0022 0346     		mov	r3, r0
 2788              		.loc 12 136 0
 2789 0024 1846     		mov	r0, r3
 2790 0026 06B0     		add	sp, sp, #24
 2791              		.cfi_def_cfa_offset 8
 2792              		@ sp needed
 2793 0028 10BD     		pop	{r4, pc}
 2794              		.cfi_endproc
 2795              	.LFE643:
 2796              		.size	_ZN3r2p4Node9subscribeINS_7PixyMsgELj5EEEbRNS_10SubscriberIT_XT0_EEEPKc, .-_ZN3r2p4Node9subs
 2797 002a 00BFAFF3 		.section	.text._ZN3r2p16SubscriberExtBufINS_7PixyMsgEE5fetchERPS1_,"axG",%progbits,_ZN3r2p16Subscr
 2797      0080
 2798              		.align	2
 2799              		.p2align 4,,15
 2800              		.weak	_ZN3r2p16SubscriberExtBufINS_7PixyMsgEE5fetchERPS1_
 2801              		.thumb
 2802              		.thumb_func
 2803              		.type	_ZN3r2p16SubscriberExtBufINS_7PixyMsgEE5fetchERPS1_, %function
 2804              	_ZN3r2p16SubscriberExtBufINS_7PixyMsgEE5fetchERPS1_:
 2805              	.LFB644:
 2806              		.file 20 "/home/ergae/r2p-sdk/core/Middleware/include/r2p/SubscriberExtBuf.hpp"
 2807              		.loc 20 31 0
 2808              		.cfi_startproc
ARM GAS  /tmp/ccB5ynkg.s 			page 52


 2809              		@ args = 0, pretend = 0, frame = 8
 2810              		@ frame_needed = 0, uses_anonymous_args = 0
 2811 0000 00B5     		push	{lr}
 2812              		.cfi_def_cfa_offset 4
 2813              		.cfi_offset 14, -4
 2814 0002 83B0     		sub	sp, sp, #12
 2815              		.cfi_def_cfa_offset 16
 2816 0004 0190     		str	r0, [sp, #4]
 2817 0006 0091     		str	r1, [sp]
 2818              		.loc 20 34 0
 2819 0008 019B     		ldr	r3, [sp, #4]
 2820 000a 1846     		mov	r0, r3
 2821 000c 0099     		ldr	r1, [sp]
 2822 000e FFF7FEFF 		bl	_ZN3r2p15LocalSubscriber5fetchERPNS_7MessageE
 2823 0012 0346     		mov	r3, r0
 2824              		.loc 20 35 0
 2825 0014 1846     		mov	r0, r3
 2826 0016 03B0     		add	sp, sp, #12
 2827              		.cfi_def_cfa_offset 4
 2828              		@ sp needed
 2829 0018 5DF804FB 		ldr	pc, [sp], #4
 2830              		.cfi_endproc
 2831              	.LFE644:
 2832              		.size	_ZN3r2p16SubscriberExtBufINS_7PixyMsgEE5fetchERPS1_, .-_ZN3r2p16SubscriberExtBufINS_7PixyMsg
 2833 001c AFF30080 		.section	.text._ZN3r2p16SubscriberExtBufINS_7PixyMsgEE7releaseERS1_,"axG",%progbits,_ZN3r2p16Subsc
 2834              		.align	2
 2835              		.p2align 4,,15
 2836              		.weak	_ZN3r2p16SubscriberExtBufINS_7PixyMsgEE7releaseERS1_
 2837              		.thumb
 2838              		.thumb_func
 2839              		.type	_ZN3r2p16SubscriberExtBufINS_7PixyMsgEE7releaseERS1_, %function
 2840              	_ZN3r2p16SubscriberExtBufINS_7PixyMsgEE7releaseERS1_:
 2841              	.LFB645:
 2842              		.loc 20 57 0
 2843              		.cfi_startproc
 2844              		@ args = 0, pretend = 0, frame = 8
 2845              		@ frame_needed = 0, uses_anonymous_args = 0
 2846 0000 00B5     		push	{lr}
 2847              		.cfi_def_cfa_offset 4
 2848              		.cfi_offset 14, -4
 2849 0002 83B0     		sub	sp, sp, #12
 2850              		.cfi_def_cfa_offset 16
 2851 0004 0190     		str	r0, [sp, #4]
 2852 0006 0091     		str	r1, [sp]
 2853              		.loc 20 60 0
 2854 0008 019A     		ldr	r2, [sp, #4]
 2855 000a 009B     		ldr	r3, [sp]
 2856 000c 1046     		mov	r0, r2
 2857 000e 1946     		mov	r1, r3
 2858 0010 FFF7FEFF 		bl	_ZN3r2p14BaseSubscriber7releaseERNS_7MessageE
 2859 0014 0346     		mov	r3, r0
 2860              		.loc 20 61 0
 2861 0016 1846     		mov	r0, r3
 2862 0018 03B0     		add	sp, sp, #12
 2863              		.cfi_def_cfa_offset 4
 2864              		@ sp needed
 2865 001a 5DF804FB 		ldr	pc, [sp], #4
ARM GAS  /tmp/ccB5ynkg.s 			page 53


 2866              		.cfi_endproc
 2867              	.LFE645:
 2868              		.size	_ZN3r2p16SubscriberExtBufINS_7PixyMsgEE7releaseERS1_, .-_ZN3r2p16SubscriberExtBufINS_7PixyMs
 2869 001e 00BF     		.section	.text._ZN3r2p4Node9advertiseINS_9PIDCfgMsgEEEbRNS_9PublisherIT_EEPKcRKNS_4TimeE,"axG",%pr
 2870              		.align	2
 2871              		.p2align 4,,15
 2872              		.weak	_ZN3r2p4Node9advertiseINS_9PIDCfgMsgEEEbRNS_9PublisherIT_EEPKcRKNS_4TimeE
 2873              		.thumb
 2874              		.thumb_func
 2875              		.type	_ZN3r2p4Node9advertiseINS_9PIDCfgMsgEEEbRNS_9PublisherIT_EEPKcRKNS_4TimeE, %function
 2876              	_ZN3r2p4Node9advertiseINS_9PIDCfgMsgEEEbRNS_9PublisherIT_EEPKcRKNS_4TimeE:
 2877              	.LFB646:
 2878              		.loc 12 117 0
 2879              		.cfi_startproc
 2880              		@ args = 0, pretend = 0, frame = 16
 2881              		@ frame_needed = 0, uses_anonymous_args = 0
 2882 0000 00B5     		push	{lr}
 2883              		.cfi_def_cfa_offset 4
 2884              		.cfi_offset 14, -4
 2885 0002 87B0     		sub	sp, sp, #28
 2886              		.cfi_def_cfa_offset 32
 2887 0004 0590     		str	r0, [sp, #20]
 2888 0006 0491     		str	r1, [sp, #16]
 2889 0008 0392     		str	r2, [sp, #12]
 2890 000a 0293     		str	r3, [sp, #8]
 2891              		.loc 12 120 0
 2892 000c 049A     		ldr	r2, [sp, #16]
 2893 000e 0E23     		movs	r3, #14
 2894 0010 0093     		str	r3, [sp]
 2895 0012 0598     		ldr	r0, [sp, #20]
 2896 0014 1146     		mov	r1, r2
 2897 0016 039A     		ldr	r2, [sp, #12]
 2898 0018 029B     		ldr	r3, [sp, #8]
 2899 001a FFF7FEFF 		bl	_ZN3r2p4Node9advertiseERNS_14LocalPublisherEPKcRKNS_4TimeEj
 2900 001e 0346     		mov	r3, r0
 2901              		.loc 12 121 0
 2902 0020 1846     		mov	r0, r3
 2903 0022 07B0     		add	sp, sp, #28
 2904              		.cfi_def_cfa_offset 4
 2905              		@ sp needed
 2906 0024 5DF804FB 		ldr	pc, [sp], #4
 2907              		.cfi_endproc
 2908              	.LFE646:
 2909              		.size	_ZN3r2p4Node9advertiseINS_9PIDCfgMsgEEEbRNS_9PublisherIT_EEPKcRKNS_4TimeE, .-_ZN3r2p4Node9ad
 2910 0028 AFF30080 		.section	.text._ZN3r2p9PublisherINS_9PIDCfgMsgEE5allocERPS1_,"axG",%progbits,_ZN3r2p9PublisherINS_
 2910      AFF30080 
 2911              		.align	2
 2912              		.p2align 4,,15
 2913              		.weak	_ZN3r2p9PublisherINS_9PIDCfgMsgEE5allocERPS1_
 2914              		.thumb
 2915              		.thumb_func
 2916              		.type	_ZN3r2p9PublisherINS_9PIDCfgMsgEE5allocERPS1_, %function
 2917              	_ZN3r2p9PublisherINS_9PIDCfgMsgEE5allocERPS1_:
 2918              	.LFB647:
 2919              		.loc 17 25 0
 2920              		.cfi_startproc
 2921              		@ args = 0, pretend = 0, frame = 8
ARM GAS  /tmp/ccB5ynkg.s 			page 54


 2922              		@ frame_needed = 0, uses_anonymous_args = 0
 2923 0000 00B5     		push	{lr}
 2924              		.cfi_def_cfa_offset 4
 2925              		.cfi_offset 14, -4
 2926 0002 83B0     		sub	sp, sp, #12
 2927              		.cfi_def_cfa_offset 16
 2928 0004 0190     		str	r0, [sp, #4]
 2929 0006 0091     		str	r1, [sp]
 2930              		.loc 17 28 0
 2931 0008 019B     		ldr	r3, [sp, #4]
 2932 000a 1846     		mov	r0, r3
 2933 000c 0099     		ldr	r1, [sp]
 2934 000e FFF7FEFF 		bl	_ZN3r2p13BasePublisher5allocERPNS_7MessageE
 2935 0012 0346     		mov	r3, r0
 2936              		.loc 17 29 0
 2937 0014 1846     		mov	r0, r3
 2938 0016 03B0     		add	sp, sp, #12
 2939              		.cfi_def_cfa_offset 4
 2940              		@ sp needed
 2941 0018 5DF804FB 		ldr	pc, [sp], #4
 2942              		.cfi_endproc
 2943              	.LFE647:
 2944              		.size	_ZN3r2p9PublisherINS_9PIDCfgMsgEE5allocERPS1_, .-_ZN3r2p9PublisherINS_9PIDCfgMsgEE5allocERPS
 2945 001c AFF30080 		.section	.text._ZN3r2p9PublisherINS_9PIDCfgMsgEE7publishERS1_,"axG",%progbits,_ZN3r2p9PublisherINS
 2946              		.align	2
 2947              		.p2align 4,,15
 2948              		.weak	_ZN3r2p9PublisherINS_9PIDCfgMsgEE7publishERS1_
 2949              		.thumb
 2950              		.thumb_func
 2951              		.type	_ZN3r2p9PublisherINS_9PIDCfgMsgEE7publishERS1_, %function
 2952              	_ZN3r2p9PublisherINS_9PIDCfgMsgEE7publishERS1_:
 2953              	.LFB648:
 2954              		.loc 17 33 0
 2955              		.cfi_startproc
 2956              		@ args = 0, pretend = 0, frame = 8
 2957              		@ frame_needed = 0, uses_anonymous_args = 0
 2958 0000 00B5     		push	{lr}
 2959              		.cfi_def_cfa_offset 4
 2960              		.cfi_offset 14, -4
 2961 0002 83B0     		sub	sp, sp, #12
 2962              		.cfi_def_cfa_offset 16
 2963 0004 0190     		str	r0, [sp, #4]
 2964 0006 0091     		str	r1, [sp]
 2965              		.loc 17 36 0
 2966 0008 019A     		ldr	r2, [sp, #4]
 2967 000a 009B     		ldr	r3, [sp]
 2968 000c 1046     		mov	r0, r2
 2969 000e 1946     		mov	r1, r3
 2970 0010 FFF7FEFF 		bl	_ZN3r2p13BasePublisher7publishERNS_7MessageE
 2971 0014 0346     		mov	r3, r0
 2972              		.loc 17 37 0
 2973 0016 1846     		mov	r0, r3
 2974 0018 03B0     		add	sp, sp, #12
 2975              		.cfi_def_cfa_offset 4
 2976              		@ sp needed
 2977 001a 5DF804FB 		ldr	pc, [sp], #4
 2978              		.cfi_endproc
ARM GAS  /tmp/ccB5ynkg.s 			page 55


 2979              	.LFE648:
 2980              		.size	_ZN3r2p9PublisherINS_9PIDCfgMsgEE7publishERS1_, .-_ZN3r2p9PublisherINS_9PIDCfgMsgEE7publishE
 2981 001e 00BF     		.section	.text._ZN3r2p16SubscriberExtBufINS_7PixyMsgEEC2EPPS1_jPFbRKS1_E,"axG",%progbits,_ZN3r2p16
 2982              		.align	2
 2983              		.p2align 4,,15
 2984              		.weak	_ZN3r2p16SubscriberExtBufINS_7PixyMsgEEC2EPPS1_jPFbRKS1_E
 2985              		.thumb
 2986              		.thumb_func
 2987              		.type	_ZN3r2p16SubscriberExtBufINS_7PixyMsgEEC2EPPS1_jPFbRKS1_E, %function
 2988              	_ZN3r2p16SubscriberExtBufINS_7PixyMsgEEC2EPPS1_jPFbRKS1_E:
 2989              	.LFB652:
 2990              		.loc 20 65 0
 2991              		.cfi_startproc
 2992              		@ args = 0, pretend = 0, frame = 16
 2993              		@ frame_needed = 0, uses_anonymous_args = 0
 2994 0000 00B5     		push	{lr}
 2995              		.cfi_def_cfa_offset 4
 2996              		.cfi_offset 14, -4
 2997 0002 85B0     		sub	sp, sp, #20
 2998              		.cfi_def_cfa_offset 24
 2999 0004 0390     		str	r0, [sp, #12]
 3000 0006 0291     		str	r1, [sp, #8]
 3001 0008 0192     		str	r2, [sp, #4]
 3002 000a 0093     		str	r3, [sp]
 3003              	.LBB61:
 3004              		.loc 20 69 0
 3005 000c 039B     		ldr	r3, [sp, #12]
 3006 000e 1846     		mov	r0, r3
 3007 0010 0299     		ldr	r1, [sp, #8]
 3008 0012 019A     		ldr	r2, [sp, #4]
 3009 0014 009B     		ldr	r3, [sp]
 3010 0016 FFF7FEFF 		bl	_ZN3r2p15LocalSubscriberC2EPPNS_7MessageEjPFbRKS1_E
 3011 001a 039B     		ldr	r3, [sp, #12]
 3012 001c 034A     		ldr	r2, .L178
 3013 001e 1A60     		str	r2, [r3]
 3014              	.LBE61:
 3015              		.loc 20 72 0
 3016 0020 039B     		ldr	r3, [sp, #12]
 3017 0022 1846     		mov	r0, r3
 3018 0024 05B0     		add	sp, sp, #20
 3019              		.cfi_def_cfa_offset 4
 3020              		@ sp needed
 3021 0026 5DF804FB 		ldr	pc, [sp], #4
 3022              	.L179:
 3023 002a 00BF     		.align	2
 3024              	.L178:
 3025 002c 08000000 		.word	_ZTVN3r2p16SubscriberExtBufINS_7PixyMsgEEE+8
 3026              		.cfi_endproc
 3027              	.LFE652:
 3028              		.size	_ZN3r2p16SubscriberExtBufINS_7PixyMsgEEC2EPPS1_jPFbRKS1_E, .-_ZN3r2p16SubscriberExtBufINS_7P
 3029              		.weak	_ZN3r2p16SubscriberExtBufINS_7PixyMsgEEC1EPPS1_jPFbRKS1_E
 3030              		.thumb_set _ZN3r2p16SubscriberExtBufINS_7PixyMsgEEC1EPPS1_jPFbRKS1_E,_ZN3r2p16SubscriberExtBufINS_
 3031              		.section	.text._ZN3r2p16SubscriberExtBufINS_7PixyMsgEED2Ev,"axG",%progbits,_ZN3r2p16SubscriberExtB
 3032              		.align	2
 3033              		.p2align 4,,15
 3034              		.weak	_ZN3r2p16SubscriberExtBufINS_7PixyMsgEED2Ev
 3035              		.thumb
ARM GAS  /tmp/ccB5ynkg.s 			page 56


 3036              		.thumb_func
 3037              		.type	_ZN3r2p16SubscriberExtBufINS_7PixyMsgEED2Ev, %function
 3038              	_ZN3r2p16SubscriberExtBufINS_7PixyMsgEED2Ev:
 3039              	.LFB655:
 3040              		.loc 20 76 0
 3041              		.cfi_startproc
 3042              		@ args = 0, pretend = 0, frame = 8
 3043              		@ frame_needed = 0, uses_anonymous_args = 0
 3044 0000 00B5     		push	{lr}
 3045              		.cfi_def_cfa_offset 4
 3046              		.cfi_offset 14, -4
 3047 0002 83B0     		sub	sp, sp, #12
 3048              		.cfi_def_cfa_offset 16
 3049 0004 0190     		str	r0, [sp, #4]
 3050              	.LBB62:
 3051              		.loc 20 79 0
 3052 0006 019B     		ldr	r3, [sp, #4]
 3053 0008 084A     		ldr	r2, .L184
 3054 000a 1A60     		str	r2, [r3]
 3055 000c 019B     		ldr	r3, [sp, #4]
 3056 000e 1846     		mov	r0, r3
 3057 0010 FFF7FEFF 		bl	_ZN3r2p15LocalSubscriberD2Ev
 3058              	.LBE62:
 3059 0014 0023     		movs	r3, #0
 3060 0016 002B     		cmp	r3, #0
 3061 0018 02D0     		beq	.L182
 3062              		.loc 20 79 0 is_stmt 0 discriminator 2
 3063 001a 0198     		ldr	r0, [sp, #4]
 3064 001c FFF7FEFF 		bl	_ZdlPv
 3065              	.L182:
 3066              		.loc 20 79 0 discriminator 4
 3067 0020 019B     		ldr	r3, [sp, #4]
 3068 0022 1846     		mov	r0, r3
 3069 0024 03B0     		add	sp, sp, #12
 3070              		.cfi_def_cfa_offset 4
 3071              		@ sp needed
 3072 0026 5DF804FB 		ldr	pc, [sp], #4
 3073              	.L185:
 3074 002a 00BF     		.align	2
 3075              	.L184:
 3076 002c 08000000 		.word	_ZTVN3r2p16SubscriberExtBufINS_7PixyMsgEEE+8
 3077              		.cfi_endproc
 3078              	.LFE655:
 3079              		.size	_ZN3r2p16SubscriberExtBufINS_7PixyMsgEED2Ev, .-_ZN3r2p16SubscriberExtBufINS_7PixyMsgEED2Ev
 3080              		.weak	_ZN3r2p16SubscriberExtBufINS_7PixyMsgEED1Ev
 3081              		.thumb_set _ZN3r2p16SubscriberExtBufINS_7PixyMsgEED1Ev,_ZN3r2p16SubscriberExtBufINS_7PixyMsgEED2Ev
 3082              		.section	.text._ZN3r2p16SubscriberExtBufINS_7PixyMsgEED0Ev,"axG",%progbits,_ZN3r2p16SubscriberExtB
 3083              		.align	2
 3084              		.p2align 4,,15
 3085              		.weak	_ZN3r2p16SubscriberExtBufINS_7PixyMsgEED0Ev
 3086              		.thumb
 3087              		.thumb_func
 3088              		.type	_ZN3r2p16SubscriberExtBufINS_7PixyMsgEED0Ev, %function
 3089              	_ZN3r2p16SubscriberExtBufINS_7PixyMsgEED0Ev:
 3090              	.LFB657:
 3091              		.loc 20 76 0 is_stmt 1
 3092              		.cfi_startproc
ARM GAS  /tmp/ccB5ynkg.s 			page 57


 3093              		@ args = 0, pretend = 0, frame = 8
 3094              		@ frame_needed = 0, uses_anonymous_args = 0
 3095 0000 00B5     		push	{lr}
 3096              		.cfi_def_cfa_offset 4
 3097              		.cfi_offset 14, -4
 3098 0002 83B0     		sub	sp, sp, #12
 3099              		.cfi_def_cfa_offset 16
 3100 0004 0190     		str	r0, [sp, #4]
 3101              		.loc 20 79 0
 3102 0006 0198     		ldr	r0, [sp, #4]
 3103 0008 FFF7FEFF 		bl	_ZN3r2p16SubscriberExtBufINS_7PixyMsgEED1Ev
 3104 000c 0198     		ldr	r0, [sp, #4]
 3105 000e FFF7FEFF 		bl	_ZdlPv
 3106 0012 019B     		ldr	r3, [sp, #4]
 3107 0014 1846     		mov	r0, r3
 3108 0016 03B0     		add	sp, sp, #12
 3109              		.cfi_def_cfa_offset 4
 3110              		@ sp needed
 3111 0018 5DF804FB 		ldr	pc, [sp], #4
 3112              		.cfi_endproc
 3113              	.LFE657:
 3114              		.size	_ZN3r2p16SubscriberExtBufINS_7PixyMsgEED0Ev, .-_ZN3r2p16SubscriberExtBufINS_7PixyMsgEED0Ev
 3115              		.weak	_ZTVN3r2p10SubscriberINS_7PixyMsgELj5EEE
 3116 001c AFF30080 		.section	.rodata._ZTVN3r2p10SubscriberINS_7PixyMsgELj5EEE,"aG",%progbits,_ZTVN3r2p10SubscriberINS_
 3117              		.align	3
 3118              		.type	_ZTVN3r2p10SubscriberINS_7PixyMsgELj5EEE, %object
 3119              		.size	_ZTVN3r2p10SubscriberINS_7PixyMsgELj5EEE, 36
 3120              	_ZTVN3r2p10SubscriberINS_7PixyMsgELj5EEE:
 3121 0000 00000000 		.word	0
 3122 0004 00000000 		.word	0
 3123 0008 00000000 		.word	_ZNK3r2p15LocalSubscriber16get_queue_lengthEv
 3124 000c 00000000 		.word	_ZN3r2p15LocalSubscriber13notify_unsafeERNS_7MessageERKNS_4TimeE
 3125 0010 00000000 		.word	_ZN3r2p15LocalSubscriber12fetch_unsafeERPNS_7MessageERNS_4TimeE
 3126 0014 00000000 		.word	_ZN3r2p15LocalSubscriber6notifyERNS_7MessageERKNS_4TimeE
 3127 0018 00000000 		.word	_ZN3r2p15LocalSubscriber5fetchERPNS_7MessageERNS_4TimeE
 3128 001c 00000000 		.word	_ZN3r2p10SubscriberINS_7PixyMsgELj5EED1Ev
 3129 0020 00000000 		.word	_ZN3r2p10SubscriberINS_7PixyMsgELj5EED0Ev
 3130              		.weak	_ZTVN3r2p16SubscriberExtBufINS_7PixyMsgEEE
 3131 0024 00000000 		.section	.rodata._ZTVN3r2p16SubscriberExtBufINS_7PixyMsgEEE,"aG",%progbits,_ZTVN3r2p16SubscriberEx
 3132              		.align	3
 3133              		.type	_ZTVN3r2p16SubscriberExtBufINS_7PixyMsgEEE, %object
 3134              		.size	_ZTVN3r2p16SubscriberExtBufINS_7PixyMsgEEE, 36
 3135              	_ZTVN3r2p16SubscriberExtBufINS_7PixyMsgEEE:
 3136 0000 00000000 		.word	0
 3137 0004 00000000 		.word	0
 3138 0008 00000000 		.word	_ZNK3r2p15LocalSubscriber16get_queue_lengthEv
 3139 000c 00000000 		.word	_ZN3r2p15LocalSubscriber13notify_unsafeERNS_7MessageERKNS_4TimeE
 3140 0010 00000000 		.word	_ZN3r2p15LocalSubscriber12fetch_unsafeERPNS_7MessageERNS_4TimeE
 3141 0014 00000000 		.word	_ZN3r2p15LocalSubscriber6notifyERNS_7MessageERKNS_4TimeE
 3142 0018 00000000 		.word	_ZN3r2p15LocalSubscriber5fetchERPNS_7MessageERNS_4TimeE
 3143 001c 00000000 		.word	_ZN3r2p16SubscriberExtBufINS_7PixyMsgEED1Ev
 3144 0020 00000000 		.word	_ZN3r2p16SubscriberExtBufINS_7PixyMsgEED0Ev
 3145              		.weak	_ZTVN3r2p9PublisherINS_9PIDCfgMsgEEE
 3146 0024 00000000 		.section	.rodata._ZTVN3r2p9PublisherINS_9PIDCfgMsgEEE,"aG",%progbits,_ZTVN3r2p9PublisherINS_9PIDCf
 3147              		.align	3
 3148              		.type	_ZTVN3r2p9PublisherINS_9PIDCfgMsgEEE, %object
 3149              		.size	_ZTVN3r2p9PublisherINS_9PIDCfgMsgEEE, 16
ARM GAS  /tmp/ccB5ynkg.s 			page 58


 3150              	_ZTVN3r2p9PublisherINS_9PIDCfgMsgEEE:
 3151 0000 00000000 		.word	0
 3152 0004 00000000 		.word	0
 3153 0008 00000000 		.word	_ZN3r2p9PublisherINS_9PIDCfgMsgEED1Ev
 3154 000c 00000000 		.word	_ZN3r2p9PublisherINS_9PIDCfgMsgEED0Ev
 3155              		.weak	_ZTVN3r2p9PublisherINS_9Speed3MsgEEE
 3156              		.section	.rodata._ZTVN3r2p9PublisherINS_9Speed3MsgEEE,"aG",%progbits,_ZTVN3r2p9PublisherINS_9Speed
 3157              		.align	3
 3158              		.type	_ZTVN3r2p9PublisherINS_9Speed3MsgEEE, %object
 3159              		.size	_ZTVN3r2p9PublisherINS_9Speed3MsgEEE, 16
 3160              	_ZTVN3r2p9PublisherINS_9Speed3MsgEEE:
 3161 0000 00000000 		.word	0
 3162 0004 00000000 		.word	0
 3163 0008 00000000 		.word	_ZN3r2p9PublisherINS_9Speed3MsgEED1Ev
 3164 000c 00000000 		.word	_ZN3r2p9PublisherINS_9Speed3MsgEED0Ev
 3165              		.section	.rodata
 3166 00d6 0000     		.align	2
 3167              	.LC12:
 3168 00d8 73706565 		.ascii	"speedpub\000"
 3168      64707562 
 3168      00
 3169              		.section	.text._Z41__static_initialization_and_destruction_0ii,"ax",%progbits
 3170              		.align	2
 3171              		.p2align 4,,15
 3172              		.thumb
 3173              		.thumb_func
 3174              		.type	_Z41__static_initialization_and_destruction_0ii, %function
 3175              	_Z41__static_initialization_and_destruction_0ii:
 3176              	.LFB659:
 3177              		.loc 15 286 0
 3178              		.cfi_startproc
 3179              		@ args = 0, pretend = 0, frame = 8
 3180              		@ frame_needed = 0, uses_anonymous_args = 0
 3181 0000 00B5     		push	{lr}
 3182              		.cfi_def_cfa_offset 4
 3183              		.cfi_offset 14, -4
 3184 0002 83B0     		sub	sp, sp, #12
 3185              		.cfi_def_cfa_offset 16
 3186 0004 0190     		str	r0, [sp, #4]
 3187 0006 0091     		str	r1, [sp]
 3188              		.loc 15 286 0
 3189 0008 019B     		ldr	r3, [sp, #4]
 3190 000a 012B     		cmp	r3, #1
 3191 000c 3BD1     		bne	.L189
 3192              		.loc 15 286 0 is_stmt 0 discriminator 1
 3193 000e 009B     		ldr	r3, [sp]
 3194 0010 4FF6FF72 		movw	r2, #65535
 3195 0014 9342     		cmp	r3, r2
 3196 0016 36D1     		bne	.L189
 3197              		.loc 15 13 0 is_stmt 1
 3198 0018 1C48     		ldr	r0, .L191
 3199 001a 1D49     		ldr	r1, .L191+4
 3200 001c 0022     		movs	r2, #0
 3201 001e FFF7FEFF 		bl	_ZN3r2p4NodeC1EPKcb
 3202 0022 1A48     		ldr	r0, .L191
 3203 0024 1B49     		ldr	r1, .L191+8
 3204 0026 1C4A     		ldr	r2, .L191+12
ARM GAS  /tmp/ccB5ynkg.s 			page 59


 3205 0028 FFF7FEFF 		bl	__aeabi_atexit
 3206              		.loc 15 14 0
 3207 002c 1B48     		ldr	r0, .L191+16
 3208 002e FFF7FEFF 		bl	_ZN3r2p9PublisherINS_9Speed3MsgEEC1Ev
 3209 0032 1A48     		ldr	r0, .L191+16
 3210 0034 1A49     		ldr	r1, .L191+20
 3211 0036 184A     		ldr	r2, .L191+12
 3212 0038 FFF7FEFF 		bl	__aeabi_atexit
 3213              		.loc 15 17 0
 3214 003c 1948     		ldr	r0, .L191+24
 3215 003e 1A49     		ldr	r1, .L191+28
 3216 0040 0022     		movs	r2, #0
 3217 0042 FFF7FEFF 		bl	_ZN3r2p4NodeC1EPKcb
 3218 0046 1748     		ldr	r0, .L191+24
 3219 0048 1249     		ldr	r1, .L191+8
 3220 004a 134A     		ldr	r2, .L191+12
 3221 004c FFF7FEFF 		bl	__aeabi_atexit
 3222              		.loc 15 18 0
 3223 0050 1648     		ldr	r0, .L191+32
 3224 0052 FFF7FEFF 		bl	_ZN3r2p9PublisherINS_9PIDCfgMsgEEC1Ev
 3225 0056 1548     		ldr	r0, .L191+32
 3226 0058 1549     		ldr	r1, .L191+36
 3227 005a 0F4A     		ldr	r2, .L191+12
 3228 005c FFF7FEFF 		bl	__aeabi_atexit
 3229              		.loc 15 21 0
 3230 0060 1448     		ldr	r0, .L191+40
 3231 0062 1549     		ldr	r1, .L191+44
 3232 0064 0022     		movs	r2, #0
 3233 0066 FFF7FEFF 		bl	_ZN3r2p4NodeC1EPKcb
 3234 006a 1248     		ldr	r0, .L191+40
 3235 006c 0949     		ldr	r1, .L191+8
 3236 006e 0A4A     		ldr	r2, .L191+12
 3237 0070 FFF7FEFF 		bl	__aeabi_atexit
 3238              		.loc 15 22 0
 3239 0074 1148     		ldr	r0, .L191+48
 3240 0076 0021     		movs	r1, #0
 3241 0078 FFF7FEFF 		bl	_ZN3r2p10SubscriberINS_7PixyMsgELj5EEC1EPFbRKS1_E
 3242 007c 0F48     		ldr	r0, .L191+48
 3243 007e 1049     		ldr	r1, .L191+52
 3244 0080 054A     		ldr	r2, .L191+12
 3245 0082 FFF7FEFF 		bl	__aeabi_atexit
 3246              	.L189:
 3247              		.loc 15 286 0
 3248 0086 03B0     		add	sp, sp, #12
 3249              		.cfi_def_cfa_offset 4
 3250              		@ sp needed
 3251 0088 5DF804FB 		ldr	pc, [sp], #4
 3252              	.L192:
 3253              		.align	2
 3254              	.L191:
 3255 008c 00000000 		.word	vel_node
 3256 0090 D8000000 		.word	.LC12
 3257 0094 00000000 		.word	_ZN3r2p4NodeD1Ev
 3258 0098 00000000 		.word	__dso_handle
 3259 009c 00000000 		.word	vel_pub
 3260 00a0 00000000 		.word	_ZN3r2p9PublisherINS_9Speed3MsgEED1Ev
 3261 00a4 00000000 		.word	pidcfg_node
ARM GAS  /tmp/ccB5ynkg.s 			page 60


 3262 00a8 C8000000 		.word	.LC10
 3263 00ac 00000000 		.word	pidcfg_pub
 3264 00b0 00000000 		.word	_ZN3r2p9PublisherINS_9PIDCfgMsgEED1Ev
 3265 00b4 00000000 		.word	pixy_node
 3266 00b8 5C000000 		.word	.LC4
 3267 00bc 00000000 		.word	pixy_sub
 3268 00c0 00000000 		.word	_ZN3r2p10SubscriberINS_7PixyMsgELj5EED1Ev
 3269              		.cfi_endproc
 3270              	.LFE659:
 3271              		.size	_Z41__static_initialization_and_destruction_0ii, .-_Z41__static_initialization_and_destructi
 3272 00c4 AFF30080 		.section	.rodata
 3272      AFF30080 
 3272      AFF30080 
 3273 00e1 000000   		.align	2
 3274              	.LC13:
 3275 00e4 7200     		.ascii	"r\000"
 3276 00e6 0000     		.align	2
 3277              	.LC14:
 3278 00e8 7300     		.ascii	"s\000"
 3279 00ea 0000     		.align	2
 3280              	.LC15:
 3281 00ec 6500     		.ascii	"e\000"
 3282 00ee 0000     		.section	.rodata._ZL8commands,"a",%progbits
 3283              		.align	2
 3284              		.type	_ZL8commands, %object
 3285              		.size	_ZL8commands, 48
 3286              	_ZL8commands:
 3287 0000 5C000000 		.word	.LC4
 3288 0004 00000000 		.word	_ZL8cmd_pixyP20BaseSequentialStreamiPPc
 3289 0008 E4000000 		.word	.LC13
 3290 000c 00000000 		.word	_ZL7cmd_runP20BaseSequentialStreamiPPc
 3291 0010 E8000000 		.word	.LC14
 3292 0014 00000000 		.word	_ZL8cmd_stopP20BaseSequentialStreamiPPc
 3293 0018 EC000000 		.word	.LC15
 3294 001c 00000000 		.word	_ZL7cmd_encP20BaseSequentialStreamiPPc
 3295 0020 C8000000 		.word	.LC10
 3296 0024 00000000 		.word	_ZL10cmd_pidcfgP20BaseSequentialStreamiPPc
 3297 0028 00000000 		.word	0
 3298 002c 00000000 		.word	0
 3299              		.section	.rodata._ZL13usb_shell_cfg,"a",%progbits
 3300              		.align	2
 3301              		.type	_ZL13usb_shell_cfg, %object
 3302              		.size	_ZL13usb_shell_cfg, 8
 3303              	_ZL13usb_shell_cfg:
 3304 0000 00000000 		.word	SDU1
 3305 0004 00000000 		.word	_ZL8commands
 3306              		.section	.text._ZN3r2p10SubscriberINS_7PixyMsgELj5EED2Ev,"axG",%progbits,_ZN3r2p10SubscriberINS_7P
 3307              		.align	2
 3308              		.p2align 4,,15
 3309              		.weak	_ZN3r2p10SubscriberINS_7PixyMsgELj5EED2Ev
 3310              		.thumb
 3311              		.thumb_func
 3312              		.type	_ZN3r2p10SubscriberINS_7PixyMsgELj5EED2Ev, %function
 3313              	_ZN3r2p10SubscriberINS_7PixyMsgELj5EED2Ev:
 3314              	.LFB661:
 3315              		.loc 19 38 0
 3316              		.cfi_startproc
ARM GAS  /tmp/ccB5ynkg.s 			page 61


 3317              		@ args = 0, pretend = 0, frame = 8
 3318              		@ frame_needed = 0, uses_anonymous_args = 0
 3319 0000 00B5     		push	{lr}
 3320              		.cfi_def_cfa_offset 4
 3321              		.cfi_offset 14, -4
 3322 0002 83B0     		sub	sp, sp, #12
 3323              		.cfi_def_cfa_offset 16
 3324 0004 0190     		str	r0, [sp, #4]
 3325              	.LBB63:
 3326              		.loc 19 38 0
 3327 0006 019B     		ldr	r3, [sp, #4]
 3328 0008 084A     		ldr	r2, .L197
 3329 000a 1A60     		str	r2, [r3]
 3330 000c 019B     		ldr	r3, [sp, #4]
 3331 000e 1846     		mov	r0, r3
 3332 0010 FFF7FEFF 		bl	_ZN3r2p16SubscriberExtBufINS_7PixyMsgEED2Ev
 3333              	.LBE63:
 3334 0014 0023     		movs	r3, #0
 3335 0016 002B     		cmp	r3, #0
 3336 0018 02D0     		beq	.L195
 3337              		.loc 19 38 0 is_stmt 0 discriminator 2
 3338 001a 0198     		ldr	r0, [sp, #4]
 3339 001c FFF7FEFF 		bl	_ZdlPv
 3340              	.L195:
 3341              		.loc 19 38 0 discriminator 4
 3342 0020 019B     		ldr	r3, [sp, #4]
 3343 0022 1846     		mov	r0, r3
 3344 0024 03B0     		add	sp, sp, #12
 3345              		.cfi_def_cfa_offset 4
 3346              		@ sp needed
 3347 0026 5DF804FB 		ldr	pc, [sp], #4
 3348              	.L198:
 3349 002a 00BF     		.align	2
 3350              	.L197:
 3351 002c 08000000 		.word	_ZTVN3r2p10SubscriberINS_7PixyMsgELj5EEE+8
 3352              		.cfi_endproc
 3353              	.LFE661:
 3354              		.size	_ZN3r2p10SubscriberINS_7PixyMsgELj5EED2Ev, .-_ZN3r2p10SubscriberINS_7PixyMsgELj5EED2Ev
 3355              		.weak	_ZN3r2p10SubscriberINS_7PixyMsgELj5EED1Ev
 3356              		.thumb_set _ZN3r2p10SubscriberINS_7PixyMsgELj5EED1Ev,_ZN3r2p10SubscriberINS_7PixyMsgELj5EED2Ev
 3357              		.section	.text._ZN3r2p10SubscriberINS_7PixyMsgELj5EED0Ev,"axG",%progbits,_ZN3r2p10SubscriberINS_7P
 3358              		.align	2
 3359              		.p2align 4,,15
 3360              		.weak	_ZN3r2p10SubscriberINS_7PixyMsgELj5EED0Ev
 3361              		.thumb
 3362              		.thumb_func
 3363              		.type	_ZN3r2p10SubscriberINS_7PixyMsgELj5EED0Ev, %function
 3364              	_ZN3r2p10SubscriberINS_7PixyMsgELj5EED0Ev:
 3365              	.LFB663:
 3366              		.loc 19 38 0 is_stmt 1
 3367              		.cfi_startproc
 3368              		@ args = 0, pretend = 0, frame = 8
 3369              		@ frame_needed = 0, uses_anonymous_args = 0
 3370 0000 00B5     		push	{lr}
 3371              		.cfi_def_cfa_offset 4
 3372              		.cfi_offset 14, -4
 3373 0002 83B0     		sub	sp, sp, #12
ARM GAS  /tmp/ccB5ynkg.s 			page 62


 3374              		.cfi_def_cfa_offset 16
 3375 0004 0190     		str	r0, [sp, #4]
 3376              		.loc 19 38 0
 3377 0006 0198     		ldr	r0, [sp, #4]
 3378 0008 FFF7FEFF 		bl	_ZN3r2p10SubscriberINS_7PixyMsgELj5EED1Ev
 3379 000c 0198     		ldr	r0, [sp, #4]
 3380 000e FFF7FEFF 		bl	_ZdlPv
 3381 0012 019B     		ldr	r3, [sp, #4]
 3382 0014 1846     		mov	r0, r3
 3383 0016 03B0     		add	sp, sp, #12
 3384              		.cfi_def_cfa_offset 4
 3385              		@ sp needed
 3386 0018 5DF804FB 		ldr	pc, [sp], #4
 3387              		.cfi_endproc
 3388              	.LFE663:
 3389              		.size	_ZN3r2p10SubscriberINS_7PixyMsgELj5EED0Ev, .-_ZN3r2p10SubscriberINS_7PixyMsgELj5EED0Ev
 3390 001c AFF30080 		.section	.text._ZN3r2p9PublisherINS_9PIDCfgMsgEED2Ev,"axG",%progbits,_ZN3r2p9PublisherINS_9PIDCfgM
 3391              		.align	2
 3392              		.p2align 4,,15
 3393              		.weak	_ZN3r2p9PublisherINS_9PIDCfgMsgEED2Ev
 3394              		.thumb
 3395              		.thumb_func
 3396              		.type	_ZN3r2p9PublisherINS_9PIDCfgMsgEED2Ev, %function
 3397              	_ZN3r2p9PublisherINS_9PIDCfgMsgEED2Ev:
 3398              	.LFB665:
 3399              		.loc 17 54 0
 3400              		.cfi_startproc
 3401              		@ args = 0, pretend = 0, frame = 8
 3402              		@ frame_needed = 0, uses_anonymous_args = 0
 3403 0000 00B5     		push	{lr}
 3404              		.cfi_def_cfa_offset 4
 3405              		.cfi_offset 14, -4
 3406 0002 83B0     		sub	sp, sp, #12
 3407              		.cfi_def_cfa_offset 16
 3408 0004 0190     		str	r0, [sp, #4]
 3409              	.LBB64:
 3410              		.loc 17 57 0
 3411 0006 019B     		ldr	r3, [sp, #4]
 3412 0008 084A     		ldr	r2, .L206
 3413 000a 1A60     		str	r2, [r3]
 3414 000c 019B     		ldr	r3, [sp, #4]
 3415 000e 1846     		mov	r0, r3
 3416 0010 FFF7FEFF 		bl	_ZN3r2p14LocalPublisherD2Ev
 3417              	.LBE64:
 3418 0014 0023     		movs	r3, #0
 3419 0016 002B     		cmp	r3, #0
 3420 0018 02D0     		beq	.L204
 3421              		.loc 17 57 0 is_stmt 0 discriminator 2
 3422 001a 0198     		ldr	r0, [sp, #4]
 3423 001c FFF7FEFF 		bl	_ZdlPv
 3424              	.L204:
 3425              		.loc 17 57 0 discriminator 4
 3426 0020 019B     		ldr	r3, [sp, #4]
 3427 0022 1846     		mov	r0, r3
 3428 0024 03B0     		add	sp, sp, #12
 3429              		.cfi_def_cfa_offset 4
 3430              		@ sp needed
ARM GAS  /tmp/ccB5ynkg.s 			page 63


 3431 0026 5DF804FB 		ldr	pc, [sp], #4
 3432              	.L207:
 3433 002a 00BF     		.align	2
 3434              	.L206:
 3435 002c 08000000 		.word	_ZTVN3r2p9PublisherINS_9PIDCfgMsgEEE+8
 3436              		.cfi_endproc
 3437              	.LFE665:
 3438              		.size	_ZN3r2p9PublisherINS_9PIDCfgMsgEED2Ev, .-_ZN3r2p9PublisherINS_9PIDCfgMsgEED2Ev
 3439              		.weak	_ZN3r2p9PublisherINS_9PIDCfgMsgEED1Ev
 3440              		.thumb_set _ZN3r2p9PublisherINS_9PIDCfgMsgEED1Ev,_ZN3r2p9PublisherINS_9PIDCfgMsgEED2Ev
 3441              		.section	.text._ZN3r2p9PublisherINS_9PIDCfgMsgEED0Ev,"axG",%progbits,_ZN3r2p9PublisherINS_9PIDCfgM
 3442              		.align	2
 3443              		.p2align 4,,15
 3444              		.weak	_ZN3r2p9PublisherINS_9PIDCfgMsgEED0Ev
 3445              		.thumb
 3446              		.thumb_func
 3447              		.type	_ZN3r2p9PublisherINS_9PIDCfgMsgEED0Ev, %function
 3448              	_ZN3r2p9PublisherINS_9PIDCfgMsgEED0Ev:
 3449              	.LFB667:
 3450              		.loc 17 54 0 is_stmt 1
 3451              		.cfi_startproc
 3452              		@ args = 0, pretend = 0, frame = 8
 3453              		@ frame_needed = 0, uses_anonymous_args = 0
 3454 0000 00B5     		push	{lr}
 3455              		.cfi_def_cfa_offset 4
 3456              		.cfi_offset 14, -4
 3457 0002 83B0     		sub	sp, sp, #12
 3458              		.cfi_def_cfa_offset 16
 3459 0004 0190     		str	r0, [sp, #4]
 3460              		.loc 17 57 0
 3461 0006 0198     		ldr	r0, [sp, #4]
 3462 0008 FFF7FEFF 		bl	_ZN3r2p9PublisherINS_9PIDCfgMsgEED1Ev
 3463 000c 0198     		ldr	r0, [sp, #4]
 3464 000e FFF7FEFF 		bl	_ZdlPv
 3465 0012 019B     		ldr	r3, [sp, #4]
 3466 0014 1846     		mov	r0, r3
 3467 0016 03B0     		add	sp, sp, #12
 3468              		.cfi_def_cfa_offset 4
 3469              		@ sp needed
 3470 0018 5DF804FB 		ldr	pc, [sp], #4
 3471              		.cfi_endproc
 3472              	.LFE667:
 3473              		.size	_ZN3r2p9PublisherINS_9PIDCfgMsgEED0Ev, .-_ZN3r2p9PublisherINS_9PIDCfgMsgEED0Ev
 3474 001c AFF30080 		.section	.text._ZN3r2p9PublisherINS_9Speed3MsgEED2Ev,"axG",%progbits,_ZN3r2p9PublisherINS_9Speed3M
 3475              		.align	2
 3476              		.p2align 4,,15
 3477              		.weak	_ZN3r2p9PublisherINS_9Speed3MsgEED2Ev
 3478              		.thumb
 3479              		.thumb_func
 3480              		.type	_ZN3r2p9PublisherINS_9Speed3MsgEED2Ev, %function
 3481              	_ZN3r2p9PublisherINS_9Speed3MsgEED2Ev:
 3482              	.LFB669:
 3483              		.loc 17 54 0
 3484              		.cfi_startproc
 3485              		@ args = 0, pretend = 0, frame = 8
 3486              		@ frame_needed = 0, uses_anonymous_args = 0
 3487 0000 00B5     		push	{lr}
ARM GAS  /tmp/ccB5ynkg.s 			page 64


 3488              		.cfi_def_cfa_offset 4
 3489              		.cfi_offset 14, -4
 3490 0002 83B0     		sub	sp, sp, #12
 3491              		.cfi_def_cfa_offset 16
 3492 0004 0190     		str	r0, [sp, #4]
 3493              	.LBB65:
 3494              		.loc 17 57 0
 3495 0006 019B     		ldr	r3, [sp, #4]
 3496 0008 084A     		ldr	r2, .L215
 3497 000a 1A60     		str	r2, [r3]
 3498 000c 019B     		ldr	r3, [sp, #4]
 3499 000e 1846     		mov	r0, r3
 3500 0010 FFF7FEFF 		bl	_ZN3r2p14LocalPublisherD2Ev
 3501              	.LBE65:
 3502 0014 0023     		movs	r3, #0
 3503 0016 002B     		cmp	r3, #0
 3504 0018 02D0     		beq	.L213
 3505              		.loc 17 57 0 is_stmt 0 discriminator 2
 3506 001a 0198     		ldr	r0, [sp, #4]
 3507 001c FFF7FEFF 		bl	_ZdlPv
 3508              	.L213:
 3509              		.loc 17 57 0 discriminator 4
 3510 0020 019B     		ldr	r3, [sp, #4]
 3511 0022 1846     		mov	r0, r3
 3512 0024 03B0     		add	sp, sp, #12
 3513              		.cfi_def_cfa_offset 4
 3514              		@ sp needed
 3515 0026 5DF804FB 		ldr	pc, [sp], #4
 3516              	.L216:
 3517 002a 00BF     		.align	2
 3518              	.L215:
 3519 002c 08000000 		.word	_ZTVN3r2p9PublisherINS_9Speed3MsgEEE+8
 3520              		.cfi_endproc
 3521              	.LFE669:
 3522              		.size	_ZN3r2p9PublisherINS_9Speed3MsgEED2Ev, .-_ZN3r2p9PublisherINS_9Speed3MsgEED2Ev
 3523              		.weak	_ZN3r2p9PublisherINS_9Speed3MsgEED1Ev
 3524              		.thumb_set _ZN3r2p9PublisherINS_9Speed3MsgEED1Ev,_ZN3r2p9PublisherINS_9Speed3MsgEED2Ev
 3525              		.section	.text._ZN3r2p9PublisherINS_9Speed3MsgEED0Ev,"axG",%progbits,_ZN3r2p9PublisherINS_9Speed3M
 3526              		.align	2
 3527              		.p2align 4,,15
 3528              		.weak	_ZN3r2p9PublisherINS_9Speed3MsgEED0Ev
 3529              		.thumb
 3530              		.thumb_func
 3531              		.type	_ZN3r2p9PublisherINS_9Speed3MsgEED0Ev, %function
 3532              	_ZN3r2p9PublisherINS_9Speed3MsgEED0Ev:
 3533              	.LFB671:
 3534              		.loc 17 54 0 is_stmt 1
 3535              		.cfi_startproc
 3536              		@ args = 0, pretend = 0, frame = 8
 3537              		@ frame_needed = 0, uses_anonymous_args = 0
 3538 0000 00B5     		push	{lr}
 3539              		.cfi_def_cfa_offset 4
 3540              		.cfi_offset 14, -4
 3541 0002 83B0     		sub	sp, sp, #12
 3542              		.cfi_def_cfa_offset 16
 3543 0004 0190     		str	r0, [sp, #4]
 3544              		.loc 17 57 0
ARM GAS  /tmp/ccB5ynkg.s 			page 65


 3545 0006 0198     		ldr	r0, [sp, #4]
 3546 0008 FFF7FEFF 		bl	_ZN3r2p9PublisherINS_9Speed3MsgEED1Ev
 3547 000c 0198     		ldr	r0, [sp, #4]
 3548 000e FFF7FEFF 		bl	_ZdlPv
 3549 0012 019B     		ldr	r3, [sp, #4]
 3550 0014 1846     		mov	r0, r3
 3551 0016 03B0     		add	sp, sp, #12
 3552              		.cfi_def_cfa_offset 4
 3553              		@ sp needed
 3554 0018 5DF804FB 		ldr	pc, [sp], #4
 3555              		.cfi_endproc
 3556              	.LFE671:
 3557              		.size	_ZN3r2p9PublisherINS_9Speed3MsgEED0Ev, .-_ZN3r2p9PublisherINS_9Speed3MsgEED0Ev
 3558 001c AFF30080 		.section	.text._GLOBAL__sub_I_vel_node,"ax",%progbits
 3559              		.align	2
 3560              		.p2align 4,,15
 3561              		.thumb
 3562              		.thumb_func
 3563              		.type	_GLOBAL__sub_I_vel_node, %function
 3564              	_GLOBAL__sub_I_vel_node:
 3565              	.LFB672:
 3566              		.loc 15 286 0
 3567              		.cfi_startproc
 3568              		@ args = 0, pretend = 0, frame = 0
 3569              		@ frame_needed = 0, uses_anonymous_args = 0
 3570 0000 08B5     		push	{r3, lr}
 3571              		.cfi_def_cfa_offset 8
 3572              		.cfi_offset 3, -8
 3573              		.cfi_offset 14, -4
 3574              		.loc 15 286 0
 3575 0002 0120     		movs	r0, #1
 3576 0004 4FF6FF71 		movw	r1, #65535
 3577 0008 FFF7FEFF 		bl	_Z41__static_initialization_and_destruction_0ii
 3578 000c 08BD     		pop	{r3, pc}
 3579              		.cfi_endproc
 3580              	.LFE672:
 3581              		.size	_GLOBAL__sub_I_vel_node, .-_GLOBAL__sub_I_vel_node
 3582 000e 00BF     		.section	.init_array,"aw",%init_array
 3583              		.align	2
 3584 0000 00000000 		.word	_GLOBAL__sub_I_vel_node(target1)
 3585              		.text
 3586              	.Letext0:
 3587              		.file 21 "/home/ergae/r2p-sdk/tools/gcc-arm-none-eabi-4_9-2014q4/lib/gcc/arm-none-eabi/4.9.3/inclu
 3588              		.file 22 "/home/ergae/r2p-sdk/tools/gcc-arm-none-eabi-4_9-2014q4/arm-none-eabi/include/machine/_de
 3589              		.file 23 "/home/ergae/r2p-sdk/tools/gcc-arm-none-eabi-4_9-2014q4/arm-none-eabi/include/stdint.h"
 3590              		.file 24 "/home/ergae/r2p-sdk/core/ChibiOS/os/ports/GCC/ARMCMx/chtypes.h"
 3591              		.file 25 "/home/ergae/r2p-sdk/core/ChibiOS/os/kernel/include/chlists.h"
 3592              		.file 26 "/home/ergae/r2p-sdk/core/ChibiOS/os/kernel/include/chthreads.h"
 3593              		.file 27 "/home/ergae/r2p-sdk/core/ChibiOS/os/ports/GCC/ARMCMx/chcore_v7m.h"
 3594              		.file 28 "/home/ergae/r2p-sdk/core/ChibiOS/os/kernel/include/chschd.h"
 3595              		.file 29 "/home/ergae/r2p-sdk/core/ChibiOS/os/kernel/include/chmtx.h"
 3596              		.file 30 "/home/ergae/r2p-sdk/core/ChibiOS/os/kernel/include/chevents.h"
 3597              		.file 31 "/home/ergae/r2p-sdk/core/ChibiOS/os/kernel/include/chmemcore.h"
 3598              		.file 32 "/home/ergae/r2p-sdk/core/ChibiOS/os/kernel/include/chmempools.h"
 3599              		.file 33 "/home/ergae/r2p-sdk/core/ChibiOS/os/kernel/include/chqueues.h"
 3600              		.file 34 "/home/ergae/r2p-sdk/core/ChibiOS/os/kernel/include/chstreams.h"
 3601              		.file 35 "/home/ergae/r2p-sdk/core/ChibiOS/os/hal/platforms/STM32/GPIOv2/pal_lld.h"
ARM GAS  /tmp/ccB5ynkg.s 			page 66


 3602              		.file 36 "/home/ergae/r2p-sdk/core/ChibiOS/os/hal/include/usb.h"
 3603              		.file 37 "/home/ergae/r2p-sdk/core/ChibiOS/os/hal/platforms/STM32/USBv1/usb_lld.h"
 3604              		.file 38 "/home/ergae/r2p-sdk/core/ChibiOS/os/hal/include/serial_usb.h"
 3605              		.file 39 "/home/ergae/r2p-sdk/tools/gcc-arm-none-eabi-4_9-2014q4/lib/gcc/arm-none-eabi/4.9.3/inclu
 3606              		.file 40 "<built-in>"
 3607              		.file 41 "/home/ergae/r2p-sdk/core/ChibiOS/os/various/shell.h"
 3608              		.file 42 "/home/ergae/r2p-sdk/tools/gcc-arm-none-eabi-4_9-2014q4/arm-none-eabi/include/c++/4.9.3/c
 3609              		.file 43 "/home/ergae/r2p-sdk/tools/gcc-arm-none-eabi-4_9-2014q4/arm-none-eabi/include/string.h"
 3610              		.file 44 "/home/ergae/r2p-sdk/core/Middleware/include/r2p/Uncopyable.hpp"
 3611              		.file 45 "/home/ergae/r2p-sdk/core/Middleware/include/r2p/StaticList.hpp"
 3612              		.file 46 "/home/ergae/r2p-sdk/core/Middleware/include/r2p/LocalPublisher.hpp"
 3613              		.file 47 "/home/ergae/r2p-sdk/core/Middleware/include/r2p/BaseSubscriber.hpp"
 3614              		.file 48 "/home/ergae/r2p-sdk/core/Middleware/include/r2p/msg/motor.hpp"
 3615              		.file 49 "/home/ergae/r2p-sdk/core/Middleware/include/r2p/common.hpp"
 3616              		.file 50 "/home/ergae/r2p-sdk/core/ChibiOS/os/ports/common/ARMCMx/CMSIS/include/core_cm4.h"
 3617              		.file 51 "/home/ergae/r2p-sdk/modules/USB_module/usbcfg.h"
 3618              		.section	.debug_info,"",%progbits
 3619              	.Ldebug_info0:
 3620 0000 B7630000 		.4byte	0x63b7
 3621 0004 0400     		.2byte	0x4
 3622 0006 00000000 		.4byte	.Ldebug_abbrev0
 3623 000a 04       		.byte	0x4
 3624 000b 01       		.uleb128 0x1
 3625 000c 85090000 		.4byte	.LASF900
 3626 0010 04       		.byte	0x4
 3627 0011 6E540000 		.4byte	.LASF901
 3628 0015 3F5A0000 		.4byte	.LASF902
 3629 0019 00000000 		.4byte	.Ldebug_ranges0+0
 3630 001d 00000000 		.4byte	0
 3631 0021 00000000 		.4byte	.Ldebug_line0
 3632 0025 02       		.uleb128 0x2
 3633 0026 961F0000 		.4byte	.LASF2
 3634 002a 15       		.byte	0x15
 3635 002b D4       		.byte	0xd4
 3636 002c 30000000 		.4byte	0x30
 3637 0030 03       		.uleb128 0x3
 3638 0031 04       		.byte	0x4
 3639 0032 07       		.byte	0x7
 3640 0033 435E0000 		.4byte	.LASF0
 3641 0037 04       		.uleb128 0x4
 3642 0038 04       		.byte	0x4
 3643 0039 05       		.byte	0x5
 3644 003a 696E7400 		.ascii	"int\000"
 3645 003e 03       		.uleb128 0x3
 3646 003f 01       		.byte	0x1
 3647 0040 06       		.byte	0x6
 3648 0041 3F310000 		.4byte	.LASF1
 3649 0045 02       		.uleb128 0x2
 3650 0046 15020000 		.4byte	.LASF3
 3651 004a 16       		.byte	0x16
 3652 004b 1D       		.byte	0x1d
 3653 004c 50000000 		.4byte	0x50
 3654 0050 03       		.uleb128 0x3
 3655 0051 01       		.byte	0x1
 3656 0052 08       		.byte	0x8
 3657 0053 4F160000 		.4byte	.LASF4
 3658 0057 02       		.uleb128 0x2
ARM GAS  /tmp/ccB5ynkg.s 			page 67


 3659 0058 D4130000 		.4byte	.LASF5
 3660 005c 16       		.byte	0x16
 3661 005d 29       		.byte	0x29
 3662 005e 62000000 		.4byte	0x62
 3663 0062 03       		.uleb128 0x3
 3664 0063 02       		.byte	0x2
 3665 0064 05       		.byte	0x5
 3666 0065 F05E0000 		.4byte	.LASF6
 3667 0069 02       		.uleb128 0x2
 3668 006a E8130000 		.4byte	.LASF7
 3669 006e 16       		.byte	0x16
 3670 006f 2B       		.byte	0x2b
 3671 0070 74000000 		.4byte	0x74
 3672 0074 03       		.uleb128 0x3
 3673 0075 02       		.byte	0x2
 3674 0076 07       		.byte	0x7
 3675 0077 2C310000 		.4byte	.LASF8
 3676 007b 02       		.uleb128 0x2
 3677 007c 81490000 		.4byte	.LASF9
 3678 0080 16       		.byte	0x16
 3679 0081 3F       		.byte	0x3f
 3680 0082 86000000 		.4byte	0x86
 3681 0086 03       		.uleb128 0x3
 3682 0087 04       		.byte	0x4
 3683 0088 05       		.byte	0x5
 3684 0089 C2380000 		.4byte	.LASF10
 3685 008d 02       		.uleb128 0x2
 3686 008e C6490000 		.4byte	.LASF11
 3687 0092 16       		.byte	0x16
 3688 0093 41       		.byte	0x41
 3689 0094 98000000 		.4byte	0x98
 3690 0098 03       		.uleb128 0x3
 3691 0099 04       		.byte	0x4
 3692 009a 07       		.byte	0x7
 3693 009b CD3C0000 		.4byte	.LASF12
 3694 009f 03       		.uleb128 0x3
 3695 00a0 08       		.byte	0x8
 3696 00a1 05       		.byte	0x5
 3697 00a2 9E550000 		.4byte	.LASF13
 3698 00a6 02       		.uleb128 0x2
 3699 00a7 B7260000 		.4byte	.LASF14
 3700 00ab 16       		.byte	0x16
 3701 00ac 5B       		.byte	0x5b
 3702 00ad B1000000 		.4byte	0xb1
 3703 00b1 03       		.uleb128 0x3
 3704 00b2 08       		.byte	0x8
 3705 00b3 07       		.byte	0x7
 3706 00b4 5D4E0000 		.4byte	.LASF15
 3707 00b8 03       		.uleb128 0x3
 3708 00b9 04       		.byte	0x4
 3709 00ba 07       		.byte	0x7
 3710 00bb B4300000 		.4byte	.LASF16
 3711 00bf 05       		.uleb128 0x5
 3712 00c0 04       		.byte	0x4
 3713 00c1 06       		.uleb128 0x6
 3714 00c2 04       		.byte	0x4
 3715 00c3 C7000000 		.4byte	0xc7
ARM GAS  /tmp/ccB5ynkg.s 			page 68


 3716 00c7 03       		.uleb128 0x3
 3717 00c8 01       		.byte	0x1
 3718 00c9 08       		.byte	0x8
 3719 00ca 593F0000 		.4byte	.LASF17
 3720 00ce 06       		.uleb128 0x6
 3721 00cf 04       		.byte	0x4
 3722 00d0 D4000000 		.4byte	0xd4
 3723 00d4 07       		.uleb128 0x7
 3724 00d5 C7000000 		.4byte	0xc7
 3725 00d9 06       		.uleb128 0x6
 3726 00da 04       		.byte	0x4
 3727 00db DF000000 		.4byte	0xdf
 3728 00df 08       		.uleb128 0x8
 3729 00e0 02       		.uleb128 0x2
 3730 00e1 10200000 		.4byte	.LASF18
 3731 00e5 17       		.byte	0x17
 3732 00e6 15       		.byte	0x15
 3733 00e7 45000000 		.4byte	0x45
 3734 00eb 02       		.uleb128 0x2
 3735 00ec 24310000 		.4byte	.LASF19
 3736 00f0 17       		.byte	0x17
 3737 00f1 20       		.byte	0x20
 3738 00f2 57000000 		.4byte	0x57
 3739 00f6 02       		.uleb128 0x2
 3740 00f7 AF050000 		.4byte	.LASF20
 3741 00fb 17       		.byte	0x17
 3742 00fc 21       		.byte	0x21
 3743 00fd 69000000 		.4byte	0x69
 3744 0101 02       		.uleb128 0x2
 3745 0102 8A0B0000 		.4byte	.LASF21
 3746 0106 17       		.byte	0x17
 3747 0107 2C       		.byte	0x2c
 3748 0108 7B000000 		.4byte	0x7b
 3749 010c 02       		.uleb128 0x2
 3750 010d F93A0000 		.4byte	.LASF22
 3751 0111 17       		.byte	0x17
 3752 0112 2D       		.byte	0x2d
 3753 0113 8D000000 		.4byte	0x8d
 3754 0117 02       		.uleb128 0x2
 3755 0118 02190000 		.4byte	.LASF23
 3756 011c 17       		.byte	0x17
 3757 011d 39       		.byte	0x39
 3758 011e A6000000 		.4byte	0xa6
 3759 0122 02       		.uleb128 0x2
 3760 0123 DF3C0000 		.4byte	.LASF24
 3761 0127 18       		.byte	0x18
 3762 0128 2B       		.byte	0x2b
 3763 0129 2D010000 		.4byte	0x12d
 3764 012d 03       		.uleb128 0x3
 3765 012e 01       		.byte	0x1
 3766 012f 02       		.byte	0x2
 3767 0130 80090000 		.4byte	.LASF25
 3768 0134 02       		.uleb128 0x2
 3769 0135 992B0000 		.4byte	.LASF26
 3770 0139 18       		.byte	0x18
 3771 013a 2C       		.byte	0x2c
 3772 013b E0000000 		.4byte	0xe0
ARM GAS  /tmp/ccB5ynkg.s 			page 69


 3773 013f 02       		.uleb128 0x2
 3774 0140 15520000 		.4byte	.LASF27
 3775 0144 18       		.byte	0x18
 3776 0145 2D       		.byte	0x2d
 3777 0146 E0000000 		.4byte	0xe0
 3778 014a 02       		.uleb128 0x2
 3779 014b CD2A0000 		.4byte	.LASF28
 3780 014f 18       		.byte	0x18
 3781 0150 2E       		.byte	0x2e
 3782 0151 E0000000 		.4byte	0xe0
 3783 0155 02       		.uleb128 0x2
 3784 0156 34300000 		.4byte	.LASF29
 3785 015a 18       		.byte	0x18
 3786 015b 2F       		.byte	0x2f
 3787 015c E0000000 		.4byte	0xe0
 3788 0160 02       		.uleb128 0x2
 3789 0161 36120000 		.4byte	.LASF30
 3790 0165 18       		.byte	0x18
 3791 0166 30       		.byte	0x30
 3792 0167 0C010000 		.4byte	0x10c
 3793 016b 02       		.uleb128 0x2
 3794 016c C3000000 		.4byte	.LASF31
 3795 0170 18       		.byte	0x18
 3796 0171 31       		.byte	0x31
 3797 0172 01010000 		.4byte	0x101
 3798 0176 02       		.uleb128 0x2
 3799 0177 073C0000 		.4byte	.LASF32
 3800 017b 18       		.byte	0x18
 3801 017c 33       		.byte	0x33
 3802 017d 0C010000 		.4byte	0x10c
 3803 0181 02       		.uleb128 0x2
 3804 0182 88570000 		.4byte	.LASF33
 3805 0186 18       		.byte	0x18
 3806 0187 34       		.byte	0x34
 3807 0188 0C010000 		.4byte	0x10c
 3808 018c 02       		.uleb128 0x2
 3809 018d E00B0000 		.4byte	.LASF34
 3810 0191 18       		.byte	0x18
 3811 0192 35       		.byte	0x35
 3812 0193 0C010000 		.4byte	0x10c
 3813 0197 02       		.uleb128 0x2
 3814 0198 37190000 		.4byte	.LASF35
 3815 019c 19       		.byte	0x19
 3816 019d 2A       		.byte	0x2a
 3817 019e A2010000 		.4byte	0x1a2
 3818 01a2 09       		.uleb128 0x9
 3819 01a3 37190000 		.4byte	.LASF35
 3820 01a7 4C       		.byte	0x4c
 3821 01a8 1A       		.byte	0x1a
 3822 01a9 5E       		.byte	0x5e
 3823 01aa E0020000 		.4byte	0x2e0
 3824 01ae 0A       		.uleb128 0xa
 3825 01af 04       		.byte	0x4
 3826 01b0 1A       		.byte	0x1a
 3827 01b1 96       		.byte	0x96
 3828 01b2 E3010000 		.4byte	0x1e3
 3829 01b6 0B       		.uleb128 0xb
ARM GAS  /tmp/ccB5ynkg.s 			page 70


 3830 01b7 4A250000 		.4byte	.LASF36
 3831 01bb 1A       		.byte	0x1a
 3832 01bc 9D       		.byte	0x9d
 3833 01bd 6B010000 		.4byte	0x16b
 3834 01c1 0B       		.uleb128 0xb
 3835 01c2 41210000 		.4byte	.LASF37
 3836 01c6 1A       		.byte	0x1a
 3837 01c7 A4       		.byte	0xa4
 3838 01c8 6B010000 		.4byte	0x16b
 3839 01cc 0B       		.uleb128 0xb
 3840 01cd 5F460000 		.4byte	.LASF38
 3841 01d1 1A       		.byte	0x1a
 3842 01d2 AB       		.byte	0xab
 3843 01d3 BF000000 		.4byte	0xbf
 3844 01d7 0B       		.uleb128 0xb
 3845 01d8 B8500000 		.4byte	.LASF39
 3846 01dc 1A       		.byte	0x1a
 3847 01dd B2       		.byte	0xb2
 3848 01de 76010000 		.4byte	0x176
 3849 01e2 00       		.byte	0
 3850 01e3 0C       		.uleb128 0xc
 3851 01e4 F8270000 		.4byte	.LASF40
 3852 01e8 1A       		.byte	0x1a
 3853 01e9 5F       		.byte	0x5f
 3854 01ea 5C060000 		.4byte	0x65c
 3855 01ee 00       		.byte	0
 3856 01ef 0C       		.uleb128 0xc
 3857 01f0 20200000 		.4byte	.LASF41
 3858 01f4 1A       		.byte	0x1a
 3859 01f5 61       		.byte	0x61
 3860 01f6 5C060000 		.4byte	0x65c
 3861 01fa 04       		.byte	0x4
 3862 01fb 0C       		.uleb128 0xc
 3863 01fc D1250000 		.4byte	.LASF42
 3864 0200 1A       		.byte	0x1a
 3865 0201 63       		.byte	0x63
 3866 0202 60010000 		.4byte	0x160
 3867 0206 08       		.byte	0x8
 3868 0207 0C       		.uleb128 0xc
 3869 0208 0A180000 		.4byte	.LASF43
 3870 020c 1A       		.byte	0x1a
 3871 020d 64       		.byte	0x64
 3872 020e 9C040000 		.4byte	0x49c
 3873 0212 0C       		.byte	0xc
 3874 0213 0C       		.uleb128 0xc
 3875 0214 49070000 		.4byte	.LASF44
 3876 0218 1A       		.byte	0x1a
 3877 0219 66       		.byte	0x66
 3878 021a 5C060000 		.4byte	0x65c
 3879 021e 10       		.byte	0x10
 3880 021f 0C       		.uleb128 0xc
 3881 0220 0E5A0000 		.4byte	.LASF45
 3882 0224 1A       		.byte	0x1a
 3883 0225 67       		.byte	0x67
 3884 0226 5C060000 		.4byte	0x65c
 3885 022a 14       		.byte	0x14
 3886 022b 0C       		.uleb128 0xc
ARM GAS  /tmp/ccB5ynkg.s 			page 71


 3887 022c 99520000 		.4byte	.LASF46
 3888 0230 1A       		.byte	0x1a
 3889 0231 6E       		.byte	0x6e
 3890 0232 CE000000 		.4byte	0xce
 3891 0236 18       		.byte	0x18
 3892 0237 0C       		.uleb128 0xc
 3893 0238 D8430000 		.4byte	.LASF47
 3894 023c 1A       		.byte	0x1a
 3895 023d 74       		.byte	0x74
 3896 023e 62060000 		.4byte	0x662
 3897 0242 1C       		.byte	0x1c
 3898 0243 0C       		.uleb128 0xc
 3899 0244 00600000 		.4byte	.LASF48
 3900 0248 1A       		.byte	0x1a
 3901 0249 79       		.byte	0x79
 3902 024a 3F010000 		.4byte	0x13f
 3903 024e 20       		.byte	0x20
 3904 024f 0C       		.uleb128 0xc
 3905 0250 72500000 		.4byte	.LASF49
 3906 0254 1A       		.byte	0x1a
 3907 0255 7D       		.byte	0x7d
 3908 0256 34010000 		.4byte	0x134
 3909 025a 21       		.byte	0x21
 3910 025b 0C       		.uleb128 0xc
 3911 025c 8B380000 		.4byte	.LASF50
 3912 0260 1A       		.byte	0x1a
 3913 0261 82       		.byte	0x82
 3914 0262 4A010000 		.4byte	0x14a
 3915 0266 22       		.byte	0x22
 3916 0267 0C       		.uleb128 0xc
 3917 0268 53310000 		.4byte	.LASF51
 3918 026c 1A       		.byte	0x1a
 3919 026d 88       		.byte	0x88
 3920 026e 55010000 		.4byte	0x155
 3921 0272 23       		.byte	0x23
 3922 0273 0C       		.uleb128 0xc
 3923 0274 5D310000 		.4byte	.LASF52
 3924 0278 1A       		.byte	0x1a
 3925 0279 8F       		.byte	0x8f
 3926 027a C2040000 		.4byte	0x4c2
 3927 027e 24       		.byte	0x24
 3928 027f 0D       		.uleb128 0xd
 3929 0280 705F7500 		.ascii	"p_u\000"
 3930 0284 1A       		.byte	0x1a
 3931 0285 B4       		.byte	0xb4
 3932 0286 AE010000 		.4byte	0x1ae
 3933 028a 28       		.byte	0x28
 3934 028b 0C       		.uleb128 0xc
 3935 028c 64100000 		.4byte	.LASF53
 3936 0290 1A       		.byte	0x1a
 3937 0291 B9       		.byte	0xb9
 3938 0292 2F030000 		.4byte	0x32f
 3939 0296 2C       		.byte	0x2c
 3940 0297 0C       		.uleb128 0xc
 3941 0298 591E0000 		.4byte	.LASF54
 3942 029c 1A       		.byte	0x1a
 3943 029d BF       		.byte	0xbf
ARM GAS  /tmp/ccB5ynkg.s 			page 72


 3944 029e 0B030000 		.4byte	0x30b
 3945 02a2 30       		.byte	0x30
 3946 02a3 0C       		.uleb128 0xc
 3947 02a4 07140000 		.4byte	.LASF55
 3948 02a8 1A       		.byte	0x1a
 3949 02a9 C3       		.byte	0xc3
 3950 02aa 6B010000 		.4byte	0x16b
 3951 02ae 38       		.byte	0x38
 3952 02af 0C       		.uleb128 0xc
 3953 02b0 644B0000 		.4byte	.LASF56
 3954 02b4 1A       		.byte	0x1a
 3955 02b5 C9       		.byte	0xc9
 3956 02b6 76010000 		.4byte	0x176
 3957 02ba 3C       		.byte	0x3c
 3958 02bb 0C       		.uleb128 0xc
 3959 02bc 86510000 		.4byte	.LASF57
 3960 02c0 1A       		.byte	0x1a
 3961 02c1 D0       		.byte	0xd0
 3962 02c2 68060000 		.4byte	0x668
 3963 02c6 40       		.byte	0x40
 3964 02c7 0C       		.uleb128 0xc
 3965 02c8 AF460000 		.4byte	.LASF58
 3966 02cc 1A       		.byte	0x1a
 3967 02cd D4       		.byte	0xd4
 3968 02ce 60010000 		.4byte	0x160
 3969 02d2 44       		.byte	0x44
 3970 02d3 0C       		.uleb128 0xc
 3971 02d4 EC2A0000 		.4byte	.LASF59
 3972 02d8 1A       		.byte	0x1a
 3973 02d9 DA       		.byte	0xda
 3974 02da BF000000 		.4byte	0xbf
 3975 02de 48       		.byte	0x48
 3976 02df 00       		.byte	0
 3977 02e0 0E       		.uleb128 0xe
 3978 02e1 08       		.byte	0x8
 3979 02e2 19       		.byte	0x19
 3980 02e3 61       		.byte	0x61
 3981 02e4 61410000 		.4byte	.LASF61
 3982 02e8 05030000 		.4byte	0x305
 3983 02ec 0C       		.uleb128 0xc
 3984 02ed F8270000 		.4byte	.LASF40
 3985 02f1 19       		.byte	0x19
 3986 02f2 62       		.byte	0x62
 3987 02f3 05030000 		.4byte	0x305
 3988 02f7 00       		.byte	0
 3989 02f8 0C       		.uleb128 0xc
 3990 02f9 20200000 		.4byte	.LASF41
 3991 02fd 19       		.byte	0x19
 3992 02fe 64       		.byte	0x64
 3993 02ff 05030000 		.4byte	0x305
 3994 0303 04       		.byte	0x4
 3995 0304 00       		.byte	0
 3996 0305 06       		.uleb128 0x6
 3997 0306 04       		.byte	0x4
 3998 0307 97010000 		.4byte	0x197
 3999 030b 02       		.uleb128 0x2
 4000 030c 03200000 		.4byte	.LASF60
ARM GAS  /tmp/ccB5ynkg.s 			page 73


 4001 0310 19       		.byte	0x19
 4002 0311 66       		.byte	0x66
 4003 0312 E0020000 		.4byte	0x2e0
 4004 0316 0E       		.uleb128 0xe
 4005 0317 04       		.byte	0x4
 4006 0318 19       		.byte	0x19
 4007 0319 6B       		.byte	0x6b
 4008 031a 2A110000 		.4byte	.LASF62
 4009 031e 2F030000 		.4byte	0x32f
 4010 0322 0C       		.uleb128 0xc
 4011 0323 F8270000 		.4byte	.LASF40
 4012 0327 19       		.byte	0x19
 4013 0328 6D       		.byte	0x6d
 4014 0329 05030000 		.4byte	0x305
 4015 032d 00       		.byte	0
 4016 032e 00       		.byte	0
 4017 032f 02       		.uleb128 0x2
 4018 0330 ED330000 		.4byte	.LASF63
 4019 0334 19       		.byte	0x19
 4020 0335 70       		.byte	0x70
 4021 0336 16030000 		.4byte	0x316
 4022 033a 02       		.uleb128 0x2
 4023 033b FE3B0000 		.4byte	.LASF64
 4024 033f 1B       		.byte	0x1b
 4025 0340 E5       		.byte	0xe5
 4026 0341 BF000000 		.4byte	0xbf
 4027 0345 02       		.uleb128 0x2
 4028 0346 AA150000 		.4byte	.LASF65
 4029 034a 1B       		.byte	0x1b
 4030 034b EB       		.byte	0xeb
 4031 034c 17010000 		.4byte	0x117
 4032 0350 0F       		.uleb128 0xf
 4033 0351 39000000 		.4byte	.LASF66
 4034 0355 64       		.byte	0x64
 4035 0356 1B       		.byte	0x1b
 4036 0357 0C01     		.2byte	0x10c
 4037 0359 9C040000 		.4byte	0x49c
 4038 035d 10       		.uleb128 0x10
 4039 035e 73313600 		.ascii	"s16\000"
 4040 0362 1B       		.byte	0x1b
 4041 0363 0E01     		.2byte	0x10e
 4042 0365 3A030000 		.4byte	0x33a
 4043 0369 00       		.byte	0
 4044 036a 10       		.uleb128 0x10
 4045 036b 73313700 		.ascii	"s17\000"
 4046 036f 1B       		.byte	0x1b
 4047 0370 0F01     		.2byte	0x10f
 4048 0372 3A030000 		.4byte	0x33a
 4049 0376 04       		.byte	0x4
 4050 0377 10       		.uleb128 0x10
 4051 0378 73313800 		.ascii	"s18\000"
 4052 037c 1B       		.byte	0x1b
 4053 037d 1001     		.2byte	0x110
 4054 037f 3A030000 		.4byte	0x33a
 4055 0383 08       		.byte	0x8
 4056 0384 10       		.uleb128 0x10
 4057 0385 73313900 		.ascii	"s19\000"
ARM GAS  /tmp/ccB5ynkg.s 			page 74


 4058 0389 1B       		.byte	0x1b
 4059 038a 1101     		.2byte	0x111
 4060 038c 3A030000 		.4byte	0x33a
 4061 0390 0C       		.byte	0xc
 4062 0391 10       		.uleb128 0x10
 4063 0392 73323000 		.ascii	"s20\000"
 4064 0396 1B       		.byte	0x1b
 4065 0397 1201     		.2byte	0x112
 4066 0399 3A030000 		.4byte	0x33a
 4067 039d 10       		.byte	0x10
 4068 039e 10       		.uleb128 0x10
 4069 039f 73323100 		.ascii	"s21\000"
 4070 03a3 1B       		.byte	0x1b
 4071 03a4 1301     		.2byte	0x113
 4072 03a6 3A030000 		.4byte	0x33a
 4073 03aa 14       		.byte	0x14
 4074 03ab 10       		.uleb128 0x10
 4075 03ac 73323200 		.ascii	"s22\000"
 4076 03b0 1B       		.byte	0x1b
 4077 03b1 1401     		.2byte	0x114
 4078 03b3 3A030000 		.4byte	0x33a
 4079 03b7 18       		.byte	0x18
 4080 03b8 10       		.uleb128 0x10
 4081 03b9 73323300 		.ascii	"s23\000"
 4082 03bd 1B       		.byte	0x1b
 4083 03be 1501     		.2byte	0x115
 4084 03c0 3A030000 		.4byte	0x33a
 4085 03c4 1C       		.byte	0x1c
 4086 03c5 10       		.uleb128 0x10
 4087 03c6 73323400 		.ascii	"s24\000"
 4088 03ca 1B       		.byte	0x1b
 4089 03cb 1601     		.2byte	0x116
 4090 03cd 3A030000 		.4byte	0x33a
 4091 03d1 20       		.byte	0x20
 4092 03d2 10       		.uleb128 0x10
 4093 03d3 73323500 		.ascii	"s25\000"
 4094 03d7 1B       		.byte	0x1b
 4095 03d8 1701     		.2byte	0x117
 4096 03da 3A030000 		.4byte	0x33a
 4097 03de 24       		.byte	0x24
 4098 03df 10       		.uleb128 0x10
 4099 03e0 73323600 		.ascii	"s26\000"
 4100 03e4 1B       		.byte	0x1b
 4101 03e5 1801     		.2byte	0x118
 4102 03e7 3A030000 		.4byte	0x33a
 4103 03eb 28       		.byte	0x28
 4104 03ec 10       		.uleb128 0x10
 4105 03ed 73323700 		.ascii	"s27\000"
 4106 03f1 1B       		.byte	0x1b
 4107 03f2 1901     		.2byte	0x119
 4108 03f4 3A030000 		.4byte	0x33a
 4109 03f8 2C       		.byte	0x2c
 4110 03f9 10       		.uleb128 0x10
 4111 03fa 73323800 		.ascii	"s28\000"
 4112 03fe 1B       		.byte	0x1b
 4113 03ff 1A01     		.2byte	0x11a
 4114 0401 3A030000 		.4byte	0x33a
ARM GAS  /tmp/ccB5ynkg.s 			page 75


 4115 0405 30       		.byte	0x30
 4116 0406 10       		.uleb128 0x10
 4117 0407 73323900 		.ascii	"s29\000"
 4118 040b 1B       		.byte	0x1b
 4119 040c 1B01     		.2byte	0x11b
 4120 040e 3A030000 		.4byte	0x33a
 4121 0412 34       		.byte	0x34
 4122 0413 10       		.uleb128 0x10
 4123 0414 73333000 		.ascii	"s30\000"
 4124 0418 1B       		.byte	0x1b
 4125 0419 1C01     		.2byte	0x11c
 4126 041b 3A030000 		.4byte	0x33a
 4127 041f 38       		.byte	0x38
 4128 0420 10       		.uleb128 0x10
 4129 0421 73333100 		.ascii	"s31\000"
 4130 0425 1B       		.byte	0x1b
 4131 0426 1D01     		.2byte	0x11d
 4132 0428 3A030000 		.4byte	0x33a
 4133 042c 3C       		.byte	0x3c
 4134 042d 10       		.uleb128 0x10
 4135 042e 723400   		.ascii	"r4\000"
 4136 0431 1B       		.byte	0x1b
 4137 0432 1F01     		.2byte	0x11f
 4138 0434 3A030000 		.4byte	0x33a
 4139 0438 40       		.byte	0x40
 4140 0439 10       		.uleb128 0x10
 4141 043a 723500   		.ascii	"r5\000"
 4142 043d 1B       		.byte	0x1b
 4143 043e 2001     		.2byte	0x120
 4144 0440 3A030000 		.4byte	0x33a
 4145 0444 44       		.byte	0x44
 4146 0445 10       		.uleb128 0x10
 4147 0446 723600   		.ascii	"r6\000"
 4148 0449 1B       		.byte	0x1b
 4149 044a 2101     		.2byte	0x121
 4150 044c 3A030000 		.4byte	0x33a
 4151 0450 48       		.byte	0x48
 4152 0451 10       		.uleb128 0x10
 4153 0452 723700   		.ascii	"r7\000"
 4154 0455 1B       		.byte	0x1b
 4155 0456 2201     		.2byte	0x122
 4156 0458 3A030000 		.4byte	0x33a
 4157 045c 4C       		.byte	0x4c
 4158 045d 10       		.uleb128 0x10
 4159 045e 723800   		.ascii	"r8\000"
 4160 0461 1B       		.byte	0x1b
 4161 0462 2301     		.2byte	0x123
 4162 0464 3A030000 		.4byte	0x33a
 4163 0468 50       		.byte	0x50
 4164 0469 10       		.uleb128 0x10
 4165 046a 723900   		.ascii	"r9\000"
 4166 046d 1B       		.byte	0x1b
 4167 046e 2401     		.2byte	0x124
 4168 0470 3A030000 		.4byte	0x33a
 4169 0474 54       		.byte	0x54
 4170 0475 10       		.uleb128 0x10
 4171 0476 72313000 		.ascii	"r10\000"
ARM GAS  /tmp/ccB5ynkg.s 			page 76


 4172 047a 1B       		.byte	0x1b
 4173 047b 2501     		.2byte	0x125
 4174 047d 3A030000 		.4byte	0x33a
 4175 0481 58       		.byte	0x58
 4176 0482 10       		.uleb128 0x10
 4177 0483 72313100 		.ascii	"r11\000"
 4178 0487 1B       		.byte	0x1b
 4179 0488 2601     		.2byte	0x126
 4180 048a 3A030000 		.4byte	0x33a
 4181 048e 5C       		.byte	0x5c
 4182 048f 10       		.uleb128 0x10
 4183 0490 6C7200   		.ascii	"lr\000"
 4184 0493 1B       		.byte	0x1b
 4185 0494 2701     		.2byte	0x127
 4186 0496 3A030000 		.4byte	0x33a
 4187 049a 60       		.byte	0x60
 4188 049b 00       		.byte	0
 4189 049c 0F       		.uleb128 0xf
 4190 049d 9E3A0000 		.4byte	.LASF67
 4191 04a1 04       		.byte	0x4
 4192 04a2 1B       		.byte	0x1b
 4193 04a3 3101     		.2byte	0x131
 4194 04a5 B7040000 		.4byte	0x4b7
 4195 04a9 10       		.uleb128 0x10
 4196 04aa 72313300 		.ascii	"r13\000"
 4197 04ae 1B       		.byte	0x1b
 4198 04af 3201     		.2byte	0x132
 4199 04b1 B7040000 		.4byte	0x4b7
 4200 04b5 00       		.byte	0
 4201 04b6 00       		.byte	0
 4202 04b7 06       		.uleb128 0x6
 4203 04b8 04       		.byte	0x4
 4204 04b9 50030000 		.4byte	0x350
 4205 04bd 11       		.uleb128 0x11
 4206 04be 0C010000 		.4byte	0x10c
 4207 04c2 11       		.uleb128 0x11
 4208 04c3 8C010000 		.4byte	0x18c
 4209 04c7 0E       		.uleb128 0xe
 4210 04c8 1C       		.byte	0x1c
 4211 04c9 1C       		.byte	0x1c
 4212 04ca 5E       		.byte	0x5e
 4213 04cb 8E230000 		.4byte	.LASF68
 4214 04cf 1C050000 		.4byte	0x51c
 4215 04d3 0C       		.uleb128 0xc
 4216 04d4 673F0000 		.4byte	.LASF69
 4217 04d8 1C       		.byte	0x1c
 4218 04d9 5F       		.byte	0x5f
 4219 04da 0B030000 		.4byte	0x30b
 4220 04de 00       		.byte	0
 4221 04df 0C       		.uleb128 0xc
 4222 04e0 EB4D0000 		.4byte	.LASF70
 4223 04e4 1C       		.byte	0x1c
 4224 04e5 60       		.byte	0x60
 4225 04e6 60010000 		.4byte	0x160
 4226 04ea 08       		.byte	0x8
 4227 04eb 0C       		.uleb128 0xc
 4228 04ec B31D0000 		.4byte	.LASF71
ARM GAS  /tmp/ccB5ynkg.s 			page 77


 4229 04f0 1C       		.byte	0x1c
 4230 04f1 62       		.byte	0x62
 4231 04f2 9C040000 		.4byte	0x49c
 4232 04f6 0C       		.byte	0xc
 4233 04f7 0C       		.uleb128 0xc
 4234 04f8 A82F0000 		.4byte	.LASF72
 4235 04fc 1C       		.byte	0x1c
 4236 04fd 65       		.byte	0x65
 4237 04fe 05030000 		.4byte	0x305
 4238 0502 10       		.byte	0x10
 4239 0503 0C       		.uleb128 0xc
 4240 0504 18200000 		.4byte	.LASF73
 4241 0508 1C       		.byte	0x1c
 4242 0509 66       		.byte	0x66
 4243 050a 05030000 		.4byte	0x305
 4244 050e 14       		.byte	0x14
 4245 050f 0C       		.uleb128 0xc
 4246 0510 3B180000 		.4byte	.LASF74
 4247 0514 1C       		.byte	0x1c
 4248 0515 69       		.byte	0x69
 4249 0516 05030000 		.4byte	0x305
 4250 051a 18       		.byte	0x18
 4251 051b 00       		.byte	0
 4252 051c 02       		.uleb128 0x2
 4253 051d AB190000 		.4byte	.LASF75
 4254 0521 1C       		.byte	0x1c
 4255 0522 6B       		.byte	0x6b
 4256 0523 C7040000 		.4byte	0x4c7
 4257 0527 09       		.uleb128 0x9
 4258 0528 4F1C0000 		.4byte	.LASF76
 4259 052c 10       		.byte	0x10
 4260 052d 1D       		.byte	0x1d
 4261 052e 2C       		.byte	0x2c
 4262 052f 58050000 		.4byte	0x558
 4263 0533 0C       		.uleb128 0xc
 4264 0534 F2380000 		.4byte	.LASF77
 4265 0538 1D       		.byte	0x1d
 4266 0539 2D       		.byte	0x2d
 4267 053a 0B030000 		.4byte	0x30b
 4268 053e 00       		.byte	0
 4269 053f 0C       		.uleb128 0xc
 4270 0540 E5330000 		.4byte	.LASF78
 4271 0544 1D       		.byte	0x1d
 4272 0545 2F       		.byte	0x2f
 4273 0546 05030000 		.4byte	0x305
 4274 054a 08       		.byte	0x8
 4275 054b 0C       		.uleb128 0xc
 4276 054c 88040000 		.4byte	.LASF79
 4277 0550 1D       		.byte	0x1d
 4278 0551 31       		.byte	0x31
 4279 0552 58050000 		.4byte	0x558
 4280 0556 0C       		.byte	0xc
 4281 0557 00       		.byte	0
 4282 0558 06       		.uleb128 0x6
 4283 0559 04       		.byte	0x4
 4284 055a 27050000 		.4byte	0x527
 4285 055e 02       		.uleb128 0x2
ARM GAS  /tmp/ccB5ynkg.s 			page 78


 4286 055f 4F1C0000 		.4byte	.LASF76
 4287 0563 1D       		.byte	0x1d
 4288 0564 33       		.byte	0x33
 4289 0565 27050000 		.4byte	0x527
 4290 0569 02       		.uleb128 0x2
 4291 056a FE300000 		.4byte	.LASF80
 4292 056e 1E       		.byte	0x1e
 4293 056f 2C       		.byte	0x2c
 4294 0570 74050000 		.4byte	0x574
 4295 0574 09       		.uleb128 0x9
 4296 0575 FE300000 		.4byte	.LASF80
 4297 0579 10       		.byte	0x10
 4298 057a 1E       		.byte	0x1e
 4299 057b 31       		.byte	0x31
 4300 057c B1050000 		.4byte	0x5b1
 4301 0580 0C       		.uleb128 0xc
 4302 0581 B3060000 		.4byte	.LASF81
 4303 0585 1E       		.byte	0x1e
 4304 0586 32       		.byte	0x32
 4305 0587 B1050000 		.4byte	0x5b1
 4306 058b 00       		.byte	0
 4307 058c 0C       		.uleb128 0xc
 4308 058d 934C0000 		.4byte	.LASF82
 4309 0591 1E       		.byte	0x1e
 4310 0592 35       		.byte	0x35
 4311 0593 05030000 		.4byte	0x305
 4312 0597 04       		.byte	0x4
 4313 0598 0C       		.uleb128 0xc
 4314 0599 8D0C0000 		.4byte	.LASF83
 4315 059d 1E       		.byte	0x1e
 4316 059e 37       		.byte	0x37
 4317 059f 76010000 		.4byte	0x176
 4318 05a3 08       		.byte	0x8
 4319 05a4 0C       		.uleb128 0xc
 4320 05a5 52510000 		.4byte	.LASF84
 4321 05a9 1E       		.byte	0x1e
 4322 05aa 3A       		.byte	0x3a
 4323 05ab 81010000 		.4byte	0x181
 4324 05af 0C       		.byte	0xc
 4325 05b0 00       		.byte	0
 4326 05b1 06       		.uleb128 0x6
 4327 05b2 04       		.byte	0x4
 4328 05b3 74050000 		.4byte	0x574
 4329 05b7 09       		.uleb128 0x9
 4330 05b8 D3220000 		.4byte	.LASF85
 4331 05bc 04       		.byte	0x4
 4332 05bd 1E       		.byte	0x1e
 4333 05be 41       		.byte	0x41
 4334 05bf D0050000 		.4byte	0x5d0
 4335 05c3 0C       		.uleb128 0xc
 4336 05c4 5D4F0000 		.4byte	.LASF86
 4337 05c8 1E       		.byte	0x1e
 4338 05c9 42       		.byte	0x42
 4339 05ca D0050000 		.4byte	0x5d0
 4340 05ce 00       		.byte	0
 4341 05cf 00       		.byte	0
 4342 05d0 06       		.uleb128 0x6
ARM GAS  /tmp/ccB5ynkg.s 			page 79


 4343 05d1 04       		.byte	0x4
 4344 05d2 69050000 		.4byte	0x569
 4345 05d6 02       		.uleb128 0x2
 4346 05d7 D3220000 		.4byte	.LASF85
 4347 05db 1E       		.byte	0x1e
 4348 05dc 45       		.byte	0x45
 4349 05dd B7050000 		.4byte	0x5b7
 4350 05e1 02       		.uleb128 0x2
 4351 05e2 77030000 		.4byte	.LASF87
 4352 05e6 1F       		.byte	0x1f
 4353 05e7 2C       		.byte	0x2c
 4354 05e8 EC050000 		.4byte	0x5ec
 4355 05ec 06       		.uleb128 0x6
 4356 05ed 04       		.byte	0x4
 4357 05ee F2050000 		.4byte	0x5f2
 4358 05f2 12       		.uleb128 0x12
 4359 05f3 BF000000 		.4byte	0xbf
 4360 05f7 01060000 		.4byte	0x601
 4361 05fb 13       		.uleb128 0x13
 4362 05fc 25000000 		.4byte	0x25
 4363 0600 00       		.byte	0
 4364 0601 09       		.uleb128 0x9
 4365 0602 E0170000 		.4byte	.LASF88
 4366 0606 04       		.byte	0x4
 4367 0607 20       		.byte	0x20
 4368 0608 2C       		.byte	0x2c
 4369 0609 1A060000 		.4byte	0x61a
 4370 060d 0C       		.uleb128 0xc
 4371 060e 182C0000 		.4byte	.LASF89
 4372 0612 20       		.byte	0x20
 4373 0613 2D       		.byte	0x2d
 4374 0614 1A060000 		.4byte	0x61a
 4375 0618 00       		.byte	0
 4376 0619 00       		.byte	0
 4377 061a 06       		.uleb128 0x6
 4378 061b 04       		.byte	0x4
 4379 061c 01060000 		.4byte	0x601
 4380 0620 0E       		.uleb128 0xe
 4381 0621 0C       		.byte	0xc
 4382 0622 20       		.byte	0x20
 4383 0623 34       		.byte	0x34
 4384 0624 504E0000 		.4byte	.LASF90
 4385 0628 51060000 		.4byte	0x651
 4386 062c 0C       		.uleb128 0xc
 4387 062d F1370000 		.4byte	.LASF91
 4388 0631 20       		.byte	0x20
 4389 0632 35       		.byte	0x35
 4390 0633 1A060000 		.4byte	0x61a
 4391 0637 00       		.byte	0
 4392 0638 0C       		.uleb128 0xc
 4393 0639 3E120000 		.4byte	.LASF92
 4394 063d 20       		.byte	0x20
 4395 063e 36       		.byte	0x36
 4396 063f 25000000 		.4byte	0x25
 4397 0643 04       		.byte	0x4
 4398 0644 0C       		.uleb128 0xc
 4399 0645 33380000 		.4byte	.LASF93
ARM GAS  /tmp/ccB5ynkg.s 			page 80


 4400 0649 20       		.byte	0x20
 4401 064a 38       		.byte	0x38
 4402 064b E1050000 		.4byte	0x5e1
 4403 064f 08       		.byte	0x8
 4404 0650 00       		.byte	0
 4405 0651 02       		.uleb128 0x2
 4406 0652 0E130000 		.4byte	.LASF94
 4407 0656 20       		.byte	0x20
 4408 0657 3A       		.byte	0x3a
 4409 0658 20060000 		.4byte	0x620
 4410 065c 06       		.uleb128 0x6
 4411 065d 04       		.byte	0x4
 4412 065e A2010000 		.4byte	0x1a2
 4413 0662 06       		.uleb128 0x6
 4414 0663 04       		.byte	0x4
 4415 0664 45030000 		.4byte	0x345
 4416 0668 06       		.uleb128 0x6
 4417 0669 04       		.byte	0x4
 4418 066a 5E050000 		.4byte	0x55e
 4419 066e 02       		.uleb128 0x2
 4420 066f C4130000 		.4byte	.LASF95
 4421 0673 1A       		.byte	0x1a
 4422 0674 E5       		.byte	0xe5
 4423 0675 79060000 		.4byte	0x679
 4424 0679 06       		.uleb128 0x6
 4425 067a 04       		.byte	0x4
 4426 067b 7F060000 		.4byte	0x67f
 4427 067f 12       		.uleb128 0x12
 4428 0680 6B010000 		.4byte	0x16b
 4429 0684 8E060000 		.4byte	0x68e
 4430 0688 13       		.uleb128 0x13
 4431 0689 BF000000 		.4byte	0xbf
 4432 068d 00       		.byte	0
 4433 068e 02       		.uleb128 0x2
 4434 068f B4570000 		.4byte	.LASF96
 4435 0693 21       		.byte	0x21
 4436 0694 37       		.byte	0x37
 4437 0695 99060000 		.4byte	0x699
 4438 0699 09       		.uleb128 0x9
 4439 069a B4570000 		.4byte	.LASF96
 4440 069e 24       		.byte	0x24
 4441 069f 21       		.byte	0x21
 4442 06a0 45       		.byte	0x45
 4443 06a1 06070000 		.4byte	0x706
 4444 06a5 0C       		.uleb128 0xc
 4445 06a6 D7100000 		.4byte	.LASF97
 4446 06aa 21       		.byte	0x21
 4447 06ab 46       		.byte	0x46
 4448 06ac 0B030000 		.4byte	0x30b
 4449 06b0 00       		.byte	0
 4450 06b1 0C       		.uleb128 0xc
 4451 06b2 844A0000 		.4byte	.LASF98
 4452 06b6 21       		.byte	0x21
 4453 06b7 47       		.byte	0x47
 4454 06b8 25000000 		.4byte	0x25
 4455 06bc 08       		.byte	0x8
 4456 06bd 0C       		.uleb128 0xc
ARM GAS  /tmp/ccB5ynkg.s 			page 81


 4457 06be EF270000 		.4byte	.LASF99
 4458 06c2 21       		.byte	0x21
 4459 06c3 48       		.byte	0x48
 4460 06c4 28070000 		.4byte	0x728
 4461 06c8 0C       		.byte	0xc
 4462 06c9 0C       		.uleb128 0xc
 4463 06ca A60E0000 		.4byte	.LASF100
 4464 06ce 21       		.byte	0x21
 4465 06cf 49       		.byte	0x49
 4466 06d0 28070000 		.4byte	0x728
 4467 06d4 10       		.byte	0x10
 4468 06d5 0C       		.uleb128 0xc
 4469 06d6 165C0000 		.4byte	.LASF101
 4470 06da 21       		.byte	0x21
 4471 06db 4B       		.byte	0x4b
 4472 06dc 28070000 		.4byte	0x728
 4473 06e0 14       		.byte	0x14
 4474 06e1 0C       		.uleb128 0xc
 4475 06e2 963A0000 		.4byte	.LASF102
 4476 06e6 21       		.byte	0x21
 4477 06e7 4C       		.byte	0x4c
 4478 06e8 28070000 		.4byte	0x728
 4479 06ec 18       		.byte	0x18
 4480 06ed 0C       		.uleb128 0xc
 4481 06ee 53470000 		.4byte	.LASF103
 4482 06f2 21       		.byte	0x21
 4483 06f3 4D       		.byte	0x4d
 4484 06f4 06070000 		.4byte	0x706
 4485 06f8 1C       		.byte	0x1c
 4486 06f9 0C       		.uleb128 0xc
 4487 06fa 2C400000 		.4byte	.LASF104
 4488 06fe 21       		.byte	0x21
 4489 06ff 4E       		.byte	0x4e
 4490 0700 BF000000 		.4byte	0xbf
 4491 0704 20       		.byte	0x20
 4492 0705 00       		.byte	0
 4493 0706 02       		.uleb128 0x2
 4494 0707 CC0D0000 		.4byte	.LASF105
 4495 070b 21       		.byte	0x21
 4496 070c 3A       		.byte	0x3a
 4497 070d 11070000 		.4byte	0x711
 4498 0711 06       		.uleb128 0x6
 4499 0712 04       		.byte	0x4
 4500 0713 17070000 		.4byte	0x717
 4501 0717 14       		.uleb128 0x14
 4502 0718 22070000 		.4byte	0x722
 4503 071c 13       		.uleb128 0x13
 4504 071d 22070000 		.4byte	0x722
 4505 0721 00       		.byte	0
 4506 0722 06       		.uleb128 0x6
 4507 0723 04       		.byte	0x4
 4508 0724 8E060000 		.4byte	0x68e
 4509 0728 06       		.uleb128 0x6
 4510 0729 04       		.byte	0x4
 4511 072a E0000000 		.4byte	0xe0
 4512 072e 02       		.uleb128 0x2
 4513 072f F8360000 		.4byte	.LASF106
ARM GAS  /tmp/ccB5ynkg.s 			page 82


 4514 0733 21       		.byte	0x21
 4515 0734 82       		.byte	0x82
 4516 0735 8E060000 		.4byte	0x68e
 4517 0739 02       		.uleb128 0x2
 4518 073a 165A0000 		.4byte	.LASF107
 4519 073e 21       		.byte	0x21
 4520 073f F5       		.byte	0xf5
 4521 0740 8E060000 		.4byte	0x68e
 4522 0744 09       		.uleb128 0x9
 4523 0745 FD5A0000 		.4byte	.LASF108
 4524 0749 10       		.byte	0x10
 4525 074a 22       		.byte	0x22
 4526 074b 48       		.byte	0x48
 4527 074c 81070000 		.4byte	0x781
 4528 0750 0C       		.uleb128 0xc
 4529 0751 A63A0000 		.4byte	.LASF109
 4530 0755 22       		.byte	0x22
 4531 0756 49       		.byte	0x49
 4532 0757 A5070000 		.4byte	0x7a5
 4533 075b 00       		.byte	0
 4534 075c 0C       		.uleb128 0xc
 4535 075d 1E050000 		.4byte	.LASF110
 4536 0761 22       		.byte	0x22
 4537 0762 49       		.byte	0x49
 4538 0763 C4070000 		.4byte	0x7c4
 4539 0767 04       		.byte	0x4
 4540 0768 0D       		.uleb128 0xd
 4541 0769 70757400 		.ascii	"put\000"
 4542 076d 22       		.byte	0x22
 4543 076e 49       		.byte	0x49
 4544 076f DE070000 		.4byte	0x7de
 4545 0773 08       		.byte	0x8
 4546 0774 0D       		.uleb128 0xd
 4547 0775 67657400 		.ascii	"get\000"
 4548 0779 22       		.byte	0x22
 4549 077a 49       		.byte	0x49
 4550 077b 79060000 		.4byte	0x679
 4551 077f 0C       		.byte	0xc
 4552 0780 00       		.byte	0
 4553 0781 12       		.uleb128 0x12
 4554 0782 25000000 		.4byte	0x25
 4555 0786 9A070000 		.4byte	0x79a
 4556 078a 13       		.uleb128 0x13
 4557 078b BF000000 		.4byte	0xbf
 4558 078f 13       		.uleb128 0x13
 4559 0790 9A070000 		.4byte	0x79a
 4560 0794 13       		.uleb128 0x13
 4561 0795 25000000 		.4byte	0x25
 4562 0799 00       		.byte	0
 4563 079a 06       		.uleb128 0x6
 4564 079b 04       		.byte	0x4
 4565 079c A0070000 		.4byte	0x7a0
 4566 07a0 07       		.uleb128 0x7
 4567 07a1 E0000000 		.4byte	0xe0
 4568 07a5 06       		.uleb128 0x6
 4569 07a6 04       		.byte	0x4
 4570 07a7 81070000 		.4byte	0x781
ARM GAS  /tmp/ccB5ynkg.s 			page 83


 4571 07ab 12       		.uleb128 0x12
 4572 07ac 25000000 		.4byte	0x25
 4573 07b0 C4070000 		.4byte	0x7c4
 4574 07b4 13       		.uleb128 0x13
 4575 07b5 BF000000 		.4byte	0xbf
 4576 07b9 13       		.uleb128 0x13
 4577 07ba 28070000 		.4byte	0x728
 4578 07be 13       		.uleb128 0x13
 4579 07bf 25000000 		.4byte	0x25
 4580 07c3 00       		.byte	0
 4581 07c4 06       		.uleb128 0x6
 4582 07c5 04       		.byte	0x4
 4583 07c6 AB070000 		.4byte	0x7ab
 4584 07ca 12       		.uleb128 0x12
 4585 07cb 6B010000 		.4byte	0x16b
 4586 07cf DE070000 		.4byte	0x7de
 4587 07d3 13       		.uleb128 0x13
 4588 07d4 BF000000 		.4byte	0xbf
 4589 07d8 13       		.uleb128 0x13
 4590 07d9 E0000000 		.4byte	0xe0
 4591 07dd 00       		.byte	0
 4592 07de 06       		.uleb128 0x6
 4593 07df 04       		.byte	0x4
 4594 07e0 CA070000 		.4byte	0x7ca
 4595 07e4 0E       		.uleb128 0xe
 4596 07e5 04       		.byte	0x4
 4597 07e6 22       		.byte	0x22
 4598 07e7 51       		.byte	0x51
 4599 07e8 D52A0000 		.4byte	.LASF111
 4600 07ec FD070000 		.4byte	0x7fd
 4601 07f0 0D       		.uleb128 0xd
 4602 07f1 766D7400 		.ascii	"vmt\000"
 4603 07f5 22       		.byte	0x22
 4604 07f6 53       		.byte	0x53
 4605 07f7 FD070000 		.4byte	0x7fd
 4606 07fb 00       		.byte	0
 4607 07fc 00       		.byte	0
 4608 07fd 06       		.uleb128 0x6
 4609 07fe 04       		.byte	0x4
 4610 07ff 03080000 		.4byte	0x803
 4611 0803 07       		.uleb128 0x7
 4612 0804 44070000 		.4byte	0x744
 4613 0808 02       		.uleb128 0x2
 4614 0809 46080000 		.4byte	.LASF112
 4615 080d 22       		.byte	0x22
 4616 080e 55       		.byte	0x55
 4617 080f E4070000 		.4byte	0x7e4
 4618 0813 11       		.uleb128 0x11
 4619 0814 01010000 		.4byte	0x101
 4620 0818 12       		.uleb128 0x12
 4621 0819 6B010000 		.4byte	0x16b
 4622 081d 31080000 		.4byte	0x831
 4623 0821 13       		.uleb128 0x13
 4624 0822 BF000000 		.4byte	0xbf
 4625 0826 13       		.uleb128 0x13
 4626 0827 E0000000 		.4byte	0xe0
 4627 082b 13       		.uleb128 0x13
ARM GAS  /tmp/ccB5ynkg.s 			page 84


 4628 082c 8C010000 		.4byte	0x18c
 4629 0830 00       		.byte	0
 4630 0831 06       		.uleb128 0x6
 4631 0832 04       		.byte	0x4
 4632 0833 18080000 		.4byte	0x818
 4633 0837 12       		.uleb128 0x12
 4634 0838 6B010000 		.4byte	0x16b
 4635 083c 4B080000 		.4byte	0x84b
 4636 0840 13       		.uleb128 0x13
 4637 0841 BF000000 		.4byte	0xbf
 4638 0845 13       		.uleb128 0x13
 4639 0846 8C010000 		.4byte	0x18c
 4640 084a 00       		.byte	0
 4641 084b 06       		.uleb128 0x6
 4642 084c 04       		.byte	0x4
 4643 084d 37080000 		.4byte	0x837
 4644 0851 12       		.uleb128 0x12
 4645 0852 25000000 		.4byte	0x25
 4646 0856 6F080000 		.4byte	0x86f
 4647 085a 13       		.uleb128 0x13
 4648 085b BF000000 		.4byte	0xbf
 4649 085f 13       		.uleb128 0x13
 4650 0860 9A070000 		.4byte	0x79a
 4651 0864 13       		.uleb128 0x13
 4652 0865 25000000 		.4byte	0x25
 4653 0869 13       		.uleb128 0x13
 4654 086a 8C010000 		.4byte	0x18c
 4655 086e 00       		.byte	0
 4656 086f 06       		.uleb128 0x6
 4657 0870 04       		.byte	0x4
 4658 0871 51080000 		.4byte	0x851
 4659 0875 12       		.uleb128 0x12
 4660 0876 25000000 		.4byte	0x25
 4661 087a 93080000 		.4byte	0x893
 4662 087e 13       		.uleb128 0x13
 4663 087f BF000000 		.4byte	0xbf
 4664 0883 13       		.uleb128 0x13
 4665 0884 28070000 		.4byte	0x728
 4666 0888 13       		.uleb128 0x13
 4667 0889 25000000 		.4byte	0x25
 4668 088d 13       		.uleb128 0x13
 4669 088e 8C010000 		.4byte	0x18c
 4670 0892 00       		.byte	0
 4671 0893 06       		.uleb128 0x6
 4672 0894 04       		.byte	0x4
 4673 0895 75080000 		.4byte	0x875
 4674 0899 0E       		.uleb128 0xe
 4675 089a 28       		.byte	0x28
 4676 089b 23       		.byte	0x23
 4677 089c 8C       		.byte	0x8c
 4678 089d C30F0000 		.4byte	.LASF113
 4679 08a1 5F090000 		.4byte	0x95f
 4680 08a5 0A       		.uleb128 0xa
 4681 08a6 04       		.byte	0x4
 4682 08a7 23       		.byte	0x23
 4683 08a8 94       		.byte	0x94
 4684 08a9 E1080000 		.4byte	0x8e1
ARM GAS  /tmp/ccB5ynkg.s 			page 85


 4685 08ad 15       		.uleb128 0x15
 4686 08ae 04       		.byte	0x4
 4687 08af 23       		.byte	0x23
 4688 08b0 96       		.byte	0x96
 4689 08b1 CE080000 		.4byte	0x8ce
 4690 08b5 0D       		.uleb128 0xd
 4691 08b6 73657400 		.ascii	"set\000"
 4692 08ba 23       		.byte	0x23
 4693 08bb 97       		.byte	0x97
 4694 08bc F6000000 		.4byte	0xf6
 4695 08c0 00       		.byte	0
 4696 08c1 0C       		.uleb128 0xc
 4697 08c2 5E1F0000 		.4byte	.LASF114
 4698 08c6 23       		.byte	0x23
 4699 08c7 98       		.byte	0x98
 4700 08c8 F6000000 		.4byte	0xf6
 4701 08cc 02       		.byte	0x2
 4702 08cd 00       		.byte	0
 4703 08ce 16       		.uleb128 0x16
 4704 08cf 5700     		.ascii	"W\000"
 4705 08d1 23       		.byte	0x23
 4706 08d2 95       		.byte	0x95
 4707 08d3 0C010000 		.4byte	0x10c
 4708 08d7 16       		.uleb128 0x16
 4709 08d8 4800     		.ascii	"H\000"
 4710 08da 23       		.byte	0x23
 4711 08db 99       		.byte	0x99
 4712 08dc AD080000 		.4byte	0x8ad
 4713 08e0 00       		.byte	0
 4714 08e1 0C       		.uleb128 0xc
 4715 08e2 9E4B0000 		.4byte	.LASF115
 4716 08e6 23       		.byte	0x23
 4717 08e7 8E       		.byte	0x8e
 4718 08e8 BD040000 		.4byte	0x4bd
 4719 08ec 00       		.byte	0
 4720 08ed 0C       		.uleb128 0xc
 4721 08ee D20A0000 		.4byte	.LASF116
 4722 08f2 23       		.byte	0x23
 4723 08f3 8F       		.byte	0x8f
 4724 08f4 BD040000 		.4byte	0x4bd
 4725 08f8 04       		.byte	0x4
 4726 08f9 0C       		.uleb128 0xc
 4727 08fa 4C230000 		.4byte	.LASF117
 4728 08fe 23       		.byte	0x23
 4729 08ff 90       		.byte	0x90
 4730 0900 BD040000 		.4byte	0x4bd
 4731 0904 08       		.byte	0x8
 4732 0905 0C       		.uleb128 0xc
 4733 0906 7B490000 		.4byte	.LASF118
 4734 090a 23       		.byte	0x23
 4735 090b 91       		.byte	0x91
 4736 090c BD040000 		.4byte	0x4bd
 4737 0910 0C       		.byte	0xc
 4738 0911 0D       		.uleb128 0xd
 4739 0912 49445200 		.ascii	"IDR\000"
 4740 0916 23       		.byte	0x23
 4741 0917 92       		.byte	0x92
ARM GAS  /tmp/ccB5ynkg.s 			page 86


 4742 0918 BD040000 		.4byte	0x4bd
 4743 091c 10       		.byte	0x10
 4744 091d 0D       		.uleb128 0xd
 4745 091e 4F445200 		.ascii	"ODR\000"
 4746 0922 23       		.byte	0x23
 4747 0923 93       		.byte	0x93
 4748 0924 BD040000 		.4byte	0x4bd
 4749 0928 14       		.byte	0x14
 4750 0929 0C       		.uleb128 0xc
 4751 092a 582C0000 		.4byte	.LASF119
 4752 092e 23       		.byte	0x23
 4753 092f 9A       		.byte	0x9a
 4754 0930 35090000 		.4byte	0x935
 4755 0934 18       		.byte	0x18
 4756 0935 11       		.uleb128 0x11
 4757 0936 A5080000 		.4byte	0x8a5
 4758 093a 0C       		.uleb128 0xc
 4759 093b F43A0000 		.4byte	.LASF120
 4760 093f 23       		.byte	0x23
 4761 0940 9B       		.byte	0x9b
 4762 0941 BD040000 		.4byte	0x4bd
 4763 0945 1C       		.byte	0x1c
 4764 0946 0C       		.uleb128 0xc
 4765 0947 F3440000 		.4byte	.LASF121
 4766 094b 23       		.byte	0x23
 4767 094c 9C       		.byte	0x9c
 4768 094d BD040000 		.4byte	0x4bd
 4769 0951 20       		.byte	0x20
 4770 0952 0C       		.uleb128 0xc
 4771 0953 E9440000 		.4byte	.LASF122
 4772 0957 23       		.byte	0x23
 4773 0958 9D       		.byte	0x9d
 4774 0959 BD040000 		.4byte	0x4bd
 4775 095d 24       		.byte	0x24
 4776 095e 00       		.byte	0
 4777 095f 02       		.uleb128 0x2
 4778 0960 B5150000 		.4byte	.LASF123
 4779 0964 23       		.byte	0x23
 4780 0965 9E       		.byte	0x9e
 4781 0966 99080000 		.4byte	0x899
 4782 096a 02       		.uleb128 0x2
 4783 096b CF300000 		.4byte	.LASF124
 4784 096f 23       		.byte	0x23
 4785 0970 F0       		.byte	0xf0
 4786 0971 0C010000 		.4byte	0x10c
 4787 0975 17       		.uleb128 0x17
 4788 0976 50000000 		.4byte	0x50
 4789 097a 85090000 		.4byte	0x985
 4790 097e 18       		.uleb128 0x18
 4791 097f B8000000 		.4byte	0xb8
 4792 0983 FF       		.byte	0xff
 4793 0984 00       		.byte	0
 4794 0985 02       		.uleb128 0x2
 4795 0986 BE280000 		.4byte	.LASF125
 4796 098a 24       		.byte	0x24
 4797 098b E9       		.byte	0xe9
 4798 098c 90090000 		.4byte	0x990
ARM GAS  /tmp/ccB5ynkg.s 			page 87


 4799 0990 0F       		.uleb128 0xf
 4800 0991 BE280000 		.4byte	.LASF125
 4801 0995 84       		.byte	0x84
 4802 0996 25       		.byte	0x25
 4803 0997 1B01     		.2byte	0x11b
 4804 0999 6E0A0000 		.4byte	0xa6e
 4805 099d 19       		.uleb128 0x19
 4806 099e CA340000 		.4byte	.LASF126
 4807 09a2 25       		.byte	0x25
 4808 09a3 1F01     		.2byte	0x11f
 4809 09a5 A40A0000 		.4byte	0xaa4
 4810 09a9 00       		.byte	0
 4811 09aa 19       		.uleb128 0x19
 4812 09ab C4450000 		.4byte	.LASF127
 4813 09af 25       		.byte	0x25
 4814 09b0 2301     		.2byte	0x123
 4815 09b2 4C0E0000 		.4byte	0xe4c
 4816 09b6 04       		.byte	0x4
 4817 09b7 19       		.uleb128 0x19
 4818 09b8 5A520000 		.4byte	.LASF128
 4819 09bc 25       		.byte	0x25
 4820 09bd 2701     		.2byte	0x127
 4821 09bf F6000000 		.4byte	0xf6
 4822 09c3 08       		.byte	0x8
 4823 09c4 19       		.uleb128 0x19
 4824 09c5 725B0000 		.4byte	.LASF129
 4825 09c9 25       		.byte	0x25
 4826 09ca 2B01     		.2byte	0x12b
 4827 09cc F6000000 		.4byte	0xf6
 4828 09d0 0A       		.byte	0xa
 4829 09d1 10       		.uleb128 0x10
 4830 09d2 65706300 		.ascii	"epc\000"
 4831 09d6 25       		.byte	0x25
 4832 09d7 2F01     		.2byte	0x12f
 4833 09d9 570E0000 		.4byte	0xe57
 4834 09dd 0C       		.byte	0xc
 4835 09de 19       		.uleb128 0x19
 4836 09df BB060000 		.4byte	.LASF130
 4837 09e3 25       		.byte	0x25
 4838 09e4 3601     		.2byte	0x136
 4839 09e6 720E0000 		.4byte	0xe72
 4840 09ea 2C       		.byte	0x2c
 4841 09eb 19       		.uleb128 0x19
 4842 09ec 261D0000 		.4byte	.LASF131
 4843 09f0 25       		.byte	0x25
 4844 09f1 3D01     		.2byte	0x13d
 4845 09f3 720E0000 		.4byte	0xe72
 4846 09f7 48       		.byte	0x48
 4847 09f8 19       		.uleb128 0x19
 4848 09f9 EF240000 		.4byte	.LASF132
 4849 09fd 25       		.byte	0x25
 4850 09fe 4101     		.2byte	0x141
 4851 0a00 E70A0000 		.4byte	0xae7
 4852 0a04 64       		.byte	0x64
 4853 0a05 19       		.uleb128 0x19
 4854 0a06 19440000 		.4byte	.LASF133
 4855 0a0a 25       		.byte	0x25
ARM GAS  /tmp/ccB5ynkg.s 			page 88


 4856 0a0b 4501     		.2byte	0x145
 4857 0a0d 28070000 		.4byte	0x728
 4858 0a11 68       		.byte	0x68
 4859 0a12 19       		.uleb128 0x19
 4860 0a13 ED380000 		.4byte	.LASF134
 4861 0a17 25       		.byte	0x25
 4862 0a18 4901     		.2byte	0x149
 4863 0a1a 25000000 		.4byte	0x25
 4864 0a1e 6C       		.byte	0x6c
 4865 0a1f 19       		.uleb128 0x19
 4866 0a20 D70E0000 		.4byte	.LASF135
 4867 0a24 25       		.byte	0x25
 4868 0a25 4D01     		.2byte	0x14d
 4869 0a27 650B0000 		.4byte	0xb65
 4870 0a2b 70       		.byte	0x70
 4871 0a2c 19       		.uleb128 0x19
 4872 0a2d 19130000 		.4byte	.LASF136
 4873 0a31 25       		.byte	0x25
 4874 0a32 5101     		.2byte	0x151
 4875 0a34 820E0000 		.4byte	0xe82
 4876 0a38 74       		.byte	0x74
 4877 0a39 19       		.uleb128 0x19
 4878 0a3a FA310000 		.4byte	.LASF137
 4879 0a3e 25       		.byte	0x25
 4880 0a3f 5501     		.2byte	0x155
 4881 0a41 F6000000 		.4byte	0xf6
 4882 0a45 7C       		.byte	0x7c
 4883 0a46 19       		.uleb128 0x19
 4884 0a47 92270000 		.4byte	.LASF138
 4885 0a4b 25       		.byte	0x25
 4886 0a4c 5901     		.2byte	0x159
 4887 0a4e E0000000 		.4byte	0xe0
 4888 0a52 7E       		.byte	0x7e
 4889 0a53 19       		.uleb128 0x19
 4890 0a54 A5410000 		.4byte	.LASF139
 4891 0a58 25       		.byte	0x25
 4892 0a59 5D01     		.2byte	0x15d
 4893 0a5b E0000000 		.4byte	0xe0
 4894 0a5f 7F       		.byte	0x7f
 4895 0a60 19       		.uleb128 0x19
 4896 0a61 F24D0000 		.4byte	.LASF140
 4897 0a65 25       		.byte	0x25
 4898 0a66 6501     		.2byte	0x165
 4899 0a68 0C010000 		.4byte	0x10c
 4900 0a6c 80       		.byte	0x80
 4901 0a6d 00       		.byte	0
 4902 0a6e 02       		.uleb128 0x2
 4903 0a6f A05B0000 		.4byte	.LASF141
 4904 0a73 24       		.byte	0x24
 4905 0a74 EE       		.byte	0xee
 4906 0a75 E0000000 		.4byte	0xe0
 4907 0a79 1A       		.uleb128 0x1a
 4908 0a7a 01       		.byte	0x1
 4909 0a7b 24       		.byte	0x24
 4910 0a7c F3       		.byte	0xf3
 4911 0a7d 3E300000 		.4byte	.LASF210
 4912 0a81 A40A0000 		.4byte	0xaa4
ARM GAS  /tmp/ccB5ynkg.s 			page 89


 4913 0a85 1B       		.uleb128 0x1b
 4914 0a86 7F5E0000 		.4byte	.LASF142
 4915 0a8a 00       		.sleb128 0
 4916 0a8b 1B       		.uleb128 0x1b
 4917 0a8c 00000000 		.4byte	.LASF143
 4918 0a90 01       		.sleb128 1
 4919 0a91 1B       		.uleb128 0x1b
 4920 0a92 BC2E0000 		.4byte	.LASF144
 4921 0a96 02       		.sleb128 2
 4922 0a97 1B       		.uleb128 0x1b
 4923 0a98 823C0000 		.4byte	.LASF145
 4924 0a9c 03       		.sleb128 3
 4925 0a9d 1B       		.uleb128 0x1b
 4926 0a9e 14150000 		.4byte	.LASF146
 4927 0aa2 04       		.sleb128 4
 4928 0aa3 00       		.byte	0
 4929 0aa4 02       		.uleb128 0x2
 4930 0aa5 A5520000 		.4byte	.LASF147
 4931 0aa9 24       		.byte	0x24
 4932 0aaa F9       		.byte	0xf9
 4933 0aab 790A0000 		.4byte	0xa79
 4934 0aaf 1C       		.uleb128 0x1c
 4935 0ab0 01       		.byte	0x1
 4936 0ab1 24       		.byte	0x24
 4937 0ab2 0701     		.2byte	0x107
 4938 0ab4 30250000 		.4byte	.LASF156
 4939 0ab8 E70A0000 		.4byte	0xae7
 4940 0abc 1B       		.uleb128 0x1b
 4941 0abd 8E4A0000 		.4byte	.LASF148
 4942 0ac1 00       		.sleb128 0
 4943 0ac2 1B       		.uleb128 0x1b
 4944 0ac3 E4240000 		.4byte	.LASF149
 4945 0ac7 01       		.sleb128 1
 4946 0ac8 1B       		.uleb128 0x1b
 4947 0ac9 E3430000 		.4byte	.LASF150
 4948 0acd 02       		.sleb128 2
 4949 0ace 1B       		.uleb128 0x1b
 4950 0acf 32350000 		.4byte	.LASF151
 4951 0ad3 03       		.sleb128 3
 4952 0ad4 1B       		.uleb128 0x1b
 4953 0ad5 F6210000 		.4byte	.LASF152
 4954 0ad9 04       		.sleb128 4
 4955 0ada 1B       		.uleb128 0x1b
 4956 0adb 2A270000 		.4byte	.LASF153
 4957 0adf 05       		.sleb128 5
 4958 0ae0 1B       		.uleb128 0x1b
 4959 0ae1 C6230000 		.4byte	.LASF154
 4960 0ae5 06       		.sleb128 6
 4961 0ae6 00       		.byte	0
 4962 0ae7 1D       		.uleb128 0x1d
 4963 0ae8 DC270000 		.4byte	.LASF155
 4964 0aec 24       		.byte	0x24
 4965 0aed 0F01     		.2byte	0x10f
 4966 0aef AF0A0000 		.4byte	0xaaf
 4967 0af3 1C       		.uleb128 0x1c
 4968 0af4 01       		.byte	0x1
 4969 0af5 24       		.byte	0x24
ARM GAS  /tmp/ccB5ynkg.s 			page 90


 4970 0af6 1401     		.2byte	0x114
 4971 0af8 531D0000 		.4byte	.LASF157
 4972 0afc 250B0000 		.4byte	0xb25
 4973 0b00 1B       		.uleb128 0x1b
 4974 0b01 133C0000 		.4byte	.LASF158
 4975 0b05 00       		.sleb128 0
 4976 0b06 1B       		.uleb128 0x1b
 4977 0b07 EE3D0000 		.4byte	.LASF159
 4978 0b0b 01       		.sleb128 1
 4979 0b0c 1B       		.uleb128 0x1b
 4980 0b0d C92F0000 		.4byte	.LASF160
 4981 0b11 02       		.sleb128 2
 4982 0b12 1B       		.uleb128 0x1b
 4983 0b13 DC300000 		.4byte	.LASF161
 4984 0b17 03       		.sleb128 3
 4985 0b18 1B       		.uleb128 0x1b
 4986 0b19 67590000 		.4byte	.LASF162
 4987 0b1d 04       		.sleb128 4
 4988 0b1e 1B       		.uleb128 0x1b
 4989 0b1f B02F0000 		.4byte	.LASF163
 4990 0b23 05       		.sleb128 5
 4991 0b24 00       		.byte	0
 4992 0b25 1D       		.uleb128 0x1d
 4993 0b26 453F0000 		.4byte	.LASF164
 4994 0b2a 24       		.byte	0x24
 4995 0b2b 1B01     		.2byte	0x11b
 4996 0b2d F30A0000 		.4byte	0xaf3
 4997 0b31 1E       		.uleb128 0x1e
 4998 0b32 08       		.byte	0x8
 4999 0b33 24       		.byte	0x24
 5000 0b34 2001     		.2byte	0x120
 5001 0b36 A4300000 		.4byte	.LASF203
 5002 0b3a 590B0000 		.4byte	0xb59
 5003 0b3e 19       		.uleb128 0x19
 5004 0b3f 8A5F0000 		.4byte	.LASF165
 5005 0b43 24       		.byte	0x24
 5006 0b44 2401     		.2byte	0x124
 5007 0b46 25000000 		.4byte	0x25
 5008 0b4a 00       		.byte	0
 5009 0b4b 19       		.uleb128 0x19
 5010 0b4c AC0E0000 		.4byte	.LASF166
 5011 0b50 24       		.byte	0x24
 5012 0b51 2801     		.2byte	0x128
 5013 0b53 9A070000 		.4byte	0x79a
 5014 0b57 04       		.byte	0x4
 5015 0b58 00       		.byte	0
 5016 0b59 1D       		.uleb128 0x1d
 5017 0b5a 5F320000 		.4byte	.LASF167
 5018 0b5e 24       		.byte	0x24
 5019 0b5f 2901     		.2byte	0x129
 5020 0b61 310B0000 		.4byte	0xb31
 5021 0b65 1D       		.uleb128 0x1d
 5022 0b66 005F0000 		.4byte	.LASF168
 5023 0b6a 24       		.byte	0x24
 5024 0b6b 3101     		.2byte	0x131
 5025 0b6d 710B0000 		.4byte	0xb71
 5026 0b71 06       		.uleb128 0x6
ARM GAS  /tmp/ccB5ynkg.s 			page 91


 5027 0b72 04       		.byte	0x4
 5028 0b73 770B0000 		.4byte	0xb77
 5029 0b77 14       		.uleb128 0x14
 5030 0b78 820B0000 		.4byte	0xb82
 5031 0b7c 13       		.uleb128 0x13
 5032 0b7d 820B0000 		.4byte	0xb82
 5033 0b81 00       		.byte	0
 5034 0b82 06       		.uleb128 0x6
 5035 0b83 04       		.byte	0x4
 5036 0b84 85090000 		.4byte	0x985
 5037 0b88 1D       		.uleb128 0x1d
 5038 0b89 D20F0000 		.4byte	.LASF169
 5039 0b8d 24       		.byte	0x24
 5040 0b8e 3A01     		.2byte	0x13a
 5041 0b90 940B0000 		.4byte	0xb94
 5042 0b94 06       		.uleb128 0x6
 5043 0b95 04       		.byte	0x4
 5044 0b96 9A0B0000 		.4byte	0xb9a
 5045 0b9a 14       		.uleb128 0x14
 5046 0b9b AA0B0000 		.4byte	0xbaa
 5047 0b9f 13       		.uleb128 0x13
 5048 0ba0 820B0000 		.4byte	0xb82
 5049 0ba4 13       		.uleb128 0x13
 5050 0ba5 6E0A0000 		.4byte	0xa6e
 5051 0ba9 00       		.byte	0
 5052 0baa 1D       		.uleb128 0x1d
 5053 0bab DF190000 		.4byte	.LASF170
 5054 0baf 24       		.byte	0x24
 5055 0bb0 4301     		.2byte	0x143
 5056 0bb2 B60B0000 		.4byte	0xbb6
 5057 0bb6 06       		.uleb128 0x6
 5058 0bb7 04       		.byte	0x4
 5059 0bb8 BC0B0000 		.4byte	0xbbc
 5060 0bbc 14       		.uleb128 0x14
 5061 0bbd CC0B0000 		.4byte	0xbcc
 5062 0bc1 13       		.uleb128 0x13
 5063 0bc2 820B0000 		.4byte	0xb82
 5064 0bc6 13       		.uleb128 0x13
 5065 0bc7 250B0000 		.4byte	0xb25
 5066 0bcb 00       		.byte	0
 5067 0bcc 1D       		.uleb128 0x1d
 5068 0bcd 1C3B0000 		.4byte	.LASF171
 5069 0bd1 24       		.byte	0x24
 5070 0bd2 4F01     		.2byte	0x14f
 5071 0bd4 D80B0000 		.4byte	0xbd8
 5072 0bd8 06       		.uleb128 0x6
 5073 0bd9 04       		.byte	0x4
 5074 0bda DE0B0000 		.4byte	0xbde
 5075 0bde 12       		.uleb128 0x12
 5076 0bdf 22010000 		.4byte	0x122
 5077 0be3 ED0B0000 		.4byte	0xbed
 5078 0be7 13       		.uleb128 0x13
 5079 0be8 820B0000 		.4byte	0xb82
 5080 0bec 00       		.byte	0
 5081 0bed 1D       		.uleb128 0x1d
 5082 0bee 8B140000 		.4byte	.LASF172
 5083 0bf2 24       		.byte	0x24
ARM GAS  /tmp/ccB5ynkg.s 			page 92


 5084 0bf3 5401     		.2byte	0x154
 5085 0bf5 F90B0000 		.4byte	0xbf9
 5086 0bf9 06       		.uleb128 0x6
 5087 0bfa 04       		.byte	0x4
 5088 0bfb FF0B0000 		.4byte	0xbff
 5089 0bff 12       		.uleb128 0x12
 5090 0c00 1D0C0000 		.4byte	0xc1d
 5091 0c04 1D0C0000 		.4byte	0xc1d
 5092 0c08 13       		.uleb128 0x13
 5093 0c09 820B0000 		.4byte	0xb82
 5094 0c0d 13       		.uleb128 0x13
 5095 0c0e E0000000 		.4byte	0xe0
 5096 0c12 13       		.uleb128 0x13
 5097 0c13 E0000000 		.4byte	0xe0
 5098 0c17 13       		.uleb128 0x13
 5099 0c18 F6000000 		.4byte	0xf6
 5100 0c1c 00       		.byte	0
 5101 0c1d 06       		.uleb128 0x6
 5102 0c1e 04       		.byte	0x4
 5103 0c1f 230C0000 		.4byte	0xc23
 5104 0c23 07       		.uleb128 0x7
 5105 0c24 590B0000 		.4byte	0xb59
 5106 0c28 0E       		.uleb128 0xe
 5107 0c29 10       		.byte	0x10
 5108 0c2a 25       		.byte	0x25
 5109 0c2b 76       		.byte	0x76
 5110 0c2c 0D540000 		.4byte	.LASF173
 5111 0c30 AE0C0000 		.4byte	0xcae
 5112 0c34 0A       		.uleb128 0xa
 5113 0c35 04       		.byte	0x4
 5114 0c36 25       		.byte	0x25
 5115 0c37 83       		.byte	0x83
 5116 0c38 7D0C0000 		.4byte	0xc7d
 5117 0c3c 15       		.uleb128 0x15
 5118 0c3d 04       		.byte	0x4
 5119 0c3e 25       		.byte	0x25
 5120 0c3f 84       		.byte	0x84
 5121 0c40 510C0000 		.4byte	0xc51
 5122 0c44 0C       		.uleb128 0xc
 5123 0c45 24590000 		.4byte	.LASF174
 5124 0c49 25       		.byte	0x25
 5125 0c4a 88       		.byte	0x88
 5126 0c4b 9A070000 		.4byte	0x79a
 5127 0c4f 00       		.byte	0
 5128 0c50 00       		.byte	0
 5129 0c51 15       		.uleb128 0x15
 5130 0c52 04       		.byte	0x4
 5131 0c53 25       		.byte	0x25
 5132 0c54 8A       		.byte	0x8a
 5133 0c55 660C0000 		.4byte	0xc66
 5134 0c59 0C       		.uleb128 0xc
 5135 0c5a 5D160000 		.4byte	.LASF175
 5136 0c5e 25       		.byte	0x25
 5137 0c5f 8E       		.byte	0x8e
 5138 0c60 AE0C0000 		.4byte	0xcae
 5139 0c64 00       		.byte	0
 5140 0c65 00       		.byte	0
ARM GAS  /tmp/ccB5ynkg.s 			page 93


 5141 0c66 0B       		.uleb128 0xb
 5142 0c67 9F4C0000 		.4byte	.LASF176
 5143 0c6b 25       		.byte	0x25
 5144 0c6c 89       		.byte	0x89
 5145 0c6d 3C0C0000 		.4byte	0xc3c
 5146 0c71 0B       		.uleb128 0xb
 5147 0c72 C14A0000 		.4byte	.LASF177
 5148 0c76 25       		.byte	0x25
 5149 0c77 8F       		.byte	0x8f
 5150 0c78 510C0000 		.4byte	0xc51
 5151 0c7c 00       		.byte	0
 5152 0c7d 0C       		.uleb128 0xc
 5153 0c7e FE130000 		.4byte	.LASF178
 5154 0c82 25       		.byte	0x25
 5155 0c83 7A       		.byte	0x7a
 5156 0c84 22010000 		.4byte	0x122
 5157 0c88 00       		.byte	0
 5158 0c89 0C       		.uleb128 0xc
 5159 0c8a CA2C0000 		.4byte	.LASF179
 5160 0c8e 25       		.byte	0x25
 5161 0c8f 7E       		.byte	0x7e
 5162 0c90 25000000 		.4byte	0x25
 5163 0c94 04       		.byte	0x4
 5164 0c95 0C       		.uleb128 0xc
 5165 0c96 D9190000 		.4byte	.LASF180
 5166 0c9a 25       		.byte	0x25
 5167 0c9b 82       		.byte	0x82
 5168 0c9c 25000000 		.4byte	0x25
 5169 0ca0 08       		.byte	0x8
 5170 0ca1 0C       		.uleb128 0xc
 5171 0ca2 75150000 		.4byte	.LASF181
 5172 0ca6 25       		.byte	0x25
 5173 0ca7 91       		.byte	0x91
 5174 0ca8 340C0000 		.4byte	0xc34
 5175 0cac 0C       		.byte	0xc
 5176 0cad 00       		.byte	0
 5177 0cae 06       		.uleb128 0x6
 5178 0caf 04       		.byte	0x4
 5179 0cb0 39070000 		.4byte	0x739
 5180 0cb4 02       		.uleb128 0x2
 5181 0cb5 BE250000 		.4byte	.LASF182
 5182 0cb9 25       		.byte	0x25
 5183 0cba 92       		.byte	0x92
 5184 0cbb 280C0000 		.4byte	0xc28
 5185 0cbf 0E       		.uleb128 0xe
 5186 0cc0 14       		.byte	0x14
 5187 0cc1 25       		.byte	0x25
 5188 0cc2 97       		.byte	0x97
 5189 0cc3 E34B0000 		.4byte	.LASF183
 5190 0cc7 510D0000 		.4byte	0xd51
 5191 0ccb 0A       		.uleb128 0xa
 5192 0ccc 04       		.byte	0x4
 5193 0ccd 25       		.byte	0x25
 5194 0cce A4       		.byte	0xa4
 5195 0ccf 140D0000 		.4byte	0xd14
 5196 0cd3 15       		.uleb128 0x15
 5197 0cd4 04       		.byte	0x4
ARM GAS  /tmp/ccB5ynkg.s 			page 94


 5198 0cd5 25       		.byte	0x25
 5199 0cd6 A5       		.byte	0xa5
 5200 0cd7 E80C0000 		.4byte	0xce8
 5201 0cdb 0C       		.uleb128 0xc
 5202 0cdc E41A0000 		.4byte	.LASF184
 5203 0ce0 25       		.byte	0x25
 5204 0ce1 A9       		.byte	0xa9
 5205 0ce2 28070000 		.4byte	0x728
 5206 0ce6 00       		.byte	0
 5207 0ce7 00       		.byte	0
 5208 0ce8 15       		.uleb128 0x15
 5209 0ce9 04       		.byte	0x4
 5210 0cea 25       		.byte	0x25
 5211 0ceb AB       		.byte	0xab
 5212 0cec FD0C0000 		.4byte	0xcfd
 5213 0cf0 0C       		.uleb128 0xc
 5214 0cf1 354C0000 		.4byte	.LASF185
 5215 0cf5 25       		.byte	0x25
 5216 0cf6 AF       		.byte	0xaf
 5217 0cf7 510D0000 		.4byte	0xd51
 5218 0cfb 00       		.byte	0
 5219 0cfc 00       		.byte	0
 5220 0cfd 0B       		.uleb128 0xb
 5221 0cfe 9F4C0000 		.4byte	.LASF176
 5222 0d02 25       		.byte	0x25
 5223 0d03 AA       		.byte	0xaa
 5224 0d04 D30C0000 		.4byte	0xcd3
 5225 0d08 0B       		.uleb128 0xb
 5226 0d09 C14A0000 		.4byte	.LASF177
 5227 0d0d 25       		.byte	0x25
 5228 0d0e B0       		.byte	0xb0
 5229 0d0f E80C0000 		.4byte	0xce8
 5230 0d13 00       		.byte	0
 5231 0d14 0C       		.uleb128 0xc
 5232 0d15 21110000 		.4byte	.LASF186
 5233 0d19 25       		.byte	0x25
 5234 0d1a 9B       		.byte	0x9b
 5235 0d1b 22010000 		.4byte	0x122
 5236 0d1f 00       		.byte	0
 5237 0d20 0C       		.uleb128 0xc
 5238 0d21 C22F0000 		.4byte	.LASF187
 5239 0d25 25       		.byte	0x25
 5240 0d26 9F       		.byte	0x9f
 5241 0d27 25000000 		.4byte	0x25
 5242 0d2b 04       		.byte	0x4
 5243 0d2c 0C       		.uleb128 0xc
 5244 0d2d A5190000 		.4byte	.LASF188
 5245 0d31 25       		.byte	0x25
 5246 0d32 A3       		.byte	0xa3
 5247 0d33 25000000 		.4byte	0x25
 5248 0d37 08       		.byte	0x8
 5249 0d38 0C       		.uleb128 0xc
 5250 0d39 75150000 		.4byte	.LASF181
 5251 0d3d 25       		.byte	0x25
 5252 0d3e B1       		.byte	0xb1
 5253 0d3f CB0C0000 		.4byte	0xccb
 5254 0d43 0C       		.byte	0xc
ARM GAS  /tmp/ccB5ynkg.s 			page 95


 5255 0d44 0C       		.uleb128 0xc
 5256 0d45 1A110000 		.4byte	.LASF189
 5257 0d49 25       		.byte	0x25
 5258 0d4a B6       		.byte	0xb6
 5259 0d4b F6000000 		.4byte	0xf6
 5260 0d4f 10       		.byte	0x10
 5261 0d50 00       		.byte	0
 5262 0d51 06       		.uleb128 0x6
 5263 0d52 04       		.byte	0x4
 5264 0d53 2E070000 		.4byte	0x72e
 5265 0d57 02       		.uleb128 0x2
 5266 0d58 A9470000 		.4byte	.LASF190
 5267 0d5c 25       		.byte	0x25
 5268 0d5d B7       		.byte	0xb7
 5269 0d5e BF0C0000 		.4byte	0xcbf
 5270 0d62 0E       		.uleb128 0xe
 5271 0d63 24       		.byte	0x24
 5272 0d64 25       		.byte	0x25
 5273 0d65 BD       		.byte	0xbd
 5274 0d66 F51B0000 		.4byte	.LASF191
 5275 0d6a E70D0000 		.4byte	0xde7
 5276 0d6e 0C       		.uleb128 0xc
 5277 0d6f 92380000 		.4byte	.LASF192
 5278 0d73 25       		.byte	0x25
 5279 0d74 C1       		.byte	0xc1
 5280 0d75 0C010000 		.4byte	0x10c
 5281 0d79 00       		.byte	0
 5282 0d7a 0C       		.uleb128 0xc
 5283 0d7b 46160000 		.4byte	.LASF193
 5284 0d7f 25       		.byte	0x25
 5285 0d80 CC       		.byte	0xcc
 5286 0d81 880B0000 		.4byte	0xb88
 5287 0d85 04       		.byte	0x4
 5288 0d86 0C       		.uleb128 0xc
 5289 0d87 B33A0000 		.4byte	.LASF194
 5290 0d8b 25       		.byte	0x25
 5291 0d8c D2       		.byte	0xd2
 5292 0d8d 880B0000 		.4byte	0xb88
 5293 0d91 08       		.byte	0x8
 5294 0d92 0C       		.uleb128 0xc
 5295 0d93 141D0000 		.4byte	.LASF195
 5296 0d97 25       		.byte	0x25
 5297 0d98 D8       		.byte	0xd8
 5298 0d99 880B0000 		.4byte	0xb88
 5299 0d9d 0C       		.byte	0xc
 5300 0d9e 0C       		.uleb128 0xc
 5301 0d9f CB5F0000 		.4byte	.LASF196
 5302 0da3 25       		.byte	0x25
 5303 0da4 DE       		.byte	0xde
 5304 0da5 F6000000 		.4byte	0xf6
 5305 0da9 10       		.byte	0x10
 5306 0daa 0C       		.uleb128 0xc
 5307 0dab 1C250000 		.4byte	.LASF197
 5308 0daf 25       		.byte	0x25
 5309 0db0 E4       		.byte	0xe4
 5310 0db1 F6000000 		.4byte	0xf6
 5311 0db5 12       		.byte	0x12
ARM GAS  /tmp/ccB5ynkg.s 			page 96


 5312 0db6 0C       		.uleb128 0xc
 5313 0db7 1E5C0000 		.4byte	.LASF198
 5314 0dbb 25       		.byte	0x25
 5315 0dbc E9       		.byte	0xe9
 5316 0dbd E70D0000 		.4byte	0xde7
 5317 0dc1 14       		.byte	0x14
 5318 0dc2 0C       		.uleb128 0xc
 5319 0dc3 4A210000 		.4byte	.LASF199
 5320 0dc7 25       		.byte	0x25
 5321 0dc8 EE       		.byte	0xee
 5322 0dc9 ED0D0000 		.4byte	0xded
 5323 0dcd 18       		.byte	0x18
 5324 0dce 0C       		.uleb128 0xc
 5325 0dcf 524F0000 		.4byte	.LASF200
 5326 0dd3 25       		.byte	0x25
 5327 0dd4 F4       		.byte	0xf4
 5328 0dd5 F6000000 		.4byte	0xf6
 5329 0dd9 1C       		.byte	0x1c
 5330 0dda 0C       		.uleb128 0xc
 5331 0ddb 355A0000 		.4byte	.LASF201
 5332 0ddf 25       		.byte	0x25
 5333 0de0 FA       		.byte	0xfa
 5334 0de1 28070000 		.4byte	0x728
 5335 0de5 20       		.byte	0x20
 5336 0de6 00       		.byte	0
 5337 0de7 06       		.uleb128 0x6
 5338 0de8 04       		.byte	0x4
 5339 0de9 B40C0000 		.4byte	0xcb4
 5340 0ded 06       		.uleb128 0x6
 5341 0dee 04       		.byte	0x4
 5342 0def 570D0000 		.4byte	0xd57
 5343 0df3 02       		.uleb128 0x2
 5344 0df4 D14B0000 		.4byte	.LASF202
 5345 0df8 25       		.byte	0x25
 5346 0df9 FB       		.byte	0xfb
 5347 0dfa 620D0000 		.4byte	0xd62
 5348 0dfe 1E       		.uleb128 0x1e
 5349 0dff 10       		.byte	0x10
 5350 0e00 25       		.byte	0x25
 5351 0e01 0001     		.2byte	0x100
 5352 0e03 C2190000 		.4byte	.LASF204
 5353 0e07 400E0000 		.4byte	0xe40
 5354 0e0b 19       		.uleb128 0x19
 5355 0e0c 0B1D0000 		.4byte	.LASF205
 5356 0e10 25       		.byte	0x25
 5357 0e11 0501     		.2byte	0x105
 5358 0e13 AA0B0000 		.4byte	0xbaa
 5359 0e17 00       		.byte	0
 5360 0e18 19       		.uleb128 0x19
 5361 0e19 A2570000 		.4byte	.LASF206
 5362 0e1d 25       		.byte	0x25
 5363 0e1e 0A01     		.2byte	0x10a
 5364 0e20 ED0B0000 		.4byte	0xbed
 5365 0e24 04       		.byte	0x4
 5366 0e25 19       		.uleb128 0x19
 5367 0e26 B92C0000 		.4byte	.LASF207
 5368 0e2a 25       		.byte	0x25
ARM GAS  /tmp/ccB5ynkg.s 			page 97


 5369 0e2b 1001     		.2byte	0x110
 5370 0e2d CC0B0000 		.4byte	0xbcc
 5371 0e31 08       		.byte	0x8
 5372 0e32 19       		.uleb128 0x19
 5373 0e33 0A060000 		.4byte	.LASF208
 5374 0e37 25       		.byte	0x25
 5375 0e38 1401     		.2byte	0x114
 5376 0e3a 650B0000 		.4byte	0xb65
 5377 0e3e 0C       		.byte	0xc
 5378 0e3f 00       		.byte	0
 5379 0e40 1D       		.uleb128 0x1d
 5380 0e41 FB280000 		.4byte	.LASF209
 5381 0e45 25       		.byte	0x25
 5382 0e46 1601     		.2byte	0x116
 5383 0e48 FE0D0000 		.4byte	0xdfe
 5384 0e4c 06       		.uleb128 0x6
 5385 0e4d 04       		.byte	0x4
 5386 0e4e 520E0000 		.4byte	0xe52
 5387 0e52 07       		.uleb128 0x7
 5388 0e53 400E0000 		.4byte	0xe40
 5389 0e57 17       		.uleb128 0x17
 5390 0e58 670E0000 		.4byte	0xe67
 5391 0e5c 670E0000 		.4byte	0xe67
 5392 0e60 18       		.uleb128 0x18
 5393 0e61 B8000000 		.4byte	0xb8
 5394 0e65 07       		.byte	0x7
 5395 0e66 00       		.byte	0
 5396 0e67 06       		.uleb128 0x6
 5397 0e68 04       		.byte	0x4
 5398 0e69 6D0E0000 		.4byte	0xe6d
 5399 0e6d 07       		.uleb128 0x7
 5400 0e6e F30D0000 		.4byte	0xdf3
 5401 0e72 17       		.uleb128 0x17
 5402 0e73 BF000000 		.4byte	0xbf
 5403 0e77 820E0000 		.4byte	0xe82
 5404 0e7b 18       		.uleb128 0x18
 5405 0e7c B8000000 		.4byte	0xb8
 5406 0e80 06       		.byte	0x6
 5407 0e81 00       		.byte	0
 5408 0e82 17       		.uleb128 0x17
 5409 0e83 50000000 		.4byte	0x50
 5410 0e87 920E0000 		.4byte	0xe92
 5411 0e8b 18       		.uleb128 0x18
 5412 0e8c B8000000 		.4byte	0xb8
 5413 0e90 07       		.byte	0x7
 5414 0e91 00       		.byte	0
 5415 0e92 1A       		.uleb128 0x1a
 5416 0e93 01       		.byte	0x1
 5417 0e94 26       		.byte	0x26
 5418 0e95 83       		.byte	0x83
 5419 0e96 5B510000 		.4byte	.LASF211
 5420 0e9a B10E0000 		.4byte	0xeb1
 5421 0e9e 1B       		.uleb128 0x1b
 5422 0e9f A61B0000 		.4byte	.LASF212
 5423 0ea3 00       		.sleb128 0
 5424 0ea4 1B       		.uleb128 0x1b
 5425 0ea5 3F3E0000 		.4byte	.LASF213
ARM GAS  /tmp/ccB5ynkg.s 			page 98


 5426 0ea9 01       		.sleb128 1
 5427 0eaa 1B       		.uleb128 0x1b
 5428 0eab 7A130000 		.4byte	.LASF214
 5429 0eaf 02       		.sleb128 2
 5430 0eb0 00       		.byte	0
 5431 0eb1 02       		.uleb128 0x2
 5432 0eb2 80140000 		.4byte	.LASF215
 5433 0eb6 26       		.byte	0x26
 5434 0eb7 87       		.byte	0x87
 5435 0eb8 920E0000 		.4byte	0xe92
 5436 0ebc 02       		.uleb128 0x2
 5437 0ebd 6A130000 		.4byte	.LASF216
 5438 0ec1 26       		.byte	0x26
 5439 0ec2 8C       		.byte	0x8c
 5440 0ec3 C70E0000 		.4byte	0xec7
 5441 0ec7 1F       		.uleb128 0x1f
 5442 0ec8 6A130000 		.4byte	.LASF216
 5443 0ecc 5802     		.2byte	0x258
 5444 0ece 26       		.byte	0x26
 5445 0ecf CF       		.byte	0xcf
 5446 0ed0 350F0000 		.4byte	0xf35
 5447 0ed4 0D       		.uleb128 0xd
 5448 0ed5 766D7400 		.ascii	"vmt\000"
 5449 0ed9 26       		.byte	0x26
 5450 0eda D1       		.byte	0xd1
 5451 0edb EA0F0000 		.4byte	0xfea
 5452 0edf 00       		.byte	0
 5453 0ee0 0C       		.uleb128 0xc
 5454 0ee1 33000000 		.4byte	.LASF217
 5455 0ee5 26       		.byte	0x26
 5456 0ee6 D2       		.byte	0xd2
 5457 0ee7 D6050000 		.4byte	0x5d6
 5458 0eeb 04       		.byte	0x4
 5459 0eec 0C       		.uleb128 0xc
 5460 0eed CA340000 		.4byte	.LASF126
 5461 0ef1 26       		.byte	0x26
 5462 0ef2 D2       		.byte	0xd2
 5463 0ef3 B10E0000 		.4byte	0xeb1
 5464 0ef7 08       		.byte	0x8
 5465 0ef8 0C       		.uleb128 0xc
 5466 0ef9 AC3A0000 		.4byte	.LASF218
 5467 0efd 26       		.byte	0x26
 5468 0efe D2       		.byte	0xd2
 5469 0eff 2E070000 		.4byte	0x72e
 5470 0f03 0C       		.byte	0xc
 5471 0f04 0C       		.uleb128 0xc
 5472 0f05 BE2A0000 		.4byte	.LASF219
 5473 0f09 26       		.byte	0x26
 5474 0f0a D2       		.byte	0xd2
 5475 0f0b 39070000 		.4byte	0x739
 5476 0f0f 30       		.byte	0x30
 5477 0f10 0D       		.uleb128 0xd
 5478 0f11 696200   		.ascii	"ib\000"
 5479 0f14 26       		.byte	0x26
 5480 0f15 D2       		.byte	0xd2
 5481 0f16 75090000 		.4byte	0x975
 5482 0f1a 54       		.byte	0x54
ARM GAS  /tmp/ccB5ynkg.s 			page 99


 5483 0f1b 20       		.uleb128 0x20
 5484 0f1c 6F6200   		.ascii	"ob\000"
 5485 0f1f 26       		.byte	0x26
 5486 0f20 D2       		.byte	0xd2
 5487 0f21 75090000 		.4byte	0x975
 5488 0f25 5401     		.2byte	0x154
 5489 0f27 21       		.uleb128 0x21
 5490 0f28 C4450000 		.4byte	.LASF127
 5491 0f2c 26       		.byte	0x26
 5492 0f2d D2       		.byte	0xd2
 5493 0f2e F50F0000 		.4byte	0xff5
 5494 0f32 5402     		.2byte	0x254
 5495 0f34 00       		.byte	0
 5496 0f35 0E       		.uleb128 0xe
 5497 0f36 08       		.byte	0x8
 5498 0f37 26       		.byte	0x26
 5499 0f38 93       		.byte	0x93
 5500 0f39 962F0000 		.4byte	.LASF220
 5501 0f3d 720F0000 		.4byte	0xf72
 5502 0f41 0C       		.uleb128 0xc
 5503 0f42 A0520000 		.4byte	.LASF221
 5504 0f46 26       		.byte	0x26
 5505 0f47 97       		.byte	0x97
 5506 0f48 820B0000 		.4byte	0xb82
 5507 0f4c 00       		.byte	0
 5508 0f4d 0C       		.uleb128 0xc
 5509 0f4e 28250000 		.4byte	.LASF222
 5510 0f52 26       		.byte	0x26
 5511 0f53 9B       		.byte	0x9b
 5512 0f54 6E0A0000 		.4byte	0xa6e
 5513 0f58 04       		.byte	0x4
 5514 0f59 0C       		.uleb128 0xc
 5515 0f5a BA0F0000 		.4byte	.LASF223
 5516 0f5e 26       		.byte	0x26
 5517 0f5f 9F       		.byte	0x9f
 5518 0f60 6E0A0000 		.4byte	0xa6e
 5519 0f64 05       		.byte	0x5
 5520 0f65 0C       		.uleb128 0xc
 5521 0f66 8B270000 		.4byte	.LASF224
 5522 0f6a 26       		.byte	0x26
 5523 0f6b A3       		.byte	0xa3
 5524 0f6c 6E0A0000 		.4byte	0xa6e
 5525 0f70 06       		.byte	0x6
 5526 0f71 00       		.byte	0
 5527 0f72 02       		.uleb128 0x2
 5528 0f73 32470000 		.4byte	.LASF225
 5529 0f77 26       		.byte	0x26
 5530 0f78 A4       		.byte	0xa4
 5531 0f79 350F0000 		.4byte	0xf35
 5532 0f7d 09       		.uleb128 0x9
 5533 0f7e 79390000 		.4byte	.LASF226
 5534 0f82 20       		.byte	0x20
 5535 0f83 26       		.byte	0x26
 5536 0f84 C4       		.byte	0xc4
 5537 0f85 EA0F0000 		.4byte	0xfea
 5538 0f89 0C       		.uleb128 0xc
 5539 0f8a A63A0000 		.4byte	.LASF109
ARM GAS  /tmp/ccB5ynkg.s 			page 100


 5540 0f8e 26       		.byte	0x26
 5541 0f8f C5       		.byte	0xc5
 5542 0f90 A5070000 		.4byte	0x7a5
 5543 0f94 00       		.byte	0
 5544 0f95 0C       		.uleb128 0xc
 5545 0f96 1E050000 		.4byte	.LASF110
 5546 0f9a 26       		.byte	0x26
 5547 0f9b C5       		.byte	0xc5
 5548 0f9c C4070000 		.4byte	0x7c4
 5549 0fa0 04       		.byte	0x4
 5550 0fa1 0D       		.uleb128 0xd
 5551 0fa2 70757400 		.ascii	"put\000"
 5552 0fa6 26       		.byte	0x26
 5553 0fa7 C5       		.byte	0xc5
 5554 0fa8 DE070000 		.4byte	0x7de
 5555 0fac 08       		.byte	0x8
 5556 0fad 0D       		.uleb128 0xd
 5557 0fae 67657400 		.ascii	"get\000"
 5558 0fb2 26       		.byte	0x26
 5559 0fb3 C5       		.byte	0xc5
 5560 0fb4 79060000 		.4byte	0x679
 5561 0fb8 0C       		.byte	0xc
 5562 0fb9 0C       		.uleb128 0xc
 5563 0fba 2F300000 		.4byte	.LASF227
 5564 0fbe 26       		.byte	0x26
 5565 0fbf C5       		.byte	0xc5
 5566 0fc0 31080000 		.4byte	0x831
 5567 0fc4 10       		.byte	0x10
 5568 0fc5 0C       		.uleb128 0xc
 5569 0fc6 733A0000 		.4byte	.LASF228
 5570 0fca 26       		.byte	0x26
 5571 0fcb C5       		.byte	0xc5
 5572 0fcc 4B080000 		.4byte	0x84b
 5573 0fd0 14       		.byte	0x14
 5574 0fd1 0C       		.uleb128 0xc
 5575 0fd2 81550000 		.4byte	.LASF229
 5576 0fd6 26       		.byte	0x26
 5577 0fd7 C5       		.byte	0xc5
 5578 0fd8 6F080000 		.4byte	0x86f
 5579 0fdc 18       		.byte	0x18
 5580 0fdd 0C       		.uleb128 0xc
 5581 0fde 5C470000 		.4byte	.LASF230
 5582 0fe2 26       		.byte	0x26
 5583 0fe3 C5       		.byte	0xc5
 5584 0fe4 93080000 		.4byte	0x893
 5585 0fe8 1C       		.byte	0x1c
 5586 0fe9 00       		.byte	0
 5587 0fea 06       		.uleb128 0x6
 5588 0feb 04       		.byte	0x4
 5589 0fec F00F0000 		.4byte	0xff0
 5590 0ff0 07       		.uleb128 0x7
 5591 0ff1 7D0F0000 		.4byte	0xf7d
 5592 0ff5 06       		.uleb128 0x6
 5593 0ff6 04       		.byte	0x4
 5594 0ff7 FB0F0000 		.4byte	0xffb
 5595 0ffb 07       		.uleb128 0x7
 5596 0ffc 720F0000 		.4byte	0xf72
ARM GAS  /tmp/ccB5ynkg.s 			page 101


 5597 1000 02       		.uleb128 0x2
 5598 1001 7A150000 		.4byte	.LASF231
 5599 1005 27       		.byte	0x27
 5600 1006 28       		.byte	0x28
 5601 1007 0B100000 		.4byte	0x100b
 5602 100b 09       		.uleb128 0x9
 5603 100c D65F0000 		.4byte	.LASF232
 5604 1010 04       		.byte	0x4
 5605 1011 28       		.byte	0x28
 5606 1012 00       		.byte	0
 5607 1013 22100000 		.4byte	0x1022
 5608 1017 22       		.uleb128 0x22
 5609 1018 B0520000 		.4byte	.LASF233
 5610 101c BF000000 		.4byte	0xbf
 5611 1020 00       		.byte	0
 5612 1021 00       		.byte	0
 5613 1022 02       		.uleb128 0x2
 5614 1023 421D0000 		.4byte	.LASF234
 5615 1027 27       		.byte	0x27
 5616 1028 62       		.byte	0x62
 5617 1029 00100000 		.4byte	0x1000
 5618 102d 02       		.uleb128 0x2
 5619 102e 972A0000 		.4byte	.LASF235
 5620 1032 29       		.byte	0x29
 5621 1033 2D       		.byte	0x2d
 5622 1034 38100000 		.4byte	0x1038
 5623 1038 06       		.uleb128 0x6
 5624 1039 04       		.byte	0x4
 5625 103a 3E100000 		.4byte	0x103e
 5626 103e 14       		.uleb128 0x14
 5627 103f 53100000 		.4byte	0x1053
 5628 1043 13       		.uleb128 0x13
 5629 1044 53100000 		.4byte	0x1053
 5630 1048 13       		.uleb128 0x13
 5631 1049 37000000 		.4byte	0x37
 5632 104d 13       		.uleb128 0x13
 5633 104e 59100000 		.4byte	0x1059
 5634 1052 00       		.byte	0
 5635 1053 06       		.uleb128 0x6
 5636 1054 04       		.byte	0x4
 5637 1055 08080000 		.4byte	0x808
 5638 1059 06       		.uleb128 0x6
 5639 105a 04       		.byte	0x4
 5640 105b C1000000 		.4byte	0xc1
 5641 105f 0E       		.uleb128 0xe
 5642 1060 08       		.byte	0x8
 5643 1061 29       		.byte	0x29
 5644 1062 32       		.byte	0x32
 5645 1063 63500000 		.4byte	.LASF236
 5646 1067 84100000 		.4byte	0x1084
 5647 106b 0C       		.uleb128 0xc
 5648 106c 48450000 		.4byte	.LASF237
 5649 1070 29       		.byte	0x29
 5650 1071 33       		.byte	0x33
 5651 1072 CE000000 		.4byte	0xce
 5652 1076 00       		.byte	0
 5653 1077 0C       		.uleb128 0xc
ARM GAS  /tmp/ccB5ynkg.s 			page 102


 5654 1078 7B480000 		.4byte	.LASF238
 5655 107c 29       		.byte	0x29
 5656 107d 34       		.byte	0x34
 5657 107e 2D100000 		.4byte	0x102d
 5658 1082 04       		.byte	0x4
 5659 1083 00       		.byte	0
 5660 1084 02       		.uleb128 0x2
 5661 1085 4F5B0000 		.4byte	.LASF239
 5662 1089 29       		.byte	0x29
 5663 108a 35       		.byte	0x35
 5664 108b 5F100000 		.4byte	0x105f
 5665 108f 0E       		.uleb128 0xe
 5666 1090 08       		.byte	0x8
 5667 1091 29       		.byte	0x29
 5668 1092 3A       		.byte	0x3a
 5669 1093 B0580000 		.4byte	.LASF240
 5670 1097 B4100000 		.4byte	0x10b4
 5671 109b 0C       		.uleb128 0xc
 5672 109c 23050000 		.4byte	.LASF241
 5673 10a0 29       		.byte	0x29
 5674 10a1 3B       		.byte	0x3b
 5675 10a2 53100000 		.4byte	0x1053
 5676 10a6 00       		.byte	0
 5677 10a7 0C       		.uleb128 0xc
 5678 10a8 3E190000 		.4byte	.LASF242
 5679 10ac 29       		.byte	0x29
 5680 10ad 3D       		.byte	0x3d
 5681 10ae B4100000 		.4byte	0x10b4
 5682 10b2 04       		.byte	0x4
 5683 10b3 00       		.byte	0
 5684 10b4 06       		.uleb128 0x6
 5685 10b5 04       		.byte	0x4
 5686 10b6 BA100000 		.4byte	0x10ba
 5687 10ba 07       		.uleb128 0x7
 5688 10bb 84100000 		.4byte	0x1084
 5689 10bf 02       		.uleb128 0x2
 5690 10c0 3D4C0000 		.4byte	.LASF243
 5691 10c4 29       		.byte	0x29
 5692 10c5 3F       		.byte	0x3f
 5693 10c6 8F100000 		.4byte	0x108f
 5694 10ca 23       		.uleb128 0x23
 5695 10cb 73746400 		.ascii	"std\000"
 5696 10cf 28       		.byte	0x28
 5697 10d0 00       		.byte	0
 5698 10d1 F2100000 		.4byte	0x10f2
 5699 10d5 24       		.uleb128 0x24
 5700 10d6 2A       		.byte	0x2a
 5701 10d7 52       		.byte	0x52
 5702 10d8 F2100000 		.4byte	0x10f2
 5703 10dc 24       		.uleb128 0x24
 5704 10dd 2A       		.byte	0x2a
 5705 10de 55       		.byte	0x55
 5706 10df 0C110000 		.4byte	0x110c
 5707 10e3 24       		.uleb128 0x24
 5708 10e4 2A       		.byte	0x2a
 5709 10e5 5B       		.byte	0x5b
 5710 10e6 21110000 		.4byte	0x1121
ARM GAS  /tmp/ccB5ynkg.s 			page 103


 5711 10ea 24       		.uleb128 0x24
 5712 10eb 2A       		.byte	0x2a
 5713 10ec 5C       		.byte	0x5c
 5714 10ed 3B110000 		.4byte	0x113b
 5715 10f1 00       		.byte	0
 5716 10f2 25       		.uleb128 0x25
 5717 10f3 120B0000 		.4byte	.LASF244
 5718 10f7 2B       		.byte	0x2b
 5719 10f8 1D       		.byte	0x1d
 5720 10f9 37000000 		.4byte	0x37
 5721 10fd 0C110000 		.4byte	0x110c
 5722 1101 13       		.uleb128 0x13
 5723 1102 CE000000 		.4byte	0xce
 5724 1106 13       		.uleb128 0x13
 5725 1107 CE000000 		.4byte	0xce
 5726 110b 00       		.byte	0
 5727 110c 25       		.uleb128 0x25
 5728 110d 472A0000 		.4byte	.LASF245
 5729 1111 2B       		.byte	0x2b
 5730 1112 20       		.byte	0x20
 5731 1113 C1000000 		.4byte	0xc1
 5732 1117 21110000 		.4byte	0x1121
 5733 111b 13       		.uleb128 0x13
 5734 111c 37000000 		.4byte	0x37
 5735 1120 00       		.byte	0
 5736 1121 25       		.uleb128 0x25
 5737 1122 C13B0000 		.4byte	.LASF246
 5738 1126 2B       		.byte	0x2b
 5739 1127 2A       		.byte	0x2a
 5740 1128 C1000000 		.4byte	0xc1
 5741 112c 3B110000 		.4byte	0x113b
 5742 1130 13       		.uleb128 0x13
 5743 1131 C1000000 		.4byte	0xc1
 5744 1135 13       		.uleb128 0x13
 5745 1136 CE000000 		.4byte	0xce
 5746 113a 00       		.byte	0
 5747 113b 25       		.uleb128 0x25
 5748 113c C52A0000 		.4byte	.LASF247
 5749 1140 2B       		.byte	0x2b
 5750 1141 2C       		.byte	0x2c
 5751 1142 25000000 		.4byte	0x25
 5752 1146 5A110000 		.4byte	0x115a
 5753 114a 13       		.uleb128 0x13
 5754 114b C1000000 		.4byte	0xc1
 5755 114f 13       		.uleb128 0x13
 5756 1150 CE000000 		.4byte	0xce
 5757 1154 13       		.uleb128 0x13
 5758 1155 25000000 		.4byte	0x25
 5759 1159 00       		.byte	0
 5760 115a 23       		.uleb128 0x23
 5761 115b 72327000 		.ascii	"r2p\000"
 5762 115f 2C       		.byte	0x2c
 5763 1160 03       		.byte	0x3
 5764 1161 7C4D0000 		.4byte	0x4d7c
 5765 1165 26       		.uleb128 0x26
 5766 1166 472C0000 		.4byte	.LASF248
 5767 116a 01       		.byte	0x1
ARM GAS  /tmp/ccB5ynkg.s 			page 104


 5768 116b 2C       		.byte	0x2c
 5769 116c 06       		.byte	0x6
 5770 116d C5110000 		.4byte	0x11c5
 5771 1171 27       		.uleb128 0x27
 5772 1172 472C0000 		.4byte	.LASF248
 5773 1176 2C       		.byte	0x2c
 5774 1177 09       		.byte	0x9
 5775 1178 7C4D0000 		.4byte	0x4d7c
 5776 117c 84110000 		.4byte	0x1184
 5777 1180 8F110000 		.4byte	0x118f
 5778 1184 28       		.uleb128 0x28
 5779 1185 7C4D0000 		.4byte	0x4d7c
 5780 1189 13       		.uleb128 0x13
 5781 118a 824D0000 		.4byte	0x4d82
 5782 118e 00       		.byte	0
 5783 118f 29       		.uleb128 0x29
 5784 1190 472C0000 		.4byte	.LASF248
 5785 1194 2C       		.byte	0x2c
 5786 1195 14       		.byte	0x14
 5787 1196 7C4D0000 		.4byte	0x4d7c
 5788 119a 02       		.byte	0x2
 5789 119b A3110000 		.4byte	0x11a3
 5790 119f A9110000 		.4byte	0x11a9
 5791 11a3 28       		.uleb128 0x28
 5792 11a4 7C4D0000 		.4byte	0x4d7c
 5793 11a8 00       		.byte	0
 5794 11a9 2A       		.uleb128 0x2a
 5795 11aa 735E0000 		.4byte	.LASF249
 5796 11ae 2C       		.byte	0x2c
 5797 11af 15       		.byte	0x15
 5798 11b0 BF000000 		.4byte	0xbf
 5799 11b4 02       		.byte	0x2
 5800 11b5 B9110000 		.4byte	0x11b9
 5801 11b9 28       		.uleb128 0x28
 5802 11ba 7C4D0000 		.4byte	0x4d7c
 5803 11be 28       		.uleb128 0x28
 5804 11bf 37000000 		.4byte	0x37
 5805 11c3 00       		.byte	0
 5806 11c4 00       		.byte	0
 5807 11c5 07       		.uleb128 0x7
 5808 11c6 65110000 		.4byte	0x1165
 5809 11ca 26       		.uleb128 0x26
 5810 11cb 5E3F0000 		.4byte	.LASF250
 5811 11cf 01       		.byte	0x1
 5812 11d0 02       		.byte	0x2
 5813 11d1 09       		.byte	0x9
 5814 11d2 0E120000 		.4byte	0x120e
 5815 11d6 2B       		.uleb128 0x2b
 5816 11d7 65110000 		.4byte	0x1165
 5817 11db 00       		.byte	0
 5818 11dc 27       		.uleb128 0x27
 5819 11dd 5E3F0000 		.4byte	.LASF250
 5820 11e1 02       		.byte	0x2
 5821 11e2 0B       		.byte	0xb
 5822 11e3 884D0000 		.4byte	0x4d88
 5823 11e7 EF110000 		.4byte	0x11ef
 5824 11eb F5110000 		.4byte	0x11f5
ARM GAS  /tmp/ccB5ynkg.s 			page 105


 5825 11ef 28       		.uleb128 0x28
 5826 11f0 884D0000 		.4byte	0x4d88
 5827 11f4 00       		.byte	0
 5828 11f5 2C       		.uleb128 0x2c
 5829 11f6 A01E0000 		.4byte	.LASF251
 5830 11fa 02       		.byte	0x2
 5831 11fb 0E       		.byte	0xe
 5832 11fc A9130000 		.4byte	.LASF253
 5833 1200 01       		.byte	0x1
 5834 1201 2C       		.uleb128 0x2c
 5835 1202 62470000 		.4byte	.LASF252
 5836 1206 02       		.byte	0x2
 5837 1207 0F       		.byte	0xf
 5838 1208 15170000 		.4byte	.LASF254
 5839 120c 01       		.byte	0x1
 5840 120d 00       		.byte	0
 5841 120e 26       		.uleb128 0x26
 5842 120f 6C4F0000 		.4byte	.LASF255
 5843 1213 01       		.byte	0x1
 5844 1214 03       		.byte	0x3
 5845 1215 09       		.byte	0x9
 5846 1216 52120000 		.4byte	0x1252
 5847 121a 2B       		.uleb128 0x2b
 5848 121b 65110000 		.4byte	0x1165
 5849 121f 00       		.byte	0
 5850 1220 27       		.uleb128 0x27
 5851 1221 6C4F0000 		.4byte	.LASF255
 5852 1225 03       		.byte	0x3
 5853 1226 12       		.byte	0x12
 5854 1227 8E4D0000 		.4byte	0x4d8e
 5855 122b 33120000 		.4byte	0x1233
 5856 122f 39120000 		.4byte	0x1239
 5857 1233 28       		.uleb128 0x28
 5858 1234 8E4D0000 		.4byte	0x4d8e
 5859 1238 00       		.byte	0
 5860 1239 2C       		.uleb128 0x2c
 5861 123a A01E0000 		.4byte	.LASF251
 5862 123e 03       		.byte	0x3
 5863 123f 15       		.byte	0x15
 5864 1240 BE430000 		.4byte	.LASF256
 5865 1244 01       		.byte	0x1
 5866 1245 2C       		.uleb128 0x2c
 5867 1246 62470000 		.4byte	.LASF252
 5868 124a 03       		.byte	0x3
 5869 124b 16       		.byte	0x16
 5870 124c 06480000 		.4byte	.LASF257
 5871 1250 01       		.byte	0x1
 5872 1251 00       		.byte	0
 5873 1252 26       		.uleb128 0x26
 5874 1253 92550000 		.4byte	.LASF258
 5875 1257 0C       		.byte	0xc
 5876 1258 04       		.byte	0x4
 5877 1259 09       		.byte	0x9
 5878 125a 0B140000 		.4byte	0x140b
 5879 125e 2B       		.uleb128 0x2b
 5880 125f 65110000 		.4byte	0x1165
 5881 1263 00       		.byte	0
ARM GAS  /tmp/ccB5ynkg.s 			page 106


 5882 1264 0C       		.uleb128 0xc
 5883 1265 CD1A0000 		.4byte	.LASF259
 5884 1269 04       		.byte	0x4
 5885 126a 0E       		.byte	0xe
 5886 126b 51060000 		.4byte	0x651
 5887 126f 00       		.byte	0
 5888 1270 2D       		.uleb128 0x2d
 5889 1271 09000000 		.4byte	.LASF277
 5890 1275 04       		.byte	0x4
 5891 1276 0B       		.byte	0xb
 5892 1277 E1050000 		.4byte	0x5e1
 5893 127b 01       		.byte	0x1
 5894 127c 2E       		.uleb128 0x2e
 5895 127d BF420000 		.4byte	.LASF260
 5896 1281 04       		.byte	0x4
 5897 1282 11       		.byte	0x11
 5898 1283 BA460000 		.4byte	.LASF262
 5899 1287 25000000 		.4byte	0x25
 5900 128b 01       		.byte	0x1
 5901 128c 94120000 		.4byte	0x1294
 5902 1290 9A120000 		.4byte	0x129a
 5903 1294 28       		.uleb128 0x28
 5904 1295 944D0000 		.4byte	0x4d94
 5905 1299 00       		.byte	0
 5906 129a 2E       		.uleb128 0x2e
 5907 129b 04270000 		.4byte	.LASF261
 5908 129f 04       		.byte	0x4
 5909 12a0 12       		.byte	0x12
 5910 12a1 EF1A0000 		.4byte	.LASF263
 5911 12a5 70120000 		.4byte	0x1270
 5912 12a9 01       		.byte	0x1
 5913 12aa B2120000 		.4byte	0x12b2
 5914 12ae B8120000 		.4byte	0x12b8
 5915 12b2 28       		.uleb128 0x28
 5916 12b3 944D0000 		.4byte	0x4d94
 5917 12b7 00       		.byte	0
 5918 12b8 2E       		.uleb128 0x2e
 5919 12b9 25350000 		.4byte	.LASF264
 5920 12bd 04       		.byte	0x4
 5921 12be 14       		.byte	0x14
 5922 12bf 69360000 		.4byte	.LASF265
 5923 12c3 BF000000 		.4byte	0xbf
 5924 12c7 01       		.byte	0x1
 5925 12c8 D0120000 		.4byte	0x12d0
 5926 12cc D6120000 		.4byte	0x12d6
 5927 12d0 28       		.uleb128 0x28
 5928 12d1 9A4D0000 		.4byte	0x4d9a
 5929 12d5 00       		.byte	0
 5930 12d6 2F       		.uleb128 0x2f
 5931 12d7 9E150000 		.4byte	.LASF266
 5932 12db 04       		.byte	0x4
 5933 12dc 15       		.byte	0x15
 5934 12dd AB110000 		.4byte	.LASF270
 5935 12e1 01       		.byte	0x1
 5936 12e2 EA120000 		.4byte	0x12ea
 5937 12e6 F5120000 		.4byte	0x12f5
 5938 12ea 28       		.uleb128 0x28
ARM GAS  /tmp/ccB5ynkg.s 			page 107


 5939 12eb 9A4D0000 		.4byte	0x4d9a
 5940 12ef 13       		.uleb128 0x13
 5941 12f0 BF000000 		.4byte	0xbf
 5942 12f4 00       		.byte	0
 5943 12f5 2E       		.uleb128 0x2e
 5944 12f6 D8310000 		.4byte	.LASF267
 5945 12fa 04       		.byte	0x4
 5946 12fb 17       		.byte	0x17
 5947 12fc 321C0000 		.4byte	.LASF268
 5948 1300 BF000000 		.4byte	0xbf
 5949 1304 01       		.byte	0x1
 5950 1305 0D130000 		.4byte	0x130d
 5951 1309 13130000 		.4byte	0x1313
 5952 130d 28       		.uleb128 0x28
 5953 130e 9A4D0000 		.4byte	0x4d9a
 5954 1312 00       		.byte	0
 5955 1313 2F       		.uleb128 0x2f
 5956 1314 1E100000 		.4byte	.LASF269
 5957 1318 04       		.byte	0x4
 5958 1319 18       		.byte	0x18
 5959 131a 5B240000 		.4byte	.LASF271
 5960 131e 01       		.byte	0x1
 5961 131f 27130000 		.4byte	0x1327
 5962 1323 32130000 		.4byte	0x1332
 5963 1327 28       		.uleb128 0x28
 5964 1328 9A4D0000 		.4byte	0x4d9a
 5965 132c 13       		.uleb128 0x13
 5966 132d BF000000 		.4byte	0xbf
 5967 1331 00       		.byte	0
 5968 1332 2F       		.uleb128 0x2f
 5969 1333 654F0000 		.4byte	.LASF272
 5970 1337 04       		.byte	0x4
 5971 1338 19       		.byte	0x19
 5972 1339 353D0000 		.4byte	.LASF273
 5973 133d 01       		.byte	0x1
 5974 133e 46130000 		.4byte	0x1346
 5975 1342 56130000 		.4byte	0x1356
 5976 1346 28       		.uleb128 0x28
 5977 1347 9A4D0000 		.4byte	0x4d9a
 5978 134b 13       		.uleb128 0x13
 5979 134c BF000000 		.4byte	0xbf
 5980 1350 13       		.uleb128 0x13
 5981 1351 25000000 		.4byte	0x25
 5982 1355 00       		.byte	0
 5983 1356 2E       		.uleb128 0x2e
 5984 1357 EF230000 		.4byte	.LASF274
 5985 135b 04       		.byte	0x4
 5986 135c 1B       		.byte	0x1b
 5987 135d 65160000 		.4byte	.LASF275
 5988 1361 A04D0000 		.4byte	0x4da0
 5989 1365 01       		.byte	0x1
 5990 1366 6E130000 		.4byte	0x136e
 5991 136a 74130000 		.4byte	0x1374
 5992 136e 28       		.uleb128 0x28
 5993 136f 9A4D0000 		.4byte	0x4d9a
 5994 1373 00       		.byte	0
 5995 1374 29       		.uleb128 0x29
ARM GAS  /tmp/ccB5ynkg.s 			page 108


 5996 1375 92550000 		.4byte	.LASF258
 5997 1379 04       		.byte	0x4
 5998 137a 1E       		.byte	0x1e
 5999 137b 9A4D0000 		.4byte	0x4d9a
 6000 137f 01       		.byte	0x1
 6001 1380 88130000 		.4byte	0x1388
 6002 1384 93130000 		.4byte	0x1393
 6003 1388 28       		.uleb128 0x28
 6004 1389 9A4D0000 		.4byte	0x4d9a
 6005 138d 13       		.uleb128 0x13
 6006 138e 25000000 		.4byte	0x25
 6007 1392 00       		.byte	0
 6008 1393 29       		.uleb128 0x29
 6009 1394 92550000 		.4byte	.LASF258
 6010 1398 04       		.byte	0x4
 6011 1399 1F       		.byte	0x1f
 6012 139a 9A4D0000 		.4byte	0x4d9a
 6013 139e 01       		.byte	0x1
 6014 139f A7130000 		.4byte	0x13a7
 6015 13a3 BC130000 		.4byte	0x13bc
 6016 13a7 28       		.uleb128 0x28
 6017 13a8 9A4D0000 		.4byte	0x4d9a
 6018 13ac 13       		.uleb128 0x13
 6019 13ad BF000000 		.4byte	0xbf
 6020 13b1 13       		.uleb128 0x13
 6021 13b2 25000000 		.4byte	0x25
 6022 13b6 13       		.uleb128 0x13
 6023 13b7 25000000 		.4byte	0x25
 6024 13bb 00       		.byte	0
 6025 13bc 29       		.uleb128 0x29
 6026 13bd 92550000 		.4byte	.LASF258
 6027 13c1 04       		.byte	0x4
 6028 13c2 20       		.byte	0x20
 6029 13c3 9A4D0000 		.4byte	0x4d9a
 6030 13c7 01       		.byte	0x1
 6031 13c8 D0130000 		.4byte	0x13d0
 6032 13cc E0130000 		.4byte	0x13e0
 6033 13d0 28       		.uleb128 0x28
 6034 13d1 9A4D0000 		.4byte	0x4d9a
 6035 13d5 13       		.uleb128 0x13
 6036 13d6 25000000 		.4byte	0x25
 6037 13da 13       		.uleb128 0x13
 6038 13db 70120000 		.4byte	0x1270
 6039 13df 00       		.byte	0
 6040 13e0 2A       		.uleb128 0x2a
 6041 13e1 92550000 		.4byte	.LASF258
 6042 13e5 04       		.byte	0x4
 6043 13e6 21       		.byte	0x21
 6044 13e7 9A4D0000 		.4byte	0x4d9a
 6045 13eb 01       		.byte	0x1
 6046 13ec F0130000 		.4byte	0x13f0
 6047 13f0 28       		.uleb128 0x28
 6048 13f1 9A4D0000 		.4byte	0x4d9a
 6049 13f5 13       		.uleb128 0x13
 6050 13f6 BF000000 		.4byte	0xbf
 6051 13fa 13       		.uleb128 0x13
 6052 13fb 25000000 		.4byte	0x25
ARM GAS  /tmp/ccB5ynkg.s 			page 109


 6053 13ff 13       		.uleb128 0x13
 6054 1400 25000000 		.4byte	0x25
 6055 1404 13       		.uleb128 0x13
 6056 1405 70120000 		.4byte	0x1270
 6057 1409 00       		.byte	0
 6058 140a 00       		.byte	0
 6059 140b 07       		.uleb128 0x7
 6060 140c 52120000 		.4byte	0x1252
 6061 1410 26       		.uleb128 0x26
 6062 1411 AE440000 		.4byte	.LASF276
 6063 1415 04       		.byte	0x4
 6064 1416 05       		.byte	0x5
 6065 1417 08       		.byte	0x8
 6066 1418 BD160000 		.4byte	0x16bd
 6067 141c 2D       		.uleb128 0x2d
 6068 141d 141E0000 		.4byte	.LASF278
 6069 1421 05       		.byte	0x5
 6070 1422 0A       		.byte	0xa
 6071 1423 01010000 		.4byte	0x101
 6072 1427 01       		.byte	0x1
 6073 1428 30       		.uleb128 0x30
 6074 1429 72617700 		.ascii	"raw\000"
 6075 142d 05       		.byte	0x5
 6076 142e 1B       		.byte	0x1b
 6077 142f 1C140000 		.4byte	0x141c
 6078 1433 00       		.byte	0
 6079 1434 01       		.byte	0x1
 6080 1435 31       		.uleb128 0x31
 6081 1436 F91F0000 		.4byte	.LASF279
 6082 143a 05       		.byte	0x5
 6083 143b 3B       		.byte	0x3b
 6084 143c BD160000 		.4byte	0x16bd
 6085 1440 01       		.byte	0x1
 6086 1441 31       		.uleb128 0x31
 6087 1442 4A1D0000 		.4byte	.LASF280
 6088 1446 05       		.byte	0x5
 6089 1447 3C       		.byte	0x3c
 6090 1448 BD160000 		.4byte	0x16bd
 6091 144c 01       		.byte	0x1
 6092 144d 31       		.uleb128 0x31
 6093 144e 925F0000 		.4byte	.LASF281
 6094 1452 05       		.byte	0x5
 6095 1453 3D       		.byte	0x3d
 6096 1454 BD160000 		.4byte	0x16bd
 6097 1458 01       		.byte	0x1
 6098 1459 2E       		.uleb128 0x2e
 6099 145a 40250000 		.4byte	.LASF282
 6100 145e 05       		.byte	0x5
 6101 145f 1E       		.byte	0x1e
 6102 1460 7C5B0000 		.4byte	.LASF283
 6103 1464 1C140000 		.4byte	0x141c
 6104 1468 01       		.byte	0x1
 6105 1469 71140000 		.4byte	0x1471
 6106 146d 77140000 		.4byte	0x1477
 6107 1471 28       		.uleb128 0x28
 6108 1472 A64D0000 		.4byte	0x4da6
 6109 1476 00       		.byte	0
ARM GAS  /tmp/ccB5ynkg.s 			page 110


 6110 1477 2E       		.uleb128 0x2e
 6111 1478 4F3C0000 		.4byte	.LASF284
 6112 147c 05       		.byte	0x5
 6113 147d 1F       		.byte	0x1f
 6114 147e FB520000 		.4byte	.LASF285
 6115 1482 1C140000 		.4byte	0x141c
 6116 1486 01       		.byte	0x1
 6117 1487 8F140000 		.4byte	0x148f
 6118 148b 95140000 		.4byte	0x1495
 6119 148f 28       		.uleb128 0x28
 6120 1490 A64D0000 		.4byte	0x4da6
 6121 1494 00       		.byte	0
 6122 1495 2E       		.uleb128 0x2e
 6123 1496 2E050000 		.4byte	.LASF286
 6124 149a 05       		.byte	0x5
 6125 149b 20       		.byte	0x20
 6126 149c 47530000 		.4byte	.LASF287
 6127 14a0 1C140000 		.4byte	0x141c
 6128 14a4 01       		.byte	0x1
 6129 14a5 AD140000 		.4byte	0x14ad
 6130 14a9 B3140000 		.4byte	0x14b3
 6131 14ad 28       		.uleb128 0x28
 6132 14ae A64D0000 		.4byte	0x4da6
 6133 14b2 00       		.byte	0
 6134 14b3 2E       		.uleb128 0x2e
 6135 14b4 EF110000 		.4byte	.LASF288
 6136 14b8 05       		.byte	0x5
 6137 14b9 21       		.byte	0x21
 6138 14ba 90510000 		.4byte	.LASF289
 6139 14be 1C140000 		.4byte	0x141c
 6140 14c2 01       		.byte	0x1
 6141 14c3 CB140000 		.4byte	0x14cb
 6142 14c7 D1140000 		.4byte	0x14d1
 6143 14cb 28       		.uleb128 0x28
 6144 14cc A64D0000 		.4byte	0x4da6
 6145 14d0 00       		.byte	0
 6146 14d1 2E       		.uleb128 0x2e
 6147 14d2 C71A0000 		.4byte	.LASF290
 6148 14d6 05       		.byte	0x5
 6149 14d7 23       		.byte	0x23
 6150 14d8 23100000 		.4byte	.LASF291
 6151 14dc AC4D0000 		.4byte	0x4dac
 6152 14e0 01       		.byte	0x1
 6153 14e1 E9140000 		.4byte	0x14e9
 6154 14e5 EF140000 		.4byte	0x14ef
 6155 14e9 28       		.uleb128 0x28
 6156 14ea A64D0000 		.4byte	0x4da6
 6157 14ee 00       		.byte	0
 6158 14ef 2E       		.uleb128 0x2e
 6159 14f0 412C0000 		.4byte	.LASF292
 6160 14f4 05       		.byte	0x5
 6161 14f5 24       		.byte	0x24
 6162 14f6 1D080000 		.4byte	.LASF293
 6163 14fa AC4D0000 		.4byte	0x4dac
 6164 14fe 01       		.byte	0x1
 6165 14ff 07150000 		.4byte	0x1507
 6166 1503 0D150000 		.4byte	0x150d
ARM GAS  /tmp/ccB5ynkg.s 			page 111


 6167 1507 28       		.uleb128 0x28
 6168 1508 A64D0000 		.4byte	0x4da6
 6169 150c 00       		.byte	0
 6170 150d 2E       		.uleb128 0x2e
 6171 150e 155D0000 		.4byte	.LASF294
 6172 1512 05       		.byte	0x5
 6173 1513 25       		.byte	0x25
 6174 1514 26150000 		.4byte	.LASF295
 6175 1518 AC4D0000 		.4byte	0x4dac
 6176 151c 01       		.byte	0x1
 6177 151d 25150000 		.4byte	0x1525
 6178 1521 2B150000 		.4byte	0x152b
 6179 1525 28       		.uleb128 0x28
 6180 1526 A64D0000 		.4byte	0x4da6
 6181 152a 00       		.byte	0
 6182 152b 2E       		.uleb128 0x2e
 6183 152c EB5C0000 		.4byte	.LASF296
 6184 1530 05       		.byte	0x5
 6185 1531 26       		.byte	0x26
 6186 1532 4A190000 		.4byte	.LASF297
 6187 1536 AC4D0000 		.4byte	0x4dac
 6188 153a 01       		.byte	0x1
 6189 153b 43150000 		.4byte	0x1543
 6190 153f 49150000 		.4byte	0x1549
 6191 1543 28       		.uleb128 0x28
 6192 1544 A64D0000 		.4byte	0x4da6
 6193 1548 00       		.byte	0
 6194 1549 2E       		.uleb128 0x2e
 6195 154a DE130000 		.4byte	.LASF298
 6196 154e 05       		.byte	0x5
 6197 154f 28       		.byte	0x28
 6198 1550 0C370000 		.4byte	.LASF299
 6199 1554 B34D0000 		.4byte	0x4db3
 6200 1558 01       		.byte	0x1
 6201 1559 61150000 		.4byte	0x1561
 6202 155d 6C150000 		.4byte	0x156c
 6203 1561 28       		.uleb128 0x28
 6204 1562 B94D0000 		.4byte	0x4db9
 6205 1566 13       		.uleb128 0x13
 6206 1567 BF4D0000 		.4byte	0x4dbf
 6207 156b 00       		.byte	0
 6208 156c 2E       		.uleb128 0x2e
 6209 156d 553D0000 		.4byte	.LASF300
 6210 1571 05       		.byte	0x5
 6211 1572 29       		.byte	0x29
 6212 1573 1E520000 		.4byte	.LASF301
 6213 1577 B34D0000 		.4byte	0x4db3
 6214 157b 01       		.byte	0x1
 6215 157c 84150000 		.4byte	0x1584
 6216 1580 8F150000 		.4byte	0x158f
 6217 1584 28       		.uleb128 0x28
 6218 1585 B94D0000 		.4byte	0x4db9
 6219 1589 13       		.uleb128 0x13
 6220 158a BF4D0000 		.4byte	0x4dbf
 6221 158e 00       		.byte	0
 6222 158f 2E       		.uleb128 0x2e
 6223 1590 BC400000 		.4byte	.LASF302
ARM GAS  /tmp/ccB5ynkg.s 			page 112


 6224 1594 05       		.byte	0x5
 6225 1595 2A       		.byte	0x2a
 6226 1596 FD100000 		.4byte	.LASF303
 6227 159a B34D0000 		.4byte	0x4db3
 6228 159e 01       		.byte	0x1
 6229 159f A7150000 		.4byte	0x15a7
 6230 15a3 B2150000 		.4byte	0x15b2
 6231 15a7 28       		.uleb128 0x28
 6232 15a8 B94D0000 		.4byte	0x4db9
 6233 15ac 13       		.uleb128 0x13
 6234 15ad BF4D0000 		.4byte	0x4dbf
 6235 15b1 00       		.byte	0
 6236 15b2 29       		.uleb128 0x29
 6237 15b3 AE440000 		.4byte	.LASF276
 6238 15b7 05       		.byte	0x5
 6239 15b8 2D       		.byte	0x2d
 6240 15b9 B94D0000 		.4byte	0x4db9
 6241 15bd 01       		.byte	0x1
 6242 15be C6150000 		.4byte	0x15c6
 6243 15c2 CC150000 		.4byte	0x15cc
 6244 15c6 28       		.uleb128 0x28
 6245 15c7 B94D0000 		.4byte	0x4db9
 6246 15cb 00       		.byte	0
 6247 15cc 32       		.uleb128 0x32
 6248 15cd AE440000 		.4byte	.LASF276
 6249 15d1 05       		.byte	0x5
 6250 15d2 2F       		.byte	0x2f
 6251 15d3 B94D0000 		.4byte	0x4db9
 6252 15d7 01       		.byte	0x1
 6253 15d8 E0150000 		.4byte	0x15e0
 6254 15dc EB150000 		.4byte	0x15eb
 6255 15e0 28       		.uleb128 0x28
 6256 15e1 B94D0000 		.4byte	0x4db9
 6257 15e5 13       		.uleb128 0x13
 6258 15e6 AC4D0000 		.4byte	0x4dac
 6259 15ea 00       		.byte	0
 6260 15eb 29       		.uleb128 0x29
 6261 15ec AE440000 		.4byte	.LASF276
 6262 15f0 05       		.byte	0x5
 6263 15f1 30       		.byte	0x30
 6264 15f2 B94D0000 		.4byte	0x4db9
 6265 15f6 01       		.byte	0x1
 6266 15f7 FF150000 		.4byte	0x15ff
 6267 15fb 0A160000 		.4byte	0x160a
 6268 15ff 28       		.uleb128 0x28
 6269 1600 B94D0000 		.4byte	0x4db9
 6270 1604 13       		.uleb128 0x13
 6271 1605 BF4D0000 		.4byte	0x4dbf
 6272 1609 00       		.byte	0
 6273 160a 33       		.uleb128 0x33
 6274 160b 757300   		.ascii	"us\000"
 6275 160e 05       		.byte	0x5
 6276 160f 33       		.byte	0x33
 6277 1610 BD300000 		.4byte	.LASF304
 6278 1614 10140000 		.4byte	0x1410
 6279 1618 01       		.byte	0x1
 6280 1619 23160000 		.4byte	0x1623
ARM GAS  /tmp/ccB5ynkg.s 			page 113


 6281 161d 13       		.uleb128 0x13
 6282 161e 1C140000 		.4byte	0x141c
 6283 1622 00       		.byte	0
 6284 1623 33       		.uleb128 0x33
 6285 1624 6D7300   		.ascii	"ms\000"
 6286 1627 05       		.byte	0x5
 6287 1628 34       		.byte	0x34
 6288 1629 2D3E0000 		.4byte	.LASF305
 6289 162d 10140000 		.4byte	0x1410
 6290 1631 01       		.byte	0x1
 6291 1632 3C160000 		.4byte	0x163c
 6292 1636 13       		.uleb128 0x13
 6293 1637 1C140000 		.4byte	0x141c
 6294 163b 00       		.byte	0
 6295 163c 33       		.uleb128 0x33
 6296 163d 7300     		.ascii	"s\000"
 6297 163f 05       		.byte	0x5
 6298 1640 35       		.byte	0x35
 6299 1641 42470000 		.4byte	.LASF306
 6300 1645 10140000 		.4byte	0x1410
 6301 1649 01       		.byte	0x1
 6302 164a 54160000 		.4byte	0x1654
 6303 164e 13       		.uleb128 0x13
 6304 164f 1C140000 		.4byte	0x141c
 6305 1653 00       		.byte	0
 6306 1654 33       		.uleb128 0x33
 6307 1655 6D00     		.ascii	"m\000"
 6308 1657 05       		.byte	0x5
 6309 1658 36       		.byte	0x36
 6310 1659 DC380000 		.4byte	.LASF307
 6311 165d 10140000 		.4byte	0x1410
 6312 1661 01       		.byte	0x1
 6313 1662 6C160000 		.4byte	0x166c
 6314 1666 13       		.uleb128 0x13
 6315 1667 1C140000 		.4byte	0x141c
 6316 166b 00       		.byte	0
 6317 166c 33       		.uleb128 0x33
 6318 166d 687A00   		.ascii	"hz\000"
 6319 1670 05       		.byte	0x5
 6320 1671 37       		.byte	0x37
 6321 1672 6E5A0000 		.4byte	.LASF308
 6322 1676 10140000 		.4byte	0x1410
 6323 167a 01       		.byte	0x1
 6324 167b 85160000 		.4byte	0x1685
 6325 167f 13       		.uleb128 0x13
 6326 1680 AC4D0000 		.4byte	0x4dac
 6327 1684 00       		.byte	0
 6328 1685 34       		.uleb128 0x34
 6329 1686 6E6F7700 		.ascii	"now\000"
 6330 168a 05       		.byte	0x5
 6331 168b 38       		.byte	0x38
 6332 168c 225A0000 		.4byte	.LASF903
 6333 1690 10140000 		.4byte	0x1410
 6334 1694 01       		.byte	0x1
 6335 1695 07       		.uleb128 0x7
 6336 1696 1C140000 		.4byte	0x141c
 6337 169a 2A       		.uleb128 0x2a
ARM GAS  /tmp/ccB5ynkg.s 			page 114


 6338 169b 03070000 		.4byte	.LASF309
 6339 169f 05       		.byte	0x5
 6340 16a0 9F       		.byte	0x9f
 6341 16a1 B94D0000 		.4byte	0x4db9
 6342 16a5 01       		.byte	0x1
 6343 16a6 B1160000 		.4byte	0x16b1
 6344 16aa 35       		.uleb128 0x35
 6345 16ab 5400     		.ascii	"T\000"
 6346 16ad 86000000 		.4byte	0x86
 6347 16b1 28       		.uleb128 0x28
 6348 16b2 B94D0000 		.4byte	0x4db9
 6349 16b6 13       		.uleb128 0x13
 6350 16b7 86000000 		.4byte	0x86
 6351 16bb 00       		.byte	0
 6352 16bc 00       		.byte	0
 6353 16bd 07       		.uleb128 0x7
 6354 16be 10140000 		.4byte	0x1410
 6355 16c2 26       		.uleb128 0x26
 6356 16c3 202C0000 		.4byte	.LASF310
 6357 16c7 04       		.byte	0x4
 6358 16c8 2D       		.byte	0x2d
 6359 16c9 0F       		.byte	0xf
 6360 16ca 041D0000 		.4byte	0x1d04
 6361 16ce 2B       		.uleb128 0x2b
 6362 16cf 65110000 		.4byte	0x1165
 6363 16d3 00       		.byte	0
 6364 16d4 36       		.uleb128 0x36
 6365 16d5 FA540000 		.4byte	.LASF313
 6366 16d9 08       		.byte	0x8
 6367 16da 2D       		.byte	0x2d
 6368 16db 11       		.byte	0x11
 6369 16dc 01       		.byte	0x1
 6370 16dd 14170000 		.4byte	0x1714
 6371 16e1 0C       		.uleb128 0xc
 6372 16e2 522C0000 		.4byte	.LASF311
 6373 16e6 2D       		.byte	0x2d
 6374 16e7 12       		.byte	0x12
 6375 16e8 C54D0000 		.4byte	0x4dc5
 6376 16ec 00       		.byte	0
 6377 16ed 0C       		.uleb128 0xc
 6378 16ee F2180000 		.4byte	.LASF312
 6379 16f2 2D       		.byte	0x2d
 6380 16f3 13       		.byte	0x13
 6381 16f4 F24F0000 		.4byte	0x4ff2
 6382 16f8 04       		.byte	0x4
 6383 16f9 37       		.uleb128 0x37
 6384 16fa FA540000 		.4byte	.LASF313
 6385 16fe 2D       		.byte	0x2d
 6386 16ff 15       		.byte	0x15
 6387 1700 C54D0000 		.4byte	0x4dc5
 6388 1704 08170000 		.4byte	0x1708
 6389 1708 28       		.uleb128 0x28
 6390 1709 C54D0000 		.4byte	0x4dc5
 6391 170d 13       		.uleb128 0x13
 6392 170e 4C4F0000 		.4byte	0x4f4c
 6393 1712 00       		.byte	0
 6394 1713 00       		.byte	0
ARM GAS  /tmp/ccB5ynkg.s 			page 115


 6395 1714 19       		.uleb128 0x19
 6396 1715 1F130000 		.4byte	.LASF314
 6397 1719 2D       		.byte	0x2d
 6398 171a 8A01     		.2byte	0x18a
 6399 171c C54D0000 		.4byte	0x4dc5
 6400 1720 00       		.byte	0
 6401 1721 38       		.uleb128 0x38
 6402 1722 20270000 		.4byte	.LASF561
 6403 1726 39       		.uleb128 0x39
 6404 1727 641E0000 		.4byte	.LASF315
 6405 172b 39       		.uleb128 0x39
 6406 172c 9C2D0000 		.4byte	.LASF316
 6407 1730 39       		.uleb128 0x39
 6408 1731 3A4E0000 		.4byte	.LASF317
 6409 1735 3A       		.uleb128 0x3a
 6410 1736 023B0000 		.4byte	.LASF319
 6411 173a 04       		.byte	0x4
 6412 173b 2D       		.byte	0x2d
 6413 173c C0       		.byte	0xc0
 6414 173d 01       		.byte	0x1
 6415 173e A5180000 		.4byte	0x18a5
 6416 1742 0C       		.uleb128 0xc
 6417 1743 64140000 		.4byte	.LASF318
 6418 1747 2D       		.byte	0x2d
 6419 1748 C4       		.byte	0xc4
 6420 1749 0E510000 		.4byte	0x510e
 6421 174d 00       		.byte	0
 6422 174e 29       		.uleb128 0x29
 6423 174f 023B0000 		.4byte	.LASF319
 6424 1753 2D       		.byte	0x2d
 6425 1754 C7       		.byte	0xc7
 6426 1755 14510000 		.4byte	0x5114
 6427 1759 01       		.byte	0x1
 6428 175a 62170000 		.4byte	0x1762
 6429 175e 68170000 		.4byte	0x1768
 6430 1762 28       		.uleb128 0x28
 6431 1763 14510000 		.4byte	0x5114
 6432 1767 00       		.byte	0
 6433 1768 29       		.uleb128 0x29
 6434 1769 023B0000 		.4byte	.LASF319
 6435 176d 2D       		.byte	0x2d
 6436 176e C8       		.byte	0xc8
 6437 176f 14510000 		.4byte	0x5114
 6438 1773 01       		.byte	0x1
 6439 1774 7C170000 		.4byte	0x177c
 6440 1778 87170000 		.4byte	0x1787
 6441 177c 28       		.uleb128 0x28
 6442 177d 14510000 		.4byte	0x5114
 6443 1781 13       		.uleb128 0x13
 6444 1782 1A510000 		.4byte	0x511a
 6445 1786 00       		.byte	0
 6446 1787 27       		.uleb128 0x27
 6447 1788 023B0000 		.4byte	.LASF319
 6448 178c 2D       		.byte	0x2d
 6449 178d CB       		.byte	0xcb
 6450 178e 14510000 		.4byte	0x5114
 6451 1792 9A170000 		.4byte	0x179a
ARM GAS  /tmp/ccB5ynkg.s 			page 116


 6452 1796 A5170000 		.4byte	0x17a5
 6453 179a 28       		.uleb128 0x28
 6454 179b 14510000 		.4byte	0x5114
 6455 179f 13       		.uleb128 0x13
 6456 17a0 0E510000 		.4byte	0x510e
 6457 17a4 00       		.byte	0
 6458 17a5 3B       		.uleb128 0x3b
 6459 17a6 DE130000 		.4byte	.LASF298
 6460 17aa 2D       		.byte	0x2d
 6461 17ab CE       		.byte	0xce
 6462 17ac A2240000 		.4byte	.LASF320
 6463 17b0 304E0000 		.4byte	0x4e30
 6464 17b4 BC170000 		.4byte	0x17bc
 6465 17b8 C7170000 		.4byte	0x17c7
 6466 17bc 28       		.uleb128 0x28
 6467 17bd 14510000 		.4byte	0x5114
 6468 17c1 13       		.uleb128 0x13
 6469 17c2 1A510000 		.4byte	0x511a
 6470 17c6 00       		.byte	0
 6471 17c7 2E       		.uleb128 0x2e
 6472 17c8 C7400000 		.4byte	.LASF321
 6473 17cc 2D       		.byte	0x2d
 6474 17cd D4       		.byte	0xd4
 6475 17ce BF500000 		.4byte	.LASF322
 6476 17d2 20510000 		.4byte	0x5120
 6477 17d6 01       		.byte	0x1
 6478 17d7 DF170000 		.4byte	0x17df
 6479 17db E5170000 		.4byte	0x17e5
 6480 17df 28       		.uleb128 0x28
 6481 17e0 26510000 		.4byte	0x5126
 6482 17e4 00       		.byte	0
 6483 17e5 2E       		.uleb128 0x2e
 6484 17e6 8B130000 		.4byte	.LASF323
 6485 17ea 2D       		.byte	0x2d
 6486 17eb D8       		.byte	0xd8
 6487 17ec 3A390000 		.4byte	.LASF324
 6488 17f0 E04D0000 		.4byte	0x4de0
 6489 17f4 01       		.byte	0x1
 6490 17f5 FD170000 		.4byte	0x17fd
 6491 17f9 03180000 		.4byte	0x1803
 6492 17fd 28       		.uleb128 0x28
 6493 17fe 26510000 		.4byte	0x5126
 6494 1802 00       		.byte	0
 6495 1803 2E       		.uleb128 0x2e
 6496 1804 993E0000 		.4byte	.LASF325
 6497 1808 2D       		.byte	0x2d
 6498 1809 DC       		.byte	0xdc
 6499 180a CD420000 		.4byte	.LASF326
 6500 180e 304E0000 		.4byte	0x4e30
 6501 1812 01       		.byte	0x1
 6502 1813 1B180000 		.4byte	0x181b
 6503 1817 21180000 		.4byte	0x1821
 6504 181b 28       		.uleb128 0x28
 6505 181c 14510000 		.4byte	0x5114
 6506 1820 00       		.byte	0
 6507 1821 2E       		.uleb128 0x2e
 6508 1822 993E0000 		.4byte	.LASF325
ARM GAS  /tmp/ccB5ynkg.s 			page 117


 6509 1826 2D       		.byte	0x2d
 6510 1827 E3       		.byte	0xe3
 6511 1828 CD410000 		.4byte	.LASF327
 6512 182c 961C0000 		.4byte	0x1c96
 6513 1830 01       		.byte	0x1
 6514 1831 39180000 		.4byte	0x1839
 6515 1835 44180000 		.4byte	0x1844
 6516 1839 28       		.uleb128 0x28
 6517 183a 14510000 		.4byte	0x5114
 6518 183e 13       		.uleb128 0x13
 6519 183f 37000000 		.4byte	0x37
 6520 1843 00       		.byte	0
 6521 1844 2E       		.uleb128 0x2e
 6522 1845 1A5D0000 		.4byte	.LASF328
 6523 1849 2D       		.byte	0x2d
 6524 184a EB       		.byte	0xeb
 6525 184b 90560000 		.4byte	.LASF329
 6526 184f 2D010000 		.4byte	0x12d
 6527 1853 01       		.byte	0x1
 6528 1854 5C180000 		.4byte	0x185c
 6529 1858 67180000 		.4byte	0x1867
 6530 185c 28       		.uleb128 0x28
 6531 185d 26510000 		.4byte	0x5126
 6532 1861 13       		.uleb128 0x13
 6533 1862 1A510000 		.4byte	0x511a
 6534 1866 00       		.byte	0
 6535 1867 2E       		.uleb128 0x2e
 6536 1868 0A2F0000 		.4byte	.LASF330
 6537 186c 2D       		.byte	0x2d
 6538 186d EF       		.byte	0xef
 6539 186e 6D320000 		.4byte	.LASF331
 6540 1872 2D010000 		.4byte	0x12d
 6541 1876 01       		.byte	0x1
 6542 1877 7F180000 		.4byte	0x187f
 6543 187b 8A180000 		.4byte	0x188a
 6544 187f 28       		.uleb128 0x28
 6545 1880 26510000 		.4byte	0x5126
 6546 1884 13       		.uleb128 0x13
 6547 1885 1A510000 		.4byte	0x511a
 6548 1889 00       		.byte	0
 6549 188a 3C       		.uleb128 0x3c
 6550 188b 503F0000 		.4byte	.LASF332
 6551 188f 2D       		.byte	0x2d
 6552 1890 F3       		.byte	0xf3
 6553 1891 740F0000 		.4byte	.LASF333
 6554 1895 2D010000 		.4byte	0x12d
 6555 1899 01       		.byte	0x1
 6556 189a 9E180000 		.4byte	0x189e
 6557 189e 28       		.uleb128 0x28
 6558 189f 26510000 		.4byte	0x5126
 6559 18a3 00       		.byte	0
 6560 18a4 00       		.byte	0
 6561 18a5 1D       		.uleb128 0x1d
 6562 18a6 F8180000 		.4byte	.LASF334
 6563 18aa 2D       		.byte	0x2d
 6564 18ab 8601     		.2byte	0x186
 6565 18ad CB4D0000 		.4byte	0x4dcb
ARM GAS  /tmp/ccB5ynkg.s 			page 118


 6566 18b1 1D       		.uleb128 0x1d
 6567 18b2 4D120000 		.4byte	.LASF335
 6568 18b6 2D       		.byte	0x2d
 6569 18b7 8701     		.2byte	0x187
 6570 18b9 E64D0000 		.4byte	0x4de6
 6571 18bd 3D       		.uleb128 0x3d
 6572 18be 7A5F0000 		.4byte	.LASF336
 6573 18c2 2D       		.byte	0x2d
 6574 18c3 8D01     		.2byte	0x18d
 6575 18c5 2C3B0000 		.4byte	.LASF338
 6576 18c9 004E0000 		.4byte	0x4e00
 6577 18cd 01       		.byte	0x1
 6578 18ce D6180000 		.4byte	0x18d6
 6579 18d2 DC180000 		.4byte	0x18dc
 6580 18d6 28       		.uleb128 0x28
 6581 18d7 064E0000 		.4byte	0x4e06
 6582 18db 00       		.byte	0
 6583 18dc 07       		.uleb128 0x7
 6584 18dd D4160000 		.4byte	0x16d4
 6585 18e1 3D       		.uleb128 0x3d
 6586 18e2 805A0000 		.4byte	.LASF337
 6587 18e6 2D       		.byte	0x2d
 6588 18e7 9101     		.2byte	0x191
 6589 18e9 CF590000 		.4byte	.LASF339
 6590 18ed 2D010000 		.4byte	0x12d
 6591 18f1 01       		.byte	0x1
 6592 18f2 FA180000 		.4byte	0x18fa
 6593 18f6 00190000 		.4byte	0x1900
 6594 18fa 28       		.uleb128 0x28
 6595 18fb 064E0000 		.4byte	0x4e06
 6596 18ff 00       		.byte	0
 6597 1900 3D       		.uleb128 0x3d
 6598 1901 A11D0000 		.4byte	.LASF340
 6599 1905 2D       		.byte	0x2d
 6600 1906 0302     		.2byte	0x203
 6601 1908 F94B0000 		.4byte	.LASF341
 6602 190c 25000000 		.4byte	0x25
 6603 1910 01       		.byte	0x1
 6604 1911 19190000 		.4byte	0x1919
 6605 1915 1F190000 		.4byte	0x191f
 6606 1919 28       		.uleb128 0x28
 6607 191a 064E0000 		.4byte	0x4e06
 6608 191e 00       		.byte	0
 6609 191f 3E       		.uleb128 0x3e
 6610 1920 DD440000 		.4byte	.LASF342
 6611 1924 2D       		.byte	0x2d
 6612 1925 9701     		.2byte	0x197
 6613 1927 B11B0000 		.4byte	.LASF344
 6614 192b 01       		.byte	0x1
 6615 192c 34190000 		.4byte	0x1934
 6616 1930 3F190000 		.4byte	0x193f
 6617 1934 28       		.uleb128 0x28
 6618 1935 0C4E0000 		.4byte	0x4e0c
 6619 1939 13       		.uleb128 0x13
 6620 193a 124E0000 		.4byte	0x4e12
 6621 193e 00       		.byte	0
 6622 193f 3E       		.uleb128 0x3e
ARM GAS  /tmp/ccB5ynkg.s 			page 119


 6623 1940 594D0000 		.4byte	.LASF343
 6624 1944 2D       		.byte	0x2d
 6625 1945 9F01     		.2byte	0x19f
 6626 1947 B9120000 		.4byte	.LASF345
 6627 194b 01       		.byte	0x1
 6628 194c 54190000 		.4byte	0x1954
 6629 1950 5F190000 		.4byte	0x195f
 6630 1954 28       		.uleb128 0x28
 6631 1955 0C4E0000 		.4byte	0x4e0c
 6632 1959 13       		.uleb128 0x13
 6633 195a 124E0000 		.4byte	0x4e12
 6634 195e 00       		.byte	0
 6635 195f 3D       		.uleb128 0x3d
 6636 1960 7D270000 		.4byte	.LASF346
 6637 1964 2D       		.byte	0x2d
 6638 1965 0E02     		.2byte	0x20e
 6639 1967 21440000 		.4byte	.LASF347
 6640 196b 2D010000 		.4byte	0x12d
 6641 196f 01       		.byte	0x1
 6642 1970 78190000 		.4byte	0x1978
 6643 1974 83190000 		.4byte	0x1983
 6644 1978 28       		.uleb128 0x28
 6645 1979 0C4E0000 		.4byte	0x4e0c
 6646 197d 13       		.uleb128 0x13
 6647 197e 124E0000 		.4byte	0x4e12
 6648 1982 00       		.byte	0
 6649 1983 3D       		.uleb128 0x3d
 6650 1984 BA340000 		.4byte	.LASF348
 6651 1988 2D       		.byte	0x2d
 6652 1989 1F02     		.2byte	0x21f
 6653 198b 603D0000 		.4byte	.LASF349
 6654 198f 37000000 		.4byte	0x37
 6655 1993 01       		.byte	0x1
 6656 1994 9C190000 		.4byte	0x199c
 6657 1998 A7190000 		.4byte	0x19a7
 6658 199c 28       		.uleb128 0x28
 6659 199d 064E0000 		.4byte	0x4e06
 6660 19a1 13       		.uleb128 0x13
 6661 19a2 E04D0000 		.4byte	0x4de0
 6662 19a6 00       		.byte	0
 6663 19a7 3D       		.uleb128 0x3d
 6664 19a8 A44A0000 		.4byte	.LASF350
 6665 19ac 2D       		.byte	0x2d
 6666 19ad 2C02     		.2byte	0x22c
 6667 19af 6C400000 		.4byte	.LASF351
 6668 19b3 2D010000 		.4byte	0x12d
 6669 19b7 01       		.byte	0x1
 6670 19b8 C0190000 		.4byte	0x19c0
 6671 19bc CB190000 		.4byte	0x19cb
 6672 19c0 28       		.uleb128 0x28
 6673 19c1 064E0000 		.4byte	0x4e06
 6674 19c5 13       		.uleb128 0x13
 6675 19c6 E04D0000 		.4byte	0x4de0
 6676 19ca 00       		.byte	0
 6677 19cb 3D       		.uleb128 0x3d
 6678 19cc E8310000 		.4byte	.LASF352
 6679 19d0 2D       		.byte	0x2d
ARM GAS  /tmp/ccB5ynkg.s 			page 120


 6680 19d1 3802     		.2byte	0x238
 6681 19d3 C9000000 		.4byte	.LASF353
 6682 19d7 184E0000 		.4byte	0x4e18
 6683 19db 01       		.byte	0x1
 6684 19dc E4190000 		.4byte	0x19e4
 6685 19e0 EF190000 		.4byte	0x19ef
 6686 19e4 28       		.uleb128 0x28
 6687 19e5 064E0000 		.4byte	0x4e06
 6688 19e9 13       		.uleb128 0x13
 6689 19ea A5180000 		.4byte	0x18a5
 6690 19ee 00       		.byte	0
 6691 19ef 3D       		.uleb128 0x3d
 6692 19f0 E8310000 		.4byte	.LASF352
 6693 19f4 2D       		.byte	0x2d
 6694 19f5 4402     		.2byte	0x244
 6695 19f7 690D0000 		.4byte	.LASF354
 6696 19fb 184E0000 		.4byte	0x4e18
 6697 19ff 01       		.byte	0x1
 6698 1a00 081A0000 		.4byte	0x1a08
 6699 1a04 181A0000 		.4byte	0x1a18
 6700 1a08 28       		.uleb128 0x28
 6701 1a09 064E0000 		.4byte	0x4e06
 6702 1a0d 13       		.uleb128 0x13
 6703 1a0e B1180000 		.4byte	0x18b1
 6704 1a12 13       		.uleb128 0x13
 6705 1a13 D9000000 		.4byte	0xd9
 6706 1a17 00       		.byte	0
 6707 1a18 3D       		.uleb128 0x3d
 6708 1a19 E20F0000 		.4byte	.LASF355
 6709 1a1d 2D       		.byte	0x2d
 6710 1a1e B301     		.2byte	0x1b3
 6711 1a20 BD360000 		.4byte	.LASF356
 6712 1a24 371A0000 		.4byte	0x1a37
 6713 1a28 01       		.byte	0x1
 6714 1a29 311A0000 		.4byte	0x1a31
 6715 1a2d 371A0000 		.4byte	0x1a37
 6716 1a31 28       		.uleb128 0x28
 6717 1a32 0C4E0000 		.4byte	0x4e0c
 6718 1a36 00       		.byte	0
 6719 1a37 07       		.uleb128 0x7
 6720 1a38 26170000 		.4byte	0x1726
 6721 1a3c 3D       		.uleb128 0x3d
 6722 1a3d 152F0000 		.4byte	.LASF357
 6723 1a41 2D       		.byte	0x2d
 6724 1a42 B701     		.2byte	0x1b7
 6725 1a44 C62E0000 		.4byte	.LASF358
 6726 1a48 371A0000 		.4byte	0x1a37
 6727 1a4c 01       		.byte	0x1
 6728 1a4d 551A0000 		.4byte	0x1a55
 6729 1a51 5B1A0000 		.4byte	0x1a5b
 6730 1a55 28       		.uleb128 0x28
 6731 1a56 0C4E0000 		.4byte	0x4e0c
 6732 1a5a 00       		.byte	0
 6733 1a5b 3E       		.uleb128 0x3e
 6734 1a5c E05F0000 		.4byte	.LASF359
 6735 1a60 2D       		.byte	0x2d
 6736 1a61 BB01     		.2byte	0x1bb
ARM GAS  /tmp/ccB5ynkg.s 			page 121


 6737 1a63 FF270000 		.4byte	.LASF360
 6738 1a67 01       		.byte	0x1
 6739 1a68 701A0000 		.4byte	0x1a70
 6740 1a6c 7B1A0000 		.4byte	0x1a7b
 6741 1a70 28       		.uleb128 0x28
 6742 1a71 0C4E0000 		.4byte	0x4e0c
 6743 1a75 13       		.uleb128 0x13
 6744 1a76 1E4E0000 		.4byte	0x4e1e
 6745 1a7a 00       		.byte	0
 6746 1a7b 3D       		.uleb128 0x3d
 6747 1a7c E20F0000 		.4byte	.LASF355
 6748 1a80 2D       		.byte	0x2d
 6749 1a81 BF01     		.2byte	0x1bf
 6750 1a83 0B3A0000 		.4byte	.LASF361
 6751 1a87 9A1A0000 		.4byte	0x1a9a
 6752 1a8b 01       		.byte	0x1
 6753 1a8c 941A0000 		.4byte	0x1a94
 6754 1a90 9A1A0000 		.4byte	0x1a9a
 6755 1a94 28       		.uleb128 0x28
 6756 1a95 064E0000 		.4byte	0x4e06
 6757 1a99 00       		.byte	0
 6758 1a9a 07       		.uleb128 0x7
 6759 1a9b 2B170000 		.4byte	0x172b
 6760 1a9f 3D       		.uleb128 0x3d
 6761 1aa0 152F0000 		.4byte	.LASF357
 6762 1aa4 2D       		.byte	0x2d
 6763 1aa5 C301     		.2byte	0x1c3
 6764 1aa7 052D0000 		.4byte	.LASF362
 6765 1aab 9A1A0000 		.4byte	0x1a9a
 6766 1aaf 01       		.byte	0x1
 6767 1ab0 B81A0000 		.4byte	0x1ab8
 6768 1ab4 BE1A0000 		.4byte	0x1abe
 6769 1ab8 28       		.uleb128 0x28
 6770 1ab9 064E0000 		.4byte	0x4e06
 6771 1abd 00       		.byte	0
 6772 1abe 3E       		.uleb128 0x3e
 6773 1abf E05F0000 		.4byte	.LASF359
 6774 1ac3 2D       		.byte	0x2d
 6775 1ac4 C701     		.2byte	0x1c7
 6776 1ac6 A31C0000 		.4byte	.LASF363
 6777 1aca 01       		.byte	0x1
 6778 1acb D31A0000 		.4byte	0x1ad3
 6779 1acf DE1A0000 		.4byte	0x1ade
 6780 1ad3 28       		.uleb128 0x28
 6781 1ad4 064E0000 		.4byte	0x4e06
 6782 1ad8 13       		.uleb128 0x13
 6783 1ad9 244E0000 		.4byte	0x4e24
 6784 1add 00       		.byte	0
 6785 1ade 3D       		.uleb128 0x3d
 6786 1adf 68550000 		.4byte	.LASF364
 6787 1ae3 2D       		.byte	0x2d
 6788 1ae4 5302     		.2byte	0x253
 6789 1ae6 DF5B0000 		.4byte	.LASF365
 6790 1aea 004E0000 		.4byte	0x4e00
 6791 1aee 01       		.byte	0x1
 6792 1aef F71A0000 		.4byte	0x1af7
 6793 1af3 FD1A0000 		.4byte	0x1afd
ARM GAS  /tmp/ccB5ynkg.s 			page 122


 6794 1af7 28       		.uleb128 0x28
 6795 1af8 064E0000 		.4byte	0x4e06
 6796 1afc 00       		.byte	0
 6797 1afd 3D       		.uleb128 0x3d
 6798 1afe 6A580000 		.4byte	.LASF366
 6799 1b02 2D       		.byte	0x2d
 6800 1b03 5D02     		.2byte	0x25d
 6801 1b05 6E190000 		.4byte	.LASF367
 6802 1b09 2D010000 		.4byte	0x12d
 6803 1b0d 01       		.byte	0x1
 6804 1b0e 161B0000 		.4byte	0x1b16
 6805 1b12 1C1B0000 		.4byte	0x1b1c
 6806 1b16 28       		.uleb128 0x28
 6807 1b17 064E0000 		.4byte	0x4e06
 6808 1b1b 00       		.byte	0
 6809 1b1c 3D       		.uleb128 0x3d
 6810 1b1d 59320000 		.4byte	.LASF368
 6811 1b21 2D       		.byte	0x2d
 6812 1b22 6702     		.2byte	0x267
 6813 1b24 74000000 		.4byte	.LASF369
 6814 1b28 25000000 		.4byte	0x25
 6815 1b2c 01       		.byte	0x1
 6816 1b2d 351B0000 		.4byte	0x1b35
 6817 1b31 3B1B0000 		.4byte	0x1b3b
 6818 1b35 28       		.uleb128 0x28
 6819 1b36 064E0000 		.4byte	0x4e06
 6820 1b3a 00       		.byte	0
 6821 1b3b 3E       		.uleb128 0x3e
 6822 1b3c AE1D0000 		.4byte	.LASF370
 6823 1b40 2D       		.byte	0x2d
 6824 1b41 7602     		.2byte	0x276
 6825 1b43 F32F0000 		.4byte	.LASF371
 6826 1b47 01       		.byte	0x1
 6827 1b48 501B0000 		.4byte	0x1b50
 6828 1b4c 5B1B0000 		.4byte	0x1b5b
 6829 1b50 28       		.uleb128 0x28
 6830 1b51 0C4E0000 		.4byte	0x4e0c
 6831 1b55 13       		.uleb128 0x13
 6832 1b56 124E0000 		.4byte	0x4e12
 6833 1b5a 00       		.byte	0
 6834 1b5b 3D       		.uleb128 0x3d
 6835 1b5c 84130000 		.4byte	.LASF372
 6836 1b60 2D       		.byte	0x2d
 6837 1b61 8002     		.2byte	0x280
 6838 1b63 8C390000 		.4byte	.LASF373
 6839 1b67 2D010000 		.4byte	0x12d
 6840 1b6b 01       		.byte	0x1
 6841 1b6c 741B0000 		.4byte	0x1b74
 6842 1b70 7F1B0000 		.4byte	0x1b7f
 6843 1b74 28       		.uleb128 0x28
 6844 1b75 0C4E0000 		.4byte	0x4e0c
 6845 1b79 13       		.uleb128 0x13
 6846 1b7a 124E0000 		.4byte	0x4e12
 6847 1b7e 00       		.byte	0
 6848 1b7f 3D       		.uleb128 0x3d
 6849 1b80 03370000 		.4byte	.LASF374
 6850 1b84 2D       		.byte	0x2d
ARM GAS  /tmp/ccB5ynkg.s 			page 123


 6851 1b85 8A02     		.2byte	0x28a
 6852 1b87 A3200000 		.4byte	.LASF375
 6853 1b8b 37000000 		.4byte	0x37
 6854 1b8f 01       		.byte	0x1
 6855 1b90 981B0000 		.4byte	0x1b98
 6856 1b94 A31B0000 		.4byte	0x1ba3
 6857 1b98 28       		.uleb128 0x28
 6858 1b99 064E0000 		.4byte	0x4e06
 6859 1b9d 13       		.uleb128 0x13
 6860 1b9e E04D0000 		.4byte	0x4de0
 6861 1ba2 00       		.byte	0
 6862 1ba3 3D       		.uleb128 0x3d
 6863 1ba4 BD230000 		.4byte	.LASF376
 6864 1ba8 2D       		.byte	0x2d
 6865 1ba9 9B02     		.2byte	0x29b
 6866 1bab B93A0000 		.4byte	.LASF377
 6867 1baf 2D010000 		.4byte	0x12d
 6868 1bb3 01       		.byte	0x1
 6869 1bb4 BC1B0000 		.4byte	0x1bbc
 6870 1bb8 C71B0000 		.4byte	0x1bc7
 6871 1bbc 28       		.uleb128 0x28
 6872 1bbd 064E0000 		.4byte	0x4e06
 6873 1bc1 13       		.uleb128 0x13
 6874 1bc2 E04D0000 		.4byte	0x4de0
 6875 1bc6 00       		.byte	0
 6876 1bc7 3D       		.uleb128 0x3d
 6877 1bc8 CA390000 		.4byte	.LASF378
 6878 1bcc 2D       		.byte	0x2d
 6879 1bcd AC02     		.2byte	0x2ac
 6880 1bcf 014F0000 		.4byte	.LASF379
 6881 1bd3 184E0000 		.4byte	0x4e18
 6882 1bd7 01       		.byte	0x1
 6883 1bd8 E01B0000 		.4byte	0x1be0
 6884 1bdc EB1B0000 		.4byte	0x1beb
 6885 1be0 28       		.uleb128 0x28
 6886 1be1 064E0000 		.4byte	0x4e06
 6887 1be5 13       		.uleb128 0x13
 6888 1be6 A5180000 		.4byte	0x18a5
 6889 1bea 00       		.byte	0
 6890 1beb 3D       		.uleb128 0x3d
 6891 1bec CA390000 		.4byte	.LASF378
 6892 1bf0 2D       		.byte	0x2d
 6893 1bf1 BC02     		.2byte	0x2bc
 6894 1bf3 FE150000 		.4byte	.LASF380
 6895 1bf7 184E0000 		.4byte	0x4e18
 6896 1bfb 01       		.byte	0x1
 6897 1bfc 041C0000 		.4byte	0x1c04
 6898 1c00 141C0000 		.4byte	0x1c14
 6899 1c04 28       		.uleb128 0x28
 6900 1c05 064E0000 		.4byte	0x4e06
 6901 1c09 13       		.uleb128 0x13
 6902 1c0a B1180000 		.4byte	0x18b1
 6903 1c0e 13       		.uleb128 0x13
 6904 1c0f D9000000 		.4byte	0xd9
 6905 1c13 00       		.byte	0
 6906 1c14 3D       		.uleb128 0x3d
 6907 1c15 FA5E0000 		.4byte	.LASF381
ARM GAS  /tmp/ccB5ynkg.s 			page 124


 6908 1c19 2D       		.byte	0x2d
 6909 1c1a E001     		.2byte	0x1e0
 6910 1c1c C8280000 		.4byte	.LASF382
 6911 1c20 331C0000 		.4byte	0x1c33
 6912 1c24 01       		.byte	0x1
 6913 1c25 2D1C0000 		.4byte	0x1c2d
 6914 1c29 331C0000 		.4byte	0x1c33
 6915 1c2d 28       		.uleb128 0x28
 6916 1c2e 0C4E0000 		.4byte	0x4e0c
 6917 1c32 00       		.byte	0
 6918 1c33 07       		.uleb128 0x7
 6919 1c34 30170000 		.4byte	0x1730
 6920 1c38 3F       		.uleb128 0x3f
 6921 1c39 656E6400 		.ascii	"end\000"
 6922 1c3d 2D       		.byte	0x2d
 6923 1c3e E401     		.2byte	0x1e4
 6924 1c40 D8250000 		.4byte	.LASF386
 6925 1c44 331C0000 		.4byte	0x1c33
 6926 1c48 01       		.byte	0x1
 6927 1c49 511C0000 		.4byte	0x1c51
 6928 1c4d 571C0000 		.4byte	0x1c57
 6929 1c51 28       		.uleb128 0x28
 6930 1c52 0C4E0000 		.4byte	0x4e0c
 6931 1c56 00       		.byte	0
 6932 1c57 3E       		.uleb128 0x3e
 6933 1c58 E7110000 		.4byte	.LASF383
 6934 1c5c 2D       		.byte	0x2d
 6935 1c5d E801     		.2byte	0x1e8
 6936 1c5f 202F0000 		.4byte	.LASF384
 6937 1c63 01       		.byte	0x1
 6938 1c64 6C1C0000 		.4byte	0x1c6c
 6939 1c68 771C0000 		.4byte	0x1c77
 6940 1c6c 28       		.uleb128 0x28
 6941 1c6d 0C4E0000 		.4byte	0x4e0c
 6942 1c71 13       		.uleb128 0x13
 6943 1c72 2A4E0000 		.4byte	0x4e2a
 6944 1c76 00       		.byte	0
 6945 1c77 3D       		.uleb128 0x3d
 6946 1c78 FA5E0000 		.4byte	.LASF381
 6947 1c7c 2D       		.byte	0x2d
 6948 1c7d EC01     		.2byte	0x1ec
 6949 1c7f 52170000 		.4byte	.LASF385
 6950 1c83 961C0000 		.4byte	0x1c96
 6951 1c87 01       		.byte	0x1
 6952 1c88 901C0000 		.4byte	0x1c90
 6953 1c8c 961C0000 		.4byte	0x1c96
 6954 1c90 28       		.uleb128 0x28
 6955 1c91 064E0000 		.4byte	0x4e06
 6956 1c95 00       		.byte	0
 6957 1c96 07       		.uleb128 0x7
 6958 1c97 35170000 		.4byte	0x1735
 6959 1c9b 3F       		.uleb128 0x3f
 6960 1c9c 656E6400 		.ascii	"end\000"
 6961 1ca0 2D       		.byte	0x2d
 6962 1ca1 F201     		.2byte	0x1f2
 6963 1ca3 B65E0000 		.4byte	.LASF387
 6964 1ca7 961C0000 		.4byte	0x1c96
ARM GAS  /tmp/ccB5ynkg.s 			page 125


 6965 1cab 01       		.byte	0x1
 6966 1cac B41C0000 		.4byte	0x1cb4
 6967 1cb0 BA1C0000 		.4byte	0x1cba
 6968 1cb4 28       		.uleb128 0x28
 6969 1cb5 064E0000 		.4byte	0x4e06
 6970 1cb9 00       		.byte	0
 6971 1cba 3E       		.uleb128 0x3e
 6972 1cbb E7110000 		.4byte	.LASF383
 6973 1cbf 2D       		.byte	0x2d
 6974 1cc0 F601     		.2byte	0x1f6
 6975 1cc2 C72B0000 		.4byte	.LASF388
 6976 1cc6 01       		.byte	0x1
 6977 1cc7 CF1C0000 		.4byte	0x1ccf
 6978 1ccb DA1C0000 		.4byte	0x1cda
 6979 1ccf 28       		.uleb128 0x28
 6980 1cd0 064E0000 		.4byte	0x4e06
 6981 1cd4 13       		.uleb128 0x13
 6982 1cd5 304E0000 		.4byte	0x4e30
 6983 1cd9 00       		.byte	0
 6984 1cda 40       		.uleb128 0x40
 6985 1cdb 39100000 		.4byte	.LASF389
 6986 1cdf 2D       		.byte	0x2d
 6987 1ce0 FA01     		.2byte	0x1fa
 6988 1ce2 0C4E0000 		.4byte	0x4e0c
 6989 1ce6 01       		.byte	0x1
 6990 1ce7 EF1C0000 		.4byte	0x1cef
 6991 1ceb F51C0000 		.4byte	0x1cf5
 6992 1cef 28       		.uleb128 0x28
 6993 1cf0 0C4E0000 		.4byte	0x4e0c
 6994 1cf4 00       		.byte	0
 6995 1cf5 07       		.uleb128 0x7
 6996 1cf6 21170000 		.4byte	0x1721
 6997 1cfa 41       		.uleb128 0x41
 6998 1cfb 9D1A0000 		.4byte	.LASF390
 6999 1cff 091D0000 		.4byte	0x1d09
 7000 1d03 00       		.byte	0
 7001 1d04 07       		.uleb128 0x7
 7002 1d05 091D0000 		.4byte	0x1d09
 7003 1d09 42       		.uleb128 0x42
 7004 1d0a FA5C0000 		.4byte	.LASF904
 7005 1d0e 951D0000 		.4byte	0x1d95
 7006 1d12 43       		.uleb128 0x43
 7007 1d13 311D0000 		.4byte	.LASF391
 7008 1d17 0D       		.byte	0xd
 7009 1d18 40       		.byte	0x40
 7010 1d19 EB200000 		.4byte	.LASF393
 7011 1d1d 25000000 		.4byte	0x25
 7012 1d21 01       		.byte	0x1
 7013 1d22 02       		.uleb128 0x2
 7014 1d23 10       		.byte	0x10
 7015 1d24 00       		.uleb128 0
 7016 1d25 091D0000 		.4byte	0x1d09
 7017 1d29 01       		.byte	0x1
 7018 1d2a 321D0000 		.4byte	0x1d32
 7019 1d2e 381D0000 		.4byte	0x1d38
 7020 1d32 28       		.uleb128 0x28
 7021 1d33 20510000 		.4byte	0x5120
ARM GAS  /tmp/ccB5ynkg.s 			page 126


 7022 1d37 00       		.byte	0
 7023 1d38 43       		.uleb128 0x43
 7024 1d39 F9330000 		.4byte	.LASF392
 7025 1d3d 0D       		.byte	0xd
 7026 1d3e 47       		.byte	0x47
 7027 1d3f 6F050000 		.4byte	.LASF394
 7028 1d43 2D010000 		.4byte	0x12d
 7029 1d47 01       		.byte	0x1
 7030 1d48 02       		.uleb128 0x2
 7031 1d49 10       		.byte	0x10
 7032 1d4a 02       		.uleb128 0x2
 7033 1d4b 091D0000 		.4byte	0x1d09
 7034 1d4f 01       		.byte	0x1
 7035 1d50 581D0000 		.4byte	0x1d58
 7036 1d54 681D0000 		.4byte	0x1d68
 7037 1d58 28       		.uleb128 0x28
 7038 1d59 184E0000 		.4byte	0x4e18
 7039 1d5d 13       		.uleb128 0x13
 7040 1d5e E64F0000 		.4byte	0x4fe6
 7041 1d62 13       		.uleb128 0x13
 7042 1d63 B34D0000 		.4byte	0x4db3
 7043 1d67 00       		.byte	0
 7044 1d68 44       		.uleb128 0x44
 7045 1d69 D4230000 		.4byte	.LASF735
 7046 1d6d 0D       		.byte	0xd
 7047 1d6e 52       		.byte	0x52
 7048 1d6f 51280000 		.4byte	.LASF905
 7049 1d73 2D010000 		.4byte	0x12d
 7050 1d77 01       		.byte	0x1
 7051 1d78 02       		.uleb128 0x2
 7052 1d79 10       		.byte	0x10
 7053 1d7a 01       		.uleb128 0x1
 7054 1d7b 091D0000 		.4byte	0x1d09
 7055 1d7f 01       		.byte	0x1
 7056 1d80 841D0000 		.4byte	0x1d84
 7057 1d84 28       		.uleb128 0x28
 7058 1d85 184E0000 		.4byte	0x4e18
 7059 1d89 13       		.uleb128 0x13
 7060 1d8a 344F0000 		.4byte	0x4f34
 7061 1d8e 13       		.uleb128 0x13
 7062 1d8f BF4D0000 		.4byte	0x4dbf
 7063 1d93 00       		.byte	0
 7064 1d94 00       		.byte	0
 7065 1d95 07       		.uleb128 0x7
 7066 1d96 C2160000 		.4byte	0x16c2
 7067 1d9a 26       		.uleb128 0x26
 7068 1d9b EF4C0000 		.4byte	.LASF395
 7069 1d9f 04       		.byte	0x4
 7070 1da0 2D       		.byte	0x2d
 7071 1da1 0F       		.byte	0xf
 7072 1da2 67220000 		.4byte	0x2267
 7073 1da6 2B       		.uleb128 0x2b
 7074 1da7 65110000 		.4byte	0x1165
 7075 1dab 00       		.byte	0
 7076 1dac 36       		.uleb128 0x36
 7077 1dad FA540000 		.4byte	.LASF313
 7078 1db1 08       		.byte	0x8
ARM GAS  /tmp/ccB5ynkg.s 			page 127


 7079 1db2 2D       		.byte	0x2d
 7080 1db3 11       		.byte	0x11
 7081 1db4 01       		.byte	0x1
 7082 1db5 EC1D0000 		.4byte	0x1dec
 7083 1db9 0C       		.uleb128 0xc
 7084 1dba 522C0000 		.4byte	.LASF311
 7085 1dbe 2D       		.byte	0x2d
 7086 1dbf 12       		.byte	0x12
 7087 1dc0 364E0000 		.4byte	0x4e36
 7088 1dc4 00       		.byte	0
 7089 1dc5 0C       		.uleb128 0xc
 7090 1dc6 F2180000 		.4byte	.LASF312
 7091 1dca 2D       		.byte	0x2d
 7092 1dcb 13       		.byte	0x13
 7093 1dcc CD500000 		.4byte	0x50cd
 7094 1dd0 04       		.byte	0x4
 7095 1dd1 37       		.uleb128 0x37
 7096 1dd2 FA540000 		.4byte	.LASF313
 7097 1dd6 2D       		.byte	0x2d
 7098 1dd7 15       		.byte	0x15
 7099 1dd8 364E0000 		.4byte	0x4e36
 7100 1ddc E01D0000 		.4byte	0x1de0
 7101 1de0 28       		.uleb128 0x28
 7102 1de1 364E0000 		.4byte	0x4e36
 7103 1de5 13       		.uleb128 0x13
 7104 1de6 524F0000 		.4byte	0x4f52
 7105 1dea 00       		.byte	0
 7106 1deb 00       		.byte	0
 7107 1dec 19       		.uleb128 0x19
 7108 1ded 1F130000 		.4byte	.LASF314
 7109 1df1 2D       		.byte	0x2d
 7110 1df2 8A01     		.2byte	0x18a
 7111 1df4 364E0000 		.4byte	0x4e36
 7112 1df8 00       		.byte	0
 7113 1df9 39       		.uleb128 0x39
 7114 1dfa 641E0000 		.4byte	.LASF315
 7115 1dfe 39       		.uleb128 0x39
 7116 1dff 9C2D0000 		.4byte	.LASF316
 7117 1e03 39       		.uleb128 0x39
 7118 1e04 3A4E0000 		.4byte	.LASF317
 7119 1e08 39       		.uleb128 0x39
 7120 1e09 023B0000 		.4byte	.LASF319
 7121 1e0d 1D       		.uleb128 0x1d
 7122 1e0e F8180000 		.4byte	.LASF334
 7123 1e12 2D       		.byte	0x2d
 7124 1e13 8601     		.2byte	0x186
 7125 1e15 3C4E0000 		.4byte	0x4e3c
 7126 1e19 1D       		.uleb128 0x1d
 7127 1e1a 4D120000 		.4byte	.LASF335
 7128 1e1e 2D       		.byte	0x2d
 7129 1e1f 8701     		.2byte	0x187
 7130 1e21 574E0000 		.4byte	0x4e57
 7131 1e25 3D       		.uleb128 0x3d
 7132 1e26 7A5F0000 		.4byte	.LASF336
 7133 1e2a 2D       		.byte	0x2d
 7134 1e2b 8D01     		.2byte	0x18d
 7135 1e2d 191E0000 		.4byte	.LASF396
ARM GAS  /tmp/ccB5ynkg.s 			page 128


 7136 1e31 714E0000 		.4byte	0x4e71
 7137 1e35 01       		.byte	0x1
 7138 1e36 3E1E0000 		.4byte	0x1e3e
 7139 1e3a 441E0000 		.4byte	0x1e44
 7140 1e3e 28       		.uleb128 0x28
 7141 1e3f 774E0000 		.4byte	0x4e77
 7142 1e43 00       		.byte	0
 7143 1e44 07       		.uleb128 0x7
 7144 1e45 AC1D0000 		.4byte	0x1dac
 7145 1e49 3D       		.uleb128 0x3d
 7146 1e4a 805A0000 		.4byte	.LASF337
 7147 1e4e 2D       		.byte	0x2d
 7148 1e4f 9101     		.2byte	0x191
 7149 1e51 FA380000 		.4byte	.LASF397
 7150 1e55 2D010000 		.4byte	0x12d
 7151 1e59 01       		.byte	0x1
 7152 1e5a 621E0000 		.4byte	0x1e62
 7153 1e5e 681E0000 		.4byte	0x1e68
 7154 1e62 28       		.uleb128 0x28
 7155 1e63 774E0000 		.4byte	0x4e77
 7156 1e67 00       		.byte	0
 7157 1e68 3D       		.uleb128 0x3d
 7158 1e69 A11D0000 		.4byte	.LASF340
 7159 1e6d 2D       		.byte	0x2d
 7160 1e6e 0302     		.2byte	0x203
 7161 1e70 67440000 		.4byte	.LASF398
 7162 1e74 25000000 		.4byte	0x25
 7163 1e78 01       		.byte	0x1
 7164 1e79 811E0000 		.4byte	0x1e81
 7165 1e7d 871E0000 		.4byte	0x1e87
 7166 1e81 28       		.uleb128 0x28
 7167 1e82 774E0000 		.4byte	0x4e77
 7168 1e86 00       		.byte	0
 7169 1e87 3E       		.uleb128 0x3e
 7170 1e88 DD440000 		.4byte	.LASF342
 7171 1e8c 2D       		.byte	0x2d
 7172 1e8d 9701     		.2byte	0x197
 7173 1e8f 17560000 		.4byte	.LASF399
 7174 1e93 01       		.byte	0x1
 7175 1e94 9C1E0000 		.4byte	0x1e9c
 7176 1e98 A71E0000 		.4byte	0x1ea7
 7177 1e9c 28       		.uleb128 0x28
 7178 1e9d 7D4E0000 		.4byte	0x4e7d
 7179 1ea1 13       		.uleb128 0x13
 7180 1ea2 834E0000 		.4byte	0x4e83
 7181 1ea6 00       		.byte	0
 7182 1ea7 3E       		.uleb128 0x3e
 7183 1ea8 594D0000 		.4byte	.LASF343
 7184 1eac 2D       		.byte	0x2d
 7185 1ead 9F01     		.2byte	0x19f
 7186 1eaf C5080000 		.4byte	.LASF400
 7187 1eb3 01       		.byte	0x1
 7188 1eb4 BC1E0000 		.4byte	0x1ebc
 7189 1eb8 C71E0000 		.4byte	0x1ec7
 7190 1ebc 28       		.uleb128 0x28
 7191 1ebd 7D4E0000 		.4byte	0x4e7d
 7192 1ec1 13       		.uleb128 0x13
ARM GAS  /tmp/ccB5ynkg.s 			page 129


 7193 1ec2 834E0000 		.4byte	0x4e83
 7194 1ec6 00       		.byte	0
 7195 1ec7 3D       		.uleb128 0x3d
 7196 1ec8 7D270000 		.4byte	.LASF346
 7197 1ecc 2D       		.byte	0x2d
 7198 1ecd 0E02     		.2byte	0x20e
 7199 1ecf 502A0000 		.4byte	.LASF401
 7200 1ed3 2D010000 		.4byte	0x12d
 7201 1ed7 01       		.byte	0x1
 7202 1ed8 E01E0000 		.4byte	0x1ee0
 7203 1edc EB1E0000 		.4byte	0x1eeb
 7204 1ee0 28       		.uleb128 0x28
 7205 1ee1 7D4E0000 		.4byte	0x4e7d
 7206 1ee5 13       		.uleb128 0x13
 7207 1ee6 834E0000 		.4byte	0x4e83
 7208 1eea 00       		.byte	0
 7209 1eeb 3D       		.uleb128 0x3d
 7210 1eec BA340000 		.4byte	.LASF348
 7211 1ef0 2D       		.byte	0x2d
 7212 1ef1 1F02     		.2byte	0x21f
 7213 1ef3 7F330000 		.4byte	.LASF402
 7214 1ef7 37000000 		.4byte	0x37
 7215 1efb 01       		.byte	0x1
 7216 1efc 041F0000 		.4byte	0x1f04
 7217 1f00 0F1F0000 		.4byte	0x1f0f
 7218 1f04 28       		.uleb128 0x28
 7219 1f05 774E0000 		.4byte	0x4e77
 7220 1f09 13       		.uleb128 0x13
 7221 1f0a 514E0000 		.4byte	0x4e51
 7222 1f0e 00       		.byte	0
 7223 1f0f 3D       		.uleb128 0x3d
 7224 1f10 A44A0000 		.4byte	.LASF350
 7225 1f14 2D       		.byte	0x2d
 7226 1f15 2C02     		.2byte	0x22c
 7227 1f17 21370000 		.4byte	.LASF403
 7228 1f1b 2D010000 		.4byte	0x12d
 7229 1f1f 01       		.byte	0x1
 7230 1f20 281F0000 		.4byte	0x1f28
 7231 1f24 331F0000 		.4byte	0x1f33
 7232 1f28 28       		.uleb128 0x28
 7233 1f29 774E0000 		.4byte	0x4e77
 7234 1f2d 13       		.uleb128 0x13
 7235 1f2e 514E0000 		.4byte	0x4e51
 7236 1f32 00       		.byte	0
 7237 1f33 3D       		.uleb128 0x3d
 7238 1f34 E8310000 		.4byte	.LASF352
 7239 1f38 2D       		.byte	0x2d
 7240 1f39 3802     		.2byte	0x238
 7241 1f3b 27060000 		.4byte	.LASF404
 7242 1f3f 894E0000 		.4byte	0x4e89
 7243 1f43 01       		.byte	0x1
 7244 1f44 4C1F0000 		.4byte	0x1f4c
 7245 1f48 571F0000 		.4byte	0x1f57
 7246 1f4c 28       		.uleb128 0x28
 7247 1f4d 774E0000 		.4byte	0x4e77
 7248 1f51 13       		.uleb128 0x13
 7249 1f52 0D1E0000 		.4byte	0x1e0d
ARM GAS  /tmp/ccB5ynkg.s 			page 130


 7250 1f56 00       		.byte	0
 7251 1f57 3D       		.uleb128 0x3d
 7252 1f58 E8310000 		.4byte	.LASF352
 7253 1f5c 2D       		.byte	0x2d
 7254 1f5d 4402     		.2byte	0x244
 7255 1f5f F8440000 		.4byte	.LASF405
 7256 1f63 894E0000 		.4byte	0x4e89
 7257 1f67 01       		.byte	0x1
 7258 1f68 701F0000 		.4byte	0x1f70
 7259 1f6c 801F0000 		.4byte	0x1f80
 7260 1f70 28       		.uleb128 0x28
 7261 1f71 774E0000 		.4byte	0x4e77
 7262 1f75 13       		.uleb128 0x13
 7263 1f76 191E0000 		.4byte	0x1e19
 7264 1f7a 13       		.uleb128 0x13
 7265 1f7b D9000000 		.4byte	0xd9
 7266 1f7f 00       		.byte	0
 7267 1f80 3D       		.uleb128 0x3d
 7268 1f81 E20F0000 		.4byte	.LASF355
 7269 1f85 2D       		.byte	0x2d
 7270 1f86 B301     		.2byte	0x1b3
 7271 1f88 27500000 		.4byte	.LASF406
 7272 1f8c 9F1F0000 		.4byte	0x1f9f
 7273 1f90 01       		.byte	0x1
 7274 1f91 991F0000 		.4byte	0x1f99
 7275 1f95 9F1F0000 		.4byte	0x1f9f
 7276 1f99 28       		.uleb128 0x28
 7277 1f9a 7D4E0000 		.4byte	0x4e7d
 7278 1f9e 00       		.byte	0
 7279 1f9f 07       		.uleb128 0x7
 7280 1fa0 F91D0000 		.4byte	0x1df9
 7281 1fa4 3D       		.uleb128 0x3d
 7282 1fa5 152F0000 		.4byte	.LASF357
 7283 1fa9 2D       		.byte	0x2d
 7284 1faa B701     		.2byte	0x1b7
 7285 1fac E3070000 		.4byte	.LASF407
 7286 1fb0 9F1F0000 		.4byte	0x1f9f
 7287 1fb4 01       		.byte	0x1
 7288 1fb5 BD1F0000 		.4byte	0x1fbd
 7289 1fb9 C31F0000 		.4byte	0x1fc3
 7290 1fbd 28       		.uleb128 0x28
 7291 1fbe 7D4E0000 		.4byte	0x4e7d
 7292 1fc2 00       		.byte	0
 7293 1fc3 3E       		.uleb128 0x3e
 7294 1fc4 E05F0000 		.4byte	.LASF359
 7295 1fc8 2D       		.byte	0x2d
 7296 1fc9 BB01     		.2byte	0x1bb
 7297 1fcb 51300000 		.4byte	.LASF408
 7298 1fcf 01       		.byte	0x1
 7299 1fd0 D81F0000 		.4byte	0x1fd8
 7300 1fd4 E31F0000 		.4byte	0x1fe3
 7301 1fd8 28       		.uleb128 0x28
 7302 1fd9 7D4E0000 		.4byte	0x4e7d
 7303 1fdd 13       		.uleb128 0x13
 7304 1fde 8F4E0000 		.4byte	0x4e8f
 7305 1fe2 00       		.byte	0
 7306 1fe3 3D       		.uleb128 0x3d
ARM GAS  /tmp/ccB5ynkg.s 			page 131


 7307 1fe4 E20F0000 		.4byte	.LASF355
 7308 1fe8 2D       		.byte	0x2d
 7309 1fe9 BF01     		.2byte	0x1bf
 7310 1feb 88080000 		.4byte	.LASF409
 7311 1fef 02200000 		.4byte	0x2002
 7312 1ff3 01       		.byte	0x1
 7313 1ff4 FC1F0000 		.4byte	0x1ffc
 7314 1ff8 02200000 		.4byte	0x2002
 7315 1ffc 28       		.uleb128 0x28
 7316 1ffd 774E0000 		.4byte	0x4e77
 7317 2001 00       		.byte	0
 7318 2002 07       		.uleb128 0x7
 7319 2003 FE1D0000 		.4byte	0x1dfe
 7320 2007 3D       		.uleb128 0x3d
 7321 2008 152F0000 		.4byte	.LASF357
 7322 200c 2D       		.byte	0x2d
 7323 200d C301     		.2byte	0x1c3
 7324 200f 661D0000 		.4byte	.LASF410
 7325 2013 02200000 		.4byte	0x2002
 7326 2017 01       		.byte	0x1
 7327 2018 20200000 		.4byte	0x2020
 7328 201c 26200000 		.4byte	0x2026
 7329 2020 28       		.uleb128 0x28
 7330 2021 774E0000 		.4byte	0x4e77
 7331 2025 00       		.byte	0
 7332 2026 3E       		.uleb128 0x3e
 7333 2027 E05F0000 		.4byte	.LASF359
 7334 202b 2D       		.byte	0x2d
 7335 202c C701     		.2byte	0x1c7
 7336 202e FE450000 		.4byte	.LASF411
 7337 2032 01       		.byte	0x1
 7338 2033 3B200000 		.4byte	0x203b
 7339 2037 46200000 		.4byte	0x2046
 7340 203b 28       		.uleb128 0x28
 7341 203c 774E0000 		.4byte	0x4e77
 7342 2040 13       		.uleb128 0x13
 7343 2041 954E0000 		.4byte	0x4e95
 7344 2045 00       		.byte	0
 7345 2046 3D       		.uleb128 0x3d
 7346 2047 68550000 		.4byte	.LASF364
 7347 204b 2D       		.byte	0x2d
 7348 204c 5302     		.2byte	0x253
 7349 204e DF220000 		.4byte	.LASF412
 7350 2052 714E0000 		.4byte	0x4e71
 7351 2056 01       		.byte	0x1
 7352 2057 5F200000 		.4byte	0x205f
 7353 205b 65200000 		.4byte	0x2065
 7354 205f 28       		.uleb128 0x28
 7355 2060 774E0000 		.4byte	0x4e77
 7356 2064 00       		.byte	0
 7357 2065 3D       		.uleb128 0x3d
 7358 2066 6A580000 		.4byte	.LASF366
 7359 206a 2D       		.byte	0x2d
 7360 206b 5D02     		.2byte	0x25d
 7361 206d 3C430000 		.4byte	.LASF413
 7362 2071 2D010000 		.4byte	0x12d
 7363 2075 01       		.byte	0x1
ARM GAS  /tmp/ccB5ynkg.s 			page 132


 7364 2076 7E200000 		.4byte	0x207e
 7365 207a 84200000 		.4byte	0x2084
 7366 207e 28       		.uleb128 0x28
 7367 207f 774E0000 		.4byte	0x4e77
 7368 2083 00       		.byte	0
 7369 2084 3D       		.uleb128 0x3d
 7370 2085 59320000 		.4byte	.LASF368
 7371 2089 2D       		.byte	0x2d
 7372 208a 6702     		.2byte	0x267
 7373 208c 7F4F0000 		.4byte	.LASF414
 7374 2090 25000000 		.4byte	0x25
 7375 2094 01       		.byte	0x1
 7376 2095 9D200000 		.4byte	0x209d
 7377 2099 A3200000 		.4byte	0x20a3
 7378 209d 28       		.uleb128 0x28
 7379 209e 774E0000 		.4byte	0x4e77
 7380 20a2 00       		.byte	0
 7381 20a3 3E       		.uleb128 0x3e
 7382 20a4 AE1D0000 		.4byte	.LASF370
 7383 20a8 2D       		.byte	0x2d
 7384 20a9 7602     		.2byte	0x276
 7385 20ab A9530000 		.4byte	.LASF415
 7386 20af 01       		.byte	0x1
 7387 20b0 B8200000 		.4byte	0x20b8
 7388 20b4 C3200000 		.4byte	0x20c3
 7389 20b8 28       		.uleb128 0x28
 7390 20b9 7D4E0000 		.4byte	0x4e7d
 7391 20bd 13       		.uleb128 0x13
 7392 20be 834E0000 		.4byte	0x4e83
 7393 20c2 00       		.byte	0
 7394 20c3 3D       		.uleb128 0x3d
 7395 20c4 84130000 		.4byte	.LASF372
 7396 20c8 2D       		.byte	0x2d
 7397 20c9 8002     		.2byte	0x280
 7398 20cb 3E270000 		.4byte	.LASF416
 7399 20cf 2D010000 		.4byte	0x12d
 7400 20d3 01       		.byte	0x1
 7401 20d4 DC200000 		.4byte	0x20dc
 7402 20d8 E7200000 		.4byte	0x20e7
 7403 20dc 28       		.uleb128 0x28
 7404 20dd 7D4E0000 		.4byte	0x4e7d
 7405 20e1 13       		.uleb128 0x13
 7406 20e2 834E0000 		.4byte	0x4e83
 7407 20e6 00       		.byte	0
 7408 20e7 3D       		.uleb128 0x3d
 7409 20e8 03370000 		.4byte	.LASF374
 7410 20ec 2D       		.byte	0x2d
 7411 20ed 8A02     		.2byte	0x28a
 7412 20ef B44F0000 		.4byte	.LASF417
 7413 20f3 37000000 		.4byte	0x37
 7414 20f7 01       		.byte	0x1
 7415 20f8 00210000 		.4byte	0x2100
 7416 20fc 0B210000 		.4byte	0x210b
 7417 2100 28       		.uleb128 0x28
 7418 2101 774E0000 		.4byte	0x4e77
 7419 2105 13       		.uleb128 0x13
 7420 2106 514E0000 		.4byte	0x4e51
ARM GAS  /tmp/ccB5ynkg.s 			page 133


 7421 210a 00       		.byte	0
 7422 210b 3D       		.uleb128 0x3d
 7423 210c BD230000 		.4byte	.LASF376
 7424 2110 2D       		.byte	0x2d
 7425 2111 9B02     		.2byte	0x29b
 7426 2113 2E580000 		.4byte	.LASF418
 7427 2117 2D010000 		.4byte	0x12d
 7428 211b 01       		.byte	0x1
 7429 211c 24210000 		.4byte	0x2124
 7430 2120 2F210000 		.4byte	0x212f
 7431 2124 28       		.uleb128 0x28
 7432 2125 774E0000 		.4byte	0x4e77
 7433 2129 13       		.uleb128 0x13
 7434 212a 514E0000 		.4byte	0x4e51
 7435 212e 00       		.byte	0
 7436 212f 3D       		.uleb128 0x3d
 7437 2130 CA390000 		.4byte	.LASF378
 7438 2134 2D       		.byte	0x2d
 7439 2135 AC02     		.2byte	0x2ac
 7440 2137 B7540000 		.4byte	.LASF419
 7441 213b 894E0000 		.4byte	0x4e89
 7442 213f 01       		.byte	0x1
 7443 2140 48210000 		.4byte	0x2148
 7444 2144 53210000 		.4byte	0x2153
 7445 2148 28       		.uleb128 0x28
 7446 2149 774E0000 		.4byte	0x4e77
 7447 214d 13       		.uleb128 0x13
 7448 214e 0D1E0000 		.4byte	0x1e0d
 7449 2152 00       		.byte	0
 7450 2153 3D       		.uleb128 0x3d
 7451 2154 CA390000 		.4byte	.LASF378
 7452 2158 2D       		.byte	0x2d
 7453 2159 BC02     		.2byte	0x2bc
 7454 215b BD470000 		.4byte	.LASF420
 7455 215f 894E0000 		.4byte	0x4e89
 7456 2163 01       		.byte	0x1
 7457 2164 6C210000 		.4byte	0x216c
 7458 2168 7C210000 		.4byte	0x217c
 7459 216c 28       		.uleb128 0x28
 7460 216d 774E0000 		.4byte	0x4e77
 7461 2171 13       		.uleb128 0x13
 7462 2172 191E0000 		.4byte	0x1e19
 7463 2176 13       		.uleb128 0x13
 7464 2177 D9000000 		.4byte	0xd9
 7465 217b 00       		.byte	0
 7466 217c 3D       		.uleb128 0x3d
 7467 217d FA5E0000 		.4byte	.LASF381
 7468 2181 2D       		.byte	0x2d
 7469 2182 E001     		.2byte	0x1e0
 7470 2184 E0140000 		.4byte	.LASF421
 7471 2188 9B210000 		.4byte	0x219b
 7472 218c 01       		.byte	0x1
 7473 218d 95210000 		.4byte	0x2195
 7474 2191 9B210000 		.4byte	0x219b
 7475 2195 28       		.uleb128 0x28
 7476 2196 7D4E0000 		.4byte	0x4e7d
 7477 219a 00       		.byte	0
ARM GAS  /tmp/ccB5ynkg.s 			page 134


 7478 219b 07       		.uleb128 0x7
 7479 219c 031E0000 		.4byte	0x1e03
 7480 21a0 3F       		.uleb128 0x3f
 7481 21a1 656E6400 		.ascii	"end\000"
 7482 21a5 2D       		.byte	0x2d
 7483 21a6 E401     		.2byte	0x1e4
 7484 21a8 3B150000 		.4byte	.LASF422
 7485 21ac 9B210000 		.4byte	0x219b
 7486 21b0 01       		.byte	0x1
 7487 21b1 B9210000 		.4byte	0x21b9
 7488 21b5 BF210000 		.4byte	0x21bf
 7489 21b9 28       		.uleb128 0x28
 7490 21ba 7D4E0000 		.4byte	0x4e7d
 7491 21be 00       		.byte	0
 7492 21bf 3E       		.uleb128 0x3e
 7493 21c0 E7110000 		.4byte	.LASF383
 7494 21c4 2D       		.byte	0x2d
 7495 21c5 E801     		.2byte	0x1e8
 7496 21c7 86170000 		.4byte	.LASF423
 7497 21cb 01       		.byte	0x1
 7498 21cc D4210000 		.4byte	0x21d4
 7499 21d0 DF210000 		.4byte	0x21df
 7500 21d4 28       		.uleb128 0x28
 7501 21d5 7D4E0000 		.4byte	0x4e7d
 7502 21d9 13       		.uleb128 0x13
 7503 21da 9B4E0000 		.4byte	0x4e9b
 7504 21de 00       		.byte	0
 7505 21df 3D       		.uleb128 0x3d
 7506 21e0 FA5E0000 		.4byte	.LASF381
 7507 21e4 2D       		.byte	0x2d
 7508 21e5 EC01     		.2byte	0x1ec
 7509 21e7 8F3C0000 		.4byte	.LASF424
 7510 21eb FE210000 		.4byte	0x21fe
 7511 21ef 01       		.byte	0x1
 7512 21f0 F8210000 		.4byte	0x21f8
 7513 21f4 FE210000 		.4byte	0x21fe
 7514 21f8 28       		.uleb128 0x28
 7515 21f9 774E0000 		.4byte	0x4e77
 7516 21fd 00       		.byte	0
 7517 21fe 07       		.uleb128 0x7
 7518 21ff 081E0000 		.4byte	0x1e08
 7519 2203 3F       		.uleb128 0x3f
 7520 2204 656E6400 		.ascii	"end\000"
 7521 2208 2D       		.byte	0x2d
 7522 2209 F201     		.2byte	0x1f2
 7523 220b D3350000 		.4byte	.LASF425
 7524 220f FE210000 		.4byte	0x21fe
 7525 2213 01       		.byte	0x1
 7526 2214 1C220000 		.4byte	0x221c
 7527 2218 22220000 		.4byte	0x2222
 7528 221c 28       		.uleb128 0x28
 7529 221d 774E0000 		.4byte	0x4e77
 7530 2221 00       		.byte	0
 7531 2222 3E       		.uleb128 0x3e
 7532 2223 E7110000 		.4byte	.LASF383
 7533 2227 2D       		.byte	0x2d
 7534 2228 F601     		.2byte	0x1f6
ARM GAS  /tmp/ccB5ynkg.s 			page 135


 7535 222a 4F2E0000 		.4byte	.LASF426
 7536 222e 01       		.byte	0x1
 7537 222f 37220000 		.4byte	0x2237
 7538 2233 42220000 		.4byte	0x2242
 7539 2237 28       		.uleb128 0x28
 7540 2238 774E0000 		.4byte	0x4e77
 7541 223c 13       		.uleb128 0x13
 7542 223d A14E0000 		.4byte	0x4ea1
 7543 2241 00       		.byte	0
 7544 2242 40       		.uleb128 0x40
 7545 2243 39100000 		.4byte	.LASF389
 7546 2247 2D       		.byte	0x2d
 7547 2248 FA01     		.2byte	0x1fa
 7548 224a 7D4E0000 		.4byte	0x4e7d
 7549 224e 01       		.byte	0x1
 7550 224f 57220000 		.4byte	0x2257
 7551 2253 5D220000 		.4byte	0x225d
 7552 2257 28       		.uleb128 0x28
 7553 2258 7D4E0000 		.4byte	0x4e7d
 7554 225c 00       		.byte	0
 7555 225d 41       		.uleb128 0x41
 7556 225e 9D1A0000 		.4byte	.LASF390
 7557 2262 6C220000 		.4byte	0x226c
 7558 2266 00       		.byte	0
 7559 2267 07       		.uleb128 0x7
 7560 2268 6C220000 		.4byte	0x226c
 7561 226c 39       		.uleb128 0x39
 7562 226d 114D0000 		.4byte	.LASF427
 7563 2271 07       		.uleb128 0x7
 7564 2272 9A1D0000 		.4byte	0x1d9a
 7565 2276 26       		.uleb128 0x26
 7566 2277 EA4E0000 		.4byte	.LASF428
 7567 227b 04       		.byte	0x4
 7568 227c 2D       		.byte	0x2d
 7569 227d 0F       		.byte	0xf
 7570 227e 43270000 		.4byte	0x2743
 7571 2282 2B       		.uleb128 0x2b
 7572 2283 65110000 		.4byte	0x1165
 7573 2287 00       		.byte	0
 7574 2288 36       		.uleb128 0x36
 7575 2289 FA540000 		.4byte	.LASF313
 7576 228d 08       		.byte	0x8
 7577 228e 2D       		.byte	0x2d
 7578 228f 11       		.byte	0x11
 7579 2290 01       		.byte	0x1
 7580 2291 C8220000 		.4byte	0x22c8
 7581 2295 0C       		.uleb128 0xc
 7582 2296 522C0000 		.4byte	.LASF311
 7583 229a 2D       		.byte	0x2d
 7584 229b 12       		.byte	0x12
 7585 229c A74E0000 		.4byte	0x4ea7
 7586 22a0 00       		.byte	0
 7587 22a1 0C       		.uleb128 0xc
 7588 22a2 F2180000 		.4byte	.LASF312
 7589 22a6 2D       		.byte	0x2d
 7590 22a7 13       		.byte	0x13
 7591 22a8 184F0000 		.4byte	0x4f18
ARM GAS  /tmp/ccB5ynkg.s 			page 136


 7592 22ac 04       		.byte	0x4
 7593 22ad 37       		.uleb128 0x37
 7594 22ae FA540000 		.4byte	.LASF313
 7595 22b2 2D       		.byte	0x2d
 7596 22b3 15       		.byte	0x15
 7597 22b4 A74E0000 		.4byte	0x4ea7
 7598 22b8 BC220000 		.4byte	0x22bc
 7599 22bc 28       		.uleb128 0x28
 7600 22bd A74E0000 		.4byte	0x4ea7
 7601 22c1 13       		.uleb128 0x13
 7602 22c2 1D4F0000 		.4byte	0x4f1d
 7603 22c6 00       		.byte	0
 7604 22c7 00       		.byte	0
 7605 22c8 19       		.uleb128 0x19
 7606 22c9 1F130000 		.4byte	.LASF314
 7607 22cd 2D       		.byte	0x2d
 7608 22ce 8A01     		.2byte	0x18a
 7609 22d0 A74E0000 		.4byte	0x4ea7
 7610 22d4 00       		.byte	0
 7611 22d5 39       		.uleb128 0x39
 7612 22d6 641E0000 		.4byte	.LASF315
 7613 22da 39       		.uleb128 0x39
 7614 22db 9C2D0000 		.4byte	.LASF316
 7615 22df 39       		.uleb128 0x39
 7616 22e0 3A4E0000 		.4byte	.LASF317
 7617 22e4 39       		.uleb128 0x39
 7618 22e5 023B0000 		.4byte	.LASF319
 7619 22e9 1D       		.uleb128 0x1d
 7620 22ea F8180000 		.4byte	.LASF334
 7621 22ee 2D       		.byte	0x2d
 7622 22ef 8601     		.2byte	0x186
 7623 22f1 AD4E0000 		.4byte	0x4ead
 7624 22f5 1D       		.uleb128 0x1d
 7625 22f6 4D120000 		.4byte	.LASF335
 7626 22fa 2D       		.byte	0x2d
 7627 22fb 8701     		.2byte	0x187
 7628 22fd C84E0000 		.4byte	0x4ec8
 7629 2301 3D       		.uleb128 0x3d
 7630 2302 7A5F0000 		.4byte	.LASF336
 7631 2306 2D       		.byte	0x2d
 7632 2307 8D01     		.2byte	0x18d
 7633 2309 6D310000 		.4byte	.LASF429
 7634 230d E24E0000 		.4byte	0x4ee2
 7635 2311 01       		.byte	0x1
 7636 2312 1A230000 		.4byte	0x231a
 7637 2316 20230000 		.4byte	0x2320
 7638 231a 28       		.uleb128 0x28
 7639 231b E84E0000 		.4byte	0x4ee8
 7640 231f 00       		.byte	0
 7641 2320 07       		.uleb128 0x7
 7642 2321 88220000 		.4byte	0x2288
 7643 2325 3D       		.uleb128 0x3d
 7644 2326 805A0000 		.4byte	.LASF337
 7645 232a 2D       		.byte	0x2d
 7646 232b 9101     		.2byte	0x191
 7647 232d D12C0000 		.4byte	.LASF430
 7648 2331 2D010000 		.4byte	0x12d
ARM GAS  /tmp/ccB5ynkg.s 			page 137


 7649 2335 01       		.byte	0x1
 7650 2336 3E230000 		.4byte	0x233e
 7651 233a 44230000 		.4byte	0x2344
 7652 233e 28       		.uleb128 0x28
 7653 233f E84E0000 		.4byte	0x4ee8
 7654 2343 00       		.byte	0
 7655 2344 3D       		.uleb128 0x3d
 7656 2345 A11D0000 		.4byte	.LASF340
 7657 2349 2D       		.byte	0x2d
 7658 234a 0302     		.2byte	0x203
 7659 234c 52110000 		.4byte	.LASF431
 7660 2350 25000000 		.4byte	0x25
 7661 2354 01       		.byte	0x1
 7662 2355 5D230000 		.4byte	0x235d
 7663 2359 63230000 		.4byte	0x2363
 7664 235d 28       		.uleb128 0x28
 7665 235e E84E0000 		.4byte	0x4ee8
 7666 2362 00       		.byte	0
 7667 2363 3E       		.uleb128 0x3e
 7668 2364 DD440000 		.4byte	.LASF342
 7669 2368 2D       		.byte	0x2d
 7670 2369 9701     		.2byte	0x197
 7671 236b 174A0000 		.4byte	.LASF432
 7672 236f 01       		.byte	0x1
 7673 2370 78230000 		.4byte	0x2378
 7674 2374 83230000 		.4byte	0x2383
 7675 2378 28       		.uleb128 0x28
 7676 2379 EE4E0000 		.4byte	0x4eee
 7677 237d 13       		.uleb128 0x13
 7678 237e F44E0000 		.4byte	0x4ef4
 7679 2382 00       		.byte	0
 7680 2383 3E       		.uleb128 0x3e
 7681 2384 594D0000 		.4byte	.LASF343
 7682 2388 2D       		.byte	0x2d
 7683 2389 9F01     		.2byte	0x19f
 7684 238b DD290000 		.4byte	.LASF433
 7685 238f 01       		.byte	0x1
 7686 2390 98230000 		.4byte	0x2398
 7687 2394 A3230000 		.4byte	0x23a3
 7688 2398 28       		.uleb128 0x28
 7689 2399 EE4E0000 		.4byte	0x4eee
 7690 239d 13       		.uleb128 0x13
 7691 239e F44E0000 		.4byte	0x4ef4
 7692 23a2 00       		.byte	0
 7693 23a3 3D       		.uleb128 0x3d
 7694 23a4 7D270000 		.4byte	.LASF346
 7695 23a8 2D       		.byte	0x2d
 7696 23a9 0E02     		.2byte	0x20e
 7697 23ab BE1F0000 		.4byte	.LASF434
 7698 23af 2D010000 		.4byte	0x12d
 7699 23b3 01       		.byte	0x1
 7700 23b4 BC230000 		.4byte	0x23bc
 7701 23b8 C7230000 		.4byte	0x23c7
 7702 23bc 28       		.uleb128 0x28
 7703 23bd EE4E0000 		.4byte	0x4eee
 7704 23c1 13       		.uleb128 0x13
 7705 23c2 F44E0000 		.4byte	0x4ef4
ARM GAS  /tmp/ccB5ynkg.s 			page 138


 7706 23c6 00       		.byte	0
 7707 23c7 3D       		.uleb128 0x3d
 7708 23c8 BA340000 		.4byte	.LASF348
 7709 23cc 2D       		.byte	0x2d
 7710 23cd 1F02     		.2byte	0x21f
 7711 23cf 854D0000 		.4byte	.LASF435
 7712 23d3 37000000 		.4byte	0x37
 7713 23d7 01       		.byte	0x1
 7714 23d8 E0230000 		.4byte	0x23e0
 7715 23dc EB230000 		.4byte	0x23eb
 7716 23e0 28       		.uleb128 0x28
 7717 23e1 E84E0000 		.4byte	0x4ee8
 7718 23e5 13       		.uleb128 0x13
 7719 23e6 C24E0000 		.4byte	0x4ec2
 7720 23ea 00       		.byte	0
 7721 23eb 3D       		.uleb128 0x3d
 7722 23ec A44A0000 		.4byte	.LASF350
 7723 23f0 2D       		.byte	0x2d
 7724 23f1 2C02     		.2byte	0x22c
 7725 23f3 7A500000 		.4byte	.LASF436
 7726 23f7 2D010000 		.4byte	0x12d
 7727 23fb 01       		.byte	0x1
 7728 23fc 04240000 		.4byte	0x2404
 7729 2400 0F240000 		.4byte	0x240f
 7730 2404 28       		.uleb128 0x28
 7731 2405 E84E0000 		.4byte	0x4ee8
 7732 2409 13       		.uleb128 0x13
 7733 240a C24E0000 		.4byte	0x4ec2
 7734 240e 00       		.byte	0
 7735 240f 3D       		.uleb128 0x3d
 7736 2410 E8310000 		.4byte	.LASF352
 7737 2414 2D       		.byte	0x2d
 7738 2415 3802     		.2byte	0x238
 7739 2417 56340000 		.4byte	.LASF437
 7740 241b FA4E0000 		.4byte	0x4efa
 7741 241f 01       		.byte	0x1
 7742 2420 28240000 		.4byte	0x2428
 7743 2424 33240000 		.4byte	0x2433
 7744 2428 28       		.uleb128 0x28
 7745 2429 E84E0000 		.4byte	0x4ee8
 7746 242d 13       		.uleb128 0x13
 7747 242e E9220000 		.4byte	0x22e9
 7748 2432 00       		.byte	0
 7749 2433 3D       		.uleb128 0x3d
 7750 2434 E8310000 		.4byte	.LASF352
 7751 2438 2D       		.byte	0x2d
 7752 2439 4402     		.2byte	0x244
 7753 243b 05290000 		.4byte	.LASF438
 7754 243f FA4E0000 		.4byte	0x4efa
 7755 2443 01       		.byte	0x1
 7756 2444 4C240000 		.4byte	0x244c
 7757 2448 5C240000 		.4byte	0x245c
 7758 244c 28       		.uleb128 0x28
 7759 244d E84E0000 		.4byte	0x4ee8
 7760 2451 13       		.uleb128 0x13
 7761 2452 F5220000 		.4byte	0x22f5
 7762 2456 13       		.uleb128 0x13
ARM GAS  /tmp/ccB5ynkg.s 			page 139


 7763 2457 D9000000 		.4byte	0xd9
 7764 245b 00       		.byte	0
 7765 245c 3D       		.uleb128 0x3d
 7766 245d E20F0000 		.4byte	.LASF355
 7767 2461 2D       		.byte	0x2d
 7768 2462 B301     		.2byte	0x1b3
 7769 2464 4B040000 		.4byte	.LASF439
 7770 2468 7B240000 		.4byte	0x247b
 7771 246c 01       		.byte	0x1
 7772 246d 75240000 		.4byte	0x2475
 7773 2471 7B240000 		.4byte	0x247b
 7774 2475 28       		.uleb128 0x28
 7775 2476 EE4E0000 		.4byte	0x4eee
 7776 247a 00       		.byte	0
 7777 247b 07       		.uleb128 0x7
 7778 247c D5220000 		.4byte	0x22d5
 7779 2480 3D       		.uleb128 0x3d
 7780 2481 152F0000 		.4byte	.LASF357
 7781 2485 2D       		.byte	0x2d
 7782 2486 B701     		.2byte	0x1b7
 7783 2488 79290000 		.4byte	.LASF440
 7784 248c 7B240000 		.4byte	0x247b
 7785 2490 01       		.byte	0x1
 7786 2491 99240000 		.4byte	0x2499
 7787 2495 9F240000 		.4byte	0x249f
 7788 2499 28       		.uleb128 0x28
 7789 249a EE4E0000 		.4byte	0x4eee
 7790 249e 00       		.byte	0
 7791 249f 3E       		.uleb128 0x3e
 7792 24a0 E05F0000 		.4byte	.LASF359
 7793 24a4 2D       		.byte	0x2d
 7794 24a5 BB01     		.2byte	0x1bb
 7795 24a7 1D140000 		.4byte	.LASF441
 7796 24ab 01       		.byte	0x1
 7797 24ac B4240000 		.4byte	0x24b4
 7798 24b0 BF240000 		.4byte	0x24bf
 7799 24b4 28       		.uleb128 0x28
 7800 24b5 EE4E0000 		.4byte	0x4eee
 7801 24b9 13       		.uleb128 0x13
 7802 24ba 004F0000 		.4byte	0x4f00
 7803 24be 00       		.byte	0
 7804 24bf 3D       		.uleb128 0x3d
 7805 24c0 E20F0000 		.4byte	.LASF355
 7806 24c4 2D       		.byte	0x2d
 7807 24c5 BF01     		.2byte	0x1bf
 7808 24c7 76180000 		.4byte	.LASF442
 7809 24cb DE240000 		.4byte	0x24de
 7810 24cf 01       		.byte	0x1
 7811 24d0 D8240000 		.4byte	0x24d8
 7812 24d4 DE240000 		.4byte	0x24de
 7813 24d8 28       		.uleb128 0x28
 7814 24d9 E84E0000 		.4byte	0x4ee8
 7815 24dd 00       		.byte	0
 7816 24de 07       		.uleb128 0x7
 7817 24df DA220000 		.4byte	0x22da
 7818 24e3 3D       		.uleb128 0x3d
 7819 24e4 152F0000 		.4byte	.LASF357
ARM GAS  /tmp/ccB5ynkg.s 			page 140


 7820 24e8 2D       		.byte	0x2d
 7821 24e9 C301     		.2byte	0x1c3
 7822 24eb C74A0000 		.4byte	.LASF443
 7823 24ef DE240000 		.4byte	0x24de
 7824 24f3 01       		.byte	0x1
 7825 24f4 FC240000 		.4byte	0x24fc
 7826 24f8 02250000 		.4byte	0x2502
 7827 24fc 28       		.uleb128 0x28
 7828 24fd E84E0000 		.4byte	0x4ee8
 7829 2501 00       		.byte	0
 7830 2502 3E       		.uleb128 0x3e
 7831 2503 E05F0000 		.4byte	.LASF359
 7832 2507 2D       		.byte	0x2d
 7833 2508 C701     		.2byte	0x1c7
 7834 250a CA550000 		.4byte	.LASF444
 7835 250e 01       		.byte	0x1
 7836 250f 17250000 		.4byte	0x2517
 7837 2513 22250000 		.4byte	0x2522
 7838 2517 28       		.uleb128 0x28
 7839 2518 E84E0000 		.4byte	0x4ee8
 7840 251c 13       		.uleb128 0x13
 7841 251d 064F0000 		.4byte	0x4f06
 7842 2521 00       		.byte	0
 7843 2522 3D       		.uleb128 0x3d
 7844 2523 68550000 		.4byte	.LASF364
 7845 2527 2D       		.byte	0x2d
 7846 2528 5302     		.2byte	0x253
 7847 252a 8A5E0000 		.4byte	.LASF445
 7848 252e E24E0000 		.4byte	0x4ee2
 7849 2532 01       		.byte	0x1
 7850 2533 3B250000 		.4byte	0x253b
 7851 2537 41250000 		.4byte	0x2541
 7852 253b 28       		.uleb128 0x28
 7853 253c E84E0000 		.4byte	0x4ee8
 7854 2540 00       		.byte	0
 7855 2541 3D       		.uleb128 0x3d
 7856 2542 6A580000 		.4byte	.LASF366
 7857 2546 2D       		.byte	0x2d
 7858 2547 5D02     		.2byte	0x25d
 7859 2549 C0030000 		.4byte	.LASF446
 7860 254d 2D010000 		.4byte	0x12d
 7861 2551 01       		.byte	0x1
 7862 2552 5A250000 		.4byte	0x255a
 7863 2556 60250000 		.4byte	0x2560
 7864 255a 28       		.uleb128 0x28
 7865 255b E84E0000 		.4byte	0x4ee8
 7866 255f 00       		.byte	0
 7867 2560 3D       		.uleb128 0x3d
 7868 2561 59320000 		.4byte	.LASF368
 7869 2565 2D       		.byte	0x2d
 7870 2566 6702     		.2byte	0x267
 7871 2568 40000000 		.4byte	.LASF447
 7872 256c 25000000 		.4byte	0x25
 7873 2570 01       		.byte	0x1
 7874 2571 79250000 		.4byte	0x2579
 7875 2575 7F250000 		.4byte	0x257f
 7876 2579 28       		.uleb128 0x28
ARM GAS  /tmp/ccB5ynkg.s 			page 141


 7877 257a E84E0000 		.4byte	0x4ee8
 7878 257e 00       		.byte	0
 7879 257f 3E       		.uleb128 0x3e
 7880 2580 AE1D0000 		.4byte	.LASF370
 7881 2584 2D       		.byte	0x2d
 7882 2585 7602     		.2byte	0x276
 7883 2587 2D1F0000 		.4byte	.LASF448
 7884 258b 01       		.byte	0x1
 7885 258c 94250000 		.4byte	0x2594
 7886 2590 9F250000 		.4byte	0x259f
 7887 2594 28       		.uleb128 0x28
 7888 2595 EE4E0000 		.4byte	0x4eee
 7889 2599 13       		.uleb128 0x13
 7890 259a F44E0000 		.4byte	0x4ef4
 7891 259e 00       		.byte	0
 7892 259f 3D       		.uleb128 0x3d
 7893 25a0 84130000 		.4byte	.LASF372
 7894 25a4 2D       		.byte	0x2d
 7895 25a5 8002     		.2byte	0x280
 7896 25a7 161B0000 		.4byte	.LASF449
 7897 25ab 2D010000 		.4byte	0x12d
 7898 25af 01       		.byte	0x1
 7899 25b0 B8250000 		.4byte	0x25b8
 7900 25b4 C3250000 		.4byte	0x25c3
 7901 25b8 28       		.uleb128 0x28
 7902 25b9 EE4E0000 		.4byte	0x4eee
 7903 25bd 13       		.uleb128 0x13
 7904 25be F44E0000 		.4byte	0x4ef4
 7905 25c2 00       		.byte	0
 7906 25c3 3D       		.uleb128 0x3d
 7907 25c4 03370000 		.4byte	.LASF374
 7908 25c8 2D       		.byte	0x2d
 7909 25c9 8A02     		.2byte	0x28a
 7910 25cb 71060000 		.4byte	.LASF450
 7911 25cf 37000000 		.4byte	0x37
 7912 25d3 01       		.byte	0x1
 7913 25d4 DC250000 		.4byte	0x25dc
 7914 25d8 E7250000 		.4byte	0x25e7
 7915 25dc 28       		.uleb128 0x28
 7916 25dd E84E0000 		.4byte	0x4ee8
 7917 25e1 13       		.uleb128 0x13
 7918 25e2 C24E0000 		.4byte	0x4ec2
 7919 25e6 00       		.byte	0
 7920 25e7 3D       		.uleb128 0x3d
 7921 25e8 BD230000 		.4byte	.LASF376
 7922 25ec 2D       		.byte	0x2d
 7923 25ed 9B02     		.2byte	0x29b
 7924 25ef 760E0000 		.4byte	.LASF451
 7925 25f3 2D010000 		.4byte	0x12d
 7926 25f7 01       		.byte	0x1
 7927 25f8 00260000 		.4byte	0x2600
 7928 25fc 0B260000 		.4byte	0x260b
 7929 2600 28       		.uleb128 0x28
 7930 2601 E84E0000 		.4byte	0x4ee8
 7931 2605 13       		.uleb128 0x13
 7932 2606 C24E0000 		.4byte	0x4ec2
 7933 260a 00       		.byte	0
ARM GAS  /tmp/ccB5ynkg.s 			page 142


 7934 260b 3D       		.uleb128 0x3d
 7935 260c CA390000 		.4byte	.LASF378
 7936 2610 2D       		.byte	0x2d
 7937 2611 AC02     		.2byte	0x2ac
 7938 2613 822C0000 		.4byte	.LASF452
 7939 2617 FA4E0000 		.4byte	0x4efa
 7940 261b 01       		.byte	0x1
 7941 261c 24260000 		.4byte	0x2624
 7942 2620 2F260000 		.4byte	0x262f
 7943 2624 28       		.uleb128 0x28
 7944 2625 E84E0000 		.4byte	0x4ee8
 7945 2629 13       		.uleb128 0x13
 7946 262a E9220000 		.4byte	0x22e9
 7947 262e 00       		.byte	0
 7948 262f 3D       		.uleb128 0x3d
 7949 2630 CA390000 		.4byte	.LASF378
 7950 2634 2D       		.byte	0x2d
 7951 2635 BC02     		.2byte	0x2bc
 7952 2637 73580000 		.4byte	.LASF453
 7953 263b FA4E0000 		.4byte	0x4efa
 7954 263f 01       		.byte	0x1
 7955 2640 48260000 		.4byte	0x2648
 7956 2644 58260000 		.4byte	0x2658
 7957 2648 28       		.uleb128 0x28
 7958 2649 E84E0000 		.4byte	0x4ee8
 7959 264d 13       		.uleb128 0x13
 7960 264e F5220000 		.4byte	0x22f5
 7961 2652 13       		.uleb128 0x13
 7962 2653 D9000000 		.4byte	0xd9
 7963 2657 00       		.byte	0
 7964 2658 3D       		.uleb128 0x3d
 7965 2659 FA5E0000 		.4byte	.LASF381
 7966 265d 2D       		.byte	0x2d
 7967 265e E001     		.2byte	0x1e0
 7968 2660 57330000 		.4byte	.LASF454
 7969 2664 77260000 		.4byte	0x2677
 7970 2668 01       		.byte	0x1
 7971 2669 71260000 		.4byte	0x2671
 7972 266d 77260000 		.4byte	0x2677
 7973 2671 28       		.uleb128 0x28
 7974 2672 EE4E0000 		.4byte	0x4eee
 7975 2676 00       		.byte	0
 7976 2677 07       		.uleb128 0x7
 7977 2678 DF220000 		.4byte	0x22df
 7978 267c 3F       		.uleb128 0x3f
 7979 267d 656E6400 		.ascii	"end\000"
 7980 2681 2D       		.byte	0x2d
 7981 2682 E401     		.2byte	0x1e4
 7982 2684 99220000 		.4byte	.LASF455
 7983 2688 77260000 		.4byte	0x2677
 7984 268c 01       		.byte	0x1
 7985 268d 95260000 		.4byte	0x2695
 7986 2691 9B260000 		.4byte	0x269b
 7987 2695 28       		.uleb128 0x28
 7988 2696 EE4E0000 		.4byte	0x4eee
 7989 269a 00       		.byte	0
 7990 269b 3E       		.uleb128 0x3e
ARM GAS  /tmp/ccB5ynkg.s 			page 143


 7991 269c E7110000 		.4byte	.LASF383
 7992 26a0 2D       		.byte	0x2d
 7993 26a1 E801     		.2byte	0x1e8
 7994 26a3 020D0000 		.4byte	.LASF456
 7995 26a7 01       		.byte	0x1
 7996 26a8 B0260000 		.4byte	0x26b0
 7997 26ac BB260000 		.4byte	0x26bb
 7998 26b0 28       		.uleb128 0x28
 7999 26b1 EE4E0000 		.4byte	0x4eee
 8000 26b5 13       		.uleb128 0x13
 8001 26b6 0C4F0000 		.4byte	0x4f0c
 8002 26ba 00       		.byte	0
 8003 26bb 3D       		.uleb128 0x3d
 8004 26bc FA5E0000 		.4byte	.LASF381
 8005 26c0 2D       		.byte	0x2d
 8006 26c1 EC01     		.2byte	0x1ec
 8007 26c3 C8370000 		.4byte	.LASF457
 8008 26c7 DA260000 		.4byte	0x26da
 8009 26cb 01       		.byte	0x1
 8010 26cc D4260000 		.4byte	0x26d4
 8011 26d0 DA260000 		.4byte	0x26da
 8012 26d4 28       		.uleb128 0x28
 8013 26d5 E84E0000 		.4byte	0x4ee8
 8014 26d9 00       		.byte	0
 8015 26da 07       		.uleb128 0x7
 8016 26db E4220000 		.4byte	0x22e4
 8017 26df 3F       		.uleb128 0x3f
 8018 26e0 656E6400 		.ascii	"end\000"
 8019 26e4 2D       		.byte	0x2d
 8020 26e5 F201     		.2byte	0x1f2
 8021 26e7 41550000 		.4byte	.LASF458
 8022 26eb DA260000 		.4byte	0x26da
 8023 26ef 01       		.byte	0x1
 8024 26f0 F8260000 		.4byte	0x26f8
 8025 26f4 FE260000 		.4byte	0x26fe
 8026 26f8 28       		.uleb128 0x28
 8027 26f9 E84E0000 		.4byte	0x4ee8
 8028 26fd 00       		.byte	0
 8029 26fe 3E       		.uleb128 0x3e
 8030 26ff E7110000 		.4byte	.LASF383
 8031 2703 2D       		.byte	0x2d
 8032 2704 F601     		.2byte	0x1f6
 8033 2706 AB4E0000 		.4byte	.LASF459
 8034 270a 01       		.byte	0x1
 8035 270b 13270000 		.4byte	0x2713
 8036 270f 1E270000 		.4byte	0x271e
 8037 2713 28       		.uleb128 0x28
 8038 2714 E84E0000 		.4byte	0x4ee8
 8039 2718 13       		.uleb128 0x13
 8040 2719 124F0000 		.4byte	0x4f12
 8041 271d 00       		.byte	0
 8042 271e 40       		.uleb128 0x40
 8043 271f 39100000 		.4byte	.LASF389
 8044 2723 2D       		.byte	0x2d
 8045 2724 FA01     		.2byte	0x1fa
 8046 2726 EE4E0000 		.4byte	0x4eee
 8047 272a 01       		.byte	0x1
ARM GAS  /tmp/ccB5ynkg.s 			page 144


 8048 272b 33270000 		.4byte	0x2733
 8049 272f 39270000 		.4byte	0x2739
 8050 2733 28       		.uleb128 0x28
 8051 2734 EE4E0000 		.4byte	0x4eee
 8052 2738 00       		.byte	0
 8053 2739 41       		.uleb128 0x41
 8054 273a 9D1A0000 		.4byte	.LASF390
 8055 273e 48270000 		.4byte	0x2748
 8056 2742 00       		.byte	0
 8057 2743 07       		.uleb128 0x7
 8058 2744 48270000 		.4byte	0x2748
 8059 2748 26       		.uleb128 0x26
 8060 2749 31190000 		.4byte	.LASF460
 8061 274d 30       		.byte	0x30
 8062 274e 0E       		.byte	0xe
 8063 274f 17       		.byte	0x17
 8064 2750 B82C0000 		.4byte	0x2cb8
 8065 2754 2B       		.uleb128 0x2b
 8066 2755 65110000 		.4byte	0x1165
 8067 2759 00       		.byte	0
 8068 275a 0C       		.uleb128 0xc
 8069 275b 601D0000 		.4byte	.LASF461
 8070 275f 0E       		.byte	0xe
 8071 2760 1B       		.byte	0x1b
 8072 2761 234F0000 		.4byte	0x4f23
 8073 2765 00       		.byte	0
 8074 2766 0C       		.uleb128 0xc
 8075 2767 955D0000 		.4byte	.LASF462
 8076 276b 0E       		.byte	0xe
 8077 276c 1C       		.byte	0x1c
 8078 276d 10140000 		.4byte	0x1410
 8079 2771 04       		.byte	0x4
 8080 2772 0C       		.uleb128 0xc
 8081 2773 43230000 		.4byte	.LASF463
 8082 2777 0E       		.byte	0xe
 8083 2778 1D       		.byte	0x1d
 8084 2779 52120000 		.4byte	0x1252
 8085 277d 08       		.byte	0x8
 8086 277e 0C       		.uleb128 0xc
 8087 277f 73570000 		.4byte	.LASF464
 8088 2783 0E       		.byte	0xe
 8089 2784 1E       		.byte	0x1e
 8090 2785 25000000 		.4byte	0x25
 8091 2789 14       		.byte	0x14
 8092 278a 0C       		.uleb128 0xc
 8093 278b 090F0000 		.4byte	.LASF465
 8094 278f 0E       		.byte	0xe
 8095 2790 1F       		.byte	0x1f
 8096 2791 25000000 		.4byte	0x25
 8097 2795 18       		.byte	0x18
 8098 2796 0C       		.uleb128 0xc
 8099 2797 92280000 		.4byte	.LASF466
 8100 279b 0E       		.byte	0xe
 8101 279c 20       		.byte	0x20
 8102 279d C2160000 		.4byte	0x16c2
 8103 27a1 1C       		.byte	0x1c
 8104 27a2 0C       		.uleb128 0xc
ARM GAS  /tmp/ccB5ynkg.s 			page 145


 8105 27a3 77010000 		.4byte	.LASF467
 8106 27a7 0E       		.byte	0xe
 8107 27a8 21       		.byte	0x21
 8108 27a9 9A1D0000 		.4byte	0x1d9a
 8109 27ad 20       		.byte	0x20
 8110 27ae 0C       		.uleb128 0xc
 8111 27af A33F0000 		.4byte	.LASF468
 8112 27b3 0E       		.byte	0xe
 8113 27b4 22       		.byte	0x22
 8114 27b5 25000000 		.4byte	0x25
 8115 27b9 24       		.byte	0x24
 8116 27ba 0C       		.uleb128 0xc
 8117 27bb 78510000 		.4byte	.LASF469
 8118 27bf 0E       		.byte	0xe
 8119 27c0 27       		.byte	0x27
 8120 27c1 88220000 		.4byte	0x2288
 8121 27c5 28       		.byte	0x28
 8122 27c6 2E       		.uleb128 0x2e
 8123 27c7 25380000 		.4byte	.LASF470
 8124 27cb 0E       		.byte	0xe
 8125 27cc 2A       		.byte	0x2a
 8126 27cd 65370000 		.4byte	.LASF471
 8127 27d1 CE000000 		.4byte	0xce
 8128 27d5 01       		.byte	0x1
 8129 27d6 DE270000 		.4byte	0x27de
 8130 27da E4270000 		.4byte	0x27e4
 8131 27de 28       		.uleb128 0x28
 8132 27df 284F0000 		.4byte	0x4f28
 8133 27e3 00       		.byte	0
 8134 27e4 2E       		.uleb128 0x2e
 8135 27e5 B6550000 		.4byte	.LASF472
 8136 27e9 0E       		.byte	0xe
 8137 27ea 2B       		.byte	0x2b
 8138 27eb 15530000 		.4byte	.LASF473
 8139 27ef BF4D0000 		.4byte	0x4dbf
 8140 27f3 01       		.byte	0x1
 8141 27f4 FC270000 		.4byte	0x27fc
 8142 27f8 02280000 		.4byte	0x2802
 8143 27fc 28       		.uleb128 0x28
 8144 27fd 284F0000 		.4byte	0x4f28
 8145 2801 00       		.byte	0
 8146 2802 2E       		.uleb128 0x2e
 8147 2803 45180000 		.4byte	.LASF474
 8148 2807 0E       		.byte	0xe
 8149 2808 2C       		.byte	0x2c
 8150 2809 44100000 		.4byte	.LASF475
 8151 280d 25000000 		.4byte	0x25
 8152 2811 01       		.byte	0x1
 8153 2812 1A280000 		.4byte	0x281a
 8154 2816 20280000 		.4byte	0x2820
 8155 281a 28       		.uleb128 0x28
 8156 281b 284F0000 		.4byte	0x4f28
 8157 281f 00       		.byte	0
 8158 2820 2E       		.uleb128 0x2e
 8159 2821 CB270000 		.4byte	.LASF476
 8160 2825 0E       		.byte	0xe
 8161 2826 2D       		.byte	0x2d
ARM GAS  /tmp/ccB5ynkg.s 			page 146


 8162 2827 66460000 		.4byte	.LASF477
 8163 282b 25000000 		.4byte	0x25
 8164 282f 01       		.byte	0x1
 8165 2830 38280000 		.4byte	0x2838
 8166 2834 3E280000 		.4byte	0x283e
 8167 2838 28       		.uleb128 0x28
 8168 2839 284F0000 		.4byte	0x4f28
 8169 283d 00       		.byte	0
 8170 283e 2E       		.uleb128 0x2e
 8171 283f 1C190000 		.4byte	.LASF478
 8172 2843 0E       		.byte	0xe
 8173 2844 2E       		.byte	0x2e
 8174 2845 33520000 		.4byte	.LASF479
 8175 2849 25000000 		.4byte	0x25
 8176 284d 01       		.byte	0x1
 8177 284e 56280000 		.4byte	0x2856
 8178 2852 5C280000 		.4byte	0x285c
 8179 2856 28       		.uleb128 0x28
 8180 2857 284F0000 		.4byte	0x4f28
 8181 285b 00       		.byte	0
 8182 285c 2E       		.uleb128 0x2e
 8183 285d E2210000 		.4byte	.LASF480
 8184 2861 0E       		.byte	0xe
 8185 2862 2F       		.byte	0x2f
 8186 2863 13000000 		.4byte	.LASF481
 8187 2867 2D010000 		.4byte	0x12d
 8188 286b 01       		.byte	0x1
 8189 286c 74280000 		.4byte	0x2874
 8190 2870 7A280000 		.4byte	0x287a
 8191 2874 28       		.uleb128 0x28
 8192 2875 284F0000 		.4byte	0x4f28
 8193 2879 00       		.byte	0
 8194 287a 2E       		.uleb128 0x2e
 8195 287b DE2F0000 		.4byte	.LASF482
 8196 287f 0E       		.byte	0xe
 8197 2880 31       		.byte	0x31
 8198 2881 E6530000 		.4byte	.LASF483
 8199 2885 2D010000 		.4byte	0x12d
 8200 2889 01       		.byte	0x1
 8201 288a 92280000 		.4byte	0x2892
 8202 288e 98280000 		.4byte	0x2898
 8203 2892 28       		.uleb128 0x28
 8204 2893 284F0000 		.4byte	0x4f28
 8205 2897 00       		.byte	0
 8206 2898 2E       		.uleb128 0x2e
 8207 2899 51070000 		.4byte	.LASF484
 8208 289d 0E       		.byte	0xe
 8209 289e 32       		.byte	0x32
 8210 289f 440E0000 		.4byte	.LASF485
 8211 28a3 2D010000 		.4byte	0x12d
 8212 28a7 01       		.byte	0x1
 8213 28a8 B0280000 		.4byte	0x28b0
 8214 28ac B6280000 		.4byte	0x28b6
 8215 28b0 28       		.uleb128 0x28
 8216 28b1 284F0000 		.4byte	0x4f28
 8217 28b5 00       		.byte	0
 8218 28b6 2E       		.uleb128 0x2e
ARM GAS  /tmp/ccB5ynkg.s 			page 147


 8219 28b7 DA570000 		.4byte	.LASF486
 8220 28bb 0E       		.byte	0xe
 8221 28bc 33       		.byte	0x33
 8222 28bd 40410000 		.4byte	.LASF487
 8223 28c1 2D010000 		.4byte	0x12d
 8224 28c5 01       		.byte	0x1
 8225 28c6 CE280000 		.4byte	0x28ce
 8226 28ca D4280000 		.4byte	0x28d4
 8227 28ce 28       		.uleb128 0x28
 8228 28cf 284F0000 		.4byte	0x4f28
 8229 28d3 00       		.byte	0
 8230 28d4 2E       		.uleb128 0x2e
 8231 28d5 783A0000 		.4byte	.LASF488
 8232 28d9 0E       		.byte	0xe
 8233 28da 34       		.byte	0x34
 8234 28db 63380000 		.4byte	.LASF489
 8235 28df 2D010000 		.4byte	0x12d
 8236 28e3 01       		.byte	0x1
 8237 28e4 EC280000 		.4byte	0x28ec
 8238 28e8 F2280000 		.4byte	0x28f2
 8239 28ec 28       		.uleb128 0x28
 8240 28ed 284F0000 		.4byte	0x4f28
 8241 28f1 00       		.byte	0
 8242 28f2 2E       		.uleb128 0x2e
 8243 28f3 A9160000 		.4byte	.LASF490
 8244 28f7 0E       		.byte	0xe
 8245 28f8 35       		.byte	0x35
 8246 28f9 E00E0000 		.4byte	.LASF491
 8247 28fd 2D010000 		.4byte	0x12d
 8248 2901 01       		.byte	0x1
 8249 2902 0A290000 		.4byte	0x290a
 8250 2906 10290000 		.4byte	0x2910
 8251 290a 28       		.uleb128 0x28
 8252 290b 284F0000 		.4byte	0x4f28
 8253 290f 00       		.byte	0
 8254 2910 2E       		.uleb128 0x2e
 8255 2911 71550000 		.4byte	.LASF492
 8256 2915 0E       		.byte	0xe
 8257 2916 36       		.byte	0x36
 8258 2917 FC0F0000 		.4byte	.LASF493
 8259 291b 2D010000 		.4byte	0x12d
 8260 291f 01       		.byte	0x1
 8261 2920 28290000 		.4byte	0x2928
 8262 2924 2E290000 		.4byte	0x292e
 8263 2928 28       		.uleb128 0x28
 8264 2929 284F0000 		.4byte	0x4f28
 8265 292d 00       		.byte	0
 8266 292e 2E       		.uleb128 0x2e
 8267 292f D4480000 		.4byte	.LASF494
 8268 2933 0E       		.byte	0xe
 8269 2934 37       		.byte	0x37
 8270 2935 7C530000 		.4byte	.LASF495
 8271 2939 2D010000 		.4byte	0x12d
 8272 293d 01       		.byte	0x1
 8273 293e 46290000 		.4byte	0x2946
 8274 2942 4C290000 		.4byte	0x294c
 8275 2946 28       		.uleb128 0x28
ARM GAS  /tmp/ccB5ynkg.s 			page 148


 8276 2947 284F0000 		.4byte	0x4f28
 8277 294b 00       		.byte	0
 8278 294c 2E       		.uleb128 0x2e
 8279 294d 9A2E0000 		.4byte	.LASF496
 8280 2951 0E       		.byte	0xe
 8281 2952 38       		.byte	0x38
 8282 2953 9A490000 		.4byte	.LASF497
 8283 2957 2D010000 		.4byte	0x12d
 8284 295b 01       		.byte	0x1
 8285 295c 64290000 		.4byte	0x2964
 8286 2960 6A290000 		.4byte	0x296a
 8287 2964 28       		.uleb128 0x28
 8288 2965 284F0000 		.4byte	0x4f28
 8289 2969 00       		.byte	0
 8290 296a 2E       		.uleb128 0x2e
 8291 296b CA3F0000 		.4byte	.LASF498
 8292 296f 0E       		.byte	0xe
 8293 2970 3A       		.byte	0x3a
 8294 2971 83540000 		.4byte	.LASF499
 8295 2975 BD160000 		.4byte	0x16bd
 8296 2979 01       		.byte	0x1
 8297 297a 82290000 		.4byte	0x2982
 8298 297e 8D290000 		.4byte	0x298d
 8299 2982 28       		.uleb128 0x28
 8300 2983 284F0000 		.4byte	0x4f28
 8301 2987 13       		.uleb128 0x13
 8302 2988 BF4D0000 		.4byte	0x4dbf
 8303 298c 00       		.byte	0
 8304 298d 2E       		.uleb128 0x2e
 8305 298e CA3F0000 		.4byte	.LASF498
 8306 2992 0E       		.byte	0xe
 8307 2993 3B       		.byte	0x3b
 8308 2994 9E370000 		.4byte	.LASF500
 8309 2998 BD160000 		.4byte	0x16bd
 8310 299c 01       		.byte	0x1
 8311 299d A5290000 		.4byte	0x29a5
 8312 29a1 AB290000 		.4byte	0x29ab
 8313 29a5 28       		.uleb128 0x28
 8314 29a6 284F0000 		.4byte	0x4f28
 8315 29aa 00       		.byte	0
 8316 29ab 2E       		.uleb128 0x2e
 8317 29ac 25350000 		.4byte	.LASF264
 8318 29b0 0E       		.byte	0xe
 8319 29b1 3C       		.byte	0x3c
 8320 29b2 732B0000 		.4byte	.LASF501
 8321 29b6 2E4F0000 		.4byte	0x4f2e
 8322 29ba 01       		.byte	0x1
 8323 29bb C3290000 		.4byte	0x29c3
 8324 29bf C9290000 		.4byte	0x29c9
 8325 29c3 28       		.uleb128 0x28
 8326 29c4 FA4E0000 		.4byte	0x4efa
 8327 29c8 00       		.byte	0
 8328 29c9 2E       		.uleb128 0x2e
 8329 29ca 56260000 		.4byte	.LASF502
 8330 29ce 0E       		.byte	0xe
 8331 29cf 3E       		.byte	0x3e
 8332 29d0 6E100000 		.4byte	.LASF503
ARM GAS  /tmp/ccB5ynkg.s 			page 149


 8333 29d4 2D010000 		.4byte	0x12d
 8334 29d8 01       		.byte	0x1
 8335 29d9 E1290000 		.4byte	0x29e1
 8336 29dd EC290000 		.4byte	0x29ec
 8337 29e1 28       		.uleb128 0x28
 8338 29e2 FA4E0000 		.4byte	0x4efa
 8339 29e6 13       		.uleb128 0x13
 8340 29e7 344F0000 		.4byte	0x4f34
 8341 29eb 00       		.byte	0
 8342 29ec 2F       		.uleb128 0x2f
 8343 29ed 9E150000 		.4byte	.LASF266
 8344 29f1 0E       		.byte	0xe
 8345 29f2 3F       		.byte	0x3f
 8346 29f3 593C0000 		.4byte	.LASF504
 8347 29f7 01       		.byte	0x1
 8348 29f8 002A0000 		.4byte	0x2a00
 8349 29fc 0B2A0000 		.4byte	0x2a0b
 8350 2a00 28       		.uleb128 0x28
 8351 2a01 FA4E0000 		.4byte	0x4efa
 8352 2a05 13       		.uleb128 0x13
 8353 2a06 344F0000 		.4byte	0x4f34
 8354 2a0a 00       		.byte	0
 8355 2a0b 2E       		.uleb128 0x2e
 8356 2a0c A9430000 		.4byte	.LASF505
 8357 2a10 0E       		.byte	0xe
 8358 2a11 40       		.byte	0x40
 8359 2a12 B0320000 		.4byte	.LASF506
 8360 2a16 2D010000 		.4byte	0x12d
 8361 2a1a 01       		.byte	0x1
 8362 2a1b 232A0000 		.4byte	0x2a23
 8363 2a1f 332A0000 		.4byte	0x2a33
 8364 2a23 28       		.uleb128 0x28
 8365 2a24 FA4E0000 		.4byte	0x4efa
 8366 2a28 13       		.uleb128 0x13
 8367 2a29 344F0000 		.4byte	0x4f34
 8368 2a2d 13       		.uleb128 0x13
 8369 2a2e BF4D0000 		.4byte	0x4dbf
 8370 2a32 00       		.byte	0
 8371 2a33 2E       		.uleb128 0x2e
 8372 2a34 5C5B0000 		.4byte	.LASF507
 8373 2a38 0E       		.byte	0xe
 8374 2a39 41       		.byte	0x41
 8375 2a3a A33D0000 		.4byte	.LASF508
 8376 2a3e 2D010000 		.4byte	0x12d
 8377 2a42 01       		.byte	0x1
 8378 2a43 4B2A0000 		.4byte	0x2a4b
 8379 2a47 5B2A0000 		.4byte	0x2a5b
 8380 2a4b 28       		.uleb128 0x28
 8381 2a4c FA4E0000 		.4byte	0x4efa
 8382 2a50 13       		.uleb128 0x13
 8383 2a51 344F0000 		.4byte	0x4f34
 8384 2a55 13       		.uleb128 0x13
 8385 2a56 BF4D0000 		.4byte	0x4dbf
 8386 2a5a 00       		.byte	0
 8387 2a5b 2E       		.uleb128 0x2e
 8388 2a5c CC0B0000 		.4byte	.LASF509
 8389 2a60 0E       		.byte	0xe
ARM GAS  /tmp/ccB5ynkg.s 			page 150


 8390 2a61 42       		.byte	0x42
 8391 2a62 2A590000 		.4byte	.LASF510
 8392 2a66 2D010000 		.4byte	0x12d
 8393 2a6a 01       		.byte	0x1
 8394 2a6b 732A0000 		.4byte	0x2a73
 8395 2a6f 832A0000 		.4byte	0x2a83
 8396 2a73 28       		.uleb128 0x28
 8397 2a74 FA4E0000 		.4byte	0x4efa
 8398 2a78 13       		.uleb128 0x13
 8399 2a79 3A4F0000 		.4byte	0x4f3a
 8400 2a7d 13       		.uleb128 0x13
 8401 2a7e BF4D0000 		.4byte	0x4dbf
 8402 2a82 00       		.byte	0
 8403 2a83 2E       		.uleb128 0x2e
 8404 2a84 9D260000 		.4byte	.LASF511
 8405 2a88 0E       		.byte	0xe
 8406 2a89 45       		.byte	0x45
 8407 2a8a A44B0000 		.4byte	.LASF512
 8408 2a8e BD160000 		.4byte	0x16bd
 8409 2a92 01       		.byte	0x1
 8410 2a93 9B2A0000 		.4byte	0x2a9b
 8411 2a97 A62A0000 		.4byte	0x2aa6
 8412 2a9b 28       		.uleb128 0x28
 8413 2a9c 284F0000 		.4byte	0x4f28
 8414 2aa0 13       		.uleb128 0x13
 8415 2aa1 BF4D0000 		.4byte	0x4dbf
 8416 2aa5 00       		.byte	0
 8417 2aa6 2E       		.uleb128 0x2e
 8418 2aa7 9D260000 		.4byte	.LASF511
 8419 2aab 0E       		.byte	0xe
 8420 2aac 46       		.byte	0x46
 8421 2aad 09260000 		.4byte	.LASF513
 8422 2ab1 BD160000 		.4byte	0x16bd
 8423 2ab5 01       		.byte	0x1
 8424 2ab6 BE2A0000 		.4byte	0x2abe
 8425 2aba C42A0000 		.4byte	0x2ac4
 8426 2abe 28       		.uleb128 0x28
 8427 2abf 284F0000 		.4byte	0x4f28
 8428 2ac3 00       		.byte	0
 8429 2ac4 2E       		.uleb128 0x2e
 8430 2ac5 D8310000 		.4byte	.LASF267
 8431 2ac9 0E       		.byte	0xe
 8432 2aca 47       		.byte	0x47
 8433 2acb E7100000 		.4byte	.LASF514
 8434 2acf 2E4F0000 		.4byte	0x4f2e
 8435 2ad3 01       		.byte	0x1
 8436 2ad4 DC2A0000 		.4byte	0x2adc
 8437 2ad8 E22A0000 		.4byte	0x2ae2
 8438 2adc 28       		.uleb128 0x28
 8439 2add FA4E0000 		.4byte	0x4efa
 8440 2ae1 00       		.byte	0
 8441 2ae2 2E       		.uleb128 0x2e
 8442 2ae3 62470000 		.4byte	.LASF252
 8443 2ae7 0E       		.byte	0xe
 8444 2ae8 49       		.byte	0x49
 8445 2ae9 55290000 		.4byte	.LASF515
 8446 2aed 2D010000 		.4byte	0x12d
ARM GAS  /tmp/ccB5ynkg.s 			page 151


 8447 2af1 01       		.byte	0x1
 8448 2af2 FA2A0000 		.4byte	0x2afa
 8449 2af6 052B0000 		.4byte	0x2b05
 8450 2afa 28       		.uleb128 0x28
 8451 2afb FA4E0000 		.4byte	0x4efa
 8452 2aff 13       		.uleb128 0x13
 8453 2b00 344F0000 		.4byte	0x4f34
 8454 2b04 00       		.byte	0
 8455 2b05 2F       		.uleb128 0x2f
 8456 2b06 1E100000 		.4byte	.LASF269
 8457 2b0a 0E       		.byte	0xe
 8458 2b0b 4A       		.byte	0x4a
 8459 2b0c A03B0000 		.4byte	.LASF516
 8460 2b10 01       		.byte	0x1
 8461 2b11 192B0000 		.4byte	0x2b19
 8462 2b15 242B0000 		.4byte	0x2b24
 8463 2b19 28       		.uleb128 0x28
 8464 2b1a FA4E0000 		.4byte	0x4efa
 8465 2b1e 13       		.uleb128 0x13
 8466 2b1f 344F0000 		.4byte	0x4f34
 8467 2b23 00       		.byte	0
 8468 2b24 2E       		.uleb128 0x2e
 8469 2b25 94570000 		.4byte	.LASF517
 8470 2b29 0E       		.byte	0xe
 8471 2b2a 4B       		.byte	0x4b
 8472 2b2b 18330000 		.4byte	.LASF518
 8473 2b2f 2D010000 		.4byte	0x12d
 8474 2b33 01       		.byte	0x1
 8475 2b34 3C2B0000 		.4byte	0x2b3c
 8476 2b38 4C2B0000 		.4byte	0x2b4c
 8477 2b3c 28       		.uleb128 0x28
 8478 2b3d FA4E0000 		.4byte	0x4efa
 8479 2b41 13       		.uleb128 0x13
 8480 2b42 344F0000 		.4byte	0x4f34
 8481 2b46 13       		.uleb128 0x13
 8482 2b47 BF4D0000 		.4byte	0x4dbf
 8483 2b4b 00       		.byte	0
 8484 2b4c 2E       		.uleb128 0x2e
 8485 2b4d 5F190000 		.4byte	.LASF519
 8486 2b51 0E       		.byte	0xe
 8487 2b52 4C       		.byte	0x4c
 8488 2b53 5D220000 		.4byte	.LASF520
 8489 2b57 2D010000 		.4byte	0x12d
 8490 2b5b 01       		.byte	0x1
 8491 2b5c 642B0000 		.4byte	0x2b64
 8492 2b60 742B0000 		.4byte	0x2b74
 8493 2b64 28       		.uleb128 0x28
 8494 2b65 FA4E0000 		.4byte	0x4efa
 8495 2b69 13       		.uleb128 0x13
 8496 2b6a 344F0000 		.4byte	0x4f34
 8497 2b6e 13       		.uleb128 0x13
 8498 2b6f BF4D0000 		.4byte	0x4dbf
 8499 2b73 00       		.byte	0
 8500 2b74 2E       		.uleb128 0x2e
 8501 2b75 7B040000 		.4byte	.LASF521
 8502 2b79 0E       		.byte	0xe
 8503 2b7a 4D       		.byte	0x4d
ARM GAS  /tmp/ccB5ynkg.s 			page 152


 8504 2b7b BE580000 		.4byte	.LASF522
 8505 2b7f 2D010000 		.4byte	0x12d
 8506 2b83 01       		.byte	0x1
 8507 2b84 8C2B0000 		.4byte	0x2b8c
 8508 2b88 9C2B0000 		.4byte	0x2b9c
 8509 2b8c 28       		.uleb128 0x28
 8510 2b8d FA4E0000 		.4byte	0x4efa
 8511 2b91 13       		.uleb128 0x13
 8512 2b92 3A4F0000 		.4byte	0x4f3a
 8513 2b96 13       		.uleb128 0x13
 8514 2b97 BF4D0000 		.4byte	0x4dbf
 8515 2b9b 00       		.byte	0
 8516 2b9c 2F       		.uleb128 0x2f
 8517 2b9d 02130000 		.4byte	.LASF523
 8518 2ba1 0E       		.byte	0xe
 8519 2ba2 4E       		.byte	0x4e
 8520 2ba3 B3440000 		.4byte	.LASF524
 8521 2ba7 01       		.byte	0x1
 8522 2ba8 B02B0000 		.4byte	0x2bb0
 8523 2bac C02B0000 		.4byte	0x2bc0
 8524 2bb0 28       		.uleb128 0x28
 8525 2bb1 FA4E0000 		.4byte	0x4efa
 8526 2bb5 13       		.uleb128 0x13
 8527 2bb6 2E4F0000 		.4byte	0x4f2e
 8528 2bba 13       		.uleb128 0x13
 8529 2bbb 25000000 		.4byte	0x25
 8530 2bbf 00       		.byte	0
 8531 2bc0 2F       		.uleb128 0x2f
 8532 2bc1 A4440000 		.4byte	.LASF525
 8533 2bc5 0E       		.byte	0xe
 8534 2bc6 50       		.byte	0x50
 8535 2bc7 D90A0000 		.4byte	.LASF526
 8536 2bcb 01       		.byte	0x1
 8537 2bcc D42B0000 		.4byte	0x2bd4
 8538 2bd0 E42B0000 		.4byte	0x2be4
 8539 2bd4 28       		.uleb128 0x28
 8540 2bd5 FA4E0000 		.4byte	0x4efa
 8541 2bd9 13       		.uleb128 0x13
 8542 2bda 404F0000 		.4byte	0x4f40
 8543 2bde 13       		.uleb128 0x13
 8544 2bdf BF4D0000 		.4byte	0x4dbf
 8545 2be3 00       		.byte	0
 8546 2be4 2F       		.uleb128 0x2f
 8547 2be5 A4440000 		.4byte	.LASF525
 8548 2be9 0E       		.byte	0xe
 8549 2bea 51       		.byte	0x51
 8550 2beb DB010000 		.4byte	.LASF527
 8551 2bef 01       		.byte	0x1
 8552 2bf0 F82B0000 		.4byte	0x2bf8
 8553 2bf4 082C0000 		.4byte	0x2c08
 8554 2bf8 28       		.uleb128 0x28
 8555 2bf9 FA4E0000 		.4byte	0x4efa
 8556 2bfd 13       		.uleb128 0x13
 8557 2bfe 464F0000 		.4byte	0x4f46
 8558 2c02 13       		.uleb128 0x13
 8559 2c03 BF4D0000 		.4byte	0x4dbf
 8560 2c07 00       		.byte	0
ARM GAS  /tmp/ccB5ynkg.s 			page 153


 8561 2c08 2F       		.uleb128 0x2f
 8562 2c09 965B0000 		.4byte	.LASF528
 8563 2c0d 0E       		.byte	0xe
 8564 2c0e 52       		.byte	0x52
 8565 2c0f 79430000 		.4byte	.LASF529
 8566 2c13 01       		.byte	0x1
 8567 2c14 1C2C0000 		.4byte	0x2c1c
 8568 2c18 2C2C0000 		.4byte	0x2c2c
 8569 2c1c 28       		.uleb128 0x28
 8570 2c1d FA4E0000 		.4byte	0x4efa
 8571 2c21 13       		.uleb128 0x13
 8572 2c22 4C4F0000 		.4byte	0x4f4c
 8573 2c26 13       		.uleb128 0x13
 8574 2c27 25000000 		.4byte	0x25
 8575 2c2b 00       		.byte	0
 8576 2c2c 2F       		.uleb128 0x2f
 8577 2c2d 965B0000 		.4byte	.LASF528
 8578 2c31 0E       		.byte	0xe
 8579 2c32 53       		.byte	0x53
 8580 2c33 50450000 		.4byte	.LASF530
 8581 2c37 01       		.byte	0x1
 8582 2c38 402C0000 		.4byte	0x2c40
 8583 2c3c 502C0000 		.4byte	0x2c50
 8584 2c40 28       		.uleb128 0x28
 8585 2c41 FA4E0000 		.4byte	0x4efa
 8586 2c45 13       		.uleb128 0x13
 8587 2c46 524F0000 		.4byte	0x4f52
 8588 2c4a 13       		.uleb128 0x13
 8589 2c4b 25000000 		.4byte	0x25
 8590 2c4f 00       		.byte	0
 8591 2c50 45       		.uleb128 0x45
 8592 2c51 F9370000 		.4byte	.LASF531
 8593 2c55 0E       		.byte	0xe
 8594 2c56 56       		.byte	0x56
 8595 2c57 F64A0000 		.4byte	.LASF533
 8596 2c5b 632C0000 		.4byte	0x2c63
 8597 2c5f 732C0000 		.4byte	0x2c73
 8598 2c63 28       		.uleb128 0x28
 8599 2c64 284F0000 		.4byte	0x4f28
 8600 2c68 13       		.uleb128 0x13
 8601 2c69 344F0000 		.4byte	0x4f34
 8602 2c6d 13       		.uleb128 0x13
 8603 2c6e 584F0000 		.4byte	0x4f58
 8604 2c72 00       		.byte	0
 8605 2c73 29       		.uleb128 0x29
 8606 2c74 31190000 		.4byte	.LASF460
 8607 2c78 0E       		.byte	0xe
 8608 2c79 59       		.byte	0x59
 8609 2c7a FA4E0000 		.4byte	0x4efa
 8610 2c7e 01       		.byte	0x1
 8611 2c7f 872C0000 		.4byte	0x2c87
 8612 2c83 9C2C0000 		.4byte	0x2c9c
 8613 2c87 28       		.uleb128 0x28
 8614 2c88 FA4E0000 		.4byte	0x4efa
 8615 2c8c 13       		.uleb128 0x13
 8616 2c8d CE000000 		.4byte	0xce
 8617 2c91 13       		.uleb128 0x13
ARM GAS  /tmp/ccB5ynkg.s 			page 154


 8618 2c92 25000000 		.4byte	0x25
 8619 2c96 13       		.uleb128 0x13
 8620 2c97 2D010000 		.4byte	0x12d
 8621 2c9b 00       		.byte	0
 8622 2c9c 46       		.uleb128 0x46
 8623 2c9d 72490000 		.4byte	.LASF532
 8624 2ca1 0E       		.byte	0xe
 8625 2ca2 5D       		.byte	0x5d
 8626 2ca3 27200000 		.4byte	.LASF534
 8627 2ca7 2D010000 		.4byte	0x12d
 8628 2cab 01       		.byte	0x1
 8629 2cac 13       		.uleb128 0x13
 8630 2cad C24E0000 		.4byte	0x4ec2
 8631 2cb1 13       		.uleb128 0x13
 8632 2cb2 CE000000 		.4byte	0xce
 8633 2cb6 00       		.byte	0
 8634 2cb7 00       		.byte	0
 8635 2cb8 07       		.uleb128 0x7
 8636 2cb9 76220000 		.4byte	0x2276
 8637 2cbd 26       		.uleb128 0x26
 8638 2cbe 57460000 		.4byte	.LASF535
 8639 2cc2 02       		.byte	0x2
 8640 2cc3 06       		.byte	0x6
 8641 2cc4 14       		.byte	0x14
 8642 2cc5 282E0000 		.4byte	0x2e28
 8643 2cc9 2D       		.uleb128 0x2d
 8644 2cca 7B080000 		.4byte	.LASF536
 8645 2cce 06       		.byte	0x6
 8646 2ccf 16       		.byte	0x16
 8647 2cd0 F6000000 		.4byte	0xf6
 8648 2cd4 01       		.byte	0x1
 8649 2cd5 0C       		.uleb128 0xc
 8650 2cd6 AE260000 		.4byte	.LASF537
 8651 2cda 06       		.byte	0x6
 8652 2cdb 1D       		.byte	0x1d
 8653 2cdc C92C0000 		.4byte	0x2cc9
 8654 2ce0 00       		.byte	0
 8655 2ce1 2E       		.uleb128 0x2e
 8656 2ce2 1B040000 		.4byte	.LASF538
 8657 2ce6 06       		.byte	0x6
 8658 2ce7 20       		.byte	0x20
 8659 2ce8 B60E0000 		.4byte	.LASF539
 8660 2cec 9A070000 		.4byte	0x79a
 8661 2cf0 01       		.byte	0x1
 8662 2cf1 F92C0000 		.4byte	0x2cf9
 8663 2cf5 FF2C0000 		.4byte	0x2cff
 8664 2cf9 28       		.uleb128 0x28
 8665 2cfa 5E4F0000 		.4byte	0x4f5e
 8666 2cfe 00       		.byte	0
 8667 2cff 2F       		.uleb128 0x2f
 8668 2d00 8B490000 		.4byte	.LASF540
 8669 2d04 06       		.byte	0x6
 8670 2d05 26       		.byte	0x26
 8671 2d06 30170000 		.4byte	.LASF541
 8672 2d0a 01       		.byte	0x1
 8673 2d0b 132D0000 		.4byte	0x2d13
 8674 2d0f 192D0000 		.4byte	0x2d19
ARM GAS  /tmp/ccB5ynkg.s 			page 155


 8675 2d13 28       		.uleb128 0x28
 8676 2d14 2E4F0000 		.4byte	0x4f2e
 8677 2d18 00       		.byte	0
 8678 2d19 2E       		.uleb128 0x2e
 8679 2d1a 56260000 		.4byte	.LASF502
 8680 2d1e 06       		.byte	0x6
 8681 2d1f 27       		.byte	0x27
 8682 2d20 C3330000 		.4byte	.LASF542
 8683 2d24 2D010000 		.4byte	0x12d
 8684 2d28 01       		.byte	0x1
 8685 2d29 312D0000 		.4byte	0x2d31
 8686 2d2d 372D0000 		.4byte	0x2d37
 8687 2d31 28       		.uleb128 0x28
 8688 2d32 2E4F0000 		.4byte	0x4f2e
 8689 2d36 00       		.byte	0
 8690 2d37 2F       		.uleb128 0x2f
 8691 2d38 9E110000 		.4byte	.LASF543
 8692 2d3c 06       		.byte	0x6
 8693 2d3d 28       		.byte	0x28
 8694 2d3e 40020000 		.4byte	.LASF544
 8695 2d42 01       		.byte	0x1
 8696 2d43 4B2D0000 		.4byte	0x2d4b
 8697 2d47 512D0000 		.4byte	0x2d51
 8698 2d4b 28       		.uleb128 0x28
 8699 2d4c 2E4F0000 		.4byte	0x4f2e
 8700 2d50 00       		.byte	0
 8701 2d51 2F       		.uleb128 0x2f
 8702 2d52 A01E0000 		.4byte	.LASF251
 8703 2d56 06       		.byte	0x6
 8704 2d57 2A       		.byte	0x2a
 8705 2d58 CD2D0000 		.4byte	.LASF545
 8706 2d5c 01       		.byte	0x1
 8707 2d5d 652D0000 		.4byte	0x2d65
 8708 2d61 6B2D0000 		.4byte	0x2d6b
 8709 2d65 28       		.uleb128 0x28
 8710 2d66 2E4F0000 		.4byte	0x4f2e
 8711 2d6a 00       		.byte	0
 8712 2d6b 2E       		.uleb128 0x2e
 8713 2d6c 62470000 		.4byte	.LASF252
 8714 2d70 06       		.byte	0x6
 8715 2d71 2B       		.byte	0x2b
 8716 2d72 66090000 		.4byte	.LASF546
 8717 2d76 2D010000 		.4byte	0x12d
 8718 2d7a 01       		.byte	0x1
 8719 2d7b 832D0000 		.4byte	0x2d83
 8720 2d7f 892D0000 		.4byte	0x2d89
 8721 2d83 28       		.uleb128 0x28
 8722 2d84 2E4F0000 		.4byte	0x4f2e
 8723 2d88 00       		.byte	0
 8724 2d89 2F       		.uleb128 0x2f
 8725 2d8a 4B300000 		.4byte	.LASF547
 8726 2d8e 06       		.byte	0x6
 8727 2d8f 2C       		.byte	0x2c
 8728 2d90 0C310000 		.4byte	.LASF548
 8729 2d94 01       		.byte	0x1
 8730 2d95 9D2D0000 		.4byte	0x2d9d
 8731 2d99 A32D0000 		.4byte	0x2da3
ARM GAS  /tmp/ccB5ynkg.s 			page 156


 8732 2d9d 28       		.uleb128 0x28
 8733 2d9e 2E4F0000 		.4byte	0x4f2e
 8734 2da2 00       		.byte	0
 8735 2da3 29       		.uleb128 0x29
 8736 2da4 57460000 		.4byte	.LASF535
 8737 2da8 06       		.byte	0x6
 8738 2da9 2F       		.byte	0x2f
 8739 2daa 2E4F0000 		.4byte	0x4f2e
 8740 2dae 02       		.byte	0x2
 8741 2daf B72D0000 		.4byte	0x2db7
 8742 2db3 BD2D0000 		.4byte	0x2dbd
 8743 2db7 28       		.uleb128 0x28
 8744 2db8 2E4F0000 		.4byte	0x4f2e
 8745 2dbc 00       		.byte	0
 8746 2dbd 47       		.uleb128 0x47
 8747 2dbe 2E380000 		.4byte	.LASF549
 8748 2dc2 06       		.byte	0x6
 8749 2dc3 32       		.byte	0x32
 8750 2dc4 36340000 		.4byte	.LASF550
 8751 2dc8 01       		.byte	0x1
 8752 2dc9 DD2D0000 		.4byte	0x2ddd
 8753 2dcd 13       		.uleb128 0x13
 8754 2dce 344F0000 		.4byte	0x4f34
 8755 2dd2 13       		.uleb128 0x13
 8756 2dd3 3A4F0000 		.4byte	0x4f3a
 8757 2dd7 13       		.uleb128 0x13
 8758 2dd8 25000000 		.4byte	0x25
 8759 2ddc 00       		.byte	0
 8760 2ddd 48       		.uleb128 0x48
 8761 2dde 11060000 		.4byte	.LASF551
 8762 2de2 06       		.byte	0x6
 8763 2de3 33       		.byte	0x33
 8764 2de4 6B1F0000 		.4byte	.LASF552
 8765 2de8 3A4F0000 		.4byte	0x4f3a
 8766 2dec 01       		.byte	0x1
 8767 2ded F72D0000 		.4byte	0x2df7
 8768 2df1 13       		.uleb128 0x13
 8769 2df2 9A070000 		.4byte	0x79a
 8770 2df6 00       		.byte	0
 8771 2df7 48       		.uleb128 0x48
 8772 2df8 CB270000 		.4byte	.LASF476
 8773 2dfc 06       		.byte	0x6
 8774 2dfd 34       		.byte	0x34
 8775 2dfe 53010000 		.4byte	.LASF553
 8776 2e02 25000000 		.4byte	0x25
 8777 2e06 01       		.byte	0x1
 8778 2e07 112E0000 		.4byte	0x2e11
 8779 2e0b 13       		.uleb128 0x13
 8780 2e0c 25000000 		.4byte	0x25
 8781 2e10 00       		.byte	0
 8782 2e11 46       		.uleb128 0x46
 8783 2e12 45180000 		.4byte	.LASF474
 8784 2e16 06       		.byte	0x6
 8785 2e17 35       		.byte	0x35
 8786 2e18 9D1F0000 		.4byte	.LASF554
 8787 2e1c 25000000 		.4byte	0x25
 8788 2e20 01       		.byte	0x1
ARM GAS  /tmp/ccB5ynkg.s 			page 157


 8789 2e21 13       		.uleb128 0x13
 8790 2e22 25000000 		.4byte	0x25
 8791 2e26 00       		.byte	0
 8792 2e27 00       		.byte	0
 8793 2e28 07       		.uleb128 0x7
 8794 2e29 BD2C0000 		.4byte	0x2cbd
 8795 2e2d 49       		.uleb128 0x49
 8796 2e2e 43110000 		.4byte	.LASF555
 8797 2e32 10       		.byte	0x10
 8798 2e33 2E       		.byte	0x2e
 8799 2e34 0A       		.byte	0xa
 8800 2e35 2E4A0000 		.4byte	0x4a2e
 8801 2e39 A82E0000 		.4byte	0x2ea8
 8802 2e3d 4A       		.uleb128 0x4a
 8803 2e3e 2E4A0000 		.4byte	0x4a2e
 8804 2e42 00       		.byte	0
 8805 2e43 01       		.byte	0x1
 8806 2e44 0C       		.uleb128 0xc
 8807 2e45 8E3A0000 		.4byte	.LASF556
 8808 2e49 2E       		.byte	0x2e
 8809 2e4a 0E       		.byte	0xe
 8810 2e4b C42E0000 		.4byte	0x2ec4
 8811 2e4f 08       		.byte	0x8
 8812 2e50 4B       		.uleb128 0x4b
 8813 2e51 43110000 		.4byte	.LASF555
 8814 2e55 B74F0000 		.4byte	0x4fb7
 8815 2e59 01       		.byte	0x1
 8816 2e5a 622E0000 		.4byte	0x2e62
 8817 2e5e 6D2E0000 		.4byte	0x2e6d
 8818 2e62 28       		.uleb128 0x28
 8819 2e63 B74F0000 		.4byte	0x4fb7
 8820 2e67 13       		.uleb128 0x13
 8821 2e68 7F4F0000 		.4byte	0x4f7f
 8822 2e6c 00       		.byte	0
 8823 2e6d 29       		.uleb128 0x29
 8824 2e6e 43110000 		.4byte	.LASF555
 8825 2e72 2E       		.byte	0x2e
 8826 2e73 11       		.byte	0x11
 8827 2e74 B74F0000 		.4byte	0x4fb7
 8828 2e78 02       		.byte	0x2
 8829 2e79 812E0000 		.4byte	0x2e81
 8830 2e7d 872E0000 		.4byte	0x2e87
 8831 2e81 28       		.uleb128 0x28
 8832 2e82 B74F0000 		.4byte	0x4fb7
 8833 2e86 00       		.byte	0
 8834 2e87 4C       		.uleb128 0x4c
 8835 2e88 0D140000 		.4byte	.LASF557
 8836 2e8c 2E       		.byte	0x2e
 8837 2e8d 12       		.byte	0x12
 8838 2e8e BF000000 		.4byte	0xbf
 8839 2e92 01       		.byte	0x1
 8840 2e93 2D2E0000 		.4byte	0x2e2d
 8841 2e97 02       		.byte	0x2
 8842 2e98 9C2E0000 		.4byte	0x2e9c
 8843 2e9c 28       		.uleb128 0x28
 8844 2e9d B74F0000 		.4byte	0x4fb7
 8845 2ea1 28       		.uleb128 0x28
ARM GAS  /tmp/ccB5ynkg.s 			page 158


 8846 2ea2 37000000 		.4byte	0x37
 8847 2ea6 00       		.byte	0
 8848 2ea7 00       		.byte	0
 8849 2ea8 39       		.uleb128 0x39
 8850 2ea9 8A010000 		.4byte	.LASF558
 8851 2ead 39       		.uleb128 0x39
 8852 2eae A43E0000 		.4byte	.LASF559
 8853 2eb2 26       		.uleb128 0x26
 8854 2eb3 12010000 		.4byte	.LASF560
 8855 2eb7 04       		.byte	0x4
 8856 2eb8 2D       		.byte	0x2d
 8857 2eb9 0F       		.byte	0xf
 8858 2eba F4340000 		.4byte	0x34f4
 8859 2ebe 2B       		.uleb128 0x2b
 8860 2ebf 65110000 		.4byte	0x1165
 8861 2ec3 00       		.byte	0
 8862 2ec4 36       		.uleb128 0x36
 8863 2ec5 FA540000 		.4byte	.LASF313
 8864 2ec9 08       		.byte	0x8
 8865 2eca 2D       		.byte	0x2d
 8866 2ecb 11       		.byte	0x11
 8867 2ecc 01       		.byte	0x1
 8868 2ecd 042F0000 		.4byte	0x2f04
 8869 2ed1 0C       		.uleb128 0xc
 8870 2ed2 522C0000 		.4byte	.LASF311
 8871 2ed6 2D       		.byte	0x2d
 8872 2ed7 12       		.byte	0x12
 8873 2ed8 644F0000 		.4byte	0x4f64
 8874 2edc 00       		.byte	0
 8875 2edd 0C       		.uleb128 0xc
 8876 2ede F2180000 		.4byte	.LASF312
 8877 2ee2 2D       		.byte	0x2d
 8878 2ee3 13       		.byte	0x13
 8879 2ee4 D54F0000 		.4byte	0x4fd5
 8880 2ee8 04       		.byte	0x4
 8881 2ee9 37       		.uleb128 0x37
 8882 2eea FA540000 		.4byte	.LASF313
 8883 2eee 2D       		.byte	0x2d
 8884 2eef 15       		.byte	0x15
 8885 2ef0 644F0000 		.4byte	0x4f64
 8886 2ef4 F82E0000 		.4byte	0x2ef8
 8887 2ef8 28       		.uleb128 0x28
 8888 2ef9 644F0000 		.4byte	0x4f64
 8889 2efd 13       		.uleb128 0x13
 8890 2efe 404F0000 		.4byte	0x4f40
 8891 2f02 00       		.byte	0
 8892 2f03 00       		.byte	0
 8893 2f04 19       		.uleb128 0x19
 8894 2f05 1F130000 		.4byte	.LASF314
 8895 2f09 2D       		.byte	0x2d
 8896 2f0a 8A01     		.2byte	0x18a
 8897 2f0c 644F0000 		.4byte	0x4f64
 8898 2f10 00       		.byte	0
 8899 2f11 38       		.uleb128 0x38
 8900 2f12 20270000 		.4byte	.LASF561
 8901 2f16 39       		.uleb128 0x39
 8902 2f17 641E0000 		.4byte	.LASF315
ARM GAS  /tmp/ccB5ynkg.s 			page 159


 8903 2f1b 39       		.uleb128 0x39
 8904 2f1c 9C2D0000 		.4byte	.LASF316
 8905 2f20 39       		.uleb128 0x39
 8906 2f21 3A4E0000 		.4byte	.LASF317
 8907 2f25 3A       		.uleb128 0x3a
 8908 2f26 023B0000 		.4byte	.LASF319
 8909 2f2a 04       		.byte	0x4
 8910 2f2b 2D       		.byte	0x2d
 8911 2f2c C0       		.byte	0xc0
 8912 2f2d 01       		.byte	0x1
 8913 2f2e 95300000 		.4byte	0x3095
 8914 2f32 0C       		.uleb128 0xc
 8915 2f33 64140000 		.4byte	.LASF318
 8916 2f37 2D       		.byte	0x2d
 8917 2f38 C4       		.byte	0xc4
 8918 2f39 F0500000 		.4byte	0x50f0
 8919 2f3d 00       		.byte	0
 8920 2f3e 29       		.uleb128 0x29
 8921 2f3f 023B0000 		.4byte	.LASF319
 8922 2f43 2D       		.byte	0x2d
 8923 2f44 C7       		.byte	0xc7
 8924 2f45 F6500000 		.4byte	0x50f6
 8925 2f49 01       		.byte	0x1
 8926 2f4a 522F0000 		.4byte	0x2f52
 8927 2f4e 582F0000 		.4byte	0x2f58
 8928 2f52 28       		.uleb128 0x28
 8929 2f53 F6500000 		.4byte	0x50f6
 8930 2f57 00       		.byte	0
 8931 2f58 29       		.uleb128 0x29
 8932 2f59 023B0000 		.4byte	.LASF319
 8933 2f5d 2D       		.byte	0x2d
 8934 2f5e C8       		.byte	0xc8
 8935 2f5f F6500000 		.4byte	0x50f6
 8936 2f63 01       		.byte	0x1
 8937 2f64 6C2F0000 		.4byte	0x2f6c
 8938 2f68 772F0000 		.4byte	0x2f77
 8939 2f6c 28       		.uleb128 0x28
 8940 2f6d F6500000 		.4byte	0x50f6
 8941 2f71 13       		.uleb128 0x13
 8942 2f72 FC500000 		.4byte	0x50fc
 8943 2f76 00       		.byte	0
 8944 2f77 27       		.uleb128 0x27
 8945 2f78 023B0000 		.4byte	.LASF319
 8946 2f7c 2D       		.byte	0x2d
 8947 2f7d CB       		.byte	0xcb
 8948 2f7e F6500000 		.4byte	0x50f6
 8949 2f82 8A2F0000 		.4byte	0x2f8a
 8950 2f86 952F0000 		.4byte	0x2f95
 8951 2f8a 28       		.uleb128 0x28
 8952 2f8b F6500000 		.4byte	0x50f6
 8953 2f8f 13       		.uleb128 0x13
 8954 2f90 F0500000 		.4byte	0x50f0
 8955 2f94 00       		.byte	0
 8956 2f95 3B       		.uleb128 0x3b
 8957 2f96 DE130000 		.4byte	.LASF298
 8958 2f9a 2D       		.byte	0x2d
 8959 2f9b CE       		.byte	0xce
ARM GAS  /tmp/ccB5ynkg.s 			page 160


 8960 2f9c 9A010000 		.4byte	.LASF562
 8961 2fa0 CF4F0000 		.4byte	0x4fcf
 8962 2fa4 AC2F0000 		.4byte	0x2fac
 8963 2fa8 B72F0000 		.4byte	0x2fb7
 8964 2fac 28       		.uleb128 0x28
 8965 2fad F6500000 		.4byte	0x50f6
 8966 2fb1 13       		.uleb128 0x13
 8967 2fb2 FC500000 		.4byte	0x50fc
 8968 2fb6 00       		.byte	0
 8969 2fb7 2E       		.uleb128 0x2e
 8970 2fb8 C7400000 		.4byte	.LASF321
 8971 2fbc 2D       		.byte	0x2d
 8972 2fbd D4       		.byte	0xd4
 8973 2fbe D9490000 		.4byte	.LASF563
 8974 2fc2 02510000 		.4byte	0x5102
 8975 2fc6 01       		.byte	0x1
 8976 2fc7 CF2F0000 		.4byte	0x2fcf
 8977 2fcb D52F0000 		.4byte	0x2fd5
 8978 2fcf 28       		.uleb128 0x28
 8979 2fd0 08510000 		.4byte	0x5108
 8980 2fd4 00       		.byte	0
 8981 2fd5 2E       		.uleb128 0x2e
 8982 2fd6 8B130000 		.4byte	.LASF323
 8983 2fda 2D       		.byte	0x2d
 8984 2fdb D8       		.byte	0xd8
 8985 2fdc 01320000 		.4byte	.LASF564
 8986 2fe0 7F4F0000 		.4byte	0x4f7f
 8987 2fe4 01       		.byte	0x1
 8988 2fe5 ED2F0000 		.4byte	0x2fed
 8989 2fe9 F32F0000 		.4byte	0x2ff3
 8990 2fed 28       		.uleb128 0x28
 8991 2fee 08510000 		.4byte	0x5108
 8992 2ff2 00       		.byte	0
 8993 2ff3 2E       		.uleb128 0x2e
 8994 2ff4 993E0000 		.4byte	.LASF325
 8995 2ff8 2D       		.byte	0x2d
 8996 2ff9 DC       		.byte	0xdc
 8997 2ffa A64C0000 		.4byte	.LASF565
 8998 2ffe CF4F0000 		.4byte	0x4fcf
 8999 3002 01       		.byte	0x1
 9000 3003 0B300000 		.4byte	0x300b
 9001 3007 11300000 		.4byte	0x3011
 9002 300b 28       		.uleb128 0x28
 9003 300c F6500000 		.4byte	0x50f6
 9004 3010 00       		.byte	0
 9005 3011 2E       		.uleb128 0x2e
 9006 3012 993E0000 		.4byte	.LASF325
 9007 3016 2D       		.byte	0x2d
 9008 3017 E3       		.byte	0xe3
 9009 3018 FF480000 		.4byte	.LASF566
 9010 301c 86340000 		.4byte	0x3486
 9011 3020 01       		.byte	0x1
 9012 3021 29300000 		.4byte	0x3029
 9013 3025 34300000 		.4byte	0x3034
 9014 3029 28       		.uleb128 0x28
 9015 302a F6500000 		.4byte	0x50f6
 9016 302e 13       		.uleb128 0x13
ARM GAS  /tmp/ccB5ynkg.s 			page 161


 9017 302f 37000000 		.4byte	0x37
 9018 3033 00       		.byte	0
 9019 3034 2E       		.uleb128 0x2e
 9020 3035 1A5D0000 		.4byte	.LASF328
 9021 3039 2D       		.byte	0x2d
 9022 303a EB       		.byte	0xeb
 9023 303b 2C540000 		.4byte	.LASF567
 9024 303f 2D010000 		.4byte	0x12d
 9025 3043 01       		.byte	0x1
 9026 3044 4C300000 		.4byte	0x304c
 9027 3048 57300000 		.4byte	0x3057
 9028 304c 28       		.uleb128 0x28
 9029 304d 08510000 		.4byte	0x5108
 9030 3051 13       		.uleb128 0x13
 9031 3052 FC500000 		.4byte	0x50fc
 9032 3056 00       		.byte	0
 9033 3057 2E       		.uleb128 0x2e
 9034 3058 0A2F0000 		.4byte	.LASF330
 9035 305c 2D       		.byte	0x2d
 9036 305d EF       		.byte	0xef
 9037 305e EC190000 		.4byte	.LASF568
 9038 3062 2D010000 		.4byte	0x12d
 9039 3066 01       		.byte	0x1
 9040 3067 6F300000 		.4byte	0x306f
 9041 306b 7A300000 		.4byte	0x307a
 9042 306f 28       		.uleb128 0x28
 9043 3070 08510000 		.4byte	0x5108
 9044 3074 13       		.uleb128 0x13
 9045 3075 FC500000 		.4byte	0x50fc
 9046 3079 00       		.byte	0
 9047 307a 3C       		.uleb128 0x3c
 9048 307b 503F0000 		.4byte	.LASF332
 9049 307f 2D       		.byte	0x2d
 9050 3080 F3       		.byte	0xf3
 9051 3081 E9570000 		.4byte	.LASF569
 9052 3085 2D010000 		.4byte	0x12d
 9053 3089 01       		.byte	0x1
 9054 308a 8E300000 		.4byte	0x308e
 9055 308e 28       		.uleb128 0x28
 9056 308f 08510000 		.4byte	0x5108
 9057 3093 00       		.byte	0
 9058 3094 00       		.byte	0
 9059 3095 1D       		.uleb128 0x1d
 9060 3096 F8180000 		.4byte	.LASF334
 9061 309a 2D       		.byte	0x2d
 9062 309b 8601     		.2byte	0x186
 9063 309d 6A4F0000 		.4byte	0x4f6a
 9064 30a1 1D       		.uleb128 0x1d
 9065 30a2 4D120000 		.4byte	.LASF335
 9066 30a6 2D       		.byte	0x2d
 9067 30a7 8701     		.2byte	0x187
 9068 30a9 854F0000 		.4byte	0x4f85
 9069 30ad 3D       		.uleb128 0x3d
 9070 30ae 7A5F0000 		.4byte	.LASF336
 9071 30b2 2D       		.byte	0x2d
 9072 30b3 8D01     		.2byte	0x18d
 9073 30b5 46350000 		.4byte	.LASF570
ARM GAS  /tmp/ccB5ynkg.s 			page 162


 9074 30b9 9F4F0000 		.4byte	0x4f9f
 9075 30bd 01       		.byte	0x1
 9076 30be C6300000 		.4byte	0x30c6
 9077 30c2 CC300000 		.4byte	0x30cc
 9078 30c6 28       		.uleb128 0x28
 9079 30c7 A54F0000 		.4byte	0x4fa5
 9080 30cb 00       		.byte	0
 9081 30cc 07       		.uleb128 0x7
 9082 30cd C42E0000 		.4byte	0x2ec4
 9083 30d1 3D       		.uleb128 0x3d
 9084 30d2 805A0000 		.4byte	.LASF337
 9085 30d6 2D       		.byte	0x2d
 9086 30d7 9101     		.2byte	0x191
 9087 30d9 87480000 		.4byte	.LASF571
 9088 30dd 2D010000 		.4byte	0x12d
 9089 30e1 01       		.byte	0x1
 9090 30e2 EA300000 		.4byte	0x30ea
 9091 30e6 F0300000 		.4byte	0x30f0
 9092 30ea 28       		.uleb128 0x28
 9093 30eb A54F0000 		.4byte	0x4fa5
 9094 30ef 00       		.byte	0
 9095 30f0 3D       		.uleb128 0x3d
 9096 30f1 A11D0000 		.4byte	.LASF340
 9097 30f5 2D       		.byte	0x2d
 9098 30f6 0302     		.2byte	0x203
 9099 30f8 05410000 		.4byte	.LASF572
 9100 30fc 25000000 		.4byte	0x25
 9101 3100 01       		.byte	0x1
 9102 3101 09310000 		.4byte	0x3109
 9103 3105 0F310000 		.4byte	0x310f
 9104 3109 28       		.uleb128 0x28
 9105 310a A54F0000 		.4byte	0x4fa5
 9106 310e 00       		.byte	0
 9107 310f 3E       		.uleb128 0x3e
 9108 3110 DD440000 		.4byte	.LASF342
 9109 3114 2D       		.byte	0x2d
 9110 3115 9701     		.2byte	0x197
 9111 3117 81450000 		.4byte	.LASF573
 9112 311b 01       		.byte	0x1
 9113 311c 24310000 		.4byte	0x3124
 9114 3120 2F310000 		.4byte	0x312f
 9115 3124 28       		.uleb128 0x28
 9116 3125 AB4F0000 		.4byte	0x4fab
 9117 3129 13       		.uleb128 0x13
 9118 312a B14F0000 		.4byte	0x4fb1
 9119 312e 00       		.byte	0
 9120 312f 3E       		.uleb128 0x3e
 9121 3130 594D0000 		.4byte	.LASF343
 9122 3134 2D       		.byte	0x2d
 9123 3135 9F01     		.2byte	0x19f
 9124 3137 020C0000 		.4byte	.LASF574
 9125 313b 01       		.byte	0x1
 9126 313c 44310000 		.4byte	0x3144
 9127 3140 4F310000 		.4byte	0x314f
 9128 3144 28       		.uleb128 0x28
 9129 3145 AB4F0000 		.4byte	0x4fab
 9130 3149 13       		.uleb128 0x13
ARM GAS  /tmp/ccB5ynkg.s 			page 163


 9131 314a B14F0000 		.4byte	0x4fb1
 9132 314e 00       		.byte	0
 9133 314f 3D       		.uleb128 0x3d
 9134 3150 7D270000 		.4byte	.LASF346
 9135 3154 2D       		.byte	0x2d
 9136 3155 0E02     		.2byte	0x20e
 9137 3157 47200000 		.4byte	.LASF575
 9138 315b 2D010000 		.4byte	0x12d
 9139 315f 01       		.byte	0x1
 9140 3160 68310000 		.4byte	0x3168
 9141 3164 73310000 		.4byte	0x3173
 9142 3168 28       		.uleb128 0x28
 9143 3169 AB4F0000 		.4byte	0x4fab
 9144 316d 13       		.uleb128 0x13
 9145 316e B14F0000 		.4byte	0x4fb1
 9146 3172 00       		.byte	0
 9147 3173 3D       		.uleb128 0x3d
 9148 3174 BA340000 		.4byte	.LASF348
 9149 3178 2D       		.byte	0x2d
 9150 3179 1F02     		.2byte	0x21f
 9151 317b FF540000 		.4byte	.LASF576
 9152 317f 37000000 		.4byte	0x37
 9153 3183 01       		.byte	0x1
 9154 3184 8C310000 		.4byte	0x318c
 9155 3188 97310000 		.4byte	0x3197
 9156 318c 28       		.uleb128 0x28
 9157 318d A54F0000 		.4byte	0x4fa5
 9158 3191 13       		.uleb128 0x13
 9159 3192 7F4F0000 		.4byte	0x4f7f
 9160 3196 00       		.byte	0
 9161 3197 3D       		.uleb128 0x3d
 9162 3198 A44A0000 		.4byte	.LASF350
 9163 319c 2D       		.byte	0x2d
 9164 319d 2C02     		.2byte	0x22c
 9165 319f 9E140000 		.4byte	.LASF577
 9166 31a3 2D010000 		.4byte	0x12d
 9167 31a7 01       		.byte	0x1
 9168 31a8 B0310000 		.4byte	0x31b0
 9169 31ac BB310000 		.4byte	0x31bb
 9170 31b0 28       		.uleb128 0x28
 9171 31b1 A54F0000 		.4byte	0x4fa5
 9172 31b5 13       		.uleb128 0x13
 9173 31b6 7F4F0000 		.4byte	0x4f7f
 9174 31ba 00       		.byte	0
 9175 31bb 3D       		.uleb128 0x3d
 9176 31bc E8310000 		.4byte	.LASF352
 9177 31c0 2D       		.byte	0x2d
 9178 31c1 3802     		.2byte	0x238
 9179 31c3 F53E0000 		.4byte	.LASF578
 9180 31c7 B74F0000 		.4byte	0x4fb7
 9181 31cb 01       		.byte	0x1
 9182 31cc D4310000 		.4byte	0x31d4
 9183 31d0 DF310000 		.4byte	0x31df
 9184 31d4 28       		.uleb128 0x28
 9185 31d5 A54F0000 		.4byte	0x4fa5
 9186 31d9 13       		.uleb128 0x13
 9187 31da 95300000 		.4byte	0x3095
ARM GAS  /tmp/ccB5ynkg.s 			page 164


 9188 31de 00       		.byte	0
 9189 31df 3D       		.uleb128 0x3d
 9190 31e0 E8310000 		.4byte	.LASF352
 9191 31e4 2D       		.byte	0x2d
 9192 31e5 4402     		.2byte	0x244
 9193 31e7 551C0000 		.4byte	.LASF579
 9194 31eb B74F0000 		.4byte	0x4fb7
 9195 31ef 01       		.byte	0x1
 9196 31f0 F8310000 		.4byte	0x31f8
 9197 31f4 08320000 		.4byte	0x3208
 9198 31f8 28       		.uleb128 0x28
 9199 31f9 A54F0000 		.4byte	0x4fa5
 9200 31fd 13       		.uleb128 0x13
 9201 31fe A1300000 		.4byte	0x30a1
 9202 3202 13       		.uleb128 0x13
 9203 3203 D9000000 		.4byte	0xd9
 9204 3207 00       		.byte	0
 9205 3208 3D       		.uleb128 0x3d
 9206 3209 E20F0000 		.4byte	.LASF355
 9207 320d 2D       		.byte	0x2d
 9208 320e B301     		.2byte	0x1b3
 9209 3210 54230000 		.4byte	.LASF580
 9210 3214 27320000 		.4byte	0x3227
 9211 3218 01       		.byte	0x1
 9212 3219 21320000 		.4byte	0x3221
 9213 321d 27320000 		.4byte	0x3227
 9214 3221 28       		.uleb128 0x28
 9215 3222 AB4F0000 		.4byte	0x4fab
 9216 3226 00       		.byte	0
 9217 3227 07       		.uleb128 0x7
 9218 3228 162F0000 		.4byte	0x2f16
 9219 322c 3D       		.uleb128 0x3d
 9220 322d 152F0000 		.4byte	.LASF357
 9221 3231 2D       		.byte	0x2d
 9222 3232 B701     		.2byte	0x1b7
 9223 3234 3C0F0000 		.4byte	.LASF581
 9224 3238 27320000 		.4byte	0x3227
 9225 323c 01       		.byte	0x1
 9226 323d 45320000 		.4byte	0x3245
 9227 3241 4B320000 		.4byte	0x324b
 9228 3245 28       		.uleb128 0x28
 9229 3246 AB4F0000 		.4byte	0x4fab
 9230 324a 00       		.byte	0
 9231 324b 3E       		.uleb128 0x3e
 9232 324c E05F0000 		.4byte	.LASF359
 9233 3250 2D       		.byte	0x2d
 9234 3251 BB01     		.2byte	0x1bb
 9235 3253 483E0000 		.4byte	.LASF582
 9236 3257 01       		.byte	0x1
 9237 3258 60320000 		.4byte	0x3260
 9238 325c 6B320000 		.4byte	0x326b
 9239 3260 28       		.uleb128 0x28
 9240 3261 AB4F0000 		.4byte	0x4fab
 9241 3265 13       		.uleb128 0x13
 9242 3266 BD4F0000 		.4byte	0x4fbd
 9243 326a 00       		.byte	0
 9244 326b 3D       		.uleb128 0x3d
ARM GAS  /tmp/ccB5ynkg.s 			page 165


 9245 326c E20F0000 		.4byte	.LASF355
 9246 3270 2D       		.byte	0x2d
 9247 3271 BF01     		.2byte	0x1bf
 9248 3273 F21E0000 		.4byte	.LASF583
 9249 3277 8A320000 		.4byte	0x328a
 9250 327b 01       		.byte	0x1
 9251 327c 84320000 		.4byte	0x3284
 9252 3280 8A320000 		.4byte	0x328a
 9253 3284 28       		.uleb128 0x28
 9254 3285 A54F0000 		.4byte	0x4fa5
 9255 3289 00       		.byte	0
 9256 328a 07       		.uleb128 0x7
 9257 328b 1B2F0000 		.4byte	0x2f1b
 9258 328f 3D       		.uleb128 0x3d
 9259 3290 152F0000 		.4byte	.LASF357
 9260 3294 2D       		.byte	0x2d
 9261 3295 C301     		.2byte	0x1c3
 9262 3297 56420000 		.4byte	.LASF584
 9263 329b 8A320000 		.4byte	0x328a
 9264 329f 01       		.byte	0x1
 9265 32a0 A8320000 		.4byte	0x32a8
 9266 32a4 AE320000 		.4byte	0x32ae
 9267 32a8 28       		.uleb128 0x28
 9268 32a9 A54F0000 		.4byte	0x4fa5
 9269 32ad 00       		.byte	0
 9270 32ae 3E       		.uleb128 0x3e
 9271 32af E05F0000 		.4byte	.LASF359
 9272 32b3 2D       		.byte	0x2d
 9273 32b4 C701     		.2byte	0x1c7
 9274 32b6 01220000 		.4byte	.LASF585
 9275 32ba 01       		.byte	0x1
 9276 32bb C3320000 		.4byte	0x32c3
 9277 32bf CE320000 		.4byte	0x32ce
 9278 32c3 28       		.uleb128 0x28
 9279 32c4 A54F0000 		.4byte	0x4fa5
 9280 32c8 13       		.uleb128 0x13
 9281 32c9 C34F0000 		.4byte	0x4fc3
 9282 32cd 00       		.byte	0
 9283 32ce 3D       		.uleb128 0x3d
 9284 32cf 68550000 		.4byte	.LASF364
 9285 32d3 2D       		.byte	0x2d
 9286 32d4 5302     		.2byte	0x253
 9287 32d6 3C490000 		.4byte	.LASF586
 9288 32da 9F4F0000 		.4byte	0x4f9f
 9289 32de 01       		.byte	0x1
 9290 32df E7320000 		.4byte	0x32e7
 9291 32e3 ED320000 		.4byte	0x32ed
 9292 32e7 28       		.uleb128 0x28
 9293 32e8 A54F0000 		.4byte	0x4fa5
 9294 32ec 00       		.byte	0
 9295 32ed 3D       		.uleb128 0x3d
 9296 32ee 6A580000 		.4byte	.LASF366
 9297 32f2 2D       		.byte	0x2d
 9298 32f3 5D02     		.2byte	0x25d
 9299 32f5 570C0000 		.4byte	.LASF587
 9300 32f9 2D010000 		.4byte	0x12d
 9301 32fd 01       		.byte	0x1
ARM GAS  /tmp/ccB5ynkg.s 			page 166


 9302 32fe 06330000 		.4byte	0x3306
 9303 3302 0C330000 		.4byte	0x330c
 9304 3306 28       		.uleb128 0x28
 9305 3307 A54F0000 		.4byte	0x4fa5
 9306 330b 00       		.byte	0
 9307 330c 3D       		.uleb128 0x3d
 9308 330d 59320000 		.4byte	.LASF368
 9309 3311 2D       		.byte	0x2d
 9310 3312 6702     		.2byte	0x267
 9311 3314 D2400000 		.4byte	.LASF588
 9312 3318 25000000 		.4byte	0x25
 9313 331c 01       		.byte	0x1
 9314 331d 25330000 		.4byte	0x3325
 9315 3321 2B330000 		.4byte	0x332b
 9316 3325 28       		.uleb128 0x28
 9317 3326 A54F0000 		.4byte	0x4fa5
 9318 332a 00       		.byte	0
 9319 332b 3E       		.uleb128 0x3e
 9320 332c AE1D0000 		.4byte	.LASF370
 9321 3330 2D       		.byte	0x2d
 9322 3331 7602     		.2byte	0x276
 9323 3333 7C070000 		.4byte	.LASF589
 9324 3337 01       		.byte	0x1
 9325 3338 40330000 		.4byte	0x3340
 9326 333c 4B330000 		.4byte	0x334b
 9327 3340 28       		.uleb128 0x28
 9328 3341 AB4F0000 		.4byte	0x4fab
 9329 3345 13       		.uleb128 0x13
 9330 3346 B14F0000 		.4byte	0x4fb1
 9331 334a 00       		.byte	0
 9332 334b 3D       		.uleb128 0x3d
 9333 334c 84130000 		.4byte	.LASF372
 9334 3350 2D       		.byte	0x2d
 9335 3351 8002     		.2byte	0x280
 9336 3353 2E1A0000 		.4byte	.LASF590
 9337 3357 2D010000 		.4byte	0x12d
 9338 335b 01       		.byte	0x1
 9339 335c 64330000 		.4byte	0x3364
 9340 3360 6F330000 		.4byte	0x336f
 9341 3364 28       		.uleb128 0x28
 9342 3365 AB4F0000 		.4byte	0x4fab
 9343 3369 13       		.uleb128 0x13
 9344 336a B14F0000 		.4byte	0x4fb1
 9345 336e 00       		.byte	0
 9346 336f 3D       		.uleb128 0x3d
 9347 3370 03370000 		.4byte	.LASF374
 9348 3374 2D       		.byte	0x2d
 9349 3375 8A02     		.2byte	0x28a
 9350 3377 60020000 		.4byte	.LASF591
 9351 337b 37000000 		.4byte	0x37
 9352 337f 01       		.byte	0x1
 9353 3380 88330000 		.4byte	0x3388
 9354 3384 93330000 		.4byte	0x3393
 9355 3388 28       		.uleb128 0x28
 9356 3389 A54F0000 		.4byte	0x4fa5
 9357 338d 13       		.uleb128 0x13
 9358 338e 7F4F0000 		.4byte	0x4f7f
ARM GAS  /tmp/ccB5ynkg.s 			page 167


 9359 3392 00       		.byte	0
 9360 3393 3D       		.uleb128 0x3d
 9361 3394 BD230000 		.4byte	.LASF376
 9362 3398 2D       		.byte	0x2d
 9363 3399 9B02     		.2byte	0x29b
 9364 339b 0F090000 		.4byte	.LASF592
 9365 339f 2D010000 		.4byte	0x12d
 9366 33a3 01       		.byte	0x1
 9367 33a4 AC330000 		.4byte	0x33ac
 9368 33a8 B7330000 		.4byte	0x33b7
 9369 33ac 28       		.uleb128 0x28
 9370 33ad A54F0000 		.4byte	0x4fa5
 9371 33b1 13       		.uleb128 0x13
 9372 33b2 7F4F0000 		.4byte	0x4f7f
 9373 33b6 00       		.byte	0
 9374 33b7 3D       		.uleb128 0x3d
 9375 33b8 CA390000 		.4byte	.LASF378
 9376 33bc 2D       		.byte	0x2d
 9377 33bd AC02     		.2byte	0x2ac
 9378 33bf F94D0000 		.4byte	.LASF593
 9379 33c3 B74F0000 		.4byte	0x4fb7
 9380 33c7 01       		.byte	0x1
 9381 33c8 D0330000 		.4byte	0x33d0
 9382 33cc DB330000 		.4byte	0x33db
 9383 33d0 28       		.uleb128 0x28
 9384 33d1 A54F0000 		.4byte	0x4fa5
 9385 33d5 13       		.uleb128 0x13
 9386 33d6 95300000 		.4byte	0x3095
 9387 33da 00       		.byte	0
 9388 33db 3D       		.uleb128 0x3d
 9389 33dc CA390000 		.4byte	.LASF378
 9390 33e0 2D       		.byte	0x2d
 9391 33e1 BC02     		.2byte	0x2bc
 9392 33e3 335F0000 		.4byte	.LASF594
 9393 33e7 B74F0000 		.4byte	0x4fb7
 9394 33eb 01       		.byte	0x1
 9395 33ec F4330000 		.4byte	0x33f4
 9396 33f0 04340000 		.4byte	0x3404
 9397 33f4 28       		.uleb128 0x28
 9398 33f5 A54F0000 		.4byte	0x4fa5
 9399 33f9 13       		.uleb128 0x13
 9400 33fa A1300000 		.4byte	0x30a1
 9401 33fe 13       		.uleb128 0x13
 9402 33ff D9000000 		.4byte	0xd9
 9403 3403 00       		.byte	0
 9404 3404 3D       		.uleb128 0x3d
 9405 3405 FA5E0000 		.4byte	.LASF381
 9406 3409 2D       		.byte	0x2d
 9407 340a E001     		.2byte	0x1e0
 9408 340c 37360000 		.4byte	.LASF595
 9409 3410 23340000 		.4byte	0x3423
 9410 3414 01       		.byte	0x1
 9411 3415 1D340000 		.4byte	0x341d
 9412 3419 23340000 		.4byte	0x3423
 9413 341d 28       		.uleb128 0x28
 9414 341e AB4F0000 		.4byte	0x4fab
 9415 3422 00       		.byte	0
ARM GAS  /tmp/ccB5ynkg.s 			page 168


 9416 3423 07       		.uleb128 0x7
 9417 3424 202F0000 		.4byte	0x2f20
 9418 3428 3F       		.uleb128 0x3f
 9419 3429 656E6400 		.ascii	"end\000"
 9420 342d 2D       		.byte	0x2d
 9421 342e E401     		.2byte	0x1e4
 9422 3430 70410000 		.4byte	.LASF596
 9423 3434 23340000 		.4byte	0x3423
 9424 3438 01       		.byte	0x1
 9425 3439 41340000 		.4byte	0x3441
 9426 343d 47340000 		.4byte	0x3447
 9427 3441 28       		.uleb128 0x28
 9428 3442 AB4F0000 		.4byte	0x4fab
 9429 3446 00       		.byte	0
 9430 3447 3E       		.uleb128 0x3e
 9431 3448 E7110000 		.4byte	.LASF383
 9432 344c 2D       		.byte	0x2d
 9433 344d E801     		.2byte	0x1e8
 9434 344f 0B420000 		.4byte	.LASF597
 9435 3453 01       		.byte	0x1
 9436 3454 5C340000 		.4byte	0x345c
 9437 3458 67340000 		.4byte	0x3467
 9438 345c 28       		.uleb128 0x28
 9439 345d AB4F0000 		.4byte	0x4fab
 9440 3461 13       		.uleb128 0x13
 9441 3462 C94F0000 		.4byte	0x4fc9
 9442 3466 00       		.byte	0
 9443 3467 3D       		.uleb128 0x3d
 9444 3468 FA5E0000 		.4byte	.LASF381
 9445 346c 2D       		.byte	0x2d
 9446 346d EC01     		.2byte	0x1ec
 9447 346f 632F0000 		.4byte	.LASF598
 9448 3473 86340000 		.4byte	0x3486
 9449 3477 01       		.byte	0x1
 9450 3478 80340000 		.4byte	0x3480
 9451 347c 86340000 		.4byte	0x3486
 9452 3480 28       		.uleb128 0x28
 9453 3481 A54F0000 		.4byte	0x4fa5
 9454 3485 00       		.byte	0
 9455 3486 07       		.uleb128 0x7
 9456 3487 252F0000 		.4byte	0x2f25
 9457 348b 3F       		.uleb128 0x3f
 9458 348c 656E6400 		.ascii	"end\000"
 9459 3490 2D       		.byte	0x2d
 9460 3491 F201     		.2byte	0x1f2
 9461 3493 9E590000 		.4byte	.LASF599
 9462 3497 86340000 		.4byte	0x3486
 9463 349b 01       		.byte	0x1
 9464 349c A4340000 		.4byte	0x34a4
 9465 34a0 AA340000 		.4byte	0x34aa
 9466 34a4 28       		.uleb128 0x28
 9467 34a5 A54F0000 		.4byte	0x4fa5
 9468 34a9 00       		.byte	0
 9469 34aa 3E       		.uleb128 0x3e
 9470 34ab E7110000 		.4byte	.LASF383
 9471 34af 2D       		.byte	0x2d
 9472 34b0 F601     		.2byte	0x1f6
ARM GAS  /tmp/ccB5ynkg.s 			page 169


 9473 34b2 DC340000 		.4byte	.LASF600
 9474 34b6 01       		.byte	0x1
 9475 34b7 BF340000 		.4byte	0x34bf
 9476 34bb CA340000 		.4byte	0x34ca
 9477 34bf 28       		.uleb128 0x28
 9478 34c0 A54F0000 		.4byte	0x4fa5
 9479 34c4 13       		.uleb128 0x13
 9480 34c5 CF4F0000 		.4byte	0x4fcf
 9481 34c9 00       		.byte	0
 9482 34ca 40       		.uleb128 0x40
 9483 34cb 39100000 		.4byte	.LASF389
 9484 34cf 2D       		.byte	0x2d
 9485 34d0 FA01     		.2byte	0x1fa
 9486 34d2 AB4F0000 		.4byte	0x4fab
 9487 34d6 01       		.byte	0x1
 9488 34d7 DF340000 		.4byte	0x34df
 9489 34db E5340000 		.4byte	0x34e5
 9490 34df 28       		.uleb128 0x28
 9491 34e0 AB4F0000 		.4byte	0x4fab
 9492 34e4 00       		.byte	0
 9493 34e5 07       		.uleb128 0x7
 9494 34e6 112F0000 		.4byte	0x2f11
 9495 34ea 41       		.uleb128 0x41
 9496 34eb 9D1A0000 		.4byte	.LASF390
 9497 34ef 2D2E0000 		.4byte	0x2e2d
 9498 34f3 00       		.byte	0
 9499 34f4 07       		.uleb128 0x7
 9500 34f5 2D2E0000 		.4byte	0x2e2d
 9501 34f9 07       		.uleb128 0x7
 9502 34fa B22E0000 		.4byte	0x2eb2
 9503 34fe 26       		.uleb128 0x26
 9504 34ff AD1A0000 		.4byte	.LASF601
 9505 3503 14       		.byte	0x14
 9506 3504 10       		.byte	0x10
 9507 3505 09       		.byte	0x9
 9508 3506 7E360000 		.4byte	0x367e
 9509 350a 2B       		.uleb128 0x2b
 9510 350b 65110000 		.4byte	0x1165
 9511 350f 00       		.byte	0
 9512 3510 0C       		.uleb128 0xc
 9513 3511 1F150000 		.4byte	.LASF602
 9514 3515 10       		.byte	0x10
 9515 3516 0B       		.byte	0xb
 9516 3517 DA4F0000 		.4byte	0x4fda
 9517 351b 00       		.byte	0
 9518 351c 0C       		.uleb128 0xc
 9519 351d A1060000 		.4byte	.LASF603
 9520 3521 10       		.byte	0x10
 9521 3522 0C       		.byte	0xc
 9522 3523 25000000 		.4byte	0x25
 9523 3527 04       		.byte	0x4
 9524 3528 0C       		.uleb128 0xc
 9525 3529 59320000 		.4byte	.LASF368
 9526 352d 10       		.byte	0x10
 9527 352e 0D       		.byte	0xd
 9528 352f 25000000 		.4byte	0x25
 9529 3533 08       		.byte	0x8
ARM GAS  /tmp/ccB5ynkg.s 			page 170


 9530 3534 0C       		.uleb128 0xc
 9531 3535 1F130000 		.4byte	.LASF314
 9532 3539 10       		.byte	0x10
 9533 353a 0E       		.byte	0xe
 9534 353b DA4F0000 		.4byte	0x4fda
 9535 353f 0C       		.byte	0xc
 9536 3540 0C       		.uleb128 0xc
 9537 3541 F0210000 		.4byte	.LASF604
 9538 3545 10       		.byte	0x10
 9539 3546 0F       		.byte	0xf
 9540 3547 DA4F0000 		.4byte	0x4fda
 9541 354b 10       		.byte	0x10
 9542 354c 2E       		.uleb128 0x2e
 9543 354d E34C0000 		.4byte	.LASF605
 9544 3551 10       		.byte	0x10
 9545 3552 25       		.byte	0x25
 9546 3553 6F3F0000 		.4byte	.LASF606
 9547 3557 2D010000 		.4byte	0x12d
 9548 355b 01       		.byte	0x1
 9549 355c 64350000 		.4byte	0x3564
 9550 3560 6F350000 		.4byte	0x356f
 9551 3564 28       		.uleb128 0x28
 9552 3565 E04F0000 		.4byte	0x4fe0
 9553 3569 13       		.uleb128 0x13
 9554 356a 2E4F0000 		.4byte	0x4f2e
 9555 356e 00       		.byte	0
 9556 356f 2E       		.uleb128 0x2e
 9557 3570 F9330000 		.4byte	.LASF392
 9558 3574 10       		.byte	0x10
 9559 3575 34       		.byte	0x34
 9560 3576 A7290000 		.4byte	.LASF607
 9561 357a 2D010000 		.4byte	0x12d
 9562 357e 01       		.byte	0x1
 9563 357f 87350000 		.4byte	0x3587
 9564 3583 92350000 		.4byte	0x3592
 9565 3587 28       		.uleb128 0x28
 9566 3588 E04F0000 		.4byte	0x4fe0
 9567 358c 13       		.uleb128 0x13
 9568 358d E64F0000 		.4byte	0x4fe6
 9569 3591 00       		.byte	0
 9570 3592 2E       		.uleb128 0x2e
 9571 3593 0A380000 		.4byte	.LASF608
 9572 3597 10       		.byte	0x10
 9573 3598 43       		.byte	0x43
 9574 3599 87120000 		.4byte	.LASF609
 9575 359d 2D010000 		.4byte	0x12d
 9576 35a1 01       		.byte	0x1
 9577 35a2 AA350000 		.4byte	0x35aa
 9578 35a6 B0350000 		.4byte	0x35b0
 9579 35aa 28       		.uleb128 0x28
 9580 35ab E04F0000 		.4byte	0x4fe0
 9581 35af 00       		.byte	0
 9582 35b0 2E       		.uleb128 0x2e
 9583 35b1 A8060000 		.4byte	.LASF610
 9584 35b5 10       		.byte	0x10
 9585 35b6 51       		.byte	0x51
 9586 35b7 6B1A0000 		.4byte	.LASF611
ARM GAS  /tmp/ccB5ynkg.s 			page 171


 9587 35bb 25000000 		.4byte	0x25
 9588 35bf 01       		.byte	0x1
 9589 35c0 C8350000 		.4byte	0x35c8
 9590 35c4 CE350000 		.4byte	0x35ce
 9591 35c8 28       		.uleb128 0x28
 9592 35c9 EC4F0000 		.4byte	0x4fec
 9593 35cd 00       		.byte	0
 9594 35ce 2E       		.uleb128 0x2e
 9595 35cf CA480000 		.4byte	.LASF612
 9596 35d3 10       		.byte	0x10
 9597 35d4 58       		.byte	0x58
 9598 35d5 344B0000 		.4byte	.LASF613
 9599 35d9 25000000 		.4byte	0x25
 9600 35dd 01       		.byte	0x1
 9601 35de E6350000 		.4byte	0x35e6
 9602 35e2 EC350000 		.4byte	0x35ec
 9603 35e6 28       		.uleb128 0x28
 9604 35e7 EC4F0000 		.4byte	0x4fec
 9605 35eb 00       		.byte	0
 9606 35ec 2E       		.uleb128 0x2e
 9607 35ed 994B0000 		.4byte	.LASF614
 9608 35f1 10       		.byte	0x10
 9609 35f2 5F       		.byte	0x5f
 9610 35f3 233C0000 		.4byte	.LASF615
 9611 35f7 2D010000 		.4byte	0x12d
 9612 35fb 01       		.byte	0x1
 9613 35fc 04360000 		.4byte	0x3604
 9614 3600 0F360000 		.4byte	0x360f
 9615 3604 28       		.uleb128 0x28
 9616 3605 E04F0000 		.4byte	0x4fe0
 9617 3609 13       		.uleb128 0x13
 9618 360a 2E4F0000 		.4byte	0x4f2e
 9619 360e 00       		.byte	0
 9620 360f 2E       		.uleb128 0x2e
 9621 3610 99230000 		.4byte	.LASF616
 9622 3614 10       		.byte	0x10
 9623 3615 69       		.byte	0x69
 9624 3616 FE500000 		.4byte	.LASF617
 9625 361a 2D010000 		.4byte	0x12d
 9626 361e 01       		.byte	0x1
 9627 361f 27360000 		.4byte	0x3627
 9628 3623 32360000 		.4byte	0x3632
 9629 3627 28       		.uleb128 0x28
 9630 3628 E04F0000 		.4byte	0x4fe0
 9631 362c 13       		.uleb128 0x13
 9632 362d E64F0000 		.4byte	0x4fe6
 9633 3631 00       		.byte	0
 9634 3632 2E       		.uleb128 0x2e
 9635 3633 C6160000 		.4byte	.LASF618
 9636 3637 10       		.byte	0x10
 9637 3638 73       		.byte	0x73
 9638 3639 6F4B0000 		.4byte	.LASF619
 9639 363d 2D010000 		.4byte	0x12d
 9640 3641 01       		.byte	0x1
 9641 3642 4A360000 		.4byte	0x364a
 9642 3646 50360000 		.4byte	0x3650
 9643 364a 28       		.uleb128 0x28
ARM GAS  /tmp/ccB5ynkg.s 			page 172


 9644 364b E04F0000 		.4byte	0x4fe0
 9645 364f 00       		.byte	0
 9646 3650 29       		.uleb128 0x29
 9647 3651 744F0000 		.4byte	.LASF620
 9648 3655 10       		.byte	0x10
 9649 3656 7D       		.byte	0x7d
 9650 3657 E04F0000 		.4byte	0x4fe0
 9651 365b 01       		.byte	0x1
 9652 365c 64360000 		.4byte	0x3664
 9653 3660 74360000 		.4byte	0x3674
 9654 3664 28       		.uleb128 0x28
 9655 3665 E04F0000 		.4byte	0x4fe0
 9656 3669 13       		.uleb128 0x13
 9657 366a DA4F0000 		.4byte	0x4fda
 9658 366e 13       		.uleb128 0x13
 9659 366f 25000000 		.4byte	0x25
 9660 3673 00       		.byte	0
 9661 3674 41       		.uleb128 0x41
 9662 3675 9D1A0000 		.4byte	.LASF390
 9663 3679 2E4F0000 		.4byte	0x4f2e
 9664 367d 00       		.byte	0
 9665 367e 07       		.uleb128 0x7
 9666 367f FE340000 		.4byte	0x34fe
 9667 3683 26       		.uleb128 0x26
 9668 3684 E85E0000 		.4byte	.LASF621
 9669 3688 4C       		.byte	0x4c
 9670 3689 08       		.byte	0x8
 9671 368a 0C       		.byte	0xc
 9672 368b 25380000 		.4byte	0x3825
 9673 368f 0C       		.uleb128 0xc
 9674 3690 CD1A0000 		.4byte	.LASF259
 9675 3694 08       		.byte	0x8
 9676 3695 0E       		.byte	0xe
 9677 3696 97010000 		.4byte	0x197
 9678 369a 00       		.byte	0
 9679 369b 2D       		.uleb128 0x2d
 9680 369c C43C0000 		.4byte	.LASF622
 9681 36a0 08       		.byte	0x8
 9682 36a1 1C       		.byte	0x1c
 9683 36a2 60010000 		.4byte	0x160
 9684 36a6 01       		.byte	0x1
 9685 36a7 2D       		.uleb128 0x2d
 9686 36a8 4E330000 		.4byte	.LASF623
 9687 36ac 08       		.byte	0x8
 9688 36ad 1D       		.byte	0x1d
 9689 36ae 6E060000 		.4byte	0x66e
 9690 36b2 01       		.byte	0x1
 9691 36b3 2E       		.uleb128 0x2e
 9692 36b4 25380000 		.4byte	.LASF470
 9693 36b8 08       		.byte	0x8
 9694 36b9 22       		.byte	0x22
 9695 36ba D61E0000 		.4byte	.LASF624
 9696 36be CE000000 		.4byte	0xce
 9697 36c2 01       		.byte	0x1
 9698 36c3 CB360000 		.4byte	0x36cb
 9699 36c7 D1360000 		.4byte	0x36d1
 9700 36cb 28       		.uleb128 0x28
ARM GAS  /tmp/ccB5ynkg.s 			page 173


 9701 36cc F74F0000 		.4byte	0x4ff7
 9702 36d0 00       		.byte	0
 9703 36d1 2E       		.uleb128 0x2e
 9704 36d2 EF230000 		.4byte	.LASF274
 9705 36d6 08       		.byte	0x8
 9706 36d7 24       		.byte	0x24
 9707 36d8 6A4D0000 		.4byte	.LASF625
 9708 36dc FD4F0000 		.4byte	0x4ffd
 9709 36e0 01       		.byte	0x1
 9710 36e1 E9360000 		.4byte	0x36e9
 9711 36e5 EF360000 		.4byte	0x36ef
 9712 36e9 28       		.uleb128 0x28
 9713 36ea 03500000 		.4byte	0x5003
 9714 36ee 00       		.byte	0
 9715 36ef 27       		.uleb128 0x27
 9716 36f0 E85E0000 		.4byte	.LASF621
 9717 36f4 08       		.byte	0x8
 9718 36f5 27       		.byte	0x27
 9719 36f6 03500000 		.4byte	0x5003
 9720 36fa 02370000 		.4byte	0x3702
 9721 36fe 08370000 		.4byte	0x3708
 9722 3702 28       		.uleb128 0x28
 9723 3703 03500000 		.4byte	0x5003
 9724 3707 00       		.byte	0
 9725 3708 48       		.uleb128 0x48
 9726 3709 F7170000 		.4byte	.LASF626
 9727 370d 08       		.byte	0x8
 9728 370e 2A       		.byte	0x2a
 9729 370f C55C0000 		.4byte	.LASF627
 9730 3713 25000000 		.4byte	0x25
 9731 3717 01       		.byte	0x1
 9732 3718 22370000 		.4byte	0x3722
 9733 371c 13       		.uleb128 0x13
 9734 371d 25000000 		.4byte	0x25
 9735 3721 00       		.byte	0
 9736 3722 48       		.uleb128 0x48
 9737 3723 BD270000 		.4byte	.LASF628
 9738 3727 08       		.byte	0x8
 9739 3728 2B       		.byte	0x2b
 9740 3729 AE3E0000 		.4byte	.LASF629
 9741 372d 03500000 		.4byte	0x5003
 9742 3731 01       		.byte	0x1
 9743 3732 55370000 		.4byte	0x3755
 9744 3736 13       		.uleb128 0x13
 9745 3737 BF000000 		.4byte	0xbf
 9746 373b 13       		.uleb128 0x13
 9747 373c 25000000 		.4byte	0x25
 9748 3740 13       		.uleb128 0x13
 9749 3741 9B360000 		.4byte	0x369b
 9750 3745 13       		.uleb128 0x13
 9751 3746 A7360000 		.4byte	0x36a7
 9752 374a 13       		.uleb128 0x13
 9753 374b BF000000 		.4byte	0xbf
 9754 374f 13       		.uleb128 0x13
 9755 3750 CE000000 		.4byte	0xce
 9756 3754 00       		.byte	0
 9757 3755 48       		.uleb128 0x48
ARM GAS  /tmp/ccB5ynkg.s 			page 174


 9758 3756 103B0000 		.4byte	.LASF630
 9759 375a 08       		.byte	0x8
 9760 375b 2F       		.byte	0x2f
 9761 375c 5C560000 		.4byte	.LASF631
 9762 3760 03500000 		.4byte	0x5003
 9763 3764 01       		.byte	0x1
 9764 3765 88370000 		.4byte	0x3788
 9765 3769 13       		.uleb128 0x13
 9766 376a BF000000 		.4byte	0xbf
 9767 376e 13       		.uleb128 0x13
 9768 376f 25000000 		.4byte	0x25
 9769 3773 13       		.uleb128 0x13
 9770 3774 9B360000 		.4byte	0x369b
 9771 3778 13       		.uleb128 0x13
 9772 3779 A7360000 		.4byte	0x36a7
 9773 377d 13       		.uleb128 0x13
 9774 377e BF000000 		.4byte	0xbf
 9775 3782 13       		.uleb128 0x13
 9776 3783 CE000000 		.4byte	0xce
 9777 3787 00       		.byte	0
 9778 3788 48       		.uleb128 0x48
 9779 3789 57380000 		.4byte	.LASF632
 9780 378d 08       		.byte	0x8
 9781 378e 32       		.byte	0x32
 9782 378f E72D0000 		.4byte	.LASF633
 9783 3793 03500000 		.4byte	0x5003
 9784 3797 01       		.byte	0x1
 9785 3798 B6370000 		.4byte	0x37b6
 9786 379c 13       		.uleb128 0x13
 9787 379d 09500000 		.4byte	0x5009
 9788 37a1 13       		.uleb128 0x13
 9789 37a2 9B360000 		.4byte	0x369b
 9790 37a6 13       		.uleb128 0x13
 9791 37a7 A7360000 		.4byte	0x36a7
 9792 37ab 13       		.uleb128 0x13
 9793 37ac BF000000 		.4byte	0xbf
 9794 37b0 13       		.uleb128 0x13
 9795 37b1 CE000000 		.4byte	0xce
 9796 37b5 00       		.byte	0
 9797 37b6 4D       		.uleb128 0x4d
 9798 37b7 74430000 		.4byte	.LASF634
 9799 37bb 08       		.byte	0x8
 9800 37bc 35       		.byte	0x35
 9801 37bd 5B080000 		.4byte	.LASF636
 9802 37c1 0F500000 		.4byte	0x500f
 9803 37c5 01       		.byte	0x1
 9804 37c6 4D       		.uleb128 0x4d
 9805 37c7 AF400000 		.4byte	.LASF635
 9806 37cb 08       		.byte	0x8
 9807 37cc 36       		.byte	0x36
 9808 37cd E23F0000 		.4byte	.LASF637
 9809 37d1 9B360000 		.4byte	0x369b
 9810 37d5 01       		.byte	0x1
 9811 37d6 47       		.uleb128 0x47
 9812 37d7 4A0C0000 		.4byte	.LASF638
 9813 37db 08       		.byte	0x8
 9814 37dc 37       		.byte	0x37
ARM GAS  /tmp/ccB5ynkg.s 			page 175


 9815 37dd 17230000 		.4byte	.LASF639
 9816 37e1 01       		.byte	0x1
 9817 37e2 EC370000 		.4byte	0x37ec
 9818 37e6 13       		.uleb128 0x13
 9819 37e7 9B360000 		.4byte	0x369b
 9820 37eb 00       		.byte	0
 9821 37ec 2C       		.uleb128 0x2c
 9822 37ed F8230000 		.4byte	.LASF640
 9823 37f1 08       		.byte	0x8
 9824 37f2 38       		.byte	0x38
 9825 37f3 06360000 		.4byte	.LASF641
 9826 37f7 01       		.byte	0x1
 9827 37f8 47       		.uleb128 0x47
 9828 37f9 B2500000 		.4byte	.LASF642
 9829 37fd 08       		.byte	0x8
 9830 37fe 39       		.byte	0x39
 9831 37ff F7430000 		.4byte	.LASF643
 9832 3803 01       		.byte	0x1
 9833 3804 0E380000 		.4byte	0x380e
 9834 3808 13       		.uleb128 0x13
 9835 3809 BF4D0000 		.4byte	0x4dbf
 9836 380d 00       		.byte	0
 9837 380e 46       		.uleb128 0x46
 9838 380f 68510000 		.4byte	.LASF644
 9839 3813 08       		.byte	0x8
 9840 3814 3A       		.byte	0x3a
 9841 3815 3F320000 		.4byte	.LASF645
 9842 3819 2D010000 		.4byte	0x12d
 9843 381d 01       		.byte	0x1
 9844 381e 13       		.uleb128 0x13
 9845 381f 0F500000 		.4byte	0x500f
 9846 3823 00       		.byte	0
 9847 3824 00       		.byte	0
 9848 3825 07       		.uleb128 0x7
 9849 3826 83360000 		.4byte	0x3683
 9850 382a 26       		.uleb128 0x26
 9851 382b 37190000 		.4byte	.LASF35
 9852 382f 4C       		.byte	0x4c
 9853 3830 09       		.byte	0x9
 9854 3831 0C       		.byte	0xc
 9855 3832 BB390000 		.4byte	0x39bb
 9856 3836 4E       		.uleb128 0x4e
 9857 3837 D3170000 		.4byte	.LASF906
 9858 383b 01       		.byte	0x1
 9859 383c 09       		.byte	0x9
 9860 383d 0E       		.byte	0xe
 9861 383e 01       		.byte	0x1
 9862 383f 6B380000 		.4byte	0x386b
 9863 3843 1B       		.uleb128 0x1b
 9864 3844 85160000 		.4byte	.LASF646
 9865 3848 00       		.sleb128 0
 9866 3849 1B       		.uleb128 0x1b
 9867 384a EA1A0000 		.4byte	.LASF647
 9868 384e 01       		.sleb128 1
 9869 384f 1B       		.uleb128 0x1b
 9870 3850 641F0000 		.4byte	.LASF648
 9871 3854 02       		.sleb128 2
ARM GAS  /tmp/ccB5ynkg.s 			page 176


 9872 3855 1B       		.uleb128 0x1b
 9873 3856 BF220000 		.4byte	.LASF649
 9874 385a C000     		.sleb128 64
 9875 385c 1B       		.uleb128 0x1b
 9876 385d 12110000 		.4byte	.LASF650
 9877 3861 FE00     		.sleb128 126
 9878 3863 1B       		.uleb128 0x1b
 9879 3864 AC550000 		.4byte	.LASF651
 9880 3868 FF00     		.sleb128 127
 9881 386a 00       		.byte	0
 9882 386b 2B       		.uleb128 0x2b
 9883 386c 65110000 		.4byte	0x1165
 9884 3870 00       		.byte	0
 9885 3871 0C       		.uleb128 0xc
 9886 3872 CD1A0000 		.4byte	.LASF259
 9887 3876 09       		.byte	0x9
 9888 3877 1F       		.byte	0x1f
 9889 3878 83360000 		.4byte	0x3683
 9890 387c 00       		.byte	0
 9891 387d 2D       		.uleb128 0x2d
 9892 387e C43C0000 		.4byte	.LASF622
 9893 3882 09       		.byte	0x9
 9894 3883 19       		.byte	0x19
 9895 3884 9B360000 		.4byte	0x369b
 9896 3888 01       		.byte	0x1
 9897 3889 2D       		.uleb128 0x2d
 9898 388a 4E330000 		.4byte	.LASF623
 9899 388e 09       		.byte	0x9
 9900 388f 1A       		.byte	0x1a
 9901 3890 A7360000 		.4byte	0x36a7
 9902 3894 01       		.byte	0x1
 9903 3895 2E       		.uleb128 0x2e
 9904 3896 25380000 		.4byte	.LASF470
 9905 389a 09       		.byte	0x9
 9906 389b 23       		.byte	0x23
 9907 389c A8000000 		.4byte	.LASF652
 9908 38a0 CE000000 		.4byte	0xce
 9909 38a4 01       		.byte	0x1
 9910 38a5 AD380000 		.4byte	0x38ad
 9911 38a9 B3380000 		.4byte	0x38b3
 9912 38ad 28       		.uleb128 0x28
 9913 38ae 15500000 		.4byte	0x5015
 9914 38b2 00       		.byte	0
 9915 38b3 27       		.uleb128 0x27
 9916 38b4 37190000 		.4byte	.LASF35
 9917 38b8 09       		.byte	0x9
 9918 38b9 26       		.byte	0x26
 9919 38ba 1B500000 		.4byte	0x501b
 9920 38be C6380000 		.4byte	0x38c6
 9921 38c2 CC380000 		.4byte	0x38cc
 9922 38c6 28       		.uleb128 0x28
 9923 38c7 1B500000 		.4byte	0x501b
 9924 38cb 00       		.byte	0
 9925 38cc 48       		.uleb128 0x48
 9926 38cd F7170000 		.4byte	.LASF626
 9927 38d1 09       		.byte	0x9
 9928 38d2 29       		.byte	0x29
ARM GAS  /tmp/ccB5ynkg.s 			page 177


 9929 38d3 AE350000 		.4byte	.LASF653
 9930 38d7 25000000 		.4byte	0x25
 9931 38db 01       		.byte	0x1
 9932 38dc E6380000 		.4byte	0x38e6
 9933 38e0 13       		.uleb128 0x13
 9934 38e1 25000000 		.4byte	0x25
 9935 38e5 00       		.byte	0
 9936 38e6 48       		.uleb128 0x48
 9937 38e7 BD270000 		.4byte	.LASF628
 9938 38eb 09       		.byte	0x9
 9939 38ec 2A       		.byte	0x2a
 9940 38ed 3C400000 		.4byte	.LASF654
 9941 38f1 1B500000 		.4byte	0x501b
 9942 38f5 01       		.byte	0x1
 9943 38f6 19390000 		.4byte	0x3919
 9944 38fa 13       		.uleb128 0x13
 9945 38fb BF000000 		.4byte	0xbf
 9946 38ff 13       		.uleb128 0x13
 9947 3900 25000000 		.4byte	0x25
 9948 3904 13       		.uleb128 0x13
 9949 3905 7D380000 		.4byte	0x387d
 9950 3909 13       		.uleb128 0x13
 9951 390a 89380000 		.4byte	0x3889
 9952 390e 13       		.uleb128 0x13
 9953 390f BF000000 		.4byte	0xbf
 9954 3913 13       		.uleb128 0x13
 9955 3914 CE000000 		.4byte	0xce
 9956 3918 00       		.byte	0
 9957 3919 48       		.uleb128 0x48
 9958 391a 103B0000 		.4byte	.LASF630
 9959 391e 09       		.byte	0x9
 9960 391f 2D       		.byte	0x2d
 9961 3920 491B0000 		.4byte	.LASF655
 9962 3924 1B500000 		.4byte	0x501b
 9963 3928 01       		.byte	0x1
 9964 3929 4C390000 		.4byte	0x394c
 9965 392d 13       		.uleb128 0x13
 9966 392e BF000000 		.4byte	0xbf
 9967 3932 13       		.uleb128 0x13
 9968 3933 25000000 		.4byte	0x25
 9969 3937 13       		.uleb128 0x13
 9970 3938 7D380000 		.4byte	0x387d
 9971 393c 13       		.uleb128 0x13
 9972 393d 89380000 		.4byte	0x3889
 9973 3941 13       		.uleb128 0x13
 9974 3942 BF000000 		.4byte	0xbf
 9975 3946 13       		.uleb128 0x13
 9976 3947 CE000000 		.4byte	0xce
 9977 394b 00       		.byte	0
 9978 394c 4D       		.uleb128 0x4d
 9979 394d 74430000 		.4byte	.LASF634
 9980 3951 09       		.byte	0x9
 9981 3952 36       		.byte	0x36
 9982 3953 DF3E0000 		.4byte	.LASF656
 9983 3957 21500000 		.4byte	0x5021
 9984 395b 01       		.byte	0x1
 9985 395c 4D       		.uleb128 0x4d
ARM GAS  /tmp/ccB5ynkg.s 			page 178


 9986 395d AF400000 		.4byte	.LASF635
 9987 3961 09       		.byte	0x9
 9988 3962 37       		.byte	0x37
 9989 3963 3C240000 		.4byte	.LASF657
 9990 3967 7D380000 		.4byte	0x387d
 9991 396b 01       		.byte	0x1
 9992 396c 47       		.uleb128 0x47
 9993 396d 4A0C0000 		.4byte	.LASF638
 9994 3971 09       		.byte	0x9
 9995 3972 38       		.byte	0x38
 9996 3973 E63C0000 		.4byte	.LASF658
 9997 3977 01       		.byte	0x1
 9998 3978 82390000 		.4byte	0x3982
 9999 397c 13       		.uleb128 0x13
 10000 397d 7D380000 		.4byte	0x387d
 10001 3981 00       		.byte	0
 10002 3982 2C       		.uleb128 0x2c
 10003 3983 F8230000 		.4byte	.LASF640
 10004 3987 09       		.byte	0x9
 10005 3988 39       		.byte	0x39
 10006 3989 69140000 		.4byte	.LASF659
 10007 398d 01       		.byte	0x1
 10008 398e 47       		.uleb128 0x47
 10009 398f B2500000 		.4byte	.LASF642
 10010 3993 09       		.byte	0x9
 10011 3994 3A       		.byte	0x3a
 10012 3995 E1460000 		.4byte	.LASF660
 10013 3999 01       		.byte	0x1
 10014 399a A4390000 		.4byte	0x39a4
 10015 399e 13       		.uleb128 0x13
 10016 399f BF4D0000 		.4byte	0x4dbf
 10017 39a3 00       		.byte	0
 10018 39a4 46       		.uleb128 0x46
 10019 39a5 68510000 		.4byte	.LASF644
 10020 39a9 09       		.byte	0x9
 10021 39aa 3B       		.byte	0x3b
 10022 39ab 1E360000 		.4byte	.LASF661
 10023 39af 2D010000 		.4byte	0x12d
 10024 39b3 01       		.byte	0x1
 10025 39b4 13       		.uleb128 0x13
 10026 39b5 21500000 		.4byte	0x5021
 10027 39b9 00       		.byte	0
 10028 39ba 00       		.byte	0
 10029 39bb 07       		.uleb128 0x7
 10030 39bc 2A380000 		.4byte	0x382a
 10031 39c0 26       		.uleb128 0x26
 10032 39c1 EC170000 		.4byte	.LASF662
 10033 39c5 04       		.byte	0x4
 10034 39c6 0A       		.byte	0xa
 10035 39c7 0B       		.byte	0xb
 10036 39c8 A93A0000 		.4byte	0x3aa9
 10037 39cc 0C       		.uleb128 0xc
 10038 39cd 6D150000 		.4byte	.LASF663
 10039 39d1 0A       		.byte	0xa
 10040 39d2 13       		.byte	0x13
 10041 39d3 1B500000 		.4byte	0x501b
 10042 39d7 00       		.byte	0
ARM GAS  /tmp/ccB5ynkg.s 			page 179


 10043 39d8 2D       		.uleb128 0x2d
 10044 39d9 C53F0000 		.4byte	.LASF664
 10045 39dd 0A       		.byte	0xa
 10046 39de 0D       		.byte	0xd
 10047 39df 76010000 		.4byte	0x176
 10048 39e3 01       		.byte	0x1
 10049 39e4 02       		.uleb128 0x2
 10050 39e5 4D420000 		.4byte	.LASF665
 10051 39e9 0A       		.byte	0xa
 10052 39ea 10       		.byte	0x10
 10053 39eb 97010000 		.4byte	0x197
 10054 39ef 2E       		.uleb128 0x2e
 10055 39f0 35020000 		.4byte	.LASF666
 10056 39f4 0A       		.byte	0xa
 10057 39f5 16       		.byte	0x16
 10058 39f6 28040000 		.4byte	.LASF667
 10059 39fa 1B500000 		.4byte	0x501b
 10060 39fe 01       		.byte	0x1
 10061 39ff 073A0000 		.4byte	0x3a07
 10062 3a03 0D3A0000 		.4byte	0x3a0d
 10063 3a07 28       		.uleb128 0x28
 10064 3a08 27500000 		.4byte	0x5027
 10065 3a0c 00       		.byte	0
 10066 3a0d 2F       		.uleb128 0x2f
 10067 3a0e 1B1D0000 		.4byte	.LASF668
 10068 3a12 0A       		.byte	0xa
 10069 3a13 17       		.byte	0x17
 10070 3a14 5A120000 		.4byte	.LASF669
 10071 3a18 01       		.byte	0x1
 10072 3a19 213A0000 		.4byte	0x3a21
 10073 3a1d 2C3A0000 		.4byte	0x3a2c
 10074 3a21 28       		.uleb128 0x28
 10075 3a22 2D500000 		.4byte	0x502d
 10076 3a26 13       		.uleb128 0x13
 10077 3a27 1B500000 		.4byte	0x501b
 10078 3a2b 00       		.byte	0
 10079 3a2c 2F       		.uleb128 0x2f
 10080 3a2d 89150000 		.4byte	.LASF670
 10081 3a31 0A       		.byte	0xa
 10082 3a32 19       		.byte	0x19
 10083 3a33 D9450000 		.4byte	.LASF671
 10084 3a37 01       		.byte	0x1
 10085 3a38 403A0000 		.4byte	0x3a40
 10086 3a3c 4B3A0000 		.4byte	0x3a4b
 10087 3a40 28       		.uleb128 0x28
 10088 3a41 2D500000 		.4byte	0x502d
 10089 3a45 13       		.uleb128 0x13
 10090 3a46 30000000 		.4byte	0x30
 10091 3a4a 00       		.byte	0
 10092 3a4b 2F       		.uleb128 0x2f
 10093 3a4c 33080000 		.4byte	.LASF672
 10094 3a50 0A       		.byte	0xa
 10095 3a51 1B       		.byte	0x1b
 10096 3a52 B02D0000 		.4byte	.LASF673
 10097 3a56 01       		.byte	0x1
 10098 3a57 5F3A0000 		.4byte	0x3a5f
 10099 3a5b 6A3A0000 		.4byte	0x3a6a
ARM GAS  /tmp/ccB5ynkg.s 			page 180


 10100 3a5f 28       		.uleb128 0x28
 10101 3a60 2D500000 		.4byte	0x502d
 10102 3a64 13       		.uleb128 0x13
 10103 3a65 30000000 		.4byte	0x30
 10104 3a69 00       		.byte	0
 10105 3a6a 2E       		.uleb128 0x2e
 10106 3a6b 37050000 		.4byte	.LASF674
 10107 3a6f 0A       		.byte	0xa
 10108 3a70 1C       		.byte	0x1c
 10109 3a71 5D2C0000 		.4byte	.LASF675
 10110 3a75 D8390000 		.4byte	0x39d8
 10111 3a79 01       		.byte	0x1
 10112 3a7a 823A0000 		.4byte	0x3a82
 10113 3a7e 8D3A0000 		.4byte	0x3a8d
 10114 3a82 28       		.uleb128 0x28
 10115 3a83 2D500000 		.4byte	0x502d
 10116 3a87 13       		.uleb128 0x13
 10117 3a88 BF4D0000 		.4byte	0x4dbf
 10118 3a8c 00       		.byte	0
 10119 3a8d 2A       		.uleb128 0x2a
 10120 3a8e EC170000 		.4byte	.LASF662
 10121 3a92 0A       		.byte	0xa
 10122 3a93 1F       		.byte	0x1f
 10123 3a94 2D500000 		.4byte	0x502d
 10124 3a98 01       		.byte	0x1
 10125 3a99 9D3A0000 		.4byte	0x3a9d
 10126 3a9d 28       		.uleb128 0x28
 10127 3a9e 2D500000 		.4byte	0x502d
 10128 3aa2 13       		.uleb128 0x13
 10129 3aa3 1B500000 		.4byte	0x501b
 10130 3aa7 00       		.byte	0
 10131 3aa8 00       		.byte	0
 10132 3aa9 07       		.uleb128 0x7
 10133 3aaa C0390000 		.4byte	0x39c0
 10134 3aae 26       		.uleb128 0x26
 10135 3aaf EF480000 		.4byte	.LASF676
 10136 3ab3 04       		.byte	0x4
 10137 3ab4 0B       		.byte	0xb
 10138 3ab5 0B       		.byte	0xb
 10139 3ab6 923B0000 		.4byte	0x3b92
 10140 3aba 2B       		.uleb128 0x2b
 10141 3abb 65110000 		.4byte	0x1165
 10142 3abf 00       		.byte	0
 10143 3ac0 0C       		.uleb128 0xc
 10144 3ac1 CD1A0000 		.4byte	.LASF259
 10145 3ac5 0B       		.byte	0xb
 10146 3ac6 12       		.byte	0x12
 10147 3ac7 C0390000 		.4byte	0x39c0
 10148 3acb 00       		.byte	0
 10149 3acc 2D       		.uleb128 0x2d
 10150 3acd C53F0000 		.4byte	.LASF664
 10151 3ad1 0B       		.byte	0xb
 10152 3ad2 0D       		.byte	0xd
 10153 3ad3 D8390000 		.4byte	0x39d8
 10154 3ad7 01       		.byte	0x1
 10155 3ad8 2E       		.uleb128 0x2e
 10156 3ad9 35020000 		.4byte	.LASF666
ARM GAS  /tmp/ccB5ynkg.s 			page 181


 10157 3add 0B       		.byte	0xb
 10158 3ade 15       		.byte	0x15
 10159 3adf 32010000 		.4byte	.LASF677
 10160 3ae3 1B500000 		.4byte	0x501b
 10161 3ae7 01       		.byte	0x1
 10162 3ae8 F03A0000 		.4byte	0x3af0
 10163 3aec F63A0000 		.4byte	0x3af6
 10164 3af0 28       		.uleb128 0x28
 10165 3af1 33500000 		.4byte	0x5033
 10166 3af5 00       		.byte	0
 10167 3af6 2F       		.uleb128 0x2f
 10168 3af7 1B1D0000 		.4byte	.LASF668
 10169 3afb 0B       		.byte	0xb
 10170 3afc 16       		.byte	0x16
 10171 3afd 242E0000 		.4byte	.LASF678
 10172 3b01 01       		.byte	0x1
 10173 3b02 0A3B0000 		.4byte	0x3b0a
 10174 3b06 153B0000 		.4byte	0x3b15
 10175 3b0a 28       		.uleb128 0x28
 10176 3b0b 39500000 		.4byte	0x5039
 10177 3b0f 13       		.uleb128 0x13
 10178 3b10 1B500000 		.4byte	0x501b
 10179 3b14 00       		.byte	0
 10180 3b15 2F       		.uleb128 0x2f
 10181 3b16 89150000 		.4byte	.LASF670
 10182 3b1a 0B       		.byte	0xb
 10183 3b1b 18       		.byte	0x18
 10184 3b1c 792D0000 		.4byte	.LASF679
 10185 3b20 01       		.byte	0x1
 10186 3b21 293B0000 		.4byte	0x3b29
 10187 3b25 343B0000 		.4byte	0x3b34
 10188 3b29 28       		.uleb128 0x28
 10189 3b2a 39500000 		.4byte	0x5039
 10190 3b2e 13       		.uleb128 0x13
 10191 3b2f 30000000 		.4byte	0x30
 10192 3b33 00       		.byte	0
 10193 3b34 2F       		.uleb128 0x2f
 10194 3b35 33080000 		.4byte	.LASF672
 10195 3b39 0B       		.byte	0xb
 10196 3b3a 1A       		.byte	0x1a
 10197 3b3b EF050000 		.4byte	.LASF680
 10198 3b3f 01       		.byte	0x1
 10199 3b40 483B0000 		.4byte	0x3b48
 10200 3b44 533B0000 		.4byte	0x3b53
 10201 3b48 28       		.uleb128 0x28
 10202 3b49 39500000 		.4byte	0x5039
 10203 3b4d 13       		.uleb128 0x13
 10204 3b4e 30000000 		.4byte	0x30
 10205 3b52 00       		.byte	0
 10206 3b53 2E       		.uleb128 0x2e
 10207 3b54 37050000 		.4byte	.LASF674
 10208 3b58 0B       		.byte	0xb
 10209 3b59 1B       		.byte	0x1b
 10210 3b5a 505E0000 		.4byte	.LASF681
 10211 3b5e CC3A0000 		.4byte	0x3acc
 10212 3b62 01       		.byte	0x1
 10213 3b63 6B3B0000 		.4byte	0x3b6b
ARM GAS  /tmp/ccB5ynkg.s 			page 182


 10214 3b67 763B0000 		.4byte	0x3b76
 10215 3b6b 28       		.uleb128 0x28
 10216 3b6c 39500000 		.4byte	0x5039
 10217 3b70 13       		.uleb128 0x13
 10218 3b71 BF4D0000 		.4byte	0x4dbf
 10219 3b75 00       		.byte	0
 10220 3b76 2A       		.uleb128 0x2a
 10221 3b77 EF480000 		.4byte	.LASF676
 10222 3b7b 0B       		.byte	0xb
 10223 3b7c 1E       		.byte	0x1e
 10224 3b7d 39500000 		.4byte	0x5039
 10225 3b81 01       		.byte	0x1
 10226 3b82 863B0000 		.4byte	0x3b86
 10227 3b86 28       		.uleb128 0x28
 10228 3b87 39500000 		.4byte	0x5039
 10229 3b8b 13       		.uleb128 0x13
 10230 3b8c 1B500000 		.4byte	0x501b
 10231 3b90 00       		.byte	0
 10232 3b91 00       		.byte	0
 10233 3b92 07       		.uleb128 0x7
 10234 3b93 AE3A0000 		.4byte	0x3aae
 10235 3b97 26       		.uleb128 0x26
 10236 3b98 06570000 		.4byte	.LASF682
 10237 3b9c 04       		.byte	0x4
 10238 3b9d 2D       		.byte	0x2d
 10239 3b9e 0F       		.byte	0xf
 10240 3b9f D9410000 		.4byte	0x41d9
 10241 3ba3 2B       		.uleb128 0x2b
 10242 3ba4 65110000 		.4byte	0x1165
 10243 3ba8 00       		.byte	0
 10244 3ba9 36       		.uleb128 0x36
 10245 3baa FA540000 		.4byte	.LASF313
 10246 3bae 08       		.byte	0x8
 10247 3baf 2D       		.byte	0x2d
 10248 3bb0 11       		.byte	0x11
 10249 3bb1 01       		.byte	0x1
 10250 3bb2 E93B0000 		.4byte	0x3be9
 10251 3bb6 0C       		.uleb128 0xc
 10252 3bb7 522C0000 		.4byte	.LASF311
 10253 3bbb 2D       		.byte	0x2d
 10254 3bbc 12       		.byte	0x12
 10255 3bbd 3F500000 		.4byte	0x503f
 10256 3bc1 00       		.byte	0
 10257 3bc2 0C       		.uleb128 0xc
 10258 3bc3 F2180000 		.4byte	.LASF312
 10259 3bc7 2D       		.byte	0x2d
 10260 3bc8 13       		.byte	0x13
 10261 3bc9 B0500000 		.4byte	0x50b0
 10262 3bcd 04       		.byte	0x4
 10263 3bce 37       		.uleb128 0x37
 10264 3bcf FA540000 		.4byte	.LASF313
 10265 3bd3 2D       		.byte	0x2d
 10266 3bd4 15       		.byte	0x15
 10267 3bd5 3F500000 		.4byte	0x503f
 10268 3bd9 DD3B0000 		.4byte	0x3bdd
 10269 3bdd 28       		.uleb128 0x28
 10270 3bde 3F500000 		.4byte	0x503f
ARM GAS  /tmp/ccB5ynkg.s 			page 183


 10271 3be2 13       		.uleb128 0x13
 10272 3be3 B5500000 		.4byte	0x50b5
 10273 3be7 00       		.byte	0
 10274 3be8 00       		.byte	0
 10275 3be9 19       		.uleb128 0x19
 10276 3bea 1F130000 		.4byte	.LASF314
 10277 3bee 2D       		.byte	0x2d
 10278 3bef 8A01     		.2byte	0x18a
 10279 3bf1 3F500000 		.4byte	0x503f
 10280 3bf5 00       		.byte	0
 10281 3bf6 38       		.uleb128 0x38
 10282 3bf7 20270000 		.4byte	.LASF561
 10283 3bfb 39       		.uleb128 0x39
 10284 3bfc 641E0000 		.4byte	.LASF315
 10285 3c00 39       		.uleb128 0x39
 10286 3c01 9C2D0000 		.4byte	.LASF316
 10287 3c05 39       		.uleb128 0x39
 10288 3c06 3A4E0000 		.4byte	.LASF317
 10289 3c0a 3A       		.uleb128 0x3a
 10290 3c0b 023B0000 		.4byte	.LASF319
 10291 3c0f 04       		.byte	0x4
 10292 3c10 2D       		.byte	0x2d
 10293 3c11 C0       		.byte	0xc0
 10294 3c12 01       		.byte	0x1
 10295 3c13 7A3D0000 		.4byte	0x3d7a
 10296 3c17 0C       		.uleb128 0xc
 10297 3c18 64140000 		.4byte	.LASF318
 10298 3c1c 2D       		.byte	0x2d
 10299 3c1d C4       		.byte	0xc4
 10300 3c1e D8500000 		.4byte	0x50d8
 10301 3c22 00       		.byte	0
 10302 3c23 29       		.uleb128 0x29
 10303 3c24 023B0000 		.4byte	.LASF319
 10304 3c28 2D       		.byte	0x2d
 10305 3c29 C7       		.byte	0xc7
 10306 3c2a DE500000 		.4byte	0x50de
 10307 3c2e 01       		.byte	0x1
 10308 3c2f 373C0000 		.4byte	0x3c37
 10309 3c33 3D3C0000 		.4byte	0x3c3d
 10310 3c37 28       		.uleb128 0x28
 10311 3c38 DE500000 		.4byte	0x50de
 10312 3c3c 00       		.byte	0
 10313 3c3d 29       		.uleb128 0x29
 10314 3c3e 023B0000 		.4byte	.LASF319
 10315 3c42 2D       		.byte	0x2d
 10316 3c43 C8       		.byte	0xc8
 10317 3c44 DE500000 		.4byte	0x50de
 10318 3c48 01       		.byte	0x1
 10319 3c49 513C0000 		.4byte	0x3c51
 10320 3c4d 5C3C0000 		.4byte	0x3c5c
 10321 3c51 28       		.uleb128 0x28
 10322 3c52 DE500000 		.4byte	0x50de
 10323 3c56 13       		.uleb128 0x13
 10324 3c57 E4500000 		.4byte	0x50e4
 10325 3c5b 00       		.byte	0
 10326 3c5c 27       		.uleb128 0x27
 10327 3c5d 023B0000 		.4byte	.LASF319
ARM GAS  /tmp/ccB5ynkg.s 			page 184


 10328 3c61 2D       		.byte	0x2d
 10329 3c62 CB       		.byte	0xcb
 10330 3c63 DE500000 		.4byte	0x50de
 10331 3c67 6F3C0000 		.4byte	0x3c6f
 10332 3c6b 7A3C0000 		.4byte	0x3c7a
 10333 3c6f 28       		.uleb128 0x28
 10334 3c70 DE500000 		.4byte	0x50de
 10335 3c74 13       		.uleb128 0x13
 10336 3c75 D8500000 		.4byte	0x50d8
 10337 3c79 00       		.byte	0
 10338 3c7a 3B       		.uleb128 0x3b
 10339 3c7b DE130000 		.4byte	.LASF298
 10340 3c7f 2D       		.byte	0x2d
 10341 3c80 CE       		.byte	0xce
 10342 3c81 A9510000 		.4byte	.LASF683
 10343 3c85 AA500000 		.4byte	0x50aa
 10344 3c89 913C0000 		.4byte	0x3c91
 10345 3c8d 9C3C0000 		.4byte	0x3c9c
 10346 3c91 28       		.uleb128 0x28
 10347 3c92 DE500000 		.4byte	0x50de
 10348 3c96 13       		.uleb128 0x13
 10349 3c97 E4500000 		.4byte	0x50e4
 10350 3c9b 00       		.byte	0
 10351 3c9c 2E       		.uleb128 0x2e
 10352 3c9d C7400000 		.4byte	.LASF321
 10353 3ca1 2D       		.byte	0x2d
 10354 3ca2 D4       		.byte	0xd4
 10355 3ca3 A7180000 		.4byte	.LASF684
 10356 3ca7 BB500000 		.4byte	0x50bb
 10357 3cab 01       		.byte	0x1
 10358 3cac B43C0000 		.4byte	0x3cb4
 10359 3cb0 BA3C0000 		.4byte	0x3cba
 10360 3cb4 28       		.uleb128 0x28
 10361 3cb5 EA500000 		.4byte	0x50ea
 10362 3cb9 00       		.byte	0
 10363 3cba 2E       		.uleb128 0x2e
 10364 3cbb 8B130000 		.4byte	.LASF323
 10365 3cbf 2D       		.byte	0x2d
 10366 3cc0 D8       		.byte	0xd8
 10367 3cc1 AC020000 		.4byte	.LASF685
 10368 3cc5 5A500000 		.4byte	0x505a
 10369 3cc9 01       		.byte	0x1
 10370 3cca D23C0000 		.4byte	0x3cd2
 10371 3cce D83C0000 		.4byte	0x3cd8
 10372 3cd2 28       		.uleb128 0x28
 10373 3cd3 EA500000 		.4byte	0x50ea
 10374 3cd7 00       		.byte	0
 10375 3cd8 2E       		.uleb128 0x2e
 10376 3cd9 993E0000 		.4byte	.LASF325
 10377 3cdd 2D       		.byte	0x2d
 10378 3cde DC       		.byte	0xdc
 10379 3cdf 115E0000 		.4byte	.LASF686
 10380 3ce3 AA500000 		.4byte	0x50aa
 10381 3ce7 01       		.byte	0x1
 10382 3ce8 F03C0000 		.4byte	0x3cf0
 10383 3cec F63C0000 		.4byte	0x3cf6
 10384 3cf0 28       		.uleb128 0x28
ARM GAS  /tmp/ccB5ynkg.s 			page 185


 10385 3cf1 DE500000 		.4byte	0x50de
 10386 3cf5 00       		.byte	0
 10387 3cf6 2E       		.uleb128 0x2e
 10388 3cf7 993E0000 		.4byte	.LASF325
 10389 3cfb 2D       		.byte	0x2d
 10390 3cfc E3       		.byte	0xe3
 10391 3cfd 495D0000 		.4byte	.LASF687
 10392 3d01 6B410000 		.4byte	0x416b
 10393 3d05 01       		.byte	0x1
 10394 3d06 0E3D0000 		.4byte	0x3d0e
 10395 3d0a 193D0000 		.4byte	0x3d19
 10396 3d0e 28       		.uleb128 0x28
 10397 3d0f DE500000 		.4byte	0x50de
 10398 3d13 13       		.uleb128 0x13
 10399 3d14 37000000 		.4byte	0x37
 10400 3d18 00       		.byte	0
 10401 3d19 2E       		.uleb128 0x2e
 10402 3d1a 1A5D0000 		.4byte	.LASF328
 10403 3d1e 2D       		.byte	0x2d
 10404 3d1f EB       		.byte	0xeb
 10405 3d20 744E0000 		.4byte	.LASF688
 10406 3d24 2D010000 		.4byte	0x12d
 10407 3d28 01       		.byte	0x1
 10408 3d29 313D0000 		.4byte	0x3d31
 10409 3d2d 3C3D0000 		.4byte	0x3d3c
 10410 3d31 28       		.uleb128 0x28
 10411 3d32 EA500000 		.4byte	0x50ea
 10412 3d36 13       		.uleb128 0x13
 10413 3d37 E4500000 		.4byte	0x50e4
 10414 3d3b 00       		.byte	0
 10415 3d3c 2E       		.uleb128 0x2e
 10416 3d3d 0A2F0000 		.4byte	.LASF330
 10417 3d41 2D       		.byte	0x2d
 10418 3d42 EF       		.byte	0xef
 10419 3d43 224D0000 		.4byte	.LASF689
 10420 3d47 2D010000 		.4byte	0x12d
 10421 3d4b 01       		.byte	0x1
 10422 3d4c 543D0000 		.4byte	0x3d54
 10423 3d50 5F3D0000 		.4byte	0x3d5f
 10424 3d54 28       		.uleb128 0x28
 10425 3d55 EA500000 		.4byte	0x50ea
 10426 3d59 13       		.uleb128 0x13
 10427 3d5a E4500000 		.4byte	0x50e4
 10428 3d5e 00       		.byte	0
 10429 3d5f 3C       		.uleb128 0x3c
 10430 3d60 503F0000 		.4byte	.LASF332
 10431 3d64 2D       		.byte	0x2d
 10432 3d65 F3       		.byte	0xf3
 10433 3d66 920B0000 		.4byte	.LASF690
 10434 3d6a 2D010000 		.4byte	0x12d
 10435 3d6e 01       		.byte	0x1
 10436 3d6f 733D0000 		.4byte	0x3d73
 10437 3d73 28       		.uleb128 0x28
 10438 3d74 EA500000 		.4byte	0x50ea
 10439 3d78 00       		.byte	0
 10440 3d79 00       		.byte	0
 10441 3d7a 1D       		.uleb128 0x1d
ARM GAS  /tmp/ccB5ynkg.s 			page 186


 10442 3d7b F8180000 		.4byte	.LASF334
 10443 3d7f 2D       		.byte	0x2d
 10444 3d80 8601     		.2byte	0x186
 10445 3d82 45500000 		.4byte	0x5045
 10446 3d86 1D       		.uleb128 0x1d
 10447 3d87 4D120000 		.4byte	.LASF335
 10448 3d8b 2D       		.byte	0x2d
 10449 3d8c 8701     		.2byte	0x187
 10450 3d8e 60500000 		.4byte	0x5060
 10451 3d92 3D       		.uleb128 0x3d
 10452 3d93 7A5F0000 		.4byte	.LASF336
 10453 3d97 2D       		.byte	0x2d
 10454 3d98 8D01     		.2byte	0x18d
 10455 3d9a 3C050000 		.4byte	.LASF691
 10456 3d9e 7A500000 		.4byte	0x507a
 10457 3da2 01       		.byte	0x1
 10458 3da3 AB3D0000 		.4byte	0x3dab
 10459 3da7 B13D0000 		.4byte	0x3db1
 10460 3dab 28       		.uleb128 0x28
 10461 3dac 80500000 		.4byte	0x5080
 10462 3db0 00       		.byte	0
 10463 3db1 07       		.uleb128 0x7
 10464 3db2 A93B0000 		.4byte	0x3ba9
 10465 3db6 3D       		.uleb128 0x3d
 10466 3db7 805A0000 		.4byte	.LASF337
 10467 3dbb 2D       		.byte	0x2d
 10468 3dbc 9101     		.2byte	0x191
 10469 3dbe D3560000 		.4byte	.LASF692
 10470 3dc2 2D010000 		.4byte	0x12d
 10471 3dc6 01       		.byte	0x1
 10472 3dc7 CF3D0000 		.4byte	0x3dcf
 10473 3dcb D53D0000 		.4byte	0x3dd5
 10474 3dcf 28       		.uleb128 0x28
 10475 3dd0 80500000 		.4byte	0x5080
 10476 3dd4 00       		.byte	0
 10477 3dd5 3D       		.uleb128 0x3d
 10478 3dd6 A11D0000 		.4byte	.LASF340
 10479 3dda 2D       		.byte	0x2d
 10480 3ddb 0302     		.2byte	0x203
 10481 3ddd 06340000 		.4byte	.LASF693
 10482 3de1 25000000 		.4byte	0x25
 10483 3de5 01       		.byte	0x1
 10484 3de6 EE3D0000 		.4byte	0x3dee
 10485 3dea F43D0000 		.4byte	0x3df4
 10486 3dee 28       		.uleb128 0x28
 10487 3def 80500000 		.4byte	0x5080
 10488 3df3 00       		.byte	0
 10489 3df4 3E       		.uleb128 0x3e
 10490 3df5 DD440000 		.4byte	.LASF342
 10491 3df9 2D       		.byte	0x2d
 10492 3dfa 9701     		.2byte	0x197
 10493 3dfc 65260000 		.4byte	.LASF694
 10494 3e00 01       		.byte	0x1
 10495 3e01 093E0000 		.4byte	0x3e09
 10496 3e05 143E0000 		.4byte	0x3e14
 10497 3e09 28       		.uleb128 0x28
 10498 3e0a 86500000 		.4byte	0x5086
ARM GAS  /tmp/ccB5ynkg.s 			page 187


 10499 3e0e 13       		.uleb128 0x13
 10500 3e0f 8C500000 		.4byte	0x508c
 10501 3e13 00       		.byte	0
 10502 3e14 3E       		.uleb128 0x3e
 10503 3e15 594D0000 		.4byte	.LASF343
 10504 3e19 2D       		.byte	0x2d
 10505 3e1a 9F01     		.2byte	0x19f
 10506 3e1c 81250000 		.4byte	.LASF695
 10507 3e20 01       		.byte	0x1
 10508 3e21 293E0000 		.4byte	0x3e29
 10509 3e25 343E0000 		.4byte	0x3e34
 10510 3e29 28       		.uleb128 0x28
 10511 3e2a 86500000 		.4byte	0x5086
 10512 3e2e 13       		.uleb128 0x13
 10513 3e2f 8C500000 		.4byte	0x508c
 10514 3e33 00       		.byte	0
 10515 3e34 3D       		.uleb128 0x3d
 10516 3e35 7D270000 		.4byte	.LASF346
 10517 3e39 2D       		.byte	0x2d
 10518 3e3a 0E02     		.2byte	0x20e
 10519 3e3c 3F2D0000 		.4byte	.LASF696
 10520 3e40 2D010000 		.4byte	0x12d
 10521 3e44 01       		.byte	0x1
 10522 3e45 4D3E0000 		.4byte	0x3e4d
 10523 3e49 583E0000 		.4byte	0x3e58
 10524 3e4d 28       		.uleb128 0x28
 10525 3e4e 86500000 		.4byte	0x5086
 10526 3e52 13       		.uleb128 0x13
 10527 3e53 8C500000 		.4byte	0x508c
 10528 3e57 00       		.byte	0
 10529 3e58 3D       		.uleb128 0x3d
 10530 3e59 BA340000 		.4byte	.LASF348
 10531 3e5d 2D       		.byte	0x2d
 10532 3e5e 1F02     		.2byte	0x21f
 10533 3e60 DF020000 		.4byte	.LASF697
 10534 3e64 37000000 		.4byte	0x37
 10535 3e68 01       		.byte	0x1
 10536 3e69 713E0000 		.4byte	0x3e71
 10537 3e6d 7C3E0000 		.4byte	0x3e7c
 10538 3e71 28       		.uleb128 0x28
 10539 3e72 80500000 		.4byte	0x5080
 10540 3e76 13       		.uleb128 0x13
 10541 3e77 5A500000 		.4byte	0x505a
 10542 3e7b 00       		.byte	0
 10543 3e7c 3D       		.uleb128 0x3d
 10544 3e7d A44A0000 		.4byte	.LASF350
 10545 3e81 2D       		.byte	0x2d
 10546 3e82 2C02     		.2byte	0x22c
 10547 3e84 B8050000 		.4byte	.LASF698
 10548 3e88 2D010000 		.4byte	0x12d
 10549 3e8c 01       		.byte	0x1
 10550 3e8d 953E0000 		.4byte	0x3e95
 10551 3e91 A03E0000 		.4byte	0x3ea0
 10552 3e95 28       		.uleb128 0x28
 10553 3e96 80500000 		.4byte	0x5080
 10554 3e9a 13       		.uleb128 0x13
 10555 3e9b 5A500000 		.4byte	0x505a
ARM GAS  /tmp/ccB5ynkg.s 			page 188


 10556 3e9f 00       		.byte	0
 10557 3ea0 3D       		.uleb128 0x3d
 10558 3ea1 E8310000 		.4byte	.LASF352
 10559 3ea5 2D       		.byte	0x2d
 10560 3ea6 3802     		.2byte	0x238
 10561 3ea8 4D0B0000 		.4byte	.LASF699
 10562 3eac 92500000 		.4byte	0x5092
 10563 3eb0 01       		.byte	0x1
 10564 3eb1 B93E0000 		.4byte	0x3eb9
 10565 3eb5 C43E0000 		.4byte	0x3ec4
 10566 3eb9 28       		.uleb128 0x28
 10567 3eba 80500000 		.4byte	0x5080
 10568 3ebe 13       		.uleb128 0x13
 10569 3ebf 7A3D0000 		.4byte	0x3d7a
 10570 3ec3 00       		.byte	0
 10571 3ec4 3D       		.uleb128 0x3d
 10572 3ec5 E8310000 		.4byte	.LASF352
 10573 3ec9 2D       		.byte	0x2d
 10574 3eca 4402     		.2byte	0x244
 10575 3ecc DB040000 		.4byte	.LASF700
 10576 3ed0 92500000 		.4byte	0x5092
 10577 3ed4 01       		.byte	0x1
 10578 3ed5 DD3E0000 		.4byte	0x3edd
 10579 3ed9 ED3E0000 		.4byte	0x3eed
 10580 3edd 28       		.uleb128 0x28
 10581 3ede 80500000 		.4byte	0x5080
 10582 3ee2 13       		.uleb128 0x13
 10583 3ee3 863D0000 		.4byte	0x3d86
 10584 3ee7 13       		.uleb128 0x13
 10585 3ee8 D9000000 		.4byte	0xd9
 10586 3eec 00       		.byte	0
 10587 3eed 3D       		.uleb128 0x3d
 10588 3eee E20F0000 		.4byte	.LASF355
 10589 3ef2 2D       		.byte	0x2d
 10590 3ef3 B301     		.2byte	0x1b3
 10591 3ef5 950C0000 		.4byte	.LASF701
 10592 3ef9 0C3F0000 		.4byte	0x3f0c
 10593 3efd 01       		.byte	0x1
 10594 3efe 063F0000 		.4byte	0x3f06
 10595 3f02 0C3F0000 		.4byte	0x3f0c
 10596 3f06 28       		.uleb128 0x28
 10597 3f07 86500000 		.4byte	0x5086
 10598 3f0b 00       		.byte	0
 10599 3f0c 07       		.uleb128 0x7
 10600 3f0d FB3B0000 		.4byte	0x3bfb
 10601 3f11 3D       		.uleb128 0x3d
 10602 3f12 152F0000 		.4byte	.LASF357
 10603 3f16 2D       		.byte	0x2d
 10604 3f17 B701     		.2byte	0x1b7
 10605 3f19 731E0000 		.4byte	.LASF702
 10606 3f1d 0C3F0000 		.4byte	0x3f0c
 10607 3f21 01       		.byte	0x1
 10608 3f22 2A3F0000 		.4byte	0x3f2a
 10609 3f26 303F0000 		.4byte	0x3f30
 10610 3f2a 28       		.uleb128 0x28
 10611 3f2b 86500000 		.4byte	0x5086
 10612 3f2f 00       		.byte	0
ARM GAS  /tmp/ccB5ynkg.s 			page 189


 10613 3f30 3E       		.uleb128 0x3e
 10614 3f31 E05F0000 		.4byte	.LASF359
 10615 3f35 2D       		.byte	0x2d
 10616 3f36 BB01     		.2byte	0x1bb
 10617 3f38 B5520000 		.4byte	.LASF703
 10618 3f3c 01       		.byte	0x1
 10619 3f3d 453F0000 		.4byte	0x3f45
 10620 3f41 503F0000 		.4byte	0x3f50
 10621 3f45 28       		.uleb128 0x28
 10622 3f46 86500000 		.4byte	0x5086
 10623 3f4a 13       		.uleb128 0x13
 10624 3f4b 98500000 		.4byte	0x5098
 10625 3f4f 00       		.byte	0
 10626 3f50 3D       		.uleb128 0x3d
 10627 3f51 E20F0000 		.4byte	.LASF355
 10628 3f55 2D       		.byte	0x2d
 10629 3f56 BF01     		.2byte	0x1bf
 10630 3f58 F4580000 		.4byte	.LASF704
 10631 3f5c 6F3F0000 		.4byte	0x3f6f
 10632 3f60 01       		.byte	0x1
 10633 3f61 693F0000 		.4byte	0x3f69
 10634 3f65 6F3F0000 		.4byte	0x3f6f
 10635 3f69 28       		.uleb128 0x28
 10636 3f6a 80500000 		.4byte	0x5080
 10637 3f6e 00       		.byte	0
 10638 3f6f 07       		.uleb128 0x7
 10639 3f70 003C0000 		.4byte	0x3c00
 10640 3f74 3D       		.uleb128 0x3d
 10641 3f75 152F0000 		.4byte	.LASF357
 10642 3f79 2D       		.byte	0x2d
 10643 3f7a C301     		.2byte	0x1c3
 10644 3f7c A81E0000 		.4byte	.LASF705
 10645 3f80 6F3F0000 		.4byte	0x3f6f
 10646 3f84 01       		.byte	0x1
 10647 3f85 8D3F0000 		.4byte	0x3f8d
 10648 3f89 933F0000 		.4byte	0x3f93
 10649 3f8d 28       		.uleb128 0x28
 10650 3f8e 80500000 		.4byte	0x5080
 10651 3f92 00       		.byte	0
 10652 3f93 3E       		.uleb128 0x3e
 10653 3f94 E05F0000 		.4byte	.LASF359
 10654 3f98 2D       		.byte	0x2d
 10655 3f99 C701     		.2byte	0x1c7
 10656 3f9b 8F040000 		.4byte	.LASF706
 10657 3f9f 01       		.byte	0x1
 10658 3fa0 A83F0000 		.4byte	0x3fa8
 10659 3fa4 B33F0000 		.4byte	0x3fb3
 10660 3fa8 28       		.uleb128 0x28
 10661 3fa9 80500000 		.4byte	0x5080
 10662 3fad 13       		.uleb128 0x13
 10663 3fae 9E500000 		.4byte	0x509e
 10664 3fb2 00       		.byte	0
 10665 3fb3 3D       		.uleb128 0x3d
 10666 3fb4 68550000 		.4byte	.LASF364
 10667 3fb8 2D       		.byte	0x2d
 10668 3fb9 5302     		.2byte	0x253
 10669 3fbb ED320000 		.4byte	.LASF707
ARM GAS  /tmp/ccB5ynkg.s 			page 190


 10670 3fbf 7A500000 		.4byte	0x507a
 10671 3fc3 01       		.byte	0x1
 10672 3fc4 CC3F0000 		.4byte	0x3fcc
 10673 3fc8 D23F0000 		.4byte	0x3fd2
 10674 3fcc 28       		.uleb128 0x28
 10675 3fcd 80500000 		.4byte	0x5080
 10676 3fd1 00       		.byte	0
 10677 3fd2 3D       		.uleb128 0x3d
 10678 3fd3 6A580000 		.4byte	.LASF366
 10679 3fd7 2D       		.byte	0x2d
 10680 3fd8 5D02     		.2byte	0x25d
 10681 3fda 54210000 		.4byte	.LASF708
 10682 3fde 2D010000 		.4byte	0x12d
 10683 3fe2 01       		.byte	0x1
 10684 3fe3 EB3F0000 		.4byte	0x3feb
 10685 3fe7 F13F0000 		.4byte	0x3ff1
 10686 3feb 28       		.uleb128 0x28
 10687 3fec 80500000 		.4byte	0x5080
 10688 3ff0 00       		.byte	0
 10689 3ff1 3D       		.uleb128 0x3d
 10690 3ff2 59320000 		.4byte	.LASF368
 10691 3ff6 2D       		.byte	0x2d
 10692 3ff7 6702     		.2byte	0x267
 10693 3ff9 19210000 		.4byte	.LASF709
 10694 3ffd 25000000 		.4byte	0x25
 10695 4001 01       		.byte	0x1
 10696 4002 0A400000 		.4byte	0x400a
 10697 4006 10400000 		.4byte	0x4010
 10698 400a 28       		.uleb128 0x28
 10699 400b 80500000 		.4byte	0x5080
 10700 400f 00       		.byte	0
 10701 4010 3E       		.uleb128 0x3e
 10702 4011 AE1D0000 		.4byte	.LASF370
 10703 4015 2D       		.byte	0x2d
 10704 4016 7602     		.2byte	0x276
 10705 4018 905A0000 		.4byte	.LASF710
 10706 401c 01       		.byte	0x1
 10707 401d 25400000 		.4byte	0x4025
 10708 4021 30400000 		.4byte	0x4030
 10709 4025 28       		.uleb128 0x28
 10710 4026 86500000 		.4byte	0x5086
 10711 402a 13       		.uleb128 0x13
 10712 402b 8C500000 		.4byte	0x508c
 10713 402f 00       		.byte	0
 10714 4030 3D       		.uleb128 0x3d
 10715 4031 84130000 		.4byte	.LASF372
 10716 4035 2D       		.byte	0x2d
 10717 4036 8002     		.2byte	0x280
 10718 4038 67520000 		.4byte	.LASF711
 10719 403c 2D010000 		.4byte	0x12d
 10720 4040 01       		.byte	0x1
 10721 4041 49400000 		.4byte	0x4049
 10722 4045 54400000 		.4byte	0x4054
 10723 4049 28       		.uleb128 0x28
 10724 404a 86500000 		.4byte	0x5086
 10725 404e 13       		.uleb128 0x13
 10726 404f 8C500000 		.4byte	0x508c
ARM GAS  /tmp/ccB5ynkg.s 			page 191


 10727 4053 00       		.byte	0
 10728 4054 3D       		.uleb128 0x3d
 10729 4055 03370000 		.4byte	.LASF374
 10730 4059 2D       		.byte	0x2d
 10731 405a 8A02     		.2byte	0x28a
 10732 405c 771B0000 		.4byte	.LASF712
 10733 4060 37000000 		.4byte	0x37
 10734 4064 01       		.byte	0x1
 10735 4065 6D400000 		.4byte	0x406d
 10736 4069 78400000 		.4byte	0x4078
 10737 406d 28       		.uleb128 0x28
 10738 406e 80500000 		.4byte	0x5080
 10739 4072 13       		.uleb128 0x13
 10740 4073 5A500000 		.4byte	0x505a
 10741 4077 00       		.byte	0
 10742 4078 3D       		.uleb128 0x3d
 10743 4079 BD230000 		.4byte	.LASF376
 10744 407d 2D       		.byte	0x2d
 10745 407e 9B02     		.2byte	0x29b
 10746 4080 B3210000 		.4byte	.LASF713
 10747 4084 2D010000 		.4byte	0x12d
 10748 4088 01       		.byte	0x1
 10749 4089 91400000 		.4byte	0x4091
 10750 408d 9C400000 		.4byte	0x409c
 10751 4091 28       		.uleb128 0x28
 10752 4092 80500000 		.4byte	0x5080
 10753 4096 13       		.uleb128 0x13
 10754 4097 5A500000 		.4byte	0x505a
 10755 409b 00       		.byte	0
 10756 409c 3D       		.uleb128 0x3d
 10757 409d CA390000 		.4byte	.LASF378
 10758 40a1 2D       		.byte	0x2d
 10759 40a2 AC02     		.2byte	0x2ac
 10760 40a4 DF510000 		.4byte	.LASF714
 10761 40a8 92500000 		.4byte	0x5092
 10762 40ac 01       		.byte	0x1
 10763 40ad B5400000 		.4byte	0x40b5
 10764 40b1 C0400000 		.4byte	0x40c0
 10765 40b5 28       		.uleb128 0x28
 10766 40b6 80500000 		.4byte	0x5080
 10767 40ba 13       		.uleb128 0x13
 10768 40bb 7A3D0000 		.4byte	0x3d7a
 10769 40bf 00       		.byte	0
 10770 40c0 3D       		.uleb128 0x3d
 10771 40c1 CA390000 		.4byte	.LASF378
 10772 40c5 2D       		.byte	0x2d
 10773 40c6 BC02     		.2byte	0x2bc
 10774 40c8 84030000 		.4byte	.LASF715
 10775 40cc 92500000 		.4byte	0x5092
 10776 40d0 01       		.byte	0x1
 10777 40d1 D9400000 		.4byte	0x40d9
 10778 40d5 E9400000 		.4byte	0x40e9
 10779 40d9 28       		.uleb128 0x28
 10780 40da 80500000 		.4byte	0x5080
 10781 40de 13       		.uleb128 0x13
 10782 40df 863D0000 		.4byte	0x3d86
 10783 40e3 13       		.uleb128 0x13
ARM GAS  /tmp/ccB5ynkg.s 			page 192


 10784 40e4 D9000000 		.4byte	0xd9
 10785 40e8 00       		.byte	0
 10786 40e9 3D       		.uleb128 0x3d
 10787 40ea FA5E0000 		.4byte	.LASF381
 10788 40ee 2D       		.byte	0x2d
 10789 40ef E001     		.2byte	0x1e0
 10790 40f1 54480000 		.4byte	.LASF716
 10791 40f5 08410000 		.4byte	0x4108
 10792 40f9 01       		.byte	0x1
 10793 40fa 02410000 		.4byte	0x4102
 10794 40fe 08410000 		.4byte	0x4108
 10795 4102 28       		.uleb128 0x28
 10796 4103 86500000 		.4byte	0x5086
 10797 4107 00       		.byte	0
 10798 4108 07       		.uleb128 0x7
 10799 4109 053C0000 		.4byte	0x3c05
 10800 410d 3F       		.uleb128 0x3f
 10801 410e 656E6400 		.ascii	"end\000"
 10802 4112 2D       		.byte	0x2d
 10803 4113 E401     		.2byte	0x1e4
 10804 4115 440D0000 		.4byte	.LASF717
 10805 4119 08410000 		.4byte	0x4108
 10806 411d 01       		.byte	0x1
 10807 411e 26410000 		.4byte	0x4126
 10808 4122 2C410000 		.4byte	0x412c
 10809 4126 28       		.uleb128 0x28
 10810 4127 86500000 		.4byte	0x5086
 10811 412b 00       		.byte	0
 10812 412c 3E       		.uleb128 0x3e
 10813 412d E7110000 		.4byte	.LASF383
 10814 4131 2D       		.byte	0x2d
 10815 4132 E801     		.2byte	0x1e8
 10816 4134 F04F0000 		.4byte	.LASF718
 10817 4138 01       		.byte	0x1
 10818 4139 41410000 		.4byte	0x4141
 10819 413d 4C410000 		.4byte	0x414c
 10820 4141 28       		.uleb128 0x28
 10821 4142 86500000 		.4byte	0x5086
 10822 4146 13       		.uleb128 0x13
 10823 4147 A4500000 		.4byte	0x50a4
 10824 414b 00       		.byte	0
 10825 414c 3D       		.uleb128 0x3d
 10826 414d FA5E0000 		.4byte	.LASF381
 10827 4151 2D       		.byte	0x2d
 10828 4152 EC01     		.2byte	0x1ec
 10829 4154 9A380000 		.4byte	.LASF719
 10830 4158 6B410000 		.4byte	0x416b
 10831 415c 01       		.byte	0x1
 10832 415d 65410000 		.4byte	0x4165
 10833 4161 6B410000 		.4byte	0x416b
 10834 4165 28       		.uleb128 0x28
 10835 4166 80500000 		.4byte	0x5080
 10836 416a 00       		.byte	0
 10837 416b 07       		.uleb128 0x7
 10838 416c 0A3C0000 		.4byte	0x3c0a
 10839 4170 3F       		.uleb128 0x3f
 10840 4171 656E6400 		.ascii	"end\000"
ARM GAS  /tmp/ccB5ynkg.s 			page 193


 10841 4175 2D       		.byte	0x2d
 10842 4176 F201     		.2byte	0x1f2
 10843 4178 51250000 		.4byte	.LASF720
 10844 417c 6B410000 		.4byte	0x416b
 10845 4180 01       		.byte	0x1
 10846 4181 89410000 		.4byte	0x4189
 10847 4185 8F410000 		.4byte	0x418f
 10848 4189 28       		.uleb128 0x28
 10849 418a 80500000 		.4byte	0x5080
 10850 418e 00       		.byte	0
 10851 418f 3E       		.uleb128 0x3e
 10852 4190 E7110000 		.4byte	.LASF383
 10853 4194 2D       		.byte	0x2d
 10854 4195 F601     		.2byte	0x1f6
 10855 4197 C40C0000 		.4byte	.LASF721
 10856 419b 01       		.byte	0x1
 10857 419c A4410000 		.4byte	0x41a4
 10858 41a0 AF410000 		.4byte	0x41af
 10859 41a4 28       		.uleb128 0x28
 10860 41a5 80500000 		.4byte	0x5080
 10861 41a9 13       		.uleb128 0x13
 10862 41aa AA500000 		.4byte	0x50aa
 10863 41ae 00       		.byte	0
 10864 41af 40       		.uleb128 0x40
 10865 41b0 39100000 		.4byte	.LASF389
 10866 41b4 2D       		.byte	0x2d
 10867 41b5 FA01     		.2byte	0x1fa
 10868 41b7 86500000 		.4byte	0x5086
 10869 41bb 01       		.byte	0x1
 10870 41bc C4410000 		.4byte	0x41c4
 10871 41c0 CA410000 		.4byte	0x41ca
 10872 41c4 28       		.uleb128 0x28
 10873 41c5 86500000 		.4byte	0x5086
 10874 41c9 00       		.byte	0
 10875 41ca 07       		.uleb128 0x7
 10876 41cb F63B0000 		.4byte	0x3bf6
 10877 41cf 41       		.uleb128 0x41
 10878 41d0 9D1A0000 		.4byte	.LASF390
 10879 41d4 DE410000 		.4byte	0x41de
 10880 41d8 00       		.byte	0
 10881 41d9 07       		.uleb128 0x7
 10882 41da DE410000 		.4byte	0x41de
 10883 41de 26       		.uleb128 0x26
 10884 41df DA180000 		.4byte	.LASF722
 10885 41e3 1C       		.byte	0x1c
 10886 41e4 0C       		.byte	0xc
 10887 41e5 15       		.byte	0x15
 10888 41e6 C8440000 		.4byte	0x44c8
 10889 41ea 2B       		.uleb128 0x2b
 10890 41eb 65110000 		.4byte	0x1165
 10891 41ef 00       		.byte	0
 10892 41f0 0C       		.uleb128 0xc
 10893 41f1 601D0000 		.4byte	.LASF461
 10894 41f5 0C       		.byte	0xc
 10895 41f6 19       		.byte	0x19
 10896 41f7 234F0000 		.4byte	0x4f23
 10897 41fb 00       		.byte	0
ARM GAS  /tmp/ccB5ynkg.s 			page 194


 10898 41fc 0C       		.uleb128 0xc
 10899 41fd FF2E0000 		.4byte	.LASF723
 10900 4201 0C       		.byte	0xc
 10901 4202 1A       		.byte	0x1a
 10902 4203 B22E0000 		.4byte	0x2eb2
 10903 4207 04       		.byte	0x4
 10904 4208 0C       		.uleb128 0xc
 10905 4209 CD190000 		.4byte	.LASF724
 10906 420d 0C       		.byte	0xc
 10907 420e 1B       		.byte	0x1b
 10908 420f C2160000 		.4byte	0x16c2
 10909 4213 08       		.byte	0x8
 10910 4214 0C       		.uleb128 0xc
 10911 4215 33000000 		.4byte	.LASF217
 10912 4219 0C       		.byte	0xc
 10913 421a 1C       		.byte	0x1c
 10914 421b AE3A0000 		.4byte	0x3aae
 10915 421f 0C       		.byte	0xc
 10916 4220 0C       		.uleb128 0xc
 10917 4221 EA180000 		.4byte	.LASF725
 10918 4225 0C       		.byte	0xc
 10919 4226 1D       		.byte	0x1d
 10920 4227 10140000 		.4byte	0x1410
 10921 422b 10       		.byte	0x10
 10922 422c 0C       		.uleb128 0xc
 10923 422d 78510000 		.4byte	.LASF469
 10924 4231 0C       		.byte	0xc
 10925 4232 1F       		.byte	0x1f
 10926 4233 A93B0000 		.4byte	0x3ba9
 10927 4237 14       		.byte	0x14
 10928 4238 2E       		.uleb128 0x2e
 10929 4239 25380000 		.4byte	.LASF470
 10930 423d 0C       		.byte	0xc
 10931 423e 22       		.byte	0x22
 10932 423f C1570000 		.4byte	.LASF726
 10933 4243 CE000000 		.4byte	0xce
 10934 4247 01       		.byte	0x1
 10935 4248 50420000 		.4byte	0x4250
 10936 424c 56420000 		.4byte	0x4256
 10937 4250 28       		.uleb128 0x28
 10938 4251 BB500000 		.4byte	0x50bb
 10939 4255 00       		.byte	0
 10940 4256 2E       		.uleb128 0x2e
 10941 4257 EE5A0000 		.4byte	.LASF727
 10942 425b 0C       		.byte	0xc
 10943 425c 23       		.byte	0x23
 10944 425d 36260000 		.4byte	.LASF728
 10945 4261 C1500000 		.4byte	0x50c1
 10946 4265 01       		.byte	0x1
 10947 4266 6E420000 		.4byte	0x426e
 10948 426a 74420000 		.4byte	0x4274
 10949 426e 28       		.uleb128 0x28
 10950 426f BB500000 		.4byte	0x50bb
 10951 4273 00       		.byte	0
 10952 4274 2E       		.uleb128 0x2e
 10953 4275 EE300000 		.4byte	.LASF729
 10954 4279 0C       		.byte	0xc
ARM GAS  /tmp/ccB5ynkg.s 			page 195


 10955 427a 24       		.byte	0x24
 10956 427b 143D0000 		.4byte	.LASF730
 10957 427f C7500000 		.4byte	0x50c7
 10958 4283 01       		.byte	0x1
 10959 4284 8C420000 		.4byte	0x428c
 10960 4288 92420000 		.4byte	0x4292
 10961 428c 28       		.uleb128 0x28
 10962 428d BB500000 		.4byte	0x50bb
 10963 4291 00       		.byte	0
 10964 4292 2E       		.uleb128 0x2e
 10965 4293 2B5D0000 		.4byte	.LASF731
 10966 4297 0C       		.byte	0xc
 10967 4298 25       		.byte	0x25
 10968 4299 49090000 		.4byte	.LASF732
 10969 429d 2D010000 		.4byte	0x12d
 10970 42a1 01       		.byte	0x1
 10971 42a2 AA420000 		.4byte	0x42aa
 10972 42a6 B0420000 		.4byte	0x42b0
 10973 42aa 28       		.uleb128 0x28
 10974 42ab BB500000 		.4byte	0x50bb
 10975 42af 00       		.byte	0
 10976 42b0 2F       		.uleb128 0x2f
 10977 42b1 D0340000 		.4byte	.LASF733
 10978 42b5 0C       		.byte	0xc
 10979 42b6 26       		.byte	0x26
 10980 42b7 F81D0000 		.4byte	.LASF734
 10981 42bb 01       		.byte	0x1
 10982 42bc C4420000 		.4byte	0x42c4
 10983 42c0 CF420000 		.4byte	0x42cf
 10984 42c4 28       		.uleb128 0x28
 10985 42c5 92500000 		.4byte	0x5092
 10986 42c9 13       		.uleb128 0x13
 10987 42ca 2D010000 		.4byte	0x12d
 10988 42ce 00       		.byte	0
 10989 42cf 2F       		.uleb128 0x2f
 10990 42d0 D4230000 		.4byte	.LASF735
 10991 42d4 0C       		.byte	0xc
 10992 42d5 32       		.byte	0x32
 10993 42d6 8B160000 		.4byte	.LASF736
 10994 42da 01       		.byte	0x1
 10995 42db E3420000 		.4byte	0x42e3
 10996 42df EE420000 		.4byte	0x42ee
 10997 42e3 28       		.uleb128 0x28
 10998 42e4 92500000 		.4byte	0x5092
 10999 42e8 13       		.uleb128 0x13
 11000 42e9 30000000 		.4byte	0x30
 11001 42ed 00       		.byte	0
 11002 42ee 2F       		.uleb128 0x2f
 11003 42ef 54030000 		.4byte	.LASF737
 11004 42f3 0C       		.byte	0xc
 11005 42f4 33       		.byte	0x33
 11006 42f5 53180000 		.4byte	.LASF738
 11007 42f9 01       		.byte	0x1
 11008 42fa 02430000 		.4byte	0x4302
 11009 42fe 08430000 		.4byte	0x4308
 11010 4302 28       		.uleb128 0x28
 11011 4303 92500000 		.4byte	0x5092
ARM GAS  /tmp/ccB5ynkg.s 			page 196


 11012 4307 00       		.byte	0
 11013 4308 2F       		.uleb128 0x2f
 11014 4309 112C0000 		.4byte	.LASF739
 11015 430d 0C       		.byte	0xc
 11016 430e 35       		.byte	0x35
 11017 430f 1F020000 		.4byte	.LASF740
 11018 4313 01       		.byte	0x1
 11019 4314 1C430000 		.4byte	0x431c
 11020 4318 27430000 		.4byte	0x4327
 11021 431c 28       		.uleb128 0x28
 11022 431d 92500000 		.4byte	0x5092
 11023 4321 13       		.uleb128 0x13
 11024 4322 30000000 		.4byte	0x30
 11025 4326 00       		.byte	0
 11026 4327 2F       		.uleb128 0x2f
 11027 4328 2F180000 		.4byte	.LASF741
 11028 432c 0C       		.byte	0xc
 11029 432d 36       		.byte	0x36
 11030 432e 60530000 		.4byte	.LASF742
 11031 4332 01       		.byte	0x1
 11032 4333 3B430000 		.4byte	0x433b
 11033 4337 41430000 		.4byte	0x4341
 11034 433b 28       		.uleb128 0x28
 11035 433c 92500000 		.4byte	0x5092
 11036 4340 00       		.byte	0
 11037 4341 2E       		.uleb128 0x2e
 11038 4342 EE440000 		.4byte	.LASF743
 11039 4346 0C       		.byte	0xc
 11040 4347 38       		.byte	0x38
 11041 4348 9F230000 		.4byte	.LASF744
 11042 434c 2D010000 		.4byte	0x12d
 11043 4350 01       		.byte	0x1
 11044 4351 59430000 		.4byte	0x4359
 11045 4355 64430000 		.4byte	0x4364
 11046 4359 28       		.uleb128 0x28
 11047 435a 92500000 		.4byte	0x5092
 11048 435e 13       		.uleb128 0x13
 11049 435f BF4D0000 		.4byte	0x4dbf
 11050 4363 00       		.byte	0
 11051 4364 3B       		.uleb128 0x3b
 11052 4365 A4440000 		.4byte	.LASF525
 11053 4369 0C       		.byte	0xc
 11054 436a 3B       		.byte	0x3b
 11055 436b C2150000 		.4byte	.LASF745
 11056 436f 2D010000 		.4byte	0x12d
 11057 4373 7B430000 		.4byte	0x437b
 11058 4377 95430000 		.4byte	0x4395
 11059 437b 28       		.uleb128 0x28
 11060 437c 92500000 		.4byte	0x5092
 11061 4380 13       		.uleb128 0x13
 11062 4381 404F0000 		.4byte	0x4f40
 11063 4385 13       		.uleb128 0x13
 11064 4386 CE000000 		.4byte	0xce
 11065 438a 13       		.uleb128 0x13
 11066 438b BF4D0000 		.4byte	0x4dbf
 11067 438f 13       		.uleb128 0x13
 11068 4390 25000000 		.4byte	0x25
ARM GAS  /tmp/ccB5ynkg.s 			page 197


 11069 4394 00       		.byte	0
 11070 4395 3B       		.uleb128 0x3b
 11071 4396 965B0000 		.4byte	.LASF528
 11072 439a 0C       		.byte	0xc
 11073 439b 3D       		.byte	0x3d
 11074 439c D25D0000 		.4byte	.LASF746
 11075 43a0 2D010000 		.4byte	0x12d
 11076 43a4 AC430000 		.4byte	0x43ac
 11077 43a8 C6430000 		.4byte	0x43c6
 11078 43ac 28       		.uleb128 0x28
 11079 43ad 92500000 		.4byte	0x5092
 11080 43b1 13       		.uleb128 0x13
 11081 43b2 4C4F0000 		.4byte	0x4f4c
 11082 43b6 13       		.uleb128 0x13
 11083 43b7 CE000000 		.4byte	0xce
 11084 43bb 13       		.uleb128 0x13
 11085 43bc 2E4F0000 		.4byte	0x4f2e
 11086 43c0 13       		.uleb128 0x13
 11087 43c1 25000000 		.4byte	0x25
 11088 43c5 00       		.byte	0
 11089 43c6 29       		.uleb128 0x29
 11090 43c7 DA180000 		.4byte	.LASF722
 11091 43cb 0C       		.byte	0xc
 11092 43cc 41       		.byte	0x41
 11093 43cd 92500000 		.4byte	0x5092
 11094 43d1 01       		.byte	0x1
 11095 43d2 DA430000 		.4byte	0x43da
 11096 43d6 EA430000 		.4byte	0x43ea
 11097 43da 28       		.uleb128 0x28
 11098 43db 92500000 		.4byte	0x5092
 11099 43df 13       		.uleb128 0x13
 11100 43e0 CE000000 		.4byte	0xce
 11101 43e4 13       		.uleb128 0x13
 11102 43e5 2D010000 		.4byte	0x12d
 11103 43e9 00       		.byte	0
 11104 43ea 29       		.uleb128 0x29
 11105 43eb F9480000 		.4byte	.LASF747
 11106 43ef 0C       		.byte	0xc
 11107 43f0 42       		.byte	0x42
 11108 43f1 BF000000 		.4byte	0xbf
 11109 43f5 01       		.byte	0x1
 11110 43f6 FE430000 		.4byte	0x43fe
 11111 43fa 09440000 		.4byte	0x4409
 11112 43fe 28       		.uleb128 0x28
 11113 43ff 92500000 		.4byte	0x5092
 11114 4403 28       		.uleb128 0x28
 11115 4404 37000000 		.4byte	0x37
 11116 4408 00       		.byte	0
 11117 4409 48       		.uleb128 0x48
 11118 440a 72490000 		.4byte	.LASF532
 11119 440e 0C       		.byte	0xc
 11120 440f 45       		.byte	0x45
 11121 4410 7F370000 		.4byte	.LASF748
 11122 4414 2D010000 		.4byte	0x12d
 11123 4418 01       		.byte	0x1
 11124 4419 28440000 		.4byte	0x4428
 11125 441d 13       		.uleb128 0x13
ARM GAS  /tmp/ccB5ynkg.s 			page 198


 11126 441e 5A500000 		.4byte	0x505a
 11127 4422 13       		.uleb128 0x13
 11128 4423 CE000000 		.4byte	0xce
 11129 4427 00       		.byte	0
 11130 4428 2E       		.uleb128 0x2e
 11131 4429 10180000 		.4byte	.LASF749
 11132 442d 0C       		.byte	0xc
 11133 442e 75       		.byte	0x75
 11134 442f 1C570000 		.4byte	.LASF750
 11135 4433 2D010000 		.4byte	0x12d
 11136 4437 01       		.byte	0x1
 11137 4438 48440000 		.4byte	0x4448
 11138 443c 5D440000 		.4byte	0x445d
 11139 4440 35       		.uleb128 0x35
 11140 4441 4D5400   		.ascii	"MT\000"
 11141 4444 DA460000 		.4byte	0x46da
 11142 4448 28       		.uleb128 0x28
 11143 4449 92500000 		.4byte	0x5092
 11144 444d 13       		.uleb128 0x13
 11145 444e 525D0000 		.4byte	0x5d52
 11146 4452 13       		.uleb128 0x13
 11147 4453 CE000000 		.4byte	0xce
 11148 4457 13       		.uleb128 0x13
 11149 4458 BF4D0000 		.4byte	0x4dbf
 11150 445c 00       		.byte	0
 11151 445d 2E       		.uleb128 0x2e
 11152 445e A22A0000 		.4byte	.LASF751
 11153 4462 0C       		.byte	0xc
 11154 4463 85       		.byte	0x85
 11155 4464 2B2B0000 		.4byte	.LASF752
 11156 4468 2D010000 		.4byte	0x12d
 11157 446c 01       		.byte	0x1
 11158 446d 86440000 		.4byte	0x4486
 11159 4471 96440000 		.4byte	0x4496
 11160 4475 35       		.uleb128 0x35
 11161 4476 4D5400   		.ascii	"MT\000"
 11162 4479 2E470000 		.4byte	0x472e
 11163 447d 4F       		.uleb128 0x4f
 11164 447e 514C00   		.ascii	"QL\000"
 11165 4481 30000000 		.4byte	0x30
 11166 4485 05       		.byte	0x5
 11167 4486 28       		.uleb128 0x28
 11168 4487 92500000 		.4byte	0x5092
 11169 448b 13       		.uleb128 0x13
 11170 448c 715E0000 		.4byte	0x5e71
 11171 4490 13       		.uleb128 0x13
 11172 4491 CE000000 		.4byte	0xce
 11173 4495 00       		.byte	0
 11174 4496 3C       		.uleb128 0x3c
 11175 4497 B3410000 		.4byte	.LASF753
 11176 449b 0C       		.byte	0xc
 11177 449c 75       		.byte	0x75
 11178 449d CB160000 		.4byte	.LASF754
 11179 44a1 2D010000 		.4byte	0x12d
 11180 44a5 01       		.byte	0x1
 11181 44a6 B2440000 		.4byte	0x44b2
 11182 44aa 35       		.uleb128 0x35
ARM GAS  /tmp/ccB5ynkg.s 			page 199


 11183 44ab 4D5400   		.ascii	"MT\000"
 11184 44ae FB460000 		.4byte	0x46fb
 11185 44b2 28       		.uleb128 0x28
 11186 44b3 92500000 		.4byte	0x5092
 11187 44b7 13       		.uleb128 0x13
 11188 44b8 405F0000 		.4byte	0x5f40
 11189 44bc 13       		.uleb128 0x13
 11190 44bd CE000000 		.4byte	0xce
 11191 44c1 13       		.uleb128 0x13
 11192 44c2 BF4D0000 		.4byte	0x4dbf
 11193 44c6 00       		.byte	0
 11194 44c7 00       		.byte	0
 11195 44c8 07       		.uleb128 0x7
 11196 44c9 973B0000 		.4byte	0x3b97
 11197 44cd 49       		.uleb128 0x49
 11198 44ce 16380000 		.4byte	.LASF755
 11199 44d2 08       		.byte	0x8
 11200 44d3 2F       		.byte	0x2f
 11201 44d4 0F       		.byte	0xf
 11202 44d5 CD440000 		.4byte	0x44cd
 11203 44d9 DA460000 		.4byte	0x46da
 11204 44dd 2B       		.uleb128 0x2b
 11205 44de 65110000 		.4byte	0x1165
 11206 44e2 00       		.byte	0
 11207 44e3 50       		.uleb128 0x50
 11208 44e4 A4280000 		.4byte	.LASF756
 11209 44e8 0B520000 		.4byte	0x520b
 11210 44ec 00       		.byte	0
 11211 44ed 01       		.byte	0x1
 11212 44ee 0C       		.uleb128 0xc
 11213 44ef 434F0000 		.4byte	.LASF757
 11214 44f3 2F       		.byte	0x2f
 11215 44f4 11       		.byte	0x11
 11216 44f5 FA4E0000 		.4byte	0x4efa
 11217 44f9 04       		.byte	0x4
 11218 44fa 4B       		.uleb128 0x4b
 11219 44fb 16380000 		.4byte	.LASF755
 11220 44ff D2500000 		.4byte	0x50d2
 11221 4503 01       		.byte	0x1
 11222 4504 0C450000 		.4byte	0x450c
 11223 4508 17450000 		.4byte	0x4517
 11224 450c 28       		.uleb128 0x28
 11225 450d D2500000 		.4byte	0x50d2
 11226 4511 13       		.uleb128 0x13
 11227 4512 1B520000 		.4byte	0x521b
 11228 4516 00       		.byte	0
 11229 4517 2E       		.uleb128 0x2e
 11230 4518 3A0D0000 		.4byte	.LASF758
 11231 451c 2F       		.byte	0x2f
 11232 451d 2A       		.byte	0x2a
 11233 451e 0E5F0000 		.4byte	.LASF759
 11234 4522 FA4E0000 		.4byte	0x4efa
 11235 4526 01       		.byte	0x1
 11236 4527 2F450000 		.4byte	0x452f
 11237 452b 35450000 		.4byte	0x4535
 11238 452f 28       		.uleb128 0x28
 11239 4530 21520000 		.4byte	0x5221
ARM GAS  /tmp/ccB5ynkg.s 			page 200


 11240 4534 00       		.byte	0
 11241 4535 43       		.uleb128 0x43
 11242 4536 311D0000 		.4byte	.LASF391
 11243 453a 2F       		.byte	0x2f
 11244 453b 15       		.byte	0x15
 11245 453c A55D0000 		.4byte	.LASF760
 11246 4540 25000000 		.4byte	0x25
 11247 4544 01       		.byte	0x1
 11248 4545 02       		.uleb128 0x2
 11249 4546 10       		.byte	0x10
 11250 4547 00       		.uleb128 0
 11251 4548 CD440000 		.4byte	0x44cd
 11252 454c 01       		.byte	0x1
 11253 454d 55450000 		.4byte	0x4555
 11254 4551 5B450000 		.4byte	0x455b
 11255 4555 28       		.uleb128 0x28
 11256 4556 21520000 		.4byte	0x5221
 11257 455a 00       		.byte	0
 11258 455b 2F       		.uleb128 0x2f
 11259 455c D21A0000 		.4byte	.LASF761
 11260 4560 2F       		.byte	0x2f
 11261 4561 31       		.byte	0x31
 11262 4562 A85B0000 		.4byte	.LASF762
 11263 4566 01       		.byte	0x1
 11264 4567 6F450000 		.4byte	0x456f
 11265 456b 7A450000 		.4byte	0x457a
 11266 456f 28       		.uleb128 0x28
 11267 4570 D2500000 		.4byte	0x50d2
 11268 4574 13       		.uleb128 0x13
 11269 4575 1D4F0000 		.4byte	0x4f1d
 11270 4579 00       		.byte	0
 11271 457a 43       		.uleb128 0x43
 11272 457b D4230000 		.4byte	.LASF735
 11273 457f 2F       		.byte	0x2f
 11274 4580 18       		.byte	0x18
 11275 4581 040E0000 		.4byte	.LASF763
 11276 4585 2D010000 		.4byte	0x12d
 11277 4589 01       		.byte	0x1
 11278 458a 02       		.uleb128 0x2
 11279 458b 10       		.byte	0x10
 11280 458c 01       		.uleb128 0x1
 11281 458d CD440000 		.4byte	0x44cd
 11282 4591 01       		.byte	0x1
 11283 4592 9A450000 		.4byte	0x459a
 11284 4596 AA450000 		.4byte	0x45aa
 11285 459a 28       		.uleb128 0x28
 11286 459b D2500000 		.4byte	0x50d2
 11287 459f 13       		.uleb128 0x13
 11288 45a0 344F0000 		.4byte	0x4f34
 11289 45a4 13       		.uleb128 0x13
 11290 45a5 BF4D0000 		.4byte	0x4dbf
 11291 45a9 00       		.byte	0
 11292 45aa 43       		.uleb128 0x43
 11293 45ab F9330000 		.4byte	.LASF392
 11294 45af 2F       		.byte	0x2f
 11295 45b0 19       		.byte	0x19
 11296 45b1 B91D0000 		.4byte	.LASF764
ARM GAS  /tmp/ccB5ynkg.s 			page 201


 11297 45b5 2D010000 		.4byte	0x12d
 11298 45b9 01       		.byte	0x1
 11299 45ba 02       		.uleb128 0x2
 11300 45bb 10       		.byte	0x10
 11301 45bc 02       		.uleb128 0x2
 11302 45bd CD440000 		.4byte	0x44cd
 11303 45c1 01       		.byte	0x1
 11304 45c2 CA450000 		.4byte	0x45ca
 11305 45c6 DA450000 		.4byte	0x45da
 11306 45ca 28       		.uleb128 0x28
 11307 45cb D2500000 		.4byte	0x50d2
 11308 45cf 13       		.uleb128 0x13
 11309 45d0 E64F0000 		.4byte	0x4fe6
 11310 45d4 13       		.uleb128 0x13
 11311 45d5 B34D0000 		.4byte	0x4db3
 11312 45d9 00       		.byte	0
 11313 45da 2E       		.uleb128 0x2e
 11314 45db 56260000 		.4byte	.LASF502
 11315 45df 2F       		.byte	0x2f
 11316 45e0 1A       		.byte	0x1a
 11317 45e1 D5390000 		.4byte	.LASF765
 11318 45e5 2D010000 		.4byte	0x12d
 11319 45e9 01       		.byte	0x1
 11320 45ea F2450000 		.4byte	0x45f2
 11321 45ee FD450000 		.4byte	0x45fd
 11322 45f2 28       		.uleb128 0x28
 11323 45f3 D2500000 		.4byte	0x50d2
 11324 45f7 13       		.uleb128 0x13
 11325 45f8 344F0000 		.4byte	0x4f34
 11326 45fc 00       		.byte	0
 11327 45fd 43       		.uleb128 0x43
 11328 45fe 112C0000 		.4byte	.LASF739
 11329 4602 2F       		.byte	0x2f
 11330 4603 1C       		.byte	0x1c
 11331 4604 6A470000 		.4byte	.LASF766
 11332 4608 2D010000 		.4byte	0x12d
 11333 460c 01       		.byte	0x1
 11334 460d 02       		.uleb128 0x2
 11335 460e 10       		.byte	0x10
 11336 460f 03       		.uleb128 0x3
 11337 4610 CD440000 		.4byte	0x44cd
 11338 4614 01       		.byte	0x1
 11339 4615 1D460000 		.4byte	0x461d
 11340 4619 2D460000 		.4byte	0x462d
 11341 461d 28       		.uleb128 0x28
 11342 461e D2500000 		.4byte	0x50d2
 11343 4622 13       		.uleb128 0x13
 11344 4623 344F0000 		.4byte	0x4f34
 11345 4627 13       		.uleb128 0x13
 11346 4628 BF4D0000 		.4byte	0x4dbf
 11347 462c 00       		.byte	0
 11348 462d 43       		.uleb128 0x43
 11349 462e 99230000 		.4byte	.LASF616
 11350 4632 2F       		.byte	0x2f
 11351 4633 1D       		.byte	0x1d
 11352 4634 F42A0000 		.4byte	.LASF767
 11353 4638 2D010000 		.4byte	0x12d
ARM GAS  /tmp/ccB5ynkg.s 			page 202


 11354 463c 01       		.byte	0x1
 11355 463d 02       		.uleb128 0x2
 11356 463e 10       		.byte	0x10
 11357 463f 04       		.uleb128 0x4
 11358 4640 CD440000 		.4byte	0x44cd
 11359 4644 01       		.byte	0x1
 11360 4645 4D460000 		.4byte	0x464d
 11361 4649 5D460000 		.4byte	0x465d
 11362 464d 28       		.uleb128 0x28
 11363 464e D2500000 		.4byte	0x50d2
 11364 4652 13       		.uleb128 0x13
 11365 4653 E64F0000 		.4byte	0x4fe6
 11366 4657 13       		.uleb128 0x13
 11367 4658 B34D0000 		.4byte	0x4db3
 11368 465c 00       		.byte	0
 11369 465d 2E       		.uleb128 0x2e
 11370 465e 62470000 		.4byte	.LASF252
 11371 4662 2F       		.byte	0x2f
 11372 4663 1E       		.byte	0x1e
 11373 4664 C05A0000 		.4byte	.LASF768
 11374 4668 2D010000 		.4byte	0x12d
 11375 466c 01       		.byte	0x1
 11376 466d 75460000 		.4byte	0x4675
 11377 4671 80460000 		.4byte	0x4680
 11378 4675 28       		.uleb128 0x28
 11379 4676 D2500000 		.4byte	0x50d2
 11380 467a 13       		.uleb128 0x13
 11381 467b 344F0000 		.4byte	0x4f34
 11382 467f 00       		.byte	0
 11383 4680 29       		.uleb128 0x29
 11384 4681 16380000 		.4byte	.LASF755
 11385 4685 2F       		.byte	0x2f
 11386 4686 21       		.byte	0x21
 11387 4687 D2500000 		.4byte	0x50d2
 11388 468b 02       		.byte	0x2
 11389 468c 94460000 		.4byte	0x4694
 11390 4690 9A460000 		.4byte	0x469a
 11391 4694 28       		.uleb128 0x28
 11392 4695 D2500000 		.4byte	0x50d2
 11393 4699 00       		.byte	0
 11394 469a 51       		.uleb128 0x51
 11395 469b 44030000 		.4byte	.LASF781
 11396 469f 2F       		.byte	0x2f
 11397 46a0 22       		.byte	0x22
 11398 46a1 BF000000 		.4byte	0xbf
 11399 46a5 01       		.byte	0x1
 11400 46a6 CD440000 		.4byte	0x44cd
 11401 46aa 02       		.byte	0x2
 11402 46ab B3460000 		.4byte	0x46b3
 11403 46af BE460000 		.4byte	0x46be
 11404 46b3 28       		.uleb128 0x28
 11405 46b4 D2500000 		.4byte	0x50d2
 11406 46b8 28       		.uleb128 0x28
 11407 46b9 37000000 		.4byte	0x37
 11408 46bd 00       		.byte	0
 11409 46be 46       		.uleb128 0x46
 11410 46bf DE310000 		.4byte	.LASF769
ARM GAS  /tmp/ccB5ynkg.s 			page 203


 11411 46c3 2F       		.byte	0x2f
 11412 46c4 25       		.byte	0x25
 11413 46c5 6B3B0000 		.4byte	.LASF770
 11414 46c9 2D010000 		.4byte	0x12d
 11415 46cd 01       		.byte	0x1
 11416 46ce 13       		.uleb128 0x13
 11417 46cf 1B520000 		.4byte	0x521b
 11418 46d3 13       		.uleb128 0x13
 11419 46d4 CE000000 		.4byte	0xce
 11420 46d8 00       		.byte	0
 11421 46d9 00       		.byte	0
 11422 46da 26       		.uleb128 0x26
 11423 46db 88550000 		.4byte	.LASF771
 11424 46df 0E       		.byte	0xe
 11425 46e0 30       		.byte	0x30
 11426 46e1 23       		.byte	0x23
 11427 46e2 FB460000 		.4byte	0x46fb
 11428 46e6 4A       		.uleb128 0x4a
 11429 46e7 BD2C0000 		.4byte	0x2cbd
 11430 46eb 00       		.byte	0
 11431 46ec 01       		.byte	0x1
 11432 46ed 52       		.uleb128 0x52
 11433 46ee FB1C0000 		.4byte	.LASF772
 11434 46f2 30       		.byte	0x30
 11435 46f3 25       		.byte	0x25
 11436 46f4 33510000 		.4byte	0x5133
 11437 46f8 02       		.byte	0x2
 11438 46f9 01       		.byte	0x1
 11439 46fa 00       		.byte	0
 11440 46fb 09       		.uleb128 0x9
 11441 46fc 011D0000 		.4byte	.LASF773
 11442 4700 0E       		.byte	0xe
 11443 4701 30       		.byte	0x30
 11444 4702 5F       		.byte	0x5f
 11445 4703 2E470000 		.4byte	0x472e
 11446 4707 2B       		.uleb128 0x2b
 11447 4708 BD2C0000 		.4byte	0x2cbd
 11448 470c 00       		.byte	0
 11449 470d 0D       		.uleb128 0xd
 11450 470e 6B00     		.ascii	"k\000"
 11451 4710 30       		.byte	0x30
 11452 4711 60       		.byte	0x60
 11453 4712 2C510000 		.4byte	0x512c
 11454 4716 02       		.byte	0x2
 11455 4717 0D       		.uleb128 0xd
 11456 4718 746900   		.ascii	"ti\000"
 11457 471b 30       		.byte	0x30
 11458 471c 61       		.byte	0x61
 11459 471d 2C510000 		.4byte	0x512c
 11460 4721 06       		.byte	0x6
 11461 4722 0D       		.uleb128 0xd
 11462 4723 746400   		.ascii	"td\000"
 11463 4726 30       		.byte	0x30
 11464 4727 62       		.byte	0x62
 11465 4728 2C510000 		.4byte	0x512c
 11466 472c 0A       		.byte	0xa
 11467 472d 00       		.byte	0
ARM GAS  /tmp/ccB5ynkg.s 			page 204


 11468 472e 26       		.uleb128 0x26
 11469 472f B42E0000 		.4byte	.LASF774
 11470 4733 10       		.byte	0x10
 11471 4734 12       		.byte	0x12
 11472 4735 04       		.byte	0x4
 11473 4736 63470000 		.4byte	0x4763
 11474 473a 4A       		.uleb128 0x4a
 11475 473b BD2C0000 		.4byte	0x2cbd
 11476 473f 00       		.byte	0
 11477 4740 01       		.byte	0x1
 11478 4741 52       		.uleb128 0x52
 11479 4742 35430000 		.4byte	.LASF775
 11480 4746 12       		.byte	0x12
 11481 4747 06       		.byte	0x6
 11482 4748 43510000 		.4byte	0x5143
 11483 474c 02       		.byte	0x2
 11484 474d 01       		.byte	0x1
 11485 474e 53       		.uleb128 0x53
 11486 474f B42E0000 		.4byte	.LASF774
 11487 4753 73510000 		.4byte	0x5173
 11488 4757 01       		.byte	0x1
 11489 4758 5C470000 		.4byte	0x475c
 11490 475c 28       		.uleb128 0x28
 11491 475d 73510000 		.4byte	0x5173
 11492 4761 00       		.byte	0
 11493 4762 00       		.byte	0
 11494 4763 49       		.uleb128 0x49
 11495 4764 1F0F0000 		.4byte	.LASF776
 11496 4768 9C       		.byte	0x9c
 11497 4769 13       		.byte	0x13
 11498 476a 0E       		.byte	0xe
 11499 476b CD440000 		.4byte	0x44cd
 11500 476f 12480000 		.4byte	0x4812
 11501 4773 4A       		.uleb128 0x4a
 11502 4774 12480000 		.4byte	0x4812
 11503 4778 00       		.byte	0
 11504 4779 01       		.byte	0x1
 11505 477a 0C       		.uleb128 0xc
 11506 477b 5E130000 		.4byte	.LASF777
 11507 477f 13       		.byte	0x13
 11508 4780 15       		.byte	0x15
 11509 4781 53510000 		.4byte	0x5153
 11510 4785 38       		.byte	0x38
 11511 4786 0C       		.uleb128 0xc
 11512 4787 963B0000 		.4byte	.LASF778
 11513 478b 13       		.byte	0x13
 11514 478c 16       		.byte	0x16
 11515 478d 63510000 		.4byte	0x5163
 11516 4791 88       		.byte	0x88
 11517 4792 2D       		.uleb128 0x2d
 11518 4793 F90B0000 		.4byte	.LASF779
 11519 4797 13       		.byte	0x13
 11520 4798 12       		.byte	0x12
 11521 4799 22480000 		.4byte	0x4822
 11522 479d 01       		.byte	0x1
 11523 479e 4B       		.uleb128 0x4b
 11524 479f 0A5D0000 		.4byte	.LASF780
ARM GAS  /tmp/ccB5ynkg.s 			page 205


 11525 47a3 94510000 		.4byte	0x5194
 11526 47a7 01       		.byte	0x1
 11527 47a8 B0470000 		.4byte	0x47b0
 11528 47ac BB470000 		.4byte	0x47bb
 11529 47b0 28       		.uleb128 0x28
 11530 47b1 94510000 		.4byte	0x5194
 11531 47b5 13       		.uleb128 0x13
 11532 47b6 9A510000 		.4byte	0x519a
 11533 47ba 00       		.byte	0
 11534 47bb 29       		.uleb128 0x29
 11535 47bc 0A5D0000 		.4byte	.LASF780
 11536 47c0 13       		.byte	0x13
 11537 47c1 1F       		.byte	0x1f
 11538 47c2 94510000 		.4byte	0x5194
 11539 47c6 01       		.byte	0x1
 11540 47c7 CF470000 		.4byte	0x47cf
 11541 47cb DA470000 		.4byte	0x47da
 11542 47cf 28       		.uleb128 0x28
 11543 47d0 94510000 		.4byte	0x5194
 11544 47d4 13       		.uleb128 0x13
 11545 47d5 92470000 		.4byte	0x4792
 11546 47d9 00       		.byte	0
 11547 47da 51       		.uleb128 0x51
 11548 47db 3A080000 		.4byte	.LASF782
 11549 47df 13       		.byte	0x13
 11550 47e0 26       		.byte	0x26
 11551 47e1 BF000000 		.4byte	0xbf
 11552 47e5 01       		.byte	0x1
 11553 47e6 63470000 		.4byte	0x4763
 11554 47ea 01       		.byte	0x1
 11555 47eb F3470000 		.4byte	0x47f3
 11556 47ef FE470000 		.4byte	0x47fe
 11557 47f3 28       		.uleb128 0x28
 11558 47f4 94510000 		.4byte	0x5194
 11559 47f8 28       		.uleb128 0x28
 11560 47f9 37000000 		.4byte	0x37
 11561 47fd 00       		.byte	0
 11562 47fe 41       		.uleb128 0x41
 11563 47ff 92110000 		.4byte	.LASF783
 11564 4803 2E470000 		.4byte	0x472e
 11565 4807 54       		.uleb128 0x54
 11566 4808 66570000 		.4byte	.LASF784
 11567 480c 30000000 		.4byte	0x30
 11568 4810 05       		.byte	0x5
 11569 4811 00       		.byte	0
 11570 4812 49       		.uleb128 0x49
 11571 4813 091C0000 		.4byte	.LASF785
 11572 4817 38       		.byte	0x38
 11573 4818 14       		.byte	0x14
 11574 4819 0D       		.byte	0xd
 11575 481a CD440000 		.4byte	0x44cd
 11576 481e 35490000 		.4byte	0x4935
 11577 4822 2D       		.uleb128 0x2d
 11578 4823 F90B0000 		.4byte	.LASF779
 11579 4827 14       		.byte	0x14
 11580 4828 0F       		.byte	0xf
 11581 4829 79510000 		.4byte	0x5179
ARM GAS  /tmp/ccB5ynkg.s 			page 206


 11582 482d 01       		.byte	0x1
 11583 482e 4A       		.uleb128 0x4a
 11584 482f 091D0000 		.4byte	0x1d09
 11585 4833 00       		.byte	0
 11586 4834 01       		.byte	0x1
 11587 4835 4B       		.uleb128 0x4b
 11588 4836 EF5F0000 		.4byte	.LASF786
 11589 483a A0510000 		.4byte	0x51a0
 11590 483e 01       		.byte	0x1
 11591 483f 47480000 		.4byte	0x4847
 11592 4843 52480000 		.4byte	0x4852
 11593 4847 28       		.uleb128 0x28
 11594 4848 A0510000 		.4byte	0x51a0
 11595 484c 13       		.uleb128 0x13
 11596 484d A6510000 		.4byte	0x51a6
 11597 4851 00       		.byte	0
 11598 4852 2E       		.uleb128 0x2e
 11599 4853 EF0F0000 		.4byte	.LASF787
 11600 4857 14       		.byte	0x14
 11601 4858 32       		.byte	0x32
 11602 4859 25130000 		.4byte	.LASF788
 11603 485d 22480000 		.4byte	0x4822
 11604 4861 01       		.byte	0x1
 11605 4862 6A480000 		.4byte	0x486a
 11606 4866 70480000 		.4byte	0x4870
 11607 486a 28       		.uleb128 0x28
 11608 486b AC510000 		.4byte	0x51ac
 11609 486f 00       		.byte	0
 11610 4870 2E       		.uleb128 0x2e
 11611 4871 99230000 		.4byte	.LASF616
 11612 4875 14       		.byte	0x14
 11613 4876 1F       		.byte	0x1f
 11614 4877 7F210000 		.4byte	.LASF789
 11615 487b 2D010000 		.4byte	0x12d
 11616 487f 01       		.byte	0x1
 11617 4880 88480000 		.4byte	0x4888
 11618 4884 93480000 		.4byte	0x4893
 11619 4888 28       		.uleb128 0x28
 11620 4889 A0510000 		.4byte	0x51a0
 11621 488d 13       		.uleb128 0x13
 11622 488e B2510000 		.4byte	0x51b2
 11623 4892 00       		.byte	0
 11624 4893 2E       		.uleb128 0x2e
 11625 4894 99230000 		.4byte	.LASF616
 11626 4898 14       		.byte	0x14
 11627 4899 27       		.byte	0x27
 11628 489a FE230000 		.4byte	.LASF790
 11629 489e 2D010000 		.4byte	0x12d
 11630 48a2 01       		.byte	0x1
 11631 48a3 AB480000 		.4byte	0x48ab
 11632 48a7 BB480000 		.4byte	0x48bb
 11633 48ab 28       		.uleb128 0x28
 11634 48ac A0510000 		.4byte	0x51a0
 11635 48b0 13       		.uleb128 0x13
 11636 48b1 B2510000 		.4byte	0x51b2
 11637 48b5 13       		.uleb128 0x13
 11638 48b6 B34D0000 		.4byte	0x4db3
ARM GAS  /tmp/ccB5ynkg.s 			page 207


 11639 48ba 00       		.byte	0
 11640 48bb 2E       		.uleb128 0x2e
 11641 48bc 62470000 		.4byte	.LASF252
 11642 48c0 14       		.byte	0x14
 11643 48c1 39       		.byte	0x39
 11644 48c2 4D5C0000 		.4byte	.LASF791
 11645 48c6 2D010000 		.4byte	0x12d
 11646 48ca 01       		.byte	0x1
 11647 48cb D3480000 		.4byte	0x48d3
 11648 48cf DE480000 		.4byte	0x48de
 11649 48d3 28       		.uleb128 0x28
 11650 48d4 A0510000 		.4byte	0x51a0
 11651 48d8 13       		.uleb128 0x13
 11652 48d9 B8510000 		.4byte	0x51b8
 11653 48dd 00       		.byte	0
 11654 48de 29       		.uleb128 0x29
 11655 48df EF5F0000 		.4byte	.LASF786
 11656 48e3 14       		.byte	0x14
 11657 48e4 41       		.byte	0x41
 11658 48e5 A0510000 		.4byte	0x51a0
 11659 48e9 01       		.byte	0x1
 11660 48ea F2480000 		.4byte	0x48f2
 11661 48ee 07490000 		.4byte	0x4907
 11662 48f2 28       		.uleb128 0x28
 11663 48f3 A0510000 		.4byte	0x51a0
 11664 48f7 13       		.uleb128 0x13
 11665 48f8 BE510000 		.4byte	0x51be
 11666 48fc 13       		.uleb128 0x13
 11667 48fd 25000000 		.4byte	0x25
 11668 4901 13       		.uleb128 0x13
 11669 4902 22480000 		.4byte	0x4822
 11670 4906 00       		.byte	0
 11671 4907 51       		.uleb128 0x51
 11672 4908 375D0000 		.4byte	.LASF792
 11673 490c 14       		.byte	0x14
 11674 490d 4C       		.byte	0x4c
 11675 490e BF000000 		.4byte	0xbf
 11676 4912 01       		.byte	0x1
 11677 4913 12480000 		.4byte	0x4812
 11678 4917 01       		.byte	0x1
 11679 4918 20490000 		.4byte	0x4920
 11680 491c 2B490000 		.4byte	0x492b
 11681 4920 28       		.uleb128 0x28
 11682 4921 A0510000 		.4byte	0x51a0
 11683 4925 28       		.uleb128 0x28
 11684 4926 37000000 		.4byte	0x37
 11685 492a 00       		.byte	0
 11686 492b 41       		.uleb128 0x41
 11687 492c 92110000 		.4byte	.LASF783
 11688 4930 2E470000 		.4byte	0x472e
 11689 4934 00       		.byte	0
 11690 4935 07       		.uleb128 0x7
 11691 4936 2E470000 		.4byte	0x472e
 11692 493a 07       		.uleb128 0x7
 11693 493b 63470000 		.4byte	0x4763
 11694 493f 07       		.uleb128 0x7
 11695 4940 12480000 		.4byte	0x4812
ARM GAS  /tmp/ccB5ynkg.s 			page 208


 11696 4944 49       		.uleb128 0x49
 11697 4945 88240000 		.4byte	.LASF793
 11698 4949 10       		.byte	0x10
 11699 494a 11       		.byte	0x11
 11700 494b 0C       		.byte	0xc
 11701 494c 2E4A0000 		.4byte	0x4a2e
 11702 4950 294A0000 		.4byte	0x4a29
 11703 4954 4A       		.uleb128 0x4a
 11704 4955 2D2E0000 		.4byte	0x2e2d
 11705 4959 00       		.byte	0
 11706 495a 01       		.byte	0x1
 11707 495b 4B       		.uleb128 0x4b
 11708 495c F05C0000 		.4byte	.LASF794
 11709 4960 C4510000 		.4byte	0x51c4
 11710 4964 01       		.byte	0x1
 11711 4965 6D490000 		.4byte	0x496d
 11712 4969 78490000 		.4byte	0x4978
 11713 496d 28       		.uleb128 0x28
 11714 496e C4510000 		.4byte	0x51c4
 11715 4972 13       		.uleb128 0x13
 11716 4973 CA510000 		.4byte	0x51ca
 11717 4977 00       		.byte	0
 11718 4978 2E       		.uleb128 0x2e
 11719 4979 D8310000 		.4byte	.LASF267
 11720 497d 11       		.byte	0x11
 11721 497e 19       		.byte	0x19
 11722 497f D60D0000 		.4byte	.LASF795
 11723 4983 2D010000 		.4byte	0x12d
 11724 4987 01       		.byte	0x1
 11725 4988 90490000 		.4byte	0x4990
 11726 498c 9B490000 		.4byte	0x499b
 11727 4990 28       		.uleb128 0x28
 11728 4991 C4510000 		.4byte	0x51c4
 11729 4995 13       		.uleb128 0x13
 11730 4996 D0510000 		.4byte	0x51d0
 11731 499a 00       		.byte	0
 11732 499b 2E       		.uleb128 0x2e
 11733 499c 4A4F0000 		.4byte	.LASF796
 11734 49a0 11       		.byte	0x11
 11735 49a1 21       		.byte	0x21
 11736 49a2 825C0000 		.4byte	.LASF797
 11737 49a6 2D010000 		.4byte	0x12d
 11738 49aa 01       		.byte	0x1
 11739 49ab B3490000 		.4byte	0x49b3
 11740 49af BE490000 		.4byte	0x49be
 11741 49b3 28       		.uleb128 0x28
 11742 49b4 C4510000 		.4byte	0x51c4
 11743 49b8 13       		.uleb128 0x13
 11744 49b9 DC510000 		.4byte	0x51dc
 11745 49bd 00       		.byte	0
 11746 49be 2E       		.uleb128 0x2e
 11747 49bf 4A4F0000 		.4byte	.LASF796
 11748 49c3 11       		.byte	0x11
 11749 49c4 28       		.byte	0x28
 11750 49c5 9C5F0000 		.4byte	.LASF798
 11751 49c9 2D010000 		.4byte	0x12d
 11752 49cd 01       		.byte	0x1
ARM GAS  /tmp/ccB5ynkg.s 			page 209


 11753 49ce D6490000 		.4byte	0x49d6
 11754 49d2 E1490000 		.4byte	0x49e1
 11755 49d6 28       		.uleb128 0x28
 11756 49d7 C4510000 		.4byte	0x51c4
 11757 49db 13       		.uleb128 0x13
 11758 49dc D6510000 		.4byte	0x51d6
 11759 49e0 00       		.byte	0
 11760 49e1 29       		.uleb128 0x29
 11761 49e2 F05C0000 		.4byte	.LASF794
 11762 49e6 11       		.byte	0x11
 11763 49e7 2F       		.byte	0x2f
 11764 49e8 C4510000 		.4byte	0x51c4
 11765 49ec 01       		.byte	0x1
 11766 49ed F5490000 		.4byte	0x49f5
 11767 49f1 FB490000 		.4byte	0x49fb
 11768 49f5 28       		.uleb128 0x28
 11769 49f6 C4510000 		.4byte	0x51c4
 11770 49fa 00       		.byte	0
 11771 49fb 51       		.uleb128 0x51
 11772 49fc 6D510000 		.4byte	.LASF799
 11773 4a00 11       		.byte	0x11
 11774 4a01 36       		.byte	0x36
 11775 4a02 BF000000 		.4byte	0xbf
 11776 4a06 01       		.byte	0x1
 11777 4a07 44490000 		.4byte	0x4944
 11778 4a0b 01       		.byte	0x1
 11779 4a0c 144A0000 		.4byte	0x4a14
 11780 4a10 1F4A0000 		.4byte	0x4a1f
 11781 4a14 28       		.uleb128 0x28
 11782 4a15 C4510000 		.4byte	0x51c4
 11783 4a19 28       		.uleb128 0x28
 11784 4a1a 37000000 		.4byte	0x37
 11785 4a1e 00       		.byte	0
 11786 4a1f 41       		.uleb128 0x41
 11787 4a20 92110000 		.4byte	.LASF783
 11788 4a24 FB460000 		.4byte	0x46fb
 11789 4a28 00       		.byte	0
 11790 4a29 07       		.uleb128 0x7
 11791 4a2a 44490000 		.4byte	0x4944
 11792 4a2e 49       		.uleb128 0x49
 11793 4a2f 12270000 		.4byte	.LASF800
 11794 4a33 08       		.byte	0x8
 11795 4a34 07       		.byte	0x7
 11796 4a35 0C       		.byte	0xc
 11797 4a36 2E4A0000 		.4byte	0x4a2e
 11798 4a3a 274C0000 		.4byte	0x4c27
 11799 4a3e 2B       		.uleb128 0x2b
 11800 4a3f 65110000 		.4byte	0x1165
 11801 4a43 00       		.byte	0
 11802 4a44 50       		.uleb128 0x50
 11803 4a45 95130000 		.4byte	.LASF801
 11804 4a49 0B520000 		.4byte	0x520b
 11805 4a4d 00       		.byte	0
 11806 4a4e 01       		.byte	0x1
 11807 4a4f 0C       		.uleb128 0xc
 11808 4a50 434F0000 		.4byte	.LASF757
 11809 4a54 07       		.byte	0x7
ARM GAS  /tmp/ccB5ynkg.s 			page 210


 11810 4a55 0E       		.byte	0xe
 11811 4a56 FA4E0000 		.4byte	0x4efa
 11812 4a5a 04       		.byte	0x4
 11813 4a5b 4B       		.uleb128 0x4b
 11814 4a5c 12270000 		.4byte	.LASF800
 11815 4a60 27520000 		.4byte	0x5227
 11816 4a64 01       		.byte	0x1
 11817 4a65 6D4A0000 		.4byte	0x4a6d
 11818 4a69 784A0000 		.4byte	0x4a78
 11819 4a6d 28       		.uleb128 0x28
 11820 4a6e 27520000 		.4byte	0x5227
 11821 4a72 13       		.uleb128 0x13
 11822 4a73 2D520000 		.4byte	0x522d
 11823 4a77 00       		.byte	0
 11824 4a78 2E       		.uleb128 0x2e
 11825 4a79 3A0D0000 		.4byte	.LASF758
 11826 4a7d 07       		.byte	0x7
 11827 4a7e 30       		.byte	0x30
 11828 4a7f F8240000 		.4byte	.LASF802
 11829 4a83 FA4E0000 		.4byte	0x4efa
 11830 4a87 01       		.byte	0x1
 11831 4a88 904A0000 		.4byte	0x4a90
 11832 4a8c 964A0000 		.4byte	0x4a96
 11833 4a90 28       		.uleb128 0x28
 11834 4a91 33520000 		.4byte	0x5233
 11835 4a95 00       		.byte	0
 11836 4a96 2F       		.uleb128 0x2f
 11837 4a97 9A020000 		.4byte	.LASF803
 11838 4a9b 07       		.byte	0x7
 11839 4a9c 37       		.byte	0x37
 11840 4a9d 494C0000 		.4byte	.LASF804
 11841 4aa1 01       		.byte	0x1
 11842 4aa2 AA4A0000 		.4byte	0x4aaa
 11843 4aa6 B54A0000 		.4byte	0x4ab5
 11844 4aaa 28       		.uleb128 0x28
 11845 4aab 27520000 		.4byte	0x5227
 11846 4aaf 13       		.uleb128 0x13
 11847 4ab0 1D4F0000 		.4byte	0x4f1d
 11848 4ab4 00       		.byte	0
 11849 4ab5 2E       		.uleb128 0x2e
 11850 4ab6 25350000 		.4byte	.LASF264
 11851 4aba 07       		.byte	0x7
 11852 4abb 40       		.byte	0x40
 11853 4abc 504A0000 		.4byte	.LASF805
 11854 4ac0 2D010000 		.4byte	0x12d
 11855 4ac4 01       		.byte	0x1
 11856 4ac5 CD4A0000 		.4byte	0x4acd
 11857 4ac9 D84A0000 		.4byte	0x4ad8
 11858 4acd 28       		.uleb128 0x28
 11859 4ace 27520000 		.4byte	0x5227
 11860 4ad2 13       		.uleb128 0x13
 11861 4ad3 E64F0000 		.4byte	0x4fe6
 11862 4ad7 00       		.byte	0
 11863 4ad8 2E       		.uleb128 0x2e
 11864 4ad9 053D0000 		.4byte	.LASF806
 11865 4add 07       		.byte	0x7
 11866 4ade 16       		.byte	0x16
ARM GAS  /tmp/ccB5ynkg.s 			page 211


 11867 4adf F8110000 		.4byte	.LASF807
 11868 4ae3 2D010000 		.4byte	0x12d
 11869 4ae7 01       		.byte	0x1
 11870 4ae8 F04A0000 		.4byte	0x4af0
 11871 4aec FB4A0000 		.4byte	0x4afb
 11872 4af0 28       		.uleb128 0x28
 11873 4af1 27520000 		.4byte	0x5227
 11874 4af5 13       		.uleb128 0x13
 11875 4af6 344F0000 		.4byte	0x4f34
 11876 4afa 00       		.byte	0
 11877 4afb 2E       		.uleb128 0x2e
 11878 4afc D0110000 		.4byte	.LASF808
 11879 4b00 07       		.byte	0x7
 11880 4b01 17       		.byte	0x17
 11881 4b02 9A100000 		.4byte	.LASF809
 11882 4b06 2D010000 		.4byte	0x12d
 11883 4b0a 01       		.byte	0x1
 11884 4b0b 134B0000 		.4byte	0x4b13
 11885 4b0f 1E4B0000 		.4byte	0x4b1e
 11886 4b13 28       		.uleb128 0x28
 11887 4b14 27520000 		.4byte	0x5227
 11888 4b18 13       		.uleb128 0x13
 11889 4b19 344F0000 		.4byte	0x4f34
 11890 4b1d 00       		.byte	0
 11891 4b1e 2E       		.uleb128 0x2e
 11892 4b1f EC260000 		.4byte	.LASF810
 11893 4b23 07       		.byte	0x7
 11894 4b24 18       		.byte	0x18
 11895 4b25 C5060000 		.4byte	.LASF811
 11896 4b29 2D010000 		.4byte	0x12d
 11897 4b2d 01       		.byte	0x1
 11898 4b2e 364B0000 		.4byte	0x4b36
 11899 4b32 414B0000 		.4byte	0x4b41
 11900 4b36 28       		.uleb128 0x28
 11901 4b37 27520000 		.4byte	0x5227
 11902 4b3b 13       		.uleb128 0x13
 11903 4b3c 344F0000 		.4byte	0x4f34
 11904 4b40 00       		.byte	0
 11905 4b41 2E       		.uleb128 0x2e
 11906 4b42 D8310000 		.4byte	.LASF267
 11907 4b46 07       		.byte	0x7
 11908 4b47 4A       		.byte	0x4a
 11909 4b48 1B2A0000 		.4byte	.LASF812
 11910 4b4c 2D010000 		.4byte	0x12d
 11911 4b50 01       		.byte	0x1
 11912 4b51 594B0000 		.4byte	0x4b59
 11913 4b55 644B0000 		.4byte	0x4b64
 11914 4b59 28       		.uleb128 0x28
 11915 4b5a 27520000 		.4byte	0x5227
 11916 4b5e 13       		.uleb128 0x13
 11917 4b5f E64F0000 		.4byte	0x4fe6
 11918 4b63 00       		.byte	0
 11919 4b64 2E       		.uleb128 0x2e
 11920 4b65 4A4F0000 		.4byte	.LASF796
 11921 4b69 07       		.byte	0x7
 11922 4b6a 1B       		.byte	0x1b
 11923 4b6b 003E0000 		.4byte	.LASF813
ARM GAS  /tmp/ccB5ynkg.s 			page 212


 11924 4b6f 2D010000 		.4byte	0x12d
 11925 4b73 01       		.byte	0x1
 11926 4b74 7C4B0000 		.4byte	0x4b7c
 11927 4b78 874B0000 		.4byte	0x4b87
 11928 4b7c 28       		.uleb128 0x28
 11929 4b7d 27520000 		.4byte	0x5227
 11930 4b81 13       		.uleb128 0x13
 11931 4b82 344F0000 		.4byte	0x4f34
 11932 4b86 00       		.byte	0
 11933 4b87 2E       		.uleb128 0x2e
 11934 4b88 3D0B0000 		.4byte	.LASF814
 11935 4b8c 07       		.byte	0x7
 11936 4b8d 54       		.byte	0x54
 11937 4b8e C83B0000 		.4byte	.LASF815
 11938 4b92 2D010000 		.4byte	0x12d
 11939 4b96 01       		.byte	0x1
 11940 4b97 9F4B0000 		.4byte	0x4b9f
 11941 4b9b AA4B0000 		.4byte	0x4baa
 11942 4b9f 28       		.uleb128 0x28
 11943 4ba0 27520000 		.4byte	0x5227
 11944 4ba4 13       		.uleb128 0x13
 11945 4ba5 344F0000 		.4byte	0x4f34
 11946 4ba9 00       		.byte	0
 11947 4baa 2E       		.uleb128 0x2e
 11948 4bab CB380000 		.4byte	.LASF816
 11949 4baf 07       		.byte	0x7
 11950 4bb0 5D       		.byte	0x5d
 11951 4bb1 12070000 		.4byte	.LASF817
 11952 4bb5 2D010000 		.4byte	0x12d
 11953 4bb9 01       		.byte	0x1
 11954 4bba C24B0000 		.4byte	0x4bc2
 11955 4bbe CD4B0000 		.4byte	0x4bcd
 11956 4bc2 28       		.uleb128 0x28
 11957 4bc3 27520000 		.4byte	0x5227
 11958 4bc7 13       		.uleb128 0x13
 11959 4bc8 344F0000 		.4byte	0x4f34
 11960 4bcc 00       		.byte	0
 11961 4bcd 29       		.uleb128 0x29
 11962 4bce 12270000 		.4byte	.LASF800
 11963 4bd2 07       		.byte	0x7
 11964 4bd3 20       		.byte	0x20
 11965 4bd4 27520000 		.4byte	0x5227
 11966 4bd8 02       		.byte	0x2
 11967 4bd9 E14B0000 		.4byte	0x4be1
 11968 4bdd E74B0000 		.4byte	0x4be7
 11969 4be1 28       		.uleb128 0x28
 11970 4be2 27520000 		.4byte	0x5227
 11971 4be6 00       		.byte	0
 11972 4be7 51       		.uleb128 0x51
 11973 4be8 EA0B0000 		.4byte	.LASF818
 11974 4bec 07       		.byte	0x7
 11975 4bed 21       		.byte	0x21
 11976 4bee BF000000 		.4byte	0xbf
 11977 4bf2 01       		.byte	0x1
 11978 4bf3 2E4A0000 		.4byte	0x4a2e
 11979 4bf7 02       		.byte	0x2
 11980 4bf8 004C0000 		.4byte	0x4c00
ARM GAS  /tmp/ccB5ynkg.s 			page 213


 11981 4bfc 0B4C0000 		.4byte	0x4c0b
 11982 4c00 28       		.uleb128 0x28
 11983 4c01 27520000 		.4byte	0x5227
 11984 4c05 28       		.uleb128 0x28
 11985 4c06 37000000 		.4byte	0x37
 11986 4c0a 00       		.byte	0
 11987 4c0b 46       		.uleb128 0x46
 11988 4c0c DE310000 		.4byte	.LASF769
 11989 4c10 07       		.byte	0x7
 11990 4c11 66       		.byte	0x66
 11991 4c12 C2260000 		.4byte	.LASF819
 11992 4c16 2D010000 		.4byte	0x12d
 11993 4c1a 01       		.byte	0x1
 11994 4c1b 13       		.uleb128 0x13
 11995 4c1c 2D520000 		.4byte	0x522d
 11996 4c20 13       		.uleb128 0x13
 11997 4c21 CE000000 		.4byte	0xce
 11998 4c25 00       		.byte	0
 11999 4c26 00       		.byte	0
 12000 4c27 49       		.uleb128 0x49
 12001 4c28 7B5D0000 		.4byte	.LASF820
 12002 4c2c 10       		.byte	0x10
 12003 4c2d 11       		.byte	0x11
 12004 4c2e 0C       		.byte	0xc
 12005 4c2f 2E4A0000 		.4byte	0x4a2e
 12006 4c33 0C4D0000 		.4byte	0x4d0c
 12007 4c37 4A       		.uleb128 0x4a
 12008 4c38 2D2E0000 		.4byte	0x2e2d
 12009 4c3c 00       		.byte	0
 12010 4c3d 01       		.byte	0x1
 12011 4c3e 4B       		.uleb128 0x4b
 12012 4c3f F05C0000 		.4byte	.LASF794
 12013 4c43 E2510000 		.4byte	0x51e2
 12014 4c47 01       		.byte	0x1
 12015 4c48 504C0000 		.4byte	0x4c50
 12016 4c4c 5B4C0000 		.4byte	0x4c5b
 12017 4c50 28       		.uleb128 0x28
 12018 4c51 E2510000 		.4byte	0x51e2
 12019 4c55 13       		.uleb128 0x13
 12020 4c56 E8510000 		.4byte	0x51e8
 12021 4c5a 00       		.byte	0
 12022 4c5b 2E       		.uleb128 0x2e
 12023 4c5c D8310000 		.4byte	.LASF267
 12024 4c60 11       		.byte	0x11
 12025 4c61 19       		.byte	0x19
 12026 4c62 BD4D0000 		.4byte	.LASF821
 12027 4c66 2D010000 		.4byte	0x12d
 12028 4c6a 01       		.byte	0x1
 12029 4c6b 734C0000 		.4byte	0x4c73
 12030 4c6f 7E4C0000 		.4byte	0x4c7e
 12031 4c73 28       		.uleb128 0x28
 12032 4c74 E2510000 		.4byte	0x51e2
 12033 4c78 13       		.uleb128 0x13
 12034 4c79 EE510000 		.4byte	0x51ee
 12035 4c7d 00       		.byte	0
 12036 4c7e 2E       		.uleb128 0x2e
 12037 4c7f 4A4F0000 		.4byte	.LASF796
ARM GAS  /tmp/ccB5ynkg.s 			page 214


 12038 4c83 11       		.byte	0x11
 12039 4c84 21       		.byte	0x21
 12040 4c85 25480000 		.4byte	.LASF822
 12041 4c89 2D010000 		.4byte	0x12d
 12042 4c8d 01       		.byte	0x1
 12043 4c8e 964C0000 		.4byte	0x4c96
 12044 4c92 A14C0000 		.4byte	0x4ca1
 12045 4c96 28       		.uleb128 0x28
 12046 4c97 E2510000 		.4byte	0x51e2
 12047 4c9b 13       		.uleb128 0x13
 12048 4c9c FA510000 		.4byte	0x51fa
 12049 4ca0 00       		.byte	0
 12050 4ca1 2E       		.uleb128 0x2e
 12051 4ca2 4A4F0000 		.4byte	.LASF796
 12052 4ca6 11       		.byte	0x11
 12053 4ca7 28       		.byte	0x28
 12054 4ca8 EC030000 		.4byte	.LASF823
 12055 4cac 2D010000 		.4byte	0x12d
 12056 4cb0 01       		.byte	0x1
 12057 4cb1 B94C0000 		.4byte	0x4cb9
 12058 4cb5 C44C0000 		.4byte	0x4cc4
 12059 4cb9 28       		.uleb128 0x28
 12060 4cba E2510000 		.4byte	0x51e2
 12061 4cbe 13       		.uleb128 0x13
 12062 4cbf F4510000 		.4byte	0x51f4
 12063 4cc3 00       		.byte	0
 12064 4cc4 29       		.uleb128 0x29
 12065 4cc5 F05C0000 		.4byte	.LASF794
 12066 4cc9 11       		.byte	0x11
 12067 4cca 2F       		.byte	0x2f
 12068 4ccb E2510000 		.4byte	0x51e2
 12069 4ccf 01       		.byte	0x1
 12070 4cd0 D84C0000 		.4byte	0x4cd8
 12071 4cd4 DE4C0000 		.4byte	0x4cde
 12072 4cd8 28       		.uleb128 0x28
 12073 4cd9 E2510000 		.4byte	0x51e2
 12074 4cdd 00       		.byte	0
 12075 4cde 51       		.uleb128 0x51
 12076 4cdf 6D510000 		.4byte	.LASF799
 12077 4ce3 11       		.byte	0x11
 12078 4ce4 36       		.byte	0x36
 12079 4ce5 BF000000 		.4byte	0xbf
 12080 4ce9 01       		.byte	0x1
 12081 4cea 274C0000 		.4byte	0x4c27
 12082 4cee 01       		.byte	0x1
 12083 4cef F74C0000 		.4byte	0x4cf7
 12084 4cf3 024D0000 		.4byte	0x4d02
 12085 4cf7 28       		.uleb128 0x28
 12086 4cf8 E2510000 		.4byte	0x51e2
 12087 4cfc 28       		.uleb128 0x28
 12088 4cfd 37000000 		.4byte	0x37
 12089 4d01 00       		.byte	0
 12090 4d02 41       		.uleb128 0x41
 12091 4d03 92110000 		.4byte	.LASF783
 12092 4d07 DA460000 		.4byte	0x46da
 12093 4d0b 00       		.byte	0
 12094 4d0c 07       		.uleb128 0x7
ARM GAS  /tmp/ccB5ynkg.s 			page 215


 12095 4d0d 274C0000 		.4byte	0x4c27
 12096 4d11 07       		.uleb128 0x7
 12097 4d12 CD440000 		.4byte	0x44cd
 12098 4d16 07       		.uleb128 0x7
 12099 4d17 2E4A0000 		.4byte	0x4a2e
 12100 4d1b 55       		.uleb128 0x55
 12101 4d1c 02470000 		.4byte	.LASF826
 12102 4d20 31       		.byte	0x31
 12103 4d21 1F       		.byte	0x1f
 12104 4d22 394D0000 		.4byte	0x4d39
 12105 4d26 41       		.uleb128 0x41
 12106 4d27 B9280000 		.4byte	.LASF824
 12107 4d2b DA460000 		.4byte	0x46da
 12108 4d2f 41       		.uleb128 0x41
 12109 4d30 58220000 		.4byte	.LASF825
 12110 4d34 BD2C0000 		.4byte	0x2cbd
 12111 4d38 00       		.byte	0
 12112 4d39 07       		.uleb128 0x7
 12113 4d3a DA460000 		.4byte	0x46da
 12114 4d3e 55       		.uleb128 0x55
 12115 4d3f 8F420000 		.4byte	.LASF827
 12116 4d43 31       		.byte	0x31
 12117 4d44 1F       		.byte	0x1f
 12118 4d45 5C4D0000 		.4byte	0x4d5c
 12119 4d49 41       		.uleb128 0x41
 12120 4d4a B9280000 		.4byte	.LASF824
 12121 4d4e FB460000 		.4byte	0x46fb
 12122 4d52 41       		.uleb128 0x41
 12123 4d53 58220000 		.4byte	.LASF825
 12124 4d57 BD2C0000 		.4byte	0x2cbd
 12125 4d5b 00       		.byte	0
 12126 4d5c 07       		.uleb128 0x7
 12127 4d5d FB460000 		.4byte	0x46fb
 12128 4d61 56       		.uleb128 0x56
 12129 4d62 16030000 		.4byte	.LASF907
 12130 4d66 31       		.byte	0x31
 12131 4d67 1F       		.byte	0x1f
 12132 4d68 41       		.uleb128 0x41
 12133 4d69 B9280000 		.4byte	.LASF824
 12134 4d6d 2E470000 		.4byte	0x472e
 12135 4d71 41       		.uleb128 0x41
 12136 4d72 58220000 		.4byte	.LASF825
 12137 4d76 BD2C0000 		.4byte	0x2cbd
 12138 4d7a 00       		.byte	0
 12139 4d7b 00       		.byte	0
 12140 4d7c 06       		.uleb128 0x6
 12141 4d7d 04       		.byte	0x4
 12142 4d7e 65110000 		.4byte	0x1165
 12143 4d82 57       		.uleb128 0x57
 12144 4d83 04       		.byte	0x4
 12145 4d84 C5110000 		.4byte	0x11c5
 12146 4d88 06       		.uleb128 0x6
 12147 4d89 04       		.byte	0x4
 12148 4d8a CA110000 		.4byte	0x11ca
 12149 4d8e 06       		.uleb128 0x6
 12150 4d8f 04       		.byte	0x4
 12151 4d90 0E120000 		.4byte	0x120e
ARM GAS  /tmp/ccB5ynkg.s 			page 216


 12152 4d94 06       		.uleb128 0x6
 12153 4d95 04       		.byte	0x4
 12154 4d96 0B140000 		.4byte	0x140b
 12155 4d9a 06       		.uleb128 0x6
 12156 4d9b 04       		.byte	0x4
 12157 4d9c 52120000 		.4byte	0x1252
 12158 4da0 57       		.uleb128 0x57
 12159 4da1 04       		.byte	0x4
 12160 4da2 51060000 		.4byte	0x651
 12161 4da6 06       		.uleb128 0x6
 12162 4da7 04       		.byte	0x4
 12163 4da8 BD160000 		.4byte	0x16bd
 12164 4dac 03       		.uleb128 0x3
 12165 4dad 08       		.byte	0x8
 12166 4dae 04       		.byte	0x4
 12167 4daf A2470000 		.4byte	.LASF828
 12168 4db3 57       		.uleb128 0x57
 12169 4db4 04       		.byte	0x4
 12170 4db5 10140000 		.4byte	0x1410
 12171 4db9 06       		.uleb128 0x6
 12172 4dba 04       		.byte	0x4
 12173 4dbb 10140000 		.4byte	0x1410
 12174 4dbf 57       		.uleb128 0x57
 12175 4dc0 04       		.byte	0x4
 12176 4dc1 BD160000 		.4byte	0x16bd
 12177 4dc5 06       		.uleb128 0x6
 12178 4dc6 04       		.byte	0x4
 12179 4dc7 D4160000 		.4byte	0x16d4
 12180 4dcb 06       		.uleb128 0x6
 12181 4dcc 04       		.byte	0x4
 12182 4dcd D14D0000 		.4byte	0x4dd1
 12183 4dd1 12       		.uleb128 0x12
 12184 4dd2 2D010000 		.4byte	0x12d
 12185 4dd6 E04D0000 		.4byte	0x4de0
 12186 4dda 13       		.uleb128 0x13
 12187 4ddb E04D0000 		.4byte	0x4de0
 12188 4ddf 00       		.byte	0
 12189 4de0 57       		.uleb128 0x57
 12190 4de1 04       		.byte	0x4
 12191 4de2 041D0000 		.4byte	0x1d04
 12192 4de6 06       		.uleb128 0x6
 12193 4de7 04       		.byte	0x4
 12194 4de8 EC4D0000 		.4byte	0x4dec
 12195 4dec 12       		.uleb128 0x12
 12196 4ded 2D010000 		.4byte	0x12d
 12197 4df1 004E0000 		.4byte	0x4e00
 12198 4df5 13       		.uleb128 0x13
 12199 4df6 E04D0000 		.4byte	0x4de0
 12200 4dfa 13       		.uleb128 0x13
 12201 4dfb D9000000 		.4byte	0xd9
 12202 4dff 00       		.byte	0
 12203 4e00 06       		.uleb128 0x6
 12204 4e01 04       		.byte	0x4
 12205 4e02 DC180000 		.4byte	0x18dc
 12206 4e06 06       		.uleb128 0x6
 12207 4e07 04       		.byte	0x4
 12208 4e08 951D0000 		.4byte	0x1d95
ARM GAS  /tmp/ccB5ynkg.s 			page 217


 12209 4e0c 06       		.uleb128 0x6
 12210 4e0d 04       		.byte	0x4
 12211 4e0e C2160000 		.4byte	0x16c2
 12212 4e12 57       		.uleb128 0x57
 12213 4e13 04       		.byte	0x4
 12214 4e14 D4160000 		.4byte	0x16d4
 12215 4e18 06       		.uleb128 0x6
 12216 4e19 04       		.byte	0x4
 12217 4e1a 091D0000 		.4byte	0x1d09
 12218 4e1e 57       		.uleb128 0x57
 12219 4e1f 04       		.byte	0x4
 12220 4e20 26170000 		.4byte	0x1726
 12221 4e24 57       		.uleb128 0x57
 12222 4e25 04       		.byte	0x4
 12223 4e26 2B170000 		.4byte	0x172b
 12224 4e2a 57       		.uleb128 0x57
 12225 4e2b 04       		.byte	0x4
 12226 4e2c 30170000 		.4byte	0x1730
 12227 4e30 57       		.uleb128 0x57
 12228 4e31 04       		.byte	0x4
 12229 4e32 35170000 		.4byte	0x1735
 12230 4e36 06       		.uleb128 0x6
 12231 4e37 04       		.byte	0x4
 12232 4e38 AC1D0000 		.4byte	0x1dac
 12233 4e3c 06       		.uleb128 0x6
 12234 4e3d 04       		.byte	0x4
 12235 4e3e 424E0000 		.4byte	0x4e42
 12236 4e42 12       		.uleb128 0x12
 12237 4e43 2D010000 		.4byte	0x12d
 12238 4e47 514E0000 		.4byte	0x4e51
 12239 4e4b 13       		.uleb128 0x13
 12240 4e4c 514E0000 		.4byte	0x4e51
 12241 4e50 00       		.byte	0
 12242 4e51 57       		.uleb128 0x57
 12243 4e52 04       		.byte	0x4
 12244 4e53 67220000 		.4byte	0x2267
 12245 4e57 06       		.uleb128 0x6
 12246 4e58 04       		.byte	0x4
 12247 4e59 5D4E0000 		.4byte	0x4e5d
 12248 4e5d 12       		.uleb128 0x12
 12249 4e5e 2D010000 		.4byte	0x12d
 12250 4e62 714E0000 		.4byte	0x4e71
 12251 4e66 13       		.uleb128 0x13
 12252 4e67 514E0000 		.4byte	0x4e51
 12253 4e6b 13       		.uleb128 0x13
 12254 4e6c D9000000 		.4byte	0xd9
 12255 4e70 00       		.byte	0
 12256 4e71 06       		.uleb128 0x6
 12257 4e72 04       		.byte	0x4
 12258 4e73 441E0000 		.4byte	0x1e44
 12259 4e77 06       		.uleb128 0x6
 12260 4e78 04       		.byte	0x4
 12261 4e79 71220000 		.4byte	0x2271
 12262 4e7d 06       		.uleb128 0x6
 12263 4e7e 04       		.byte	0x4
 12264 4e7f 9A1D0000 		.4byte	0x1d9a
 12265 4e83 57       		.uleb128 0x57
ARM GAS  /tmp/ccB5ynkg.s 			page 218


 12266 4e84 04       		.byte	0x4
 12267 4e85 AC1D0000 		.4byte	0x1dac
 12268 4e89 06       		.uleb128 0x6
 12269 4e8a 04       		.byte	0x4
 12270 4e8b 6C220000 		.4byte	0x226c
 12271 4e8f 57       		.uleb128 0x57
 12272 4e90 04       		.byte	0x4
 12273 4e91 F91D0000 		.4byte	0x1df9
 12274 4e95 57       		.uleb128 0x57
 12275 4e96 04       		.byte	0x4
 12276 4e97 FE1D0000 		.4byte	0x1dfe
 12277 4e9b 57       		.uleb128 0x57
 12278 4e9c 04       		.byte	0x4
 12279 4e9d 031E0000 		.4byte	0x1e03
 12280 4ea1 57       		.uleb128 0x57
 12281 4ea2 04       		.byte	0x4
 12282 4ea3 081E0000 		.4byte	0x1e08
 12283 4ea7 06       		.uleb128 0x6
 12284 4ea8 04       		.byte	0x4
 12285 4ea9 88220000 		.4byte	0x2288
 12286 4ead 06       		.uleb128 0x6
 12287 4eae 04       		.byte	0x4
 12288 4eaf B34E0000 		.4byte	0x4eb3
 12289 4eb3 12       		.uleb128 0x12
 12290 4eb4 2D010000 		.4byte	0x12d
 12291 4eb8 C24E0000 		.4byte	0x4ec2
 12292 4ebc 13       		.uleb128 0x13
 12293 4ebd C24E0000 		.4byte	0x4ec2
 12294 4ec1 00       		.byte	0
 12295 4ec2 57       		.uleb128 0x57
 12296 4ec3 04       		.byte	0x4
 12297 4ec4 43270000 		.4byte	0x2743
 12298 4ec8 06       		.uleb128 0x6
 12299 4ec9 04       		.byte	0x4
 12300 4eca CE4E0000 		.4byte	0x4ece
 12301 4ece 12       		.uleb128 0x12
 12302 4ecf 2D010000 		.4byte	0x12d
 12303 4ed3 E24E0000 		.4byte	0x4ee2
 12304 4ed7 13       		.uleb128 0x13
 12305 4ed8 C24E0000 		.4byte	0x4ec2
 12306 4edc 13       		.uleb128 0x13
 12307 4edd D9000000 		.4byte	0xd9
 12308 4ee1 00       		.byte	0
 12309 4ee2 06       		.uleb128 0x6
 12310 4ee3 04       		.byte	0x4
 12311 4ee4 20230000 		.4byte	0x2320
 12312 4ee8 06       		.uleb128 0x6
 12313 4ee9 04       		.byte	0x4
 12314 4eea B82C0000 		.4byte	0x2cb8
 12315 4eee 06       		.uleb128 0x6
 12316 4eef 04       		.byte	0x4
 12317 4ef0 76220000 		.4byte	0x2276
 12318 4ef4 57       		.uleb128 0x57
 12319 4ef5 04       		.byte	0x4
 12320 4ef6 88220000 		.4byte	0x2288
 12321 4efa 06       		.uleb128 0x6
 12322 4efb 04       		.byte	0x4
ARM GAS  /tmp/ccB5ynkg.s 			page 219


 12323 4efc 48270000 		.4byte	0x2748
 12324 4f00 57       		.uleb128 0x57
 12325 4f01 04       		.byte	0x4
 12326 4f02 D5220000 		.4byte	0x22d5
 12327 4f06 57       		.uleb128 0x57
 12328 4f07 04       		.byte	0x4
 12329 4f08 DA220000 		.4byte	0x22da
 12330 4f0c 57       		.uleb128 0x57
 12331 4f0d 04       		.byte	0x4
 12332 4f0e DF220000 		.4byte	0x22df
 12333 4f12 57       		.uleb128 0x57
 12334 4f13 04       		.byte	0x4
 12335 4f14 E4220000 		.4byte	0x22e4
 12336 4f18 07       		.uleb128 0x7
 12337 4f19 FA4E0000 		.4byte	0x4efa
 12338 4f1d 57       		.uleb128 0x57
 12339 4f1e 04       		.byte	0x4
 12340 4f1f 48270000 		.4byte	0x2748
 12341 4f23 07       		.uleb128 0x7
 12342 4f24 CE000000 		.4byte	0xce
 12343 4f28 06       		.uleb128 0x6
 12344 4f29 04       		.byte	0x4
 12345 4f2a 43270000 		.4byte	0x2743
 12346 4f2e 06       		.uleb128 0x6
 12347 4f2f 04       		.byte	0x4
 12348 4f30 BD2C0000 		.4byte	0x2cbd
 12349 4f34 57       		.uleb128 0x57
 12350 4f35 04       		.byte	0x4
 12351 4f36 BD2C0000 		.4byte	0x2cbd
 12352 4f3a 57       		.uleb128 0x57
 12353 4f3b 04       		.byte	0x4
 12354 4f3c 282E0000 		.4byte	0x2e28
 12355 4f40 57       		.uleb128 0x57
 12356 4f41 04       		.byte	0x4
 12357 4f42 2D2E0000 		.4byte	0x2e2d
 12358 4f46 57       		.uleb128 0x57
 12359 4f47 04       		.byte	0x4
 12360 4f48 A82E0000 		.4byte	0x2ea8
 12361 4f4c 57       		.uleb128 0x57
 12362 4f4d 04       		.byte	0x4
 12363 4f4e 091D0000 		.4byte	0x1d09
 12364 4f52 57       		.uleb128 0x57
 12365 4f53 04       		.byte	0x4
 12366 4f54 6C220000 		.4byte	0x226c
 12367 4f58 57       		.uleb128 0x57
 12368 4f59 04       		.byte	0x4
 12369 4f5a AD2E0000 		.4byte	0x2ead
 12370 4f5e 06       		.uleb128 0x6
 12371 4f5f 04       		.byte	0x4
 12372 4f60 282E0000 		.4byte	0x2e28
 12373 4f64 06       		.uleb128 0x6
 12374 4f65 04       		.byte	0x4
 12375 4f66 C42E0000 		.4byte	0x2ec4
 12376 4f6a 06       		.uleb128 0x6
 12377 4f6b 04       		.byte	0x4
 12378 4f6c 704F0000 		.4byte	0x4f70
 12379 4f70 12       		.uleb128 0x12
ARM GAS  /tmp/ccB5ynkg.s 			page 220


 12380 4f71 2D010000 		.4byte	0x12d
 12381 4f75 7F4F0000 		.4byte	0x4f7f
 12382 4f79 13       		.uleb128 0x13
 12383 4f7a 7F4F0000 		.4byte	0x4f7f
 12384 4f7e 00       		.byte	0
 12385 4f7f 57       		.uleb128 0x57
 12386 4f80 04       		.byte	0x4
 12387 4f81 F4340000 		.4byte	0x34f4
 12388 4f85 06       		.uleb128 0x6
 12389 4f86 04       		.byte	0x4
 12390 4f87 8B4F0000 		.4byte	0x4f8b
 12391 4f8b 12       		.uleb128 0x12
 12392 4f8c 2D010000 		.4byte	0x12d
 12393 4f90 9F4F0000 		.4byte	0x4f9f
 12394 4f94 13       		.uleb128 0x13
 12395 4f95 7F4F0000 		.4byte	0x4f7f
 12396 4f99 13       		.uleb128 0x13
 12397 4f9a D9000000 		.4byte	0xd9
 12398 4f9e 00       		.byte	0
 12399 4f9f 06       		.uleb128 0x6
 12400 4fa0 04       		.byte	0x4
 12401 4fa1 CC300000 		.4byte	0x30cc
 12402 4fa5 06       		.uleb128 0x6
 12403 4fa6 04       		.byte	0x4
 12404 4fa7 F9340000 		.4byte	0x34f9
 12405 4fab 06       		.uleb128 0x6
 12406 4fac 04       		.byte	0x4
 12407 4fad B22E0000 		.4byte	0x2eb2
 12408 4fb1 57       		.uleb128 0x57
 12409 4fb2 04       		.byte	0x4
 12410 4fb3 C42E0000 		.4byte	0x2ec4
 12411 4fb7 06       		.uleb128 0x6
 12412 4fb8 04       		.byte	0x4
 12413 4fb9 2D2E0000 		.4byte	0x2e2d
 12414 4fbd 57       		.uleb128 0x57
 12415 4fbe 04       		.byte	0x4
 12416 4fbf 162F0000 		.4byte	0x2f16
 12417 4fc3 57       		.uleb128 0x57
 12418 4fc4 04       		.byte	0x4
 12419 4fc5 1B2F0000 		.4byte	0x2f1b
 12420 4fc9 57       		.uleb128 0x57
 12421 4fca 04       		.byte	0x4
 12422 4fcb 202F0000 		.4byte	0x2f20
 12423 4fcf 57       		.uleb128 0x57
 12424 4fd0 04       		.byte	0x4
 12425 4fd1 252F0000 		.4byte	0x2f25
 12426 4fd5 07       		.uleb128 0x7
 12427 4fd6 B74F0000 		.4byte	0x4fb7
 12428 4fda 06       		.uleb128 0x6
 12429 4fdb 04       		.byte	0x4
 12430 4fdc 2E4F0000 		.4byte	0x4f2e
 12431 4fe0 06       		.uleb128 0x6
 12432 4fe1 04       		.byte	0x4
 12433 4fe2 FE340000 		.4byte	0x34fe
 12434 4fe6 57       		.uleb128 0x57
 12435 4fe7 04       		.byte	0x4
 12436 4fe8 2E4F0000 		.4byte	0x4f2e
ARM GAS  /tmp/ccB5ynkg.s 			page 221


 12437 4fec 06       		.uleb128 0x6
 12438 4fed 04       		.byte	0x4
 12439 4fee 7E360000 		.4byte	0x367e
 12440 4ff2 07       		.uleb128 0x7
 12441 4ff3 184E0000 		.4byte	0x4e18
 12442 4ff7 06       		.uleb128 0x6
 12443 4ff8 04       		.byte	0x4
 12444 4ff9 25380000 		.4byte	0x3825
 12445 4ffd 57       		.uleb128 0x57
 12446 4ffe 04       		.byte	0x4
 12447 4fff 97010000 		.4byte	0x197
 12448 5003 06       		.uleb128 0x6
 12449 5004 04       		.byte	0x4
 12450 5005 83360000 		.4byte	0x3683
 12451 5009 57       		.uleb128 0x57
 12452 500a 04       		.byte	0x4
 12453 500b 52120000 		.4byte	0x1252
 12454 500f 57       		.uleb128 0x57
 12455 5010 04       		.byte	0x4
 12456 5011 83360000 		.4byte	0x3683
 12457 5015 06       		.uleb128 0x6
 12458 5016 04       		.byte	0x4
 12459 5017 BB390000 		.4byte	0x39bb
 12460 501b 06       		.uleb128 0x6
 12461 501c 04       		.byte	0x4
 12462 501d 2A380000 		.4byte	0x382a
 12463 5021 57       		.uleb128 0x57
 12464 5022 04       		.byte	0x4
 12465 5023 2A380000 		.4byte	0x382a
 12466 5027 06       		.uleb128 0x6
 12467 5028 04       		.byte	0x4
 12468 5029 A93A0000 		.4byte	0x3aa9
 12469 502d 06       		.uleb128 0x6
 12470 502e 04       		.byte	0x4
 12471 502f C0390000 		.4byte	0x39c0
 12472 5033 06       		.uleb128 0x6
 12473 5034 04       		.byte	0x4
 12474 5035 923B0000 		.4byte	0x3b92
 12475 5039 06       		.uleb128 0x6
 12476 503a 04       		.byte	0x4
 12477 503b AE3A0000 		.4byte	0x3aae
 12478 503f 06       		.uleb128 0x6
 12479 5040 04       		.byte	0x4
 12480 5041 A93B0000 		.4byte	0x3ba9
 12481 5045 06       		.uleb128 0x6
 12482 5046 04       		.byte	0x4
 12483 5047 4B500000 		.4byte	0x504b
 12484 504b 12       		.uleb128 0x12
 12485 504c 2D010000 		.4byte	0x12d
 12486 5050 5A500000 		.4byte	0x505a
 12487 5054 13       		.uleb128 0x13
 12488 5055 5A500000 		.4byte	0x505a
 12489 5059 00       		.byte	0
 12490 505a 57       		.uleb128 0x57
 12491 505b 04       		.byte	0x4
 12492 505c D9410000 		.4byte	0x41d9
 12493 5060 06       		.uleb128 0x6
ARM GAS  /tmp/ccB5ynkg.s 			page 222


 12494 5061 04       		.byte	0x4
 12495 5062 66500000 		.4byte	0x5066
 12496 5066 12       		.uleb128 0x12
 12497 5067 2D010000 		.4byte	0x12d
 12498 506b 7A500000 		.4byte	0x507a
 12499 506f 13       		.uleb128 0x13
 12500 5070 5A500000 		.4byte	0x505a
 12501 5074 13       		.uleb128 0x13
 12502 5075 D9000000 		.4byte	0xd9
 12503 5079 00       		.byte	0
 12504 507a 06       		.uleb128 0x6
 12505 507b 04       		.byte	0x4
 12506 507c B13D0000 		.4byte	0x3db1
 12507 5080 06       		.uleb128 0x6
 12508 5081 04       		.byte	0x4
 12509 5082 C8440000 		.4byte	0x44c8
 12510 5086 06       		.uleb128 0x6
 12511 5087 04       		.byte	0x4
 12512 5088 973B0000 		.4byte	0x3b97
 12513 508c 57       		.uleb128 0x57
 12514 508d 04       		.byte	0x4
 12515 508e A93B0000 		.4byte	0x3ba9
 12516 5092 06       		.uleb128 0x6
 12517 5093 04       		.byte	0x4
 12518 5094 DE410000 		.4byte	0x41de
 12519 5098 57       		.uleb128 0x57
 12520 5099 04       		.byte	0x4
 12521 509a FB3B0000 		.4byte	0x3bfb
 12522 509e 57       		.uleb128 0x57
 12523 509f 04       		.byte	0x4
 12524 50a0 003C0000 		.4byte	0x3c00
 12525 50a4 57       		.uleb128 0x57
 12526 50a5 04       		.byte	0x4
 12527 50a6 053C0000 		.4byte	0x3c05
 12528 50aa 57       		.uleb128 0x57
 12529 50ab 04       		.byte	0x4
 12530 50ac 0A3C0000 		.4byte	0x3c0a
 12531 50b0 07       		.uleb128 0x7
 12532 50b1 92500000 		.4byte	0x5092
 12533 50b5 57       		.uleb128 0x57
 12534 50b6 04       		.byte	0x4
 12535 50b7 DE410000 		.4byte	0x41de
 12536 50bb 06       		.uleb128 0x6
 12537 50bc 04       		.byte	0x4
 12538 50bd D9410000 		.4byte	0x41d9
 12539 50c1 57       		.uleb128 0x57
 12540 50c2 04       		.byte	0x4
 12541 50c3 F9340000 		.4byte	0x34f9
 12542 50c7 57       		.uleb128 0x57
 12543 50c8 04       		.byte	0x4
 12544 50c9 951D0000 		.4byte	0x1d95
 12545 50cd 07       		.uleb128 0x7
 12546 50ce 894E0000 		.4byte	0x4e89
 12547 50d2 06       		.uleb128 0x6
 12548 50d3 04       		.byte	0x4
 12549 50d4 CD440000 		.4byte	0x44cd
 12550 50d8 06       		.uleb128 0x6
ARM GAS  /tmp/ccB5ynkg.s 			page 223


 12551 50d9 04       		.byte	0x4
 12552 50da CA410000 		.4byte	0x41ca
 12553 50de 06       		.uleb128 0x6
 12554 50df 04       		.byte	0x4
 12555 50e0 0A3C0000 		.4byte	0x3c0a
 12556 50e4 57       		.uleb128 0x57
 12557 50e5 04       		.byte	0x4
 12558 50e6 6B410000 		.4byte	0x416b
 12559 50ea 06       		.uleb128 0x6
 12560 50eb 04       		.byte	0x4
 12561 50ec 6B410000 		.4byte	0x416b
 12562 50f0 06       		.uleb128 0x6
 12563 50f1 04       		.byte	0x4
 12564 50f2 E5340000 		.4byte	0x34e5
 12565 50f6 06       		.uleb128 0x6
 12566 50f7 04       		.byte	0x4
 12567 50f8 252F0000 		.4byte	0x2f25
 12568 50fc 57       		.uleb128 0x57
 12569 50fd 04       		.byte	0x4
 12570 50fe 86340000 		.4byte	0x3486
 12571 5102 06       		.uleb128 0x6
 12572 5103 04       		.byte	0x4
 12573 5104 F4340000 		.4byte	0x34f4
 12574 5108 06       		.uleb128 0x6
 12575 5109 04       		.byte	0x4
 12576 510a 86340000 		.4byte	0x3486
 12577 510e 06       		.uleb128 0x6
 12578 510f 04       		.byte	0x4
 12579 5110 F51C0000 		.4byte	0x1cf5
 12580 5114 06       		.uleb128 0x6
 12581 5115 04       		.byte	0x4
 12582 5116 35170000 		.4byte	0x1735
 12583 511a 57       		.uleb128 0x57
 12584 511b 04       		.byte	0x4
 12585 511c 961C0000 		.4byte	0x1c96
 12586 5120 06       		.uleb128 0x6
 12587 5121 04       		.byte	0x4
 12588 5122 041D0000 		.4byte	0x1d04
 12589 5126 06       		.uleb128 0x6
 12590 5127 04       		.byte	0x4
 12591 5128 961C0000 		.4byte	0x1c96
 12592 512c 03       		.uleb128 0x3
 12593 512d 04       		.byte	0x4
 12594 512e 04       		.byte	0x4
 12595 512f C0160000 		.4byte	.LASF829
 12596 5133 17       		.uleb128 0x17
 12597 5134 2C510000 		.4byte	0x512c
 12598 5138 43510000 		.4byte	0x5143
 12599 513c 18       		.uleb128 0x18
 12600 513d B8000000 		.4byte	0xb8
 12601 5141 02       		.byte	0x2
 12602 5142 00       		.byte	0
 12603 5143 17       		.uleb128 0x17
 12604 5144 C7000000 		.4byte	0xc7
 12605 5148 53510000 		.4byte	0x5153
 12606 514c 18       		.uleb128 0x18
 12607 514d B8000000 		.4byte	0xb8
ARM GAS  /tmp/ccB5ynkg.s 			page 224


 12608 5151 0D       		.byte	0xd
 12609 5152 00       		.byte	0
 12610 5153 17       		.uleb128 0x17
 12611 5154 2E470000 		.4byte	0x472e
 12612 5158 63510000 		.4byte	0x5163
 12613 515c 18       		.uleb128 0x18
 12614 515d B8000000 		.4byte	0xb8
 12615 5161 04       		.byte	0x4
 12616 5162 00       		.byte	0
 12617 5163 17       		.uleb128 0x17
 12618 5164 73510000 		.4byte	0x5173
 12619 5168 73510000 		.4byte	0x5173
 12620 516c 18       		.uleb128 0x18
 12621 516d B8000000 		.4byte	0xb8
 12622 5171 04       		.byte	0x4
 12623 5172 00       		.byte	0
 12624 5173 06       		.uleb128 0x6
 12625 5174 04       		.byte	0x4
 12626 5175 2E470000 		.4byte	0x472e
 12627 5179 06       		.uleb128 0x6
 12628 517a 04       		.byte	0x4
 12629 517b 7F510000 		.4byte	0x517f
 12630 517f 12       		.uleb128 0x12
 12631 5180 2D010000 		.4byte	0x12d
 12632 5184 8E510000 		.4byte	0x518e
 12633 5188 13       		.uleb128 0x13
 12634 5189 8E510000 		.4byte	0x518e
 12635 518d 00       		.byte	0
 12636 518e 57       		.uleb128 0x57
 12637 518f 04       		.byte	0x4
 12638 5190 35490000 		.4byte	0x4935
 12639 5194 06       		.uleb128 0x6
 12640 5195 04       		.byte	0x4
 12641 5196 63470000 		.4byte	0x4763
 12642 519a 57       		.uleb128 0x57
 12643 519b 04       		.byte	0x4
 12644 519c 3A490000 		.4byte	0x493a
 12645 51a0 06       		.uleb128 0x6
 12646 51a1 04       		.byte	0x4
 12647 51a2 12480000 		.4byte	0x4812
 12648 51a6 57       		.uleb128 0x57
 12649 51a7 04       		.byte	0x4
 12650 51a8 3F490000 		.4byte	0x493f
 12651 51ac 06       		.uleb128 0x6
 12652 51ad 04       		.byte	0x4
 12653 51ae 3F490000 		.4byte	0x493f
 12654 51b2 57       		.uleb128 0x57
 12655 51b3 04       		.byte	0x4
 12656 51b4 73510000 		.4byte	0x5173
 12657 51b8 57       		.uleb128 0x57
 12658 51b9 04       		.byte	0x4
 12659 51ba 2E470000 		.4byte	0x472e
 12660 51be 06       		.uleb128 0x6
 12661 51bf 04       		.byte	0x4
 12662 51c0 73510000 		.4byte	0x5173
 12663 51c4 06       		.uleb128 0x6
 12664 51c5 04       		.byte	0x4
ARM GAS  /tmp/ccB5ynkg.s 			page 225


 12665 51c6 44490000 		.4byte	0x4944
 12666 51ca 57       		.uleb128 0x57
 12667 51cb 04       		.byte	0x4
 12668 51cc 294A0000 		.4byte	0x4a29
 12669 51d0 57       		.uleb128 0x57
 12670 51d1 04       		.byte	0x4
 12671 51d2 D6510000 		.4byte	0x51d6
 12672 51d6 06       		.uleb128 0x6
 12673 51d7 04       		.byte	0x4
 12674 51d8 FB460000 		.4byte	0x46fb
 12675 51dc 57       		.uleb128 0x57
 12676 51dd 04       		.byte	0x4
 12677 51de FB460000 		.4byte	0x46fb
 12678 51e2 06       		.uleb128 0x6
 12679 51e3 04       		.byte	0x4
 12680 51e4 274C0000 		.4byte	0x4c27
 12681 51e8 57       		.uleb128 0x57
 12682 51e9 04       		.byte	0x4
 12683 51ea 0C4D0000 		.4byte	0x4d0c
 12684 51ee 57       		.uleb128 0x57
 12685 51ef 04       		.byte	0x4
 12686 51f0 F4510000 		.4byte	0x51f4
 12687 51f4 06       		.uleb128 0x6
 12688 51f5 04       		.byte	0x4
 12689 51f6 DA460000 		.4byte	0x46da
 12690 51fa 57       		.uleb128 0x57
 12691 51fb 04       		.byte	0x4
 12692 51fc DA460000 		.4byte	0x46da
 12693 5200 12       		.uleb128 0x12
 12694 5201 37000000 		.4byte	0x37
 12695 5205 0B520000 		.4byte	0x520b
 12696 5209 58       		.uleb128 0x58
 12697 520a 00       		.byte	0
 12698 520b 06       		.uleb128 0x6
 12699 520c 04       		.byte	0x4
 12700 520d 11520000 		.4byte	0x5211
 12701 5211 59       		.uleb128 0x59
 12702 5212 04       		.byte	0x4
 12703 5213 78240000 		.4byte	.LASF908
 12704 5217 00520000 		.4byte	0x5200
 12705 521b 57       		.uleb128 0x57
 12706 521c 04       		.byte	0x4
 12707 521d 114D0000 		.4byte	0x4d11
 12708 5221 06       		.uleb128 0x6
 12709 5222 04       		.byte	0x4
 12710 5223 114D0000 		.4byte	0x4d11
 12711 5227 06       		.uleb128 0x6
 12712 5228 04       		.byte	0x4
 12713 5229 2E4A0000 		.4byte	0x4a2e
 12714 522d 57       		.uleb128 0x57
 12715 522e 04       		.byte	0x4
 12716 522f 164D0000 		.4byte	0x4d16
 12717 5233 06       		.uleb128 0x6
 12718 5234 04       		.byte	0x4
 12719 5235 164D0000 		.4byte	0x4d16
 12720 5239 5A       		.uleb128 0x5a
 12721 523a 1B4D0000 		.4byte	0x4d1b
ARM GAS  /tmp/ccB5ynkg.s 			page 226


 12722 523e 03       		.byte	0x3
 12723 523f 6C520000 		.4byte	0x526c
 12724 5243 41       		.uleb128 0x41
 12725 5244 B9280000 		.4byte	.LASF824
 12726 5248 DA460000 		.4byte	0x46da
 12727 524c 41       		.uleb128 0x41
 12728 524d 58220000 		.4byte	.LASF825
 12729 5251 BD2C0000 		.4byte	0x2cbd
 12730 5255 5B       		.uleb128 0x5b
 12731 5256 5C       		.uleb128 0x5c
 12732 5257 706400   		.ascii	"pd\000"
 12733 525a 31       		.byte	0x31
 12734 525b 21       		.byte	0x21
 12735 525c 6C520000 		.4byte	0x526c
 12736 5260 5C       		.uleb128 0x5c
 12737 5261 706200   		.ascii	"pb\000"
 12738 5264 31       		.byte	0x31
 12739 5265 22       		.byte	0x22
 12740 5266 77520000 		.4byte	0x5277
 12741 526a 00       		.byte	0
 12742 526b 00       		.byte	0
 12743 526c 07       		.uleb128 0x7
 12744 526d 71520000 		.4byte	0x5271
 12745 5271 06       		.uleb128 0x6
 12746 5272 04       		.byte	0x4
 12747 5273 394D0000 		.4byte	0x4d39
 12748 5277 07       		.uleb128 0x7
 12749 5278 5E4F0000 		.4byte	0x4f5e
 12750 527c 5A       		.uleb128 0x5a
 12751 527d 3E4D0000 		.4byte	0x4d3e
 12752 5281 03       		.byte	0x3
 12753 5282 AF520000 		.4byte	0x52af
 12754 5286 41       		.uleb128 0x41
 12755 5287 B9280000 		.4byte	.LASF824
 12756 528b FB460000 		.4byte	0x46fb
 12757 528f 41       		.uleb128 0x41
 12758 5290 58220000 		.4byte	.LASF825
 12759 5294 BD2C0000 		.4byte	0x2cbd
 12760 5298 5B       		.uleb128 0x5b
 12761 5299 5C       		.uleb128 0x5c
 12762 529a 706400   		.ascii	"pd\000"
 12763 529d 31       		.byte	0x31
 12764 529e 21       		.byte	0x21
 12765 529f AF520000 		.4byte	0x52af
 12766 52a3 5C       		.uleb128 0x5c
 12767 52a4 706200   		.ascii	"pb\000"
 12768 52a7 31       		.byte	0x31
 12769 52a8 22       		.byte	0x22
 12770 52a9 77520000 		.4byte	0x5277
 12771 52ad 00       		.byte	0
 12772 52ae 00       		.byte	0
 12773 52af 07       		.uleb128 0x7
 12774 52b0 B4520000 		.4byte	0x52b4
 12775 52b4 06       		.uleb128 0x6
 12776 52b5 04       		.byte	0x4
 12777 52b6 5C4D0000 		.4byte	0x4d5c
 12778 52ba 5A       		.uleb128 0x5a
ARM GAS  /tmp/ccB5ynkg.s 			page 227


 12779 52bb 614D0000 		.4byte	0x4d61
 12780 52bf 03       		.byte	0x3
 12781 52c0 ED520000 		.4byte	0x52ed
 12782 52c4 41       		.uleb128 0x41
 12783 52c5 B9280000 		.4byte	.LASF824
 12784 52c9 2E470000 		.4byte	0x472e
 12785 52cd 41       		.uleb128 0x41
 12786 52ce 58220000 		.4byte	.LASF825
 12787 52d2 BD2C0000 		.4byte	0x2cbd
 12788 52d6 5B       		.uleb128 0x5b
 12789 52d7 5C       		.uleb128 0x5c
 12790 52d8 706400   		.ascii	"pd\000"
 12791 52db 31       		.byte	0x31
 12792 52dc 21       		.byte	0x21
 12793 52dd ED520000 		.4byte	0x52ed
 12794 52e1 5C       		.uleb128 0x5c
 12795 52e2 706200   		.ascii	"pb\000"
 12796 52e5 31       		.byte	0x31
 12797 52e6 22       		.byte	0x22
 12798 52e7 77520000 		.4byte	0x5277
 12799 52eb 00       		.byte	0
 12800 52ec 00       		.byte	0
 12801 52ed 07       		.uleb128 0x7
 12802 52ee F2520000 		.4byte	0x52f2
 12803 52f2 06       		.uleb128 0x6
 12804 52f3 04       		.byte	0x4
 12805 52f4 35490000 		.4byte	0x4935
 12806 52f8 5D       		.uleb128 0x5d
 12807 52f9 B43F0000 		.4byte	.LASF842
 12808 52fd 01       		.byte	0x1
 12809 52fe 45       		.byte	0x45
 12810 52ff 00000000 		.4byte	.LFB118
 12811 5303 20000000 		.4byte	.LFE118-.LFB118
 12812 5307 01       		.uleb128 0x1
 12813 5308 9C       		.byte	0x9c
 12814 5309 42530000 		.4byte	0x5342
 12815 530d 5E       		.uleb128 0x5e
 12816 530e 63687000 		.ascii	"chp\000"
 12817 5312 01       		.byte	0x1
 12818 5313 45       		.byte	0x45
 12819 5314 53100000 		.4byte	0x1053
 12820 5318 02       		.uleb128 0x2
 12821 5319 91       		.byte	0x91
 12822 531a 64       		.sleb128 -28
 12823 531b 5E       		.uleb128 0x5e
 12824 531c 666D7400 		.ascii	"fmt\000"
 12825 5320 01       		.byte	0x1
 12826 5321 45       		.byte	0x45
 12827 5322 CE000000 		.4byte	0xce
 12828 5326 02       		.uleb128 0x2
 12829 5327 91       		.byte	0x91
 12830 5328 74       		.sleb128 -12
 12831 5329 58       		.uleb128 0x58
 12832 532a 5F       		.uleb128 0x5f
 12833 532b 08000000 		.4byte	.LBB41
 12834 532f 0E000000 		.4byte	.LBE41-.LBB41
 12835 5333 60       		.uleb128 0x60
ARM GAS  /tmp/ccB5ynkg.s 			page 228


 12836 5334 617000   		.ascii	"ap\000"
 12837 5337 01       		.byte	0x1
 12838 5338 46       		.byte	0x46
 12839 5339 22100000 		.4byte	0x1022
 12840 533d 02       		.uleb128 0x2
 12841 533e 91       		.byte	0x91
 12842 533f 6C       		.sleb128 -20
 12843 5340 00       		.byte	0
 12844 5341 00       		.byte	0
 12845 5342 61       		.uleb128 0x61
 12846 5343 F5110000 		.4byte	0x11f5
 12847 5347 14       		.byte	0x14
 12848 5348 00000000 		.4byte	.LFB130
 12849 534c 0E000000 		.4byte	.LFE130-.LFB130
 12850 5350 01       		.uleb128 0x1
 12851 5351 9C       		.byte	0x9c
 12852 5352 6E530000 		.4byte	0x536e
 12853 5356 5F       		.uleb128 0x5f
 12854 5357 02000000 		.4byte	.LBB44
 12855 535b 06000000 		.4byte	.LBE44-.LBB44
 12856 535f 60       		.uleb128 0x60
 12857 5360 746D7000 		.ascii	"tmp\000"
 12858 5364 02       		.byte	0x2
 12859 5365 16       		.byte	0x16
 12860 5366 0C010000 		.4byte	0x10c
 12861 536a 01       		.uleb128 0x1
 12862 536b 53       		.byte	0x53
 12863 536c 00       		.byte	0
 12864 536d 00       		.byte	0
 12865 536e 61       		.uleb128 0x61
 12866 536f 01120000 		.4byte	0x1201
 12867 5373 1B       		.byte	0x1b
 12868 5374 00000000 		.4byte	.LFB131
 12869 5378 0E000000 		.4byte	.LFE131-.LFB131
 12870 537c 01       		.uleb128 0x1
 12871 537d 9C       		.byte	0x9c
 12872 537e 9A530000 		.4byte	0x539a
 12873 5382 5F       		.uleb128 0x5f
 12874 5383 06000000 		.4byte	.LBB47
 12875 5387 06000000 		.4byte	.LBE47-.LBB47
 12876 538b 60       		.uleb128 0x60
 12877 538c 746D7000 		.ascii	"tmp\000"
 12878 5390 02       		.byte	0x2
 12879 5391 1D       		.byte	0x1d
 12880 5392 0C010000 		.4byte	0x10c
 12881 5396 01       		.uleb128 0x1
 12882 5397 53       		.byte	0x53
 12883 5398 00       		.byte	0
 12884 5399 00       		.byte	0
 12885 539a 62       		.uleb128 0x62
 12886 539b 39120000 		.4byte	0x1239
 12887 539f 1B       		.byte	0x1b
 12888 53a0 00000000 		.4byte	.LFB138
 12889 53a4 08000000 		.4byte	.LFE138-.LFB138
 12890 53a8 01       		.uleb128 0x1
 12891 53a9 9C       		.byte	0x9c
 12892 53aa 62       		.uleb128 0x62
ARM GAS  /tmp/ccB5ynkg.s 			page 229


 12893 53ab 45120000 		.4byte	0x1245
 12894 53af 22       		.byte	0x22
 12895 53b0 00000000 		.4byte	.LFB139
 12896 53b4 08000000 		.4byte	.LFE139-.LFB139
 12897 53b8 01       		.uleb128 0x1
 12898 53b9 9C       		.byte	0x9c
 12899 53ba 63       		.uleb128 0x63
 12900 53bb B8120000 		.4byte	0x12b8
 12901 53bf 35       		.byte	0x35
 12902 53c0 00000000 		.4byte	.LFB237
 12903 53c4 18000000 		.4byte	.LFE237-.LFB237
 12904 53c8 01       		.uleb128 0x1
 12905 53c9 9C       		.byte	0x9c
 12906 53ca D2530000 		.4byte	0x53d2
 12907 53ce DF530000 		.4byte	0x53df
 12908 53d2 64       		.uleb128 0x64
 12909 53d3 EA270000 		.4byte	.LASF830
 12910 53d7 DF530000 		.4byte	0x53df
 12911 53db 02       		.uleb128 0x2
 12912 53dc 91       		.byte	0x91
 12913 53dd 74       		.sleb128 -12
 12914 53de 00       		.byte	0
 12915 53df 07       		.uleb128 0x7
 12916 53e0 9A4D0000 		.4byte	0x4d9a
 12917 53e4 65       		.uleb128 0x65
 12918 53e5 95140000 		.4byte	0x1495
 12919 53e9 59       		.byte	0x59
 12920 53ea 00000000 		.4byte	.LFB257
 12921 53ee 20000000 		.4byte	.LFE257-.LFB257
 12922 53f2 01       		.uleb128 0x1
 12923 53f3 9C       		.byte	0x9c
 12924 53f4 FC530000 		.4byte	0x53fc
 12925 53f8 09540000 		.4byte	0x5409
 12926 53fc 64       		.uleb128 0x64
 12927 53fd EA270000 		.4byte	.LASF830
 12928 5401 09540000 		.4byte	0x5409
 12929 5405 02       		.uleb128 0x2
 12930 5406 91       		.byte	0x91
 12931 5407 7C       		.sleb128 -4
 12932 5408 00       		.byte	0
 12933 5409 07       		.uleb128 0x7
 12934 540a A64D0000 		.4byte	0x4da6
 12935 540e 65       		.uleb128 0x65
 12936 540f 49150000 		.4byte	0x1549
 12937 5413 83       		.byte	0x83
 12938 5414 00000000 		.4byte	.LFB263
 12939 5418 16000000 		.4byte	.LFE263-.LFB263
 12940 541c 01       		.uleb128 0x1
 12941 541d 9C       		.byte	0x9c
 12942 541e 26540000 		.4byte	0x5426
 12943 5422 41540000 		.4byte	0x5441
 12944 5426 64       		.uleb128 0x64
 12945 5427 EA270000 		.4byte	.LASF830
 12946 542b 41540000 		.4byte	0x5441
 12947 542f 02       		.uleb128 0x2
 12948 5430 91       		.byte	0x91
 12949 5431 7C       		.sleb128 -4
ARM GAS  /tmp/ccB5ynkg.s 			page 230


 12950 5432 5E       		.uleb128 0x5e
 12951 5433 72687300 		.ascii	"rhs\000"
 12952 5437 05       		.byte	0x5
 12953 5438 83       		.byte	0x83
 12954 5439 46540000 		.4byte	0x5446
 12955 543d 02       		.uleb128 0x2
 12956 543e 91       		.byte	0x91
 12957 543f 78       		.sleb128 -8
 12958 5440 00       		.byte	0
 12959 5441 07       		.uleb128 0x7
 12960 5442 B94D0000 		.4byte	0x4db9
 12961 5446 07       		.uleb128 0x7
 12962 5447 BF4D0000 		.4byte	0x4dbf
 12963 544b 61       		.uleb128 0x61
 12964 544c 23160000 		.4byte	0x1623
 12965 5450 B8       		.byte	0xb8
 12966 5451 00000000 		.4byte	.LFB277
 12967 5455 22000000 		.4byte	.LFE277-.LFB277
 12968 5459 01       		.uleb128 0x1
 12969 545a 9C       		.byte	0x9c
 12970 545b 6E540000 		.4byte	0x546e
 12971 545f 66       		.uleb128 0x66
 12972 5460 E2230000 		.4byte	.LASF831
 12973 5464 05       		.byte	0x5
 12974 5465 B8       		.byte	0xb8
 12975 5466 95160000 		.4byte	0x1695
 12976 546a 02       		.uleb128 0x2
 12977 546b 91       		.byte	0x91
 12978 546c 70       		.sleb128 -16
 12979 546d 00       		.byte	0
 12980 546e 65       		.uleb128 0x65
 12981 546f 372D0000 		.4byte	0x2d37
 12982 5473 7A       		.byte	0x7a
 12983 5474 00000000 		.4byte	.LFB293
 12984 5478 12000000 		.4byte	.LFE293-.LFB293
 12985 547c 01       		.uleb128 0x1
 12986 547d 9C       		.byte	0x9c
 12987 547e 86540000 		.4byte	0x5486
 12988 5482 93540000 		.4byte	0x5493
 12989 5486 64       		.uleb128 0x64
 12990 5487 EA270000 		.4byte	.LASF830
 12991 548b 93540000 		.4byte	0x5493
 12992 548f 02       		.uleb128 0x2
 12993 5490 91       		.byte	0x91
 12994 5491 7C       		.sleb128 -4
 12995 5492 00       		.byte	0
 12996 5493 07       		.uleb128 0x7
 12997 5494 2E4F0000 		.4byte	0x4f2e
 12998 5498 67       		.uleb128 0x67
 12999 5499 A32D0000 		.4byte	0x2da3
 13000 549d 84       		.byte	0x84
 13001 549e 02       		.byte	0x2
 13002 549f A7540000 		.4byte	0x54a7
 13003 54a3 B1540000 		.4byte	0x54b1
 13004 54a7 68       		.uleb128 0x68
 13005 54a8 EA270000 		.4byte	.LASF830
 13006 54ac 93540000 		.4byte	0x5493
ARM GAS  /tmp/ccB5ynkg.s 			page 231


 13007 54b0 00       		.byte	0
 13008 54b1 69       		.uleb128 0x69
 13009 54b2 98540000 		.4byte	0x5498
 13010 54b6 7F4C0000 		.4byte	.LASF860
 13011 54ba 00000000 		.4byte	.LFB295
 13012 54be 16000000 		.4byte	.LFE295-.LFB295
 13013 54c2 01       		.uleb128 0x1
 13014 54c3 9C       		.byte	0x9c
 13015 54c4 CC540000 		.4byte	0x54cc
 13016 54c8 D5540000 		.4byte	0x54d5
 13017 54cc 6A       		.uleb128 0x6a
 13018 54cd A7540000 		.4byte	0x54a7
 13019 54d1 02       		.uleb128 0x2
 13020 54d2 91       		.byte	0x91
 13021 54d3 7C       		.sleb128 -4
 13022 54d4 00       		.byte	0
 13023 54d5 6B       		.uleb128 0x6b
 13024 54d6 B54A0000 		.4byte	0x4ab5
 13025 54da 00000000 		.4byte	.LFB304
 13026 54de 40000000 		.4byte	.LFE304-.LFB304
 13027 54e2 01       		.uleb128 0x1
 13028 54e3 9C       		.byte	0x9c
 13029 54e4 EC540000 		.4byte	0x54ec
 13030 54e8 07550000 		.4byte	0x5507
 13031 54ec 64       		.uleb128 0x64
 13032 54ed EA270000 		.4byte	.LASF830
 13033 54f1 07550000 		.4byte	0x5507
 13034 54f5 02       		.uleb128 0x2
 13035 54f6 91       		.byte	0x91
 13036 54f7 74       		.sleb128 -12
 13037 54f8 66       		.uleb128 0x66
 13038 54f9 55120000 		.4byte	.LASF832
 13039 54fd 07       		.byte	0x7
 13040 54fe 40       		.byte	0x40
 13041 54ff 0C550000 		.4byte	0x550c
 13042 5503 02       		.uleb128 0x2
 13043 5504 91       		.byte	0x91
 13044 5505 70       		.sleb128 -16
 13045 5506 00       		.byte	0
 13046 5507 07       		.uleb128 0x7
 13047 5508 27520000 		.4byte	0x5227
 13048 550c 07       		.uleb128 0x7
 13049 550d E64F0000 		.4byte	0x4fe6
 13050 5511 6B       		.uleb128 0x6b
 13051 5512 414B0000 		.4byte	0x4b41
 13052 5516 00000000 		.4byte	.LFB305
 13053 551a 2A000000 		.4byte	.LFE305-.LFB305
 13054 551e 01       		.uleb128 0x1
 13055 551f 9C       		.byte	0x9c
 13056 5520 28550000 		.4byte	0x5528
 13057 5524 5B550000 		.4byte	0x555b
 13058 5528 64       		.uleb128 0x64
 13059 5529 EA270000 		.4byte	.LASF830
 13060 552d 07550000 		.4byte	0x5507
 13061 5531 02       		.uleb128 0x2
 13062 5532 91       		.byte	0x91
 13063 5533 6C       		.sleb128 -20
ARM GAS  /tmp/ccB5ynkg.s 			page 232


 13064 5534 66       		.uleb128 0x66
 13065 5535 55120000 		.4byte	.LASF832
 13066 5539 07       		.byte	0x7
 13067 553a 4A       		.byte	0x4a
 13068 553b 5B550000 		.4byte	0x555b
 13069 553f 02       		.uleb128 0x2
 13070 5540 91       		.byte	0x91
 13071 5541 68       		.sleb128 -24
 13072 5542 5F       		.uleb128 0x5f
 13073 5543 08000000 		.4byte	.LBB49
 13074 5547 1A000000 		.4byte	.LBE49-.LBB49
 13075 554b 6C       		.uleb128 0x6c
 13076 554c 4B310000 		.4byte	.LASF833
 13077 5550 07       		.byte	0x7
 13078 5551 4D       		.byte	0x4d
 13079 5552 2D010000 		.4byte	0x12d
 13080 5556 02       		.uleb128 0x2
 13081 5557 91       		.byte	0x91
 13082 5558 77       		.sleb128 -9
 13083 5559 00       		.byte	0
 13084 555a 00       		.byte	0
 13085 555b 07       		.uleb128 0x7
 13086 555c E64F0000 		.4byte	0x4fe6
 13087 5560 6D       		.uleb128 0x6d
 13088 5561 B6370000 		.4byte	0x37b6
 13089 5565 98       		.byte	0x98
 13090 5566 00000000 		.4byte	.LFB337
 13091 556a 0C000000 		.4byte	.LFE337-.LFB337
 13092 556e 01       		.uleb128 0x1
 13093 556f 9C       		.byte	0x9c
 13094 5570 61       		.uleb128 0x61
 13095 5571 F8370000 		.4byte	0x37f8
 13096 5575 B4       		.byte	0xb4
 13097 5576 00000000 		.4byte	.LFB341
 13098 557a 64000000 		.4byte	.LFE341-.LFB341
 13099 557e 01       		.uleb128 0x1
 13100 557f 9C       		.byte	0x9c
 13101 5580 93550000 		.4byte	0x5593
 13102 5584 66       		.uleb128 0x66
 13103 5585 255D0000 		.4byte	.LASF834
 13104 5589 08       		.byte	0x8
 13105 558a B4       		.byte	0xb4
 13106 558b 93550000 		.4byte	0x5593
 13107 558f 02       		.uleb128 0x2
 13108 5590 91       		.byte	0x91
 13109 5591 74       		.sleb128 -12
 13110 5592 00       		.byte	0
 13111 5593 07       		.uleb128 0x7
 13112 5594 BF4D0000 		.4byte	0x4dbf
 13113 5598 62       		.uleb128 0x62
 13114 5599 4C390000 		.4byte	0x394c
 13115 559d 70       		.byte	0x70
 13116 559e 00000000 		.4byte	.LFB348
 13117 55a2 0C000000 		.4byte	.LFE348-.LFB348
 13118 55a6 01       		.uleb128 0x1
 13119 55a7 9C       		.byte	0x9c
 13120 55a8 61       		.uleb128 0x61
ARM GAS  /tmp/ccB5ynkg.s 			page 233


 13121 55a9 8E390000 		.4byte	0x398e
 13122 55ad 8C       		.byte	0x8c
 13123 55ae 00000000 		.4byte	.LFB352
 13124 55b2 12000000 		.4byte	.LFE352-.LFB352
 13125 55b6 01       		.uleb128 0x1
 13126 55b7 9C       		.byte	0x9c
 13127 55b8 CB550000 		.4byte	0x55cb
 13128 55bc 66       		.uleb128 0x66
 13129 55bd 255D0000 		.4byte	.LASF834
 13130 55c1 09       		.byte	0x9
 13131 55c2 8C       		.byte	0x8c
 13132 55c3 CB550000 		.4byte	0x55cb
 13133 55c7 02       		.uleb128 0x2
 13134 55c8 91       		.byte	0x91
 13135 55c9 74       		.sleb128 -12
 13136 55ca 00       		.byte	0
 13137 55cb 07       		.uleb128 0x7
 13138 55cc BF4D0000 		.4byte	0x4dbf
 13139 55d0 65       		.uleb128 0x65
 13140 55d1 EF390000 		.4byte	0x39ef
 13141 55d5 24       		.byte	0x24
 13142 55d6 00000000 		.4byte	.LFB354
 13143 55da 0E000000 		.4byte	.LFE354-.LFB354
 13144 55de 01       		.uleb128 0x1
 13145 55df 9C       		.byte	0x9c
 13146 55e0 E8550000 		.4byte	0x55e8
 13147 55e4 F5550000 		.4byte	0x55f5
 13148 55e8 64       		.uleb128 0x64
 13149 55e9 EA270000 		.4byte	.LASF830
 13150 55ed F5550000 		.4byte	0x55f5
 13151 55f1 02       		.uleb128 0x2
 13152 55f2 91       		.byte	0x91
 13153 55f3 7C       		.sleb128 -4
 13154 55f4 00       		.byte	0
 13155 55f5 07       		.uleb128 0x7
 13156 55f6 27500000 		.4byte	0x5027
 13157 55fa 65       		.uleb128 0x65
 13158 55fb 0D3A0000 		.4byte	0x3a0d
 13159 55ff 2B       		.byte	0x2b
 13160 5600 00000000 		.4byte	.LFB355
 13161 5604 10000000 		.4byte	.LFE355-.LFB355
 13162 5608 01       		.uleb128 0x1
 13163 5609 9C       		.byte	0x9c
 13164 560a 12560000 		.4byte	0x5612
 13165 560e 2D560000 		.4byte	0x562d
 13166 5612 64       		.uleb128 0x64
 13167 5613 EA270000 		.4byte	.LASF830
 13168 5617 2D560000 		.4byte	0x562d
 13169 561b 02       		.uleb128 0x2
 13170 561c 91       		.byte	0x91
 13171 561d 7C       		.sleb128 -4
 13172 561e 66       		.uleb128 0x66
 13173 561f 6D150000 		.4byte	.LASF663
 13174 5623 0A       		.byte	0xa
 13175 5624 2B       		.byte	0x2b
 13176 5625 1B500000 		.4byte	0x501b
 13177 5629 02       		.uleb128 0x2
ARM GAS  /tmp/ccB5ynkg.s 			page 234


 13178 562a 91       		.byte	0x91
 13179 562b 78       		.sleb128 -8
 13180 562c 00       		.byte	0
 13181 562d 07       		.uleb128 0x7
 13182 562e 2D500000 		.4byte	0x502d
 13183 5632 63       		.uleb128 0x63
 13184 5633 2C3A0000 		.4byte	0x3a2c
 13185 5637 32       		.byte	0x32
 13186 5638 00000000 		.4byte	.LFB356
 13187 563c 3C000000 		.4byte	.LFE356-.LFB356
 13188 5640 01       		.uleb128 0x1
 13189 5641 9C       		.byte	0x9c
 13190 5642 4A560000 		.4byte	0x564a
 13191 5646 65560000 		.4byte	0x5665
 13192 564a 64       		.uleb128 0x64
 13193 564b EA270000 		.4byte	.LASF830
 13194 564f 2D560000 		.4byte	0x562d
 13195 5653 02       		.uleb128 0x2
 13196 5654 91       		.byte	0x91
 13197 5655 74       		.sleb128 -12
 13198 5656 66       		.uleb128 0x66
 13199 5657 37230000 		.4byte	.LASF835
 13200 565b 0A       		.byte	0xa
 13201 565c 32       		.byte	0x32
 13202 565d 30000000 		.4byte	0x30
 13203 5661 02       		.uleb128 0x2
 13204 5662 91       		.byte	0x91
 13205 5663 70       		.sleb128 -16
 13206 5664 00       		.byte	0
 13207 5665 63       		.uleb128 0x63
 13208 5666 D83A0000 		.4byte	0x3ad8
 13209 566a 23       		.byte	0x23
 13210 566b 00000000 		.4byte	.LFB362
 13211 566f 18000000 		.4byte	.LFE362-.LFB362
 13212 5673 01       		.uleb128 0x1
 13213 5674 9C       		.byte	0x9c
 13214 5675 7D560000 		.4byte	0x567d
 13215 5679 8A560000 		.4byte	0x568a
 13216 567d 64       		.uleb128 0x64
 13217 567e EA270000 		.4byte	.LASF830
 13218 5682 8A560000 		.4byte	0x568a
 13219 5686 02       		.uleb128 0x2
 13220 5687 91       		.byte	0x91
 13221 5688 74       		.sleb128 -12
 13222 5689 00       		.byte	0
 13223 568a 07       		.uleb128 0x7
 13224 568b 33500000 		.4byte	0x5033
 13225 568f 63       		.uleb128 0x63
 13226 5690 F63A0000 		.4byte	0x3af6
 13227 5694 2A       		.byte	0x2a
 13228 5695 00000000 		.4byte	.LFB363
 13229 5699 18000000 		.4byte	.LFE363-.LFB363
 13230 569d 01       		.uleb128 0x1
 13231 569e 9C       		.byte	0x9c
 13232 569f A7560000 		.4byte	0x56a7
 13233 56a3 C2560000 		.4byte	0x56c2
 13234 56a7 64       		.uleb128 0x64
ARM GAS  /tmp/ccB5ynkg.s 			page 235


 13235 56a8 EA270000 		.4byte	.LASF830
 13236 56ac C2560000 		.4byte	0x56c2
 13237 56b0 02       		.uleb128 0x2
 13238 56b1 91       		.byte	0x91
 13239 56b2 74       		.sleb128 -12
 13240 56b3 66       		.uleb128 0x66
 13241 56b4 6D150000 		.4byte	.LASF663
 13242 56b8 0B       		.byte	0xb
 13243 56b9 2A       		.byte	0x2a
 13244 56ba 1B500000 		.4byte	0x501b
 13245 56be 02       		.uleb128 0x2
 13246 56bf 91       		.byte	0x91
 13247 56c0 70       		.sleb128 -16
 13248 56c1 00       		.byte	0
 13249 56c2 07       		.uleb128 0x7
 13250 56c3 39500000 		.4byte	0x5039
 13251 56c7 63       		.uleb128 0x63
 13252 56c8 153B0000 		.4byte	0x3b15
 13253 56cc 31       		.byte	0x31
 13254 56cd 00000000 		.4byte	.LFB364
 13255 56d1 18000000 		.4byte	.LFE364-.LFB364
 13256 56d5 01       		.uleb128 0x1
 13257 56d6 9C       		.byte	0x9c
 13258 56d7 DF560000 		.4byte	0x56df
 13259 56db FA560000 		.4byte	0x56fa
 13260 56df 64       		.uleb128 0x64
 13261 56e0 EA270000 		.4byte	.LASF830
 13262 56e4 C2560000 		.4byte	0x56c2
 13263 56e8 02       		.uleb128 0x2
 13264 56e9 91       		.byte	0x91
 13265 56ea 74       		.sleb128 -12
 13266 56eb 66       		.uleb128 0x66
 13267 56ec 37230000 		.4byte	.LASF835
 13268 56f0 0B       		.byte	0xb
 13269 56f1 31       		.byte	0x31
 13270 56f2 30000000 		.4byte	0x30
 13271 56f6 02       		.uleb128 0x2
 13272 56f7 91       		.byte	0x91
 13273 56f8 70       		.sleb128 -16
 13274 56f9 00       		.byte	0
 13275 56fa 63       		.uleb128 0x63
 13276 56fb 92420000 		.4byte	0x4292
 13277 56ff 67       		.byte	0x67
 13278 5700 00000000 		.4byte	.LFB381
 13279 5704 24000000 		.4byte	.LFE381-.LFB381
 13280 5708 01       		.uleb128 0x1
 13281 5709 9C       		.byte	0x9c
 13282 570a 12570000 		.4byte	0x5712
 13283 570e 1F570000 		.4byte	0x571f
 13284 5712 64       		.uleb128 0x64
 13285 5713 EA270000 		.4byte	.LASF830
 13286 5717 1F570000 		.4byte	0x571f
 13287 571b 02       		.uleb128 0x2
 13288 571c 91       		.byte	0x91
 13289 571d 74       		.sleb128 -12
 13290 571e 00       		.byte	0
 13291 571f 07       		.uleb128 0x7
ARM GAS  /tmp/ccB5ynkg.s 			page 236


 13292 5720 BB500000 		.4byte	0x50bb
 13293 5724 63       		.uleb128 0x63
 13294 5725 B0420000 		.4byte	0x42b0
 13295 5729 6E       		.byte	0x6e
 13296 572a 00000000 		.4byte	.LFB382
 13297 572e 30000000 		.4byte	.LFE382-.LFB382
 13298 5732 01       		.uleb128 0x1
 13299 5733 9C       		.byte	0x9c
 13300 5734 3C570000 		.4byte	0x573c
 13301 5738 57570000 		.4byte	0x5757
 13302 573c 64       		.uleb128 0x64
 13303 573d EA270000 		.4byte	.LASF830
 13304 5741 B0500000 		.4byte	0x50b0
 13305 5745 02       		.uleb128 0x2
 13306 5746 91       		.byte	0x91
 13307 5747 74       		.sleb128 -12
 13308 5748 66       		.uleb128 0x66
 13309 5749 BD3F0000 		.4byte	.LASF836
 13310 574d 0C       		.byte	0xc
 13311 574e 6E       		.byte	0x6e
 13312 574f 2D010000 		.4byte	0x12d
 13313 5753 02       		.uleb128 0x2
 13314 5754 91       		.byte	0x91
 13315 5755 73       		.sleb128 -13
 13316 5756 00       		.byte	0
 13317 5757 63       		.uleb128 0x63
 13318 5758 CF420000 		.4byte	0x42cf
 13319 575c 8C       		.byte	0x8c
 13320 575d 00000000 		.4byte	.LFB386
 13321 5761 1A000000 		.4byte	.LFE386-.LFB386
 13322 5765 01       		.uleb128 0x1
 13323 5766 9C       		.byte	0x9c
 13324 5767 6F570000 		.4byte	0x576f
 13325 576b 8A570000 		.4byte	0x578a
 13326 576f 64       		.uleb128 0x64
 13327 5770 EA270000 		.4byte	.LASF830
 13328 5774 B0500000 		.4byte	0x50b0
 13329 5778 02       		.uleb128 0x2
 13330 5779 91       		.byte	0x91
 13331 577a 74       		.sleb128 -12
 13332 577b 66       		.uleb128 0x66
 13333 577c 37230000 		.4byte	.LASF835
 13334 5780 0C       		.byte	0xc
 13335 5781 8C       		.byte	0x8c
 13336 5782 30000000 		.4byte	0x30
 13337 5786 02       		.uleb128 0x2
 13338 5787 91       		.byte	0x91
 13339 5788 70       		.sleb128 -16
 13340 5789 00       		.byte	0
 13341 578a 6B       		.uleb128 0x6b
 13342 578b 121D0000 		.4byte	0x1d12
 13343 578f 00000000 		.4byte	.LFB392
 13344 5793 1A000000 		.4byte	.LFE392-.LFB392
 13345 5797 01       		.uleb128 0x1
 13346 5798 9C       		.byte	0x9c
 13347 5799 A1570000 		.4byte	0x57a1
 13348 579d AE570000 		.4byte	0x57ae
ARM GAS  /tmp/ccB5ynkg.s 			page 237


 13349 57a1 64       		.uleb128 0x64
 13350 57a2 EA270000 		.4byte	.LASF830
 13351 57a6 AE570000 		.4byte	0x57ae
 13352 57aa 02       		.uleb128 0x2
 13353 57ab 91       		.byte	0x91
 13354 57ac 74       		.sleb128 -12
 13355 57ad 00       		.byte	0
 13356 57ae 07       		.uleb128 0x7
 13357 57af 20510000 		.4byte	0x5120
 13358 57b3 6B       		.uleb128 0x6b
 13359 57b4 381D0000 		.4byte	0x1d38
 13360 57b8 00000000 		.4byte	.LFB393
 13361 57bc 3C000000 		.4byte	.LFE393-.LFB393
 13362 57c0 01       		.uleb128 0x1
 13363 57c1 9C       		.byte	0x9c
 13364 57c2 CA570000 		.4byte	0x57ca
 13365 57c6 F3570000 		.4byte	0x57f3
 13366 57ca 64       		.uleb128 0x64
 13367 57cb EA270000 		.4byte	.LASF830
 13368 57cf F24F0000 		.4byte	0x4ff2
 13369 57d3 02       		.uleb128 0x2
 13370 57d4 91       		.byte	0x91
 13371 57d5 6C       		.sleb128 -20
 13372 57d6 66       		.uleb128 0x66
 13373 57d7 55120000 		.4byte	.LASF832
 13374 57db 0D       		.byte	0xd
 13375 57dc 47       		.byte	0x47
 13376 57dd F3570000 		.4byte	0x57f3
 13377 57e1 02       		.uleb128 0x2
 13378 57e2 91       		.byte	0x91
 13379 57e3 68       		.sleb128 -24
 13380 57e4 66       		.uleb128 0x66
 13381 57e5 2C260000 		.4byte	.LASF837
 13382 57e9 0D       		.byte	0xd
 13383 57ea 47       		.byte	0x47
 13384 57eb F8570000 		.4byte	0x57f8
 13385 57ef 02       		.uleb128 0x2
 13386 57f0 91       		.byte	0x91
 13387 57f1 64       		.sleb128 -28
 13388 57f2 00       		.byte	0
 13389 57f3 07       		.uleb128 0x7
 13390 57f4 E64F0000 		.4byte	0x4fe6
 13391 57f8 07       		.uleb128 0x7
 13392 57f9 B34D0000 		.4byte	0x4db3
 13393 57fd 6B       		.uleb128 0x6b
 13394 57fe 681D0000 		.4byte	0x1d68
 13395 5802 00000000 		.4byte	.LFB394
 13396 5806 56000000 		.4byte	.LFE394-.LFB394
 13397 580a 01       		.uleb128 0x1
 13398 580b 9C       		.byte	0x9c
 13399 580c 14580000 		.4byte	0x5814
 13400 5810 3D580000 		.4byte	0x583d
 13401 5814 64       		.uleb128 0x64
 13402 5815 EA270000 		.4byte	.LASF830
 13403 5819 F24F0000 		.4byte	0x4ff2
 13404 581d 02       		.uleb128 0x2
 13405 581e 91       		.byte	0x91
ARM GAS  /tmp/ccB5ynkg.s 			page 238


 13406 581f 74       		.sleb128 -12
 13407 5820 5E       		.uleb128 0x5e
 13408 5821 6D736700 		.ascii	"msg\000"
 13409 5825 0D       		.byte	0xd
 13410 5826 52       		.byte	0x52
 13411 5827 3D580000 		.4byte	0x583d
 13412 582b 02       		.uleb128 0x2
 13413 582c 91       		.byte	0x91
 13414 582d 70       		.sleb128 -16
 13415 582e 66       		.uleb128 0x66
 13416 582f 2C260000 		.4byte	.LASF837
 13417 5833 0D       		.byte	0xd
 13418 5834 52       		.byte	0x52
 13419 5835 42580000 		.4byte	0x5842
 13420 5839 02       		.uleb128 0x2
 13421 583a 91       		.byte	0x91
 13422 583b 6C       		.sleb128 -20
 13423 583c 00       		.byte	0
 13424 583d 07       		.uleb128 0x7
 13425 583e 344F0000 		.4byte	0x4f34
 13426 5842 07       		.uleb128 0x7
 13427 5843 BF4D0000 		.4byte	0x4dbf
 13428 5847 63       		.uleb128 0x63
 13429 5848 AB290000 		.4byte	0x29ab
 13430 584c FA       		.byte	0xfa
 13431 584d 00000000 		.4byte	.LFB413
 13432 5851 28000000 		.4byte	.LFE413-.LFB413
 13433 5855 01       		.uleb128 0x1
 13434 5856 9C       		.byte	0x9c
 13435 5857 5F580000 		.4byte	0x585f
 13436 585b 83580000 		.4byte	0x5883
 13437 585f 64       		.uleb128 0x64
 13438 5860 EA270000 		.4byte	.LASF830
 13439 5864 184F0000 		.4byte	0x4f18
 13440 5868 02       		.uleb128 0x2
 13441 5869 91       		.byte	0x91
 13442 586a 74       		.sleb128 -12
 13443 586b 5F       		.uleb128 0x5f
 13444 586c 06000000 		.4byte	.LBB50
 13445 5870 1C000000 		.4byte	.LBE50-.LBB50
 13446 5874 6C       		.uleb128 0x6c
 13447 5875 55120000 		.4byte	.LASF832
 13448 5879 0E       		.byte	0xe
 13449 587a FC       		.byte	0xfc
 13450 587b 2E4F0000 		.4byte	0x4f2e
 13451 587f 01       		.uleb128 0x1
 13452 5880 54       		.byte	0x54
 13453 5881 00       		.byte	0
 13454 5882 00       		.byte	0
 13455 5883 6E       		.uleb128 0x6e
 13456 5884 8C200000 		.4byte	.LASF838
 13457 5888 0F       		.byte	0xf
 13458 5889 56       		.byte	0x56
 13459 588a 78590000 		.4byte	.LASF839
 13460 588e 00000000 		.4byte	.LFB598
 13461 5892 32000000 		.4byte	.LFE598-.LFB598
 13462 5896 01       		.uleb128 0x1
ARM GAS  /tmp/ccB5ynkg.s 			page 239


 13463 5897 9C       		.byte	0x9c
 13464 5898 AB580000 		.4byte	0x58ab
 13465 589c 66       		.uleb128 0x66
 13466 589d A0520000 		.4byte	.LASF221
 13467 58a1 0F       		.byte	0xf
 13468 58a2 56       		.byte	0x56
 13469 58a3 820B0000 		.4byte	0xb82
 13470 58a7 02       		.uleb128 0x2
 13471 58a8 91       		.byte	0x91
 13472 58a9 74       		.sleb128 -12
 13473 58aa 00       		.byte	0
 13474 58ab 6E       		.uleb128 0x6e
 13475 58ac B80D0000 		.4byte	.LASF840
 13476 58b0 0F       		.byte	0xf
 13477 58b1 5E       		.byte	0x5e
 13478 58b2 1A0B0000 		.4byte	.LASF841
 13479 58b6 00000000 		.4byte	.LFB599
 13480 58ba 36000000 		.4byte	.LFE599-.LFB599
 13481 58be 01       		.uleb128 0x1
 13482 58bf 9C       		.byte	0x9c
 13483 58c0 D3580000 		.4byte	0x58d3
 13484 58c4 66       		.uleb128 0x66
 13485 58c5 A0520000 		.4byte	.LASF221
 13486 58c9 0F       		.byte	0xf
 13487 58ca 5E       		.byte	0x5e
 13488 58cb 820B0000 		.4byte	0xb82
 13489 58cf 02       		.uleb128 0x2
 13490 58d0 91       		.byte	0x91
 13491 58d1 74       		.sleb128 -12
 13492 58d2 00       		.byte	0
 13493 58d3 5D       		.uleb128 0x5d
 13494 58d4 D1490000 		.4byte	.LASF843
 13495 58d8 0F       		.byte	0xf
 13496 58d9 6C       		.byte	0x6c
 13497 58da 00000000 		.4byte	.LFB600
 13498 58de 38020000 		.4byte	.LFE600-.LFB600
 13499 58e2 01       		.uleb128 0x1
 13500 58e3 9C       		.byte	0x9c
 13501 58e4 A6590000 		.4byte	0x59a6
 13502 58e8 5E       		.uleb128 0x5e
 13503 58e9 63687000 		.ascii	"chp\000"
 13504 58ed 0F       		.byte	0xf
 13505 58ee 6C       		.byte	0x6c
 13506 58ef 53100000 		.4byte	0x1053
 13507 58f3 03       		.uleb128 0x3
 13508 58f4 91       		.byte	0x91
 13509 58f5 BC7F     		.sleb128 -68
 13510 58f7 66       		.uleb128 0x66
 13511 58f8 20480000 		.4byte	.LASF844
 13512 58fc 0F       		.byte	0xf
 13513 58fd 6C       		.byte	0x6c
 13514 58fe 37000000 		.4byte	0x37
 13515 5902 03       		.uleb128 0x3
 13516 5903 91       		.byte	0x91
 13517 5904 B87F     		.sleb128 -72
 13518 5906 66       		.uleb128 0x66
 13519 5907 C5480000 		.4byte	.LASF845
ARM GAS  /tmp/ccB5ynkg.s 			page 240


 13520 590b 0F       		.byte	0xf
 13521 590c 6C       		.byte	0x6c
 13522 590d 59100000 		.4byte	0x1059
 13523 5911 03       		.uleb128 0x3
 13524 5912 91       		.byte	0x91
 13525 5913 B47F     		.sleb128 -76
 13526 5915 5F       		.uleb128 0x5f
 13527 5916 0A000000 		.4byte	.LBB51
 13528 591a F4010000 		.4byte	.LBE51-.LBB51
 13529 591e 6C       		.uleb128 0x6c
 13530 591f 55120000 		.4byte	.LASF832
 13531 5923 0F       		.byte	0xf
 13532 5924 6D       		.byte	0x6d
 13533 5925 F4510000 		.4byte	0x51f4
 13534 5929 02       		.uleb128 0x2
 13535 592a 91       		.byte	0x91
 13536 592b 40       		.sleb128 -64
 13537 592c 60       		.uleb128 0x60
 13538 592d 7800     		.ascii	"x\000"
 13539 592f 0F       		.byte	0xf
 13540 5930 7D       		.byte	0x7d
 13541 5931 2C510000 		.4byte	0x512c
 13542 5935 02       		.uleb128 0x2
 13543 5936 91       		.byte	0x91
 13544 5937 64       		.sleb128 -28
 13545 5938 60       		.uleb128 0x60
 13546 5939 7900     		.ascii	"y\000"
 13547 593b 0F       		.byte	0xf
 13548 593c 7E       		.byte	0x7e
 13549 593d 2C510000 		.4byte	0x512c
 13550 5941 02       		.uleb128 0x2
 13551 5942 91       		.byte	0x91
 13552 5943 60       		.sleb128 -32
 13553 5944 60       		.uleb128 0x60
 13554 5945 7700     		.ascii	"w\000"
 13555 5947 0F       		.byte	0xf
 13556 5948 7F       		.byte	0x7f
 13557 5949 2C510000 		.4byte	0x512c
 13558 594d 02       		.uleb128 0x2
 13559 594e 91       		.byte	0x91
 13560 594f 5C       		.sleb128 -36
 13561 5950 6C       		.uleb128 0x6c
 13562 5951 912B0000 		.4byte	.LASF846
 13563 5955 0F       		.byte	0xf
 13564 5956 82       		.byte	0x82
 13565 5957 A6590000 		.4byte	0x59a6
 13566 595b 02       		.uleb128 0x2
 13567 595c 91       		.byte	0x91
 13568 595d 58       		.sleb128 -40
 13569 595e 6C       		.uleb128 0x6c
 13570 595f 8B560000 		.4byte	.LASF847
 13571 5963 0F       		.byte	0xf
 13572 5964 83       		.byte	0x83
 13573 5965 A6590000 		.4byte	0x59a6
 13574 5969 02       		.uleb128 0x2
 13575 596a 91       		.byte	0x91
 13576 596b 54       		.sleb128 -44
ARM GAS  /tmp/ccB5ynkg.s 			page 241


 13577 596c 6C       		.uleb128 0x6c
 13578 596d A1310000 		.4byte	.LASF848
 13579 5971 0F       		.byte	0xf
 13580 5972 84       		.byte	0x84
 13581 5973 A6590000 		.4byte	0x59a6
 13582 5977 02       		.uleb128 0x2
 13583 5978 91       		.byte	0x91
 13584 5979 50       		.sleb128 -48
 13585 597a 6C       		.uleb128 0x6c
 13586 597b 77250000 		.4byte	.LASF849
 13587 597f 0F       		.byte	0xf
 13588 5980 86       		.byte	0x86
 13589 5981 2C510000 		.4byte	0x512c
 13590 5985 02       		.uleb128 0x2
 13591 5986 91       		.byte	0x91
 13592 5987 4C       		.sleb128 -52
 13593 5988 6C       		.uleb128 0x6c
 13594 5989 7C250000 		.4byte	.LASF850
 13595 598d 0F       		.byte	0xf
 13596 598e 87       		.byte	0x87
 13597 598f 2C510000 		.4byte	0x512c
 13598 5993 02       		.uleb128 0x2
 13599 5994 91       		.byte	0x91
 13600 5995 48       		.sleb128 -56
 13601 5996 6C       		.uleb128 0x6c
 13602 5997 94220000 		.4byte	.LASF851
 13603 599b 0F       		.byte	0xf
 13604 599c 88       		.byte	0x88
 13605 599d 2C510000 		.4byte	0x512c
 13606 59a1 02       		.uleb128 0x2
 13607 59a2 91       		.byte	0x91
 13608 59a3 44       		.sleb128 -60
 13609 59a4 00       		.byte	0
 13610 59a5 00       		.byte	0
 13611 59a6 07       		.uleb128 0x7
 13612 59a7 2C510000 		.4byte	0x512c
 13613 59ab 5D       		.uleb128 0x5d
 13614 59ac 2D120000 		.4byte	.LASF852
 13615 59b0 0F       		.byte	0xf
 13616 59b1 98       		.byte	0x98
 13617 59b2 00000000 		.4byte	.LFB601
 13618 59b6 B0000000 		.4byte	.LFE601-.LFB601
 13619 59ba 01       		.uleb128 0x1
 13620 59bb 9C       		.byte	0x9c
 13621 59bc 035A0000 		.4byte	0x5a03
 13622 59c0 5E       		.uleb128 0x5e
 13623 59c1 63687000 		.ascii	"chp\000"
 13624 59c5 0F       		.byte	0xf
 13625 59c6 98       		.byte	0x98
 13626 59c7 53100000 		.4byte	0x1053
 13627 59cb 02       		.uleb128 0x2
 13628 59cc 91       		.byte	0x91
 13629 59cd 64       		.sleb128 -28
 13630 59ce 66       		.uleb128 0x66
 13631 59cf 20480000 		.4byte	.LASF844
 13632 59d3 0F       		.byte	0xf
 13633 59d4 98       		.byte	0x98
ARM GAS  /tmp/ccB5ynkg.s 			page 242


 13634 59d5 37000000 		.4byte	0x37
 13635 59d9 02       		.uleb128 0x2
 13636 59da 91       		.byte	0x91
 13637 59db 60       		.sleb128 -32
 13638 59dc 66       		.uleb128 0x66
 13639 59dd C5480000 		.4byte	.LASF845
 13640 59e1 0F       		.byte	0xf
 13641 59e2 98       		.byte	0x98
 13642 59e3 59100000 		.4byte	0x1059
 13643 59e7 02       		.uleb128 0x2
 13644 59e8 91       		.byte	0x91
 13645 59e9 5C       		.sleb128 -36
 13646 59ea 5F       		.uleb128 0x5f
 13647 59eb 0A000000 		.4byte	.LBB52
 13648 59ef 8A000000 		.4byte	.LBE52-.LBB52
 13649 59f3 6C       		.uleb128 0x6c
 13650 59f4 55120000 		.4byte	.LASF832
 13651 59f8 0F       		.byte	0xf
 13652 59f9 9A       		.byte	0x9a
 13653 59fa 73510000 		.4byte	0x5173
 13654 59fe 02       		.uleb128 0x2
 13655 59ff 91       		.byte	0x91
 13656 5a00 68       		.sleb128 -24
 13657 5a01 00       		.byte	0
 13658 5a02 00       		.byte	0
 13659 5a03 5D       		.uleb128 0x5d
 13660 5a04 64310000 		.4byte	.LASF853
 13661 5a08 0F       		.byte	0xf
 13662 5a09 AE       		.byte	0xae
 13663 5a0a 00000000 		.4byte	.LFB602
 13664 5a0e 9C000000 		.4byte	.LFE602-.LFB602
 13665 5a12 01       		.uleb128 0x1
 13666 5a13 9C       		.byte	0x9c
 13667 5a14 5B5A0000 		.4byte	0x5a5b
 13668 5a18 5E       		.uleb128 0x5e
 13669 5a19 63687000 		.ascii	"chp\000"
 13670 5a1d 0F       		.byte	0xf
 13671 5a1e AE       		.byte	0xae
 13672 5a1f 53100000 		.4byte	0x1053
 13673 5a23 02       		.uleb128 0x2
 13674 5a24 91       		.byte	0x91
 13675 5a25 6C       		.sleb128 -20
 13676 5a26 66       		.uleb128 0x66
 13677 5a27 20480000 		.4byte	.LASF844
 13678 5a2b 0F       		.byte	0xf
 13679 5a2c AE       		.byte	0xae
 13680 5a2d 37000000 		.4byte	0x37
 13681 5a31 02       		.uleb128 0x2
 13682 5a32 91       		.byte	0x91
 13683 5a33 68       		.sleb128 -24
 13684 5a34 66       		.uleb128 0x66
 13685 5a35 C5480000 		.4byte	.LASF845
 13686 5a39 0F       		.byte	0xf
 13687 5a3a AE       		.byte	0xae
 13688 5a3b 59100000 		.4byte	0x1059
 13689 5a3f 02       		.uleb128 0x2
 13690 5a40 91       		.byte	0x91
ARM GAS  /tmp/ccB5ynkg.s 			page 243


 13691 5a41 64       		.sleb128 -28
 13692 5a42 5F       		.uleb128 0x5f
 13693 5a43 0A000000 		.4byte	.LBB53
 13694 5a47 72000000 		.4byte	.LBE53-.LBB53
 13695 5a4b 6C       		.uleb128 0x6c
 13696 5a4c 55120000 		.4byte	.LASF832
 13697 5a50 0F       		.byte	0xf
 13698 5a51 AF       		.byte	0xaf
 13699 5a52 F4510000 		.4byte	0x51f4
 13700 5a56 02       		.uleb128 0x2
 13701 5a57 91       		.byte	0x91
 13702 5a58 74       		.sleb128 -12
 13703 5a59 00       		.byte	0
 13704 5a5a 00       		.byte	0
 13705 5a5b 5D       		.uleb128 0x5d
 13706 5a5c B44A0000 		.4byte	.LASF854
 13707 5a60 0F       		.byte	0xf
 13708 5a61 CB       		.byte	0xcb
 13709 5a62 00000000 		.4byte	.LFB603
 13710 5a66 40000000 		.4byte	.LFE603-.LFB603
 13711 5a6a 01       		.uleb128 0x1
 13712 5a6b 9C       		.byte	0x9c
 13713 5a6c 9B5A0000 		.4byte	0x5a9b
 13714 5a70 5E       		.uleb128 0x5e
 13715 5a71 63687000 		.ascii	"chp\000"
 13716 5a75 0F       		.byte	0xf
 13717 5a76 CB       		.byte	0xcb
 13718 5a77 53100000 		.4byte	0x1053
 13719 5a7b 02       		.uleb128 0x2
 13720 5a7c 91       		.byte	0x91
 13721 5a7d 74       		.sleb128 -12
 13722 5a7e 66       		.uleb128 0x66
 13723 5a7f 20480000 		.4byte	.LASF844
 13724 5a83 0F       		.byte	0xf
 13725 5a84 CB       		.byte	0xcb
 13726 5a85 37000000 		.4byte	0x37
 13727 5a89 02       		.uleb128 0x2
 13728 5a8a 91       		.byte	0x91
 13729 5a8b 70       		.sleb128 -16
 13730 5a8c 66       		.uleb128 0x66
 13731 5a8d C5480000 		.4byte	.LASF845
 13732 5a91 0F       		.byte	0xf
 13733 5a92 CB       		.byte	0xcb
 13734 5a93 59100000 		.4byte	0x1059
 13735 5a97 02       		.uleb128 0x2
 13736 5a98 91       		.byte	0x91
 13737 5a99 6C       		.sleb128 -20
 13738 5a9a 00       		.byte	0
 13739 5a9b 5D       		.uleb128 0x5d
 13740 5a9c 38110000 		.4byte	.LASF855
 13741 5aa0 0F       		.byte	0xf
 13742 5aa1 D9       		.byte	0xd9
 13743 5aa2 00000000 		.4byte	.LFB604
 13744 5aa6 DC000000 		.4byte	.LFE604-.LFB604
 13745 5aaa 01       		.uleb128 0x1
 13746 5aab 9C       		.byte	0x9c
 13747 5aac F35A0000 		.4byte	0x5af3
ARM GAS  /tmp/ccB5ynkg.s 			page 244


 13748 5ab0 5E       		.uleb128 0x5e
 13749 5ab1 63687000 		.ascii	"chp\000"
 13750 5ab5 0F       		.byte	0xf
 13751 5ab6 D9       		.byte	0xd9
 13752 5ab7 53100000 		.4byte	0x1053
 13753 5abb 02       		.uleb128 0x2
 13754 5abc 91       		.byte	0x91
 13755 5abd 6C       		.sleb128 -20
 13756 5abe 66       		.uleb128 0x66
 13757 5abf 20480000 		.4byte	.LASF844
 13758 5ac3 0F       		.byte	0xf
 13759 5ac4 D9       		.byte	0xd9
 13760 5ac5 37000000 		.4byte	0x37
 13761 5ac9 02       		.uleb128 0x2
 13762 5aca 91       		.byte	0x91
 13763 5acb 68       		.sleb128 -24
 13764 5acc 66       		.uleb128 0x66
 13765 5acd C5480000 		.4byte	.LASF845
 13766 5ad1 0F       		.byte	0xf
 13767 5ad2 D9       		.byte	0xd9
 13768 5ad3 59100000 		.4byte	0x1059
 13769 5ad7 02       		.uleb128 0x2
 13770 5ad8 91       		.byte	0x91
 13771 5ad9 64       		.sleb128 -28
 13772 5ada 5F       		.uleb128 0x5f
 13773 5adb 0A000000 		.4byte	.LBB54
 13774 5adf B4000000 		.4byte	.LBE54-.LBB54
 13775 5ae3 6C       		.uleb128 0x6c
 13776 5ae4 55120000 		.4byte	.LASF832
 13777 5ae8 0F       		.byte	0xf
 13778 5ae9 DA       		.byte	0xda
 13779 5aea D6510000 		.4byte	0x51d6
 13780 5aee 02       		.uleb128 0x2
 13781 5aef 91       		.byte	0x91
 13782 5af0 74       		.sleb128 -12
 13783 5af1 00       		.byte	0
 13784 5af2 00       		.byte	0
 13785 5af3 6F       		.uleb128 0x6f
 13786 5af4 69000000 		.4byte	.LASF856
 13787 5af8 0F       		.byte	0xf
 13788 5af9 F9       		.byte	0xf9
 13789 5afa AC270000 		.4byte	.LASF909
 13790 5afe 6B010000 		.4byte	0x16b
 13791 5b02 00000000 		.4byte	.LFB605
 13792 5b06 C0000000 		.4byte	.LFE605-.LFB605
 13793 5b0a 01       		.uleb128 0x1
 13794 5b0b 9C       		.byte	0x9c
 13795 5b0c 455B0000 		.4byte	0x5b45
 13796 5b10 5E       		.uleb128 0x5e
 13797 5b11 61726700 		.ascii	"arg\000"
 13798 5b15 0F       		.byte	0xf
 13799 5b16 F9       		.byte	0xf9
 13800 5b17 BF000000 		.4byte	0xbf
 13801 5b1b 02       		.uleb128 0x2
 13802 5b1c 91       		.byte	0x91
 13803 5b1d 4C       		.sleb128 -52
 13804 5b1e 5F       		.uleb128 0x5f
ARM GAS  /tmp/ccB5ynkg.s 			page 245


 13805 5b1f 06000000 		.4byte	.LBB55
 13806 5b23 BA000000 		.4byte	.LBE55-.LBB55
 13807 5b27 6C       		.uleb128 0x6c
 13808 5b28 A0410000 		.4byte	.LASF857
 13809 5b2c 0F       		.byte	0xf
 13810 5b2d FA       		.byte	0xfa
 13811 5b2e DE410000 		.4byte	0x41de
 13812 5b32 02       		.uleb128 0x2
 13813 5b33 91       		.byte	0x91
 13814 5b34 54       		.sleb128 -44
 13815 5b35 6C       		.uleb128 0x6c
 13816 5b36 3B530000 		.4byte	.LASF858
 13817 5b3a 0F       		.byte	0xf
 13818 5b3b FB       		.byte	0xfb
 13819 5b3c 05030000 		.4byte	0x305
 13820 5b40 02       		.uleb128 0x2
 13821 5b41 91       		.byte	0x91
 13822 5b42 74       		.sleb128 -12
 13823 5b43 00       		.byte	0
 13824 5b44 00       		.byte	0
 13825 5b45 70       		.uleb128 0x70
 13826 5b46 9A160000 		.4byte	0x169a
 13827 5b4a 02       		.byte	0x2
 13828 5b4b 5A5B0000 		.4byte	0x5b5a
 13829 5b4f 6F5B0000 		.4byte	0x5b6f
 13830 5b53 35       		.uleb128 0x35
 13831 5b54 5400     		.ascii	"T\000"
 13832 5b56 86000000 		.4byte	0x86
 13833 5b5a 68       		.uleb128 0x68
 13834 5b5b EA270000 		.4byte	.LASF830
 13835 5b5f 41540000 		.4byte	0x5441
 13836 5b63 71       		.uleb128 0x71
 13837 5b64 DE200000 		.4byte	.LASF859
 13838 5b68 05       		.byte	0x5
 13839 5b69 9F       		.byte	0x9f
 13840 5b6a 86000000 		.4byte	0x86
 13841 5b6e 00       		.byte	0
 13842 5b6f 69       		.uleb128 0x69
 13843 5b70 455B0000 		.4byte	0x5b45
 13844 5b74 67070000 		.4byte	.LASF861
 13845 5b78 00000000 		.4byte	.LFB607
 13846 5b7c 14000000 		.4byte	.LFE607-.LFB607
 13847 5b80 01       		.uleb128 0x1
 13848 5b81 9C       		.byte	0x9c
 13849 5b82 915B0000 		.4byte	0x5b91
 13850 5b86 A25B0000 		.4byte	0x5ba2
 13851 5b8a 35       		.uleb128 0x35
 13852 5b8b 5400     		.ascii	"T\000"
 13853 5b8d 86000000 		.4byte	0x86
 13854 5b91 6A       		.uleb128 0x6a
 13855 5b92 5A5B0000 		.4byte	0x5b5a
 13856 5b96 02       		.uleb128 0x2
 13857 5b97 91       		.byte	0x91
 13858 5b98 7C       		.sleb128 -4
 13859 5b99 6A       		.uleb128 0x6a
 13860 5b9a 635B0000 		.4byte	0x5b63
 13861 5b9e 02       		.uleb128 0x2
ARM GAS  /tmp/ccB5ynkg.s 			page 246


 13862 5b9f 91       		.byte	0x91
 13863 5ba0 78       		.sleb128 -8
 13864 5ba1 00       		.byte	0
 13865 5ba2 72       		.uleb128 0x72
 13866 5ba3 B0350000 		.4byte	0x35b0
 13867 5ba7 00000000 		.4byte	.LFB615
 13868 5bab 0E000000 		.4byte	.LFE615-.LFB615
 13869 5baf 01       		.uleb128 0x1
 13870 5bb0 9C       		.byte	0x9c
 13871 5bb1 B95B0000 		.4byte	0x5bb9
 13872 5bb5 C65B0000 		.4byte	0x5bc6
 13873 5bb9 64       		.uleb128 0x64
 13874 5bba EA270000 		.4byte	.LASF830
 13875 5bbe C65B0000 		.4byte	0x5bc6
 13876 5bc2 02       		.uleb128 0x2
 13877 5bc3 91       		.byte	0x91
 13878 5bc4 7C       		.sleb128 -4
 13879 5bc5 00       		.byte	0
 13880 5bc6 07       		.uleb128 0x7
 13881 5bc7 EC4F0000 		.4byte	0x4fec
 13882 5bcb 72       		.uleb128 0x72
 13883 5bcc 6F350000 		.4byte	0x356f
 13884 5bd0 00000000 		.4byte	.LFB616
 13885 5bd4 5E000000 		.4byte	.LFE616-.LFB616
 13886 5bd8 01       		.uleb128 0x1
 13887 5bd9 9C       		.byte	0x9c
 13888 5bda E25B0000 		.4byte	0x5be2
 13889 5bde FD5B0000 		.4byte	0x5bfd
 13890 5be2 64       		.uleb128 0x64
 13891 5be3 EA270000 		.4byte	.LASF830
 13892 5be7 FD5B0000 		.4byte	0x5bfd
 13893 5beb 02       		.uleb128 0x2
 13894 5bec 91       		.byte	0x91
 13895 5bed 7C       		.sleb128 -4
 13896 5bee 66       		.uleb128 0x66
 13897 5bef BC4A0000 		.4byte	.LASF862
 13898 5bf3 10       		.byte	0x10
 13899 5bf4 34       		.byte	0x34
 13900 5bf5 025C0000 		.4byte	0x5c02
 13901 5bf9 02       		.uleb128 0x2
 13902 5bfa 91       		.byte	0x91
 13903 5bfb 78       		.sleb128 -8
 13904 5bfc 00       		.byte	0
 13905 5bfd 07       		.uleb128 0x7
 13906 5bfe E04F0000 		.4byte	0x4fe0
 13907 5c02 07       		.uleb128 0x7
 13908 5c03 E64F0000 		.4byte	0x4fe6
 13909 5c07 72       		.uleb128 0x72
 13910 5c08 4C350000 		.4byte	0x354c
 13911 5c0c 00000000 		.4byte	.LFB617
 13912 5c10 60000000 		.4byte	.LFE617-.LFB617
 13913 5c14 01       		.uleb128 0x1
 13914 5c15 9C       		.byte	0x9c
 13915 5c16 1E5C0000 		.4byte	0x5c1e
 13916 5c1a 395C0000 		.4byte	0x5c39
 13917 5c1e 64       		.uleb128 0x64
 13918 5c1f EA270000 		.4byte	.LASF830
ARM GAS  /tmp/ccB5ynkg.s 			page 247


 13919 5c23 FD5B0000 		.4byte	0x5bfd
 13920 5c27 02       		.uleb128 0x2
 13921 5c28 91       		.byte	0x91
 13922 5c29 7C       		.sleb128 -4
 13923 5c2a 66       		.uleb128 0x66
 13924 5c2b BC4A0000 		.4byte	.LASF862
 13925 5c2f 10       		.byte	0x10
 13926 5c30 25       		.byte	0x25
 13927 5c31 2E4F0000 		.4byte	0x4f2e
 13928 5c35 02       		.uleb128 0x2
 13929 5c36 91       		.byte	0x91
 13930 5c37 78       		.sleb128 -8
 13931 5c38 00       		.byte	0
 13932 5c39 70       		.uleb128 0x70
 13933 5c3a C44C0000 		.4byte	0x4cc4
 13934 5c3e 02       		.byte	0x2
 13935 5c3f 475C0000 		.4byte	0x5c47
 13936 5c43 515C0000 		.4byte	0x5c51
 13937 5c47 68       		.uleb128 0x68
 13938 5c48 EA270000 		.4byte	.LASF830
 13939 5c4c 515C0000 		.4byte	0x5c51
 13940 5c50 00       		.byte	0
 13941 5c51 07       		.uleb128 0x7
 13942 5c52 E2510000 		.4byte	0x51e2
 13943 5c56 73       		.uleb128 0x73
 13944 5c57 395C0000 		.4byte	0x5c39
 13945 5c5b 94340000 		.4byte	.LASF863
 13946 5c5f 00000000 		.4byte	.LFB628
 13947 5c63 24000000 		.4byte	.LFE628-.LFB628
 13948 5c67 01       		.uleb128 0x1
 13949 5c68 9C       		.byte	0x9c
 13950 5c69 715C0000 		.4byte	0x5c71
 13951 5c6d 7A5C0000 		.4byte	0x5c7a
 13952 5c71 6A       		.uleb128 0x6a
 13953 5c72 475C0000 		.4byte	0x5c47
 13954 5c76 02       		.uleb128 0x2
 13955 5c77 91       		.byte	0x91
 13956 5c78 74       		.sleb128 -12
 13957 5c79 00       		.byte	0
 13958 5c7a 70       		.uleb128 0x70
 13959 5c7b E1490000 		.4byte	0x49e1
 13960 5c7f 02       		.byte	0x2
 13961 5c80 885C0000 		.4byte	0x5c88
 13962 5c84 925C0000 		.4byte	0x5c92
 13963 5c88 68       		.uleb128 0x68
 13964 5c89 EA270000 		.4byte	.LASF830
 13965 5c8d 925C0000 		.4byte	0x5c92
 13966 5c91 00       		.byte	0
 13967 5c92 07       		.uleb128 0x7
 13968 5c93 C4510000 		.4byte	0x51c4
 13969 5c97 73       		.uleb128 0x73
 13970 5c98 7A5C0000 		.4byte	0x5c7a
 13971 5c9c A12B0000 		.4byte	.LASF864
 13972 5ca0 00000000 		.4byte	.LFB631
 13973 5ca4 24000000 		.4byte	.LFE631-.LFB631
 13974 5ca8 01       		.uleb128 0x1
 13975 5ca9 9C       		.byte	0x9c
ARM GAS  /tmp/ccB5ynkg.s 			page 248


 13976 5caa B25C0000 		.4byte	0x5cb2
 13977 5cae BB5C0000 		.4byte	0x5cbb
 13978 5cb2 6A       		.uleb128 0x6a
 13979 5cb3 885C0000 		.4byte	0x5c88
 13980 5cb7 02       		.uleb128 0x2
 13981 5cb8 91       		.byte	0x91
 13982 5cb9 74       		.sleb128 -12
 13983 5cba 00       		.byte	0
 13984 5cbb 74       		.uleb128 0x74
 13985 5cbc 4E470000 		.4byte	0x474e
 13986 5cc0 12       		.byte	0x12
 13987 5cc1 04       		.byte	0x4
 13988 5cc2 02       		.byte	0x2
 13989 5cc3 CB5C0000 		.4byte	0x5ccb
 13990 5cc7 D55C0000 		.4byte	0x5cd5
 13991 5ccb 68       		.uleb128 0x68
 13992 5ccc EA270000 		.4byte	.LASF830
 13993 5cd0 D55C0000 		.4byte	0x5cd5
 13994 5cd4 00       		.byte	0
 13995 5cd5 07       		.uleb128 0x7
 13996 5cd6 73510000 		.4byte	0x5173
 13997 5cda 73       		.uleb128 0x73
 13998 5cdb BB5C0000 		.4byte	0x5cbb
 13999 5cdf B15C0000 		.4byte	.LASF865
 14000 5ce3 00000000 		.4byte	.LFB635
 14001 5ce7 18000000 		.4byte	.LFE635-.LFB635
 14002 5ceb 01       		.uleb128 0x1
 14003 5cec 9C       		.byte	0x9c
 14004 5ced F55C0000 		.4byte	0x5cf5
 14005 5cf1 FE5C0000 		.4byte	0x5cfe
 14006 5cf5 6A       		.uleb128 0x6a
 14007 5cf6 CB5C0000 		.4byte	0x5ccb
 14008 5cfa 02       		.uleb128 0x2
 14009 5cfb 91       		.byte	0x91
 14010 5cfc 74       		.sleb128 -12
 14011 5cfd 00       		.byte	0
 14012 5cfe 70       		.uleb128 0x70
 14013 5cff BB470000 		.4byte	0x47bb
 14014 5d03 02       		.byte	0x2
 14015 5d04 0C5D0000 		.4byte	0x5d0c
 14016 5d08 215D0000 		.4byte	0x5d21
 14017 5d0c 68       		.uleb128 0x68
 14018 5d0d EA270000 		.4byte	.LASF830
 14019 5d11 215D0000 		.4byte	0x5d21
 14020 5d15 71       		.uleb128 0x71
 14021 5d16 B4360000 		.4byte	.LASF866
 14022 5d1a 13       		.byte	0x13
 14023 5d1b 1F       		.byte	0x1f
 14024 5d1c 92470000 		.4byte	0x4792
 14025 5d20 00       		.byte	0
 14026 5d21 07       		.uleb128 0x7
 14027 5d22 94510000 		.4byte	0x5194
 14028 5d26 73       		.uleb128 0x73
 14029 5d27 FE5C0000 		.4byte	0x5cfe
 14030 5d2b A6310000 		.4byte	.LASF867
 14031 5d2f 00000000 		.4byte	.LFB637
 14032 5d33 48000000 		.4byte	.LFE637-.LFB637
ARM GAS  /tmp/ccB5ynkg.s 			page 249


 14033 5d37 01       		.uleb128 0x1
 14034 5d38 9C       		.byte	0x9c
 14035 5d39 415D0000 		.4byte	0x5d41
 14036 5d3d 525D0000 		.4byte	0x5d52
 14037 5d41 6A       		.uleb128 0x6a
 14038 5d42 0C5D0000 		.4byte	0x5d0c
 14039 5d46 02       		.uleb128 0x2
 14040 5d47 91       		.byte	0x91
 14041 5d48 6C       		.sleb128 -20
 14042 5d49 6A       		.uleb128 0x6a
 14043 5d4a 155D0000 		.4byte	0x5d15
 14044 5d4e 02       		.uleb128 0x2
 14045 5d4f 91       		.byte	0x91
 14046 5d50 68       		.sleb128 -24
 14047 5d51 00       		.byte	0
 14048 5d52 57       		.uleb128 0x57
 14049 5d53 04       		.byte	0x4
 14050 5d54 274C0000 		.4byte	0x4c27
 14051 5d58 6B       		.uleb128 0x6b
 14052 5d59 28440000 		.4byte	0x4428
 14053 5d5d 00000000 		.4byte	.LFB639
 14054 5d61 28000000 		.4byte	.LFE639-.LFB639
 14055 5d65 01       		.uleb128 0x1
 14056 5d66 9C       		.byte	0x9c
 14057 5d67 775D0000 		.4byte	0x5d77
 14058 5d6b AE5D0000 		.4byte	0x5dae
 14059 5d6f 35       		.uleb128 0x35
 14060 5d70 4D5400   		.ascii	"MT\000"
 14061 5d73 DA460000 		.4byte	0x46da
 14062 5d77 64       		.uleb128 0x64
 14063 5d78 EA270000 		.4byte	.LASF830
 14064 5d7c B0500000 		.4byte	0x50b0
 14065 5d80 02       		.uleb128 0x2
 14066 5d81 91       		.byte	0x91
 14067 5d82 74       		.sleb128 -12
 14068 5d83 5E       		.uleb128 0x5e
 14069 5d84 70756200 		.ascii	"pub\000"
 14070 5d88 0C       		.byte	0xc
 14071 5d89 75       		.byte	0x75
 14072 5d8a AE5D0000 		.4byte	0x5dae
 14073 5d8e 02       		.uleb128 0x2
 14074 5d8f 91       		.byte	0x91
 14075 5d90 70       		.sleb128 -16
 14076 5d91 66       		.uleb128 0x66
 14077 5d92 601D0000 		.4byte	.LASF461
 14078 5d96 0C       		.byte	0xc
 14079 5d97 75       		.byte	0x75
 14080 5d98 CE000000 		.4byte	0xce
 14081 5d9c 02       		.uleb128 0x2
 14082 5d9d 91       		.byte	0x91
 14083 5d9e 6C       		.sleb128 -20
 14084 5d9f 66       		.uleb128 0x66
 14085 5da0 955D0000 		.4byte	.LASF462
 14086 5da4 0C       		.byte	0xc
 14087 5da5 76       		.byte	0x76
 14088 5da6 B35D0000 		.4byte	0x5db3
 14089 5daa 02       		.uleb128 0x2
ARM GAS  /tmp/ccB5ynkg.s 			page 250


 14090 5dab 91       		.byte	0x91
 14091 5dac 68       		.sleb128 -24
 14092 5dad 00       		.byte	0
 14093 5dae 07       		.uleb128 0x7
 14094 5daf 525D0000 		.4byte	0x5d52
 14095 5db3 07       		.uleb128 0x7
 14096 5db4 BF4D0000 		.4byte	0x4dbf
 14097 5db8 6B       		.uleb128 0x6b
 14098 5db9 5B4C0000 		.4byte	0x4c5b
 14099 5dbd 00000000 		.4byte	.LFB640
 14100 5dc1 1C000000 		.4byte	.LFE640-.LFB640
 14101 5dc5 01       		.uleb128 0x1
 14102 5dc6 9C       		.byte	0x9c
 14103 5dc7 CF5D0000 		.4byte	0x5dcf
 14104 5dcb EA5D0000 		.4byte	0x5dea
 14105 5dcf 64       		.uleb128 0x64
 14106 5dd0 EA270000 		.4byte	.LASF830
 14107 5dd4 515C0000 		.4byte	0x5c51
 14108 5dd8 02       		.uleb128 0x2
 14109 5dd9 91       		.byte	0x91
 14110 5dda 74       		.sleb128 -12
 14111 5ddb 66       		.uleb128 0x66
 14112 5ddc 55120000 		.4byte	.LASF832
 14113 5de0 11       		.byte	0x11
 14114 5de1 19       		.byte	0x19
 14115 5de2 EA5D0000 		.4byte	0x5dea
 14116 5de6 02       		.uleb128 0x2
 14117 5de7 91       		.byte	0x91
 14118 5de8 70       		.sleb128 -16
 14119 5de9 00       		.byte	0
 14120 5dea 07       		.uleb128 0x7
 14121 5deb EE510000 		.4byte	0x51ee
 14122 5def 75       		.uleb128 0x75
 14123 5df0 E13D0000 		.4byte	.LASF910
 14124 5df4 0F       		.byte	0xf
 14125 5df5 20       		.byte	0x20
 14126 5df6 2C510000 		.4byte	0x512c
 14127 5dfa 00000000 		.4byte	.LFB641
 14128 5dfe 48000000 		.4byte	.LFE641-.LFB641
 14129 5e02 01       		.uleb128 0x1
 14130 5e03 9C       		.byte	0x9c
 14131 5e04 3A5E0000 		.4byte	0x5e3a
 14132 5e08 35       		.uleb128 0x35
 14133 5e09 5400     		.ascii	"T\000"
 14134 5e0b 2C510000 		.4byte	0x512c
 14135 5e0f 5E       		.uleb128 0x5e
 14136 5e10 6D696E00 		.ascii	"min\000"
 14137 5e14 0F       		.byte	0xf
 14138 5e15 20       		.byte	0x20
 14139 5e16 2C510000 		.4byte	0x512c
 14140 5e1a 02       		.uleb128 0x2
 14141 5e1b 91       		.byte	0x91
 14142 5e1c 7C       		.sleb128 -4
 14143 5e1d 66       		.uleb128 0x66
 14144 5e1e FB1C0000 		.4byte	.LASF772
 14145 5e22 0F       		.byte	0xf
 14146 5e23 20       		.byte	0x20
ARM GAS  /tmp/ccB5ynkg.s 			page 251


 14147 5e24 2C510000 		.4byte	0x512c
 14148 5e28 02       		.uleb128 0x2
 14149 5e29 91       		.byte	0x91
 14150 5e2a 78       		.sleb128 -8
 14151 5e2b 5E       		.uleb128 0x5e
 14152 5e2c 6D617800 		.ascii	"max\000"
 14153 5e30 0F       		.byte	0xf
 14154 5e31 20       		.byte	0x20
 14155 5e32 2C510000 		.4byte	0x512c
 14156 5e36 02       		.uleb128 0x2
 14157 5e37 91       		.byte	0x91
 14158 5e38 74       		.sleb128 -12
 14159 5e39 00       		.byte	0
 14160 5e3a 6B       		.uleb128 0x6b
 14161 5e3b 7E4C0000 		.4byte	0x4c7e
 14162 5e3f 00000000 		.4byte	.LFB642
 14163 5e43 1E000000 		.4byte	.LFE642-.LFB642
 14164 5e47 01       		.uleb128 0x1
 14165 5e48 9C       		.byte	0x9c
 14166 5e49 515E0000 		.4byte	0x5e51
 14167 5e4d 6C5E0000 		.4byte	0x5e6c
 14168 5e51 64       		.uleb128 0x64
 14169 5e52 EA270000 		.4byte	.LASF830
 14170 5e56 515C0000 		.4byte	0x5c51
 14171 5e5a 02       		.uleb128 0x2
 14172 5e5b 91       		.byte	0x91
 14173 5e5c 74       		.sleb128 -12
 14174 5e5d 5E       		.uleb128 0x5e
 14175 5e5e 6D736700 		.ascii	"msg\000"
 14176 5e62 11       		.byte	0x11
 14177 5e63 21       		.byte	0x21
 14178 5e64 6C5E0000 		.4byte	0x5e6c
 14179 5e68 02       		.uleb128 0x2
 14180 5e69 91       		.byte	0x91
 14181 5e6a 70       		.sleb128 -16
 14182 5e6b 00       		.byte	0
 14183 5e6c 07       		.uleb128 0x7
 14184 5e6d FA510000 		.4byte	0x51fa
 14185 5e71 57       		.uleb128 0x57
 14186 5e72 04       		.byte	0x4
 14187 5e73 63470000 		.4byte	0x4763
 14188 5e77 6B       		.uleb128 0x6b
 14189 5e78 5D440000 		.4byte	0x445d
 14190 5e7c 00000000 		.4byte	.LFB643
 14191 5e80 2A000000 		.4byte	.LFE643-.LFB643
 14192 5e84 01       		.uleb128 0x1
 14193 5e85 9C       		.byte	0x9c
 14194 5e86 9F5E0000 		.4byte	0x5e9f
 14195 5e8a C85E0000 		.4byte	0x5ec8
 14196 5e8e 35       		.uleb128 0x35
 14197 5e8f 4D5400   		.ascii	"MT\000"
 14198 5e92 2E470000 		.4byte	0x472e
 14199 5e96 4F       		.uleb128 0x4f
 14200 5e97 514C00   		.ascii	"QL\000"
 14201 5e9a 30000000 		.4byte	0x30
 14202 5e9e 05       		.byte	0x5
 14203 5e9f 64       		.uleb128 0x64
ARM GAS  /tmp/ccB5ynkg.s 			page 252


 14204 5ea0 EA270000 		.4byte	.LASF830
 14205 5ea4 B0500000 		.4byte	0x50b0
 14206 5ea8 02       		.uleb128 0x2
 14207 5ea9 91       		.byte	0x91
 14208 5eaa 74       		.sleb128 -12
 14209 5eab 5E       		.uleb128 0x5e
 14210 5eac 73756200 		.ascii	"sub\000"
 14211 5eb0 0C       		.byte	0xc
 14212 5eb1 85       		.byte	0x85
 14213 5eb2 C85E0000 		.4byte	0x5ec8
 14214 5eb6 02       		.uleb128 0x2
 14215 5eb7 91       		.byte	0x91
 14216 5eb8 70       		.sleb128 -16
 14217 5eb9 66       		.uleb128 0x66
 14218 5eba 601D0000 		.4byte	.LASF461
 14219 5ebe 0C       		.byte	0xc
 14220 5ebf 85       		.byte	0x85
 14221 5ec0 CE000000 		.4byte	0xce
 14222 5ec4 02       		.uleb128 0x2
 14223 5ec5 91       		.byte	0x91
 14224 5ec6 6C       		.sleb128 -20
 14225 5ec7 00       		.byte	0
 14226 5ec8 07       		.uleb128 0x7
 14227 5ec9 715E0000 		.4byte	0x5e71
 14228 5ecd 6B       		.uleb128 0x6b
 14229 5ece 70480000 		.4byte	0x4870
 14230 5ed2 00000000 		.4byte	.LFB644
 14231 5ed6 1C000000 		.4byte	.LFE644-.LFB644
 14232 5eda 01       		.uleb128 0x1
 14233 5edb 9C       		.byte	0x9c
 14234 5edc E45E0000 		.4byte	0x5ee4
 14235 5ee0 FF5E0000 		.4byte	0x5eff
 14236 5ee4 64       		.uleb128 0x64
 14237 5ee5 EA270000 		.4byte	.LASF830
 14238 5ee9 FF5E0000 		.4byte	0x5eff
 14239 5eed 02       		.uleb128 0x2
 14240 5eee 91       		.byte	0x91
 14241 5eef 74       		.sleb128 -12
 14242 5ef0 66       		.uleb128 0x66
 14243 5ef1 55120000 		.4byte	.LASF832
 14244 5ef5 14       		.byte	0x14
 14245 5ef6 1F       		.byte	0x1f
 14246 5ef7 045F0000 		.4byte	0x5f04
 14247 5efb 02       		.uleb128 0x2
 14248 5efc 91       		.byte	0x91
 14249 5efd 70       		.sleb128 -16
 14250 5efe 00       		.byte	0
 14251 5eff 07       		.uleb128 0x7
 14252 5f00 A0510000 		.4byte	0x51a0
 14253 5f04 07       		.uleb128 0x7
 14254 5f05 B2510000 		.4byte	0x51b2
 14255 5f09 6B       		.uleb128 0x6b
 14256 5f0a BB480000 		.4byte	0x48bb
 14257 5f0e 00000000 		.4byte	.LFB645
 14258 5f12 1E000000 		.4byte	.LFE645-.LFB645
 14259 5f16 01       		.uleb128 0x1
 14260 5f17 9C       		.byte	0x9c
ARM GAS  /tmp/ccB5ynkg.s 			page 253


 14261 5f18 205F0000 		.4byte	0x5f20
 14262 5f1c 3B5F0000 		.4byte	0x5f3b
 14263 5f20 64       		.uleb128 0x64
 14264 5f21 EA270000 		.4byte	.LASF830
 14265 5f25 FF5E0000 		.4byte	0x5eff
 14266 5f29 02       		.uleb128 0x2
 14267 5f2a 91       		.byte	0x91
 14268 5f2b 74       		.sleb128 -12
 14269 5f2c 5E       		.uleb128 0x5e
 14270 5f2d 6D736700 		.ascii	"msg\000"
 14271 5f31 14       		.byte	0x14
 14272 5f32 39       		.byte	0x39
 14273 5f33 3B5F0000 		.4byte	0x5f3b
 14274 5f37 02       		.uleb128 0x2
 14275 5f38 91       		.byte	0x91
 14276 5f39 70       		.sleb128 -16
 14277 5f3a 00       		.byte	0
 14278 5f3b 07       		.uleb128 0x7
 14279 5f3c B8510000 		.4byte	0x51b8
 14280 5f40 57       		.uleb128 0x57
 14281 5f41 04       		.byte	0x4
 14282 5f42 44490000 		.4byte	0x4944
 14283 5f46 6B       		.uleb128 0x6b
 14284 5f47 96440000 		.4byte	0x4496
 14285 5f4b 00000000 		.4byte	.LFB646
 14286 5f4f 28000000 		.4byte	.LFE646-.LFB646
 14287 5f53 01       		.uleb128 0x1
 14288 5f54 9C       		.byte	0x9c
 14289 5f55 655F0000 		.4byte	0x5f65
 14290 5f59 9C5F0000 		.4byte	0x5f9c
 14291 5f5d 35       		.uleb128 0x35
 14292 5f5e 4D5400   		.ascii	"MT\000"
 14293 5f61 FB460000 		.4byte	0x46fb
 14294 5f65 64       		.uleb128 0x64
 14295 5f66 EA270000 		.4byte	.LASF830
 14296 5f6a B0500000 		.4byte	0x50b0
 14297 5f6e 02       		.uleb128 0x2
 14298 5f6f 91       		.byte	0x91
 14299 5f70 74       		.sleb128 -12
 14300 5f71 5E       		.uleb128 0x5e
 14301 5f72 70756200 		.ascii	"pub\000"
 14302 5f76 0C       		.byte	0xc
 14303 5f77 75       		.byte	0x75
 14304 5f78 9C5F0000 		.4byte	0x5f9c
 14305 5f7c 02       		.uleb128 0x2
 14306 5f7d 91       		.byte	0x91
 14307 5f7e 70       		.sleb128 -16
 14308 5f7f 66       		.uleb128 0x66
 14309 5f80 601D0000 		.4byte	.LASF461
 14310 5f84 0C       		.byte	0xc
 14311 5f85 75       		.byte	0x75
 14312 5f86 CE000000 		.4byte	0xce
 14313 5f8a 02       		.uleb128 0x2
 14314 5f8b 91       		.byte	0x91
 14315 5f8c 6C       		.sleb128 -20
 14316 5f8d 66       		.uleb128 0x66
 14317 5f8e 955D0000 		.4byte	.LASF462
ARM GAS  /tmp/ccB5ynkg.s 			page 254


 14318 5f92 0C       		.byte	0xc
 14319 5f93 76       		.byte	0x76
 14320 5f94 A15F0000 		.4byte	0x5fa1
 14321 5f98 02       		.uleb128 0x2
 14322 5f99 91       		.byte	0x91
 14323 5f9a 68       		.sleb128 -24
 14324 5f9b 00       		.byte	0
 14325 5f9c 07       		.uleb128 0x7
 14326 5f9d 405F0000 		.4byte	0x5f40
 14327 5fa1 07       		.uleb128 0x7
 14328 5fa2 BF4D0000 		.4byte	0x4dbf
 14329 5fa6 6B       		.uleb128 0x6b
 14330 5fa7 78490000 		.4byte	0x4978
 14331 5fab 00000000 		.4byte	.LFB647
 14332 5faf 1C000000 		.4byte	.LFE647-.LFB647
 14333 5fb3 01       		.uleb128 0x1
 14334 5fb4 9C       		.byte	0x9c
 14335 5fb5 BD5F0000 		.4byte	0x5fbd
 14336 5fb9 D85F0000 		.4byte	0x5fd8
 14337 5fbd 64       		.uleb128 0x64
 14338 5fbe EA270000 		.4byte	.LASF830
 14339 5fc2 925C0000 		.4byte	0x5c92
 14340 5fc6 02       		.uleb128 0x2
 14341 5fc7 91       		.byte	0x91
 14342 5fc8 74       		.sleb128 -12
 14343 5fc9 66       		.uleb128 0x66
 14344 5fca 55120000 		.4byte	.LASF832
 14345 5fce 11       		.byte	0x11
 14346 5fcf 19       		.byte	0x19
 14347 5fd0 D85F0000 		.4byte	0x5fd8
 14348 5fd4 02       		.uleb128 0x2
 14349 5fd5 91       		.byte	0x91
 14350 5fd6 70       		.sleb128 -16
 14351 5fd7 00       		.byte	0
 14352 5fd8 07       		.uleb128 0x7
 14353 5fd9 D0510000 		.4byte	0x51d0
 14354 5fdd 6B       		.uleb128 0x6b
 14355 5fde 9B490000 		.4byte	0x499b
 14356 5fe2 00000000 		.4byte	.LFB648
 14357 5fe6 1E000000 		.4byte	.LFE648-.LFB648
 14358 5fea 01       		.uleb128 0x1
 14359 5feb 9C       		.byte	0x9c
 14360 5fec F45F0000 		.4byte	0x5ff4
 14361 5ff0 0F600000 		.4byte	0x600f
 14362 5ff4 64       		.uleb128 0x64
 14363 5ff5 EA270000 		.4byte	.LASF830
 14364 5ff9 925C0000 		.4byte	0x5c92
 14365 5ffd 02       		.uleb128 0x2
 14366 5ffe 91       		.byte	0x91
 14367 5fff 74       		.sleb128 -12
 14368 6000 5E       		.uleb128 0x5e
 14369 6001 6D736700 		.ascii	"msg\000"
 14370 6005 11       		.byte	0x11
 14371 6006 21       		.byte	0x21
 14372 6007 0F600000 		.4byte	0x600f
 14373 600b 02       		.uleb128 0x2
 14374 600c 91       		.byte	0x91
ARM GAS  /tmp/ccB5ynkg.s 			page 255


 14375 600d 70       		.sleb128 -16
 14376 600e 00       		.byte	0
 14377 600f 07       		.uleb128 0x7
 14378 6010 DC510000 		.4byte	0x51dc
 14379 6014 70       		.uleb128 0x70
 14380 6015 DE480000 		.4byte	0x48de
 14381 6019 02       		.byte	0x2
 14382 601a 22600000 		.4byte	0x6022
 14383 601e 4D600000 		.4byte	0x604d
 14384 6022 68       		.uleb128 0x68
 14385 6023 EA270000 		.4byte	.LASF830
 14386 6027 FF5E0000 		.4byte	0x5eff
 14387 602b 71       		.uleb128 0x71
 14388 602c 963B0000 		.4byte	.LASF778
 14389 6030 14       		.byte	0x14
 14390 6031 41       		.byte	0x41
 14391 6032 BE510000 		.4byte	0x51be
 14392 6036 71       		.uleb128 0x71
 14393 6037 B5190000 		.4byte	.LASF868
 14394 603b 14       		.byte	0x14
 14395 603c 41       		.byte	0x41
 14396 603d 25000000 		.4byte	0x25
 14397 6041 71       		.uleb128 0x71
 14398 6042 B4360000 		.4byte	.LASF866
 14399 6046 14       		.byte	0x14
 14400 6047 42       		.byte	0x42
 14401 6048 22480000 		.4byte	0x4822
 14402 604c 00       		.byte	0
 14403 604d 73       		.uleb128 0x73
 14404 604e 14600000 		.4byte	0x6014
 14405 6052 155B0000 		.4byte	.LASF869
 14406 6056 00000000 		.4byte	.LFB652
 14407 605a 30000000 		.4byte	.LFE652-.LFB652
 14408 605e 01       		.uleb128 0x1
 14409 605f 9C       		.byte	0x9c
 14410 6060 68600000 		.4byte	0x6068
 14411 6064 89600000 		.4byte	0x6089
 14412 6068 6A       		.uleb128 0x6a
 14413 6069 22600000 		.4byte	0x6022
 14414 606d 02       		.uleb128 0x2
 14415 606e 91       		.byte	0x91
 14416 606f 74       		.sleb128 -12
 14417 6070 6A       		.uleb128 0x6a
 14418 6071 2B600000 		.4byte	0x602b
 14419 6075 02       		.uleb128 0x2
 14420 6076 91       		.byte	0x91
 14421 6077 70       		.sleb128 -16
 14422 6078 6A       		.uleb128 0x6a
 14423 6079 36600000 		.4byte	0x6036
 14424 607d 02       		.uleb128 0x2
 14425 607e 91       		.byte	0x91
 14426 607f 6C       		.sleb128 -20
 14427 6080 6A       		.uleb128 0x6a
 14428 6081 41600000 		.4byte	0x6041
 14429 6085 02       		.uleb128 0x2
 14430 6086 91       		.byte	0x91
 14431 6087 68       		.sleb128 -24
ARM GAS  /tmp/ccB5ynkg.s 			page 256


 14432 6088 00       		.byte	0
 14433 6089 70       		.uleb128 0x70
 14434 608a 07490000 		.4byte	0x4907
 14435 608e 02       		.byte	0x2
 14436 608f 97600000 		.4byte	0x6097
 14437 6093 AA600000 		.4byte	0x60aa
 14438 6097 68       		.uleb128 0x68
 14439 6098 EA270000 		.4byte	.LASF830
 14440 609c FF5E0000 		.4byte	0x5eff
 14441 60a0 68       		.uleb128 0x68
 14442 60a1 22540000 		.4byte	.LASF870
 14443 60a5 AA600000 		.4byte	0x60aa
 14444 60a9 00       		.byte	0
 14445 60aa 07       		.uleb128 0x7
 14446 60ab 37000000 		.4byte	0x37
 14447 60af 73       		.uleb128 0x73
 14448 60b0 89600000 		.4byte	0x6089
 14449 60b4 B7070000 		.4byte	.LASF871
 14450 60b8 00000000 		.4byte	.LFB655
 14451 60bc 30000000 		.4byte	.LFE655-.LFB655
 14452 60c0 01       		.uleb128 0x1
 14453 60c1 9C       		.byte	0x9c
 14454 60c2 CA600000 		.4byte	0x60ca
 14455 60c6 D3600000 		.4byte	0x60d3
 14456 60ca 6A       		.uleb128 0x6a
 14457 60cb 97600000 		.4byte	0x6097
 14458 60cf 02       		.uleb128 0x2
 14459 60d0 91       		.byte	0x91
 14460 60d1 74       		.sleb128 -12
 14461 60d2 00       		.byte	0
 14462 60d3 73       		.uleb128 0x73
 14463 60d4 89600000 		.4byte	0x6089
 14464 60d8 473A0000 		.4byte	.LASF872
 14465 60dc 00000000 		.4byte	.LFB657
 14466 60e0 1C000000 		.4byte	.LFE657-.LFB657
 14467 60e4 01       		.uleb128 0x1
 14468 60e5 9C       		.byte	0x9c
 14469 60e6 EE600000 		.4byte	0x60ee
 14470 60ea F7600000 		.4byte	0x60f7
 14471 60ee 6A       		.uleb128 0x6a
 14472 60ef 97600000 		.4byte	0x6097
 14473 60f3 02       		.uleb128 0x2
 14474 60f4 91       		.byte	0x91
 14475 60f5 74       		.sleb128 -12
 14476 60f6 00       		.byte	0
 14477 60f7 76       		.uleb128 0x76
 14478 60f8 02400000 		.4byte	.LASF911
 14479 60fc 00000000 		.4byte	.LFB659
 14480 6100 C4000000 		.4byte	.LFE659-.LFB659
 14481 6104 01       		.uleb128 0x1
 14482 6105 9C       		.byte	0x9c
 14483 6106 29610000 		.4byte	0x6129
 14484 610a 77       		.uleb128 0x77
 14485 610b 83110000 		.4byte	.LASF873
 14486 610f 0F       		.byte	0xf
 14487 6110 1E01     		.2byte	0x11e
 14488 6112 37000000 		.4byte	0x37
ARM GAS  /tmp/ccB5ynkg.s 			page 257


 14489 6116 02       		.uleb128 0x2
 14490 6117 91       		.byte	0x91
 14491 6118 74       		.sleb128 -12
 14492 6119 77       		.uleb128 0x77
 14493 611a DF180000 		.4byte	.LASF874
 14494 611e 0F       		.byte	0xf
 14495 611f 1E01     		.2byte	0x11e
 14496 6121 37000000 		.4byte	0x37
 14497 6125 02       		.uleb128 0x2
 14498 6126 91       		.byte	0x91
 14499 6127 70       		.sleb128 -16
 14500 6128 00       		.byte	0
 14501 6129 70       		.uleb128 0x70
 14502 612a DA470000 		.4byte	0x47da
 14503 612e 02       		.byte	0x2
 14504 612f 37610000 		.4byte	0x6137
 14505 6133 4A610000 		.4byte	0x614a
 14506 6137 68       		.uleb128 0x68
 14507 6138 EA270000 		.4byte	.LASF830
 14508 613c 215D0000 		.4byte	0x5d21
 14509 6140 68       		.uleb128 0x68
 14510 6141 22540000 		.4byte	.LASF870
 14511 6145 4A610000 		.4byte	0x614a
 14512 6149 00       		.byte	0
 14513 614a 07       		.uleb128 0x7
 14514 614b 37000000 		.4byte	0x37
 14515 614f 73       		.uleb128 0x73
 14516 6150 29610000 		.4byte	0x6129
 14517 6154 84350000 		.4byte	.LASF875
 14518 6158 00000000 		.4byte	.LFB661
 14519 615c 30000000 		.4byte	.LFE661-.LFB661
 14520 6160 01       		.uleb128 0x1
 14521 6161 9C       		.byte	0x9c
 14522 6162 6A610000 		.4byte	0x616a
 14523 6166 73610000 		.4byte	0x6173
 14524 616a 6A       		.uleb128 0x6a
 14525 616b 37610000 		.4byte	0x6137
 14526 616f 02       		.uleb128 0x2
 14527 6170 91       		.byte	0x91
 14528 6171 74       		.sleb128 -12
 14529 6172 00       		.byte	0
 14530 6173 73       		.uleb128 0x73
 14531 6174 29610000 		.4byte	0x6129
 14532 6178 0B430000 		.4byte	.LASF876
 14533 617c 00000000 		.4byte	.LFB663
 14534 6180 1C000000 		.4byte	.LFE663-.LFB663
 14535 6184 01       		.uleb128 0x1
 14536 6185 9C       		.byte	0x9c
 14537 6186 8E610000 		.4byte	0x618e
 14538 618a 97610000 		.4byte	0x6197
 14539 618e 6A       		.uleb128 0x6a
 14540 618f 37610000 		.4byte	0x6137
 14541 6193 02       		.uleb128 0x2
 14542 6194 91       		.byte	0x91
 14543 6195 74       		.sleb128 -12
 14544 6196 00       		.byte	0
 14545 6197 70       		.uleb128 0x70
ARM GAS  /tmp/ccB5ynkg.s 			page 258


 14546 6198 FB490000 		.4byte	0x49fb
 14547 619c 02       		.byte	0x2
 14548 619d A5610000 		.4byte	0x61a5
 14549 61a1 B8610000 		.4byte	0x61b8
 14550 61a5 68       		.uleb128 0x68
 14551 61a6 EA270000 		.4byte	.LASF830
 14552 61aa 925C0000 		.4byte	0x5c92
 14553 61ae 68       		.uleb128 0x68
 14554 61af 22540000 		.4byte	.LASF870
 14555 61b3 B8610000 		.4byte	0x61b8
 14556 61b7 00       		.byte	0
 14557 61b8 07       		.uleb128 0x7
 14558 61b9 37000000 		.4byte	0x37
 14559 61bd 73       		.uleb128 0x73
 14560 61be 97610000 		.4byte	0x6197
 14561 61c2 275C0000 		.4byte	.LASF877
 14562 61c6 00000000 		.4byte	.LFB665
 14563 61ca 30000000 		.4byte	.LFE665-.LFB665
 14564 61ce 01       		.uleb128 0x1
 14565 61cf 9C       		.byte	0x9c
 14566 61d0 D8610000 		.4byte	0x61d8
 14567 61d4 E1610000 		.4byte	0x61e1
 14568 61d8 6A       		.uleb128 0x6a
 14569 61d9 A5610000 		.4byte	0x61a5
 14570 61dd 02       		.uleb128 0x2
 14571 61de 91       		.byte	0x91
 14572 61df 74       		.sleb128 -12
 14573 61e0 00       		.byte	0
 14574 61e1 73       		.uleb128 0x73
 14575 61e2 97610000 		.4byte	0x6197
 14576 61e6 89460000 		.4byte	.LASF878
 14577 61ea 00000000 		.4byte	.LFB667
 14578 61ee 1C000000 		.4byte	.LFE667-.LFB667
 14579 61f2 01       		.uleb128 0x1
 14580 61f3 9C       		.byte	0x9c
 14581 61f4 FC610000 		.4byte	0x61fc
 14582 61f8 05620000 		.4byte	0x6205
 14583 61fc 6A       		.uleb128 0x6a
 14584 61fd A5610000 		.4byte	0x61a5
 14585 6201 02       		.uleb128 0x2
 14586 6202 91       		.byte	0x91
 14587 6203 74       		.sleb128 -12
 14588 6204 00       		.byte	0
 14589 6205 70       		.uleb128 0x70
 14590 6206 DE4C0000 		.4byte	0x4cde
 14591 620a 02       		.byte	0x2
 14592 620b 13620000 		.4byte	0x6213
 14593 620f 26620000 		.4byte	0x6226
 14594 6213 68       		.uleb128 0x68
 14595 6214 EA270000 		.4byte	.LASF830
 14596 6218 515C0000 		.4byte	0x5c51
 14597 621c 68       		.uleb128 0x68
 14598 621d 22540000 		.4byte	.LASF870
 14599 6221 26620000 		.4byte	0x6226
 14600 6225 00       		.byte	0
 14601 6226 07       		.uleb128 0x7
 14602 6227 37000000 		.4byte	0x37
ARM GAS  /tmp/ccB5ynkg.s 			page 259


 14603 622b 73       		.uleb128 0x73
 14604 622c 05620000 		.4byte	0x6205
 14605 6230 8E360000 		.4byte	.LASF879
 14606 6234 00000000 		.4byte	.LFB669
 14607 6238 30000000 		.4byte	.LFE669-.LFB669
 14608 623c 01       		.uleb128 0x1
 14609 623d 9C       		.byte	0x9c
 14610 623e 46620000 		.4byte	0x6246
 14611 6242 4F620000 		.4byte	0x624f
 14612 6246 6A       		.uleb128 0x6a
 14613 6247 13620000 		.4byte	0x6213
 14614 624b 02       		.uleb128 0x2
 14615 624c 91       		.byte	0x91
 14616 624d 74       		.sleb128 -12
 14617 624e 00       		.byte	0
 14618 624f 73       		.uleb128 0x73
 14619 6250 05620000 		.4byte	0x6205
 14620 6254 2C510000 		.4byte	.LASF880
 14621 6258 00000000 		.4byte	.LFB671
 14622 625c 1C000000 		.4byte	.LFE671-.LFB671
 14623 6260 01       		.uleb128 0x1
 14624 6261 9C       		.byte	0x9c
 14625 6262 6A620000 		.4byte	0x626a
 14626 6266 73620000 		.4byte	0x6273
 14627 626a 6A       		.uleb128 0x6a
 14628 626b 13620000 		.4byte	0x6213
 14629 626f 02       		.uleb128 0x2
 14630 6270 91       		.byte	0x91
 14631 6271 74       		.sleb128 -12
 14632 6272 00       		.byte	0
 14633 6273 78       		.uleb128 0x78
 14634 6274 3F380000 		.4byte	.LASF912
 14635 6278 00000000 		.4byte	.LFB672
 14636 627c 0E000000 		.4byte	.LFE672-.LFB672
 14637 6280 01       		.uleb128 0x1
 14638 6281 9C       		.byte	0x9c
 14639 6282 79       		.uleb128 0x79
 14640 6283 E1100000 		.4byte	.LASF881
 14641 6287 1C       		.byte	0x1c
 14642 6288 6F       		.byte	0x6f
 14643 6289 1C050000 		.4byte	0x51c
 14644 628d 7A       		.uleb128 0x7a
 14645 628e 434E0000 		.4byte	.LASF882
 14646 6292 32       		.byte	0x32
 14647 6293 9806     		.2byte	0x698
 14648 6295 13080000 		.4byte	0x813
 14649 6299 79       		.uleb128 0x79
 14650 629a 2A180000 		.4byte	.LASF883
 14651 629e 33       		.byte	0x33
 14652 629f 14       		.byte	0x14
 14653 62a0 BC0E0000 		.4byte	0xebc
 14654 62a4 79       		.uleb128 0x79
 14655 62a5 97150000 		.4byte	.LASF884
 14656 62a9 33       		.byte	0x33
 14657 62aa 15       		.byte	0x15
 14658 62ab 520E0000 		.4byte	0xe52
 14659 62af 79       		.uleb128 0x79
ARM GAS  /tmp/ccB5ynkg.s 			page 260


 14660 62b0 281C0000 		.4byte	.LASF885
 14661 62b4 33       		.byte	0x33
 14662 62b5 16       		.byte	0x16
 14663 62b6 720F0000 		.4byte	0xf72
 14664 62ba 7B       		.uleb128 0x7b
 14665 62bb CA170000 		.4byte	.LASF886
 14666 62bf 0F       		.byte	0xf
 14667 62c0 0D       		.byte	0xd
 14668 62c1 DE410000 		.4byte	0x41de
 14669 62c5 05       		.uleb128 0x5
 14670 62c6 03       		.byte	0x3
 14671 62c7 00000000 		.4byte	vel_node
 14672 62cb 7B       		.uleb128 0x7b
 14673 62cc CC130000 		.4byte	.LASF887
 14674 62d0 0F       		.byte	0xf
 14675 62d1 0E       		.byte	0xe
 14676 62d2 274C0000 		.4byte	0x4c27
 14677 62d6 05       		.uleb128 0x5
 14678 62d7 03       		.byte	0x3
 14679 62d8 00000000 		.4byte	vel_pub
 14680 62dc 7B       		.uleb128 0x7b
 14681 62dd 0B190000 		.4byte	.LASF888
 14682 62e1 0F       		.byte	0xf
 14683 62e2 0F       		.byte	0xf
 14684 62e3 2D010000 		.4byte	0x12d
 14685 62e7 05       		.uleb128 0x5
 14686 62e8 03       		.byte	0x3
 14687 62e9 00000000 		.4byte	speed_first_time
 14688 62ed 7B       		.uleb128 0x7b
 14689 62ee 49290000 		.4byte	.LASF889
 14690 62f2 0F       		.byte	0xf
 14691 62f3 11       		.byte	0x11
 14692 62f4 DE410000 		.4byte	0x41de
 14693 62f8 05       		.uleb128 0x5
 14694 62f9 03       		.byte	0x3
 14695 62fa 00000000 		.4byte	pidcfg_node
 14696 62fe 7B       		.uleb128 0x7b
 14697 62ff F3130000 		.4byte	.LASF890
 14698 6303 0F       		.byte	0xf
 14699 6304 12       		.byte	0x12
 14700 6305 44490000 		.4byte	0x4944
 14701 6309 05       		.uleb128 0x5
 14702 630a 03       		.byte	0x3
 14703 630b 00000000 		.4byte	pidcfg_pub
 14704 630f 7B       		.uleb128 0x7b
 14705 6310 9A270000 		.4byte	.LASF891
 14706 6314 0F       		.byte	0xf
 14707 6315 13       		.byte	0x13
 14708 6316 2D010000 		.4byte	0x12d
 14709 631a 05       		.uleb128 0x5
 14710 631b 03       		.byte	0x3
 14711 631c 00000000 		.4byte	pidcfg_first_time
 14712 6320 7B       		.uleb128 0x7b
 14713 6321 6C0E0000 		.4byte	.LASF892
 14714 6325 0F       		.byte	0xf
 14715 6326 15       		.byte	0x15
 14716 6327 DE410000 		.4byte	0x41de
ARM GAS  /tmp/ccB5ynkg.s 			page 261


 14717 632b 05       		.uleb128 0x5
 14718 632c 03       		.byte	0x3
 14719 632d 00000000 		.4byte	pixy_node
 14720 6331 7B       		.uleb128 0x7b
 14721 6332 33400000 		.4byte	.LASF893
 14722 6336 0F       		.byte	0xf
 14723 6337 16       		.byte	0x16
 14724 6338 63470000 		.4byte	0x4763
 14725 633c 05       		.uleb128 0x5
 14726 633d 03       		.byte	0x3
 14727 633e 00000000 		.4byte	pixy_sub
 14728 6342 7B       		.uleb128 0x7b
 14729 6343 67030000 		.4byte	.LASF894
 14730 6347 0F       		.byte	0xf
 14731 6348 17       		.byte	0x17
 14732 6349 2D010000 		.4byte	0x12d
 14733 634d 05       		.uleb128 0x5
 14734 634e 03       		.byte	0x3
 14735 634f 00000000 		.4byte	pixy_first_time
 14736 6353 7B       		.uleb128 0x7b
 14737 6354 3D3F0000 		.4byte	.LASF895
 14738 6358 0F       		.byte	0xf
 14739 6359 19       		.byte	0x19
 14740 635a 53100000 		.4byte	0x1053
 14741 635e 05       		.uleb128 0x5
 14742 635f 03       		.byte	0x3
 14743 6360 00000000 		.4byte	serialp
 14744 6364 7B       		.uleb128 0x7b
 14745 6365 A21A0000 		.4byte	.LASF896
 14746 6369 0F       		.byte	0xf
 14747 636a 1A       		.byte	0x1a
 14748 636b 2D010000 		.4byte	0x12d
 14749 636f 05       		.uleb128 0x5
 14750 6370 03       		.byte	0x3
 14751 6371 00000000 		.4byte	stream_enc
 14752 6375 17       		.uleb128 0x17
 14753 6376 84100000 		.4byte	0x1084
 14754 637a 85630000 		.4byte	0x6385
 14755 637e 18       		.uleb128 0x18
 14756 637f B8000000 		.4byte	0xb8
 14757 6383 05       		.byte	0x5
 14758 6384 00       		.byte	0
 14759 6385 6C       		.uleb128 0x6c
 14760 6386 72080000 		.4byte	.LASF897
 14761 638a 0F       		.byte	0xf
 14762 638b F4       		.byte	0xf4
 14763 638c 96630000 		.4byte	0x6396
 14764 6390 05       		.uleb128 0x5
 14765 6391 03       		.byte	0x3
 14766 6392 00000000 		.4byte	_ZL8commands
 14767 6396 07       		.uleb128 0x7
 14768 6397 75630000 		.4byte	0x6375
 14769 639b 6C       		.uleb128 0x6c
 14770 639c CB450000 		.4byte	.LASF898
 14771 63a0 0F       		.byte	0xf
 14772 63a1 F6       		.byte	0xf6
 14773 63a2 AC630000 		.4byte	0x63ac
ARM GAS  /tmp/ccB5ynkg.s 			page 262


 14774 63a6 05       		.uleb128 0x5
 14775 63a7 03       		.byte	0x3
 14776 63a8 00000000 		.4byte	_ZL13usb_shell_cfg
 14777 63ac 07       		.uleb128 0x7
 14778 63ad BF100000 		.4byte	0x10bf
 14779 63b1 7C       		.uleb128 0x7c
 14780 63b2 C6220000 		.4byte	.LASF899
 14781 63b6 BF000000 		.4byte	0xbf
 14782 63ba 00       		.byte	0
 14783              		.section	.debug_abbrev,"",%progbits
 14784              	.Ldebug_abbrev0:
 14785 0000 01       		.uleb128 0x1
 14786 0001 11       		.uleb128 0x11
 14787 0002 01       		.byte	0x1
 14788 0003 25       		.uleb128 0x25
 14789 0004 0E       		.uleb128 0xe
 14790 0005 13       		.uleb128 0x13
 14791 0006 0B       		.uleb128 0xb
 14792 0007 03       		.uleb128 0x3
 14793 0008 0E       		.uleb128 0xe
 14794 0009 1B       		.uleb128 0x1b
 14795 000a 0E       		.uleb128 0xe
 14796 000b 55       		.uleb128 0x55
 14797 000c 17       		.uleb128 0x17
 14798 000d 11       		.uleb128 0x11
 14799 000e 01       		.uleb128 0x1
 14800 000f 10       		.uleb128 0x10
 14801 0010 17       		.uleb128 0x17
 14802 0011 00       		.byte	0
 14803 0012 00       		.byte	0
 14804 0013 02       		.uleb128 0x2
 14805 0014 16       		.uleb128 0x16
 14806 0015 00       		.byte	0
 14807 0016 03       		.uleb128 0x3
 14808 0017 0E       		.uleb128 0xe
 14809 0018 3A       		.uleb128 0x3a
 14810 0019 0B       		.uleb128 0xb
 14811 001a 3B       		.uleb128 0x3b
 14812 001b 0B       		.uleb128 0xb
 14813 001c 49       		.uleb128 0x49
 14814 001d 13       		.uleb128 0x13
 14815 001e 00       		.byte	0
 14816 001f 00       		.byte	0
 14817 0020 03       		.uleb128 0x3
 14818 0021 24       		.uleb128 0x24
 14819 0022 00       		.byte	0
 14820 0023 0B       		.uleb128 0xb
 14821 0024 0B       		.uleb128 0xb
 14822 0025 3E       		.uleb128 0x3e
 14823 0026 0B       		.uleb128 0xb
 14824 0027 03       		.uleb128 0x3
 14825 0028 0E       		.uleb128 0xe
 14826 0029 00       		.byte	0
 14827 002a 00       		.byte	0
 14828 002b 04       		.uleb128 0x4
 14829 002c 24       		.uleb128 0x24
 14830 002d 00       		.byte	0
ARM GAS  /tmp/ccB5ynkg.s 			page 263


 14831 002e 0B       		.uleb128 0xb
 14832 002f 0B       		.uleb128 0xb
 14833 0030 3E       		.uleb128 0x3e
 14834 0031 0B       		.uleb128 0xb
 14835 0032 03       		.uleb128 0x3
 14836 0033 08       		.uleb128 0x8
 14837 0034 00       		.byte	0
 14838 0035 00       		.byte	0
 14839 0036 05       		.uleb128 0x5
 14840 0037 0F       		.uleb128 0xf
 14841 0038 00       		.byte	0
 14842 0039 0B       		.uleb128 0xb
 14843 003a 0B       		.uleb128 0xb
 14844 003b 00       		.byte	0
 14845 003c 00       		.byte	0
 14846 003d 06       		.uleb128 0x6
 14847 003e 0F       		.uleb128 0xf
 14848 003f 00       		.byte	0
 14849 0040 0B       		.uleb128 0xb
 14850 0041 0B       		.uleb128 0xb
 14851 0042 49       		.uleb128 0x49
 14852 0043 13       		.uleb128 0x13
 14853 0044 00       		.byte	0
 14854 0045 00       		.byte	0
 14855 0046 07       		.uleb128 0x7
 14856 0047 26       		.uleb128 0x26
 14857 0048 00       		.byte	0
 14858 0049 49       		.uleb128 0x49
 14859 004a 13       		.uleb128 0x13
 14860 004b 00       		.byte	0
 14861 004c 00       		.byte	0
 14862 004d 08       		.uleb128 0x8
 14863 004e 26       		.uleb128 0x26
 14864 004f 00       		.byte	0
 14865 0050 00       		.byte	0
 14866 0051 00       		.byte	0
 14867 0052 09       		.uleb128 0x9
 14868 0053 13       		.uleb128 0x13
 14869 0054 01       		.byte	0x1
 14870 0055 03       		.uleb128 0x3
 14871 0056 0E       		.uleb128 0xe
 14872 0057 0B       		.uleb128 0xb
 14873 0058 0B       		.uleb128 0xb
 14874 0059 3A       		.uleb128 0x3a
 14875 005a 0B       		.uleb128 0xb
 14876 005b 3B       		.uleb128 0x3b
 14877 005c 0B       		.uleb128 0xb
 14878 005d 01       		.uleb128 0x1
 14879 005e 13       		.uleb128 0x13
 14880 005f 00       		.byte	0
 14881 0060 00       		.byte	0
 14882 0061 0A       		.uleb128 0xa
 14883 0062 17       		.uleb128 0x17
 14884 0063 01       		.byte	0x1
 14885 0064 0B       		.uleb128 0xb
 14886 0065 0B       		.uleb128 0xb
 14887 0066 3A       		.uleb128 0x3a
ARM GAS  /tmp/ccB5ynkg.s 			page 264


 14888 0067 0B       		.uleb128 0xb
 14889 0068 3B       		.uleb128 0x3b
 14890 0069 0B       		.uleb128 0xb
 14891 006a 01       		.uleb128 0x1
 14892 006b 13       		.uleb128 0x13
 14893 006c 00       		.byte	0
 14894 006d 00       		.byte	0
 14895 006e 0B       		.uleb128 0xb
 14896 006f 0D       		.uleb128 0xd
 14897 0070 00       		.byte	0
 14898 0071 03       		.uleb128 0x3
 14899 0072 0E       		.uleb128 0xe
 14900 0073 3A       		.uleb128 0x3a
 14901 0074 0B       		.uleb128 0xb
 14902 0075 3B       		.uleb128 0x3b
 14903 0076 0B       		.uleb128 0xb
 14904 0077 49       		.uleb128 0x49
 14905 0078 13       		.uleb128 0x13
 14906 0079 00       		.byte	0
 14907 007a 00       		.byte	0
 14908 007b 0C       		.uleb128 0xc
 14909 007c 0D       		.uleb128 0xd
 14910 007d 00       		.byte	0
 14911 007e 03       		.uleb128 0x3
 14912 007f 0E       		.uleb128 0xe
 14913 0080 3A       		.uleb128 0x3a
 14914 0081 0B       		.uleb128 0xb
 14915 0082 3B       		.uleb128 0x3b
 14916 0083 0B       		.uleb128 0xb
 14917 0084 49       		.uleb128 0x49
 14918 0085 13       		.uleb128 0x13
 14919 0086 38       		.uleb128 0x38
 14920 0087 0B       		.uleb128 0xb
 14921 0088 00       		.byte	0
 14922 0089 00       		.byte	0
 14923 008a 0D       		.uleb128 0xd
 14924 008b 0D       		.uleb128 0xd
 14925 008c 00       		.byte	0
 14926 008d 03       		.uleb128 0x3
 14927 008e 08       		.uleb128 0x8
 14928 008f 3A       		.uleb128 0x3a
 14929 0090 0B       		.uleb128 0xb
 14930 0091 3B       		.uleb128 0x3b
 14931 0092 0B       		.uleb128 0xb
 14932 0093 49       		.uleb128 0x49
 14933 0094 13       		.uleb128 0x13
 14934 0095 38       		.uleb128 0x38
 14935 0096 0B       		.uleb128 0xb
 14936 0097 00       		.byte	0
 14937 0098 00       		.byte	0
 14938 0099 0E       		.uleb128 0xe
 14939 009a 13       		.uleb128 0x13
 14940 009b 01       		.byte	0x1
 14941 009c 0B       		.uleb128 0xb
 14942 009d 0B       		.uleb128 0xb
 14943 009e 3A       		.uleb128 0x3a
 14944 009f 0B       		.uleb128 0xb
ARM GAS  /tmp/ccB5ynkg.s 			page 265


 14945 00a0 3B       		.uleb128 0x3b
 14946 00a1 0B       		.uleb128 0xb
 14947 00a2 6E       		.uleb128 0x6e
 14948 00a3 0E       		.uleb128 0xe
 14949 00a4 01       		.uleb128 0x1
 14950 00a5 13       		.uleb128 0x13
 14951 00a6 00       		.byte	0
 14952 00a7 00       		.byte	0
 14953 00a8 0F       		.uleb128 0xf
 14954 00a9 13       		.uleb128 0x13
 14955 00aa 01       		.byte	0x1
 14956 00ab 03       		.uleb128 0x3
 14957 00ac 0E       		.uleb128 0xe
 14958 00ad 0B       		.uleb128 0xb
 14959 00ae 0B       		.uleb128 0xb
 14960 00af 3A       		.uleb128 0x3a
 14961 00b0 0B       		.uleb128 0xb
 14962 00b1 3B       		.uleb128 0x3b
 14963 00b2 05       		.uleb128 0x5
 14964 00b3 01       		.uleb128 0x1
 14965 00b4 13       		.uleb128 0x13
 14966 00b5 00       		.byte	0
 14967 00b6 00       		.byte	0
 14968 00b7 10       		.uleb128 0x10
 14969 00b8 0D       		.uleb128 0xd
 14970 00b9 00       		.byte	0
 14971 00ba 03       		.uleb128 0x3
 14972 00bb 08       		.uleb128 0x8
 14973 00bc 3A       		.uleb128 0x3a
 14974 00bd 0B       		.uleb128 0xb
 14975 00be 3B       		.uleb128 0x3b
 14976 00bf 05       		.uleb128 0x5
 14977 00c0 49       		.uleb128 0x49
 14978 00c1 13       		.uleb128 0x13
 14979 00c2 38       		.uleb128 0x38
 14980 00c3 0B       		.uleb128 0xb
 14981 00c4 00       		.byte	0
 14982 00c5 00       		.byte	0
 14983 00c6 11       		.uleb128 0x11
 14984 00c7 35       		.uleb128 0x35
 14985 00c8 00       		.byte	0
 14986 00c9 49       		.uleb128 0x49
 14987 00ca 13       		.uleb128 0x13
 14988 00cb 00       		.byte	0
 14989 00cc 00       		.byte	0
 14990 00cd 12       		.uleb128 0x12
 14991 00ce 15       		.uleb128 0x15
 14992 00cf 01       		.byte	0x1
 14993 00d0 49       		.uleb128 0x49
 14994 00d1 13       		.uleb128 0x13
 14995 00d2 01       		.uleb128 0x1
 14996 00d3 13       		.uleb128 0x13
 14997 00d4 00       		.byte	0
 14998 00d5 00       		.byte	0
 14999 00d6 13       		.uleb128 0x13
 15000 00d7 05       		.uleb128 0x5
 15001 00d8 00       		.byte	0
ARM GAS  /tmp/ccB5ynkg.s 			page 266


 15002 00d9 49       		.uleb128 0x49
 15003 00da 13       		.uleb128 0x13
 15004 00db 00       		.byte	0
 15005 00dc 00       		.byte	0
 15006 00dd 14       		.uleb128 0x14
 15007 00de 15       		.uleb128 0x15
 15008 00df 01       		.byte	0x1
 15009 00e0 01       		.uleb128 0x1
 15010 00e1 13       		.uleb128 0x13
 15011 00e2 00       		.byte	0
 15012 00e3 00       		.byte	0
 15013 00e4 15       		.uleb128 0x15
 15014 00e5 13       		.uleb128 0x13
 15015 00e6 01       		.byte	0x1
 15016 00e7 0B       		.uleb128 0xb
 15017 00e8 0B       		.uleb128 0xb
 15018 00e9 3A       		.uleb128 0x3a
 15019 00ea 0B       		.uleb128 0xb
 15020 00eb 3B       		.uleb128 0x3b
 15021 00ec 0B       		.uleb128 0xb
 15022 00ed 01       		.uleb128 0x1
 15023 00ee 13       		.uleb128 0x13
 15024 00ef 00       		.byte	0
 15025 00f0 00       		.byte	0
 15026 00f1 16       		.uleb128 0x16
 15027 00f2 0D       		.uleb128 0xd
 15028 00f3 00       		.byte	0
 15029 00f4 03       		.uleb128 0x3
 15030 00f5 08       		.uleb128 0x8
 15031 00f6 3A       		.uleb128 0x3a
 15032 00f7 0B       		.uleb128 0xb
 15033 00f8 3B       		.uleb128 0x3b
 15034 00f9 0B       		.uleb128 0xb
 15035 00fa 49       		.uleb128 0x49
 15036 00fb 13       		.uleb128 0x13
 15037 00fc 00       		.byte	0
 15038 00fd 00       		.byte	0
 15039 00fe 17       		.uleb128 0x17
 15040 00ff 01       		.uleb128 0x1
 15041 0100 01       		.byte	0x1
 15042 0101 49       		.uleb128 0x49
 15043 0102 13       		.uleb128 0x13
 15044 0103 01       		.uleb128 0x1
 15045 0104 13       		.uleb128 0x13
 15046 0105 00       		.byte	0
 15047 0106 00       		.byte	0
 15048 0107 18       		.uleb128 0x18
 15049 0108 21       		.uleb128 0x21
 15050 0109 00       		.byte	0
 15051 010a 49       		.uleb128 0x49
 15052 010b 13       		.uleb128 0x13
 15053 010c 2F       		.uleb128 0x2f
 15054 010d 0B       		.uleb128 0xb
 15055 010e 00       		.byte	0
 15056 010f 00       		.byte	0
 15057 0110 19       		.uleb128 0x19
 15058 0111 0D       		.uleb128 0xd
ARM GAS  /tmp/ccB5ynkg.s 			page 267


 15059 0112 00       		.byte	0
 15060 0113 03       		.uleb128 0x3
 15061 0114 0E       		.uleb128 0xe
 15062 0115 3A       		.uleb128 0x3a
 15063 0116 0B       		.uleb128 0xb
 15064 0117 3B       		.uleb128 0x3b
 15065 0118 05       		.uleb128 0x5
 15066 0119 49       		.uleb128 0x49
 15067 011a 13       		.uleb128 0x13
 15068 011b 38       		.uleb128 0x38
 15069 011c 0B       		.uleb128 0xb
 15070 011d 00       		.byte	0
 15071 011e 00       		.byte	0
 15072 011f 1A       		.uleb128 0x1a
 15073 0120 04       		.uleb128 0x4
 15074 0121 01       		.byte	0x1
 15075 0122 0B       		.uleb128 0xb
 15076 0123 0B       		.uleb128 0xb
 15077 0124 3A       		.uleb128 0x3a
 15078 0125 0B       		.uleb128 0xb
 15079 0126 3B       		.uleb128 0x3b
 15080 0127 0B       		.uleb128 0xb
 15081 0128 6E       		.uleb128 0x6e
 15082 0129 0E       		.uleb128 0xe
 15083 012a 01       		.uleb128 0x1
 15084 012b 13       		.uleb128 0x13
 15085 012c 00       		.byte	0
 15086 012d 00       		.byte	0
 15087 012e 1B       		.uleb128 0x1b
 15088 012f 28       		.uleb128 0x28
 15089 0130 00       		.byte	0
 15090 0131 03       		.uleb128 0x3
 15091 0132 0E       		.uleb128 0xe
 15092 0133 1C       		.uleb128 0x1c
 15093 0134 0D       		.uleb128 0xd
 15094 0135 00       		.byte	0
 15095 0136 00       		.byte	0
 15096 0137 1C       		.uleb128 0x1c
 15097 0138 04       		.uleb128 0x4
 15098 0139 01       		.byte	0x1
 15099 013a 0B       		.uleb128 0xb
 15100 013b 0B       		.uleb128 0xb
 15101 013c 3A       		.uleb128 0x3a
 15102 013d 0B       		.uleb128 0xb
 15103 013e 3B       		.uleb128 0x3b
 15104 013f 05       		.uleb128 0x5
 15105 0140 6E       		.uleb128 0x6e
 15106 0141 0E       		.uleb128 0xe
 15107 0142 01       		.uleb128 0x1
 15108 0143 13       		.uleb128 0x13
 15109 0144 00       		.byte	0
 15110 0145 00       		.byte	0
 15111 0146 1D       		.uleb128 0x1d
 15112 0147 16       		.uleb128 0x16
 15113 0148 00       		.byte	0
 15114 0149 03       		.uleb128 0x3
 15115 014a 0E       		.uleb128 0xe
ARM GAS  /tmp/ccB5ynkg.s 			page 268


 15116 014b 3A       		.uleb128 0x3a
 15117 014c 0B       		.uleb128 0xb
 15118 014d 3B       		.uleb128 0x3b
 15119 014e 05       		.uleb128 0x5
 15120 014f 49       		.uleb128 0x49
 15121 0150 13       		.uleb128 0x13
 15122 0151 00       		.byte	0
 15123 0152 00       		.byte	0
 15124 0153 1E       		.uleb128 0x1e
 15125 0154 13       		.uleb128 0x13
 15126 0155 01       		.byte	0x1
 15127 0156 0B       		.uleb128 0xb
 15128 0157 0B       		.uleb128 0xb
 15129 0158 3A       		.uleb128 0x3a
 15130 0159 0B       		.uleb128 0xb
 15131 015a 3B       		.uleb128 0x3b
 15132 015b 05       		.uleb128 0x5
 15133 015c 6E       		.uleb128 0x6e
 15134 015d 0E       		.uleb128 0xe
 15135 015e 01       		.uleb128 0x1
 15136 015f 13       		.uleb128 0x13
 15137 0160 00       		.byte	0
 15138 0161 00       		.byte	0
 15139 0162 1F       		.uleb128 0x1f
 15140 0163 13       		.uleb128 0x13
 15141 0164 01       		.byte	0x1
 15142 0165 03       		.uleb128 0x3
 15143 0166 0E       		.uleb128 0xe
 15144 0167 0B       		.uleb128 0xb
 15145 0168 05       		.uleb128 0x5
 15146 0169 3A       		.uleb128 0x3a
 15147 016a 0B       		.uleb128 0xb
 15148 016b 3B       		.uleb128 0x3b
 15149 016c 0B       		.uleb128 0xb
 15150 016d 01       		.uleb128 0x1
 15151 016e 13       		.uleb128 0x13
 15152 016f 00       		.byte	0
 15153 0170 00       		.byte	0
 15154 0171 20       		.uleb128 0x20
 15155 0172 0D       		.uleb128 0xd
 15156 0173 00       		.byte	0
 15157 0174 03       		.uleb128 0x3
 15158 0175 08       		.uleb128 0x8
 15159 0176 3A       		.uleb128 0x3a
 15160 0177 0B       		.uleb128 0xb
 15161 0178 3B       		.uleb128 0x3b
 15162 0179 0B       		.uleb128 0xb
 15163 017a 49       		.uleb128 0x49
 15164 017b 13       		.uleb128 0x13
 15165 017c 38       		.uleb128 0x38
 15166 017d 05       		.uleb128 0x5
 15167 017e 00       		.byte	0
 15168 017f 00       		.byte	0
 15169 0180 21       		.uleb128 0x21
 15170 0181 0D       		.uleb128 0xd
 15171 0182 00       		.byte	0
 15172 0183 03       		.uleb128 0x3
ARM GAS  /tmp/ccB5ynkg.s 			page 269


 15173 0184 0E       		.uleb128 0xe
 15174 0185 3A       		.uleb128 0x3a
 15175 0186 0B       		.uleb128 0xb
 15176 0187 3B       		.uleb128 0x3b
 15177 0188 0B       		.uleb128 0xb
 15178 0189 49       		.uleb128 0x49
 15179 018a 13       		.uleb128 0x13
 15180 018b 38       		.uleb128 0x38
 15181 018c 05       		.uleb128 0x5
 15182 018d 00       		.byte	0
 15183 018e 00       		.byte	0
 15184 018f 22       		.uleb128 0x22
 15185 0190 0D       		.uleb128 0xd
 15186 0191 00       		.byte	0
 15187 0192 03       		.uleb128 0x3
 15188 0193 0E       		.uleb128 0xe
 15189 0194 49       		.uleb128 0x49
 15190 0195 13       		.uleb128 0x13
 15191 0196 38       		.uleb128 0x38
 15192 0197 0B       		.uleb128 0xb
 15193 0198 34       		.uleb128 0x34
 15194 0199 19       		.uleb128 0x19
 15195 019a 00       		.byte	0
 15196 019b 00       		.byte	0
 15197 019c 23       		.uleb128 0x23
 15198 019d 39       		.uleb128 0x39
 15199 019e 01       		.byte	0x1
 15200 019f 03       		.uleb128 0x3
 15201 01a0 08       		.uleb128 0x8
 15202 01a1 3A       		.uleb128 0x3a
 15203 01a2 0B       		.uleb128 0xb
 15204 01a3 3B       		.uleb128 0x3b
 15205 01a4 0B       		.uleb128 0xb
 15206 01a5 01       		.uleb128 0x1
 15207 01a6 13       		.uleb128 0x13
 15208 01a7 00       		.byte	0
 15209 01a8 00       		.byte	0
 15210 01a9 24       		.uleb128 0x24
 15211 01aa 08       		.uleb128 0x8
 15212 01ab 00       		.byte	0
 15213 01ac 3A       		.uleb128 0x3a
 15214 01ad 0B       		.uleb128 0xb
 15215 01ae 3B       		.uleb128 0x3b
 15216 01af 0B       		.uleb128 0xb
 15217 01b0 18       		.uleb128 0x18
 15218 01b1 13       		.uleb128 0x13
 15219 01b2 00       		.byte	0
 15220 01b3 00       		.byte	0
 15221 01b4 25       		.uleb128 0x25
 15222 01b5 2E       		.uleb128 0x2e
 15223 01b6 01       		.byte	0x1
 15224 01b7 3F       		.uleb128 0x3f
 15225 01b8 19       		.uleb128 0x19
 15226 01b9 03       		.uleb128 0x3
 15227 01ba 0E       		.uleb128 0xe
 15228 01bb 3A       		.uleb128 0x3a
 15229 01bc 0B       		.uleb128 0xb
ARM GAS  /tmp/ccB5ynkg.s 			page 270


 15230 01bd 3B       		.uleb128 0x3b
 15231 01be 0B       		.uleb128 0xb
 15232 01bf 49       		.uleb128 0x49
 15233 01c0 13       		.uleb128 0x13
 15234 01c1 3C       		.uleb128 0x3c
 15235 01c2 19       		.uleb128 0x19
 15236 01c3 01       		.uleb128 0x1
 15237 01c4 13       		.uleb128 0x13
 15238 01c5 00       		.byte	0
 15239 01c6 00       		.byte	0
 15240 01c7 26       		.uleb128 0x26
 15241 01c8 02       		.uleb128 0x2
 15242 01c9 01       		.byte	0x1
 15243 01ca 03       		.uleb128 0x3
 15244 01cb 0E       		.uleb128 0xe
 15245 01cc 0B       		.uleb128 0xb
 15246 01cd 0B       		.uleb128 0xb
 15247 01ce 3A       		.uleb128 0x3a
 15248 01cf 0B       		.uleb128 0xb
 15249 01d0 3B       		.uleb128 0x3b
 15250 01d1 0B       		.uleb128 0xb
 15251 01d2 01       		.uleb128 0x1
 15252 01d3 13       		.uleb128 0x13
 15253 01d4 00       		.byte	0
 15254 01d5 00       		.byte	0
 15255 01d6 27       		.uleb128 0x27
 15256 01d7 2E       		.uleb128 0x2e
 15257 01d8 01       		.byte	0x1
 15258 01d9 3F       		.uleb128 0x3f
 15259 01da 19       		.uleb128 0x19
 15260 01db 03       		.uleb128 0x3
 15261 01dc 0E       		.uleb128 0xe
 15262 01dd 3A       		.uleb128 0x3a
 15263 01de 0B       		.uleb128 0xb
 15264 01df 3B       		.uleb128 0x3b
 15265 01e0 0B       		.uleb128 0xb
 15266 01e1 49       		.uleb128 0x49
 15267 01e2 13       		.uleb128 0x13
 15268 01e3 3C       		.uleb128 0x3c
 15269 01e4 19       		.uleb128 0x19
 15270 01e5 64       		.uleb128 0x64
 15271 01e6 13       		.uleb128 0x13
 15272 01e7 01       		.uleb128 0x1
 15273 01e8 13       		.uleb128 0x13
 15274 01e9 00       		.byte	0
 15275 01ea 00       		.byte	0
 15276 01eb 28       		.uleb128 0x28
 15277 01ec 05       		.uleb128 0x5
 15278 01ed 00       		.byte	0
 15279 01ee 49       		.uleb128 0x49
 15280 01ef 13       		.uleb128 0x13
 15281 01f0 34       		.uleb128 0x34
 15282 01f1 19       		.uleb128 0x19
 15283 01f2 00       		.byte	0
 15284 01f3 00       		.byte	0
 15285 01f4 29       		.uleb128 0x29
 15286 01f5 2E       		.uleb128 0x2e
ARM GAS  /tmp/ccB5ynkg.s 			page 271


 15287 01f6 01       		.byte	0x1
 15288 01f7 3F       		.uleb128 0x3f
 15289 01f8 19       		.uleb128 0x19
 15290 01f9 03       		.uleb128 0x3
 15291 01fa 0E       		.uleb128 0xe
 15292 01fb 3A       		.uleb128 0x3a
 15293 01fc 0B       		.uleb128 0xb
 15294 01fd 3B       		.uleb128 0x3b
 15295 01fe 0B       		.uleb128 0xb
 15296 01ff 49       		.uleb128 0x49
 15297 0200 13       		.uleb128 0x13
 15298 0201 32       		.uleb128 0x32
 15299 0202 0B       		.uleb128 0xb
 15300 0203 3C       		.uleb128 0x3c
 15301 0204 19       		.uleb128 0x19
 15302 0205 64       		.uleb128 0x64
 15303 0206 13       		.uleb128 0x13
 15304 0207 01       		.uleb128 0x1
 15305 0208 13       		.uleb128 0x13
 15306 0209 00       		.byte	0
 15307 020a 00       		.byte	0
 15308 020b 2A       		.uleb128 0x2a
 15309 020c 2E       		.uleb128 0x2e
 15310 020d 01       		.byte	0x1
 15311 020e 3F       		.uleb128 0x3f
 15312 020f 19       		.uleb128 0x19
 15313 0210 03       		.uleb128 0x3
 15314 0211 0E       		.uleb128 0xe
 15315 0212 3A       		.uleb128 0x3a
 15316 0213 0B       		.uleb128 0xb
 15317 0214 3B       		.uleb128 0x3b
 15318 0215 0B       		.uleb128 0xb
 15319 0216 49       		.uleb128 0x49
 15320 0217 13       		.uleb128 0x13
 15321 0218 32       		.uleb128 0x32
 15322 0219 0B       		.uleb128 0xb
 15323 021a 3C       		.uleb128 0x3c
 15324 021b 19       		.uleb128 0x19
 15325 021c 64       		.uleb128 0x64
 15326 021d 13       		.uleb128 0x13
 15327 021e 00       		.byte	0
 15328 021f 00       		.byte	0
 15329 0220 2B       		.uleb128 0x2b
 15330 0221 1C       		.uleb128 0x1c
 15331 0222 00       		.byte	0
 15332 0223 49       		.uleb128 0x49
 15333 0224 13       		.uleb128 0x13
 15334 0225 38       		.uleb128 0x38
 15335 0226 0B       		.uleb128 0xb
 15336 0227 00       		.byte	0
 15337 0228 00       		.byte	0
 15338 0229 2C       		.uleb128 0x2c
 15339 022a 2E       		.uleb128 0x2e
 15340 022b 00       		.byte	0
 15341 022c 3F       		.uleb128 0x3f
 15342 022d 19       		.uleb128 0x19
 15343 022e 03       		.uleb128 0x3
ARM GAS  /tmp/ccB5ynkg.s 			page 272


 15344 022f 0E       		.uleb128 0xe
 15345 0230 3A       		.uleb128 0x3a
 15346 0231 0B       		.uleb128 0xb
 15347 0232 3B       		.uleb128 0x3b
 15348 0233 0B       		.uleb128 0xb
 15349 0234 6E       		.uleb128 0x6e
 15350 0235 0E       		.uleb128 0xe
 15351 0236 32       		.uleb128 0x32
 15352 0237 0B       		.uleb128 0xb
 15353 0238 3C       		.uleb128 0x3c
 15354 0239 19       		.uleb128 0x19
 15355 023a 00       		.byte	0
 15356 023b 00       		.byte	0
 15357 023c 2D       		.uleb128 0x2d
 15358 023d 16       		.uleb128 0x16
 15359 023e 00       		.byte	0
 15360 023f 03       		.uleb128 0x3
 15361 0240 0E       		.uleb128 0xe
 15362 0241 3A       		.uleb128 0x3a
 15363 0242 0B       		.uleb128 0xb
 15364 0243 3B       		.uleb128 0x3b
 15365 0244 0B       		.uleb128 0xb
 15366 0245 49       		.uleb128 0x49
 15367 0246 13       		.uleb128 0x13
 15368 0247 32       		.uleb128 0x32
 15369 0248 0B       		.uleb128 0xb
 15370 0249 00       		.byte	0
 15371 024a 00       		.byte	0
 15372 024b 2E       		.uleb128 0x2e
 15373 024c 2E       		.uleb128 0x2e
 15374 024d 01       		.byte	0x1
 15375 024e 3F       		.uleb128 0x3f
 15376 024f 19       		.uleb128 0x19
 15377 0250 03       		.uleb128 0x3
 15378 0251 0E       		.uleb128 0xe
 15379 0252 3A       		.uleb128 0x3a
 15380 0253 0B       		.uleb128 0xb
 15381 0254 3B       		.uleb128 0x3b
 15382 0255 0B       		.uleb128 0xb
 15383 0256 6E       		.uleb128 0x6e
 15384 0257 0E       		.uleb128 0xe
 15385 0258 49       		.uleb128 0x49
 15386 0259 13       		.uleb128 0x13
 15387 025a 32       		.uleb128 0x32
 15388 025b 0B       		.uleb128 0xb
 15389 025c 3C       		.uleb128 0x3c
 15390 025d 19       		.uleb128 0x19
 15391 025e 64       		.uleb128 0x64
 15392 025f 13       		.uleb128 0x13
 15393 0260 01       		.uleb128 0x1
 15394 0261 13       		.uleb128 0x13
 15395 0262 00       		.byte	0
 15396 0263 00       		.byte	0
 15397 0264 2F       		.uleb128 0x2f
 15398 0265 2E       		.uleb128 0x2e
 15399 0266 01       		.byte	0x1
 15400 0267 3F       		.uleb128 0x3f
ARM GAS  /tmp/ccB5ynkg.s 			page 273


 15401 0268 19       		.uleb128 0x19
 15402 0269 03       		.uleb128 0x3
 15403 026a 0E       		.uleb128 0xe
 15404 026b 3A       		.uleb128 0x3a
 15405 026c 0B       		.uleb128 0xb
 15406 026d 3B       		.uleb128 0x3b
 15407 026e 0B       		.uleb128 0xb
 15408 026f 6E       		.uleb128 0x6e
 15409 0270 0E       		.uleb128 0xe
 15410 0271 32       		.uleb128 0x32
 15411 0272 0B       		.uleb128 0xb
 15412 0273 3C       		.uleb128 0x3c
 15413 0274 19       		.uleb128 0x19
 15414 0275 64       		.uleb128 0x64
 15415 0276 13       		.uleb128 0x13
 15416 0277 01       		.uleb128 0x1
 15417 0278 13       		.uleb128 0x13
 15418 0279 00       		.byte	0
 15419 027a 00       		.byte	0
 15420 027b 30       		.uleb128 0x30
 15421 027c 0D       		.uleb128 0xd
 15422 027d 00       		.byte	0
 15423 027e 03       		.uleb128 0x3
 15424 027f 08       		.uleb128 0x8
 15425 0280 3A       		.uleb128 0x3a
 15426 0281 0B       		.uleb128 0xb
 15427 0282 3B       		.uleb128 0x3b
 15428 0283 0B       		.uleb128 0xb
 15429 0284 49       		.uleb128 0x49
 15430 0285 13       		.uleb128 0x13
 15431 0286 38       		.uleb128 0x38
 15432 0287 0B       		.uleb128 0xb
 15433 0288 32       		.uleb128 0x32
 15434 0289 0B       		.uleb128 0xb
 15435 028a 00       		.byte	0
 15436 028b 00       		.byte	0
 15437 028c 31       		.uleb128 0x31
 15438 028d 0D       		.uleb128 0xd
 15439 028e 00       		.byte	0
 15440 028f 03       		.uleb128 0x3
 15441 0290 0E       		.uleb128 0xe
 15442 0291 3A       		.uleb128 0x3a
 15443 0292 0B       		.uleb128 0xb
 15444 0293 3B       		.uleb128 0x3b
 15445 0294 0B       		.uleb128 0xb
 15446 0295 49       		.uleb128 0x49
 15447 0296 13       		.uleb128 0x13
 15448 0297 3F       		.uleb128 0x3f
 15449 0298 19       		.uleb128 0x19
 15450 0299 32       		.uleb128 0x32
 15451 029a 0B       		.uleb128 0xb
 15452 029b 3C       		.uleb128 0x3c
 15453 029c 19       		.uleb128 0x19
 15454 029d 00       		.byte	0
 15455 029e 00       		.byte	0
 15456 029f 32       		.uleb128 0x32
 15457 02a0 2E       		.uleb128 0x2e
ARM GAS  /tmp/ccB5ynkg.s 			page 274


 15458 02a1 01       		.byte	0x1
 15459 02a2 3F       		.uleb128 0x3f
 15460 02a3 19       		.uleb128 0x19
 15461 02a4 03       		.uleb128 0x3
 15462 02a5 0E       		.uleb128 0xe
 15463 02a6 3A       		.uleb128 0x3a
 15464 02a7 0B       		.uleb128 0xb
 15465 02a8 3B       		.uleb128 0x3b
 15466 02a9 0B       		.uleb128 0xb
 15467 02aa 49       		.uleb128 0x49
 15468 02ab 13       		.uleb128 0x13
 15469 02ac 32       		.uleb128 0x32
 15470 02ad 0B       		.uleb128 0xb
 15471 02ae 3C       		.uleb128 0x3c
 15472 02af 19       		.uleb128 0x19
 15473 02b0 63       		.uleb128 0x63
 15474 02b1 19       		.uleb128 0x19
 15475 02b2 64       		.uleb128 0x64
 15476 02b3 13       		.uleb128 0x13
 15477 02b4 01       		.uleb128 0x1
 15478 02b5 13       		.uleb128 0x13
 15479 02b6 00       		.byte	0
 15480 02b7 00       		.byte	0
 15481 02b8 33       		.uleb128 0x33
 15482 02b9 2E       		.uleb128 0x2e
 15483 02ba 01       		.byte	0x1
 15484 02bb 3F       		.uleb128 0x3f
 15485 02bc 19       		.uleb128 0x19
 15486 02bd 03       		.uleb128 0x3
 15487 02be 08       		.uleb128 0x8
 15488 02bf 3A       		.uleb128 0x3a
 15489 02c0 0B       		.uleb128 0xb
 15490 02c1 3B       		.uleb128 0x3b
 15491 02c2 0B       		.uleb128 0xb
 15492 02c3 6E       		.uleb128 0x6e
 15493 02c4 0E       		.uleb128 0xe
 15494 02c5 49       		.uleb128 0x49
 15495 02c6 13       		.uleb128 0x13
 15496 02c7 32       		.uleb128 0x32
 15497 02c8 0B       		.uleb128 0xb
 15498 02c9 3C       		.uleb128 0x3c
 15499 02ca 19       		.uleb128 0x19
 15500 02cb 01       		.uleb128 0x1
 15501 02cc 13       		.uleb128 0x13
 15502 02cd 00       		.byte	0
 15503 02ce 00       		.byte	0
 15504 02cf 34       		.uleb128 0x34
 15505 02d0 2E       		.uleb128 0x2e
 15506 02d1 00       		.byte	0
 15507 02d2 3F       		.uleb128 0x3f
 15508 02d3 19       		.uleb128 0x19
 15509 02d4 03       		.uleb128 0x3
 15510 02d5 08       		.uleb128 0x8
 15511 02d6 3A       		.uleb128 0x3a
 15512 02d7 0B       		.uleb128 0xb
 15513 02d8 3B       		.uleb128 0x3b
 15514 02d9 0B       		.uleb128 0xb
ARM GAS  /tmp/ccB5ynkg.s 			page 275


 15515 02da 6E       		.uleb128 0x6e
 15516 02db 0E       		.uleb128 0xe
 15517 02dc 49       		.uleb128 0x49
 15518 02dd 13       		.uleb128 0x13
 15519 02de 32       		.uleb128 0x32
 15520 02df 0B       		.uleb128 0xb
 15521 02e0 3C       		.uleb128 0x3c
 15522 02e1 19       		.uleb128 0x19
 15523 02e2 00       		.byte	0
 15524 02e3 00       		.byte	0
 15525 02e4 35       		.uleb128 0x35
 15526 02e5 2F       		.uleb128 0x2f
 15527 02e6 00       		.byte	0
 15528 02e7 03       		.uleb128 0x3
 15529 02e8 08       		.uleb128 0x8
 15530 02e9 49       		.uleb128 0x49
 15531 02ea 13       		.uleb128 0x13
 15532 02eb 00       		.byte	0
 15533 02ec 00       		.byte	0
 15534 02ed 36       		.uleb128 0x36
 15535 02ee 13       		.uleb128 0x13
 15536 02ef 01       		.byte	0x1
 15537 02f0 03       		.uleb128 0x3
 15538 02f1 0E       		.uleb128 0xe
 15539 02f2 0B       		.uleb128 0xb
 15540 02f3 0B       		.uleb128 0xb
 15541 02f4 3A       		.uleb128 0x3a
 15542 02f5 0B       		.uleb128 0xb
 15543 02f6 3B       		.uleb128 0x3b
 15544 02f7 0B       		.uleb128 0xb
 15545 02f8 32       		.uleb128 0x32
 15546 02f9 0B       		.uleb128 0xb
 15547 02fa 01       		.uleb128 0x1
 15548 02fb 13       		.uleb128 0x13
 15549 02fc 00       		.byte	0
 15550 02fd 00       		.byte	0
 15551 02fe 37       		.uleb128 0x37
 15552 02ff 2E       		.uleb128 0x2e
 15553 0300 01       		.byte	0x1
 15554 0301 3F       		.uleb128 0x3f
 15555 0302 19       		.uleb128 0x19
 15556 0303 03       		.uleb128 0x3
 15557 0304 0E       		.uleb128 0xe
 15558 0305 3A       		.uleb128 0x3a
 15559 0306 0B       		.uleb128 0xb
 15560 0307 3B       		.uleb128 0x3b
 15561 0308 0B       		.uleb128 0xb
 15562 0309 49       		.uleb128 0x49
 15563 030a 13       		.uleb128 0x13
 15564 030b 3C       		.uleb128 0x3c
 15565 030c 19       		.uleb128 0x19
 15566 030d 64       		.uleb128 0x64
 15567 030e 13       		.uleb128 0x13
 15568 030f 00       		.byte	0
 15569 0310 00       		.byte	0
 15570 0311 38       		.uleb128 0x38
 15571 0312 13       		.uleb128 0x13
ARM GAS  /tmp/ccB5ynkg.s 			page 276


 15572 0313 00       		.byte	0
 15573 0314 03       		.uleb128 0x3
 15574 0315 0E       		.uleb128 0xe
 15575 0316 3C       		.uleb128 0x3c
 15576 0317 19       		.uleb128 0x19
 15577 0318 00       		.byte	0
 15578 0319 00       		.byte	0
 15579 031a 39       		.uleb128 0x39
 15580 031b 02       		.uleb128 0x2
 15581 031c 00       		.byte	0
 15582 031d 03       		.uleb128 0x3
 15583 031e 0E       		.uleb128 0xe
 15584 031f 3C       		.uleb128 0x3c
 15585 0320 19       		.uleb128 0x19
 15586 0321 00       		.byte	0
 15587 0322 00       		.byte	0
 15588 0323 3A       		.uleb128 0x3a
 15589 0324 02       		.uleb128 0x2
 15590 0325 01       		.byte	0x1
 15591 0326 03       		.uleb128 0x3
 15592 0327 0E       		.uleb128 0xe
 15593 0328 0B       		.uleb128 0xb
 15594 0329 0B       		.uleb128 0xb
 15595 032a 3A       		.uleb128 0x3a
 15596 032b 0B       		.uleb128 0xb
 15597 032c 3B       		.uleb128 0x3b
 15598 032d 0B       		.uleb128 0xb
 15599 032e 32       		.uleb128 0x32
 15600 032f 0B       		.uleb128 0xb
 15601 0330 01       		.uleb128 0x1
 15602 0331 13       		.uleb128 0x13
 15603 0332 00       		.byte	0
 15604 0333 00       		.byte	0
 15605 0334 3B       		.uleb128 0x3b
 15606 0335 2E       		.uleb128 0x2e
 15607 0336 01       		.byte	0x1
 15608 0337 3F       		.uleb128 0x3f
 15609 0338 19       		.uleb128 0x19
 15610 0339 03       		.uleb128 0x3
 15611 033a 0E       		.uleb128 0xe
 15612 033b 3A       		.uleb128 0x3a
 15613 033c 0B       		.uleb128 0xb
 15614 033d 3B       		.uleb128 0x3b
 15615 033e 0B       		.uleb128 0xb
 15616 033f 6E       		.uleb128 0x6e
 15617 0340 0E       		.uleb128 0xe
 15618 0341 49       		.uleb128 0x49
 15619 0342 13       		.uleb128 0x13
 15620 0343 3C       		.uleb128 0x3c
 15621 0344 19       		.uleb128 0x19
 15622 0345 64       		.uleb128 0x64
 15623 0346 13       		.uleb128 0x13
 15624 0347 01       		.uleb128 0x1
 15625 0348 13       		.uleb128 0x13
 15626 0349 00       		.byte	0
 15627 034a 00       		.byte	0
 15628 034b 3C       		.uleb128 0x3c
ARM GAS  /tmp/ccB5ynkg.s 			page 277


 15629 034c 2E       		.uleb128 0x2e
 15630 034d 01       		.byte	0x1
 15631 034e 3F       		.uleb128 0x3f
 15632 034f 19       		.uleb128 0x19
 15633 0350 03       		.uleb128 0x3
 15634 0351 0E       		.uleb128 0xe
 15635 0352 3A       		.uleb128 0x3a
 15636 0353 0B       		.uleb128 0xb
 15637 0354 3B       		.uleb128 0x3b
 15638 0355 0B       		.uleb128 0xb
 15639 0356 6E       		.uleb128 0x6e
 15640 0357 0E       		.uleb128 0xe
 15641 0358 49       		.uleb128 0x49
 15642 0359 13       		.uleb128 0x13
 15643 035a 32       		.uleb128 0x32
 15644 035b 0B       		.uleb128 0xb
 15645 035c 3C       		.uleb128 0x3c
 15646 035d 19       		.uleb128 0x19
 15647 035e 64       		.uleb128 0x64
 15648 035f 13       		.uleb128 0x13
 15649 0360 00       		.byte	0
 15650 0361 00       		.byte	0
 15651 0362 3D       		.uleb128 0x3d
 15652 0363 2E       		.uleb128 0x2e
 15653 0364 01       		.byte	0x1
 15654 0365 3F       		.uleb128 0x3f
 15655 0366 19       		.uleb128 0x19
 15656 0367 03       		.uleb128 0x3
 15657 0368 0E       		.uleb128 0xe
 15658 0369 3A       		.uleb128 0x3a
 15659 036a 0B       		.uleb128 0xb
 15660 036b 3B       		.uleb128 0x3b
 15661 036c 05       		.uleb128 0x5
 15662 036d 6E       		.uleb128 0x6e
 15663 036e 0E       		.uleb128 0xe
 15664 036f 49       		.uleb128 0x49
 15665 0370 13       		.uleb128 0x13
 15666 0371 32       		.uleb128 0x32
 15667 0372 0B       		.uleb128 0xb
 15668 0373 3C       		.uleb128 0x3c
 15669 0374 19       		.uleb128 0x19
 15670 0375 64       		.uleb128 0x64
 15671 0376 13       		.uleb128 0x13
 15672 0377 01       		.uleb128 0x1
 15673 0378 13       		.uleb128 0x13
 15674 0379 00       		.byte	0
 15675 037a 00       		.byte	0
 15676 037b 3E       		.uleb128 0x3e
 15677 037c 2E       		.uleb128 0x2e
 15678 037d 01       		.byte	0x1
 15679 037e 3F       		.uleb128 0x3f
 15680 037f 19       		.uleb128 0x19
 15681 0380 03       		.uleb128 0x3
 15682 0381 0E       		.uleb128 0xe
 15683 0382 3A       		.uleb128 0x3a
 15684 0383 0B       		.uleb128 0xb
 15685 0384 3B       		.uleb128 0x3b
ARM GAS  /tmp/ccB5ynkg.s 			page 278


 15686 0385 05       		.uleb128 0x5
 15687 0386 6E       		.uleb128 0x6e
 15688 0387 0E       		.uleb128 0xe
 15689 0388 32       		.uleb128 0x32
 15690 0389 0B       		.uleb128 0xb
 15691 038a 3C       		.uleb128 0x3c
 15692 038b 19       		.uleb128 0x19
 15693 038c 64       		.uleb128 0x64
 15694 038d 13       		.uleb128 0x13
 15695 038e 01       		.uleb128 0x1
 15696 038f 13       		.uleb128 0x13
 15697 0390 00       		.byte	0
 15698 0391 00       		.byte	0
 15699 0392 3F       		.uleb128 0x3f
 15700 0393 2E       		.uleb128 0x2e
 15701 0394 01       		.byte	0x1
 15702 0395 3F       		.uleb128 0x3f
 15703 0396 19       		.uleb128 0x19
 15704 0397 03       		.uleb128 0x3
 15705 0398 08       		.uleb128 0x8
 15706 0399 3A       		.uleb128 0x3a
 15707 039a 0B       		.uleb128 0xb
 15708 039b 3B       		.uleb128 0x3b
 15709 039c 05       		.uleb128 0x5
 15710 039d 6E       		.uleb128 0x6e
 15711 039e 0E       		.uleb128 0xe
 15712 039f 49       		.uleb128 0x49
 15713 03a0 13       		.uleb128 0x13
 15714 03a1 32       		.uleb128 0x32
 15715 03a2 0B       		.uleb128 0xb
 15716 03a3 3C       		.uleb128 0x3c
 15717 03a4 19       		.uleb128 0x19
 15718 03a5 64       		.uleb128 0x64
 15719 03a6 13       		.uleb128 0x13
 15720 03a7 01       		.uleb128 0x1
 15721 03a8 13       		.uleb128 0x13
 15722 03a9 00       		.byte	0
 15723 03aa 00       		.byte	0
 15724 03ab 40       		.uleb128 0x40
 15725 03ac 2E       		.uleb128 0x2e
 15726 03ad 01       		.byte	0x1
 15727 03ae 3F       		.uleb128 0x3f
 15728 03af 19       		.uleb128 0x19
 15729 03b0 03       		.uleb128 0x3
 15730 03b1 0E       		.uleb128 0xe
 15731 03b2 3A       		.uleb128 0x3a
 15732 03b3 0B       		.uleb128 0xb
 15733 03b4 3B       		.uleb128 0x3b
 15734 03b5 05       		.uleb128 0x5
 15735 03b6 49       		.uleb128 0x49
 15736 03b7 13       		.uleb128 0x13
 15737 03b8 32       		.uleb128 0x32
 15738 03b9 0B       		.uleb128 0xb
 15739 03ba 3C       		.uleb128 0x3c
 15740 03bb 19       		.uleb128 0x19
 15741 03bc 64       		.uleb128 0x64
 15742 03bd 13       		.uleb128 0x13
ARM GAS  /tmp/ccB5ynkg.s 			page 279


 15743 03be 01       		.uleb128 0x1
 15744 03bf 13       		.uleb128 0x13
 15745 03c0 00       		.byte	0
 15746 03c1 00       		.byte	0
 15747 03c2 41       		.uleb128 0x41
 15748 03c3 2F       		.uleb128 0x2f
 15749 03c4 00       		.byte	0
 15750 03c5 03       		.uleb128 0x3
 15751 03c6 0E       		.uleb128 0xe
 15752 03c7 49       		.uleb128 0x49
 15753 03c8 13       		.uleb128 0x13
 15754 03c9 00       		.byte	0
 15755 03ca 00       		.byte	0
 15756 03cb 42       		.uleb128 0x42
 15757 03cc 02       		.uleb128 0x2
 15758 03cd 01       		.byte	0x1
 15759 03ce 03       		.uleb128 0x3
 15760 03cf 0E       		.uleb128 0xe
 15761 03d0 3C       		.uleb128 0x3c
 15762 03d1 19       		.uleb128 0x19
 15763 03d2 01       		.uleb128 0x1
 15764 03d3 13       		.uleb128 0x13
 15765 03d4 00       		.byte	0
 15766 03d5 00       		.byte	0
 15767 03d6 43       		.uleb128 0x43
 15768 03d7 2E       		.uleb128 0x2e
 15769 03d8 01       		.byte	0x1
 15770 03d9 3F       		.uleb128 0x3f
 15771 03da 19       		.uleb128 0x19
 15772 03db 03       		.uleb128 0x3
 15773 03dc 0E       		.uleb128 0xe
 15774 03dd 3A       		.uleb128 0x3a
 15775 03de 0B       		.uleb128 0xb
 15776 03df 3B       		.uleb128 0x3b
 15777 03e0 0B       		.uleb128 0xb
 15778 03e1 6E       		.uleb128 0x6e
 15779 03e2 0E       		.uleb128 0xe
 15780 03e3 49       		.uleb128 0x49
 15781 03e4 13       		.uleb128 0x13
 15782 03e5 4C       		.uleb128 0x4c
 15783 03e6 0B       		.uleb128 0xb
 15784 03e7 4D       		.uleb128 0x4d
 15785 03e8 18       		.uleb128 0x18
 15786 03e9 1D       		.uleb128 0x1d
 15787 03ea 13       		.uleb128 0x13
 15788 03eb 32       		.uleb128 0x32
 15789 03ec 0B       		.uleb128 0xb
 15790 03ed 3C       		.uleb128 0x3c
 15791 03ee 19       		.uleb128 0x19
 15792 03ef 64       		.uleb128 0x64
 15793 03f0 13       		.uleb128 0x13
 15794 03f1 01       		.uleb128 0x1
 15795 03f2 13       		.uleb128 0x13
 15796 03f3 00       		.byte	0
 15797 03f4 00       		.byte	0
 15798 03f5 44       		.uleb128 0x44
 15799 03f6 2E       		.uleb128 0x2e
ARM GAS  /tmp/ccB5ynkg.s 			page 280


 15800 03f7 01       		.byte	0x1
 15801 03f8 3F       		.uleb128 0x3f
 15802 03f9 19       		.uleb128 0x19
 15803 03fa 03       		.uleb128 0x3
 15804 03fb 0E       		.uleb128 0xe
 15805 03fc 3A       		.uleb128 0x3a
 15806 03fd 0B       		.uleb128 0xb
 15807 03fe 3B       		.uleb128 0x3b
 15808 03ff 0B       		.uleb128 0xb
 15809 0400 6E       		.uleb128 0x6e
 15810 0401 0E       		.uleb128 0xe
 15811 0402 49       		.uleb128 0x49
 15812 0403 13       		.uleb128 0x13
 15813 0404 4C       		.uleb128 0x4c
 15814 0405 0B       		.uleb128 0xb
 15815 0406 4D       		.uleb128 0x4d
 15816 0407 18       		.uleb128 0x18
 15817 0408 1D       		.uleb128 0x1d
 15818 0409 13       		.uleb128 0x13
 15819 040a 32       		.uleb128 0x32
 15820 040b 0B       		.uleb128 0xb
 15821 040c 3C       		.uleb128 0x3c
 15822 040d 19       		.uleb128 0x19
 15823 040e 64       		.uleb128 0x64
 15824 040f 13       		.uleb128 0x13
 15825 0410 00       		.byte	0
 15826 0411 00       		.byte	0
 15827 0412 45       		.uleb128 0x45
 15828 0413 2E       		.uleb128 0x2e
 15829 0414 01       		.byte	0x1
 15830 0415 3F       		.uleb128 0x3f
 15831 0416 19       		.uleb128 0x19
 15832 0417 03       		.uleb128 0x3
 15833 0418 0E       		.uleb128 0xe
 15834 0419 3A       		.uleb128 0x3a
 15835 041a 0B       		.uleb128 0xb
 15836 041b 3B       		.uleb128 0x3b
 15837 041c 0B       		.uleb128 0xb
 15838 041d 6E       		.uleb128 0x6e
 15839 041e 0E       		.uleb128 0xe
 15840 041f 3C       		.uleb128 0x3c
 15841 0420 19       		.uleb128 0x19
 15842 0421 64       		.uleb128 0x64
 15843 0422 13       		.uleb128 0x13
 15844 0423 01       		.uleb128 0x1
 15845 0424 13       		.uleb128 0x13
 15846 0425 00       		.byte	0
 15847 0426 00       		.byte	0
 15848 0427 46       		.uleb128 0x46
 15849 0428 2E       		.uleb128 0x2e
 15850 0429 01       		.byte	0x1
 15851 042a 3F       		.uleb128 0x3f
 15852 042b 19       		.uleb128 0x19
 15853 042c 03       		.uleb128 0x3
 15854 042d 0E       		.uleb128 0xe
 15855 042e 3A       		.uleb128 0x3a
 15856 042f 0B       		.uleb128 0xb
ARM GAS  /tmp/ccB5ynkg.s 			page 281


 15857 0430 3B       		.uleb128 0x3b
 15858 0431 0B       		.uleb128 0xb
 15859 0432 6E       		.uleb128 0x6e
 15860 0433 0E       		.uleb128 0xe
 15861 0434 49       		.uleb128 0x49
 15862 0435 13       		.uleb128 0x13
 15863 0436 32       		.uleb128 0x32
 15864 0437 0B       		.uleb128 0xb
 15865 0438 3C       		.uleb128 0x3c
 15866 0439 19       		.uleb128 0x19
 15867 043a 00       		.byte	0
 15868 043b 00       		.byte	0
 15869 043c 47       		.uleb128 0x47
 15870 043d 2E       		.uleb128 0x2e
 15871 043e 01       		.byte	0x1
 15872 043f 3F       		.uleb128 0x3f
 15873 0440 19       		.uleb128 0x19
 15874 0441 03       		.uleb128 0x3
 15875 0442 0E       		.uleb128 0xe
 15876 0443 3A       		.uleb128 0x3a
 15877 0444 0B       		.uleb128 0xb
 15878 0445 3B       		.uleb128 0x3b
 15879 0446 0B       		.uleb128 0xb
 15880 0447 6E       		.uleb128 0x6e
 15881 0448 0E       		.uleb128 0xe
 15882 0449 32       		.uleb128 0x32
 15883 044a 0B       		.uleb128 0xb
 15884 044b 3C       		.uleb128 0x3c
 15885 044c 19       		.uleb128 0x19
 15886 044d 01       		.uleb128 0x1
 15887 044e 13       		.uleb128 0x13
 15888 044f 00       		.byte	0
 15889 0450 00       		.byte	0
 15890 0451 48       		.uleb128 0x48
 15891 0452 2E       		.uleb128 0x2e
 15892 0453 01       		.byte	0x1
 15893 0454 3F       		.uleb128 0x3f
 15894 0455 19       		.uleb128 0x19
 15895 0456 03       		.uleb128 0x3
 15896 0457 0E       		.uleb128 0xe
 15897 0458 3A       		.uleb128 0x3a
 15898 0459 0B       		.uleb128 0xb
 15899 045a 3B       		.uleb128 0x3b
 15900 045b 0B       		.uleb128 0xb
 15901 045c 6E       		.uleb128 0x6e
 15902 045d 0E       		.uleb128 0xe
 15903 045e 49       		.uleb128 0x49
 15904 045f 13       		.uleb128 0x13
 15905 0460 32       		.uleb128 0x32
 15906 0461 0B       		.uleb128 0xb
 15907 0462 3C       		.uleb128 0x3c
 15908 0463 19       		.uleb128 0x19
 15909 0464 01       		.uleb128 0x1
 15910 0465 13       		.uleb128 0x13
 15911 0466 00       		.byte	0
 15912 0467 00       		.byte	0
 15913 0468 49       		.uleb128 0x49
ARM GAS  /tmp/ccB5ynkg.s 			page 282


 15914 0469 02       		.uleb128 0x2
 15915 046a 01       		.byte	0x1
 15916 046b 03       		.uleb128 0x3
 15917 046c 0E       		.uleb128 0xe
 15918 046d 0B       		.uleb128 0xb
 15919 046e 0B       		.uleb128 0xb
 15920 046f 3A       		.uleb128 0x3a
 15921 0470 0B       		.uleb128 0xb
 15922 0471 3B       		.uleb128 0x3b
 15923 0472 0B       		.uleb128 0xb
 15924 0473 1D       		.uleb128 0x1d
 15925 0474 13       		.uleb128 0x13
 15926 0475 01       		.uleb128 0x1
 15927 0476 13       		.uleb128 0x13
 15928 0477 00       		.byte	0
 15929 0478 00       		.byte	0
 15930 0479 4A       		.uleb128 0x4a
 15931 047a 1C       		.uleb128 0x1c
 15932 047b 00       		.byte	0
 15933 047c 49       		.uleb128 0x49
 15934 047d 13       		.uleb128 0x13
 15935 047e 38       		.uleb128 0x38
 15936 047f 0B       		.uleb128 0xb
 15937 0480 32       		.uleb128 0x32
 15938 0481 0B       		.uleb128 0xb
 15939 0482 00       		.byte	0
 15940 0483 00       		.byte	0
 15941 0484 4B       		.uleb128 0x4b
 15942 0485 2E       		.uleb128 0x2e
 15943 0486 01       		.byte	0x1
 15944 0487 3F       		.uleb128 0x3f
 15945 0488 19       		.uleb128 0x19
 15946 0489 03       		.uleb128 0x3
 15947 048a 0E       		.uleb128 0xe
 15948 048b 49       		.uleb128 0x49
 15949 048c 13       		.uleb128 0x13
 15950 048d 34       		.uleb128 0x34
 15951 048e 19       		.uleb128 0x19
 15952 048f 32       		.uleb128 0x32
 15953 0490 0B       		.uleb128 0xb
 15954 0491 3C       		.uleb128 0x3c
 15955 0492 19       		.uleb128 0x19
 15956 0493 64       		.uleb128 0x64
 15957 0494 13       		.uleb128 0x13
 15958 0495 01       		.uleb128 0x1
 15959 0496 13       		.uleb128 0x13
 15960 0497 00       		.byte	0
 15961 0498 00       		.byte	0
 15962 0499 4C       		.uleb128 0x4c
 15963 049a 2E       		.uleb128 0x2e
 15964 049b 01       		.byte	0x1
 15965 049c 3F       		.uleb128 0x3f
 15966 049d 19       		.uleb128 0x19
 15967 049e 03       		.uleb128 0x3
 15968 049f 0E       		.uleb128 0xe
 15969 04a0 3A       		.uleb128 0x3a
 15970 04a1 0B       		.uleb128 0xb
ARM GAS  /tmp/ccB5ynkg.s 			page 283


 15971 04a2 3B       		.uleb128 0x3b
 15972 04a3 0B       		.uleb128 0xb
 15973 04a4 49       		.uleb128 0x49
 15974 04a5 13       		.uleb128 0x13
 15975 04a6 4C       		.uleb128 0x4c
 15976 04a7 0B       		.uleb128 0xb
 15977 04a8 1D       		.uleb128 0x1d
 15978 04a9 13       		.uleb128 0x13
 15979 04aa 32       		.uleb128 0x32
 15980 04ab 0B       		.uleb128 0xb
 15981 04ac 3C       		.uleb128 0x3c
 15982 04ad 19       		.uleb128 0x19
 15983 04ae 64       		.uleb128 0x64
 15984 04af 13       		.uleb128 0x13
 15985 04b0 00       		.byte	0
 15986 04b1 00       		.byte	0
 15987 04b2 4D       		.uleb128 0x4d
 15988 04b3 2E       		.uleb128 0x2e
 15989 04b4 00       		.byte	0
 15990 04b5 3F       		.uleb128 0x3f
 15991 04b6 19       		.uleb128 0x19
 15992 04b7 03       		.uleb128 0x3
 15993 04b8 0E       		.uleb128 0xe
 15994 04b9 3A       		.uleb128 0x3a
 15995 04ba 0B       		.uleb128 0xb
 15996 04bb 3B       		.uleb128 0x3b
 15997 04bc 0B       		.uleb128 0xb
 15998 04bd 6E       		.uleb128 0x6e
 15999 04be 0E       		.uleb128 0xe
 16000 04bf 49       		.uleb128 0x49
 16001 04c0 13       		.uleb128 0x13
 16002 04c1 32       		.uleb128 0x32
 16003 04c2 0B       		.uleb128 0xb
 16004 04c3 3C       		.uleb128 0x3c
 16005 04c4 19       		.uleb128 0x19
 16006 04c5 00       		.byte	0
 16007 04c6 00       		.byte	0
 16008 04c7 4E       		.uleb128 0x4e
 16009 04c8 04       		.uleb128 0x4
 16010 04c9 01       		.byte	0x1
 16011 04ca 03       		.uleb128 0x3
 16012 04cb 0E       		.uleb128 0xe
 16013 04cc 0B       		.uleb128 0xb
 16014 04cd 0B       		.uleb128 0xb
 16015 04ce 3A       		.uleb128 0x3a
 16016 04cf 0B       		.uleb128 0xb
 16017 04d0 3B       		.uleb128 0x3b
 16018 04d1 0B       		.uleb128 0xb
 16019 04d2 32       		.uleb128 0x32
 16020 04d3 0B       		.uleb128 0xb
 16021 04d4 01       		.uleb128 0x1
 16022 04d5 13       		.uleb128 0x13
 16023 04d6 00       		.byte	0
 16024 04d7 00       		.byte	0
 16025 04d8 4F       		.uleb128 0x4f
 16026 04d9 30       		.uleb128 0x30
 16027 04da 00       		.byte	0
ARM GAS  /tmp/ccB5ynkg.s 			page 284


 16028 04db 03       		.uleb128 0x3
 16029 04dc 08       		.uleb128 0x8
 16030 04dd 49       		.uleb128 0x49
 16031 04de 13       		.uleb128 0x13
 16032 04df 1C       		.uleb128 0x1c
 16033 04e0 0B       		.uleb128 0xb
 16034 04e1 00       		.byte	0
 16035 04e2 00       		.byte	0
 16036 04e3 50       		.uleb128 0x50
 16037 04e4 0D       		.uleb128 0xd
 16038 04e5 00       		.byte	0
 16039 04e6 03       		.uleb128 0x3
 16040 04e7 0E       		.uleb128 0xe
 16041 04e8 49       		.uleb128 0x49
 16042 04e9 13       		.uleb128 0x13
 16043 04ea 38       		.uleb128 0x38
 16044 04eb 0B       		.uleb128 0xb
 16045 04ec 34       		.uleb128 0x34
 16046 04ed 19       		.uleb128 0x19
 16047 04ee 32       		.uleb128 0x32
 16048 04ef 0B       		.uleb128 0xb
 16049 04f0 00       		.byte	0
 16050 04f1 00       		.byte	0
 16051 04f2 51       		.uleb128 0x51
 16052 04f3 2E       		.uleb128 0x2e
 16053 04f4 01       		.byte	0x1
 16054 04f5 3F       		.uleb128 0x3f
 16055 04f6 19       		.uleb128 0x19
 16056 04f7 03       		.uleb128 0x3
 16057 04f8 0E       		.uleb128 0xe
 16058 04f9 3A       		.uleb128 0x3a
 16059 04fa 0B       		.uleb128 0xb
 16060 04fb 3B       		.uleb128 0x3b
 16061 04fc 0B       		.uleb128 0xb
 16062 04fd 49       		.uleb128 0x49
 16063 04fe 13       		.uleb128 0x13
 16064 04ff 4C       		.uleb128 0x4c
 16065 0500 0B       		.uleb128 0xb
 16066 0501 1D       		.uleb128 0x1d
 16067 0502 13       		.uleb128 0x13
 16068 0503 32       		.uleb128 0x32
 16069 0504 0B       		.uleb128 0xb
 16070 0505 3C       		.uleb128 0x3c
 16071 0506 19       		.uleb128 0x19
 16072 0507 64       		.uleb128 0x64
 16073 0508 13       		.uleb128 0x13
 16074 0509 01       		.uleb128 0x1
 16075 050a 13       		.uleb128 0x13
 16076 050b 00       		.byte	0
 16077 050c 00       		.byte	0
 16078 050d 52       		.uleb128 0x52
 16079 050e 0D       		.uleb128 0xd
 16080 050f 00       		.byte	0
 16081 0510 03       		.uleb128 0x3
 16082 0511 0E       		.uleb128 0xe
 16083 0512 3A       		.uleb128 0x3a
 16084 0513 0B       		.uleb128 0xb
ARM GAS  /tmp/ccB5ynkg.s 			page 285


 16085 0514 3B       		.uleb128 0x3b
 16086 0515 0B       		.uleb128 0xb
 16087 0516 49       		.uleb128 0x49
 16088 0517 13       		.uleb128 0x13
 16089 0518 38       		.uleb128 0x38
 16090 0519 0B       		.uleb128 0xb
 16091 051a 32       		.uleb128 0x32
 16092 051b 0B       		.uleb128 0xb
 16093 051c 00       		.byte	0
 16094 051d 00       		.byte	0
 16095 051e 53       		.uleb128 0x53
 16096 051f 2E       		.uleb128 0x2e
 16097 0520 01       		.byte	0x1
 16098 0521 3F       		.uleb128 0x3f
 16099 0522 19       		.uleb128 0x19
 16100 0523 03       		.uleb128 0x3
 16101 0524 0E       		.uleb128 0xe
 16102 0525 49       		.uleb128 0x49
 16103 0526 13       		.uleb128 0x13
 16104 0527 34       		.uleb128 0x34
 16105 0528 19       		.uleb128 0x19
 16106 0529 32       		.uleb128 0x32
 16107 052a 0B       		.uleb128 0xb
 16108 052b 3C       		.uleb128 0x3c
 16109 052c 19       		.uleb128 0x19
 16110 052d 64       		.uleb128 0x64
 16111 052e 13       		.uleb128 0x13
 16112 052f 00       		.byte	0
 16113 0530 00       		.byte	0
 16114 0531 54       		.uleb128 0x54
 16115 0532 30       		.uleb128 0x30
 16116 0533 00       		.byte	0
 16117 0534 03       		.uleb128 0x3
 16118 0535 0E       		.uleb128 0xe
 16119 0536 49       		.uleb128 0x49
 16120 0537 13       		.uleb128 0x13
 16121 0538 1C       		.uleb128 0x1c
 16122 0539 0B       		.uleb128 0xb
 16123 053a 00       		.byte	0
 16124 053b 00       		.byte	0
 16125 053c 55       		.uleb128 0x55
 16126 053d 2E       		.uleb128 0x2e
 16127 053e 01       		.byte	0x1
 16128 053f 3F       		.uleb128 0x3f
 16129 0540 19       		.uleb128 0x19
 16130 0541 03       		.uleb128 0x3
 16131 0542 0E       		.uleb128 0xe
 16132 0543 3A       		.uleb128 0x3a
 16133 0544 0B       		.uleb128 0xb
 16134 0545 3B       		.uleb128 0x3b
 16135 0546 0B       		.uleb128 0xb
 16136 0547 3C       		.uleb128 0x3c
 16137 0548 19       		.uleb128 0x19
 16138 0549 01       		.uleb128 0x1
 16139 054a 13       		.uleb128 0x13
 16140 054b 00       		.byte	0
 16141 054c 00       		.byte	0
ARM GAS  /tmp/ccB5ynkg.s 			page 286


 16142 054d 56       		.uleb128 0x56
 16143 054e 2E       		.uleb128 0x2e
 16144 054f 01       		.byte	0x1
 16145 0550 3F       		.uleb128 0x3f
 16146 0551 19       		.uleb128 0x19
 16147 0552 03       		.uleb128 0x3
 16148 0553 0E       		.uleb128 0xe
 16149 0554 3A       		.uleb128 0x3a
 16150 0555 0B       		.uleb128 0xb
 16151 0556 3B       		.uleb128 0x3b
 16152 0557 0B       		.uleb128 0xb
 16153 0558 3C       		.uleb128 0x3c
 16154 0559 19       		.uleb128 0x19
 16155 055a 00       		.byte	0
 16156 055b 00       		.byte	0
 16157 055c 57       		.uleb128 0x57
 16158 055d 10       		.uleb128 0x10
 16159 055e 00       		.byte	0
 16160 055f 0B       		.uleb128 0xb
 16161 0560 0B       		.uleb128 0xb
 16162 0561 49       		.uleb128 0x49
 16163 0562 13       		.uleb128 0x13
 16164 0563 00       		.byte	0
 16165 0564 00       		.byte	0
 16166 0565 58       		.uleb128 0x58
 16167 0566 18       		.uleb128 0x18
 16168 0567 00       		.byte	0
 16169 0568 00       		.byte	0
 16170 0569 00       		.byte	0
 16171 056a 59       		.uleb128 0x59
 16172 056b 0F       		.uleb128 0xf
 16173 056c 00       		.byte	0
 16174 056d 0B       		.uleb128 0xb
 16175 056e 0B       		.uleb128 0xb
 16176 056f 03       		.uleb128 0x3
 16177 0570 0E       		.uleb128 0xe
 16178 0571 49       		.uleb128 0x49
 16179 0572 13       		.uleb128 0x13
 16180 0573 00       		.byte	0
 16181 0574 00       		.byte	0
 16182 0575 5A       		.uleb128 0x5a
 16183 0576 2E       		.uleb128 0x2e
 16184 0577 01       		.byte	0x1
 16185 0578 47       		.uleb128 0x47
 16186 0579 13       		.uleb128 0x13
 16187 057a 20       		.uleb128 0x20
 16188 057b 0B       		.uleb128 0xb
 16189 057c 01       		.uleb128 0x1
 16190 057d 13       		.uleb128 0x13
 16191 057e 00       		.byte	0
 16192 057f 00       		.byte	0
 16193 0580 5B       		.uleb128 0x5b
 16194 0581 0B       		.uleb128 0xb
 16195 0582 01       		.byte	0x1
 16196 0583 00       		.byte	0
 16197 0584 00       		.byte	0
 16198 0585 5C       		.uleb128 0x5c
ARM GAS  /tmp/ccB5ynkg.s 			page 287


 16199 0586 34       		.uleb128 0x34
 16200 0587 00       		.byte	0
 16201 0588 03       		.uleb128 0x3
 16202 0589 08       		.uleb128 0x8
 16203 058a 3A       		.uleb128 0x3a
 16204 058b 0B       		.uleb128 0xb
 16205 058c 3B       		.uleb128 0x3b
 16206 058d 0B       		.uleb128 0xb
 16207 058e 49       		.uleb128 0x49
 16208 058f 13       		.uleb128 0x13
 16209 0590 00       		.byte	0
 16210 0591 00       		.byte	0
 16211 0592 5D       		.uleb128 0x5d
 16212 0593 2E       		.uleb128 0x2e
 16213 0594 01       		.byte	0x1
 16214 0595 03       		.uleb128 0x3
 16215 0596 0E       		.uleb128 0xe
 16216 0597 3A       		.uleb128 0x3a
 16217 0598 0B       		.uleb128 0xb
 16218 0599 3B       		.uleb128 0x3b
 16219 059a 0B       		.uleb128 0xb
 16220 059b 11       		.uleb128 0x11
 16221 059c 01       		.uleb128 0x1
 16222 059d 12       		.uleb128 0x12
 16223 059e 06       		.uleb128 0x6
 16224 059f 40       		.uleb128 0x40
 16225 05a0 18       		.uleb128 0x18
 16226 05a1 9642     		.uleb128 0x2116
 16227 05a3 19       		.uleb128 0x19
 16228 05a4 01       		.uleb128 0x1
 16229 05a5 13       		.uleb128 0x13
 16230 05a6 00       		.byte	0
 16231 05a7 00       		.byte	0
 16232 05a8 5E       		.uleb128 0x5e
 16233 05a9 05       		.uleb128 0x5
 16234 05aa 00       		.byte	0
 16235 05ab 03       		.uleb128 0x3
 16236 05ac 08       		.uleb128 0x8
 16237 05ad 3A       		.uleb128 0x3a
 16238 05ae 0B       		.uleb128 0xb
 16239 05af 3B       		.uleb128 0x3b
 16240 05b0 0B       		.uleb128 0xb
 16241 05b1 49       		.uleb128 0x49
 16242 05b2 13       		.uleb128 0x13
 16243 05b3 02       		.uleb128 0x2
 16244 05b4 18       		.uleb128 0x18
 16245 05b5 00       		.byte	0
 16246 05b6 00       		.byte	0
 16247 05b7 5F       		.uleb128 0x5f
 16248 05b8 0B       		.uleb128 0xb
 16249 05b9 01       		.byte	0x1
 16250 05ba 11       		.uleb128 0x11
 16251 05bb 01       		.uleb128 0x1
 16252 05bc 12       		.uleb128 0x12
 16253 05bd 06       		.uleb128 0x6
 16254 05be 00       		.byte	0
 16255 05bf 00       		.byte	0
ARM GAS  /tmp/ccB5ynkg.s 			page 288


 16256 05c0 60       		.uleb128 0x60
 16257 05c1 34       		.uleb128 0x34
 16258 05c2 00       		.byte	0
 16259 05c3 03       		.uleb128 0x3
 16260 05c4 08       		.uleb128 0x8
 16261 05c5 3A       		.uleb128 0x3a
 16262 05c6 0B       		.uleb128 0xb
 16263 05c7 3B       		.uleb128 0x3b
 16264 05c8 0B       		.uleb128 0xb
 16265 05c9 49       		.uleb128 0x49
 16266 05ca 13       		.uleb128 0x13
 16267 05cb 02       		.uleb128 0x2
 16268 05cc 18       		.uleb128 0x18
 16269 05cd 00       		.byte	0
 16270 05ce 00       		.byte	0
 16271 05cf 61       		.uleb128 0x61
 16272 05d0 2E       		.uleb128 0x2e
 16273 05d1 01       		.byte	0x1
 16274 05d2 47       		.uleb128 0x47
 16275 05d3 13       		.uleb128 0x13
 16276 05d4 3B       		.uleb128 0x3b
 16277 05d5 0B       		.uleb128 0xb
 16278 05d6 11       		.uleb128 0x11
 16279 05d7 01       		.uleb128 0x1
 16280 05d8 12       		.uleb128 0x12
 16281 05d9 06       		.uleb128 0x6
 16282 05da 40       		.uleb128 0x40
 16283 05db 18       		.uleb128 0x18
 16284 05dc 9642     		.uleb128 0x2116
 16285 05de 19       		.uleb128 0x19
 16286 05df 01       		.uleb128 0x1
 16287 05e0 13       		.uleb128 0x13
 16288 05e1 00       		.byte	0
 16289 05e2 00       		.byte	0
 16290 05e3 62       		.uleb128 0x62
 16291 05e4 2E       		.uleb128 0x2e
 16292 05e5 00       		.byte	0
 16293 05e6 47       		.uleb128 0x47
 16294 05e7 13       		.uleb128 0x13
 16295 05e8 3B       		.uleb128 0x3b
 16296 05e9 0B       		.uleb128 0xb
 16297 05ea 11       		.uleb128 0x11
 16298 05eb 01       		.uleb128 0x1
 16299 05ec 12       		.uleb128 0x12
 16300 05ed 06       		.uleb128 0x6
 16301 05ee 40       		.uleb128 0x40
 16302 05ef 18       		.uleb128 0x18
 16303 05f0 9642     		.uleb128 0x2116
 16304 05f2 19       		.uleb128 0x19
 16305 05f3 00       		.byte	0
 16306 05f4 00       		.byte	0
 16307 05f5 63       		.uleb128 0x63
 16308 05f6 2E       		.uleb128 0x2e
 16309 05f7 01       		.byte	0x1
 16310 05f8 47       		.uleb128 0x47
 16311 05f9 13       		.uleb128 0x13
 16312 05fa 3B       		.uleb128 0x3b
ARM GAS  /tmp/ccB5ynkg.s 			page 289


 16313 05fb 0B       		.uleb128 0xb
 16314 05fc 11       		.uleb128 0x11
 16315 05fd 01       		.uleb128 0x1
 16316 05fe 12       		.uleb128 0x12
 16317 05ff 06       		.uleb128 0x6
 16318 0600 40       		.uleb128 0x40
 16319 0601 18       		.uleb128 0x18
 16320 0602 64       		.uleb128 0x64
 16321 0603 13       		.uleb128 0x13
 16322 0604 9642     		.uleb128 0x2116
 16323 0606 19       		.uleb128 0x19
 16324 0607 01       		.uleb128 0x1
 16325 0608 13       		.uleb128 0x13
 16326 0609 00       		.byte	0
 16327 060a 00       		.byte	0
 16328 060b 64       		.uleb128 0x64
 16329 060c 05       		.uleb128 0x5
 16330 060d 00       		.byte	0
 16331 060e 03       		.uleb128 0x3
 16332 060f 0E       		.uleb128 0xe
 16333 0610 49       		.uleb128 0x49
 16334 0611 13       		.uleb128 0x13
 16335 0612 34       		.uleb128 0x34
 16336 0613 19       		.uleb128 0x19
 16337 0614 02       		.uleb128 0x2
 16338 0615 18       		.uleb128 0x18
 16339 0616 00       		.byte	0
 16340 0617 00       		.byte	0
 16341 0618 65       		.uleb128 0x65
 16342 0619 2E       		.uleb128 0x2e
 16343 061a 01       		.byte	0x1
 16344 061b 47       		.uleb128 0x47
 16345 061c 13       		.uleb128 0x13
 16346 061d 3B       		.uleb128 0x3b
 16347 061e 0B       		.uleb128 0xb
 16348 061f 11       		.uleb128 0x11
 16349 0620 01       		.uleb128 0x1
 16350 0621 12       		.uleb128 0x12
 16351 0622 06       		.uleb128 0x6
 16352 0623 40       		.uleb128 0x40
 16353 0624 18       		.uleb128 0x18
 16354 0625 64       		.uleb128 0x64
 16355 0626 13       		.uleb128 0x13
 16356 0627 9742     		.uleb128 0x2117
 16357 0629 19       		.uleb128 0x19
 16358 062a 01       		.uleb128 0x1
 16359 062b 13       		.uleb128 0x13
 16360 062c 00       		.byte	0
 16361 062d 00       		.byte	0
 16362 062e 66       		.uleb128 0x66
 16363 062f 05       		.uleb128 0x5
 16364 0630 00       		.byte	0
 16365 0631 03       		.uleb128 0x3
 16366 0632 0E       		.uleb128 0xe
 16367 0633 3A       		.uleb128 0x3a
 16368 0634 0B       		.uleb128 0xb
 16369 0635 3B       		.uleb128 0x3b
ARM GAS  /tmp/ccB5ynkg.s 			page 290


 16370 0636 0B       		.uleb128 0xb
 16371 0637 49       		.uleb128 0x49
 16372 0638 13       		.uleb128 0x13
 16373 0639 02       		.uleb128 0x2
 16374 063a 18       		.uleb128 0x18
 16375 063b 00       		.byte	0
 16376 063c 00       		.byte	0
 16377 063d 67       		.uleb128 0x67
 16378 063e 2E       		.uleb128 0x2e
 16379 063f 01       		.byte	0x1
 16380 0640 47       		.uleb128 0x47
 16381 0641 13       		.uleb128 0x13
 16382 0642 3B       		.uleb128 0x3b
 16383 0643 0B       		.uleb128 0xb
 16384 0644 20       		.uleb128 0x20
 16385 0645 0B       		.uleb128 0xb
 16386 0646 64       		.uleb128 0x64
 16387 0647 13       		.uleb128 0x13
 16388 0648 01       		.uleb128 0x1
 16389 0649 13       		.uleb128 0x13
 16390 064a 00       		.byte	0
 16391 064b 00       		.byte	0
 16392 064c 68       		.uleb128 0x68
 16393 064d 05       		.uleb128 0x5
 16394 064e 00       		.byte	0
 16395 064f 03       		.uleb128 0x3
 16396 0650 0E       		.uleb128 0xe
 16397 0651 49       		.uleb128 0x49
 16398 0652 13       		.uleb128 0x13
 16399 0653 34       		.uleb128 0x34
 16400 0654 19       		.uleb128 0x19
 16401 0655 00       		.byte	0
 16402 0656 00       		.byte	0
 16403 0657 69       		.uleb128 0x69
 16404 0658 2E       		.uleb128 0x2e
 16405 0659 01       		.byte	0x1
 16406 065a 31       		.uleb128 0x31
 16407 065b 13       		.uleb128 0x13
 16408 065c 6E       		.uleb128 0x6e
 16409 065d 0E       		.uleb128 0xe
 16410 065e 11       		.uleb128 0x11
 16411 065f 01       		.uleb128 0x1
 16412 0660 12       		.uleb128 0x12
 16413 0661 06       		.uleb128 0x6
 16414 0662 40       		.uleb128 0x40
 16415 0663 18       		.uleb128 0x18
 16416 0664 64       		.uleb128 0x64
 16417 0665 13       		.uleb128 0x13
 16418 0666 9742     		.uleb128 0x2117
 16419 0668 19       		.uleb128 0x19
 16420 0669 01       		.uleb128 0x1
 16421 066a 13       		.uleb128 0x13
 16422 066b 00       		.byte	0
 16423 066c 00       		.byte	0
 16424 066d 6A       		.uleb128 0x6a
 16425 066e 05       		.uleb128 0x5
 16426 066f 00       		.byte	0
ARM GAS  /tmp/ccB5ynkg.s 			page 291


 16427 0670 31       		.uleb128 0x31
 16428 0671 13       		.uleb128 0x13
 16429 0672 02       		.uleb128 0x2
 16430 0673 18       		.uleb128 0x18
 16431 0674 00       		.byte	0
 16432 0675 00       		.byte	0
 16433 0676 6B       		.uleb128 0x6b
 16434 0677 2E       		.uleb128 0x2e
 16435 0678 01       		.byte	0x1
 16436 0679 47       		.uleb128 0x47
 16437 067a 13       		.uleb128 0x13
 16438 067b 11       		.uleb128 0x11
 16439 067c 01       		.uleb128 0x1
 16440 067d 12       		.uleb128 0x12
 16441 067e 06       		.uleb128 0x6
 16442 067f 40       		.uleb128 0x40
 16443 0680 18       		.uleb128 0x18
 16444 0681 64       		.uleb128 0x64
 16445 0682 13       		.uleb128 0x13
 16446 0683 9642     		.uleb128 0x2116
 16447 0685 19       		.uleb128 0x19
 16448 0686 01       		.uleb128 0x1
 16449 0687 13       		.uleb128 0x13
 16450 0688 00       		.byte	0
 16451 0689 00       		.byte	0
 16452 068a 6C       		.uleb128 0x6c
 16453 068b 34       		.uleb128 0x34
 16454 068c 00       		.byte	0
 16455 068d 03       		.uleb128 0x3
 16456 068e 0E       		.uleb128 0xe
 16457 068f 3A       		.uleb128 0x3a
 16458 0690 0B       		.uleb128 0xb
 16459 0691 3B       		.uleb128 0x3b
 16460 0692 0B       		.uleb128 0xb
 16461 0693 49       		.uleb128 0x49
 16462 0694 13       		.uleb128 0x13
 16463 0695 02       		.uleb128 0x2
 16464 0696 18       		.uleb128 0x18
 16465 0697 00       		.byte	0
 16466 0698 00       		.byte	0
 16467 0699 6D       		.uleb128 0x6d
 16468 069a 2E       		.uleb128 0x2e
 16469 069b 00       		.byte	0
 16470 069c 47       		.uleb128 0x47
 16471 069d 13       		.uleb128 0x13
 16472 069e 3B       		.uleb128 0x3b
 16473 069f 0B       		.uleb128 0xb
 16474 06a0 11       		.uleb128 0x11
 16475 06a1 01       		.uleb128 0x1
 16476 06a2 12       		.uleb128 0x12
 16477 06a3 06       		.uleb128 0x6
 16478 06a4 40       		.uleb128 0x40
 16479 06a5 18       		.uleb128 0x18
 16480 06a6 9742     		.uleb128 0x2117
 16481 06a8 19       		.uleb128 0x19
 16482 06a9 00       		.byte	0
 16483 06aa 00       		.byte	0
ARM GAS  /tmp/ccB5ynkg.s 			page 292


 16484 06ab 6E       		.uleb128 0x6e
 16485 06ac 2E       		.uleb128 0x2e
 16486 06ad 01       		.byte	0x1
 16487 06ae 3F       		.uleb128 0x3f
 16488 06af 19       		.uleb128 0x19
 16489 06b0 03       		.uleb128 0x3
 16490 06b1 0E       		.uleb128 0xe
 16491 06b2 3A       		.uleb128 0x3a
 16492 06b3 0B       		.uleb128 0xb
 16493 06b4 3B       		.uleb128 0x3b
 16494 06b5 0B       		.uleb128 0xb
 16495 06b6 6E       		.uleb128 0x6e
 16496 06b7 0E       		.uleb128 0xe
 16497 06b8 11       		.uleb128 0x11
 16498 06b9 01       		.uleb128 0x1
 16499 06ba 12       		.uleb128 0x12
 16500 06bb 06       		.uleb128 0x6
 16501 06bc 40       		.uleb128 0x40
 16502 06bd 18       		.uleb128 0x18
 16503 06be 9642     		.uleb128 0x2116
 16504 06c0 19       		.uleb128 0x19
 16505 06c1 01       		.uleb128 0x1
 16506 06c2 13       		.uleb128 0x13
 16507 06c3 00       		.byte	0
 16508 06c4 00       		.byte	0
 16509 06c5 6F       		.uleb128 0x6f
 16510 06c6 2E       		.uleb128 0x2e
 16511 06c7 01       		.byte	0x1
 16512 06c8 3F       		.uleb128 0x3f
 16513 06c9 19       		.uleb128 0x19
 16514 06ca 03       		.uleb128 0x3
 16515 06cb 0E       		.uleb128 0xe
 16516 06cc 3A       		.uleb128 0x3a
 16517 06cd 0B       		.uleb128 0xb
 16518 06ce 3B       		.uleb128 0x3b
 16519 06cf 0B       		.uleb128 0xb
 16520 06d0 6E       		.uleb128 0x6e
 16521 06d1 0E       		.uleb128 0xe
 16522 06d2 49       		.uleb128 0x49
 16523 06d3 13       		.uleb128 0x13
 16524 06d4 11       		.uleb128 0x11
 16525 06d5 01       		.uleb128 0x1
 16526 06d6 12       		.uleb128 0x12
 16527 06d7 06       		.uleb128 0x6
 16528 06d8 40       		.uleb128 0x40
 16529 06d9 18       		.uleb128 0x18
 16530 06da 9642     		.uleb128 0x2116
 16531 06dc 19       		.uleb128 0x19
 16532 06dd 01       		.uleb128 0x1
 16533 06de 13       		.uleb128 0x13
 16534 06df 00       		.byte	0
 16535 06e0 00       		.byte	0
 16536 06e1 70       		.uleb128 0x70
 16537 06e2 2E       		.uleb128 0x2e
 16538 06e3 01       		.byte	0x1
 16539 06e4 47       		.uleb128 0x47
 16540 06e5 13       		.uleb128 0x13
ARM GAS  /tmp/ccB5ynkg.s 			page 293


 16541 06e6 20       		.uleb128 0x20
 16542 06e7 0B       		.uleb128 0xb
 16543 06e8 64       		.uleb128 0x64
 16544 06e9 13       		.uleb128 0x13
 16545 06ea 01       		.uleb128 0x1
 16546 06eb 13       		.uleb128 0x13
 16547 06ec 00       		.byte	0
 16548 06ed 00       		.byte	0
 16549 06ee 71       		.uleb128 0x71
 16550 06ef 05       		.uleb128 0x5
 16551 06f0 00       		.byte	0
 16552 06f1 03       		.uleb128 0x3
 16553 06f2 0E       		.uleb128 0xe
 16554 06f3 3A       		.uleb128 0x3a
 16555 06f4 0B       		.uleb128 0xb
 16556 06f5 3B       		.uleb128 0x3b
 16557 06f6 0B       		.uleb128 0xb
 16558 06f7 49       		.uleb128 0x49
 16559 06f8 13       		.uleb128 0x13
 16560 06f9 00       		.byte	0
 16561 06fa 00       		.byte	0
 16562 06fb 72       		.uleb128 0x72
 16563 06fc 2E       		.uleb128 0x2e
 16564 06fd 01       		.byte	0x1
 16565 06fe 47       		.uleb128 0x47
 16566 06ff 13       		.uleb128 0x13
 16567 0700 11       		.uleb128 0x11
 16568 0701 01       		.uleb128 0x1
 16569 0702 12       		.uleb128 0x12
 16570 0703 06       		.uleb128 0x6
 16571 0704 40       		.uleb128 0x40
 16572 0705 18       		.uleb128 0x18
 16573 0706 64       		.uleb128 0x64
 16574 0707 13       		.uleb128 0x13
 16575 0708 9742     		.uleb128 0x2117
 16576 070a 19       		.uleb128 0x19
 16577 070b 01       		.uleb128 0x1
 16578 070c 13       		.uleb128 0x13
 16579 070d 00       		.byte	0
 16580 070e 00       		.byte	0
 16581 070f 73       		.uleb128 0x73
 16582 0710 2E       		.uleb128 0x2e
 16583 0711 01       		.byte	0x1
 16584 0712 31       		.uleb128 0x31
 16585 0713 13       		.uleb128 0x13
 16586 0714 6E       		.uleb128 0x6e
 16587 0715 0E       		.uleb128 0xe
 16588 0716 11       		.uleb128 0x11
 16589 0717 01       		.uleb128 0x1
 16590 0718 12       		.uleb128 0x12
 16591 0719 06       		.uleb128 0x6
 16592 071a 40       		.uleb128 0x40
 16593 071b 18       		.uleb128 0x18
 16594 071c 64       		.uleb128 0x64
 16595 071d 13       		.uleb128 0x13
 16596 071e 9642     		.uleb128 0x2116
 16597 0720 19       		.uleb128 0x19
ARM GAS  /tmp/ccB5ynkg.s 			page 294


 16598 0721 01       		.uleb128 0x1
 16599 0722 13       		.uleb128 0x13
 16600 0723 00       		.byte	0
 16601 0724 00       		.byte	0
 16602 0725 74       		.uleb128 0x74
 16603 0726 2E       		.uleb128 0x2e
 16604 0727 01       		.byte	0x1
 16605 0728 47       		.uleb128 0x47
 16606 0729 13       		.uleb128 0x13
 16607 072a 3A       		.uleb128 0x3a
 16608 072b 0B       		.uleb128 0xb
 16609 072c 3B       		.uleb128 0x3b
 16610 072d 0B       		.uleb128 0xb
 16611 072e 20       		.uleb128 0x20
 16612 072f 0B       		.uleb128 0xb
 16613 0730 64       		.uleb128 0x64
 16614 0731 13       		.uleb128 0x13
 16615 0732 01       		.uleb128 0x1
 16616 0733 13       		.uleb128 0x13
 16617 0734 00       		.byte	0
 16618 0735 00       		.byte	0
 16619 0736 75       		.uleb128 0x75
 16620 0737 2E       		.uleb128 0x2e
 16621 0738 01       		.byte	0x1
 16622 0739 03       		.uleb128 0x3
 16623 073a 0E       		.uleb128 0xe
 16624 073b 3A       		.uleb128 0x3a
 16625 073c 0B       		.uleb128 0xb
 16626 073d 3B       		.uleb128 0x3b
 16627 073e 0B       		.uleb128 0xb
 16628 073f 49       		.uleb128 0x49
 16629 0740 13       		.uleb128 0x13
 16630 0741 11       		.uleb128 0x11
 16631 0742 01       		.uleb128 0x1
 16632 0743 12       		.uleb128 0x12
 16633 0744 06       		.uleb128 0x6
 16634 0745 40       		.uleb128 0x40
 16635 0746 18       		.uleb128 0x18
 16636 0747 9742     		.uleb128 0x2117
 16637 0749 19       		.uleb128 0x19
 16638 074a 01       		.uleb128 0x1
 16639 074b 13       		.uleb128 0x13
 16640 074c 00       		.byte	0
 16641 074d 00       		.byte	0
 16642 074e 76       		.uleb128 0x76
 16643 074f 2E       		.uleb128 0x2e
 16644 0750 01       		.byte	0x1
 16645 0751 03       		.uleb128 0x3
 16646 0752 0E       		.uleb128 0xe
 16647 0753 34       		.uleb128 0x34
 16648 0754 19       		.uleb128 0x19
 16649 0755 11       		.uleb128 0x11
 16650 0756 01       		.uleb128 0x1
 16651 0757 12       		.uleb128 0x12
 16652 0758 06       		.uleb128 0x6
 16653 0759 40       		.uleb128 0x40
 16654 075a 18       		.uleb128 0x18
ARM GAS  /tmp/ccB5ynkg.s 			page 295


 16655 075b 9642     		.uleb128 0x2116
 16656 075d 19       		.uleb128 0x19
 16657 075e 01       		.uleb128 0x1
 16658 075f 13       		.uleb128 0x13
 16659 0760 00       		.byte	0
 16660 0761 00       		.byte	0
 16661 0762 77       		.uleb128 0x77
 16662 0763 05       		.uleb128 0x5
 16663 0764 00       		.byte	0
 16664 0765 03       		.uleb128 0x3
 16665 0766 0E       		.uleb128 0xe
 16666 0767 3A       		.uleb128 0x3a
 16667 0768 0B       		.uleb128 0xb
 16668 0769 3B       		.uleb128 0x3b
 16669 076a 05       		.uleb128 0x5
 16670 076b 49       		.uleb128 0x49
 16671 076c 13       		.uleb128 0x13
 16672 076d 02       		.uleb128 0x2
 16673 076e 18       		.uleb128 0x18
 16674 076f 00       		.byte	0
 16675 0770 00       		.byte	0
 16676 0771 78       		.uleb128 0x78
 16677 0772 2E       		.uleb128 0x2e
 16678 0773 00       		.byte	0
 16679 0774 03       		.uleb128 0x3
 16680 0775 0E       		.uleb128 0xe
 16681 0776 34       		.uleb128 0x34
 16682 0777 19       		.uleb128 0x19
 16683 0778 11       		.uleb128 0x11
 16684 0779 01       		.uleb128 0x1
 16685 077a 12       		.uleb128 0x12
 16686 077b 06       		.uleb128 0x6
 16687 077c 40       		.uleb128 0x40
 16688 077d 18       		.uleb128 0x18
 16689 077e 9642     		.uleb128 0x2116
 16690 0780 19       		.uleb128 0x19
 16691 0781 00       		.byte	0
 16692 0782 00       		.byte	0
 16693 0783 79       		.uleb128 0x79
 16694 0784 34       		.uleb128 0x34
 16695 0785 00       		.byte	0
 16696 0786 03       		.uleb128 0x3
 16697 0787 0E       		.uleb128 0xe
 16698 0788 3A       		.uleb128 0x3a
 16699 0789 0B       		.uleb128 0xb
 16700 078a 3B       		.uleb128 0x3b
 16701 078b 0B       		.uleb128 0xb
 16702 078c 49       		.uleb128 0x49
 16703 078d 13       		.uleb128 0x13
 16704 078e 3F       		.uleb128 0x3f
 16705 078f 19       		.uleb128 0x19
 16706 0790 3C       		.uleb128 0x3c
 16707 0791 19       		.uleb128 0x19
 16708 0792 00       		.byte	0
 16709 0793 00       		.byte	0
 16710 0794 7A       		.uleb128 0x7a
 16711 0795 34       		.uleb128 0x34
ARM GAS  /tmp/ccB5ynkg.s 			page 296


 16712 0796 00       		.byte	0
 16713 0797 03       		.uleb128 0x3
 16714 0798 0E       		.uleb128 0xe
 16715 0799 3A       		.uleb128 0x3a
 16716 079a 0B       		.uleb128 0xb
 16717 079b 3B       		.uleb128 0x3b
 16718 079c 05       		.uleb128 0x5
 16719 079d 49       		.uleb128 0x49
 16720 079e 13       		.uleb128 0x13
 16721 079f 3F       		.uleb128 0x3f
 16722 07a0 19       		.uleb128 0x19
 16723 07a1 3C       		.uleb128 0x3c
 16724 07a2 19       		.uleb128 0x19
 16725 07a3 00       		.byte	0
 16726 07a4 00       		.byte	0
 16727 07a5 7B       		.uleb128 0x7b
 16728 07a6 34       		.uleb128 0x34
 16729 07a7 00       		.byte	0
 16730 07a8 03       		.uleb128 0x3
 16731 07a9 0E       		.uleb128 0xe
 16732 07aa 3A       		.uleb128 0x3a
 16733 07ab 0B       		.uleb128 0xb
 16734 07ac 3B       		.uleb128 0x3b
 16735 07ad 0B       		.uleb128 0xb
 16736 07ae 49       		.uleb128 0x49
 16737 07af 13       		.uleb128 0x13
 16738 07b0 3F       		.uleb128 0x3f
 16739 07b1 19       		.uleb128 0x19
 16740 07b2 02       		.uleb128 0x2
 16741 07b3 18       		.uleb128 0x18
 16742 07b4 00       		.byte	0
 16743 07b5 00       		.byte	0
 16744 07b6 7C       		.uleb128 0x7c
 16745 07b7 34       		.uleb128 0x34
 16746 07b8 00       		.byte	0
 16747 07b9 03       		.uleb128 0x3
 16748 07ba 0E       		.uleb128 0xe
 16749 07bb 49       		.uleb128 0x49
 16750 07bc 13       		.uleb128 0x13
 16751 07bd 3F       		.uleb128 0x3f
 16752 07be 19       		.uleb128 0x19
 16753 07bf 34       		.uleb128 0x34
 16754 07c0 19       		.uleb128 0x19
 16755 07c1 3C       		.uleb128 0x3c
 16756 07c2 19       		.uleb128 0x19
 16757 07c3 00       		.byte	0
 16758 07c4 00       		.byte	0
 16759 07c5 00       		.byte	0
 16760              		.section	.debug_aranges,"",%progbits
 16761 0000 2C020000 		.4byte	0x22c
 16762 0004 0200     		.2byte	0x2
 16763 0006 00000000 		.4byte	.Ldebug_info0
 16764 000a 04       		.byte	0x4
 16765 000b 00       		.byte	0
 16766 000c 0000     		.2byte	0
 16767 000e 0000     		.2byte	0
 16768 0010 00000000 		.4byte	.LFB118
ARM GAS  /tmp/ccB5ynkg.s 			page 297


 16769 0014 20000000 		.4byte	.LFE118-.LFB118
 16770 0018 00000000 		.4byte	.LFB130
 16771 001c 0E000000 		.4byte	.LFE130-.LFB130
 16772 0020 00000000 		.4byte	.LFB131
 16773 0024 0E000000 		.4byte	.LFE131-.LFB131
 16774 0028 00000000 		.4byte	.LFB138
 16775 002c 08000000 		.4byte	.LFE138-.LFB138
 16776 0030 00000000 		.4byte	.LFB139
 16777 0034 08000000 		.4byte	.LFE139-.LFB139
 16778 0038 00000000 		.4byte	.LFB237
 16779 003c 18000000 		.4byte	.LFE237-.LFB237
 16780 0040 00000000 		.4byte	.LFB257
 16781 0044 20000000 		.4byte	.LFE257-.LFB257
 16782 0048 00000000 		.4byte	.LFB263
 16783 004c 16000000 		.4byte	.LFE263-.LFB263
 16784 0050 00000000 		.4byte	.LFB277
 16785 0054 22000000 		.4byte	.LFE277-.LFB277
 16786 0058 00000000 		.4byte	.LFB293
 16787 005c 12000000 		.4byte	.LFE293-.LFB293
 16788 0060 00000000 		.4byte	.LFB295
 16789 0064 16000000 		.4byte	.LFE295-.LFB295
 16790 0068 00000000 		.4byte	.LFB304
 16791 006c 40000000 		.4byte	.LFE304-.LFB304
 16792 0070 00000000 		.4byte	.LFB305
 16793 0074 2A000000 		.4byte	.LFE305-.LFB305
 16794 0078 00000000 		.4byte	.LFB337
 16795 007c 0C000000 		.4byte	.LFE337-.LFB337
 16796 0080 00000000 		.4byte	.LFB341
 16797 0084 64000000 		.4byte	.LFE341-.LFB341
 16798 0088 00000000 		.4byte	.LFB348
 16799 008c 0C000000 		.4byte	.LFE348-.LFB348
 16800 0090 00000000 		.4byte	.LFB352
 16801 0094 12000000 		.4byte	.LFE352-.LFB352
 16802 0098 00000000 		.4byte	.LFB354
 16803 009c 0E000000 		.4byte	.LFE354-.LFB354
 16804 00a0 00000000 		.4byte	.LFB355
 16805 00a4 10000000 		.4byte	.LFE355-.LFB355
 16806 00a8 00000000 		.4byte	.LFB356
 16807 00ac 3C000000 		.4byte	.LFE356-.LFB356
 16808 00b0 00000000 		.4byte	.LFB362
 16809 00b4 18000000 		.4byte	.LFE362-.LFB362
 16810 00b8 00000000 		.4byte	.LFB363
 16811 00bc 18000000 		.4byte	.LFE363-.LFB363
 16812 00c0 00000000 		.4byte	.LFB364
 16813 00c4 18000000 		.4byte	.LFE364-.LFB364
 16814 00c8 00000000 		.4byte	.LFB381
 16815 00cc 24000000 		.4byte	.LFE381-.LFB381
 16816 00d0 00000000 		.4byte	.LFB382
 16817 00d4 30000000 		.4byte	.LFE382-.LFB382
 16818 00d8 00000000 		.4byte	.LFB386
 16819 00dc 1A000000 		.4byte	.LFE386-.LFB386
 16820 00e0 00000000 		.4byte	.LFB392
 16821 00e4 1A000000 		.4byte	.LFE392-.LFB392
 16822 00e8 00000000 		.4byte	.LFB393
 16823 00ec 3C000000 		.4byte	.LFE393-.LFB393
 16824 00f0 00000000 		.4byte	.LFB394
 16825 00f4 56000000 		.4byte	.LFE394-.LFB394
ARM GAS  /tmp/ccB5ynkg.s 			page 298


 16826 00f8 00000000 		.4byte	.LFB413
 16827 00fc 28000000 		.4byte	.LFE413-.LFB413
 16828 0100 00000000 		.4byte	.LFB598
 16829 0104 32000000 		.4byte	.LFE598-.LFB598
 16830 0108 00000000 		.4byte	.LFB599
 16831 010c 36000000 		.4byte	.LFE599-.LFB599
 16832 0110 00000000 		.4byte	.LFB600
 16833 0114 38020000 		.4byte	.LFE600-.LFB600
 16834 0118 00000000 		.4byte	.LFB601
 16835 011c B0000000 		.4byte	.LFE601-.LFB601
 16836 0120 00000000 		.4byte	.LFB602
 16837 0124 9C000000 		.4byte	.LFE602-.LFB602
 16838 0128 00000000 		.4byte	.LFB603
 16839 012c 40000000 		.4byte	.LFE603-.LFB603
 16840 0130 00000000 		.4byte	.LFB604
 16841 0134 DC000000 		.4byte	.LFE604-.LFB604
 16842 0138 00000000 		.4byte	.LFB605
 16843 013c C0000000 		.4byte	.LFE605-.LFB605
 16844 0140 00000000 		.4byte	.LFB607
 16845 0144 14000000 		.4byte	.LFE607-.LFB607
 16846 0148 00000000 		.4byte	.LFB615
 16847 014c 0E000000 		.4byte	.LFE615-.LFB615
 16848 0150 00000000 		.4byte	.LFB616
 16849 0154 5E000000 		.4byte	.LFE616-.LFB616
 16850 0158 00000000 		.4byte	.LFB617
 16851 015c 60000000 		.4byte	.LFE617-.LFB617
 16852 0160 00000000 		.4byte	.LFB628
 16853 0164 24000000 		.4byte	.LFE628-.LFB628
 16854 0168 00000000 		.4byte	.LFB631
 16855 016c 24000000 		.4byte	.LFE631-.LFB631
 16856 0170 00000000 		.4byte	.LFB635
 16857 0174 18000000 		.4byte	.LFE635-.LFB635
 16858 0178 00000000 		.4byte	.LFB637
 16859 017c 48000000 		.4byte	.LFE637-.LFB637
 16860 0180 00000000 		.4byte	.LFB639
 16861 0184 28000000 		.4byte	.LFE639-.LFB639
 16862 0188 00000000 		.4byte	.LFB640
 16863 018c 1C000000 		.4byte	.LFE640-.LFB640
 16864 0190 00000000 		.4byte	.LFB641
 16865 0194 48000000 		.4byte	.LFE641-.LFB641
 16866 0198 00000000 		.4byte	.LFB642
 16867 019c 1E000000 		.4byte	.LFE642-.LFB642
 16868 01a0 00000000 		.4byte	.LFB643
 16869 01a4 2A000000 		.4byte	.LFE643-.LFB643
 16870 01a8 00000000 		.4byte	.LFB644
 16871 01ac 1C000000 		.4byte	.LFE644-.LFB644
 16872 01b0 00000000 		.4byte	.LFB645
 16873 01b4 1E000000 		.4byte	.LFE645-.LFB645
 16874 01b8 00000000 		.4byte	.LFB646
 16875 01bc 28000000 		.4byte	.LFE646-.LFB646
 16876 01c0 00000000 		.4byte	.LFB647
 16877 01c4 1C000000 		.4byte	.LFE647-.LFB647
 16878 01c8 00000000 		.4byte	.LFB648
 16879 01cc 1E000000 		.4byte	.LFE648-.LFB648
 16880 01d0 00000000 		.4byte	.LFB652
 16881 01d4 30000000 		.4byte	.LFE652-.LFB652
 16882 01d8 00000000 		.4byte	.LFB655
ARM GAS  /tmp/ccB5ynkg.s 			page 299


 16883 01dc 30000000 		.4byte	.LFE655-.LFB655
 16884 01e0 00000000 		.4byte	.LFB657
 16885 01e4 1C000000 		.4byte	.LFE657-.LFB657
 16886 01e8 00000000 		.4byte	.LFB659
 16887 01ec C4000000 		.4byte	.LFE659-.LFB659
 16888 01f0 00000000 		.4byte	.LFB661
 16889 01f4 30000000 		.4byte	.LFE661-.LFB661
 16890 01f8 00000000 		.4byte	.LFB663
 16891 01fc 1C000000 		.4byte	.LFE663-.LFB663
 16892 0200 00000000 		.4byte	.LFB665
 16893 0204 30000000 		.4byte	.LFE665-.LFB665
 16894 0208 00000000 		.4byte	.LFB667
 16895 020c 1C000000 		.4byte	.LFE667-.LFB667
 16896 0210 00000000 		.4byte	.LFB669
 16897 0214 30000000 		.4byte	.LFE669-.LFB669
 16898 0218 00000000 		.4byte	.LFB671
 16899 021c 1C000000 		.4byte	.LFE671-.LFB671
 16900 0220 00000000 		.4byte	.LFB672
 16901 0224 0E000000 		.4byte	.LFE672-.LFB672
 16902 0228 00000000 		.4byte	0
 16903 022c 00000000 		.4byte	0
 16904              		.section	.debug_ranges,"",%progbits
 16905              	.Ldebug_ranges0:
 16906 0000 00000000 		.4byte	.LFB118
 16907 0004 20000000 		.4byte	.LFE118
 16908 0008 00000000 		.4byte	.LFB130
 16909 000c 0E000000 		.4byte	.LFE130
 16910 0010 00000000 		.4byte	.LFB131
 16911 0014 0E000000 		.4byte	.LFE131
 16912 0018 00000000 		.4byte	.LFB138
 16913 001c 08000000 		.4byte	.LFE138
 16914 0020 00000000 		.4byte	.LFB139
 16915 0024 08000000 		.4byte	.LFE139
 16916 0028 00000000 		.4byte	.LFB237
 16917 002c 18000000 		.4byte	.LFE237
 16918 0030 00000000 		.4byte	.LFB257
 16919 0034 20000000 		.4byte	.LFE257
 16920 0038 00000000 		.4byte	.LFB263
 16921 003c 16000000 		.4byte	.LFE263
 16922 0040 00000000 		.4byte	.LFB277
 16923 0044 22000000 		.4byte	.LFE277
 16924 0048 00000000 		.4byte	.LFB293
 16925 004c 12000000 		.4byte	.LFE293
 16926 0050 00000000 		.4byte	.LFB295
 16927 0054 16000000 		.4byte	.LFE295
 16928 0058 00000000 		.4byte	.LFB304
 16929 005c 40000000 		.4byte	.LFE304
 16930 0060 00000000 		.4byte	.LFB305
 16931 0064 2A000000 		.4byte	.LFE305
 16932 0068 00000000 		.4byte	.LFB337
 16933 006c 0C000000 		.4byte	.LFE337
 16934 0070 00000000 		.4byte	.LFB341
 16935 0074 64000000 		.4byte	.LFE341
 16936 0078 00000000 		.4byte	.LFB348
 16937 007c 0C000000 		.4byte	.LFE348
 16938 0080 00000000 		.4byte	.LFB352
 16939 0084 12000000 		.4byte	.LFE352
ARM GAS  /tmp/ccB5ynkg.s 			page 300


 16940 0088 00000000 		.4byte	.LFB354
 16941 008c 0E000000 		.4byte	.LFE354
 16942 0090 00000000 		.4byte	.LFB355
 16943 0094 10000000 		.4byte	.LFE355
 16944 0098 00000000 		.4byte	.LFB356
 16945 009c 3C000000 		.4byte	.LFE356
 16946 00a0 00000000 		.4byte	.LFB362
 16947 00a4 18000000 		.4byte	.LFE362
 16948 00a8 00000000 		.4byte	.LFB363
 16949 00ac 18000000 		.4byte	.LFE363
 16950 00b0 00000000 		.4byte	.LFB364
 16951 00b4 18000000 		.4byte	.LFE364
 16952 00b8 00000000 		.4byte	.LFB381
 16953 00bc 24000000 		.4byte	.LFE381
 16954 00c0 00000000 		.4byte	.LFB382
 16955 00c4 30000000 		.4byte	.LFE382
 16956 00c8 00000000 		.4byte	.LFB386
 16957 00cc 1A000000 		.4byte	.LFE386
 16958 00d0 00000000 		.4byte	.LFB392
 16959 00d4 1A000000 		.4byte	.LFE392
 16960 00d8 00000000 		.4byte	.LFB393
 16961 00dc 3C000000 		.4byte	.LFE393
 16962 00e0 00000000 		.4byte	.LFB394
 16963 00e4 56000000 		.4byte	.LFE394
 16964 00e8 00000000 		.4byte	.LFB413
 16965 00ec 28000000 		.4byte	.LFE413
 16966 00f0 00000000 		.4byte	.LFB598
 16967 00f4 32000000 		.4byte	.LFE598
 16968 00f8 00000000 		.4byte	.LFB599
 16969 00fc 36000000 		.4byte	.LFE599
 16970 0100 00000000 		.4byte	.LFB600
 16971 0104 38020000 		.4byte	.LFE600
 16972 0108 00000000 		.4byte	.LFB601
 16973 010c B0000000 		.4byte	.LFE601
 16974 0110 00000000 		.4byte	.LFB602
 16975 0114 9C000000 		.4byte	.LFE602
 16976 0118 00000000 		.4byte	.LFB603
 16977 011c 40000000 		.4byte	.LFE603
 16978 0120 00000000 		.4byte	.LFB604
 16979 0124 DC000000 		.4byte	.LFE604
 16980 0128 00000000 		.4byte	.LFB605
 16981 012c C0000000 		.4byte	.LFE605
 16982 0130 00000000 		.4byte	.LFB607
 16983 0134 14000000 		.4byte	.LFE607
 16984 0138 00000000 		.4byte	.LFB615
 16985 013c 0E000000 		.4byte	.LFE615
 16986 0140 00000000 		.4byte	.LFB616
 16987 0144 5E000000 		.4byte	.LFE616
 16988 0148 00000000 		.4byte	.LFB617
 16989 014c 60000000 		.4byte	.LFE617
 16990 0150 00000000 		.4byte	.LFB628
 16991 0154 24000000 		.4byte	.LFE628
 16992 0158 00000000 		.4byte	.LFB631
 16993 015c 24000000 		.4byte	.LFE631
 16994 0160 00000000 		.4byte	.LFB635
 16995 0164 18000000 		.4byte	.LFE635
 16996 0168 00000000 		.4byte	.LFB637
ARM GAS  /tmp/ccB5ynkg.s 			page 301


 16997 016c 48000000 		.4byte	.LFE637
 16998 0170 00000000 		.4byte	.LFB639
 16999 0174 28000000 		.4byte	.LFE639
 17000 0178 00000000 		.4byte	.LFB640
 17001 017c 1C000000 		.4byte	.LFE640
 17002 0180 00000000 		.4byte	.LFB641
 17003 0184 48000000 		.4byte	.LFE641
 17004 0188 00000000 		.4byte	.LFB642
 17005 018c 1E000000 		.4byte	.LFE642
 17006 0190 00000000 		.4byte	.LFB643
 17007 0194 2A000000 		.4byte	.LFE643
 17008 0198 00000000 		.4byte	.LFB644
 17009 019c 1C000000 		.4byte	.LFE644
 17010 01a0 00000000 		.4byte	.LFB645
 17011 01a4 1E000000 		.4byte	.LFE645
 17012 01a8 00000000 		.4byte	.LFB646
 17013 01ac 28000000 		.4byte	.LFE646
 17014 01b0 00000000 		.4byte	.LFB647
 17015 01b4 1C000000 		.4byte	.LFE647
 17016 01b8 00000000 		.4byte	.LFB648
 17017 01bc 1E000000 		.4byte	.LFE648
 17018 01c0 00000000 		.4byte	.LFB652
 17019 01c4 30000000 		.4byte	.LFE652
 17020 01c8 00000000 		.4byte	.LFB655
 17021 01cc 30000000 		.4byte	.LFE655
 17022 01d0 00000000 		.4byte	.LFB657
 17023 01d4 1C000000 		.4byte	.LFE657
 17024 01d8 00000000 		.4byte	.LFB659
 17025 01dc C4000000 		.4byte	.LFE659
 17026 01e0 00000000 		.4byte	.LFB661
 17027 01e4 30000000 		.4byte	.LFE661
 17028 01e8 00000000 		.4byte	.LFB663
 17029 01ec 1C000000 		.4byte	.LFE663
 17030 01f0 00000000 		.4byte	.LFB665
 17031 01f4 30000000 		.4byte	.LFE665
 17032 01f8 00000000 		.4byte	.LFB667
 17033 01fc 1C000000 		.4byte	.LFE667
 17034 0200 00000000 		.4byte	.LFB669
 17035 0204 30000000 		.4byte	.LFE669
 17036 0208 00000000 		.4byte	.LFB671
 17037 020c 1C000000 		.4byte	.LFE671
 17038 0210 00000000 		.4byte	.LFB672
 17039 0214 0E000000 		.4byte	.LFE672
 17040 0218 00000000 		.4byte	0
 17041 021c 00000000 		.4byte	0
 17042              		.section	.debug_line,"",%progbits
 17043              	.Ldebug_line0:
 17044 0000 FF0C0000 		.section	.debug_str,"MS",%progbits,1
 17044      0200C606 
 17044      00000201 
 17044      FB0E0D00 
 17044      01010101 
 17045              	.LASF143:
 17046 0000 5553425F 		.ascii	"USB_STOP\000"
 17046      53544F50 
 17046      00
 17047              	.LASF277:
ARM GAS  /tmp/ccB5ynkg.s 			page 302


 17048 0009 416C6C6F 		.ascii	"Allocator\000"
 17048      6361746F 
 17048      7200
 17049              	.LASF481:
 17050 0013 5F5A4E4B 		.ascii	"_ZNK3r2p5Topic13is_forwardingEv\000"
 17050      33723270 
 17050      35546F70 
 17050      69633133 
 17050      69735F66 
 17051              	.LASF217:
 17052 0033 6576656E 		.ascii	"event\000"
 17052      7400
 17053              	.LASF66:
 17054 0039 696E7463 		.ascii	"intctx\000"
 17054      747800
 17055              	.LASF447:
 17056 0040 5F5A4E4B 		.ascii	"_ZNK3r2p10StaticListINS_5TopicEE5countEv\000"
 17056      33723270 
 17056      31305374 
 17056      61746963 
 17056      4C697374 
 17057              	.LASF856:
 17058 0069 7368656C 		.ascii	"shell_node\000"
 17058      6C5F6E6F 
 17058      646500
 17059              	.LASF369:
 17060 0074 5F5A4E4B 		.ascii	"_ZNK3r2p10StaticListINS_15LocalSubscriberEE5countEv"
 17060      33723270 
 17060      31305374 
 17060      61746963 
 17060      4C697374 
 17061 00a7 00       		.ascii	"\000"
 17062              	.LASF652:
 17063 00a8 5F5A4E4B 		.ascii	"_ZNK3r2p6Thread8get_nameEv\000"
 17063      33723270 
 17063      36546872 
 17063      65616438 
 17063      6765745F 
 17064              	.LASF31:
 17065 00c3 6D73675F 		.ascii	"msg_t\000"
 17065      7400
 17066              	.LASF353:
 17067 00c9 5F5A4E4B 		.ascii	"_ZNK3r2p10StaticListINS_15LocalSubscriberEE17find_f"
 17067      33723270 
 17067      31305374 
 17067      61746963 
 17067      4C697374 
 17068 00fc 69727374 		.ascii	"irst_unsafeEPFbRKS1_E\000"
 17068      5F756E73 
 17068      61666545 
 17068      50466252 
 17068      4B53315F 
 17069              	.LASF560:
 17070 0112 53746174 		.ascii	"StaticList<r2p::LocalPublisher>\000"
 17070      69634C69 
 17070      73743C72 
 17070      32703A3A 
ARM GAS  /tmp/ccB5ynkg.s 			page 303


 17070      4C6F6361 
 17071              	.LASF677:
 17072 0132 5F5A4E4B 		.ascii	"_ZNK3r2p9SpinEvent10get_threadEv\000"
 17072      33723270 
 17072      39537069 
 17072      6E457665 
 17072      6E743130 
 17073              	.LASF553:
 17074 0153 5F5A4E33 		.ascii	"_ZN3r2p7Message16get_payload_sizeEj\000"
 17074      72327037 
 17074      4D657373 
 17074      61676531 
 17074      36676574 
 17075              	.LASF467:
 17076 0177 72656D6F 		.ascii	"remote_subscribers\000"
 17076      74655F73 
 17076      75627363 
 17076      72696265 
 17076      727300
 17077              	.LASF558:
 17078 018a 52656D6F 		.ascii	"RemotePublisher\000"
 17078      74655075 
 17078      626C6973 
 17078      68657200 
 17079              	.LASF562:
 17080 019a 5F5A4E33 		.ascii	"_ZN3r2p10StaticListINS_14LocalPublisherEE13ConstIte"
 17080      72327031 
 17080      30537461 
 17080      7469634C 
 17080      69737449 
 17081 01cd 7261746F 		.ascii	"ratoraSERKS3_\000"
 17081      72615345 
 17081      524B5333 
 17081      5F00
 17082              	.LASF527:
 17083 01db 5F5A4E33 		.ascii	"_ZN3r2p5Topic9advertiseERNS_15RemotePublisherERKNS_"
 17083      72327035 
 17083      546F7069 
 17083      63396164 
 17083      76657274 
 17084 020e 3454696D 		.ascii	"4TimeE\000"
 17084      654500
 17085              	.LASF3:
 17086 0215 5F5F7569 		.ascii	"__uint8_t\000"
 17086      6E74385F 
 17086      7400
 17087              	.LASF740:
 17088 021f 5F5A4E33 		.ascii	"_ZN3r2p4Node6notifyEj\000"
 17088      72327034 
 17088      4E6F6465 
 17088      366E6F74 
 17088      69667945 
 17089              	.LASF666:
 17090 0235 6765745F 		.ascii	"get_thread\000"
 17090      74687265 
 17090      616400
 17091              	.LASF544:
ARM GAS  /tmp/ccB5ynkg.s 			page 304


 17092 0240 5F5A4E33 		.ascii	"_ZN3r2p7Message12reset_unsafeEv\000"
 17092      72327037 
 17092      4D657373 
 17092      61676531 
 17092      32726573 
 17093              	.LASF591:
 17094 0260 5F5A4E4B 		.ascii	"_ZNK3r2p10StaticListINS_14LocalPublisherEE8index_of"
 17094      33723270 
 17094      31305374 
 17094      61746963 
 17094      4C697374 
 17095 0293 45524B53 		.ascii	"ERKS1_\000"
 17095      315F00
 17096              	.LASF803:
 17097 029a 6E6F7469 		.ascii	"notify_advertised\000"
 17097      66795F61 
 17097      64766572 
 17097      74697365 
 17097      6400
 17098              	.LASF685:
 17099 02ac 5F5A4E4B 		.ascii	"_ZNK3r2p10StaticListINS_4NodeEE13ConstIteratordeEv\000"
 17099      33723270 
 17099      31305374 
 17099      61746963 
 17099      4C697374 
 17100              	.LASF697:
 17101 02df 5F5A4E4B 		.ascii	"_ZNK3r2p10StaticListINS_4NodeEE15index_of_unsafeERK"
 17101      33723270 
 17101      31305374 
 17101      61746963 
 17101      4C697374 
 17102 0312 53315F00 		.ascii	"S1_\000"
 17103              	.LASF907:
 17104 0316 73746174 		.ascii	"static_cast_check<r2p::PixyMsg, r2p::Message>\000"
 17104      69635F63 
 17104      6173745F 
 17104      63686563 
 17104      6B3C7232 
 17105              	.LASF781:
 17106 0344 7E426173 		.ascii	"~BaseSubscriber\000"
 17106      65537562 
 17106      73637269 
 17106      62657200 
 17107              	.LASF737:
 17108 0354 6E6F7469 		.ascii	"notify_stop_unsafe\000"
 17108      66795F73 
 17108      746F705F 
 17108      756E7361 
 17108      666500
 17109              	.LASF894:
 17110 0367 70697879 		.ascii	"pixy_first_time\000"
 17110      5F666972 
 17110      73745F74 
 17110      696D6500 
 17111              	.LASF87:
 17112 0377 6D656D67 		.ascii	"memgetfunc_t\000"
 17112      65746675 
ARM GAS  /tmp/ccB5ynkg.s 			page 305


 17112      6E635F74 
 17112      00
 17113              	.LASF715:
 17114 0384 5F5A4E4B 		.ascii	"_ZNK3r2p10StaticListINS_4NodeEE10find_firstEPFbRKS1"
 17114      33723270 
 17114      31305374 
 17114      61746963 
 17114      4C697374 
 17115 03b7 5F504B76 		.ascii	"_PKvES6_\000"
 17115      4553365F 
 17115      00
 17116              	.LASF446:
 17117 03c0 5F5A4E4B 		.ascii	"_ZNK3r2p10StaticListINS_5TopicEE8is_emptyEv\000"
 17117      33723270 
 17117      31305374 
 17117      61746963 
 17117      4C697374 
 17118              	.LASF823:
 17119 03ec 5F5A4E33 		.ascii	"_ZN3r2p9PublisherINS_9Speed3MsgEE7publishEPS1_\000"
 17119      72327039 
 17119      5075626C 
 17119      69736865 
 17119      72494E53 
 17120              	.LASF538:
 17121 041b 6765745F 		.ascii	"get_raw_data\000"
 17121      7261775F 
 17121      64617461 
 17121      00
 17122              	.LASF667:
 17123 0428 5F5A4E4B 		.ascii	"_ZNK3r2p10SpinEvent_10get_threadEv\000"
 17123      33723270 
 17123      31305370 
 17123      696E4576 
 17123      656E745F 
 17124              	.LASF439:
 17125 044b 5F5A4E33 		.ascii	"_ZN3r2p10StaticListINS_5TopicEE12begin_unsafeEv\000"
 17125      72327031 
 17125      30537461 
 17125      7469634C 
 17125      69737449 
 17126              	.LASF521:
 17127 047b 666F7277 		.ascii	"forward_copy\000"
 17127      6172645F 
 17127      636F7079 
 17127      00
 17128              	.LASF79:
 17129 0488 6D5F6E65 		.ascii	"m_next\000"
 17129      787400
 17130              	.LASF706:
 17131 048f 5F5A4E4B 		.ascii	"_ZNK3r2p10StaticListINS_4NodeEE14restart_unsafeERNS"
 17131      33723270 
 17131      31305374 
 17131      61746963 
 17131      4C697374 
 17132 04c2 325F3139 		.ascii	"2_19ConstIteratorUnsafeE\000"
 17132      436F6E73 
 17132      74497465 
ARM GAS  /tmp/ccB5ynkg.s 			page 306


 17132      7261746F 
 17132      72556E73 
 17133              	.LASF700:
 17134 04db 5F5A4E4B 		.ascii	"_ZNK3r2p10StaticListINS_4NodeEE17find_first_unsafeE"
 17134      33723270 
 17134      31305374 
 17134      61746963 
 17134      4C697374 
 17135 050e 50466252 		.ascii	"PFbRKS1_PKvES6_\000"
 17135      4B53315F 
 17135      504B7645 
 17135      53365F00 
 17136              	.LASF110:
 17137 051e 72656164 		.ascii	"read\000"
 17137      00
 17138              	.LASF241:
 17139 0523 73635F63 		.ascii	"sc_channel\000"
 17139      68616E6E 
 17139      656C00
 17140              	.LASF286:
 17141 052e 746F5F73 		.ascii	"to_s_raw\000"
 17141      5F726177 
 17141      00
 17142              	.LASF674:
 17143 0537 77616974 		.ascii	"wait\000"
 17143      00
 17144              	.LASF691:
 17145 053c 5F5A4E4B 		.ascii	"_ZNK3r2p10StaticListINS_4NodeEE15get_head_unsafeEv\000"
 17145      33723270 
 17145      31305374 
 17145      61746963 
 17145      4C697374 
 17146              	.LASF394:
 17147 056f 5F5A4E33 		.ascii	"_ZN3r2p15LocalSubscriber12fetch_unsafeERPNS_7Messag"
 17147      72327031 
 17147      354C6F63 
 17147      616C5375 
 17147      62736372 
 17148 05a2 6545524E 		.ascii	"eERNS_4TimeE\000"
 17148      535F3454 
 17148      696D6545 
 17148      00
 17149              	.LASF20:
 17150 05af 75696E74 		.ascii	"uint16_t\000"
 17150      31365F74 
 17150      00
 17151              	.LASF698:
 17152 05b8 5F5A4E4B 		.ascii	"_ZNK3r2p10StaticListINS_4NodeEE15contains_unsafeERK"
 17152      33723270 
 17152      31305374 
 17152      61746963 
 17152      4C697374 
 17153 05eb 53315F00 		.ascii	"S1_\000"
 17154              	.LASF680:
 17155 05ef 5F5A4E33 		.ascii	"_ZN3r2p9SpinEvent6signalEj\000"
 17155      72327039 
 17155      5370696E 
ARM GAS  /tmp/ccB5ynkg.s 			page 307


 17155      4576656E 
 17155      74367369 
 17156              	.LASF208:
 17157 060a 736F665F 		.ascii	"sof_cb\000"
 17157      636200
 17158              	.LASF551:
 17159 0611 6765745F 		.ascii	"get_msg_from_raw_data\000"
 17159      6D73675F 
 17159      66726F6D 
 17159      5F726177 
 17159      5F646174 
 17160              	.LASF404:
 17161 0627 5F5A4E4B 		.ascii	"_ZNK3r2p10StaticListINS_16RemoteSubscriberEE17find_"
 17161      33723270 
 17161      31305374 
 17161      61746963 
 17161      4C697374 
 17162 065a 66697273 		.ascii	"first_unsafeEPFbRKS1_E\000"
 17162      745F756E 
 17162      73616665 
 17162      45504662 
 17162      524B5331 
 17163              	.LASF450:
 17164 0671 5F5A4E4B 		.ascii	"_ZNK3r2p10StaticListINS_5TopicEE8index_ofERKS1_\000"
 17164      33723270 
 17164      31305374 
 17164      61746963 
 17164      4C697374 
 17165              	.LASF603:
 17166 06a1 6C656E67 		.ascii	"length\000"
 17166      746800
 17167              	.LASF610:
 17168 06a8 6765745F 		.ascii	"get_length\000"
 17168      6C656E67 
 17168      746800
 17169              	.LASF81:
 17170 06b3 656C5F6E 		.ascii	"el_next\000"
 17170      65787400 
 17171              	.LASF130:
 17172 06bb 696E5F70 		.ascii	"in_params\000"
 17172      6172616D 
 17172      7300
 17173              	.LASF811:
 17174 06c5 5F5A4E33 		.ascii	"_ZN3r2p13BasePublisher23publish_remotely_unsafeERNS"
 17174      72327031 
 17174      33426173 
 17174      65507562 
 17174      6C697368 
 17175 06f8 5F374D65 		.ascii	"_7MessageE\000"
 17175      73736167 
 17175      654500
 17176              	.LASF309:
 17177 0703 54696D65 		.ascii	"Time<long int>\000"
 17177      3C6C6F6E 
 17177      6720696E 
 17177      743E00
 17178              	.LASF817:
ARM GAS  /tmp/ccB5ynkg.s 			page 308


 17179 0712 5F5A4E33 		.ascii	"_ZN3r2p13BasePublisher16publish_remotelyERNS_7Messa"
 17179      72327031 
 17179      33426173 
 17179      65507562 
 17179      6C697368 
 17180 0745 67654500 		.ascii	"geE\000"
 17181              	.LASF44:
 17182 0749 705F6E65 		.ascii	"p_newer\000"
 17182      77657200 
 17183              	.LASF484:
 17184 0751 6861735F 		.ascii	"has_remote_publishers\000"
 17184      72656D6F 
 17184      74655F70 
 17184      75626C69 
 17184      73686572 
 17185              	.LASF861:
 17186 0767 5F5A4E33 		.ascii	"_ZN3r2p4TimeC2IlEET_\000"
 17186      72327034 
 17186      54696D65 
 17186      4332496C 
 17186      4545545F 
 17187              	.LASF589:
 17188 077c 5F5A4E33 		.ascii	"_ZN3r2p10StaticListINS_14LocalPublisherEE4linkERNS2"
 17188      72327031 
 17188      30537461 
 17188      7469634C 
 17188      69737449 
 17189 07af 5F344C69 		.ascii	"_4LinkE\000"
 17189      6E6B4500 
 17190              	.LASF871:
 17191 07b7 5F5A4E33 		.ascii	"_ZN3r2p16SubscriberExtBufINS_7PixyMsgEED2Ev\000"
 17191      72327031 
 17191      36537562 
 17191      73637269 
 17191      62657245 
 17192              	.LASF407:
 17193 07e3 5F5A4E33 		.ascii	"_ZN3r2p10StaticListINS_16RemoteSubscriberEE10end_un"
 17193      72327031 
 17193      30537461 
 17193      7469634C 
 17193      69737449 
 17194 0816 73616665 		.ascii	"safeEv\000"
 17194      457600
 17195              	.LASF293:
 17196 081d 5F5A4E4B 		.ascii	"_ZNK3r2p4Time5to_msEv\000"
 17196      33723270 
 17196      3454696D 
 17196      6535746F 
 17196      5F6D7345 
 17197              	.LASF672:
 17198 0833 7369676E 		.ascii	"signal\000"
 17198      616C00
 17199              	.LASF782:
 17200 083a 7E537562 		.ascii	"~Subscriber\000"
 17200      73637269 
 17200      62657200 
 17201              	.LASF112:
ARM GAS  /tmp/ccB5ynkg.s 			page 309


 17202 0846 42617365 		.ascii	"BaseSequentialStream\000"
 17202      53657175 
 17202      656E7469 
 17202      616C5374 
 17202      7265616D 
 17203              	.LASF636:
 17204 085b 5F5A4E33 		.ascii	"_ZN3r2p7Thread_4selfEv\000"
 17204      72327037 
 17204      54687265 
 17204      61645F34 
 17204      73656C66 
 17205              	.LASF897:
 17206 0872 636F6D6D 		.ascii	"commands\000"
 17206      616E6473 
 17206      00
 17207              	.LASF536:
 17208 087b 52656663 		.ascii	"RefcountType\000"
 17208      6F756E74 
 17208      54797065 
 17208      00
 17209              	.LASF409:
 17210 0888 5F5A4E4B 		.ascii	"_ZNK3r2p10StaticListINS_16RemoteSubscriberEE12begin"
 17210      33723270 
 17210      31305374 
 17210      61746963 
 17210      4C697374 
 17211 08bb 5F756E73 		.ascii	"_unsafeEv\000"
 17211      61666545 
 17211      7600
 17212              	.LASF400:
 17213 08c5 5F5A4E33 		.ascii	"_ZN3r2p10StaticListINS_16RemoteSubscriberEE16link_t"
 17213      72327031 
 17213      30537461 
 17213      7469634C 
 17213      69737449 
 17214 08f8 61696C5F 		.ascii	"ail_unsafeERNS2_4LinkE\000"
 17214      756E7361 
 17214      66654552 
 17214      4E53325F 
 17214      344C696E 
 17215              	.LASF592:
 17216 090f 5F5A4E4B 		.ascii	"_ZNK3r2p10StaticListINS_14LocalPublisherEE8contains"
 17216      33723270 
 17216      31305374 
 17216      61746963 
 17216      4C697374 
 17217 0942 45524B53 		.ascii	"ERKS1_\000"
 17217      315F00
 17218              	.LASF732:
 17219 0949 5F5A4E4B 		.ascii	"_ZNK3r2p4Node11get_enabledEv\000"
 17219      33723270 
 17219      344E6F64 
 17219      65313167 
 17219      65745F65 
 17220              	.LASF546:
 17221 0966 5F5A4E33 		.ascii	"_ZN3r2p7Message7releaseEv\000"
 17221      72327037 
ARM GAS  /tmp/ccB5ynkg.s 			page 310


 17221      4D657373 
 17221      61676537 
 17221      72656C65 
 17222              	.LASF25:
 17223 0980 626F6F6C 		.ascii	"bool\000"
 17223      00
 17224              	.LASF900:
 17225 0985 474E5520 		.ascii	"GNU C++ 4.9.3 20141119 (release) [ARM/embedded-4_9-"
 17225      432B2B20 
 17225      342E392E 
 17225      33203230 
 17225      31343131 
 17226 09b8 6272616E 		.ascii	"branch revision 218278] -mcpu=cortex-m4 -mfloat-abi"
 17226      63682072 
 17226      65766973 
 17226      696F6E20 
 17226      32313832 
 17227 09eb 3D686172 		.ascii	"=hard -mfpu=fpv4-sp-d16 -mno-thumb-interwork -mthum"
 17227      64202D6D 
 17227      6670753D 
 17227      66707634 
 17227      2D73702D 
 17228 0a1e 62202D67 		.ascii	"b -ggdb -O0 -fomit-frame-pointer -falign-functions="
 17228      67646220 
 17228      2D4F3020 
 17228      2D666F6D 
 17228      69742D66 
 17229 0a51 3136202D 		.ascii	"16 -ffunction-sections -fdata-sections -fno-common "
 17229      6666756E 
 17229      6374696F 
 17229      6E2D7365 
 17229      6374696F 
 17230 0a84 2D667369 		.ascii	"-fsingle-precision-constant -fno-rtti -fno-exceptio"
 17230      6E676C65 
 17230      2D707265 
 17230      63697369 
 17230      6F6E2D63 
 17231 0ab7 6E73202D 		.ascii	"ns -fno-threadsafe-statics\000"
 17231      666E6F2D 
 17231      74687265 
 17231      61647361 
 17231      66652D73 
 17232              	.LASF116:
 17233 0ad2 4F545950 		.ascii	"OTYPER\000"
 17233      455200
 17234              	.LASF526:
 17235 0ad9 5F5A4E33 		.ascii	"_ZN3r2p5Topic9advertiseERNS_14LocalPublisherERKNS_4"
 17235      72327035 
 17235      546F7069 
 17235      63396164 
 17235      76657274 
 17236 0b0c 54696D65 		.ascii	"TimeE\000"
 17236      4500
 17237              	.LASF244:
 17238 0b12 73747263 		.ascii	"strcoll\000"
 17238      6F6C6C00 
 17239              	.LASF841:
ARM GAS  /tmp/ccB5ynkg.s 			page 311


 17240 0b1a 5F5A3139 		.ascii	"_Z19usb_lld_connect_busP9USBDriver\000"
 17240      7573625F 
 17240      6C6C645F 
 17240      636F6E6E 
 17240      6563745F 
 17241              	.LASF814:
 17242 0b3d 7075626C 		.ascii	"publish_locally\000"
 17242      6973685F 
 17242      6C6F6361 
 17242      6C6C7900 
 17243              	.LASF699:
 17244 0b4d 5F5A4E4B 		.ascii	"_ZNK3r2p10StaticListINS_4NodeEE17find_first_unsafeE"
 17244      33723270 
 17244      31305374 
 17244      61746963 
 17244      4C697374 
 17245 0b80 50466252 		.ascii	"PFbRKS1_E\000"
 17245      4B53315F 
 17245      4500
 17246              	.LASF21:
 17247 0b8a 696E7433 		.ascii	"int32_t\000"
 17247      325F7400 
 17248              	.LASF690:
 17249 0b92 5F5A4E4B 		.ascii	"_ZNK3r2p10StaticListINS_4NodeEE13ConstIterator8is_v"
 17249      33723270 
 17249      31305374 
 17249      61746963 
 17249      4C697374 
 17250 0bc5 616C6964 		.ascii	"alidEv\000"
 17250      457600
 17251              	.LASF509:
 17252 0bcc 666F7277 		.ascii	"forward_copy_unsafe\000"
 17252      6172645F 
 17252      636F7079 
 17252      5F756E73 
 17252      61666500 
 17253              	.LASF34:
 17254 0be0 73797374 		.ascii	"systime_t\000"
 17254      696D655F 
 17254      7400
 17255              	.LASF818:
 17256 0bea 7E426173 		.ascii	"~BasePublisher\000"
 17256      65507562 
 17256      6C697368 
 17256      657200
 17257              	.LASF779:
 17258 0bf9 43616C6C 		.ascii	"Callback\000"
 17258      6261636B 
 17258      00
 17259              	.LASF574:
 17260 0c02 5F5A4E33 		.ascii	"_ZN3r2p10StaticListINS_14LocalPublisherEE16link_tai"
 17260      72327031 
 17260      30537461 
 17260      7469634C 
 17260      69737449 
 17261 0c35 6C5F756E 		.ascii	"l_unsafeERNS2_4LinkE\000"
 17261      73616665 
ARM GAS  /tmp/ccB5ynkg.s 			page 312


 17261      45524E53 
 17261      325F344C 
 17261      696E6B45 
 17262              	.LASF638:
 17263 0c4a 7365745F 		.ascii	"set_priority\000"
 17263      7072696F 
 17263      72697479 
 17263      00
 17264              	.LASF587:
 17265 0c57 5F5A4E4B 		.ascii	"_ZNK3r2p10StaticListINS_14LocalPublisherEE8is_empty"
 17265      33723270 
 17265      31305374 
 17265      61746963 
 17265      4C697374 
 17266 0c8a 457600   		.ascii	"Ev\000"
 17267              	.LASF83:
 17268 0c8d 656C5F6D 		.ascii	"el_mask\000"
 17268      61736B00 
 17269              	.LASF701:
 17270 0c95 5F5A4E33 		.ascii	"_ZN3r2p10StaticListINS_4NodeEE12begin_unsafeEv\000"
 17270      72327031 
 17270      30537461 
 17270      7469634C 
 17270      69737449 
 17271              	.LASF721:
 17272 0cc4 5F5A4E4B 		.ascii	"_ZNK3r2p10StaticListINS_4NodeEE7restartERNS2_13Cons"
 17272      33723270 
 17272      31305374 
 17272      61746963 
 17272      4C697374 
 17273 0cf7 74497465 		.ascii	"tIteratorE\000"
 17273      7261746F 
 17273      724500
 17274              	.LASF456:
 17275 0d02 5F5A4E33 		.ascii	"_ZN3r2p10StaticListINS_5TopicEE7restartERNS2_8Itera"
 17275      72327031 
 17275      30537461 
 17275      7469634C 
 17275      69737449 
 17276 0d35 746F7245 		.ascii	"torE\000"
 17276      00
 17277              	.LASF758:
 17278 0d3a 6765745F 		.ascii	"get_topic\000"
 17278      746F7069 
 17278      6300
 17279              	.LASF717:
 17280 0d44 5F5A4E33 		.ascii	"_ZN3r2p10StaticListINS_4NodeEE3endEv\000"
 17280      72327031 
 17280      30537461 
 17280      7469634C 
 17280      69737449 
 17281              	.LASF354:
 17282 0d69 5F5A4E4B 		.ascii	"_ZNK3r2p10StaticListINS_15LocalSubscriberEE17find_f"
 17282      33723270 
 17282      31305374 
 17282      61746963 
 17282      4C697374 
ARM GAS  /tmp/ccB5ynkg.s 			page 313


 17283 0d9c 69727374 		.ascii	"irst_unsafeEPFbRKS1_PKvES6_\000"
 17283      5F756E73 
 17283      61666545 
 17283      50466252 
 17283      4B53315F 
 17284              	.LASF840:
 17285 0db8 7573625F 		.ascii	"usb_lld_connect_bus\000"
 17285      6C6C645F 
 17285      636F6E6E 
 17285      6563745F 
 17285      62757300 
 17286              	.LASF105:
 17287 0dcc 716E6F74 		.ascii	"qnotify_t\000"
 17287      6966795F 
 17287      7400
 17288              	.LASF795:
 17289 0dd6 5F5A4E33 		.ascii	"_ZN3r2p9PublisherINS_9PIDCfgMsgEE5allocERPS1_\000"
 17289      72327039 
 17289      5075626C 
 17289      69736865 
 17289      72494E53 
 17290              	.LASF763:
 17291 0e04 5F5A4E33 		.ascii	"_ZN3r2p14BaseSubscriber13notify_unsafeERNS_7Message"
 17291      72327031 
 17291      34426173 
 17291      65537562 
 17291      73637269 
 17292 0e37 45524B4E 		.ascii	"ERKNS_4TimeE\000"
 17292      535F3454 
 17292      696D6545 
 17292      00
 17293              	.LASF485:
 17294 0e44 5F5A4E4B 		.ascii	"_ZNK3r2p5Topic21has_remote_publishersEv\000"
 17294      33723270 
 17294      35546F70 
 17294      69633231 
 17294      6861735F 
 17295              	.LASF892:
 17296 0e6c 70697879 		.ascii	"pixy_node\000"
 17296      5F6E6F64 
 17296      6500
 17297              	.LASF451:
 17298 0e76 5F5A4E4B 		.ascii	"_ZNK3r2p10StaticListINS_5TopicEE8containsERKS1_\000"
 17298      33723270 
 17298      31305374 
 17298      61746963 
 17298      4C697374 
 17299              	.LASF100:
 17300 0ea6 715F746F 		.ascii	"q_top\000"
 17300      7000
 17301              	.LASF166:
 17302 0eac 75645F73 		.ascii	"ud_string\000"
 17302      7472696E 
 17302      6700
 17303              	.LASF539:
 17304 0eb6 5F5A4E4B 		.ascii	"_ZNK3r2p7Message12get_raw_dataEv\000"
 17304      33723270 
ARM GAS  /tmp/ccB5ynkg.s 			page 314


 17304      374D6573 
 17304      73616765 
 17304      31326765 
 17305              	.LASF135:
 17306 0ed7 65703065 		.ascii	"ep0endcb\000"
 17306      6E646362 
 17306      00
 17307              	.LASF491:
 17308 0ee0 5F5A4E4B 		.ascii	"_ZNK3r2p5Topic22has_remote_subscribersEv\000"
 17308      33723270 
 17308      35546F70 
 17308      69633232 
 17308      6861735F 
 17309              	.LASF465:
 17310 0f09 6E756D5F 		.ascii	"num_remote_publishers\000"
 17310      72656D6F 
 17310      74655F70 
 17310      75626C69 
 17310      73686572 
 17311              	.LASF776:
 17312 0f1f 53756273 		.ascii	"Subscriber<r2p::PixyMsg, 5u>\000"
 17312      63726962 
 17312      65723C72 
 17312      32703A3A 
 17312      50697879 
 17313              	.LASF581:
 17314 0f3c 5F5A4E33 		.ascii	"_ZN3r2p10StaticListINS_14LocalPublisherEE10end_unsa"
 17314      72327031 
 17314      30537461 
 17314      7469634C 
 17314      69737449 
 17315 0f6f 66654576 		.ascii	"feEv\000"
 17315      00
 17316              	.LASF333:
 17317 0f74 5F5A4E4B 		.ascii	"_ZNK3r2p10StaticListINS_15LocalSubscriberEE13ConstI"
 17317      33723270 
 17317      31305374 
 17317      61746963 
 17317      4C697374 
 17318 0fa7 74657261 		.ascii	"terator8is_validEv\000"
 17318      746F7238 
 17318      69735F76 
 17318      616C6964 
 17318      457600
 17319              	.LASF223:
 17320 0fba 62756C6B 		.ascii	"bulk_out\000"
 17320      5F6F7574 
 17320      00
 17321              	.LASF113:
 17322 0fc3 31324750 		.ascii	"12GPIO_TypeDef\000"
 17322      494F5F54 
 17322      79706544 
 17322      656600
 17323              	.LASF169:
 17324 0fd2 75736265 		.ascii	"usbepcallback_t\000"
 17324      7063616C 
 17324      6C626163 
ARM GAS  /tmp/ccB5ynkg.s 			page 315


 17324      6B5F7400 
 17325              	.LASF355:
 17326 0fe2 62656769 		.ascii	"begin_unsafe\000"
 17326      6E5F756E 
 17326      73616665 
 17326      00
 17327              	.LASF787:
 17328 0fef 6765745F 		.ascii	"get_callback\000"
 17328      63616C6C 
 17328      6261636B 
 17328      00
 17329              	.LASF493:
 17330 0ffc 5F5A4E4B 		.ascii	"_ZNK3r2p5Topic15has_subscribersEv\000"
 17330      33723270 
 17330      35546F70 
 17330      69633135 
 17330      6861735F 
 17331              	.LASF269:
 17332 101e 66726565 		.ascii	"free\000"
 17332      00
 17333              	.LASF291:
 17334 1023 5F5A4E4B 		.ascii	"_ZNK3r2p4Time5to_usEv\000"
 17334      33723270 
 17334      3454696D 
 17334      6535746F 
 17334      5F757345 
 17335              	.LASF389:
 17336 1039 53746174 		.ascii	"StaticList\000"
 17336      69634C69 
 17336      737400
 17337              	.LASF475:
 17338 1044 5F5A4E4B 		.ascii	"_ZNK3r2p5Topic13get_type_sizeEv\000"
 17338      33723270 
 17338      35546F70 
 17338      69633133 
 17338      6765745F 
 17339              	.LASF53:
 17340 1064 705F7761 		.ascii	"p_waiting\000"
 17340      6974696E 
 17340      6700
 17341              	.LASF503:
 17342 106e 5F5A4E33 		.ascii	"_ZN3r2p5Topic14release_unsafeERNS_7MessageE\000"
 17342      72327035 
 17342      546F7069 
 17342      63313472 
 17342      656C6561 
 17343              	.LASF809:
 17344 109a 5F5A4E33 		.ascii	"_ZN3r2p13BasePublisher22publish_locally_unsafeERNS_"
 17344      72327031 
 17344      33426173 
 17344      65507562 
 17344      6C697368 
 17345 10cd 374D6573 		.ascii	"7MessageE\000"
 17345      73616765 
 17345      4500
 17346              	.LASF97:
 17347 10d7 715F7761 		.ascii	"q_waiting\000"
ARM GAS  /tmp/ccB5ynkg.s 			page 316


 17347      6974696E 
 17347      6700
 17348              	.LASF881:
 17349 10e1 726C6973 		.ascii	"rlist\000"
 17349      7400
 17350              	.LASF514:
 17351 10e7 5F5A4E33 		.ascii	"_ZN3r2p5Topic5allocEv\000"
 17351      72327035 
 17351      546F7069 
 17351      6335616C 
 17351      6C6F6345 
 17352              	.LASF303:
 17353 10fd 5F5A4E33 		.ascii	"_ZN3r2p4TimemIERKS0_\000"
 17353      72327034 
 17353      54696D65 
 17353      6D494552 
 17353      4B53305F 
 17354              	.LASF650:
 17355 1112 48494748 		.ascii	"HIGHEST\000"
 17355      45535400 
 17356              	.LASF189:
 17357 111a 7278706B 		.ascii	"rxpkts\000"
 17357      747300
 17358              	.LASF186:
 17359 1121 72787175 		.ascii	"rxqueued\000"
 17359      65756564 
 17359      00
 17360              	.LASF62:
 17361 112a 31315468 		.ascii	"11ThreadsList\000"
 17361      72656164 
 17361      734C6973 
 17361      7400
 17362              	.LASF855:
 17363 1138 636D645F 		.ascii	"cmd_pidcfg\000"
 17363      70696463 
 17363      666700
 17364              	.LASF555:
 17365 1143 4C6F6361 		.ascii	"LocalPublisher\000"
 17365      6C507562 
 17365      6C697368 
 17365      657200
 17366              	.LASF431:
 17367 1152 5F5A4E4B 		.ascii	"_ZNK3r2p10StaticListINS_5TopicEE12count_unsafeEv\000"
 17367      33723270 
 17367      31305374 
 17367      61746963 
 17367      4C697374 
 17368              	.LASF873:
 17369 1183 5F5F696E 		.ascii	"__initialize_p\000"
 17369      69746961 
 17369      6C697A65 
 17369      5F7000
 17370              	.LASF783:
 17371 1192 4D657373 		.ascii	"MessageType\000"
 17371      61676554 
 17371      79706500 
 17372              	.LASF543:
ARM GAS  /tmp/ccB5ynkg.s 			page 317


 17373 119e 72657365 		.ascii	"reset_unsafe\000"
 17373      745F756E 
 17373      73616665 
 17373      00
 17374              	.LASF270:
 17375 11ab 5F5A4E33 		.ascii	"_ZN3r2p11MemoryPool_11free_unsafeEPv\000"
 17375      72327031 
 17375      314D656D 
 17375      6F727950 
 17375      6F6F6C5F 
 17376              	.LASF808:
 17377 11d0 7075626C 		.ascii	"publish_locally_unsafe\000"
 17377      6973685F 
 17377      6C6F6361 
 17377      6C6C795F 
 17377      756E7361 
 17378              	.LASF383:
 17379 11e7 72657374 		.ascii	"restart\000"
 17379      61727400 
 17380              	.LASF288:
 17381 11ef 746F5F6D 		.ascii	"to_m_raw\000"
 17381      5F726177 
 17381      00
 17382              	.LASF807:
 17383 11f8 5F5A4E33 		.ascii	"_ZN3r2p13BasePublisher14publish_unsafeERNS_7Message"
 17383      72327031 
 17383      33426173 
 17383      65507562 
 17383      6C697368 
 17384 122b 4500     		.ascii	"E\000"
 17385              	.LASF852:
 17386 122d 636D645F 		.ascii	"cmd_pixy\000"
 17386      70697879 
 17386      00
 17387              	.LASF30:
 17388 1236 74707269 		.ascii	"tprio_t\000"
 17388      6F5F7400 
 17389              	.LASF92:
 17390 123e 6D705F6F 		.ascii	"mp_object_size\000"
 17390      626A6563 
 17390      745F7369 
 17390      7A6500
 17391              	.LASF335:
 17392 124d 4D617463 		.ascii	"Matches\000"
 17392      68657300 
 17393              	.LASF832:
 17394 1255 6D736770 		.ascii	"msgp\000"
 17394      00
 17395              	.LASF669:
 17396 125a 5F5A4E33 		.ascii	"_ZN3r2p10SpinEvent_10set_threadEPNS_6ThreadE\000"
 17396      72327031 
 17396      30537069 
 17396      6E457665 
 17396      6E745F31 
 17397              	.LASF609:
 17398 1287 5F5A4E33 		.ascii	"_ZN3r2p10ArrayQueueIPNS_7MessageEE11skip_unsafeEv\000"
 17398      72327031 
ARM GAS  /tmp/ccB5ynkg.s 			page 318


 17398      30417272 
 17398      61795175 
 17398      65756549 
 17399              	.LASF345:
 17400 12b9 5F5A4E33 		.ascii	"_ZN3r2p10StaticListINS_15LocalSubscriberEE16link_ta"
 17400      72327031 
 17400      30537461 
 17400      7469634C 
 17400      69737449 
 17401 12ec 696C5F75 		.ascii	"il_unsafeERNS2_4LinkE\000"
 17401      6E736166 
 17401      6545524E 
 17401      53325F34 
 17401      4C696E6B 
 17402              	.LASF523:
 17403 1302 65787465 		.ascii	"extend_pool\000"
 17403      6E645F70 
 17403      6F6F6C00 
 17404              	.LASF94:
 17405 130e 4D656D6F 		.ascii	"MemoryPool\000"
 17405      7279506F 
 17405      6F6C00
 17406              	.LASF136:
 17407 1319 73657475 		.ascii	"setup\000"
 17407      7000
 17408              	.LASF314:
 17409 131f 68656164 		.ascii	"headp\000"
 17409      7000
 17410              	.LASF788:
 17411 1325 5F5A4E4B 		.ascii	"_ZNK3r2p16SubscriberExtBufINS_7PixyMsgEE12get_callb"
 17411      33723270 
 17411      31365375 
 17411      62736372 
 17411      69626572 
 17412 1358 61636B45 		.ascii	"ackEv\000"
 17412      7600
 17413              	.LASF777:
 17414 135e 6D736770 		.ascii	"msgpool_buf\000"
 17414      6F6F6C5F 
 17414      62756600 
 17415              	.LASF216:
 17416 136a 53657269 		.ascii	"SerialUSBDriver\000"
 17416      616C5553 
 17416      42447269 
 17416      76657200 
 17417              	.LASF214:
 17418 137a 5344555F 		.ascii	"SDU_READY\000"
 17418      52454144 
 17418      5900
 17419              	.LASF372:
 17420 1384 756E6C69 		.ascii	"unlink\000"
 17420      6E6B00
 17421              	.LASF323:
 17422 138b 6F706572 		.ascii	"operator*\000"
 17422      61746F72 
 17422      2A00
 17423              	.LASF801:
ARM GAS  /tmp/ccB5ynkg.s 			page 319


 17424 1395 5F767074 		.ascii	"_vptr.BasePublisher\000"
 17424      722E4261 
 17424      73655075 
 17424      626C6973 
 17424      68657200 
 17425              	.LASF253:
 17426 13a9 5F5A4E33 		.ascii	"_ZN3r2p8SysLock_7acquireEv\000"
 17426      72327038 
 17426      5379734C 
 17426      6F636B5F 
 17426      37616371 
 17427              	.LASF95:
 17428 13c4 7466756E 		.ascii	"tfunc_t\000"
 17428      635F7400 
 17429              	.LASF887:
 17430 13cc 76656C5F 		.ascii	"vel_pub\000"
 17430      70756200 
 17431              	.LASF5:
 17432 13d4 5F5F696E 		.ascii	"__int16_t\000"
 17432      7431365F 
 17432      7400
 17433              	.LASF298:
 17434 13de 6F706572 		.ascii	"operator=\000"
 17434      61746F72 
 17434      3D00
 17435              	.LASF7:
 17436 13e8 5F5F7569 		.ascii	"__uint16_t\000"
 17436      6E743136 
 17436      5F7400
 17437              	.LASF890:
 17438 13f3 70696463 		.ascii	"pidcfg_pub\000"
 17438      66675F70 
 17438      756200
 17439              	.LASF178:
 17440 13fe 74787175 		.ascii	"txqueued\000"
 17440      65756564 
 17440      00
 17441              	.LASF55:
 17442 1407 705F6D73 		.ascii	"p_msg\000"
 17442      6700
 17443              	.LASF557:
 17444 140d 7E4C6F63 		.ascii	"~LocalPublisher\000"
 17444      616C5075 
 17444      626C6973 
 17444      68657200 
 17445              	.LASF441:
 17446 141d 5F5A4E33 		.ascii	"_ZN3r2p10StaticListINS_5TopicEE14restart_unsafeERNS"
 17446      72327031 
 17446      30537461 
 17446      7469634C 
 17446      69737449 
 17447 1450 325F3134 		.ascii	"2_14IteratorUnsafeE\000"
 17447      49746572 
 17447      61746F72 
 17447      556E7361 
 17447      66654500 
 17448              	.LASF318:
ARM GAS  /tmp/ccB5ynkg.s 			page 320


 17449 1464 63757270 		.ascii	"curp\000"
 17449      00
 17450              	.LASF659:
 17451 1469 5F5A4E33 		.ascii	"_ZN3r2p6Thread5yieldEv\000"
 17451      72327036 
 17451      54687265 
 17451      61643579 
 17451      69656C64 
 17452              	.LASF215:
 17453 1480 73647573 		.ascii	"sdustate_t\000"
 17453      74617465 
 17453      5F7400
 17454              	.LASF172:
 17455 148b 75736267 		.ascii	"usbgetdescriptor_t\000"
 17455      65746465 
 17455      73637269 
 17455      70746F72 
 17455      5F7400
 17456              	.LASF577:
 17457 149e 5F5A4E4B 		.ascii	"_ZNK3r2p10StaticListINS_14LocalPublisherEE15contain"
 17457      33723270 
 17457      31305374 
 17457      61746963 
 17457      4C697374 
 17458 14d1 735F756E 		.ascii	"s_unsafeERKS1_\000"
 17458      73616665 
 17458      45524B53 
 17458      315F00
 17459              	.LASF421:
 17460 14e0 5F5A4E33 		.ascii	"_ZN3r2p10StaticListINS_16RemoteSubscriberEE5beginEv"
 17460      72327031 
 17460      30537461 
 17460      7469634C 
 17460      69737449 
 17461 1513 00       		.ascii	"\000"
 17462              	.LASF146:
 17463 1514 5553425F 		.ascii	"USB_ACTIVE\000"
 17463      41435449 
 17463      564500
 17464              	.LASF602:
 17465 151f 61727261 		.ascii	"arrayp\000"
 17465      797000
 17466              	.LASF295:
 17467 1526 5F5A4E4B 		.ascii	"_ZNK3r2p4Time4to_sEv\000"
 17467      33723270 
 17467      3454696D 
 17467      6534746F 
 17467      5F734576 
 17468              	.LASF422:
 17469 153b 5F5A4E33 		.ascii	"_ZN3r2p10StaticListINS_16RemoteSubscriberEE3endEv\000"
 17469      72327031 
 17469      30537461 
 17469      7469634C 
 17469      69737449 
 17470              	.LASF663:
 17471 156d 74687265 		.ascii	"threadp\000"
 17471      61647000 
ARM GAS  /tmp/ccB5ynkg.s 			page 321


 17472              	.LASF181:
 17473 1575 6D6F6465 		.ascii	"mode\000"
 17473      00
 17474              	.LASF231:
 17475 157a 5F5F676E 		.ascii	"__gnuc_va_list\000"
 17475      75635F76 
 17475      615F6C69 
 17475      737400
 17476              	.LASF670:
 17477 1589 7369676E 		.ascii	"signal_unsafe\000"
 17477      616C5F75 
 17477      6E736166 
 17477      6500
 17478              	.LASF884:
 17479 1597 75736263 		.ascii	"usbcfg\000"
 17479      666700
 17480              	.LASF266:
 17481 159e 66726565 		.ascii	"free_unsafe\000"
 17481      5F756E73 
 17481      61666500 
 17482              	.LASF65:
 17483 15aa 73746B61 		.ascii	"stkalign_t\000"
 17483      6C69676E 
 17483      5F7400
 17484              	.LASF123:
 17485 15b5 4750494F 		.ascii	"GPIO_TypeDef\000"
 17485      5F547970 
 17485      65446566 
 17485      00
 17486              	.LASF745:
 17487 15c2 5F5A4E33 		.ascii	"_ZN3r2p4Node9advertiseERNS_14LocalPublisherEPKcRKNS"
 17487      72327034 
 17487      4E6F6465 
 17487      39616476 
 17487      65727469 
 17488 15f5 5F345469 		.ascii	"_4TimeEj\000"
 17488      6D65456A 
 17488      00
 17489              	.LASF380:
 17490 15fe 5F5A4E4B 		.ascii	"_ZNK3r2p10StaticListINS_15LocalSubscriberEE10find_f"
 17490      33723270 
 17490      31305374 
 17490      61746963 
 17490      4C697374 
 17491 1631 69727374 		.ascii	"irstEPFbRKS1_PKvES6_\000"
 17491      45504662 
 17491      524B5331 
 17491      5F504B76 
 17491      4553365F 
 17492              	.LASF193:
 17493 1646 73657475 		.ascii	"setup_cb\000"
 17493      705F6362 
 17493      00
 17494              	.LASF4:
 17495 164f 756E7369 		.ascii	"unsigned char\000"
 17495      676E6564 
 17495      20636861 
ARM GAS  /tmp/ccB5ynkg.s 			page 322


 17495      7200
 17496              	.LASF175:
 17497 165d 74787175 		.ascii	"txqueue\000"
 17497      65756500 
 17498              	.LASF275:
 17499 1665 5F5A4E33 		.ascii	"_ZN3r2p11MemoryPool_8get_implEv\000"
 17499      72327031 
 17499      314D656D 
 17499      6F727950 
 17499      6F6F6C5F 
 17500              	.LASF646:
 17501 1685 52454144 		.ascii	"READY\000"
 17501      5900
 17502              	.LASF736:
 17503 168b 5F5A4E33 		.ascii	"_ZN3r2p4Node13notify_unsafeEj\000"
 17503      72327034 
 17503      4E6F6465 
 17503      31336E6F 
 17503      74696679 
 17504              	.LASF490:
 17505 16a9 6861735F 		.ascii	"has_remote_subscribers\000"
 17505      72656D6F 
 17505      74655F73 
 17505      75627363 
 17505      72696265 
 17506              	.LASF829:
 17507 16c0 666C6F61 		.ascii	"float\000"
 17507      7400
 17508              	.LASF618:
 17509 16c6 736B6970 		.ascii	"skip\000"
 17509      00
 17510              	.LASF754:
 17511 16cb 5F5A4E33 		.ascii	"_ZN3r2p4Node9advertiseINS_9PIDCfgMsgEEEbRNS_9Publis"
 17511      72327034 
 17511      4E6F6465 
 17511      39616476 
 17511      65727469 
 17512 16fe 68657249 		.ascii	"herIT_EEPKcRKNS_4TimeE\000"
 17512      545F4545 
 17512      504B6352 
 17512      4B4E535F 
 17512      3454696D 
 17513              	.LASF254:
 17514 1715 5F5A4E33 		.ascii	"_ZN3r2p8SysLock_7releaseEv\000"
 17514      72327038 
 17514      5379734C 
 17514      6F636B5F 
 17514      3772656C 
 17515              	.LASF541:
 17516 1730 5F5A4E33 		.ascii	"_ZN3r2p7Message14acquire_unsafeEv\000"
 17516      72327037 
 17516      4D657373 
 17516      61676531 
 17516      34616371 
 17517              	.LASF385:
 17518 1752 5F5A4E4B 		.ascii	"_ZNK3r2p10StaticListINS_15LocalSubscriberEE5beginEv"
 17518      33723270 
ARM GAS  /tmp/ccB5ynkg.s 			page 323


 17518      31305374 
 17518      61746963 
 17518      4C697374 
 17519 1785 00       		.ascii	"\000"
 17520              	.LASF423:
 17521 1786 5F5A4E33 		.ascii	"_ZN3r2p10StaticListINS_16RemoteSubscriberEE7restart"
 17521      72327031 
 17521      30537461 
 17521      7469634C 
 17521      69737449 
 17522 17b9 45524E53 		.ascii	"ERNS2_8IteratorE\000"
 17522      325F3849 
 17522      74657261 
 17522      746F7245 
 17522      00
 17523              	.LASF886:
 17524 17ca 76656C5F 		.ascii	"vel_node\000"
 17524      6E6F6465 
 17524      00
 17525              	.LASF906:
 17526 17d3 5072696F 		.ascii	"PriorityEnum\000"
 17526      72697479 
 17526      456E756D 
 17526      00
 17527              	.LASF88:
 17528 17e0 706F6F6C 		.ascii	"pool_header\000"
 17528      5F686561 
 17528      64657200 
 17529              	.LASF662:
 17530 17ec 5370696E 		.ascii	"SpinEvent_\000"
 17530      4576656E 
 17530      745F00
 17531              	.LASF626:
 17532 17f7 636F6D70 		.ascii	"compute_stack_size\000"
 17532      7574655F 
 17532      73746163 
 17532      6B5F7369 
 17532      7A6500
 17533              	.LASF43:
 17534 180a 705F6374 		.ascii	"p_ctx\000"
 17534      7800
 17535              	.LASF749:
 17536 1810 61647665 		.ascii	"advertise<r2p::Speed3Msg>\000"
 17536      72746973 
 17536      653C7232 
 17536      703A3A53 
 17536      70656564 
 17537              	.LASF883:
 17538 182a 53445531 		.ascii	"SDU1\000"
 17538      00
 17539              	.LASF741:
 17540 182f 6E6F7469 		.ascii	"notify_stop\000"
 17540      66795F73 
 17540      746F7000 
 17541              	.LASF74:
 17542 183b 725F6375 		.ascii	"r_current\000"
 17542      7272656E 
ARM GAS  /tmp/ccB5ynkg.s 			page 324


 17542      7400
 17543              	.LASF474:
 17544 1845 6765745F 		.ascii	"get_type_size\000"
 17544      74797065 
 17544      5F73697A 
 17544      6500
 17545              	.LASF738:
 17546 1853 5F5A4E33 		.ascii	"_ZN3r2p4Node18notify_stop_unsafeEv\000"
 17546      72327034 
 17546      4E6F6465 
 17546      31386E6F 
 17546      74696679 
 17547              	.LASF442:
 17548 1876 5F5A4E4B 		.ascii	"_ZNK3r2p10StaticListINS_5TopicEE12begin_unsafeEv\000"
 17548      33723270 
 17548      31305374 
 17548      61746963 
 17548      4C697374 
 17549              	.LASF684:
 17550 18a7 5F5A4E4B 		.ascii	"_ZNK3r2p10StaticListINS_4NodeEE13ConstIteratorptEv\000"
 17550      33723270 
 17550      31305374 
 17550      61746963 
 17550      4C697374 
 17551              	.LASF722:
 17552 18da 4E6F6465 		.ascii	"Node\000"
 17552      00
 17553              	.LASF874:
 17554 18df 5F5F7072 		.ascii	"__priority\000"
 17554      696F7269 
 17554      747900
 17555              	.LASF725:
 17556 18ea 74696D65 		.ascii	"timeout\000"
 17556      6F757400 
 17557              	.LASF312:
 17558 18f2 6974656D 		.ascii	"itemp\000"
 17558      7000
 17559              	.LASF334:
 17560 18f8 50726564 		.ascii	"Predicate\000"
 17560      69636174 
 17560      6500
 17561              	.LASF23:
 17562 1902 75696E74 		.ascii	"uint64_t\000"
 17562      36345F74 
 17562      00
 17563              	.LASF888:
 17564 190b 73706565 		.ascii	"speed_first_time\000"
 17564      645F6669 
 17564      7273745F 
 17564      74696D65 
 17564      00
 17565              	.LASF478:
 17566 191c 6765745F 		.ascii	"get_max_queue_length\000"
 17566      6D61785F 
 17566      71756575 
 17566      655F6C65 
 17566      6E677468 
ARM GAS  /tmp/ccB5ynkg.s 			page 325


 17567              	.LASF460:
 17568 1931 546F7069 		.ascii	"Topic\000"
 17568      6300
 17569              	.LASF35:
 17570 1937 54687265 		.ascii	"Thread\000"
 17570      616400
 17571              	.LASF242:
 17572 193e 73635F63 		.ascii	"sc_commands\000"
 17572      6F6D6D61 
 17572      6E647300 
 17573              	.LASF297:
 17574 194a 5F5A4E4B 		.ascii	"_ZNK3r2p4Time4to_mEv\000"
 17574      33723270 
 17574      3454696D 
 17574      6534746F 
 17574      5F6D4576 
 17575              	.LASF519:
 17576 195f 6E6F7469 		.ascii	"notify_remotes\000"
 17576      66795F72 
 17576      656D6F74 
 17576      657300
 17577              	.LASF367:
 17578 196e 5F5A4E4B 		.ascii	"_ZNK3r2p10StaticListINS_15LocalSubscriberEE8is_empt"
 17578      33723270 
 17578      31305374 
 17578      61746963 
 17578      4C697374 
 17579 19a1 79457600 		.ascii	"yEv\000"
 17580              	.LASF188:
 17581 19a5 7278636E 		.ascii	"rxcnt\000"
 17581      7400
 17582              	.LASF75:
 17583 19ab 52656164 		.ascii	"ReadyList\000"
 17583      794C6973 
 17583      7400
 17584              	.LASF868:
 17585 19b5 71756575 		.ascii	"queue_length\000"
 17585      655F6C65 
 17585      6E677468 
 17585      00
 17586              	.LASF204:
 17587 19c2 39555342 		.ascii	"9USBConfig\000"
 17587      436F6E66 
 17587      696700
 17588              	.LASF724:
 17589 19cd 73756273 		.ascii	"subscribers\000"
 17589      63726962 
 17589      65727300 
 17590              	.LASF180:
 17591 19d9 7478636E 		.ascii	"txcnt\000"
 17591      7400
 17592              	.LASF170:
 17593 19df 75736265 		.ascii	"usbeventcb_t\000"
 17593      76656E74 
 17593      63625F74 
 17593      00
 17594              	.LASF568:
ARM GAS  /tmp/ccB5ynkg.s 			page 326


 17595 19ec 5F5A4E4B 		.ascii	"_ZNK3r2p10StaticListINS_14LocalPublisherEE13ConstIt"
 17595      33723270 
 17595      31305374 
 17595      61746963 
 17595      4C697374 
 17596 1a1f 65726174 		.ascii	"eratorneERKS3_\000"
 17596      6F726E65 
 17596      45524B53 
 17596      335F00
 17597              	.LASF590:
 17598 1a2e 5F5A4E33 		.ascii	"_ZN3r2p10StaticListINS_14LocalPublisherEE6unlinkERN"
 17598      72327031 
 17598      30537461 
 17598      7469634C 
 17598      69737449 
 17599 1a61 53325F34 		.ascii	"S2_4LinkE\000"
 17599      4C696E6B 
 17599      4500
 17600              	.LASF611:
 17601 1a6b 5F5A4E4B 		.ascii	"_ZNK3r2p10ArrayQueueIPNS_7MessageEE10get_lengthEv\000"
 17601      33723270 
 17601      31304172 
 17601      72617951 
 17601      75657565 
 17602              	.LASF390:
 17603 1a9d 4974656D 		.ascii	"Item\000"
 17603      00
 17604              	.LASF896:
 17605 1aa2 73747265 		.ascii	"stream_enc\000"
 17605      616D5F65 
 17605      6E6300
 17606              	.LASF601:
 17607 1aad 41727261 		.ascii	"ArrayQueue<r2p::Message*>\000"
 17607      79517565 
 17607      75653C72 
 17607      32703A3A 
 17607      4D657373 
 17608              	.LASF290:
 17609 1ac7 746F5F75 		.ascii	"to_us\000"
 17609      7300
 17610              	.LASF259:
 17611 1acd 696D706C 		.ascii	"impl\000"
 17611      00
 17612              	.LASF761:
 17613 1ad2 6E6F7469 		.ascii	"notify_subscribed\000"
 17613      66795F73 
 17613      75627363 
 17613      72696265 
 17613      6400
 17614              	.LASF184:
 17615 1ae4 72786275 		.ascii	"rxbuf\000"
 17615      6600
 17616              	.LASF647:
 17617 1aea 49444C45 		.ascii	"IDLE\000"
 17617      00
 17618              	.LASF263:
 17619 1aef 5F5A4E4B 		.ascii	"_ZNK3r2p11MemoryPool_13get_allocatorEv\000"
ARM GAS  /tmp/ccB5ynkg.s 			page 327


 17619      33723270 
 17619      31314D65 
 17619      6D6F7279 
 17619      506F6F6C 
 17620              	.LASF449:
 17621 1b16 5F5A4E33 		.ascii	"_ZN3r2p10StaticListINS_5TopicEE6unlinkERNS2_4LinkE\000"
 17621      72327031 
 17621      30537461 
 17621      7469634C 
 17621      69737449 
 17622              	.LASF655:
 17623 1b49 5F5A4E33 		.ascii	"_ZN3r2p6Thread11create_heapEPvjmPFlS1_ES1_PKc\000"
 17623      72327036 
 17623      54687265 
 17623      61643131 
 17623      63726561 
 17624              	.LASF712:
 17625 1b77 5F5A4E4B 		.ascii	"_ZNK3r2p10StaticListINS_4NodeEE8index_ofERKS1_\000"
 17625      33723270 
 17625      31305374 
 17625      61746963 
 17625      4C697374 
 17626              	.LASF212:
 17627 1ba6 5344555F 		.ascii	"SDU_UNINIT\000"
 17627      554E494E 
 17627      495400
 17628              	.LASF344:
 17629 1bb1 5F5A4E33 		.ascii	"_ZN3r2p10StaticListINS_15LocalSubscriberEE11link_un"
 17629      72327031 
 17629      30537461 
 17629      7469634C 
 17629      69737449 
 17630 1be4 73616665 		.ascii	"safeERNS2_4LinkE\000"
 17630      45524E53 
 17630      325F344C 
 17630      696E6B45 
 17630      00
 17631              	.LASF191:
 17632 1bf5 31375553 		.ascii	"17USBEndpointConfig\000"
 17632      42456E64 
 17632      706F696E 
 17632      74436F6E 
 17632      66696700 
 17633              	.LASF785:
 17634 1c09 53756273 		.ascii	"SubscriberExtBuf<r2p::PixyMsg>\000"
 17634      63726962 
 17634      65724578 
 17634      74427566 
 17634      3C723270 
 17635              	.LASF885:
 17636 1c28 73657275 		.ascii	"serusbcfg\000"
 17636      73626366 
 17636      6700
 17637              	.LASF268:
 17638 1c32 5F5A4E33 		.ascii	"_ZN3r2p11MemoryPool_5allocEv\000"
 17638      72327031 
 17638      314D656D 
ARM GAS  /tmp/ccB5ynkg.s 			page 328


 17638      6F727950 
 17638      6F6F6C5F 
 17639              	.LASF76:
 17640 1c4f 4D757465 		.ascii	"Mutex\000"
 17640      7800
 17641              	.LASF579:
 17642 1c55 5F5A4E4B 		.ascii	"_ZNK3r2p10StaticListINS_14LocalPublisherEE17find_fi"
 17642      33723270 
 17642      31305374 
 17642      61746963 
 17642      4C697374 
 17643 1c88 7273745F 		.ascii	"rst_unsafeEPFbRKS1_PKvES6_\000"
 17643      756E7361 
 17643      66654550 
 17643      4662524B 
 17643      53315F50 
 17644              	.LASF363:
 17645 1ca3 5F5A4E4B 		.ascii	"_ZNK3r2p10StaticListINS_15LocalSubscriberEE14restar"
 17645      33723270 
 17645      31305374 
 17645      61746963 
 17645      4C697374 
 17646 1cd6 745F756E 		.ascii	"t_unsafeERNS2_19ConstIteratorUnsafeE\000"
 17646      73616665 
 17646      45524E53 
 17646      325F3139 
 17646      436F6E73 
 17647              	.LASF772:
 17648 1cfb 76616C75 		.ascii	"value\000"
 17648      6500
 17649              	.LASF773:
 17650 1d01 50494443 		.ascii	"PIDCfgMsg\000"
 17650      66674D73 
 17650      6700
 17651              	.LASF205:
 17652 1d0b 6576656E 		.ascii	"event_cb\000"
 17652      745F6362 
 17652      00
 17653              	.LASF195:
 17654 1d14 6F75745F 		.ascii	"out_cb\000"
 17654      636200
 17655              	.LASF668:
 17656 1d1b 7365745F 		.ascii	"set_thread\000"
 17656      74687265 
 17656      616400
 17657              	.LASF131:
 17658 1d26 6F75745F 		.ascii	"out_params\000"
 17658      70617261 
 17658      6D7300
 17659              	.LASF391:
 17660 1d31 6765745F 		.ascii	"get_queue_length\000"
 17660      71756575 
 17660      655F6C65 
 17660      6E677468 
 17660      00
 17661              	.LASF234:
 17662 1d42 76615F6C 		.ascii	"va_list\000"
ARM GAS  /tmp/ccB5ynkg.s 			page 329


 17662      69737400 
 17663              	.LASF280:
 17664 1d4a 494E4649 		.ascii	"INFINITE\000"
 17664      4E495445 
 17664      00
 17665              	.LASF157:
 17666 1d53 31307573 		.ascii	"10usbevent_t\000"
 17666      62657665 
 17666      6E745F74 
 17666      00
 17667              	.LASF461:
 17668 1d60 6E616D65 		.ascii	"namep\000"
 17668      7000
 17669              	.LASF410:
 17670 1d66 5F5A4E4B 		.ascii	"_ZNK3r2p10StaticListINS_16RemoteSubscriberEE10end_u"
 17670      33723270 
 17670      31305374 
 17670      61746963 
 17670      4C697374 
 17671 1d99 6E736166 		.ascii	"nsafeEv\000"
 17671      65457600 
 17672              	.LASF340:
 17673 1da1 636F756E 		.ascii	"count_unsafe\000"
 17673      745F756E 
 17673      73616665 
 17673      00
 17674              	.LASF370:
 17675 1dae 6C696E6B 		.ascii	"link\000"
 17675      00
 17676              	.LASF71:
 17677 1db3 725F6374 		.ascii	"r_ctx\000"
 17677      7800
 17678              	.LASF764:
 17679 1db9 5F5A4E33 		.ascii	"_ZN3r2p14BaseSubscriber12fetch_unsafeERPNS_7Message"
 17679      72327031 
 17679      34426173 
 17679      65537562 
 17679      73637269 
 17680 1dec 45524E53 		.ascii	"ERNS_4TimeE\000"
 17680      5F345469 
 17680      6D654500 
 17681              	.LASF734:
 17682 1df8 5F5A4E33 		.ascii	"_ZN3r2p4Node11set_enabledEb\000"
 17682      72327034 
 17682      4E6F6465 
 17682      31317365 
 17682      745F656E 
 17683              	.LASF278:
 17684 1e14 54797065 		.ascii	"Type\000"
 17684      00
 17685              	.LASF396:
 17686 1e19 5F5A4E4B 		.ascii	"_ZNK3r2p10StaticListINS_16RemoteSubscriberEE15get_h"
 17686      33723270 
 17686      31305374 
 17686      61746963 
 17686      4C697374 
 17687 1e4c 6561645F 		.ascii	"ead_unsafeEv\000"
ARM GAS  /tmp/ccB5ynkg.s 			page 330


 17687      756E7361 
 17687      66654576 
 17687      00
 17688              	.LASF54:
 17689 1e59 705F6D73 		.ascii	"p_msgqueue\000"
 17689      67717565 
 17689      756500
 17690              	.LASF315:
 17691 1e64 49746572 		.ascii	"IteratorUnsafe\000"
 17691      61746F72 
 17691      556E7361 
 17691      666500
 17692              	.LASF702:
 17693 1e73 5F5A4E33 		.ascii	"_ZN3r2p10StaticListINS_4NodeEE10end_unsafeEv\000"
 17693      72327031 
 17693      30537461 
 17693      7469634C 
 17693      69737449 
 17694              	.LASF251:
 17695 1ea0 61637175 		.ascii	"acquire\000"
 17695      69726500 
 17696              	.LASF705:
 17697 1ea8 5F5A4E4B 		.ascii	"_ZNK3r2p10StaticListINS_4NodeEE10end_unsafeEv\000"
 17697      33723270 
 17697      31305374 
 17697      61746963 
 17697      4C697374 
 17698              	.LASF624:
 17699 1ed6 5F5A4E4B 		.ascii	"_ZNK3r2p7Thread_8get_nameEv\000"
 17699      33723270 
 17699      37546872 
 17699      6561645F 
 17699      38676574 
 17700              	.LASF583:
 17701 1ef2 5F5A4E4B 		.ascii	"_ZNK3r2p10StaticListINS_14LocalPublisherEE12begin_u"
 17701      33723270 
 17701      31305374 
 17701      61746963 
 17701      4C697374 
 17702 1f25 6E736166 		.ascii	"nsafeEv\000"
 17702      65457600 
 17703              	.LASF448:
 17704 1f2d 5F5A4E33 		.ascii	"_ZN3r2p10StaticListINS_5TopicEE4linkERNS2_4LinkE\000"
 17704      72327031 
 17704      30537461 
 17704      7469634C 
 17704      69737449 
 17705              	.LASF114:
 17706 1f5e 636C6561 		.ascii	"clear\000"
 17706      7200
 17707              	.LASF648:
 17708 1f64 4C4F5745 		.ascii	"LOWEST\000"
 17708      535400
 17709              	.LASF552:
 17710 1f6b 5F5A4E33 		.ascii	"_ZN3r2p7Message21get_msg_from_raw_dataEPKh\000"
 17710      72327037 
 17710      4D657373 
ARM GAS  /tmp/ccB5ynkg.s 			page 331


 17710      61676532 
 17710      31676574 
 17711              	.LASF2:
 17712 1f96 73697A65 		.ascii	"size_t\000"
 17712      5F7400
 17713              	.LASF554:
 17714 1f9d 5F5A4E33 		.ascii	"_ZN3r2p7Message13get_type_sizeEj\000"
 17714      72327037 
 17714      4D657373 
 17714      61676531 
 17714      33676574 
 17715              	.LASF434:
 17716 1fbe 5F5A4E33 		.ascii	"_ZN3r2p10StaticListINS_5TopicEE13unlink_unsafeERNS2"
 17716      72327031 
 17716      30537461 
 17716      7469634C 
 17716      69737449 
 17717 1ff1 5F344C69 		.ascii	"_4LinkE\000"
 17717      6E6B4500 
 17718              	.LASF279:
 17719 1ff9 494D4D45 		.ascii	"IMMEDIATE\000"
 17719      44494154 
 17719      4500
 17720              	.LASF60:
 17721 2003 54687265 		.ascii	"ThreadsQueue\000"
 17721      61647351 
 17721      75657565 
 17721      00
 17722              	.LASF18:
 17723 2010 75696E74 		.ascii	"uint8_t\000"
 17723      385F7400 
 17724              	.LASF73:
 17725 2018 725F6F6C 		.ascii	"r_older\000"
 17725      64657200 
 17726              	.LASF41:
 17727 2020 705F7072 		.ascii	"p_prev\000"
 17727      657600
 17728              	.LASF534:
 17729 2027 5F5A4E33 		.ascii	"_ZN3r2p5Topic8has_nameERKS0_PKc\000"
 17729      72327035 
 17729      546F7069 
 17729      63386861 
 17729      735F6E61 
 17730              	.LASF575:
 17731 2047 5F5A4E33 		.ascii	"_ZN3r2p10StaticListINS_14LocalPublisherEE13unlink_u"
 17731      72327031 
 17731      30537461 
 17731      7469634C 
 17731      69737449 
 17732 207a 6E736166 		.ascii	"nsafeERNS2_4LinkE\000"
 17732      6545524E 
 17732      53325F34 
 17732      4C696E6B 
 17732      4500
 17733              	.LASF838:
 17734 208c 7573625F 		.ascii	"usb_lld_disconnect_bus\000"
 17734      6C6C645F 
ARM GAS  /tmp/ccB5ynkg.s 			page 332


 17734      64697363 
 17734      6F6E6E65 
 17734      63745F62 
 17735              	.LASF375:
 17736 20a3 5F5A4E4B 		.ascii	"_ZNK3r2p10StaticListINS_15LocalSubscriberEE8index_o"
 17736      33723270 
 17736      31305374 
 17736      61746963 
 17736      4C697374 
 17737 20d6 6645524B 		.ascii	"fERKS1_\000"
 17737      53315F00 
 17738              	.LASF859:
 17739 20de 6D696372 		.ascii	"microseconds\000"
 17739      6F736563 
 17739      6F6E6473 
 17739      00
 17740              	.LASF393:
 17741 20eb 5F5A4E4B 		.ascii	"_ZNK3r2p15LocalSubscriber16get_queue_lengthEv\000"
 17741      33723270 
 17741      31354C6F 
 17741      63616C53 
 17741      75627363 
 17742              	.LASF709:
 17743 2119 5F5A4E4B 		.ascii	"_ZNK3r2p10StaticListINS_4NodeEE5countEv\000"
 17743      33723270 
 17743      31305374 
 17743      61746963 
 17743      4C697374 
 17744              	.LASF37:
 17745 2141 65786974 		.ascii	"exitcode\000"
 17745      636F6465 
 17745      00
 17746              	.LASF199:
 17747 214a 6F75745F 		.ascii	"out_state\000"
 17747      73746174 
 17747      6500
 17748              	.LASF708:
 17749 2154 5F5A4E4B 		.ascii	"_ZNK3r2p10StaticListINS_4NodeEE8is_emptyEv\000"
 17749      33723270 
 17749      31305374 
 17749      61746963 
 17749      4C697374 
 17750              	.LASF789:
 17751 217f 5F5A4E33 		.ascii	"_ZN3r2p16SubscriberExtBufINS_7PixyMsgEE5fetchERPS1_"
 17751      72327031 
 17751      36537562 
 17751      73637269 
 17751      62657245 
 17752 21b2 00       		.ascii	"\000"
 17753              	.LASF713:
 17754 21b3 5F5A4E4B 		.ascii	"_ZNK3r2p10StaticListINS_4NodeEE8containsERKS1_\000"
 17754      33723270 
 17754      31305374 
 17754      61746963 
 17754      4C697374 
 17755              	.LASF480:
 17756 21e2 69735F66 		.ascii	"is_forwarding\000"
ARM GAS  /tmp/ccB5ynkg.s 			page 333


 17756      6F727761 
 17756      7264696E 
 17756      6700
 17757              	.LASF604:
 17758 21f0 7461696C 		.ascii	"tailp\000"
 17758      7000
 17759              	.LASF152:
 17760 21f6 5553425F 		.ascii	"USB_EP0_RX\000"
 17760      4550305F 
 17760      525800
 17761              	.LASF585:
 17762 2201 5F5A4E4B 		.ascii	"_ZNK3r2p10StaticListINS_14LocalPublisherEE14restart"
 17762      33723270 
 17762      31305374 
 17762      61746963 
 17762      4C697374 
 17763 2234 5F756E73 		.ascii	"_unsafeERNS2_19ConstIteratorUnsafeE\000"
 17763      61666545 
 17763      524E5332 
 17763      5F313943 
 17763      6F6E7374 
 17764              	.LASF825:
 17765 2258 42617365 		.ascii	"Base\000"
 17765      00
 17766              	.LASF520:
 17767 225d 5F5A4E33 		.ascii	"_ZN3r2p5Topic14notify_remotesERNS_7MessageERKNS_4Ti"
 17767      72327035 
 17767      546F7069 
 17767      6331346E 
 17767      6F746966 
 17768 2290 6D654500 		.ascii	"meE\000"
 17769              	.LASF851:
 17770 2294 64746833 		.ascii	"dth3\000"
 17770      00
 17771              	.LASF455:
 17772 2299 5F5A4E33 		.ascii	"_ZN3r2p10StaticListINS_5TopicEE3endEv\000"
 17772      72327031 
 17772      30537461 
 17772      7469634C 
 17772      69737449 
 17773              	.LASF649:
 17774 22bf 4E4F524D 		.ascii	"NORMAL\000"
 17774      414C00
 17775              	.LASF899:
 17776 22c6 5F5F6473 		.ascii	"__dso_handle\000"
 17776      6F5F6861 
 17776      6E646C65 
 17776      00
 17777              	.LASF85:
 17778 22d3 4576656E 		.ascii	"EventSource\000"
 17778      74536F75 
 17778      72636500 
 17779              	.LASF412:
 17780 22df 5F5A4E4B 		.ascii	"_ZNK3r2p10StaticListINS_16RemoteSubscriberEE8get_he"
 17780      33723270 
 17780      31305374 
 17780      61746963 
ARM GAS  /tmp/ccB5ynkg.s 			page 334


 17780      4C697374 
 17781 2312 61644576 		.ascii	"adEv\000"
 17781      00
 17782              	.LASF639:
 17783 2317 5F5A4E33 		.ascii	"_ZN3r2p7Thread_12set_priorityEm\000"
 17783      72327037 
 17783      54687265 
 17783      61645F31 
 17783      32736574 
 17784              	.LASF835:
 17785 2337 6576656E 		.ascii	"event_index\000"
 17785      745F696E 
 17785      64657800 
 17786              	.LASF463:
 17787 2343 6D73675F 		.ascii	"msg_pool\000"
 17787      706F6F6C 
 17787      00
 17788              	.LASF117:
 17789 234c 4F535045 		.ascii	"OSPEEDR\000"
 17789      45445200 
 17790              	.LASF580:
 17791 2354 5F5A4E33 		.ascii	"_ZN3r2p10StaticListINS_14LocalPublisherEE12begin_un"
 17791      72327031 
 17791      30537461 
 17791      7469634C 
 17791      69737449 
 17792 2387 73616665 		.ascii	"safeEv\000"
 17792      457600
 17793              	.LASF68:
 17794 238e 39526561 		.ascii	"9ReadyList\000"
 17794      64794C69 
 17794      737400
 17795              	.LASF616:
 17796 2399 66657463 		.ascii	"fetch\000"
 17796      6800
 17797              	.LASF744:
 17798 239f 5F5A4E33 		.ascii	"_ZN3r2p4Node4spinERKNS_4TimeE\000"
 17798      72327034 
 17798      4E6F6465 
 17798      34737069 
 17798      6E45524B 
 17799              	.LASF376:
 17800 23bd 636F6E74 		.ascii	"contains\000"
 17800      61696E73 
 17800      00
 17801              	.LASF154:
 17802 23c6 5553425F 		.ascii	"USB_EP0_ERROR\000"
 17802      4550305F 
 17802      4552524F 
 17802      5200
 17803              	.LASF735:
 17804 23d4 6E6F7469 		.ascii	"notify_unsafe\000"
 17804      66795F75 
 17804      6E736166 
 17804      6500
 17805              	.LASF831:
 17806 23e2 6D696C6C 		.ascii	"milliseconds\000"
ARM GAS  /tmp/ccB5ynkg.s 			page 335


 17806      69736563 
 17806      6F6E6473 
 17806      00
 17807              	.LASF274:
 17808 23ef 6765745F 		.ascii	"get_impl\000"
 17808      696D706C 
 17808      00
 17809              	.LASF640:
 17810 23f8 7969656C 		.ascii	"yield\000"
 17810      6400
 17811              	.LASF790:
 17812 23fe 5F5A4E33 		.ascii	"_ZN3r2p16SubscriberExtBufINS_7PixyMsgEE5fetchERPS1_"
 17812      72327031 
 17812      36537562 
 17812      73637269 
 17812      62657245 
 17813 2431 524E535F 		.ascii	"RNS_4TimeE\000"
 17813      3454696D 
 17813      654500
 17814              	.LASF657:
 17815 243c 5F5A4E33 		.ascii	"_ZN3r2p6Thread12get_priorityEv\000"
 17815      72327036 
 17815      54687265 
 17815      61643132 
 17815      6765745F 
 17816              	.LASF271:
 17817 245b 5F5A4E33 		.ascii	"_ZN3r2p11MemoryPool_4freeEPv\000"
 17817      72327031 
 17817      314D656D 
 17817      6F727950 
 17817      6F6F6C5F 
 17818              	.LASF908:
 17819 2478 5F5F7674 		.ascii	"__vtbl_ptr_type\000"
 17819      626C5F70 
 17819      74725F74 
 17819      79706500 
 17820              	.LASF793:
 17821 2488 5075626C 		.ascii	"Publisher<r2p::PIDCfgMsg>\000"
 17821      69736865 
 17821      723C7232 
 17821      703A3A50 
 17821      49444366 
 17822              	.LASF320:
 17823 24a2 5F5A4E33 		.ascii	"_ZN3r2p10StaticListINS_15LocalSubscriberEE13ConstIt"
 17823      72327031 
 17823      30537461 
 17823      7469634C 
 17823      69737449 
 17824 24d5 65726174 		.ascii	"eratoraSERKS3_\000"
 17824      6F726153 
 17824      45524B53 
 17824      335F00
 17825              	.LASF149:
 17826 24e4 5553425F 		.ascii	"USB_EP0_TX\000"
 17826      4550305F 
 17826      545800
 17827              	.LASF132:
ARM GAS  /tmp/ccB5ynkg.s 			page 336


 17828 24ef 65703073 		.ascii	"ep0state\000"
 17828      74617465 
 17828      00
 17829              	.LASF802:
 17830 24f8 5F5A4E4B 		.ascii	"_ZNK3r2p13BasePublisher9get_topicEv\000"
 17830      33723270 
 17830      31334261 
 17830      73655075 
 17830      626C6973 
 17831              	.LASF197:
 17832 251c 6F75745F 		.ascii	"out_maxsize\000"
 17832      6D617873 
 17832      697A6500 
 17833              	.LASF222:
 17834 2528 62756C6B 		.ascii	"bulk_in\000"
 17834      5F696E00 
 17835              	.LASF156:
 17836 2530 31337573 		.ascii	"13usbep0state_t\000"
 17836      62657030 
 17836      73746174 
 17836      655F7400 
 17837              	.LASF282:
 17838 2540 746F5F75 		.ascii	"to_us_raw\000"
 17838      735F7261 
 17838      7700
 17839              	.LASF36:
 17840 254a 7264796D 		.ascii	"rdymsg\000"
 17840      736700
 17841              	.LASF720:
 17842 2551 5F5A4E4B 		.ascii	"_ZNK3r2p10StaticListINS_4NodeEE3endEv\000"
 17842      33723270 
 17842      31305374 
 17842      61746963 
 17842      4C697374 
 17843              	.LASF849:
 17844 2577 64746831 		.ascii	"dth1\000"
 17844      00
 17845              	.LASF850:
 17846 257c 64746832 		.ascii	"dth2\000"
 17846      00
 17847              	.LASF695:
 17848 2581 5F5A4E33 		.ascii	"_ZN3r2p10StaticListINS_4NodeEE16link_tail_unsafeERN"
 17848      72327031 
 17848      30537461 
 17848      7469634C 
 17848      69737449 
 17849 25b4 53325F34 		.ascii	"S2_4LinkE\000"
 17849      4C696E6B 
 17849      4500
 17850              	.LASF182:
 17851 25be 55534249 		.ascii	"USBInEndpointState\000"
 17851      6E456E64 
 17851      706F696E 
 17851      74537461 
 17851      746500
 17852              	.LASF42:
 17853 25d1 705F7072 		.ascii	"p_prio\000"
ARM GAS  /tmp/ccB5ynkg.s 			page 337


 17853      696F00
 17854              	.LASF386:
 17855 25d8 5F5A4E33 		.ascii	"_ZN3r2p10StaticListINS_15LocalSubscriberEE3endEv\000"
 17855      72327031 
 17855      30537461 
 17855      7469634C 
 17855      69737449 
 17856              	.LASF513:
 17857 2609 5F5A4E4B 		.ascii	"_ZNK3r2p5Topic16compute_deadlineEv\000"
 17857      33723270 
 17857      35546F70 
 17857      69633136 
 17857      636F6D70 
 17858              	.LASF837:
 17859 262c 74696D65 		.ascii	"timestamp\000"
 17859      7374616D 
 17859      7000
 17860              	.LASF728:
 17861 2636 5F5A4E4B 		.ascii	"_ZNK3r2p4Node14get_publishersEv\000"
 17861      33723270 
 17861      344E6F64 
 17861      65313467 
 17861      65745F70 
 17862              	.LASF502:
 17863 2656 72656C65 		.ascii	"release_unsafe\000"
 17863      6173655F 
 17863      756E7361 
 17863      666500
 17864              	.LASF694:
 17865 2665 5F5A4E33 		.ascii	"_ZN3r2p10StaticListINS_4NodeEE11link_unsafeERNS2_4L"
 17865      72327031 
 17865      30537461 
 17865      7469634C 
 17865      69737449 
 17866 2698 696E6B45 		.ascii	"inkE\000"
 17866      00
 17867              	.LASF511:
 17868 269d 636F6D70 		.ascii	"compute_deadline\000"
 17868      7574655F 
 17868      64656164 
 17868      6C696E65 
 17868      00
 17869              	.LASF537:
 17870 26ae 72656663 		.ascii	"refcount\000"
 17870      6F756E74 
 17870      00
 17871              	.LASF14:
 17872 26b7 5F5F7569 		.ascii	"__uint64_t\000"
 17872      6E743634 
 17872      5F7400
 17873              	.LASF819:
 17874 26c2 5F5A4E33 		.ascii	"_ZN3r2p13BasePublisher9has_topicERKS0_PKc\000"
 17874      72327031 
 17874      33426173 
 17874      65507562 
 17874      6C697368 
 17875              	.LASF810:
ARM GAS  /tmp/ccB5ynkg.s 			page 338


 17876 26ec 7075626C 		.ascii	"publish_remotely_unsafe\000"
 17876      6973685F 
 17876      72656D6F 
 17876      74656C79 
 17876      5F756E73 
 17877              	.LASF261:
 17878 2704 6765745F 		.ascii	"get_allocator\000"
 17878      616C6C6F 
 17878      6361746F 
 17878      7200
 17879              	.LASF800:
 17880 2712 42617365 		.ascii	"BasePublisher\000"
 17880      5075626C 
 17880      69736865 
 17880      7200
 17881              	.LASF561:
 17882 2720 436F6E73 		.ascii	"ConstLink\000"
 17882      744C696E 
 17882      6B00
 17883              	.LASF153:
 17884 272a 5553425F 		.ascii	"USB_EP0_SENDING_STS\000"
 17884      4550305F 
 17884      53454E44 
 17884      494E475F 
 17884      53545300 
 17885              	.LASF416:
 17886 273e 5F5A4E33 		.ascii	"_ZN3r2p10StaticListINS_16RemoteSubscriberEE6unlinkE"
 17886      72327031 
 17886      30537461 
 17886      7469634C 
 17886      69737449 
 17887 2771 524E5332 		.ascii	"RNS2_4LinkE\000"
 17887      5F344C69 
 17887      6E6B4500 
 17888              	.LASF346:
 17889 277d 756E6C69 		.ascii	"unlink_unsafe\000"
 17889      6E6B5F75 
 17889      6E736166 
 17889      6500
 17890              	.LASF224:
 17891 278b 696E745F 		.ascii	"int_in\000"
 17891      696E00
 17892              	.LASF138:
 17893 2792 61646472 		.ascii	"address\000"
 17893      65737300 
 17894              	.LASF891:
 17895 279a 70696463 		.ascii	"pidcfg_first_time\000"
 17895      66675F66 
 17895      69727374 
 17895      5F74696D 
 17895      6500
 17896              	.LASF909:
 17897 27ac 5F5A3130 		.ascii	"_Z10shell_nodePv\000"
 17897      7368656C 
 17897      6C5F6E6F 
 17897      64655076 
 17897      00
ARM GAS  /tmp/ccB5ynkg.s 			page 339


 17898              	.LASF628:
 17899 27bd 63726561 		.ascii	"create_static\000"
 17899      74655F73 
 17899      74617469 
 17899      6300
 17900              	.LASF476:
 17901 27cb 6765745F 		.ascii	"get_payload_size\000"
 17901      7061796C 
 17901      6F61645F 
 17901      73697A65 
 17901      00
 17902              	.LASF155:
 17903 27dc 75736265 		.ascii	"usbep0state_t\000"
 17903      70307374 
 17903      6174655F 
 17903      7400
 17904              	.LASF830:
 17905 27ea 74686973 		.ascii	"this\000"
 17905      00
 17906              	.LASF99:
 17907 27ef 715F6275 		.ascii	"q_buffer\000"
 17907      66666572 
 17907      00
 17908              	.LASF40:
 17909 27f8 705F6E65 		.ascii	"p_next\000"
 17909      787400
 17910              	.LASF360:
 17911 27ff 5F5A4E33 		.ascii	"_ZN3r2p10StaticListINS_15LocalSubscriberEE14restart"
 17911      72327031 
 17911      30537461 
 17911      7469634C 
 17911      69737449 
 17912 2832 5F756E73 		.ascii	"_unsafeERNS2_14IteratorUnsafeE\000"
 17912      61666545 
 17912      524E5332 
 17912      5F313449 
 17912      74657261 
 17913              	.LASF905:
 17914 2851 5F5A4E33 		.ascii	"_ZN3r2p15LocalSubscriber13notify_unsafeERNS_7Messag"
 17914      72327031 
 17914      354C6F63 
 17914      616C5375 
 17914      62736372 
 17915 2884 6545524B 		.ascii	"eERKNS_4TimeE\000"
 17915      4E535F34 
 17915      54696D65 
 17915      4500
 17916              	.LASF466:
 17917 2892 6C6F6361 		.ascii	"local_subscribers\000"
 17917      6C5F7375 
 17917      62736372 
 17917      69626572 
 17917      7300
 17918              	.LASF756:
 17919 28a4 5F767074 		.ascii	"_vptr.BaseSubscriber\000"
 17919      722E4261 
 17919      73655375 
ARM GAS  /tmp/ccB5ynkg.s 			page 340


 17919      62736372 
 17919      69626572 
 17920              	.LASF824:
 17921 28b9 54657374 		.ascii	"Test\000"
 17921      00
 17922              	.LASF125:
 17923 28be 55534244 		.ascii	"USBDriver\000"
 17923      72697665 
 17923      7200
 17924              	.LASF382:
 17925 28c8 5F5A4E33 		.ascii	"_ZN3r2p10StaticListINS_15LocalSubscriberEE5beginEv\000"
 17925      72327031 
 17925      30537461 
 17925      7469634C 
 17925      69737449 
 17926              	.LASF209:
 17927 28fb 55534243 		.ascii	"USBConfig\000"
 17927      6F6E6669 
 17927      6700
 17928              	.LASF438:
 17929 2905 5F5A4E4B 		.ascii	"_ZNK3r2p10StaticListINS_5TopicEE17find_first_unsafe"
 17929      33723270 
 17929      31305374 
 17929      61746963 
 17929      4C697374 
 17930 2938 45504662 		.ascii	"EPFbRKS1_PKvES6_\000"
 17930      524B5331 
 17930      5F504B76 
 17930      4553365F 
 17930      00
 17931              	.LASF889:
 17932 2949 70696463 		.ascii	"pidcfg_node\000"
 17932      66675F6E 
 17932      6F646500 
 17933              	.LASF515:
 17934 2955 5F5A4E33 		.ascii	"_ZN3r2p5Topic7releaseERNS_7MessageE\000"
 17934      72327035 
 17934      546F7069 
 17934      63377265 
 17934      6C656173 
 17935              	.LASF440:
 17936 2979 5F5A4E33 		.ascii	"_ZN3r2p10StaticListINS_5TopicEE10end_unsafeEv\000"
 17936      72327031 
 17936      30537461 
 17936      7469634C 
 17936      69737449 
 17937              	.LASF607:
 17938 29a7 5F5A4E33 		.ascii	"_ZN3r2p10ArrayQueueIPNS_7MessageEE12fetch_unsafeERS"
 17938      72327031 
 17938      30417272 
 17938      61795175 
 17938      65756549 
 17939 29da 325F00   		.ascii	"2_\000"
 17940              	.LASF433:
 17941 29dd 5F5A4E33 		.ascii	"_ZN3r2p10StaticListINS_5TopicEE16link_tail_unsafeER"
 17941      72327031 
 17941      30537461 
ARM GAS  /tmp/ccB5ynkg.s 			page 341


 17941      7469634C 
 17941      69737449 
 17942 2a10 4E53325F 		.ascii	"NS2_4LinkE\000"
 17942      344C696E 
 17942      6B4500
 17943              	.LASF812:
 17944 2a1b 5F5A4E33 		.ascii	"_ZN3r2p13BasePublisher5allocERPNS_7MessageE\000"
 17944      72327031 
 17944      33426173 
 17944      65507562 
 17944      6C697368 
 17945              	.LASF245:
 17946 2a47 73747265 		.ascii	"strerror\000"
 17946      72726F72 
 17946      00
 17947              	.LASF401:
 17948 2a50 5F5A4E33 		.ascii	"_ZN3r2p10StaticListINS_16RemoteSubscriberEE13unlink"
 17948      72327031 
 17948      30537461 
 17948      7469634C 
 17948      69737449 
 17949 2a83 5F756E73 		.ascii	"_unsafeERNS2_4LinkE\000"
 17949      61666545 
 17949      524E5332 
 17949      5F344C69 
 17949      6E6B4500 
 17950              	.LASF235:
 17951 2a97 7368656C 		.ascii	"shellcmd_t\000"
 17951      6C636D64 
 17951      5F7400
 17952              	.LASF751:
 17953 2aa2 73756273 		.ascii	"subscribe<r2p::PixyMsg, 5u>\000"
 17953      63726962 
 17953      653C7232 
 17953      703A3A50 
 17953      6978794D 
 17954              	.LASF219:
 17955 2abe 6F717565 		.ascii	"oqueue\000"
 17955      756500
 17956              	.LASF247:
 17957 2ac5 73747278 		.ascii	"strxfrm\000"
 17957      66726D00 
 17958              	.LASF28:
 17959 2acd 74726566 		.ascii	"trefs_t\000"
 17959      735F7400 
 17960              	.LASF111:
 17961 2ad5 32304261 		.ascii	"20BaseSequentialStream\000"
 17961      73655365 
 17961      7175656E 
 17961      7469616C 
 17961      53747265 
 17962              	.LASF59:
 17963 2aec 705F6D70 		.ascii	"p_mpool\000"
 17963      6F6F6C00 
 17964              	.LASF767:
 17965 2af4 5F5A4E33 		.ascii	"_ZN3r2p14BaseSubscriber5fetchERPNS_7MessageERNS_4Ti"
 17965      72327031 
ARM GAS  /tmp/ccB5ynkg.s 			page 342


 17965      34426173 
 17965      65537562 
 17965      73637269 
 17966 2b27 6D654500 		.ascii	"meE\000"
 17967              	.LASF752:
 17968 2b2b 5F5A4E33 		.ascii	"_ZN3r2p4Node9subscribeINS_7PixyMsgELj5EEEbRNS_10Sub"
 17968      72327034 
 17968      4E6F6465 
 17968      39737562 
 17968      73637269 
 17969 2b5e 73637269 		.ascii	"scriberIT_XT0_EEEPKc\000"
 17969      62657249 
 17969      545F5854 
 17969      305F4545 
 17969      45504B63 
 17970              	.LASF501:
 17971 2b73 5F5A4E33 		.ascii	"_ZN3r2p5Topic12alloc_unsafeEv\000"
 17971      72327035 
 17971      546F7069 
 17971      63313261 
 17971      6C6C6F63 
 17972              	.LASF846:
 17973 2b91 6474687A 		.ascii	"dthz123\000"
 17973      31323300 
 17974              	.LASF26:
 17975 2b99 746D6F64 		.ascii	"tmode_t\000"
 17975      655F7400 
 17976              	.LASF864:
 17977 2ba1 5F5A4E33 		.ascii	"_ZN3r2p9PublisherINS_9PIDCfgMsgEEC2Ev\000"
 17977      72327039 
 17977      5075626C 
 17977      69736865 
 17977      72494E53 
 17978              	.LASF388:
 17979 2bc7 5F5A4E4B 		.ascii	"_ZNK3r2p10StaticListINS_15LocalSubscriberEE7restart"
 17979      33723270 
 17979      31305374 
 17979      61746963 
 17979      4C697374 
 17980 2bfa 45524E53 		.ascii	"ERNS2_13ConstIteratorE\000"
 17980      325F3133 
 17980      436F6E73 
 17980      74497465 
 17980      7261746F 
 17981              	.LASF739:
 17982 2c11 6E6F7469 		.ascii	"notify\000"
 17982      667900
 17983              	.LASF89:
 17984 2c18 70685F6E 		.ascii	"ph_next\000"
 17984      65787400 
 17985              	.LASF310:
 17986 2c20 53746174 		.ascii	"StaticList<r2p::LocalSubscriber>\000"
 17986      69634C69 
 17986      73743C72 
 17986      32703A3A 
 17986      4C6F6361 
 17987              	.LASF292:
ARM GAS  /tmp/ccB5ynkg.s 			page 343


 17988 2c41 746F5F6D 		.ascii	"to_ms\000"
 17988      7300
 17989              	.LASF248:
 17990 2c47 556E636F 		.ascii	"Uncopyable\000"
 17990      70796162 
 17990      6C6500
 17991              	.LASF311:
 17992 2c52 6E657874 		.ascii	"nextp\000"
 17992      7000
 17993              	.LASF119:
 17994 2c58 42535252 		.ascii	"BSRR\000"
 17994      00
 17995              	.LASF675:
 17996 2c5d 5F5A4E33 		.ascii	"_ZN3r2p10SpinEvent_4waitERKNS_4TimeE\000"
 17996      72327031 
 17996      30537069 
 17996      6E457665 
 17996      6E745F34 
 17997              	.LASF452:
 17998 2c82 5F5A4E4B 		.ascii	"_ZNK3r2p10StaticListINS_5TopicEE10find_firstEPFbRKS"
 17998      33723270 
 17998      31305374 
 17998      61746963 
 17998      4C697374 
 17999 2cb5 315F4500 		.ascii	"1_E\000"
 18000              	.LASF207:
 18001 2cb9 72657175 		.ascii	"requests_hook_cb\000"
 18001      65737473 
 18001      5F686F6F 
 18001      6B5F6362 
 18001      00
 18002              	.LASF179:
 18003 2cca 74787369 		.ascii	"txsize\000"
 18003      7A6500
 18004              	.LASF430:
 18005 2cd1 5F5A4E4B 		.ascii	"_ZNK3r2p10StaticListINS_5TopicEE15is_empty_unsafeEv"
 18005      33723270 
 18005      31305374 
 18005      61746963 
 18005      4C697374 
 18006 2d04 00       		.ascii	"\000"
 18007              	.LASF362:
 18008 2d05 5F5A4E4B 		.ascii	"_ZNK3r2p10StaticListINS_15LocalSubscriberEE10end_un"
 18008      33723270 
 18008      31305374 
 18008      61746963 
 18008      4C697374 
 18009 2d38 73616665 		.ascii	"safeEv\000"
 18009      457600
 18010              	.LASF696:
 18011 2d3f 5F5A4E33 		.ascii	"_ZN3r2p10StaticListINS_4NodeEE13unlink_unsafeERNS2_"
 18011      72327031 
 18011      30537461 
 18011      7469634C 
 18011      69737449 
 18012 2d72 344C696E 		.ascii	"4LinkE\000"
 18012      6B4500
ARM GAS  /tmp/ccB5ynkg.s 			page 344


 18013              	.LASF679:
 18014 2d79 5F5A4E33 		.ascii	"_ZN3r2p9SpinEvent13signal_unsafeEj\000"
 18014      72327039 
 18014      5370696E 
 18014      4576656E 
 18014      74313373 
 18015              	.LASF316:
 18016 2d9c 436F6E73 		.ascii	"ConstIteratorUnsafe\000"
 18016      74497465 
 18016      7261746F 
 18016      72556E73 
 18016      61666500 
 18017              	.LASF673:
 18018 2db0 5F5A4E33 		.ascii	"_ZN3r2p10SpinEvent_6signalEj\000"
 18018      72327031 
 18018      30537069 
 18018      6E457665 
 18018      6E745F36 
 18019              	.LASF545:
 18020 2dcd 5F5A4E33 		.ascii	"_ZN3r2p7Message7acquireEv\000"
 18020      72327037 
 18020      4D657373 
 18020      61676537 
 18020      61637175 
 18021              	.LASF633:
 18022 2de7 5F5A4E33 		.ascii	"_ZN3r2p7Thread_11create_poolERNS_11MemoryPool_EmPFl"
 18022      72327037 
 18022      54687265 
 18022      61645F31 
 18022      31637265 
 18023 2e1a 50764553 		.ascii	"PvES3_PKc\000"
 18023      335F504B 
 18023      6300
 18024              	.LASF678:
 18025 2e24 5F5A4E33 		.ascii	"_ZN3r2p9SpinEvent10set_threadEPNS_6ThreadE\000"
 18025      72327039 
 18025      5370696E 
 18025      4576656E 
 18025      74313073 
 18026              	.LASF426:
 18027 2e4f 5F5A4E4B 		.ascii	"_ZNK3r2p10StaticListINS_16RemoteSubscriberEE7restar"
 18027      33723270 
 18027      31305374 
 18027      61746963 
 18027      4C697374 
 18028 2e82 7445524E 		.ascii	"tERNS2_13ConstIteratorE\000"
 18028      53325F31 
 18028      33436F6E 
 18028      73744974 
 18028      65726174 
 18029              	.LASF496:
 18030 2e9a 69735F61 		.ascii	"is_awaiting_subscriptions\000"
 18030      77616974 
 18030      696E675F 
 18030      73756273 
 18030      63726970 
 18031              	.LASF774:
ARM GAS  /tmp/ccB5ynkg.s 			page 345


 18032 2eb4 50697879 		.ascii	"PixyMsg\000"
 18032      4D736700 
 18033              	.LASF144:
 18034 2ebc 5553425F 		.ascii	"USB_READY\000"
 18034      52454144 
 18034      5900
 18035              	.LASF358:
 18036 2ec6 5F5A4E33 		.ascii	"_ZN3r2p10StaticListINS_15LocalSubscriberEE10end_uns"
 18036      72327031 
 18036      30537461 
 18036      7469634C 
 18036      69737449 
 18037 2ef9 61666545 		.ascii	"afeEv\000"
 18037      7600
 18038              	.LASF723:
 18039 2eff 7075626C 		.ascii	"publishers\000"
 18039      69736865 
 18039      727300
 18040              	.LASF330:
 18041 2f0a 6F706572 		.ascii	"operator!=\000"
 18041      61746F72 
 18041      213D00
 18042              	.LASF357:
 18043 2f15 656E645F 		.ascii	"end_unsafe\000"
 18043      756E7361 
 18043      666500
 18044              	.LASF384:
 18045 2f20 5F5A4E33 		.ascii	"_ZN3r2p10StaticListINS_15LocalSubscriberEE7restartE"
 18045      72327031 
 18045      30537461 
 18045      7469634C 
 18045      69737449 
 18046 2f53 524E5332 		.ascii	"RNS2_8IteratorE\000"
 18046      5F384974 
 18046      65726174 
 18046      6F724500 
 18047              	.LASF598:
 18048 2f63 5F5A4E4B 		.ascii	"_ZNK3r2p10StaticListINS_14LocalPublisherEE5beginEv\000"
 18048      33723270 
 18048      31305374 
 18048      61746963 
 18048      4C697374 
 18049              	.LASF220:
 18050 2f96 31355365 		.ascii	"15SerialUSBConfig\000"
 18050      7269616C 
 18050      55534243 
 18050      6F6E6669 
 18050      6700
 18051              	.LASF72:
 18052 2fa8 725F6E65 		.ascii	"r_newer\000"
 18052      77657200 
 18053              	.LASF163:
 18054 2fb0 5553425F 		.ascii	"USB_EVENT_STALLED\000"
 18054      4556454E 
 18054      545F5354 
 18054      414C4C45 
 18054      4400
ARM GAS  /tmp/ccB5ynkg.s 			page 346


 18055              	.LASF187:
 18056 2fc2 72787369 		.ascii	"rxsize\000"
 18056      7A6500
 18057              	.LASF160:
 18058 2fc9 5553425F 		.ascii	"USB_EVENT_CONFIGURED\000"
 18058      4556454E 
 18058      545F434F 
 18058      4E464947 
 18058      55524544 
 18059              	.LASF482:
 18060 2fde 6861735F 		.ascii	"has_local_publishers\000"
 18060      6C6F6361 
 18060      6C5F7075 
 18060      626C6973 
 18060      68657273 
 18061              	.LASF371:
 18062 2ff3 5F5A4E33 		.ascii	"_ZN3r2p10StaticListINS_15LocalSubscriberEE4linkERNS"
 18062      72327031 
 18062      30537461 
 18062      7469634C 
 18062      69737449 
 18063 3026 325F344C 		.ascii	"2_4LinkE\000"
 18063      696E6B45 
 18063      00
 18064              	.LASF227:
 18065 302f 70757474 		.ascii	"putt\000"
 18065      00
 18066              	.LASF29:
 18067 3034 74736C69 		.ascii	"tslices_t\000"
 18067      6365735F 
 18067      7400
 18068              	.LASF210:
 18069 303e 31307573 		.ascii	"10usbstate_t\000"
 18069      62737461 
 18069      74655F74 
 18069      00
 18070              	.LASF547:
 18071 304b 72657365 		.ascii	"reset\000"
 18071      7400
 18072              	.LASF408:
 18073 3051 5F5A4E33 		.ascii	"_ZN3r2p10StaticListINS_16RemoteSubscriberEE14restar"
 18073      72327031 
 18073      30537461 
 18073      7469634C 
 18073      69737449 
 18074 3084 745F756E 		.ascii	"t_unsafeERNS2_14IteratorUnsafeE\000"
 18074      73616665 
 18074      45524E53 
 18074      325F3134 
 18074      49746572 
 18075              	.LASF203:
 18076 30a4 31335553 		.ascii	"13USBDescriptor\000"
 18076      42446573 
 18076      63726970 
 18076      746F7200 
 18077              	.LASF16:
 18078 30b4 73697A65 		.ascii	"sizetype\000"
ARM GAS  /tmp/ccB5ynkg.s 			page 347


 18078      74797065 
 18078      00
 18079              	.LASF304:
 18080 30bd 5F5A4E33 		.ascii	"_ZN3r2p4Time2usEl\000"
 18080      72327034 
 18080      54696D65 
 18080      32757345 
 18080      6C00
 18081              	.LASF124:
 18082 30cf 696F706F 		.ascii	"ioportmask_t\000"
 18082      72746D61 
 18082      736B5F74 
 18082      00
 18083              	.LASF161:
 18084 30dc 5553425F 		.ascii	"USB_EVENT_SUSPEND\000"
 18084      4556454E 
 18084      545F5355 
 18084      5350454E 
 18084      4400
 18085              	.LASF729:
 18086 30ee 6765745F 		.ascii	"get_subscribers\000"
 18086      73756273 
 18086      63726962 
 18086      65727300 
 18087              	.LASF80:
 18088 30fe 4576656E 		.ascii	"EventListener\000"
 18088      744C6973 
 18088      74656E65 
 18088      7200
 18089              	.LASF548:
 18090 310c 5F5A4E33 		.ascii	"_ZN3r2p7Message5resetEv\000"
 18090      72327037 
 18090      4D657373 
 18090      61676535 
 18090      72657365 
 18091              	.LASF19:
 18092 3124 696E7431 		.ascii	"int16_t\000"
 18092      365F7400 
 18093              	.LASF8:
 18094 312c 73686F72 		.ascii	"short unsigned int\000"
 18094      7420756E 
 18094      7369676E 
 18094      65642069 
 18094      6E7400
 18095              	.LASF1:
 18096 313f 7369676E 		.ascii	"signed char\000"
 18096      65642063 
 18096      68617200 
 18097              	.LASF833:
 18098 314b 73756363 		.ascii	"success\000"
 18098      65737300 
 18099              	.LASF51:
 18100 3153 705F7072 		.ascii	"p_preempt\000"
 18100      65656D70 
 18100      7400
 18101              	.LASF52:
 18102 315d 705F7469 		.ascii	"p_time\000"
ARM GAS  /tmp/ccB5ynkg.s 			page 348


 18102      6D6500
 18103              	.LASF853:
 18104 3164 636D645F 		.ascii	"cmd_stop\000"
 18104      73746F70 
 18104      00
 18105              	.LASF429:
 18106 316d 5F5A4E4B 		.ascii	"_ZNK3r2p10StaticListINS_5TopicEE15get_head_unsafeEv"
 18106      33723270 
 18106      31305374 
 18106      61746963 
 18106      4C697374 
 18107 31a0 00       		.ascii	"\000"
 18108              	.LASF848:
 18109 31a1 64793132 		.ascii	"dy12\000"
 18109      00
 18110              	.LASF867:
 18111 31a6 5F5A4E33 		.ascii	"_ZN3r2p10SubscriberINS_7PixyMsgELj5EEC2EPFbRKS1_E\000"
 18111      72327031 
 18111      30537562 
 18111      73637269 
 18111      62657249 
 18112              	.LASF267:
 18113 31d8 616C6C6F 		.ascii	"alloc\000"
 18113      6300
 18114              	.LASF769:
 18115 31de 6861735F 		.ascii	"has_topic\000"
 18115      746F7069 
 18115      6300
 18116              	.LASF352:
 18117 31e8 66696E64 		.ascii	"find_first_unsafe\000"
 18117      5F666972 
 18117      73745F75 
 18117      6E736166 
 18117      6500
 18118              	.LASF137:
 18119 31fa 73746174 		.ascii	"status\000"
 18119      757300
 18120              	.LASF564:
 18121 3201 5F5A4E4B 		.ascii	"_ZNK3r2p10StaticListINS_14LocalPublisherEE13ConstIt"
 18121      33723270 
 18121      31305374 
 18121      61746963 
 18121      4C697374 
 18122 3234 65726174 		.ascii	"eratordeEv\000"
 18122      6F726465 
 18122      457600
 18123              	.LASF645:
 18124 323f 5F5A4E33 		.ascii	"_ZN3r2p7Thread_4joinERS0_\000"
 18124      72327037 
 18124      54687265 
 18124      61645F34 
 18124      6A6F696E 
 18125              	.LASF368:
 18126 3259 636F756E 		.ascii	"count\000"
 18126      7400
 18127              	.LASF167:
 18128 325f 55534244 		.ascii	"USBDescriptor\000"
ARM GAS  /tmp/ccB5ynkg.s 			page 349


 18128      65736372 
 18128      6970746F 
 18128      7200
 18129              	.LASF331:
 18130 326d 5F5A4E4B 		.ascii	"_ZNK3r2p10StaticListINS_15LocalSubscriberEE13ConstI"
 18130      33723270 
 18130      31305374 
 18130      61746963 
 18130      4C697374 
 18131 32a0 74657261 		.ascii	"teratorneERKS3_\000"
 18131      746F726E 
 18131      6545524B 
 18131      53335F00 
 18132              	.LASF506:
 18133 32b0 5F5A4E33 		.ascii	"_ZN3r2p5Topic20notify_locals_unsafeERNS_7MessageERK"
 18133      72327035 
 18133      546F7069 
 18133      6332306E 
 18133      6F746966 
 18134 32e3 4E535F34 		.ascii	"NS_4TimeE\000"
 18134      54696D65 
 18134      4500
 18135              	.LASF707:
 18136 32ed 5F5A4E4B 		.ascii	"_ZNK3r2p10StaticListINS_4NodeEE8get_headEv\000"
 18136      33723270 
 18136      31305374 
 18136      61746963 
 18136      4C697374 
 18137              	.LASF518:
 18138 3318 5F5A4E33 		.ascii	"_ZN3r2p5Topic13notify_localsERNS_7MessageERKNS_4Tim"
 18138      72327035 
 18138      546F7069 
 18138      6331336E 
 18138      6F746966 
 18139 334b 654500   		.ascii	"eE\000"
 18140              	.LASF623:
 18141 334e 46756E63 		.ascii	"Function\000"
 18141      74696F6E 
 18141      00
 18142              	.LASF454:
 18143 3357 5F5A4E33 		.ascii	"_ZN3r2p10StaticListINS_5TopicEE5beginEv\000"
 18143      72327031 
 18143      30537461 
 18143      7469634C 
 18143      69737449 
 18144              	.LASF402:
 18145 337f 5F5A4E4B 		.ascii	"_ZNK3r2p10StaticListINS_16RemoteSubscriberEE15index"
 18145      33723270 
 18145      31305374 
 18145      61746963 
 18145      4C697374 
 18146 33b2 5F6F665F 		.ascii	"_of_unsafeERKS1_\000"
 18146      756E7361 
 18146      66654552 
 18146      4B53315F 
 18146      00
 18147              	.LASF542:
ARM GAS  /tmp/ccB5ynkg.s 			page 350


 18148 33c3 5F5A4E33 		.ascii	"_ZN3r2p7Message14release_unsafeEv\000"
 18148      72327037 
 18148      4D657373 
 18148      61676531 
 18148      3472656C 
 18149              	.LASF78:
 18150 33e5 6D5F6F77 		.ascii	"m_owner\000"
 18150      6E657200 
 18151              	.LASF63:
 18152 33ed 54687265 		.ascii	"ThreadsList\000"
 18152      6164734C 
 18152      69737400 
 18153              	.LASF392:
 18154 33f9 66657463 		.ascii	"fetch_unsafe\000"
 18154      685F756E 
 18154      73616665 
 18154      00
 18155              	.LASF693:
 18156 3406 5F5A4E4B 		.ascii	"_ZNK3r2p10StaticListINS_4NodeEE12count_unsafeEv\000"
 18156      33723270 
 18156      31305374 
 18156      61746963 
 18156      4C697374 
 18157              	.LASF550:
 18158 3436 5F5A4E33 		.ascii	"_ZN3r2p7Message4copyERS0_RKS0_j\000"
 18158      72327037 
 18158      4D657373 
 18158      61676534 
 18158      636F7079 
 18159              	.LASF437:
 18160 3456 5F5A4E4B 		.ascii	"_ZNK3r2p10StaticListINS_5TopicEE17find_first_unsafe"
 18160      33723270 
 18160      31305374 
 18160      61746963 
 18160      4C697374 
 18161 3489 45504662 		.ascii	"EPFbRKS1_E\000"
 18161      524B5331 
 18161      5F4500
 18162              	.LASF863:
 18163 3494 5F5A4E33 		.ascii	"_ZN3r2p9PublisherINS_9Speed3MsgEEC2Ev\000"
 18163      72327039 
 18163      5075626C 
 18163      69736865 
 18163      72494E53 
 18164              	.LASF348:
 18165 34ba 696E6465 		.ascii	"index_of_unsafe\000"
 18165      785F6F66 
 18165      5F756E73 
 18165      61666500 
 18166              	.LASF126:
 18167 34ca 73746174 		.ascii	"state\000"
 18167      6500
 18168              	.LASF733:
 18169 34d0 7365745F 		.ascii	"set_enabled\000"
 18169      656E6162 
 18169      6C656400 
 18170              	.LASF600:
ARM GAS  /tmp/ccB5ynkg.s 			page 351


 18171 34dc 5F5A4E4B 		.ascii	"_ZNK3r2p10StaticListINS_14LocalPublisherEE7restartE"
 18171      33723270 
 18171      31305374 
 18171      61746963 
 18171      4C697374 
 18172 350f 524E5332 		.ascii	"RNS2_13ConstIteratorE\000"
 18172      5F313343 
 18172      6F6E7374 
 18172      49746572 
 18172      61746F72 
 18173              	.LASF264:
 18174 3525 616C6C6F 		.ascii	"alloc_unsafe\000"
 18174      635F756E 
 18174      73616665 
 18174      00
 18175              	.LASF151:
 18176 3532 5553425F 		.ascii	"USB_EP0_WAITING_STS\000"
 18176      4550305F 
 18176      57414954 
 18176      494E475F 
 18176      53545300 
 18177              	.LASF570:
 18178 3546 5F5A4E4B 		.ascii	"_ZNK3r2p10StaticListINS_14LocalPublisherEE15get_hea"
 18178      33723270 
 18178      31305374 
 18178      61746963 
 18178      4C697374 
 18179 3579 645F756E 		.ascii	"d_unsafeEv\000"
 18179      73616665 
 18179      457600
 18180              	.LASF875:
 18181 3584 5F5A4E33 		.ascii	"_ZN3r2p10SubscriberINS_7PixyMsgELj5EED2Ev\000"
 18181      72327031 
 18181      30537562 
 18181      73637269 
 18181      62657249 
 18182              	.LASF653:
 18183 35ae 5F5A4E33 		.ascii	"_ZN3r2p6Thread18compute_stack_sizeEj\000"
 18183      72327036 
 18183      54687265 
 18183      61643138 
 18183      636F6D70 
 18184              	.LASF425:
 18185 35d3 5F5A4E4B 		.ascii	"_ZNK3r2p10StaticListINS_16RemoteSubscriberEE3endEv\000"
 18185      33723270 
 18185      31305374 
 18185      61746963 
 18185      4C697374 
 18186              	.LASF641:
 18187 3606 5F5A4E33 		.ascii	"_ZN3r2p7Thread_5yieldEv\000"
 18187      72327037 
 18187      54687265 
 18187      61645F35 
 18187      7969656C 
 18188              	.LASF661:
 18189 361e 5F5A4E33 		.ascii	"_ZN3r2p6Thread4joinERS0_\000"
 18189      72327036 
ARM GAS  /tmp/ccB5ynkg.s 			page 352


 18189      54687265 
 18189      6164346A 
 18189      6F696E45 
 18190              	.LASF595:
 18191 3637 5F5A4E33 		.ascii	"_ZN3r2p10StaticListINS_14LocalPublisherEE5beginEv\000"
 18191      72327031 
 18191      30537461 
 18191      7469634C 
 18191      69737449 
 18192              	.LASF265:
 18193 3669 5F5A4E33 		.ascii	"_ZN3r2p11MemoryPool_12alloc_unsafeEv\000"
 18193      72327031 
 18193      314D656D 
 18193      6F727950 
 18193      6F6F6C5F 
 18194              	.LASF879:
 18195 368e 5F5A4E33 		.ascii	"_ZN3r2p9PublisherINS_9Speed3MsgEED2Ev\000"
 18195      72327039 
 18195      5075626C 
 18195      69736865 
 18195      72494E53 
 18196              	.LASF866:
 18197 36b4 63616C6C 		.ascii	"callback\000"
 18197      6261636B 
 18197      00
 18198              	.LASF356:
 18199 36bd 5F5A4E33 		.ascii	"_ZN3r2p10StaticListINS_15LocalSubscriberEE12begin_u"
 18199      72327031 
 18199      30537461 
 18199      7469634C 
 18199      69737449 
 18200 36f0 6E736166 		.ascii	"nsafeEv\000"
 18200      65457600 
 18201              	.LASF106:
 18202 36f8 496E7075 		.ascii	"InputQueue\000"
 18202      74517565 
 18202      756500
 18203              	.LASF374:
 18204 3703 696E6465 		.ascii	"index_of\000"
 18204      785F6F66 
 18204      00
 18205              	.LASF299:
 18206 370c 5F5A4E33 		.ascii	"_ZN3r2p4TimeaSERKS0_\000"
 18206      72327034 
 18206      54696D65 
 18206      61534552 
 18206      4B53305F 
 18207              	.LASF403:
 18208 3721 5F5A4E4B 		.ascii	"_ZNK3r2p10StaticListINS_16RemoteSubscriberEE15conta"
 18208      33723270 
 18208      31305374 
 18208      61746963 
 18208      4C697374 
 18209 3754 696E735F 		.ascii	"ins_unsafeERKS1_\000"
 18209      756E7361 
 18209      66654552 
 18209      4B53315F 
ARM GAS  /tmp/ccB5ynkg.s 			page 353


 18209      00
 18210              	.LASF471:
 18211 3765 5F5A4E4B 		.ascii	"_ZNK3r2p5Topic8get_nameEv\000"
 18211      33723270 
 18211      35546F70 
 18211      69633867 
 18211      65745F6E 
 18212              	.LASF748:
 18213 377f 5F5A4E33 		.ascii	"_ZN3r2p4Node8has_nameERKS0_PKc\000"
 18213      72327034 
 18213      4E6F6465 
 18213      38686173 
 18213      5F6E616D 
 18214              	.LASF500:
 18215 379e 5F5A4E4B 		.ascii	"_ZNK3r2p5Topic23compute_deadline_unsafeEv\000"
 18215      33723270 
 18215      35546F70 
 18215      69633233 
 18215      636F6D70 
 18216              	.LASF457:
 18217 37c8 5F5A4E4B 		.ascii	"_ZNK3r2p10StaticListINS_5TopicEE5beginEv\000"
 18217      33723270 
 18217      31305374 
 18217      61746963 
 18217      4C697374 
 18218              	.LASF91:
 18219 37f1 6D705F6E 		.ascii	"mp_next\000"
 18219      65787400 
 18220              	.LASF531:
 18221 37f9 70617463 		.ascii	"patch_pubsub_msg\000"
 18221      685F7075 
 18221      62737562 
 18221      5F6D7367 
 18221      00
 18222              	.LASF608:
 18223 380a 736B6970 		.ascii	"skip_unsafe\000"
 18223      5F756E73 
 18223      61666500 
 18224              	.LASF755:
 18225 3816 42617365 		.ascii	"BaseSubscriber\000"
 18225      53756273 
 18225      63726962 
 18225      657200
 18226              	.LASF470:
 18227 3825 6765745F 		.ascii	"get_name\000"
 18227      6E616D65 
 18227      00
 18228              	.LASF549:
 18229 382e 636F7079 		.ascii	"copy\000"
 18229      00
 18230              	.LASF93:
 18231 3833 6D705F70 		.ascii	"mp_provider\000"
 18231      726F7669 
 18231      64657200 
 18232              	.LASF912:
 18233 383f 5F474C4F 		.ascii	"_GLOBAL__sub_I_vel_node\000"
 18233      42414C5F 
ARM GAS  /tmp/ccB5ynkg.s 			page 354


 18233      5F737562 
 18233      5F495F76 
 18233      656C5F6E 
 18234              	.LASF632:
 18235 3857 63726561 		.ascii	"create_pool\000"
 18235      74655F70 
 18235      6F6F6C00 
 18236              	.LASF489:
 18237 3863 5F5A4E4B 		.ascii	"_ZNK3r2p5Topic21has_local_subscribersEv\000"
 18237      33723270 
 18237      35546F70 
 18237      69633231 
 18237      6861735F 
 18238              	.LASF50:
 18239 388b 705F7265 		.ascii	"p_refs\000"
 18239      667300
 18240              	.LASF192:
 18241 3892 65705F6D 		.ascii	"ep_mode\000"
 18241      6F646500 
 18242              	.LASF719:
 18243 389a 5F5A4E4B 		.ascii	"_ZNK3r2p10StaticListINS_4NodeEE5beginEv\000"
 18243      33723270 
 18243      31305374 
 18243      61746963 
 18243      4C697374 
 18244              	.LASF10:
 18245 38c2 6C6F6E67 		.ascii	"long int\000"
 18245      20696E74 
 18245      00
 18246              	.LASF816:
 18247 38cb 7075626C 		.ascii	"publish_remotely\000"
 18247      6973685F 
 18247      72656D6F 
 18247      74656C79 
 18247      00
 18248              	.LASF307:
 18249 38dc 5F5A4E33 		.ascii	"_ZN3r2p4Time1mEl\000"
 18249      72327034 
 18249      54696D65 
 18249      316D456C 
 18249      00
 18250              	.LASF134:
 18251 38ed 6570306E 		.ascii	"ep0n\000"
 18251      00
 18252              	.LASF77:
 18253 38f2 6D5F7175 		.ascii	"m_queue\000"
 18253      65756500 
 18254              	.LASF397:
 18255 38fa 5F5A4E4B 		.ascii	"_ZNK3r2p10StaticListINS_16RemoteSubscriberEE15is_em"
 18255      33723270 
 18255      31305374 
 18255      61746963 
 18255      4C697374 
 18256 392d 7074795F 		.ascii	"pty_unsafeEv\000"
 18256      756E7361 
 18256      66654576 
 18256      00
ARM GAS  /tmp/ccB5ynkg.s 			page 355


 18257              	.LASF324:
 18258 393a 5F5A4E4B 		.ascii	"_ZNK3r2p10StaticListINS_15LocalSubscriberEE13ConstI"
 18258      33723270 
 18258      31305374 
 18258      61746963 
 18258      4C697374 
 18259 396d 74657261 		.ascii	"teratordeEv\000"
 18259      746F7264 
 18259      65457600 
 18260              	.LASF226:
 18261 3979 53657269 		.ascii	"SerialUSBDriverVMT\000"
 18261      616C5553 
 18261      42447269 
 18261      76657256 
 18261      4D5400
 18262              	.LASF373:
 18263 398c 5F5A4E33 		.ascii	"_ZN3r2p10StaticListINS_15LocalSubscriberEE6unlinkER"
 18263      72327031 
 18263      30537461 
 18263      7469634C 
 18263      69737449 
 18264 39bf 4E53325F 		.ascii	"NS2_4LinkE\000"
 18264      344C696E 
 18264      6B4500
 18265              	.LASF378:
 18266 39ca 66696E64 		.ascii	"find_first\000"
 18266      5F666972 
 18266      737400
 18267              	.LASF765:
 18268 39d5 5F5A4E33 		.ascii	"_ZN3r2p14BaseSubscriber14release_unsafeERNS_7Messag"
 18268      72327031 
 18268      34426173 
 18268      65537562 
 18268      73637269 
 18269 3a08 654500   		.ascii	"eE\000"
 18270              	.LASF361:
 18271 3a0b 5F5A4E4B 		.ascii	"_ZNK3r2p10StaticListINS_15LocalSubscriberEE12begin_"
 18271      33723270 
 18271      31305374 
 18271      61746963 
 18271      4C697374 
 18272 3a3e 756E7361 		.ascii	"unsafeEv\000"
 18272      66654576 
 18272      00
 18273              	.LASF872:
 18274 3a47 5F5A4E33 		.ascii	"_ZN3r2p16SubscriberExtBufINS_7PixyMsgEED0Ev\000"
 18274      72327031 
 18274      36537562 
 18274      73637269 
 18274      62657245 
 18275              	.LASF228:
 18276 3a73 67657474 		.ascii	"gett\000"
 18276      00
 18277              	.LASF488:
 18278 3a78 6861735F 		.ascii	"has_local_subscribers\000"
 18278      6C6F6361 
 18278      6C5F7375 
ARM GAS  /tmp/ccB5ynkg.s 			page 356


 18278      62736372 
 18278      69626572 
 18279              	.LASF556:
 18280 3a8e 62795F6E 		.ascii	"by_node\000"
 18280      6F646500 
 18281              	.LASF102:
 18282 3a96 715F7264 		.ascii	"q_rdptr\000"
 18282      70747200 
 18283              	.LASF67:
 18284 3a9e 636F6E74 		.ascii	"context\000"
 18284      65787400 
 18285              	.LASF109:
 18286 3aa6 77726974 		.ascii	"write\000"
 18286      6500
 18287              	.LASF218:
 18288 3aac 69717565 		.ascii	"iqueue\000"
 18288      756500
 18289              	.LASF194:
 18290 3ab3 696E5F63 		.ascii	"in_cb\000"
 18290      6200
 18291              	.LASF377:
 18292 3ab9 5F5A4E4B 		.ascii	"_ZNK3r2p10StaticListINS_15LocalSubscriberEE8contain"
 18292      33723270 
 18292      31305374 
 18292      61746963 
 18292      4C697374 
 18293 3aec 7345524B 		.ascii	"sERKS1_\000"
 18293      53315F00 
 18294              	.LASF120:
 18295 3af4 4C434B52 		.ascii	"LCKR\000"
 18295      00
 18296              	.LASF22:
 18297 3af9 75696E74 		.ascii	"uint32_t\000"
 18297      33325F74 
 18297      00
 18298              	.LASF319:
 18299 3b02 436F6E73 		.ascii	"ConstIterator\000"
 18299      74497465 
 18299      7261746F 
 18299      7200
 18300              	.LASF630:
 18301 3b10 63726561 		.ascii	"create_heap\000"
 18301      74655F68 
 18301      65617000 
 18302              	.LASF171:
 18303 3b1c 75736272 		.ascii	"usbreqhandler_t\000"
 18303      65716861 
 18303      6E646C65 
 18303      725F7400 
 18304              	.LASF338:
 18305 3b2c 5F5A4E4B 		.ascii	"_ZNK3r2p10StaticListINS_15LocalSubscriberEE15get_he"
 18305      33723270 
 18305      31305374 
 18305      61746963 
 18305      4C697374 
 18306 3b5f 61645F75 		.ascii	"ad_unsafeEv\000"
 18306      6E736166 
ARM GAS  /tmp/ccB5ynkg.s 			page 357


 18306      65457600 
 18307              	.LASF770:
 18308 3b6b 5F5A4E33 		.ascii	"_ZN3r2p14BaseSubscriber9has_topicERKS0_PKc\000"
 18308      72327031 
 18308      34426173 
 18308      65537562 
 18308      73637269 
 18309              	.LASF778:
 18310 3b96 71756575 		.ascii	"queue_buf\000"
 18310      655F6275 
 18310      6600
 18311              	.LASF516:
 18312 3ba0 5F5A4E33 		.ascii	"_ZN3r2p5Topic4freeERNS_7MessageE\000"
 18312      72327035 
 18312      546F7069 
 18312      63346672 
 18312      65654552 
 18313              	.LASF246:
 18314 3bc1 73747274 		.ascii	"strtok\000"
 18314      6F6B00
 18315              	.LASF815:
 18316 3bc8 5F5A4E33 		.ascii	"_ZN3r2p13BasePublisher15publish_locallyERNS_7Messag"
 18316      72327031 
 18316      33426173 
 18316      65507562 
 18316      6C697368 
 18317 3bfb 654500   		.ascii	"eE\000"
 18318              	.LASF64:
 18319 3bfe 72656761 		.ascii	"regarm_t\000"
 18319      726D5F74 
 18319      00
 18320              	.LASF32:
 18321 3c07 6576656E 		.ascii	"eventmask_t\000"
 18321      746D6173 
 18321      6B5F7400 
 18322              	.LASF158:
 18323 3c13 5553425F 		.ascii	"USB_EVENT_RESET\000"
 18323      4556454E 
 18323      545F5245 
 18323      53455400 
 18324              	.LASF615:
 18325 3c23 5F5A4E33 		.ascii	"_ZN3r2p10ArrayQueueIPNS_7MessageEE4postES2_\000"
 18325      72327031 
 18325      30417272 
 18325      61795175 
 18325      65756549 
 18326              	.LASF284:
 18327 3c4f 746F5F6D 		.ascii	"to_ms_raw\000"
 18327      735F7261 
 18327      7700
 18328              	.LASF504:
 18329 3c59 5F5A4E33 		.ascii	"_ZN3r2p5Topic11free_unsafeERNS_7MessageE\000"
 18329      72327035 
 18329      546F7069 
 18329      63313166 
 18329      7265655F 
 18330              	.LASF145:
ARM GAS  /tmp/ccB5ynkg.s 			page 358


 18331 3c82 5553425F 		.ascii	"USB_SELECTED\000"
 18331      53454C45 
 18331      43544544 
 18331      00
 18332              	.LASF424:
 18333 3c8f 5F5A4E4B 		.ascii	"_ZNK3r2p10StaticListINS_16RemoteSubscriberEE5beginE"
 18333      33723270 
 18333      31305374 
 18333      61746963 
 18333      4C697374 
 18334 3cc2 7600     		.ascii	"v\000"
 18335              	.LASF622:
 18336 3cc4 5072696F 		.ascii	"Priority\000"
 18336      72697479 
 18336      00
 18337              	.LASF12:
 18338 3ccd 6C6F6E67 		.ascii	"long unsigned int\000"
 18338      20756E73 
 18338      69676E65 
 18338      6420696E 
 18338      7400
 18339              	.LASF24:
 18340 3cdf 626F6F6C 		.ascii	"bool_t\000"
 18340      5F7400
 18341              	.LASF658:
 18342 3ce6 5F5A4E33 		.ascii	"_ZN3r2p6Thread12set_priorityEm\000"
 18342      72327036 
 18342      54687265 
 18342      61643132 
 18342      7365745F 
 18343              	.LASF806:
 18344 3d05 7075626C 		.ascii	"publish_unsafe\000"
 18344      6973685F 
 18344      756E7361 
 18344      666500
 18345              	.LASF730:
 18346 3d14 5F5A4E4B 		.ascii	"_ZNK3r2p4Node15get_subscribersEv\000"
 18346      33723270 
 18346      344E6F64 
 18346      65313567 
 18346      65745F73 
 18347              	.LASF273:
 18348 3d35 5F5A4E33 		.ascii	"_ZN3r2p11MemoryPool_6extendEPvj\000"
 18348      72327031 
 18348      314D656D 
 18348      6F727950 
 18348      6F6F6C5F 
 18349              	.LASF300:
 18350 3d55 6F706572 		.ascii	"operator+=\000"
 18350      61746F72 
 18350      2B3D00
 18351              	.LASF349:
 18352 3d60 5F5A4E4B 		.ascii	"_ZNK3r2p10StaticListINS_15LocalSubscriberEE15index_"
 18352      33723270 
 18352      31305374 
 18352      61746963 
 18352      4C697374 
ARM GAS  /tmp/ccB5ynkg.s 			page 359


 18353 3d93 6F665F75 		.ascii	"of_unsafeERKS1_\000"
 18353      6E736166 
 18353      6545524B 
 18353      53315F00 
 18354              	.LASF508:
 18355 3da3 5F5A4E33 		.ascii	"_ZN3r2p5Topic21notify_remotes_unsafeERNS_7MessageER"
 18355      72327035 
 18355      546F7069 
 18355      6332316E 
 18355      6F746966 
 18356 3dd6 4B4E535F 		.ascii	"KNS_4TimeE\000"
 18356      3454696D 
 18356      654500
 18357              	.LASF910:
 18358 3de1 636C616D 		.ascii	"clamp<float>\000"
 18358      703C666C 
 18358      6F61743E 
 18358      00
 18359              	.LASF159:
 18360 3dee 5553425F 		.ascii	"USB_EVENT_ADDRESS\000"
 18360      4556454E 
 18360      545F4144 
 18360      44524553 
 18360      5300
 18361              	.LASF813:
 18362 3e00 5F5A4E33 		.ascii	"_ZN3r2p13BasePublisher7publishERNS_7MessageE\000"
 18362      72327031 
 18362      33426173 
 18362      65507562 
 18362      6C697368 
 18363              	.LASF305:
 18364 3e2d 5F5A4E33 		.ascii	"_ZN3r2p4Time2msEl\000"
 18364      72327034 
 18364      54696D65 
 18364      326D7345 
 18364      6C00
 18365              	.LASF213:
 18366 3e3f 5344555F 		.ascii	"SDU_STOP\000"
 18366      53544F50 
 18366      00
 18367              	.LASF582:
 18368 3e48 5F5A4E33 		.ascii	"_ZN3r2p10StaticListINS_14LocalPublisherEE14restart_"
 18368      72327031 
 18368      30537461 
 18368      7469634C 
 18368      69737449 
 18369 3e7b 756E7361 		.ascii	"unsafeERNS2_14IteratorUnsafeE\000"
 18369      66654552 
 18369      4E53325F 
 18369      31344974 
 18369      65726174 
 18370              	.LASF325:
 18371 3e99 6F706572 		.ascii	"operator++\000"
 18371      61746F72 
 18371      2B2B00
 18372              	.LASF559:
 18373 3ea4 5472616E 		.ascii	"Transport\000"
ARM GAS  /tmp/ccB5ynkg.s 			page 360


 18373      73706F72 
 18373      7400
 18374              	.LASF629:
 18375 3eae 5F5A4E33 		.ascii	"_ZN3r2p7Thread_13create_staticEPvjmPFlS1_ES1_PKc\000"
 18375      72327037 
 18375      54687265 
 18375      61645F31 
 18375      33637265 
 18376              	.LASF656:
 18377 3edf 5F5A4E33 		.ascii	"_ZN3r2p6Thread4selfEv\000"
 18377      72327036 
 18377      54687265 
 18377      61643473 
 18377      656C6645 
 18378              	.LASF578:
 18379 3ef5 5F5A4E4B 		.ascii	"_ZNK3r2p10StaticListINS_14LocalPublisherEE17find_fi"
 18379      33723270 
 18379      31305374 
 18379      61746963 
 18379      4C697374 
 18380 3f28 7273745F 		.ascii	"rst_unsafeEPFbRKS1_E\000"
 18380      756E7361 
 18380      66654550 
 18380      4662524B 
 18380      53315F45 
 18381              	.LASF895:
 18382 3f3d 73657269 		.ascii	"serialp\000"
 18382      616C7000 
 18383              	.LASF164:
 18384 3f45 75736265 		.ascii	"usbevent_t\000"
 18384      76656E74 
 18384      5F7400
 18385              	.LASF332:
 18386 3f50 69735F76 		.ascii	"is_valid\000"
 18386      616C6964 
 18386      00
 18387              	.LASF17:
 18388 3f59 63686172 		.ascii	"char\000"
 18388      00
 18389              	.LASF250:
 18390 3f5e 5379734C 		.ascii	"SysLock_\000"
 18390      6F636B5F 
 18390      00
 18391              	.LASF69:
 18392 3f67 725F7175 		.ascii	"r_queue\000"
 18392      65756500 
 18393              	.LASF606:
 18394 3f6f 5F5A4E33 		.ascii	"_ZN3r2p10ArrayQueueIPNS_7MessageEE11post_unsafeES2_"
 18394      72327031 
 18394      30417272 
 18394      61795175 
 18394      65756549 
 18395 3fa2 00       		.ascii	"\000"
 18396              	.LASF468:
 18397 3fa3 6D61785F 		.ascii	"max_queue_length\000"
 18397      71756575 
 18397      655F6C65 
ARM GAS  /tmp/ccB5ynkg.s 			page 361


 18397      6E677468 
 18397      00
 18398              	.LASF842:
 18399 3fb4 63687072 		.ascii	"chprintf\000"
 18399      696E7466 
 18399      00
 18400              	.LASF836:
 18401 3fbd 656E6162 		.ascii	"enabled\000"
 18401      6C656400 
 18402              	.LASF664:
 18403 3fc5 4D61736B 		.ascii	"Mask\000"
 18403      00
 18404              	.LASF498:
 18405 3fca 636F6D70 		.ascii	"compute_deadline_unsafe\000"
 18405      7574655F 
 18405      64656164 
 18405      6C696E65 
 18405      5F756E73 
 18406              	.LASF637:
 18407 3fe2 5F5A4E33 		.ascii	"_ZN3r2p7Thread_12get_priorityEv\000"
 18407      72327037 
 18407      54687265 
 18407      61645F31 
 18407      32676574 
 18408              	.LASF911:
 18409 4002 5F5F7374 		.ascii	"__static_initialization_and_destruction_0\000"
 18409      61746963 
 18409      5F696E69 
 18409      7469616C 
 18409      697A6174 
 18410              	.LASF104:
 18411 402c 715F6C69 		.ascii	"q_link\000"
 18411      6E6B00
 18412              	.LASF893:
 18413 4033 70697879 		.ascii	"pixy_sub\000"
 18413      5F737562 
 18413      00
 18414              	.LASF654:
 18415 403c 5F5A4E33 		.ascii	"_ZN3r2p6Thread13create_staticEPvjmPFlS1_ES1_PKc\000"
 18415      72327036 
 18415      54687265 
 18415      61643133 
 18415      63726561 
 18416              	.LASF351:
 18417 406c 5F5A4E4B 		.ascii	"_ZNK3r2p10StaticListINS_15LocalSubscriberEE15contai"
 18417      33723270 
 18417      31305374 
 18417      61746963 
 18417      4C697374 
 18418 409f 6E735F75 		.ascii	"ns_unsafeERKS1_\000"
 18418      6E736166 
 18418      6545524B 
 18418      53315F00 
 18419              	.LASF635:
 18420 40af 6765745F 		.ascii	"get_priority\000"
 18420      7072696F 
 18420      72697479 
ARM GAS  /tmp/ccB5ynkg.s 			page 362


 18420      00
 18421              	.LASF302:
 18422 40bc 6F706572 		.ascii	"operator-=\000"
 18422      61746F72 
 18422      2D3D00
 18423              	.LASF321:
 18424 40c7 6F706572 		.ascii	"operator->\000"
 18424      61746F72 
 18424      2D3E00
 18425              	.LASF588:
 18426 40d2 5F5A4E4B 		.ascii	"_ZNK3r2p10StaticListINS_14LocalPublisherEE5countEv\000"
 18426      33723270 
 18426      31305374 
 18426      61746963 
 18426      4C697374 
 18427              	.LASF572:
 18428 4105 5F5A4E4B 		.ascii	"_ZNK3r2p10StaticListINS_14LocalPublisherEE12count_u"
 18428      33723270 
 18428      31305374 
 18428      61746963 
 18428      4C697374 
 18429 4138 6E736166 		.ascii	"nsafeEv\000"
 18429      65457600 
 18430              	.LASF487:
 18431 4140 5F5A4E4B 		.ascii	"_ZNK3r2p5Topic14has_publishersEv\000"
 18431      33723270 
 18431      35546F70 
 18431      69633134 
 18431      6861735F 
 18432              	.LASF61:
 18433 4161 31325468 		.ascii	"12ThreadsQueue\000"
 18433      72656164 
 18433      73517565 
 18433      756500
 18434              	.LASF596:
 18435 4170 5F5A4E33 		.ascii	"_ZN3r2p10StaticListINS_14LocalPublisherEE3endEv\000"
 18435      72327031 
 18435      30537461 
 18435      7469634C 
 18435      69737449 
 18436              	.LASF857:
 18437 41a0 6E6F6465 		.ascii	"node\000"
 18437      00
 18438              	.LASF139:
 18439 41a5 636F6E66 		.ascii	"configuration\000"
 18439      69677572 
 18439      6174696F 
 18439      6E00
 18440              	.LASF753:
 18441 41b3 61647665 		.ascii	"advertise<r2p::PIDCfgMsg>\000"
 18441      72746973 
 18441      653C7232 
 18441      703A3A50 
 18441      49444366 
 18442              	.LASF327:
 18443 41cd 5F5A4E33 		.ascii	"_ZN3r2p10StaticListINS_15LocalSubscriberEE13ConstIt"
 18443      72327031 
ARM GAS  /tmp/ccB5ynkg.s 			page 363


 18443      30537461 
 18443      7469634C 
 18443      69737449 
 18444 4200 65726174 		.ascii	"eratorppEi\000"
 18444      6F727070 
 18444      456900
 18445              	.LASF597:
 18446 420b 5F5A4E33 		.ascii	"_ZN3r2p10StaticListINS_14LocalPublisherEE7restartER"
 18446      72327031 
 18446      30537461 
 18446      7469634C 
 18446      69737449 
 18447 423e 4E53325F 		.ascii	"NS2_8IteratorE\000"
 18447      38497465 
 18447      7261746F 
 18447      724500
 18448              	.LASF665:
 18449 424d 43685468 		.ascii	"ChThread\000"
 18449      72656164 
 18449      00
 18450              	.LASF584:
 18451 4256 5F5A4E4B 		.ascii	"_ZNK3r2p10StaticListINS_14LocalPublisherEE10end_uns"
 18451      33723270 
 18451      31305374 
 18451      61746963 
 18451      4C697374 
 18452 4289 61666545 		.ascii	"afeEv\000"
 18452      7600
 18453              	.LASF827:
 18454 428f 73746174 		.ascii	"static_cast_check<r2p::PIDCfgMsg, r2p::Message>\000"
 18454      69635F63 
 18454      6173745F 
 18454      63686563 
 18454      6B3C7232 
 18455              	.LASF260:
 18456 42bf 6765745F 		.ascii	"get_item_size\000"
 18456      6974656D 
 18456      5F73697A 
 18456      6500
 18457              	.LASF326:
 18458 42cd 5F5A4E33 		.ascii	"_ZN3r2p10StaticListINS_15LocalSubscriberEE13ConstIt"
 18458      72327031 
 18458      30537461 
 18458      7469634C 
 18458      69737449 
 18459 4300 65726174 		.ascii	"eratorppEv\000"
 18459      6F727070 
 18459      457600
 18460              	.LASF876:
 18461 430b 5F5A4E33 		.ascii	"_ZN3r2p10SubscriberINS_7PixyMsgELj5EED0Ev\000"
 18461      72327031 
 18461      30537562 
 18461      73637269 
 18461      62657249 
 18462              	.LASF775:
 18463 4335 62756666 		.ascii	"buffer\000"
 18463      657200
ARM GAS  /tmp/ccB5ynkg.s 			page 364


 18464              	.LASF413:
 18465 433c 5F5A4E4B 		.ascii	"_ZNK3r2p10StaticListINS_16RemoteSubscriberEE8is_emp"
 18465      33723270 
 18465      31305374 
 18465      61746963 
 18465      4C697374 
 18466 436f 74794576 		.ascii	"tyEv\000"
 18466      00
 18467              	.LASF634:
 18468 4374 73656C66 		.ascii	"self\000"
 18468      00
 18469              	.LASF529:
 18470 4379 5F5A4E33 		.ascii	"_ZN3r2p5Topic9subscribeERNS_15LocalSubscriberEj\000"
 18470      72327035 
 18470      546F7069 
 18470      63397375 
 18470      62736372 
 18471              	.LASF505:
 18472 43a9 6E6F7469 		.ascii	"notify_locals_unsafe\000"
 18472      66795F6C 
 18472      6F63616C 
 18472      735F756E 
 18472      73616665 
 18473              	.LASF256:
 18474 43be 5F5A4E33 		.ascii	"_ZN3r2p7SysLock7acquireEv\000"
 18474      72327037 
 18474      5379734C 
 18474      6F636B37 
 18474      61637175 
 18475              	.LASF47:
 18476 43d8 705F7374 		.ascii	"p_stklimit\000"
 18476      6B6C696D 
 18476      697400
 18477              	.LASF150:
 18478 43e3 5553425F 		.ascii	"USB_EP0_WAITING_TX0\000"
 18478      4550305F 
 18478      57414954 
 18478      494E475F 
 18478      54583000 
 18479              	.LASF643:
 18480 43f7 5F5A4E33 		.ascii	"_ZN3r2p7Thread_5sleepERKNS_4TimeE\000"
 18480      72327037 
 18480      54687265 
 18480      61645F35 
 18480      736C6565 
 18481              	.LASF133:
 18482 4419 6570306E 		.ascii	"ep0next\000"
 18482      65787400 
 18483              	.LASF347:
 18484 4421 5F5A4E33 		.ascii	"_ZN3r2p10StaticListINS_15LocalSubscriberEE13unlink_"
 18484      72327031 
 18484      30537461 
 18484      7469634C 
 18484      69737449 
 18485 4454 756E7361 		.ascii	"unsafeERNS2_4LinkE\000"
 18485      66654552 
 18485      4E53325F 
ARM GAS  /tmp/ccB5ynkg.s 			page 365


 18485      344C696E 
 18485      6B4500
 18486              	.LASF398:
 18487 4467 5F5A4E4B 		.ascii	"_ZNK3r2p10StaticListINS_16RemoteSubscriberEE12count"
 18487      33723270 
 18487      31305374 
 18487      61746963 
 18487      4C697374 
 18488 449a 5F756E73 		.ascii	"_unsafeEv\000"
 18488      61666545 
 18488      7600
 18489              	.LASF525:
 18490 44a4 61647665 		.ascii	"advertise\000"
 18490      72746973 
 18490      6500
 18491              	.LASF276:
 18492 44ae 54696D65 		.ascii	"Time\000"
 18492      00
 18493              	.LASF524:
 18494 44b3 5F5A4E33 		.ascii	"_ZN3r2p5Topic11extend_poolEPNS_7MessageEj\000"
 18494      72327035 
 18494      546F7069 
 18494      63313165 
 18494      7874656E 
 18495              	.LASF342:
 18496 44dd 6C696E6B 		.ascii	"link_unsafe\000"
 18496      5F756E73 
 18496      61666500 
 18497              	.LASF122:
 18498 44e9 41465248 		.ascii	"AFRH\000"
 18498      00
 18499              	.LASF743:
 18500 44ee 7370696E 		.ascii	"spin\000"
 18500      00
 18501              	.LASF121:
 18502 44f3 4146524C 		.ascii	"AFRL\000"
 18502      00
 18503              	.LASF405:
 18504 44f8 5F5A4E4B 		.ascii	"_ZNK3r2p10StaticListINS_16RemoteSubscriberEE17find_"
 18504      33723270 
 18504      31305374 
 18504      61746963 
 18504      4C697374 
 18505 452b 66697273 		.ascii	"first_unsafeEPFbRKS1_PKvES6_\000"
 18505      745F756E 
 18505      73616665 
 18505      45504662 
 18505      524B5331 
 18506              	.LASF237:
 18507 4548 73635F6E 		.ascii	"sc_name\000"
 18507      616D6500 
 18508              	.LASF530:
 18509 4550 5F5A4E33 		.ascii	"_ZN3r2p5Topic9subscribeERNS_16RemoteSubscriberEj\000"
 18509      72327035 
 18509      546F7069 
 18509      63397375 
 18509      62736372 
ARM GAS  /tmp/ccB5ynkg.s 			page 366


 18510              	.LASF573:
 18511 4581 5F5A4E33 		.ascii	"_ZN3r2p10StaticListINS_14LocalPublisherEE11link_uns"
 18511      72327031 
 18511      30537461 
 18511      7469634C 
 18511      69737449 
 18512 45b4 61666545 		.ascii	"afeERNS2_4LinkE\000"
 18512      524E5332 
 18512      5F344C69 
 18512      6E6B4500 
 18513              	.LASF127:
 18514 45c4 636F6E66 		.ascii	"config\000"
 18514      696700
 18515              	.LASF898:
 18516 45cb 7573625F 		.ascii	"usb_shell_cfg\000"
 18516      7368656C 
 18516      6C5F6366 
 18516      6700
 18517              	.LASF671:
 18518 45d9 5F5A4E33 		.ascii	"_ZN3r2p10SpinEvent_13signal_unsafeEj\000"
 18518      72327031 
 18518      30537069 
 18518      6E457665 
 18518      6E745F31 
 18519              	.LASF411:
 18520 45fe 5F5A4E4B 		.ascii	"_ZNK3r2p10StaticListINS_16RemoteSubscriberEE14resta"
 18520      33723270 
 18520      31305374 
 18520      61746963 
 18520      4C697374 
 18521 4631 72745F75 		.ascii	"rt_unsafeERNS2_19ConstIteratorUnsafeE\000"
 18521      6E736166 
 18521      6545524E 
 18521      53325F31 
 18521      39436F6E 
 18522              	.LASF535:
 18523 4657 4D657373 		.ascii	"Message\000"
 18523      61676500 
 18524              	.LASF38:
 18525 465f 77746F62 		.ascii	"wtobjp\000"
 18525      6A7000
 18526              	.LASF477:
 18527 4666 5F5A4E4B 		.ascii	"_ZNK3r2p5Topic16get_payload_sizeEv\000"
 18527      33723270 
 18527      35546F70 
 18527      69633136 
 18527      6765745F 
 18528              	.LASF878:
 18529 4689 5F5A4E33 		.ascii	"_ZN3r2p9PublisherINS_9PIDCfgMsgEED0Ev\000"
 18529      72327039 
 18529      5075626C 
 18529      69736865 
 18529      72494E53 
 18530              	.LASF58:
 18531 46af 705F7265 		.ascii	"p_realprio\000"
 18531      616C7072 
 18531      696F00
ARM GAS  /tmp/ccB5ynkg.s 			page 367


 18532              	.LASF262:
 18533 46ba 5F5A4E4B 		.ascii	"_ZNK3r2p11MemoryPool_13get_item_sizeEv\000"
 18533      33723270 
 18533      31314D65 
 18533      6D6F7279 
 18533      506F6F6C 
 18534              	.LASF660:
 18535 46e1 5F5A4E33 		.ascii	"_ZN3r2p6Thread5sleepERKNS_4TimeE\000"
 18535      72327036 
 18535      54687265 
 18535      61643573 
 18535      6C656570 
 18536              	.LASF826:
 18537 4702 73746174 		.ascii	"static_cast_check<r2p::Speed3Msg, r2p::Message>\000"
 18537      69635F63 
 18537      6173745F 
 18537      63686563 
 18537      6B3C7232 
 18538              	.LASF225:
 18539 4732 53657269 		.ascii	"SerialUSBConfig\000"
 18539      616C5553 
 18539      42436F6E 
 18539      66696700 
 18540              	.LASF306:
 18541 4742 5F5A4E33 		.ascii	"_ZN3r2p4Time1sEl\000"
 18541      72327034 
 18541      54696D65 
 18541      3173456C 
 18541      00
 18542              	.LASF103:
 18543 4753 715F6E6F 		.ascii	"q_notify\000"
 18543      74696679 
 18543      00
 18544              	.LASF230:
 18545 475c 72656164 		.ascii	"readt\000"
 18545      7400
 18546              	.LASF252:
 18547 4762 72656C65 		.ascii	"release\000"
 18547      61736500 
 18548              	.LASF766:
 18549 476a 5F5A4E33 		.ascii	"_ZN3r2p14BaseSubscriber6notifyERNS_7MessageERKNS_4T"
 18549      72327031 
 18549      34426173 
 18549      65537562 
 18549      73637269 
 18550 479d 696D6545 		.ascii	"imeE\000"
 18550      00
 18551              	.LASF828:
 18552 47a2 646F7562 		.ascii	"double\000"
 18552      6C6500
 18553              	.LASF190:
 18554 47a9 5553424F 		.ascii	"USBOutEndpointState\000"
 18554      7574456E 
 18554      64706F69 
 18554      6E745374 
 18554      61746500 
 18555              	.LASF420:
ARM GAS  /tmp/ccB5ynkg.s 			page 368


 18556 47bd 5F5A4E4B 		.ascii	"_ZNK3r2p10StaticListINS_16RemoteSubscriberEE10find_"
 18556      33723270 
 18556      31305374 
 18556      61746963 
 18556      4C697374 
 18557 47f0 66697273 		.ascii	"firstEPFbRKS1_PKvES6_\000"
 18557      74455046 
 18557      62524B53 
 18557      315F504B 
 18557      76455336 
 18558              	.LASF257:
 18559 4806 5F5A4E33 		.ascii	"_ZN3r2p7SysLock7releaseEv\000"
 18559      72327037 
 18559      5379734C 
 18559      6F636B37 
 18559      72656C65 
 18560              	.LASF844:
 18561 4820 61726763 		.ascii	"argc\000"
 18561      00
 18562              	.LASF822:
 18563 4825 5F5A4E33 		.ascii	"_ZN3r2p9PublisherINS_9Speed3MsgEE7publishERS1_\000"
 18563      72327039 
 18563      5075626C 
 18563      69736865 
 18563      72494E53 
 18564              	.LASF716:
 18565 4854 5F5A4E33 		.ascii	"_ZN3r2p10StaticListINS_4NodeEE5beginEv\000"
 18565      72327031 
 18565      30537461 
 18565      7469634C 
 18565      69737449 
 18566              	.LASF238:
 18567 487b 73635F66 		.ascii	"sc_function\000"
 18567      756E6374 
 18567      696F6E00 
 18568              	.LASF571:
 18569 4887 5F5A4E4B 		.ascii	"_ZNK3r2p10StaticListINS_14LocalPublisherEE15is_empt"
 18569      33723270 
 18569      31305374 
 18569      61746963 
 18569      4C697374 
 18570 48ba 795F756E 		.ascii	"y_unsafeEv\000"
 18570      73616665 
 18570      457600
 18571              	.LASF845:
 18572 48c5 61726776 		.ascii	"argv\000"
 18572      00
 18573              	.LASF612:
 18574 48ca 6765745F 		.ascii	"get_count\000"
 18574      636F756E 
 18574      7400
 18575              	.LASF494:
 18576 48d4 69735F61 		.ascii	"is_awaiting_advertisements\000"
 18576      77616974 
 18576      696E675F 
 18576      61647665 
 18576      72746973 
ARM GAS  /tmp/ccB5ynkg.s 			page 369


 18577              	.LASF676:
 18578 48ef 5370696E 		.ascii	"SpinEvent\000"
 18578      4576656E 
 18578      7400
 18579              	.LASF747:
 18580 48f9 7E4E6F64 		.ascii	"~Node\000"
 18580      6500
 18581              	.LASF566:
 18582 48ff 5F5A4E33 		.ascii	"_ZN3r2p10StaticListINS_14LocalPublisherEE13ConstIte"
 18582      72327031 
 18582      30537461 
 18582      7469634C 
 18582      69737449 
 18583 4932 7261746F 		.ascii	"ratorppEi\000"
 18583      72707045 
 18583      6900
 18584              	.LASF586:
 18585 493c 5F5A4E4B 		.ascii	"_ZNK3r2p10StaticListINS_14LocalPublisherEE8get_head"
 18585      33723270 
 18585      31305374 
 18585      61746963 
 18585      4C697374 
 18586 496f 457600   		.ascii	"Ev\000"
 18587              	.LASF532:
 18588 4972 6861735F 		.ascii	"has_name\000"
 18588      6E616D65 
 18588      00
 18589              	.LASF118:
 18590 497b 50555044 		.ascii	"PUPDR\000"
 18590      5200
 18591              	.LASF9:
 18592 4981 5F5F696E 		.ascii	"__int32_t\000"
 18592      7433325F 
 18592      7400
 18593              	.LASF540:
 18594 498b 61637175 		.ascii	"acquire_unsafe\000"
 18594      6972655F 
 18594      756E7361 
 18594      666500
 18595              	.LASF497:
 18596 499a 5F5A4E4B 		.ascii	"_ZNK3r2p5Topic25is_awaiting_subscriptionsEv\000"
 18596      33723270 
 18596      35546F70 
 18596      69633235 
 18596      69735F61 
 18597              	.LASF11:
 18598 49c6 5F5F7569 		.ascii	"__uint32_t\000"
 18598      6E743332 
 18598      5F7400
 18599              	.LASF843:
 18600 49d1 636D645F 		.ascii	"cmd_run\000"
 18600      72756E00 
 18601              	.LASF563:
 18602 49d9 5F5A4E4B 		.ascii	"_ZNK3r2p10StaticListINS_14LocalPublisherEE13ConstIt"
 18602      33723270 
 18602      31305374 
 18602      61746963 
ARM GAS  /tmp/ccB5ynkg.s 			page 370


 18602      4C697374 
 18603 4a0c 65726174 		.ascii	"eratorptEv\000"
 18603      6F727074 
 18603      457600
 18604              	.LASF432:
 18605 4a17 5F5A4E33 		.ascii	"_ZN3r2p10StaticListINS_5TopicEE11link_unsafeERNS2_4"
 18605      72327031 
 18605      30537461 
 18605      7469634C 
 18605      69737449 
 18606 4a4a 4C696E6B 		.ascii	"LinkE\000"
 18606      4500
 18607              	.LASF805:
 18608 4a50 5F5A4E33 		.ascii	"_ZN3r2p13BasePublisher12alloc_unsafeERPNS_7MessageE"
 18608      72327031 
 18608      33426173 
 18608      65507562 
 18608      6C697368 
 18609 4a83 00       		.ascii	"\000"
 18610              	.LASF98:
 18611 4a84 715F636F 		.ascii	"q_counter\000"
 18611      756E7465 
 18611      7200
 18612              	.LASF148:
 18613 4a8e 5553425F 		.ascii	"USB_EP0_WAITING_SETUP\000"
 18613      4550305F 
 18613      57414954 
 18613      494E475F 
 18613      53455455 
 18614              	.LASF350:
 18615 4aa4 636F6E74 		.ascii	"contains_unsafe\000"
 18615      61696E73 
 18615      5F756E73 
 18615      61666500 
 18616              	.LASF854:
 18617 4ab4 636D645F 		.ascii	"cmd_enc\000"
 18617      656E6300 
 18618              	.LASF862:
 18619 4abc 6974656D 		.ascii	"item\000"
 18619      00
 18620              	.LASF177:
 18621 4ac1 71756575 		.ascii	"queue\000"
 18621      6500
 18622              	.LASF443:
 18623 4ac7 5F5A4E4B 		.ascii	"_ZNK3r2p10StaticListINS_5TopicEE10end_unsafeEv\000"
 18623      33723270 
 18623      31305374 
 18623      61746963 
 18623      4C697374 
 18624              	.LASF533:
 18625 4af6 5F5A4E4B 		.ascii	"_ZNK3r2p5Topic16patch_pubsub_msgERNS_7MessageERNS_9"
 18625      33723270 
 18625      35546F70 
 18625      69633136 
 18625      70617463 
 18626 4b29 5472616E 		.ascii	"TransportE\000"
 18626      73706F72 
ARM GAS  /tmp/ccB5ynkg.s 			page 371


 18626      744500
 18627              	.LASF613:
 18628 4b34 5F5A4E4B 		.ascii	"_ZNK3r2p10ArrayQueueIPNS_7MessageEE9get_countEv\000"
 18628      33723270 
 18628      31304172 
 18628      72617951 
 18628      75657565 
 18629              	.LASF56:
 18630 4b64 705F6570 		.ascii	"p_epending\000"
 18630      656E6469 
 18630      6E6700
 18631              	.LASF619:
 18632 4b6f 5F5A4E33 		.ascii	"_ZN3r2p10ArrayQueueIPNS_7MessageEE4skipEv\000"
 18632      72327031 
 18632      30417272 
 18632      61795175 
 18632      65756549 
 18633              	.LASF614:
 18634 4b99 706F7374 		.ascii	"post\000"
 18634      00
 18635              	.LASF115:
 18636 4b9e 4D4F4445 		.ascii	"MODER\000"
 18636      5200
 18637              	.LASF512:
 18638 4ba4 5F5A4E4B 		.ascii	"_ZNK3r2p5Topic16compute_deadlineERKNS_4TimeE\000"
 18638      33723270 
 18638      35546F70 
 18638      69633136 
 18638      636F6D70 
 18639              	.LASF202:
 18640 4bd1 55534245 		.ascii	"USBEndpointConfig\000"
 18640      6E64706F 
 18640      696E7443 
 18640      6F6E6669 
 18640      6700
 18641              	.LASF183:
 18642 4be3 31395553 		.ascii	"19USBOutEndpointState\000"
 18642      424F7574 
 18642      456E6470 
 18642      6F696E74 
 18642      53746174 
 18643              	.LASF341:
 18644 4bf9 5F5A4E4B 		.ascii	"_ZNK3r2p10StaticListINS_15LocalSubscriberEE12count_"
 18644      33723270 
 18644      31305374 
 18644      61746963 
 18644      4C697374 
 18645 4c2c 756E7361 		.ascii	"unsafeEv\000"
 18645      66654576 
 18645      00
 18646              	.LASF185:
 18647 4c35 72787175 		.ascii	"rxqueue\000"
 18647      65756500 
 18648              	.LASF243:
 18649 4c3d 5368656C 		.ascii	"ShellConfig\000"
 18649      6C436F6E 
 18649      66696700 
ARM GAS  /tmp/ccB5ynkg.s 			page 372


 18650              	.LASF804:
 18651 4c49 5F5A4E33 		.ascii	"_ZN3r2p13BasePublisher17notify_advertisedERNS_5Topi"
 18651      72327031 
 18651      33426173 
 18651      65507562 
 18651      6C697368 
 18652 4c7c 634500   		.ascii	"cE\000"
 18653              	.LASF860:
 18654 4c7f 5F5A4E33 		.ascii	"_ZN3r2p7MessageC2Ev\000"
 18654      72327037 
 18654      4D657373 
 18654      61676543 
 18654      32457600 
 18655              	.LASF82:
 18656 4c93 656C5F6C 		.ascii	"el_listener\000"
 18656      69737465 
 18656      6E657200 
 18657              	.LASF176:
 18658 4c9f 6C696E65 		.ascii	"linear\000"
 18658      617200
 18659              	.LASF565:
 18660 4ca6 5F5A4E33 		.ascii	"_ZN3r2p10StaticListINS_14LocalPublisherEE13ConstIte"
 18660      72327031 
 18660      30537461 
 18660      7469634C 
 18660      69737449 
 18661 4cd9 7261746F 		.ascii	"ratorppEv\000"
 18661      72707045 
 18661      7600
 18662              	.LASF605:
 18663 4ce3 706F7374 		.ascii	"post_unsafe\000"
 18663      5F756E73 
 18663      61666500 
 18664              	.LASF395:
 18665 4cef 53746174 		.ascii	"StaticList<r2p::RemoteSubscriber>\000"
 18665      69634C69 
 18665      73743C72 
 18665      32703A3A 
 18665      52656D6F 
 18666              	.LASF427:
 18667 4d11 52656D6F 		.ascii	"RemoteSubscriber\000"
 18667      74655375 
 18667      62736372 
 18667      69626572 
 18667      00
 18668              	.LASF689:
 18669 4d22 5F5A4E4B 		.ascii	"_ZNK3r2p10StaticListINS_4NodeEE13ConstIteratorneERK"
 18669      33723270 
 18669      31305374 
 18669      61746963 
 18669      4C697374 
 18670 4d55 53335F00 		.ascii	"S3_\000"
 18671              	.LASF343:
 18672 4d59 6C696E6B 		.ascii	"link_tail_unsafe\000"
 18672      5F746169 
 18672      6C5F756E 
 18672      73616665 
ARM GAS  /tmp/ccB5ynkg.s 			page 373


 18672      00
 18673              	.LASF625:
 18674 4d6a 5F5A4E33 		.ascii	"_ZN3r2p7Thread_8get_implEv\000"
 18674      72327037 
 18674      54687265 
 18674      61645F38 
 18674      6765745F 
 18675              	.LASF435:
 18676 4d85 5F5A4E4B 		.ascii	"_ZNK3r2p10StaticListINS_5TopicEE15index_of_unsafeER"
 18676      33723270 
 18676      31305374 
 18676      61746963 
 18676      4C697374 
 18677 4db8 4B53315F 		.ascii	"KS1_\000"
 18677      00
 18678              	.LASF821:
 18679 4dbd 5F5A4E33 		.ascii	"_ZN3r2p9PublisherINS_9Speed3MsgEE5allocERPS1_\000"
 18679      72327039 
 18679      5075626C 
 18679      69736865 
 18679      72494E53 
 18680              	.LASF70:
 18681 4deb 725F7072 		.ascii	"r_prio\000"
 18681      696F00
 18682              	.LASF140:
 18683 4df2 706D6E65 		.ascii	"pmnext\000"
 18683      787400
 18684              	.LASF593:
 18685 4df9 5F5A4E4B 		.ascii	"_ZNK3r2p10StaticListINS_14LocalPublisherEE10find_fi"
 18685      33723270 
 18685      31305374 
 18685      61746963 
 18685      4C697374 
 18686 4e2c 72737445 		.ascii	"rstEPFbRKS1_E\000"
 18686      50466252 
 18686      4B53315F 
 18686      4500
 18687              	.LASF317:
 18688 4e3a 49746572 		.ascii	"Iterator\000"
 18688      61746F72 
 18688      00
 18689              	.LASF882:
 18690 4e43 49544D5F 		.ascii	"ITM_RxBuffer\000"
 18690      52784275 
 18690      66666572 
 18690      00
 18691              	.LASF90:
 18692 4e50 31304D65 		.ascii	"10MemoryPool\000"
 18692      6D6F7279 
 18692      506F6F6C 
 18692      00
 18693              	.LASF15:
 18694 4e5d 6C6F6E67 		.ascii	"long long unsigned int\000"
 18694      206C6F6E 
 18694      6720756E 
 18694      7369676E 
 18694      65642069 
ARM GAS  /tmp/ccB5ynkg.s 			page 374


 18695              	.LASF688:
 18696 4e74 5F5A4E4B 		.ascii	"_ZNK3r2p10StaticListINS_4NodeEE13ConstIteratoreqERK"
 18696      33723270 
 18696      31305374 
 18696      61746963 
 18696      4C697374 
 18697 4ea7 53335F00 		.ascii	"S3_\000"
 18698              	.LASF459:
 18699 4eab 5F5A4E4B 		.ascii	"_ZNK3r2p10StaticListINS_5TopicEE7restartERNS2_13Con"
 18699      33723270 
 18699      31305374 
 18699      61746963 
 18699      4C697374 
 18700 4ede 73744974 		.ascii	"stIteratorE\000"
 18700      65726174 
 18700      6F724500 
 18701              	.LASF428:
 18702 4eea 53746174 		.ascii	"StaticList<r2p::Topic>\000"
 18702      69634C69 
 18702      73743C72 
 18702      32703A3A 
 18702      546F7069 
 18703              	.LASF379:
 18704 4f01 5F5A4E4B 		.ascii	"_ZNK3r2p10StaticListINS_15LocalSubscriberEE10find_f"
 18704      33723270 
 18704      31305374 
 18704      61746963 
 18704      4C697374 
 18705 4f34 69727374 		.ascii	"irstEPFbRKS1_E\000"
 18705      45504662 
 18705      524B5331 
 18705      5F4500
 18706              	.LASF757:
 18707 4f43 746F7069 		.ascii	"topicp\000"
 18707      637000
 18708              	.LASF796:
 18709 4f4a 7075626C 		.ascii	"publish\000"
 18709      69736800 
 18710              	.LASF200:
 18711 4f52 65705F62 		.ascii	"ep_buffers\000"
 18711      75666665 
 18711      727300
 18712              	.LASF86:
 18713 4f5d 65735F6E 		.ascii	"es_next\000"
 18713      65787400 
 18714              	.LASF272:
 18715 4f65 65787465 		.ascii	"extend\000"
 18715      6E6400
 18716              	.LASF255:
 18717 4f6c 5379734C 		.ascii	"SysLock\000"
 18717      6F636B00 
 18718              	.LASF620:
 18719 4f74 41727261 		.ascii	"ArrayQueue\000"
 18719      79517565 
 18719      756500
 18720              	.LASF414:
 18721 4f7f 5F5A4E4B 		.ascii	"_ZNK3r2p10StaticListINS_16RemoteSubscriberEE5countE"
ARM GAS  /tmp/ccB5ynkg.s 			page 375


 18721      33723270 
 18721      31305374 
 18721      61746963 
 18721      4C697374 
 18722 4fb2 7600     		.ascii	"v\000"
 18723              	.LASF417:
 18724 4fb4 5F5A4E4B 		.ascii	"_ZNK3r2p10StaticListINS_16RemoteSubscriberEE8index_"
 18724      33723270 
 18724      31305374 
 18724      61746963 
 18724      4C697374 
 18725 4fe7 6F664552 		.ascii	"ofERKS1_\000"
 18725      4B53315F 
 18725      00
 18726              	.LASF718:
 18727 4ff0 5F5A4E33 		.ascii	"_ZN3r2p10StaticListINS_4NodeEE7restartERNS2_8Iterat"
 18727      72327031 
 18727      30537461 
 18727      7469634C 
 18727      69737449 
 18728 5023 6F724500 		.ascii	"orE\000"
 18729              	.LASF406:
 18730 5027 5F5A4E33 		.ascii	"_ZN3r2p10StaticListINS_16RemoteSubscriberEE12begin_"
 18730      72327031 
 18730      30537461 
 18730      7469634C 
 18730      69737449 
 18731 505a 756E7361 		.ascii	"unsafeEv\000"
 18731      66654576 
 18731      00
 18732              	.LASF236:
 18733 5063 31325368 		.ascii	"12ShellCommand\000"
 18733      656C6C43 
 18733      6F6D6D61 
 18733      6E6400
 18734              	.LASF49:
 18735 5072 705F666C 		.ascii	"p_flags\000"
 18735      61677300 
 18736              	.LASF436:
 18737 507a 5F5A4E4B 		.ascii	"_ZNK3r2p10StaticListINS_5TopicEE15contains_unsafeER"
 18737      33723270 
 18737      31305374 
 18737      61746963 
 18737      4C697374 
 18738 50ad 4B53315F 		.ascii	"KS1_\000"
 18738      00
 18739              	.LASF642:
 18740 50b2 736C6565 		.ascii	"sleep\000"
 18740      7000
 18741              	.LASF39:
 18742 50b8 65776D61 		.ascii	"ewmask\000"
 18742      736B00
 18743              	.LASF322:
 18744 50bf 5F5A4E4B 		.ascii	"_ZNK3r2p10StaticListINS_15LocalSubscriberEE13ConstI"
 18744      33723270 
 18744      31305374 
 18744      61746963 
ARM GAS  /tmp/ccB5ynkg.s 			page 376


 18744      4C697374 
 18745 50f2 74657261 		.ascii	"teratorptEv\000"
 18745      746F7270 
 18745      74457600 
 18746              	.LASF617:
 18747 50fe 5F5A4E33 		.ascii	"_ZN3r2p10ArrayQueueIPNS_7MessageEE5fetchERS2_\000"
 18747      72327031 
 18747      30417272 
 18747      61795175 
 18747      65756549 
 18748              	.LASF880:
 18749 512c 5F5A4E33 		.ascii	"_ZN3r2p9PublisherINS_9Speed3MsgEED0Ev\000"
 18749      72327039 
 18749      5075626C 
 18749      69736865 
 18749      72494E53 
 18750              	.LASF84:
 18751 5152 656C5F66 		.ascii	"el_flags\000"
 18751      6C616773 
 18751      00
 18752              	.LASF211:
 18753 515b 31307364 		.ascii	"10sdustate_t\000"
 18753      75737461 
 18753      74655F74 
 18753      00
 18754              	.LASF644:
 18755 5168 6A6F696E 		.ascii	"join\000"
 18755      00
 18756              	.LASF799:
 18757 516d 7E507562 		.ascii	"~Publisher\000"
 18757      6C697368 
 18757      657200
 18758              	.LASF469:
 18759 5178 62795F6D 		.ascii	"by_middleware\000"
 18759      6964646C 
 18759      65776172 
 18759      6500
 18760              	.LASF57:
 18761 5186 705F6D74 		.ascii	"p_mtxlist\000"
 18761      786C6973 
 18761      7400
 18762              	.LASF289:
 18763 5190 5F5A4E4B 		.ascii	"_ZNK3r2p4Time8to_m_rawEv\000"
 18763      33723270 
 18763      3454696D 
 18763      6538746F 
 18763      5F6D5F72 
 18764              	.LASF683:
 18765 51a9 5F5A4E33 		.ascii	"_ZN3r2p10StaticListINS_4NodeEE13ConstIteratoraSERKS"
 18765      72327031 
 18765      30537461 
 18765      7469634C 
 18765      69737449 
 18766 51dc 335F00   		.ascii	"3_\000"
 18767              	.LASF714:
 18768 51df 5F5A4E4B 		.ascii	"_ZNK3r2p10StaticListINS_4NodeEE10find_firstEPFbRKS1"
 18768      33723270 
ARM GAS  /tmp/ccB5ynkg.s 			page 377


 18768      31305374 
 18768      61746963 
 18768      4C697374 
 18769 5212 5F4500   		.ascii	"_E\000"
 18770              	.LASF27:
 18771 5215 74737461 		.ascii	"tstate_t\000"
 18771      74655F74 
 18771      00
 18772              	.LASF301:
 18773 521e 5F5A4E33 		.ascii	"_ZN3r2p4TimepLERKS0_\000"
 18773      72327034 
 18773      54696D65 
 18773      704C4552 
 18773      4B53305F 
 18774              	.LASF479:
 18775 5233 5F5A4E4B 		.ascii	"_ZNK3r2p5Topic20get_max_queue_lengthEv\000"
 18775      33723270 
 18775      35546F70 
 18775      69633230 
 18775      6765745F 
 18776              	.LASF128:
 18777 525a 7472616E 		.ascii	"transmitting\000"
 18777      736D6974 
 18777      74696E67 
 18777      00
 18778              	.LASF711:
 18779 5267 5F5A4E33 		.ascii	"_ZN3r2p10StaticListINS_4NodeEE6unlinkERNS2_4LinkE\000"
 18779      72327031 
 18779      30537461 
 18779      7469634C 
 18779      69737449 
 18780              	.LASF46:
 18781 5299 705F6E61 		.ascii	"p_name\000"
 18781      6D6500
 18782              	.LASF221:
 18783 52a0 75736270 		.ascii	"usbp\000"
 18783      00
 18784              	.LASF147:
 18785 52a5 75736273 		.ascii	"usbstate_t\000"
 18785      74617465 
 18785      5F7400
 18786              	.LASF233:
 18787 52b0 5F5F6170 		.ascii	"__ap\000"
 18787      00
 18788              	.LASF703:
 18789 52b5 5F5A4E33 		.ascii	"_ZN3r2p10StaticListINS_4NodeEE14restart_unsafeERNS2"
 18789      72327031 
 18789      30537461 
 18789      7469634C 
 18789      69737449 
 18790 52e8 5F313449 		.ascii	"_14IteratorUnsafeE\000"
 18790      74657261 
 18790      746F7255 
 18790      6E736166 
 18790      654500
 18791              	.LASF285:
 18792 52fb 5F5A4E4B 		.ascii	"_ZNK3r2p4Time9to_ms_rawEv\000"
ARM GAS  /tmp/ccB5ynkg.s 			page 378


 18792      33723270 
 18792      3454696D 
 18792      6539746F 
 18792      5F6D735F 
 18793              	.LASF473:
 18794 5315 5F5A4E4B 		.ascii	"_ZNK3r2p5Topic19get_publish_timeoutEv\000"
 18794      33723270 
 18794      35546F70 
 18794      69633139 
 18794      6765745F 
 18795              	.LASF858:
 18796 533b 7573625F 		.ascii	"usb_shelltp\000"
 18796      7368656C 
 18796      6C747000 
 18797              	.LASF287:
 18798 5347 5F5A4E4B 		.ascii	"_ZNK3r2p4Time8to_s_rawEv\000"
 18798      33723270 
 18798      3454696D 
 18798      6538746F 
 18798      5F735F72 
 18799              	.LASF742:
 18800 5360 5F5A4E33 		.ascii	"_ZN3r2p4Node11notify_stopEv\000"
 18800      72327034 
 18800      4E6F6465 
 18800      31316E6F 
 18800      74696679 
 18801              	.LASF495:
 18802 537c 5F5A4E4B 		.ascii	"_ZNK3r2p5Topic26is_awaiting_advertisementsEv\000"
 18802      33723270 
 18802      35546F70 
 18802      69633236 
 18802      69735F61 
 18803              	.LASF415:
 18804 53a9 5F5A4E33 		.ascii	"_ZN3r2p10StaticListINS_16RemoteSubscriberEE4linkERN"
 18804      72327031 
 18804      30537461 
 18804      7469634C 
 18804      69737449 
 18805 53dc 53325F34 		.ascii	"S2_4LinkE\000"
 18805      4C696E6B 
 18805      4500
 18806              	.LASF483:
 18807 53e6 5F5A4E4B 		.ascii	"_ZNK3r2p5Topic20has_local_publishersEv\000"
 18807      33723270 
 18807      35546F70 
 18807      69633230 
 18807      6861735F 
 18808              	.LASF173:
 18809 540d 31385553 		.ascii	"18USBInEndpointState\000"
 18809      42496E45 
 18809      6E64706F 
 18809      696E7453 
 18809      74617465 
 18810              	.LASF870:
 18811 5422 5F5F696E 		.ascii	"__in_chrg\000"
 18811      5F636872 
 18811      6700
ARM GAS  /tmp/ccB5ynkg.s 			page 379


 18812              	.LASF567:
 18813 542c 5F5A4E4B 		.ascii	"_ZNK3r2p10StaticListINS_14LocalPublisherEE13ConstIt"
 18813      33723270 
 18813      31305374 
 18813      61746963 
 18813      4C697374 
 18814 545f 65726174 		.ascii	"eratoreqERKS3_\000"
 18814      6F726571 
 18814      45524B53 
 18814      335F00
 18815              	.LASF901:
 18816 546e 6E6F6465 		.ascii	"nodes/shell_node.cpp\000"
 18816      732F7368 
 18816      656C6C5F 
 18816      6E6F6465 
 18816      2E637070 
 18817              	.LASF499:
 18818 5483 5F5A4E4B 		.ascii	"_ZNK3r2p5Topic23compute_deadline_unsafeERKNS_4TimeE"
 18818      33723270 
 18818      35546F70 
 18818      69633233 
 18818      636F6D70 
 18819 54b6 00       		.ascii	"\000"
 18820              	.LASF419:
 18821 54b7 5F5A4E4B 		.ascii	"_ZNK3r2p10StaticListINS_16RemoteSubscriberEE10find_"
 18821      33723270 
 18821      31305374 
 18821      61746963 
 18821      4C697374 
 18822 54ea 66697273 		.ascii	"firstEPFbRKS1_E\000"
 18822      74455046 
 18822      62524B53 
 18822      315F4500 
 18823              	.LASF313:
 18824 54fa 4C696E6B 		.ascii	"Link\000"
 18824      00
 18825              	.LASF576:
 18826 54ff 5F5A4E4B 		.ascii	"_ZNK3r2p10StaticListINS_14LocalPublisherEE15index_o"
 18826      33723270 
 18826      31305374 
 18826      61746963 
 18826      4C697374 
 18827 5532 665F756E 		.ascii	"f_unsafeERKS1_\000"
 18827      73616665 
 18827      45524B53 
 18827      315F00
 18828              	.LASF458:
 18829 5541 5F5A4E4B 		.ascii	"_ZNK3r2p10StaticListINS_5TopicEE3endEv\000"
 18829      33723270 
 18829      31305374 
 18829      61746963 
 18829      4C697374 
 18830              	.LASF364:
 18831 5568 6765745F 		.ascii	"get_head\000"
 18831      68656164 
 18831      00
 18832              	.LASF492:
ARM GAS  /tmp/ccB5ynkg.s 			page 380


 18833 5571 6861735F 		.ascii	"has_subscribers\000"
 18833      73756273 
 18833      63726962 
 18833      65727300 
 18834              	.LASF229:
 18835 5581 77726974 		.ascii	"writet\000"
 18835      657400
 18836              	.LASF771:
 18837 5588 53706565 		.ascii	"Speed3Msg\000"
 18837      64334D73 
 18837      6700
 18838              	.LASF258:
 18839 5592 4D656D6F 		.ascii	"MemoryPool_\000"
 18839      7279506F 
 18839      6F6C5F00 
 18840              	.LASF13:
 18841 559e 6C6F6E67 		.ascii	"long long int\000"
 18841      206C6F6E 
 18841      6720696E 
 18841      7400
 18842              	.LASF651:
 18843 55ac 494E5445 		.ascii	"INTERRUPT\000"
 18843      52525550 
 18843      5400
 18844              	.LASF472:
 18845 55b6 6765745F 		.ascii	"get_publish_timeout\000"
 18845      7075626C 
 18845      6973685F 
 18845      74696D65 
 18845      6F757400 
 18846              	.LASF444:
 18847 55ca 5F5A4E4B 		.ascii	"_ZNK3r2p10StaticListINS_5TopicEE14restart_unsafeERN"
 18847      33723270 
 18847      31305374 
 18847      61746963 
 18847      4C697374 
 18848 55fd 53325F31 		.ascii	"S2_19ConstIteratorUnsafeE\000"
 18848      39436F6E 
 18848      73744974 
 18848      65726174 
 18848      6F72556E 
 18849              	.LASF399:
 18850 5617 5F5A4E33 		.ascii	"_ZN3r2p10StaticListINS_16RemoteSubscriberEE11link_u"
 18850      72327031 
 18850      30537461 
 18850      7469634C 
 18850      69737449 
 18851 564a 6E736166 		.ascii	"nsafeERNS2_4LinkE\000"
 18851      6545524E 
 18851      53325F34 
 18851      4C696E6B 
 18851      4500
 18852              	.LASF631:
 18853 565c 5F5A4E33 		.ascii	"_ZN3r2p7Thread_11create_heapEPvjmPFlS1_ES1_PKc\000"
 18853      72327037 
 18853      54687265 
 18853      61645F31 
ARM GAS  /tmp/ccB5ynkg.s 			page 381


 18853      31637265 
 18854              	.LASF847:
 18855 568b 64783132 		.ascii	"dx12\000"
 18855      00
 18856              	.LASF329:
 18857 5690 5F5A4E4B 		.ascii	"_ZNK3r2p10StaticListINS_15LocalSubscriberEE13ConstI"
 18857      33723270 
 18857      31305374 
 18857      61746963 
 18857      4C697374 
 18858 56c3 74657261 		.ascii	"teratoreqERKS3_\000"
 18858      746F7265 
 18858      7145524B 
 18858      53335F00 
 18859              	.LASF692:
 18860 56d3 5F5A4E4B 		.ascii	"_ZNK3r2p10StaticListINS_4NodeEE15is_empty_unsafeEv\000"
 18860      33723270 
 18860      31305374 
 18860      61746963 
 18860      4C697374 
 18861              	.LASF682:
 18862 5706 53746174 		.ascii	"StaticList<r2p::Node>\000"
 18862      69634C69 
 18862      73743C72 
 18862      32703A3A 
 18862      4E6F6465 
 18863              	.LASF750:
 18864 571c 5F5A4E33 		.ascii	"_ZN3r2p4Node9advertiseINS_9Speed3MsgEEEbRNS_9Publis"
 18864      72327034 
 18864      4E6F6465 
 18864      39616476 
 18864      65727469 
 18865 574f 68657249 		.ascii	"herIT_EEPKcRKNS_4TimeE\000"
 18865      545F4545 
 18865      504B6352 
 18865      4B4E535F 
 18865      3454696D 
 18866              	.LASF784:
 18867 5766 51554555 		.ascii	"QUEUE_LENGTH\000"
 18867      455F4C45 
 18867      4E475448 
 18867      00
 18868              	.LASF464:
 18869 5773 6E756D5F 		.ascii	"num_local_publishers\000"
 18869      6C6F6361 
 18869      6C5F7075 
 18869      626C6973 
 18869      68657273 
 18870              	.LASF33:
 18871 5788 666C6167 		.ascii	"flagsmask_t\000"
 18871      736D6173 
 18871      6B5F7400 
 18872              	.LASF517:
 18873 5794 6E6F7469 		.ascii	"notify_locals\000"
 18873      66795F6C 
 18873      6F63616C 
 18873      7300
ARM GAS  /tmp/ccB5ynkg.s 			page 382


 18874              	.LASF206:
 18875 57a2 6765745F 		.ascii	"get_descriptor_cb\000"
 18875      64657363 
 18875      72697074 
 18875      6F725F63 
 18875      6200
 18876              	.LASF96:
 18877 57b4 47656E65 		.ascii	"GenericQueue\000"
 18877      72696351 
 18877      75657565 
 18877      00
 18878              	.LASF726:
 18879 57c1 5F5A4E4B 		.ascii	"_ZNK3r2p4Node8get_nameEv\000"
 18879      33723270 
 18879      344E6F64 
 18879      65386765 
 18879      745F6E61 
 18880              	.LASF486:
 18881 57da 6861735F 		.ascii	"has_publishers\000"
 18881      7075626C 
 18881      69736865 
 18881      727300
 18882              	.LASF569:
 18883 57e9 5F5A4E4B 		.ascii	"_ZNK3r2p10StaticListINS_14LocalPublisherEE13ConstIt"
 18883      33723270 
 18883      31305374 
 18883      61746963 
 18883      4C697374 
 18884 581c 65726174 		.ascii	"erator8is_validEv\000"
 18884      6F723869 
 18884      735F7661 
 18884      6C696445 
 18884      7600
 18885              	.LASF418:
 18886 582e 5F5A4E4B 		.ascii	"_ZNK3r2p10StaticListINS_16RemoteSubscriberEE8contai"
 18886      33723270 
 18886      31305374 
 18886      61746963 
 18886      4C697374 
 18887 5861 6E734552 		.ascii	"nsERKS1_\000"
 18887      4B53315F 
 18887      00
 18888              	.LASF366:
 18889 586a 69735F65 		.ascii	"is_empty\000"
 18889      6D707479 
 18889      00
 18890              	.LASF453:
 18891 5873 5F5A4E4B 		.ascii	"_ZNK3r2p10StaticListINS_5TopicEE10find_firstEPFbRKS"
 18891      33723270 
 18891      31305374 
 18891      61746963 
 18891      4C697374 
 18892 58a6 315F504B 		.ascii	"1_PKvES6_\000"
 18892      76455336 
 18892      5F00
 18893              	.LASF240:
 18894 58b0 31315368 		.ascii	"11ShellConfig\000"
ARM GAS  /tmp/ccB5ynkg.s 			page 383


 18894      656C6C43 
 18894      6F6E6669 
 18894      6700
 18895              	.LASF522:
 18896 58be 5F5A4E33 		.ascii	"_ZN3r2p5Topic12forward_copyERKNS_7MessageERKNS_4Tim"
 18896      72327035 
 18896      546F7069 
 18896      63313266 
 18896      6F727761 
 18897 58f1 654500   		.ascii	"eE\000"
 18898              	.LASF704:
 18899 58f4 5F5A4E4B 		.ascii	"_ZNK3r2p10StaticListINS_4NodeEE12begin_unsafeEv\000"
 18899      33723270 
 18899      31305374 
 18899      61746963 
 18899      4C697374 
 18900              	.LASF174:
 18901 5924 74786275 		.ascii	"txbuf\000"
 18901      6600
 18902              	.LASF510:
 18903 592a 5F5A4E33 		.ascii	"_ZN3r2p5Topic19forward_copy_unsafeERKNS_7MessageERK"
 18903      72327035 
 18903      546F7069 
 18903      63313966 
 18903      6F727761 
 18904 595d 4E535F34 		.ascii	"NS_4TimeE\000"
 18904      54696D65 
 18904      4500
 18905              	.LASF162:
 18906 5967 5553425F 		.ascii	"USB_EVENT_WAKEUP\000"
 18906      4556454E 
 18906      545F5741 
 18906      4B455550 
 18906      00
 18907              	.LASF839:
 18908 5978 5F5A3232 		.ascii	"_Z22usb_lld_disconnect_busP9USBDriver\000"
 18908      7573625F 
 18908      6C6C645F 
 18908      64697363 
 18908      6F6E6E65 
 18909              	.LASF599:
 18910 599e 5F5A4E4B 		.ascii	"_ZNK3r2p10StaticListINS_14LocalPublisherEE3endEv\000"
 18910      33723270 
 18910      31305374 
 18910      61746963 
 18910      4C697374 
 18911              	.LASF339:
 18912 59cf 5F5A4E4B 		.ascii	"_ZNK3r2p10StaticListINS_15LocalSubscriberEE15is_emp"
 18912      33723270 
 18912      31305374 
 18912      61746963 
 18912      4C697374 
 18913 5a02 74795F75 		.ascii	"ty_unsafeEv\000"
 18913      6E736166 
 18913      65457600 
 18914              	.LASF45:
 18915 5a0e 705F6F6C 		.ascii	"p_older\000"
ARM GAS  /tmp/ccB5ynkg.s 			page 384


 18915      64657200 
 18916              	.LASF107:
 18917 5a16 4F757470 		.ascii	"OutputQueue\000"
 18917      75745175 
 18917      65756500 
 18918              	.LASF903:
 18919 5a22 5F5A4E33 		.ascii	"_ZN3r2p4Time3nowEv\000"
 18919      72327034 
 18919      54696D65 
 18919      336E6F77 
 18919      457600
 18920              	.LASF201:
 18921 5a35 73657475 		.ascii	"setup_buf\000"
 18921      705F6275 
 18921      6600
 18922              	.LASF902:
 18923 5a3f 2F686F6D 		.ascii	"/home/ergae/r2p-sdk/workspace-triskarpixy/USB/\000"
 18923      652F6572 
 18923      6761652F 
 18923      7232702D 
 18923      73646B2F 
 18924              	.LASF308:
 18925 5a6e 5F5A4E33 		.ascii	"_ZN3r2p4Time2hzEd\000"
 18925      72327034 
 18925      54696D65 
 18925      32687A45 
 18925      6400
 18926              	.LASF337:
 18927 5a80 69735F65 		.ascii	"is_empty_unsafe\000"
 18927      6D707479 
 18927      5F756E73 
 18927      61666500 
 18928              	.LASF710:
 18929 5a90 5F5A4E33 		.ascii	"_ZN3r2p10StaticListINS_4NodeEE4linkERNS2_4LinkE\000"
 18929      72327031 
 18929      30537461 
 18929      7469634C 
 18929      69737449 
 18930              	.LASF768:
 18931 5ac0 5F5A4E33 		.ascii	"_ZN3r2p14BaseSubscriber7releaseERNS_7MessageE\000"
 18931      72327031 
 18931      34426173 
 18931      65537562 
 18931      73637269 
 18932              	.LASF727:
 18933 5aee 6765745F 		.ascii	"get_publishers\000"
 18933      7075626C 
 18933      69736865 
 18933      727300
 18934              	.LASF108:
 18935 5afd 42617365 		.ascii	"BaseSequentialStreamVMT\000"
 18935      53657175 
 18935      656E7469 
 18935      616C5374 
 18935      7265616D 
 18936              	.LASF869:
 18937 5b15 5F5A4E33 		.ascii	"_ZN3r2p16SubscriberExtBufINS_7PixyMsgEEC2EPPS1_jPFb"
ARM GAS  /tmp/ccB5ynkg.s 			page 385


 18937      72327031 
 18937      36537562 
 18937      73637269 
 18937      62657245 
 18938 5b48 524B5331 		.ascii	"RKS1_E\000"
 18938      5F4500
 18939              	.LASF239:
 18940 5b4f 5368656C 		.ascii	"ShellCommand\000"
 18940      6C436F6D 
 18940      6D616E64 
 18940      00
 18941              	.LASF507:
 18942 5b5c 6E6F7469 		.ascii	"notify_remotes_unsafe\000"
 18942      66795F72 
 18942      656D6F74 
 18942      65735F75 
 18942      6E736166 
 18943              	.LASF129:
 18944 5b72 72656365 		.ascii	"receiving\000"
 18944      6976696E 
 18944      6700
 18945              	.LASF283:
 18946 5b7c 5F5A4E4B 		.ascii	"_ZNK3r2p4Time9to_us_rawEv\000"
 18946      33723270 
 18946      3454696D 
 18946      6539746F 
 18946      5F75735F 
 18947              	.LASF528:
 18948 5b96 73756273 		.ascii	"subscribe\000"
 18948      63726962 
 18948      6500
 18949              	.LASF141:
 18950 5ba0 75736265 		.ascii	"usbep_t\000"
 18950      705F7400 
 18951              	.LASF762:
 18952 5ba8 5F5A4E33 		.ascii	"_ZN3r2p14BaseSubscriber17notify_subscribedERNS_5Top"
 18952      72327031 
 18952      34426173 
 18952      65537562 
 18952      73637269 
 18953 5bdb 69634500 		.ascii	"icE\000"
 18954              	.LASF365:
 18955 5bdf 5F5A4E4B 		.ascii	"_ZNK3r2p10StaticListINS_15LocalSubscriberEE8get_hea"
 18955      33723270 
 18955      31305374 
 18955      61746963 
 18955      4C697374 
 18956 5c12 64457600 		.ascii	"dEv\000"
 18957              	.LASF101:
 18958 5c16 715F7772 		.ascii	"q_wrptr\000"
 18958      70747200 
 18959              	.LASF198:
 18960 5c1e 696E5F73 		.ascii	"in_state\000"
 18960      74617465 
 18960      00
 18961              	.LASF877:
 18962 5c27 5F5A4E33 		.ascii	"_ZN3r2p9PublisherINS_9PIDCfgMsgEED2Ev\000"
ARM GAS  /tmp/ccB5ynkg.s 			page 386


 18962      72327039 
 18962      5075626C 
 18962      69736865 
 18962      72494E53 
 18963              	.LASF791:
 18964 5c4d 5F5A4E33 		.ascii	"_ZN3r2p16SubscriberExtBufINS_7PixyMsgEE7releaseERS1"
 18964      72327031 
 18964      36537562 
 18964      73637269 
 18964      62657245 
 18965 5c80 5F00     		.ascii	"_\000"
 18966              	.LASF797:
 18967 5c82 5F5A4E33 		.ascii	"_ZN3r2p9PublisherINS_9PIDCfgMsgEE7publishERS1_\000"
 18967      72327039 
 18967      5075626C 
 18967      69736865 
 18967      72494E53 
 18968              	.LASF865:
 18969 5cb1 5F5A4E33 		.ascii	"_ZN3r2p7PixyMsgC2Ev\000"
 18969      72327037 
 18969      50697879 
 18969      4D736743 
 18969      32457600 
 18970              	.LASF627:
 18971 5cc5 5F5A4E33 		.ascii	"_ZN3r2p7Thread_18compute_stack_sizeEj\000"
 18971      72327037 
 18971      54687265 
 18971      61645F31 
 18971      38636F6D 
 18972              	.LASF296:
 18973 5ceb 746F5F6D 		.ascii	"to_m\000"
 18973      00
 18974              	.LASF794:
 18975 5cf0 5075626C 		.ascii	"Publisher\000"
 18975      69736865 
 18975      7200
 18976              	.LASF904:
 18977 5cfa 4C6F6361 		.ascii	"LocalSubscriber\000"
 18977      6C537562 
 18977      73637269 
 18977      62657200 
 18978              	.LASF780:
 18979 5d0a 53756273 		.ascii	"Subscriber\000"
 18979      63726962 
 18979      657200
 18980              	.LASF294:
 18981 5d15 746F5F73 		.ascii	"to_s\000"
 18981      00
 18982              	.LASF328:
 18983 5d1a 6F706572 		.ascii	"operator==\000"
 18983      61746F72 
 18983      3D3D00
 18984              	.LASF834:
 18985 5d25 64656C61 		.ascii	"delay\000"
 18985      7900
 18986              	.LASF731:
 18987 5d2b 6765745F 		.ascii	"get_enabled\000"
ARM GAS  /tmp/ccB5ynkg.s 			page 387


 18987      656E6162 
 18987      6C656400 
 18988              	.LASF792:
 18989 5d37 7E537562 		.ascii	"~SubscriberExtBuf\000"
 18989      73637269 
 18989      62657245 
 18989      78744275 
 18989      6600
 18990              	.LASF687:
 18991 5d49 5F5A4E33 		.ascii	"_ZN3r2p10StaticListINS_4NodeEE13ConstIteratorppEi\000"
 18991      72327031 
 18991      30537461 
 18991      7469634C 
 18991      69737449 
 18992              	.LASF820:
 18993 5d7b 5075626C 		.ascii	"Publisher<r2p::Speed3Msg>\000"
 18993      69736865 
 18993      723C7232 
 18993      703A3A53 
 18993      70656564 
 18994              	.LASF462:
 18995 5d95 7075626C 		.ascii	"publish_timeout\000"
 18995      6973685F 
 18995      74696D65 
 18995      6F757400 
 18996              	.LASF760:
 18997 5da5 5F5A4E4B 		.ascii	"_ZNK3r2p14BaseSubscriber16get_queue_lengthEv\000"
 18997      33723270 
 18997      31344261 
 18997      73655375 
 18997      62736372 
 18998              	.LASF746:
 18999 5dd2 5F5A4E33 		.ascii	"_ZN3r2p4Node9subscribeERNS_15LocalSubscriberEPKcPNS"
 18999      72327034 
 18999      4E6F6465 
 18999      39737562 
 18999      73637269 
 19000 5e05 5F374D65 		.ascii	"_7MessageEj\000"
 19000      73736167 
 19000      65456A00 
 19001              	.LASF686:
 19002 5e11 5F5A4E33 		.ascii	"_ZN3r2p10StaticListINS_4NodeEE13ConstIteratorppEv\000"
 19002      72327031 
 19002      30537461 
 19002      7469634C 
 19002      69737449 
 19003              	.LASF0:
 19004 5e43 756E7369 		.ascii	"unsigned int\000"
 19004      676E6564 
 19004      20696E74 
 19004      00
 19005              	.LASF681:
 19006 5e50 5F5A4E33 		.ascii	"_ZN3r2p9SpinEvent4waitERKNS_4TimeE\000"
 19006      72327039 
 19006      5370696E 
 19006      4576656E 
 19006      74347761 
ARM GAS  /tmp/ccB5ynkg.s 			page 388


 19007              	.LASF249:
 19008 5e73 7E556E63 		.ascii	"~Uncopyable\000"
 19008      6F707961 
 19008      626C6500 
 19009              	.LASF142:
 19010 5e7f 5553425F 		.ascii	"USB_UNINIT\000"
 19010      554E494E 
 19010      495400
 19011              	.LASF445:
 19012 5e8a 5F5A4E4B 		.ascii	"_ZNK3r2p10StaticListINS_5TopicEE8get_headEv\000"
 19012      33723270 
 19012      31305374 
 19012      61746963 
 19012      4C697374 
 19013              	.LASF387:
 19014 5eb6 5F5A4E4B 		.ascii	"_ZNK3r2p10StaticListINS_15LocalSubscriberEE3endEv\000"
 19014      33723270 
 19014      31305374 
 19014      61746963 
 19014      4C697374 
 19015              	.LASF621:
 19016 5ee8 54687265 		.ascii	"Thread_\000"
 19016      61645F00 
 19017              	.LASF6:
 19018 5ef0 73686F72 		.ascii	"short int\000"
 19018      7420696E 
 19018      7400
 19019              	.LASF381:
 19020 5efa 62656769 		.ascii	"begin\000"
 19020      6E00
 19021              	.LASF168:
 19022 5f00 75736263 		.ascii	"usbcallback_t\000"
 19022      616C6C62 
 19022      61636B5F 
 19022      7400
 19023              	.LASF759:
 19024 5f0e 5F5A4E4B 		.ascii	"_ZNK3r2p14BaseSubscriber9get_topicEv\000"
 19024      33723270 
 19024      31344261 
 19024      73655375 
 19024      62736372 
 19025              	.LASF594:
 19026 5f33 5F5A4E4B 		.ascii	"_ZNK3r2p10StaticListINS_14LocalPublisherEE10find_fi"
 19026      33723270 
 19026      31305374 
 19026      61746963 
 19026      4C697374 
 19027 5f66 72737445 		.ascii	"rstEPFbRKS1_PKvES6_\000"
 19027      50466252 
 19027      4B53315F 
 19027      504B7645 
 19027      53365F00 
 19028              	.LASF336:
 19029 5f7a 6765745F 		.ascii	"get_head_unsafe\000"
 19029      68656164 
 19029      5F756E73 
 19029      61666500 
ARM GAS  /tmp/ccB5ynkg.s 			page 389


 19030              	.LASF165:
 19031 5f8a 75645F73 		.ascii	"ud_size\000"
 19031      697A6500 
 19032              	.LASF281:
 19033 5f92 494E4649 		.ascii	"INFINITEN\000"
 19033      4E495445 
 19033      4E00
 19034              	.LASF798:
 19035 5f9c 5F5A4E33 		.ascii	"_ZN3r2p9PublisherINS_9PIDCfgMsgEE7publishEPS1_\000"
 19035      72327039 
 19035      5075626C 
 19035      69736865 
 19035      72494E53 
 19036              	.LASF196:
 19037 5fcb 696E5F6D 		.ascii	"in_maxsize\000"
 19037      61787369 
 19037      7A6500
 19038              	.LASF232:
 19039 5fd6 5F5F7661 		.ascii	"__va_list\000"
 19039      5F6C6973 
 19039      7400
 19040              	.LASF359:
 19041 5fe0 72657374 		.ascii	"restart_unsafe\000"
 19041      6172745F 
 19041      756E7361 
 19041      666500
 19042              	.LASF786:
 19043 5fef 53756273 		.ascii	"SubscriberExtBuf\000"
 19043      63726962 
 19043      65724578 
 19043      74427566 
 19043      00
 19044              	.LASF48:
 19045 6000 705F7374 		.ascii	"p_state\000"
 19045      61746500 
 19046              		.hidden	__dso_handle
 19047              		.ident	"GCC: (GNU Tools for ARM Embedded Processors) 4.9.3 20141119 (release) [ARM/embedded-4_9-br
ARM GAS  /tmp/ccB5ynkg.s 			page 390


DEFINED SYMBOLS
                            *ABS*:00000000 shell_node.cpp
     /tmp/ccB5ynkg.s:21     .text._ZL8chprintfP20BaseSequentialStreamPKcz:00000000 $t
     /tmp/ccB5ynkg.s:26     .text._ZL8chprintfP20BaseSequentialStreamPKcz:00000000 _ZL8chprintfP20BaseSequentialStreamPKcz
     /tmp/ccB5ynkg.s:71     .text._ZN3r2p8SysLock_7acquireEv:00000000 $t
     /tmp/ccB5ynkg.s:77     .text._ZN3r2p8SysLock_7acquireEv:00000000 _ZN3r2p8SysLock_7acquireEv
     /tmp/ccB5ynkg.s:107    .text._ZN3r2p8SysLock_7releaseEv:00000000 $t
     /tmp/ccB5ynkg.s:113    .text._ZN3r2p8SysLock_7releaseEv:00000000 _ZN3r2p8SysLock_7releaseEv
     /tmp/ccB5ynkg.s:142    .text._ZN3r2p7SysLock7acquireEv:00000000 $t
     /tmp/ccB5ynkg.s:148    .text._ZN3r2p7SysLock7acquireEv:00000000 _ZN3r2p7SysLock7acquireEv
     /tmp/ccB5ynkg.s:167    .text._ZN3r2p7SysLock7releaseEv:00000000 $t
     /tmp/ccB5ynkg.s:173    .text._ZN3r2p7SysLock7releaseEv:00000000 _ZN3r2p7SysLock7releaseEv
     /tmp/ccB5ynkg.s:191    .text._ZN3r2p11MemoryPool_12alloc_unsafeEv:00000000 $t
     /tmp/ccB5ynkg.s:197    .text._ZN3r2p11MemoryPool_12alloc_unsafeEv:00000000 _ZN3r2p11MemoryPool_12alloc_unsafeEv
     /tmp/ccB5ynkg.s:225    .text._ZNK3r2p4Time8to_s_rawEv:00000000 $t
     /tmp/ccB5ynkg.s:231    .text._ZNK3r2p4Time8to_s_rawEv:00000000 _ZNK3r2p4Time8to_s_rawEv
     /tmp/ccB5ynkg.s:259    .text._ZNK3r2p4Time8to_s_rawEv:0000001c $d
     /tmp/ccB5ynkg.s:264    .text._ZN3r2p4TimeaSERKS0_:00000000 $t
     /tmp/ccB5ynkg.s:270    .text._ZN3r2p4TimeaSERKS0_:00000000 _ZN3r2p4TimeaSERKS0_
     /tmp/ccB5ynkg.s:298    .text._ZN3r2p4Time2msEl:00000000 $t
     /tmp/ccB5ynkg.s:304    .text._ZN3r2p4Time2msEl:00000000 _ZN3r2p4Time2msEl
     /tmp/ccB5ynkg.s:2180   .text._ZN3r2p4TimeC2IlEET_:00000000 _ZN3r2p4TimeC1IlEET_
     /tmp/ccB5ynkg.s:334    .text._ZN3r2p7Message12reset_unsafeEv:00000000 $t
     /tmp/ccB5ynkg.s:340    .text._ZN3r2p7Message12reset_unsafeEv:00000000 _ZN3r2p7Message12reset_unsafeEv
     /tmp/ccB5ynkg.s:366    .text._ZN3r2p7MessageC2Ev:00000000 $t
     /tmp/ccB5ynkg.s:372    .text._ZN3r2p7MessageC2Ev:00000000 _ZN3r2p7MessageC2Ev
     /tmp/ccB5ynkg.s:372    .text._ZN3r2p7MessageC2Ev:00000000 _ZN3r2p7MessageC1Ev
     /tmp/ccB5ynkg.s:403    .rodata:00000000 $d
     /tmp/ccB5ynkg.s:407    .text._ZN3r2p13BasePublisher12alloc_unsafeERPNS_7MessageE:00000000 $t
     /tmp/ccB5ynkg.s:413    .text._ZN3r2p13BasePublisher12alloc_unsafeERPNS_7MessageE:00000000 _ZN3r2p13BasePublisher12alloc_unsafeERPNS_7MessageE
     /tmp/ccB5ynkg.s:1170   .text._ZN3r2p5Topic12alloc_unsafeEv:00000000 _ZN3r2p5Topic12alloc_unsafeEv
     /tmp/ccB5ynkg.s:461    .text._ZN3r2p13BasePublisher12alloc_unsafeERPNS_7MessageE:0000003c $d
     /tmp/ccB5ynkg.s:466    .text._ZN3r2p13BasePublisher5allocERPNS_7MessageE:00000000 $t
     /tmp/ccB5ynkg.s:472    .text._ZN3r2p13BasePublisher5allocERPNS_7MessageE:00000000 _ZN3r2p13BasePublisher5allocERPNS_7MessageE
     /tmp/ccB5ynkg.s:509    .text._ZN3r2p7Thread_4selfEv:00000000 $t
     /tmp/ccB5ynkg.s:515    .text._ZN3r2p7Thread_4selfEv:00000000 _ZN3r2p7Thread_4selfEv
     /tmp/ccB5ynkg.s:532    .text._ZN3r2p7Thread_4selfEv:00000008 $d
     /tmp/ccB5ynkg.s:537    .text._ZN3r2p7Thread_5sleepERKNS_4TimeE:00000000 $t
     /tmp/ccB5ynkg.s:543    .text._ZN3r2p7Thread_5sleepERKNS_4TimeE:00000000 _ZN3r2p7Thread_5sleepERKNS_4TimeE
     /tmp/ccB5ynkg.s:602    .text._ZN3r2p7Thread_5sleepERKNS_4TimeE:0000005c $d
     /tmp/ccB5ynkg.s:608    .text._ZN3r2p6Thread4selfEv:00000000 $t
     /tmp/ccB5ynkg.s:614    .text._ZN3r2p6Thread4selfEv:00000000 _ZN3r2p6Thread4selfEv
     /tmp/ccB5ynkg.s:635    .text._ZN3r2p6Thread5sleepERKNS_4TimeE:00000000 $t
     /tmp/ccB5ynkg.s:641    .text._ZN3r2p6Thread5sleepERKNS_4TimeE:00000000 _ZN3r2p6Thread5sleepERKNS_4TimeE
     /tmp/ccB5ynkg.s:665    .text._ZNK3r2p10SpinEvent_10get_threadEv:00000000 $t
     /tmp/ccB5ynkg.s:671    .text._ZNK3r2p10SpinEvent_10get_threadEv:00000000 _ZNK3r2p10SpinEvent_10get_threadEv
     /tmp/ccB5ynkg.s:695    .text._ZN3r2p10SpinEvent_10set_threadEPNS_6ThreadE:00000000 $t
     /tmp/ccB5ynkg.s:701    .text._ZN3r2p10SpinEvent_10set_threadEPNS_6ThreadE:00000000 _ZN3r2p10SpinEvent_10set_threadEPNS_6ThreadE
     /tmp/ccB5ynkg.s:725    .text._ZN3r2p10SpinEvent_13signal_unsafeEj:00000000 $t
     /tmp/ccB5ynkg.s:731    .text._ZN3r2p10SpinEvent_13signal_unsafeEj:00000000 _ZN3r2p10SpinEvent_13signal_unsafeEj
     /tmp/ccB5ynkg.s:776    .text._ZN3r2p10SpinEvent_13signal_unsafeEj:00000038 $d
     /tmp/ccB5ynkg.s:781    .text._ZNK3r2p9SpinEvent10get_threadEv:00000000 $t
     /tmp/ccB5ynkg.s:787    .text._ZNK3r2p9SpinEvent10get_threadEv:00000000 _ZNK3r2p9SpinEvent10get_threadEv
     /tmp/ccB5ynkg.s:815    .text._ZN3r2p9SpinEvent10set_threadEPNS_6ThreadE:00000000 $t
     /tmp/ccB5ynkg.s:821    .text._ZN3r2p9SpinEvent10set_threadEPNS_6ThreadE:00000000 _ZN3r2p9SpinEvent10set_threadEPNS_6ThreadE
     /tmp/ccB5ynkg.s:848    .text._ZN3r2p9SpinEvent13signal_unsafeEj:00000000 $t
     /tmp/ccB5ynkg.s:854    .text._ZN3r2p9SpinEvent13signal_unsafeEj:00000000 _ZN3r2p9SpinEvent13signal_unsafeEj
ARM GAS  /tmp/ccB5ynkg.s 			page 391


     /tmp/ccB5ynkg.s:881    .text._ZNK3r2p4Node11get_enabledEv:00000000 $t
     /tmp/ccB5ynkg.s:887    .text._ZNK3r2p4Node11get_enabledEv:00000000 _ZNK3r2p4Node11get_enabledEv
     /tmp/ccB5ynkg.s:921    .text._ZN3r2p4Node11set_enabledEb:00000000 $t
     /tmp/ccB5ynkg.s:927    .text._ZN3r2p4Node11set_enabledEb:00000000 _ZN3r2p4Node11set_enabledEb
     /tmp/ccB5ynkg.s:969    .text._ZN3r2p4Node13notify_unsafeEj:00000000 $t
     /tmp/ccB5ynkg.s:975    .text._ZN3r2p4Node13notify_unsafeEj:00000000 _ZN3r2p4Node13notify_unsafeEj
     /tmp/ccB5ynkg.s:1003   .text._ZNK3r2p15LocalSubscriber16get_queue_lengthEv:00000000 $t
     /tmp/ccB5ynkg.s:1009   .text._ZNK3r2p15LocalSubscriber16get_queue_lengthEv:00000000 _ZNK3r2p15LocalSubscriber16get_queue_lengthEv
     /tmp/ccB5ynkg.s:2216   .text._ZNK3r2p10ArrayQueueIPNS_7MessageEE10get_lengthEv:00000000 _ZNK3r2p10ArrayQueueIPNS_7MessageEE10get_lengthEv
     /tmp/ccB5ynkg.s:1038   .text._ZN3r2p15LocalSubscriber12fetch_unsafeERPNS_7MessageERNS_4TimeE:00000000 $t
     /tmp/ccB5ynkg.s:1044   .text._ZN3r2p15LocalSubscriber12fetch_unsafeERPNS_7MessageERNS_4TimeE:00000000 _ZN3r2p15LocalSubscriber12fetch_unsafeERPNS_7MessageERNS_4TimeE
     /tmp/ccB5ynkg.s:2246   .text._ZN3r2p10ArrayQueueIPNS_7MessageEE12fetch_unsafeERS2_:00000000 _ZN3r2p10ArrayQueueIPNS_7MessageEE12fetch_unsafeERS2_
     /tmp/ccB5ynkg.s:1092   .text._ZN3r2p15LocalSubscriber13notify_unsafeERNS_7MessageERKNS_4TimeE:00000000 $t
     /tmp/ccB5ynkg.s:1098   .text._ZN3r2p15LocalSubscriber13notify_unsafeERNS_7MessageERKNS_4TimeE:00000000 _ZN3r2p15LocalSubscriber13notify_unsafeERNS_7MessageERKNS_4TimeE
     /tmp/ccB5ynkg.s:2324   .text._ZN3r2p10ArrayQueueIPNS_7MessageEE11post_unsafeES2_:00000000 _ZN3r2p10ArrayQueueIPNS_7MessageEE11post_unsafeES2_
     /tmp/ccB5ynkg.s:1164   .text._ZN3r2p5Topic12alloc_unsafeEv:00000000 $t
     /tmp/ccB5ynkg.s:1219   .bss.vel_node:00000000 vel_node
     /tmp/ccB5ynkg.s:1216   .bss.vel_node:00000000 $d
     /tmp/ccB5ynkg.s:1226   .bss.vel_pub:00000000 vel_pub
     /tmp/ccB5ynkg.s:1223   .bss.vel_pub:00000000 $d
     /tmp/ccB5ynkg.s:1232   .data.speed_first_time:00000000 speed_first_time
     /tmp/ccB5ynkg.s:1239   .bss.pidcfg_node:00000000 pidcfg_node
     /tmp/ccB5ynkg.s:1236   .bss.pidcfg_node:00000000 $d
     /tmp/ccB5ynkg.s:1246   .bss.pidcfg_pub:00000000 pidcfg_pub
     /tmp/ccB5ynkg.s:1243   .bss.pidcfg_pub:00000000 $d
     /tmp/ccB5ynkg.s:1252   .data.pidcfg_first_time:00000000 pidcfg_first_time
     /tmp/ccB5ynkg.s:1259   .bss.pixy_node:00000000 pixy_node
     /tmp/ccB5ynkg.s:1256   .bss.pixy_node:00000000 $d
     /tmp/ccB5ynkg.s:1266   .bss.pixy_sub:00000000 pixy_sub
     /tmp/ccB5ynkg.s:1263   .bss.pixy_sub:00000000 $d
     /tmp/ccB5ynkg.s:1272   .data.pixy_first_time:00000000 pixy_first_time
     /tmp/ccB5ynkg.s:1279   .bss.serialp:00000000 serialp
     /tmp/ccB5ynkg.s:1276   .bss.serialp:00000000 $d
     /tmp/ccB5ynkg.s:1285   .bss.stream_enc:00000000 stream_enc
     /tmp/ccB5ynkg.s:1286   .bss.stream_enc:00000000 $d
     /tmp/ccB5ynkg.s:1288   .text._Z22usb_lld_disconnect_busP9USBDriver:00000000 $t
     /tmp/ccB5ynkg.s:1294   .text._Z22usb_lld_disconnect_busP9USBDriver:00000000 _Z22usb_lld_disconnect_busP9USBDriver
     /tmp/ccB5ynkg.s:1330   .text._Z19usb_lld_connect_busP9USBDriver:00000000 $t
     /tmp/ccB5ynkg.s:1336   .text._Z19usb_lld_connect_busP9USBDriver:00000000 _Z19usb_lld_connect_busP9USBDriver
     /tmp/ccB5ynkg.s:1383   .text._ZL7cmd_runP20BaseSequentialStreamiPPc:00000000 $t
     /tmp/ccB5ynkg.s:1388   .text._ZL7cmd_runP20BaseSequentialStreamiPPc:00000000 _ZL7cmd_runP20BaseSequentialStreamiPPc
     /tmp/ccB5ynkg.s:2597   .text._ZN3r2p4Node9advertiseINS_9Speed3MsgEEEbRNS_9PublisherIT_EEPKcRKNS_4TimeE:00000000 _ZN3r2p4Node9advertiseINS_9Speed3MsgEEEbRNS_9PublisherIT_EEPKcRKNS_4TimeE
     /tmp/ccB5ynkg.s:2638   .text._ZN3r2p9PublisherINS_9Speed3MsgEE5allocERPS1_:00000000 _ZN3r2p9PublisherINS_9Speed3MsgEE5allocERPS1_
     /tmp/ccB5ynkg.s:2672   .text._Z5clampIfET_S0_S0_S0_:00000000 _Z5clampIfET_S0_S0_S0_
     /tmp/ccB5ynkg.s:2725   .text._ZN3r2p9PublisherINS_9Speed3MsgEE7publishERS1_:00000000 _ZN3r2p9PublisherINS_9Speed3MsgEE7publishERS1_
     /tmp/ccB5ynkg.s:1607   .text._ZL7cmd_runP20BaseSequentialStreamiPPc:00000204 $d
     /tmp/ccB5ynkg.s:1634   .text._ZL8cmd_pixyP20BaseSequentialStreamiPPc:00000000 $t
     /tmp/ccB5ynkg.s:1639   .text._ZL8cmd_pixyP20BaseSequentialStreamiPPc:00000000 _ZL8cmd_pixyP20BaseSequentialStreamiPPc
     /tmp/ccB5ynkg.s:2761   .text._ZN3r2p4Node9subscribeINS_7PixyMsgELj5EEEbRNS_10SubscriberIT_XT0_EEEPKc:00000000 _ZN3r2p4Node9subscribeINS_7PixyMsgELj5EEEbRNS_10SubscriberIT_XT0_EEEPKc
     /tmp/ccB5ynkg.s:2804   .text._ZN3r2p16SubscriberExtBufINS_7PixyMsgEE5fetchERPS1_:00000000 _ZN3r2p16SubscriberExtBufINS_7PixyMsgEE5fetchERPS1_
     /tmp/ccB5ynkg.s:2840   .text._ZN3r2p16SubscriberExtBufINS_7PixyMsgEE7releaseERS1_:00000000 _ZN3r2p16SubscriberExtBufINS_7PixyMsgEE7releaseERS1_
     /tmp/ccB5ynkg.s:1738   .text._ZL8cmd_pixyP20BaseSequentialStreamiPPc:00000098 $d
     /tmp/ccB5ynkg.s:1752   .text._ZL8cmd_stopP20BaseSequentialStreamiPPc:00000000 $t
     /tmp/ccB5ynkg.s:1757   .text._ZL8cmd_stopP20BaseSequentialStreamiPPc:00000000 _ZL8cmd_stopP20BaseSequentialStreamiPPc
     /tmp/ccB5ynkg.s:1845   .text._ZL8cmd_stopP20BaseSequentialStreamiPPc:00000084 $d
     /tmp/ccB5ynkg.s:1859   .text._ZL7cmd_encP20BaseSequentialStreamiPPc:00000000 $t
     /tmp/ccB5ynkg.s:1864   .text._ZL7cmd_encP20BaseSequentialStreamiPPc:00000000 _ZL7cmd_encP20BaseSequentialStreamiPPc
ARM GAS  /tmp/ccB5ynkg.s 			page 392


     /tmp/ccB5ynkg.s:1909   .text._ZL7cmd_encP20BaseSequentialStreamiPPc:00000034 $d
     /tmp/ccB5ynkg.s:1923   .text._ZL10cmd_pidcfgP20BaseSequentialStreamiPPc:00000000 $t
     /tmp/ccB5ynkg.s:1928   .text._ZL10cmd_pidcfgP20BaseSequentialStreamiPPc:00000000 _ZL10cmd_pidcfgP20BaseSequentialStreamiPPc
     /tmp/ccB5ynkg.s:2876   .text._ZN3r2p4Node9advertiseINS_9PIDCfgMsgEEEbRNS_9PublisherIT_EEPKcRKNS_4TimeE:00000000 _ZN3r2p4Node9advertiseINS_9PIDCfgMsgEEEbRNS_9PublisherIT_EEPKcRKNS_4TimeE
     /tmp/ccB5ynkg.s:2917   .text._ZN3r2p9PublisherINS_9PIDCfgMsgEE5allocERPS1_:00000000 _ZN3r2p9PublisherINS_9PIDCfgMsgEE5allocERPS1_
     /tmp/ccB5ynkg.s:2952   .text._ZN3r2p9PublisherINS_9PIDCfgMsgEE7publishERS1_:00000000 _ZN3r2p9PublisherINS_9PIDCfgMsgEE7publishERS1_
     /tmp/ccB5ynkg.s:2043   .text._ZL10cmd_pidcfgP20BaseSequentialStreamiPPc:000000c4 $d
     /tmp/ccB5ynkg.s:2057   .text._Z10shell_nodePv:00000000 $t
     /tmp/ccB5ynkg.s:2063   .text._Z10shell_nodePv:00000000 _Z10shell_nodePv
     /tmp/ccB5ynkg.s:2164   .text._Z10shell_nodePv:000000ac $d
     /tmp/ccB5ynkg.s:3303   .rodata._ZL13usb_shell_cfg:00000000 _ZL13usb_shell_cfg
     /tmp/ccB5ynkg.s:2174   .text._ZN3r2p4TimeC2IlEET_:00000000 $t
     /tmp/ccB5ynkg.s:2180   .text._ZN3r2p4TimeC2IlEET_:00000000 _ZN3r2p4TimeC2IlEET_
     /tmp/ccB5ynkg.s:2210   .text._ZNK3r2p10ArrayQueueIPNS_7MessageEE10get_lengthEv:00000000 $t
     /tmp/ccB5ynkg.s:2240   .text._ZN3r2p10ArrayQueueIPNS_7MessageEE12fetch_unsafeERS2_:00000000 $t
     /tmp/ccB5ynkg.s:2318   .text._ZN3r2p10ArrayQueueIPNS_7MessageEE11post_unsafeES2_:00000000 $t
     /tmp/ccB5ynkg.s:2397   .text._ZN3r2p9PublisherINS_9Speed3MsgEEC2Ev:00000000 $t
     /tmp/ccB5ynkg.s:2403   .text._ZN3r2p9PublisherINS_9Speed3MsgEEC2Ev:00000000 _ZN3r2p9PublisherINS_9Speed3MsgEEC2Ev
     /tmp/ccB5ynkg.s:2435   .text._ZN3r2p9PublisherINS_9Speed3MsgEEC2Ev:00000020 $d
     /tmp/ccB5ynkg.s:3160   .rodata._ZTVN3r2p9PublisherINS_9Speed3MsgEEE:00000000 _ZTVN3r2p9PublisherINS_9Speed3MsgEEE
     /tmp/ccB5ynkg.s:2403   .text._ZN3r2p9PublisherINS_9Speed3MsgEEC2Ev:00000000 _ZN3r2p9PublisherINS_9Speed3MsgEEC1Ev
     /tmp/ccB5ynkg.s:2442   .text._ZN3r2p9PublisherINS_9PIDCfgMsgEEC2Ev:00000000 $t
     /tmp/ccB5ynkg.s:2448   .text._ZN3r2p9PublisherINS_9PIDCfgMsgEEC2Ev:00000000 _ZN3r2p9PublisherINS_9PIDCfgMsgEEC2Ev
     /tmp/ccB5ynkg.s:2479   .text._ZN3r2p9PublisherINS_9PIDCfgMsgEEC2Ev:00000020 $d
     /tmp/ccB5ynkg.s:3150   .rodata._ZTVN3r2p9PublisherINS_9PIDCfgMsgEEE:00000000 _ZTVN3r2p9PublisherINS_9PIDCfgMsgEEE
     /tmp/ccB5ynkg.s:2448   .text._ZN3r2p9PublisherINS_9PIDCfgMsgEEC2Ev:00000000 _ZN3r2p9PublisherINS_9PIDCfgMsgEEC1Ev
     /tmp/ccB5ynkg.s:2486   .text._ZN3r2p7PixyMsgC2Ev:00000000 $t
     /tmp/ccB5ynkg.s:2492   .text._ZN3r2p7PixyMsgC2Ev:00000000 _ZN3r2p7PixyMsgC2Ev
     /tmp/ccB5ynkg.s:2492   .text._ZN3r2p7PixyMsgC2Ev:00000000 _ZN3r2p7PixyMsgC1Ev
     /tmp/ccB5ynkg.s:2523   .text._ZN3r2p10SubscriberINS_7PixyMsgELj5EEC2EPFbRKS1_E:00000000 $t
     /tmp/ccB5ynkg.s:2529   .text._ZN3r2p10SubscriberINS_7PixyMsgELj5EEC2EPFbRKS1_E:00000000 _ZN3r2p10SubscriberINS_7PixyMsgELj5EEC2EPFbRKS1_E
     /tmp/ccB5ynkg.s:2988   .text._ZN3r2p16SubscriberExtBufINS_7PixyMsgEEC2EPPS1_jPFbRKS1_E:00000000 _ZN3r2p16SubscriberExtBufINS_7PixyMsgEEC2EPPS1_jPFbRKS1_E
     /tmp/ccB5ynkg.s:2584   .text._ZN3r2p10SubscriberINS_7PixyMsgELj5EEC2EPFbRKS1_E:00000044 $d
     /tmp/ccB5ynkg.s:3120   .rodata._ZTVN3r2p10SubscriberINS_7PixyMsgELj5EEE:00000000 _ZTVN3r2p10SubscriberINS_7PixyMsgELj5EEE
     /tmp/ccB5ynkg.s:2529   .text._ZN3r2p10SubscriberINS_7PixyMsgELj5EEC2EPFbRKS1_E:00000000 _ZN3r2p10SubscriberINS_7PixyMsgELj5EEC1EPFbRKS1_E
     /tmp/ccB5ynkg.s:2591   .text._ZN3r2p4Node9advertiseINS_9Speed3MsgEEEbRNS_9PublisherIT_EEPKcRKNS_4TimeE:00000000 $t
     /tmp/ccB5ynkg.s:2632   .text._ZN3r2p9PublisherINS_9Speed3MsgEE5allocERPS1_:00000000 $t
     /tmp/ccB5ynkg.s:2667   .text._Z5clampIfET_S0_S0_S0_:00000000 $t
     /tmp/ccB5ynkg.s:2719   .text._ZN3r2p9PublisherINS_9Speed3MsgEE7publishERS1_:00000000 $t
     /tmp/ccB5ynkg.s:2755   .text._ZN3r2p4Node9subscribeINS_7PixyMsgELj5EEEbRNS_10SubscriberIT_XT0_EEEPKc:00000000 $t
     /tmp/ccB5ynkg.s:2798   .text._ZN3r2p16SubscriberExtBufINS_7PixyMsgEE5fetchERPS1_:00000000 $t
     /tmp/ccB5ynkg.s:2834   .text._ZN3r2p16SubscriberExtBufINS_7PixyMsgEE7releaseERS1_:00000000 $t
     /tmp/ccB5ynkg.s:2870   .text._ZN3r2p4Node9advertiseINS_9PIDCfgMsgEEEbRNS_9PublisherIT_EEPKcRKNS_4TimeE:00000000 $t
     /tmp/ccB5ynkg.s:2911   .text._ZN3r2p9PublisherINS_9PIDCfgMsgEE5allocERPS1_:00000000 $t
     /tmp/ccB5ynkg.s:2946   .text._ZN3r2p9PublisherINS_9PIDCfgMsgEE7publishERS1_:00000000 $t
     /tmp/ccB5ynkg.s:2982   .text._ZN3r2p16SubscriberExtBufINS_7PixyMsgEEC2EPPS1_jPFbRKS1_E:00000000 $t
     /tmp/ccB5ynkg.s:3025   .text._ZN3r2p16SubscriberExtBufINS_7PixyMsgEEC2EPPS1_jPFbRKS1_E:0000002c $d
     /tmp/ccB5ynkg.s:3135   .rodata._ZTVN3r2p16SubscriberExtBufINS_7PixyMsgEEE:00000000 _ZTVN3r2p16SubscriberExtBufINS_7PixyMsgEEE
     /tmp/ccB5ynkg.s:2988   .text._ZN3r2p16SubscriberExtBufINS_7PixyMsgEEC2EPPS1_jPFbRKS1_E:00000000 _ZN3r2p16SubscriberExtBufINS_7PixyMsgEEC1EPPS1_jPFbRKS1_E
     /tmp/ccB5ynkg.s:3032   .text._ZN3r2p16SubscriberExtBufINS_7PixyMsgEED2Ev:00000000 $t
     /tmp/ccB5ynkg.s:3038   .text._ZN3r2p16SubscriberExtBufINS_7PixyMsgEED2Ev:00000000 _ZN3r2p16SubscriberExtBufINS_7PixyMsgEED2Ev
     /tmp/ccB5ynkg.s:3076   .text._ZN3r2p16SubscriberExtBufINS_7PixyMsgEED2Ev:0000002c $d
     /tmp/ccB5ynkg.s:3038   .text._ZN3r2p16SubscriberExtBufINS_7PixyMsgEED2Ev:00000000 _ZN3r2p16SubscriberExtBufINS_7PixyMsgEED1Ev
     /tmp/ccB5ynkg.s:3083   .text._ZN3r2p16SubscriberExtBufINS_7PixyMsgEED0Ev:00000000 $t
     /tmp/ccB5ynkg.s:3089   .text._ZN3r2p16SubscriberExtBufINS_7PixyMsgEED0Ev:00000000 _ZN3r2p16SubscriberExtBufINS_7PixyMsgEED0Ev
     /tmp/ccB5ynkg.s:3117   .rodata._ZTVN3r2p10SubscriberINS_7PixyMsgELj5EEE:00000000 $d
     /tmp/ccB5ynkg.s:3313   .text._ZN3r2p10SubscriberINS_7PixyMsgELj5EED2Ev:00000000 _ZN3r2p10SubscriberINS_7PixyMsgELj5EED1Ev
ARM GAS  /tmp/ccB5ynkg.s 			page 393


     /tmp/ccB5ynkg.s:3364   .text._ZN3r2p10SubscriberINS_7PixyMsgELj5EED0Ev:00000000 _ZN3r2p10SubscriberINS_7PixyMsgELj5EED0Ev
     /tmp/ccB5ynkg.s:3132   .rodata._ZTVN3r2p16SubscriberExtBufINS_7PixyMsgEEE:00000000 $d
     /tmp/ccB5ynkg.s:3147   .rodata._ZTVN3r2p9PublisherINS_9PIDCfgMsgEEE:00000000 $d
     /tmp/ccB5ynkg.s:3397   .text._ZN3r2p9PublisherINS_9PIDCfgMsgEED2Ev:00000000 _ZN3r2p9PublisherINS_9PIDCfgMsgEED1Ev
     /tmp/ccB5ynkg.s:3448   .text._ZN3r2p9PublisherINS_9PIDCfgMsgEED0Ev:00000000 _ZN3r2p9PublisherINS_9PIDCfgMsgEED0Ev
     /tmp/ccB5ynkg.s:3157   .rodata._ZTVN3r2p9PublisherINS_9Speed3MsgEEE:00000000 $d
     /tmp/ccB5ynkg.s:3481   .text._ZN3r2p9PublisherINS_9Speed3MsgEED2Ev:00000000 _ZN3r2p9PublisherINS_9Speed3MsgEED1Ev
     /tmp/ccB5ynkg.s:3532   .text._ZN3r2p9PublisherINS_9Speed3MsgEED0Ev:00000000 _ZN3r2p9PublisherINS_9Speed3MsgEED0Ev
     /tmp/ccB5ynkg.s:3170   .text._Z41__static_initialization_and_destruction_0ii:00000000 $t
     /tmp/ccB5ynkg.s:3175   .text._Z41__static_initialization_and_destruction_0ii:00000000 _Z41__static_initialization_and_destruction_0ii
     /tmp/ccB5ynkg.s:3255   .text._Z41__static_initialization_and_destruction_0ii:0000008c $d
     /tmp/ccB5ynkg.s:3283   .rodata._ZL8commands:00000000 $d
     /tmp/ccB5ynkg.s:3286   .rodata._ZL8commands:00000000 _ZL8commands
     /tmp/ccB5ynkg.s:3300   .rodata._ZL13usb_shell_cfg:00000000 $d
     /tmp/ccB5ynkg.s:3307   .text._ZN3r2p10SubscriberINS_7PixyMsgELj5EED2Ev:00000000 $t
     /tmp/ccB5ynkg.s:3313   .text._ZN3r2p10SubscriberINS_7PixyMsgELj5EED2Ev:00000000 _ZN3r2p10SubscriberINS_7PixyMsgELj5EED2Ev
     /tmp/ccB5ynkg.s:3351   .text._ZN3r2p10SubscriberINS_7PixyMsgELj5EED2Ev:0000002c $d
     /tmp/ccB5ynkg.s:3358   .text._ZN3r2p10SubscriberINS_7PixyMsgELj5EED0Ev:00000000 $t
     /tmp/ccB5ynkg.s:3391   .text._ZN3r2p9PublisherINS_9PIDCfgMsgEED2Ev:00000000 $t
     /tmp/ccB5ynkg.s:3397   .text._ZN3r2p9PublisherINS_9PIDCfgMsgEED2Ev:00000000 _ZN3r2p9PublisherINS_9PIDCfgMsgEED2Ev
     /tmp/ccB5ynkg.s:3435   .text._ZN3r2p9PublisherINS_9PIDCfgMsgEED2Ev:0000002c $d
     /tmp/ccB5ynkg.s:3442   .text._ZN3r2p9PublisherINS_9PIDCfgMsgEED0Ev:00000000 $t
     /tmp/ccB5ynkg.s:3475   .text._ZN3r2p9PublisherINS_9Speed3MsgEED2Ev:00000000 $t
     /tmp/ccB5ynkg.s:3481   .text._ZN3r2p9PublisherINS_9Speed3MsgEED2Ev:00000000 _ZN3r2p9PublisherINS_9Speed3MsgEED2Ev
     /tmp/ccB5ynkg.s:3519   .text._ZN3r2p9PublisherINS_9Speed3MsgEED2Ev:0000002c $d
     /tmp/ccB5ynkg.s:3526   .text._ZN3r2p9PublisherINS_9Speed3MsgEED0Ev:00000000 $t
     /tmp/ccB5ynkg.s:3559   .text._GLOBAL__sub_I_vel_node:00000000 $t
     /tmp/ccB5ynkg.s:3564   .text._GLOBAL__sub_I_vel_node:00000000 _GLOBAL__sub_I_vel_node
     /tmp/ccB5ynkg.s:3583   .init_array:00000000 $d
                     .debug_frame:00000010 $d
     /tmp/ccB5ynkg.s:536    .text._ZN3r2p7Thread_4selfEv:0000000c $t
     /tmp/ccB5ynkg.s:607    .text._ZN3r2p7Thread_5sleepERKNS_4TimeE:00000064 $t
     /tmp/ccB5ynkg.s:780    .text._ZN3r2p10SpinEvent_13signal_unsafeEj:0000003c $t
     /tmp/ccB5ynkg.s:1623   .text._ZL7cmd_runP20BaseSequentialStreamiPPc:00000238 $t
     /tmp/ccB5ynkg.s:1854   .text._ZL8cmd_stopP20BaseSequentialStreamiPPc:0000009c $t
     /tmp/ccB5ynkg.s:2052   .text._ZL10cmd_pidcfgP20BaseSequentialStreamiPPc:000000dc $t
     /tmp/ccB5ynkg.s:2441   .text._ZN3r2p9PublisherINS_9Speed3MsgEEC2Ev:00000024 $t
     /tmp/ccB5ynkg.s:2485   .text._ZN3r2p9PublisherINS_9PIDCfgMsgEEC2Ev:00000024 $t
     /tmp/ccB5ynkg.s:2590   .text._ZN3r2p10SubscriberINS_7PixyMsgELj5EEC2EPFbRKS1_E:00000048 $t
     /tmp/ccB5ynkg.s:3272   .text._Z41__static_initialization_and_destruction_0ii:000000c4 $t
                           .group:00000000 _ZN3r2p7MessageC5Ev
                           .group:00000000 _ZN3r2p4TimeC5IlEET_
                           .group:00000000 _ZN3r2p9PublisherINS_9Speed3MsgEEC5Ev
                           .group:00000000 _ZN3r2p9PublisherINS_9PIDCfgMsgEEC5Ev
                           .group:00000000 _ZN3r2p7PixyMsgC5Ev
                           .group:00000000 _ZN3r2p10SubscriberINS_7PixyMsgELj5EEC5EPFbRKS1_E
                           .group:00000000 _ZN3r2p16SubscriberExtBufINS_7PixyMsgEEC5EPPS1_jPFbRKS1_E
                           .group:00000000 _ZN3r2p16SubscriberExtBufINS_7PixyMsgEED5Ev
                           .group:00000000 _ZN3r2p10SubscriberINS_7PixyMsgELj5EED5Ev
                           .group:00000000 _ZN3r2p9PublisherINS_9PIDCfgMsgEED5Ev
                           .group:00000000 _ZN3r2p9PublisherINS_9Speed3MsgEED5Ev

UNDEFINED SYMBOLS
chvprintf
dbg_check_lock
dbg_check_unlock
chPoolAllocI
ARM GAS  /tmp/ccB5ynkg.s 			page 394


chDbgPanic
rlist
chThdSleep
chThdYield
chEvtSignalI
_ZN3r2p4Time3nowEv
_pal_lld_setgroupmode
__aeabi_d2f
__aeabi_f2d
atof
_ZN3r2p4Time8INFINITEE
_ZN3r2p4NodeC1EPKcb
sduObjectInit
sduStart
usbStart
shellInit
shellCreate
chThdRelease
SDU1
serusbcfg
usbcfg
_ZN3r2p14LocalPublisherC2Ev
_ZN3r2p4Node9advertiseERNS_14LocalPublisherEPKcRKNS_4TimeEj
_ZN3r2p13BasePublisher7publishERNS_7MessageE
_ZN3r2p4Node9subscribeERNS_15LocalSubscriberEPKcPNS_7MessageEj
_ZN3r2p15LocalSubscriber5fetchERPNS_7MessageE
_ZN3r2p14BaseSubscriber7releaseERNS_7MessageE
_ZN3r2p15LocalSubscriberC2EPPNS_7MessageEjPFbRKS1_E
_ZN3r2p15LocalSubscriberD2Ev
_ZdlPv
_ZN3r2p15LocalSubscriber6notifyERNS_7MessageERKNS_4TimeE
_ZN3r2p15LocalSubscriber5fetchERPNS_7MessageERNS_4TimeE
__aeabi_atexit
_ZN3r2p4NodeD1Ev
__dso_handle
_ZN3r2p14LocalPublisherD2Ev
