ARM GAS  /tmp/ccypRU8x.s 			page 1


   1              		.syntax unified
   2              		.cpu cortex-m4
   3              		.eabi_attribute 27, 3
   4              		.eabi_attribute 28, 1
   5              		.fpu fpv4-sp-d16
   6              		.eabi_attribute 20, 1
   7              		.eabi_attribute 21, 1
   8              		.eabi_attribute 23, 3
   9              		.eabi_attribute 24, 1
  10              		.eabi_attribute 25, 1
  11              		.eabi_attribute 26, 1
  12              		.eabi_attribute 30, 6
  13              		.eabi_attribute 34, 1
  14              		.eabi_attribute 18, 4
  15              		.thumb
  16              		.file	"shell_node.cpp"
  17              		.text
  18              	.Ltext0:
  19              		.cfi_sections	.debug_frame
  20              		.section	.text._ZL8chprintfP20BaseSequentialStreamPKcz,"ax",%progbits
  21              		.align	2
  22              		.p2align 4,,15
  23              		.thumb
  24              		.thumb_func
  25              		.type	_ZL8chprintfP20BaseSequentialStreamPKcz, %function
  26              	_ZL8chprintfP20BaseSequentialStreamPKcz:
  27              	.LFB118:
  28              		.file 1 "/home/ergae/r2p-sdk/core/ChibiOS/os/various/chprintf.h"
  29              		.loc 1 69 0
  30              		.cfi_startproc
  31              		@ args = 4, pretend = 12, frame = 16
  32              		@ frame_needed = 0, uses_anonymous_args = 1
  33 0000 0EB4     		push	{r1, r2, r3}
  34              		.cfi_def_cfa_offset 12
  35              		.cfi_offset 1, -12
  36              		.cfi_offset 2, -8
  37              		.cfi_offset 3, -4
  38 0002 00B5     		push	{lr}
  39              		.cfi_def_cfa_offset 16
  40              		.cfi_offset 14, -16
  41 0004 84B0     		sub	sp, sp, #16
  42              		.cfi_def_cfa_offset 32
  43 0006 0190     		str	r0, [sp, #4]
  44              	.LBB52:
  45              		.loc 1 72 0
  46 0008 06AB     		add	r3, sp, #24
  47 000a 0393     		str	r3, [sp, #12]
  48              		.loc 1 73 0
  49 000c 0198     		ldr	r0, [sp, #4]
  50 000e 0599     		ldr	r1, [sp, #20]
  51 0010 039A     		ldr	r2, [sp, #12]
  52 0012 FFF7FEFF 		bl	chvprintf
  53              	.LBE52:
  54              		.loc 1 75 0
  55 0016 04B0     		add	sp, sp, #16
  56              		.cfi_def_cfa_offset 16
  57              		@ sp needed
ARM GAS  /tmp/ccypRU8x.s 			page 2


  58 0018 5DF804EB 		ldr	lr, [sp], #4
  59              		.cfi_restore 14
  60              		.cfi_def_cfa_offset 12
  61 001c 03B0     		add	sp, sp, #12
  62              		.cfi_restore 3
  63              		.cfi_restore 2
  64              		.cfi_restore 1
  65              		.cfi_def_cfa_offset 0
  66 001e 7047     		bx	lr
  67              		.cfi_endproc
  68              	.LFE118:
  69              		.size	_ZL8chprintfP20BaseSequentialStreamPKcz, .-_ZL8chprintfP20BaseSequentialStreamPKcz
  70              		.section	.text._ZN3r2p8SysLock_7acquireEv,"axG",%progbits,_ZN3r2p8SysLock_7acquireEv,comdat
  71              		.align	2
  72              		.p2align 4,,15
  73              		.weak	_ZN3r2p8SysLock_7acquireEv
  74              		.thumb
  75              		.thumb_func
  76              		.type	_ZN3r2p8SysLock_7acquireEv, %function
  77              	_ZN3r2p8SysLock_7acquireEv:
  78              	.LFB130:
  79              		.file 2 "/home/ergae/r2p-sdk/core/Middleware/port/chibios/include/r2p/impl/SysLock_.hpp"
  80              		.loc 2 20 0
  81              		.cfi_startproc
  82              		@ args = 0, pretend = 0, frame = 0
  83              		@ frame_needed = 0, uses_anonymous_args = 0
  84 0000 08B5     		push	{r3, lr}
  85              		.cfi_def_cfa_offset 8
  86              		.cfi_offset 3, -8
  87              		.cfi_offset 14, -4
  88              	.LBB53:
  89              	.LBB54:
  90              	.LBB55:
  91              		.loc 2 22 0
  92 0002 2023     		movs	r3, #32
  93              	@ 22 "/home/ergae/r2p-sdk/core/Middleware/port/chibios/include/r2p/impl/SysLock_.hpp" 1
  94 0004 83F31188 		msr     BASEPRI, r3
  95              	@ 0 "" 2
  96              		.thumb
  97              	.LBE55:
  98 0008 FFF7FEFF 		bl	dbg_check_lock
  99              	.LBE54:
 100              	.LBE53:
 101              		.loc 2 23 0
 102 000c 08BD     		pop	{r3, pc}
 103              		.cfi_endproc
 104              	.LFE130:
 105              		.size	_ZN3r2p8SysLock_7acquireEv, .-_ZN3r2p8SysLock_7acquireEv
 106 000e 00BF     		.section	.text._ZN3r2p8SysLock_7releaseEv,"axG",%progbits,_ZN3r2p8SysLock_7releaseEv,comdat
 107              		.align	2
 108              		.p2align 4,,15
 109              		.weak	_ZN3r2p8SysLock_7releaseEv
 110              		.thumb
 111              		.thumb_func
 112              		.type	_ZN3r2p8SysLock_7releaseEv, %function
 113              	_ZN3r2p8SysLock_7releaseEv:
 114              	.LFB131:
ARM GAS  /tmp/ccypRU8x.s 			page 3


 115              		.loc 2 27 0
 116              		.cfi_startproc
 117              		@ args = 0, pretend = 0, frame = 0
 118              		@ frame_needed = 0, uses_anonymous_args = 0
 119 0000 08B5     		push	{r3, lr}
 120              		.cfi_def_cfa_offset 8
 121              		.cfi_offset 3, -8
 122              		.cfi_offset 14, -4
 123              	.LBB56:
 124              	.LBB57:
 125              		.loc 2 29 0
 126 0002 FFF7FEFF 		bl	dbg_check_unlock
 127              	.LBB58:
 128 0006 0023     		movs	r3, #0
 129              	@ 29 "/home/ergae/r2p-sdk/core/Middleware/port/chibios/include/r2p/impl/SysLock_.hpp" 1
 130 0008 83F31188 		msr     BASEPRI, r3
 131              	@ 0 "" 2
 132              		.thumb
 133              	.LBE58:
 134              	.LBE57:
 135              	.LBE56:
 136              		.loc 2 30 0
 137 000c 08BD     		pop	{r3, pc}
 138              		.cfi_endproc
 139              	.LFE131:
 140              		.size	_ZN3r2p8SysLock_7releaseEv, .-_ZN3r2p8SysLock_7releaseEv
 141 000e 00BF     		.section	.text._ZN3r2p7SysLock7acquireEv,"axG",%progbits,_ZN3r2p7SysLock7acquireEv,comdat
 142              		.align	2
 143              		.p2align 4,,15
 144              		.weak	_ZN3r2p7SysLock7acquireEv
 145              		.thumb
 146              		.thumb_func
 147              		.type	_ZN3r2p7SysLock7acquireEv, %function
 148              	_ZN3r2p7SysLock7acquireEv:
 149              	.LFB138:
 150              		.file 3 "/home/ergae/r2p-sdk/core/Middleware/include/r2p/SysLock.hpp"
 151              		.loc 3 27 0
 152              		.cfi_startproc
 153              		@ args = 0, pretend = 0, frame = 0
 154              		@ frame_needed = 0, uses_anonymous_args = 0
 155 0000 08B5     		push	{r3, lr}
 156              		.cfi_def_cfa_offset 8
 157              		.cfi_offset 3, -8
 158              		.cfi_offset 14, -4
 159              		.loc 3 29 0
 160 0002 FFF7FEFF 		bl	_ZN3r2p8SysLock_7acquireEv
 161              		.loc 3 30 0
 162 0006 08BD     		pop	{r3, pc}
 163              		.cfi_endproc
 164              	.LFE138:
 165              		.size	_ZN3r2p7SysLock7acquireEv, .-_ZN3r2p7SysLock7acquireEv
 166 0008 AFF30080 		.section	.text._ZN3r2p7SysLock7releaseEv,"axG",%progbits,_ZN3r2p7SysLock7releaseEv,comdat
 166      AFF30080 
 167              		.align	2
 168              		.p2align 4,,15
 169              		.weak	_ZN3r2p7SysLock7releaseEv
 170              		.thumb
ARM GAS  /tmp/ccypRU8x.s 			page 4


 171              		.thumb_func
 172              		.type	_ZN3r2p7SysLock7releaseEv, %function
 173              	_ZN3r2p7SysLock7releaseEv:
 174              	.LFB139:
 175              		.loc 3 34 0
 176              		.cfi_startproc
 177              		@ args = 0, pretend = 0, frame = 0
 178              		@ frame_needed = 0, uses_anonymous_args = 0
 179 0000 08B5     		push	{r3, lr}
 180              		.cfi_def_cfa_offset 8
 181              		.cfi_offset 3, -8
 182              		.cfi_offset 14, -4
 183              		.loc 3 36 0
 184 0002 FFF7FEFF 		bl	_ZN3r2p8SysLock_7releaseEv
 185              		.loc 3 37 0
 186 0006 08BD     		pop	{r3, pc}
 187              		.cfi_endproc
 188              	.LFE139:
 189              		.size	_ZN3r2p7SysLock7releaseEv, .-_ZN3r2p7SysLock7releaseEv
 190              		.section	.text._ZN3r2p11MemoryPool_12alloc_unsafeEv,"axG",%progbits,_ZN3r2p11MemoryPool_12alloc_un
 191              		.align	2
 192              		.p2align 4,,15
 193              		.weak	_ZN3r2p11MemoryPool_12alloc_unsafeEv
 194              		.thumb
 195              		.thumb_func
 196              		.type	_ZN3r2p11MemoryPool_12alloc_unsafeEv, %function
 197              	_ZN3r2p11MemoryPool_12alloc_unsafeEv:
 198              	.LFB237:
 199              		.file 4 "/home/ergae/r2p-sdk/core/Middleware/port/chibios/include/r2p/impl/MemoryPool_.hpp"
 200              		.loc 4 53 0
 201              		.cfi_startproc
 202              		@ args = 0, pretend = 0, frame = 8
 203              		@ frame_needed = 0, uses_anonymous_args = 0
 204 0000 00B5     		push	{lr}
 205              		.cfi_def_cfa_offset 4
 206              		.cfi_offset 14, -4
 207 0002 83B0     		sub	sp, sp, #12
 208              		.cfi_def_cfa_offset 16
 209 0004 0190     		str	r0, [sp, #4]
 210              		.loc 4 55 0
 211 0006 019B     		ldr	r3, [sp, #4]
 212 0008 1846     		mov	r0, r3
 213 000a FFF7FEFF 		bl	chPoolAllocI
 214 000e 0346     		mov	r3, r0
 215              		.loc 4 56 0
 216 0010 1846     		mov	r0, r3
 217 0012 03B0     		add	sp, sp, #12
 218              		.cfi_def_cfa_offset 4
 219              		@ sp needed
 220 0014 5DF804FB 		ldr	pc, [sp], #4
 221              		.cfi_endproc
 222              	.LFE237:
 223              		.size	_ZN3r2p11MemoryPool_12alloc_unsafeEv, .-_ZN3r2p11MemoryPool_12alloc_unsafeEv
 224 0018 AFF30080 		.section	.text._ZNK3r2p4Time8to_s_rawEv,"axG",%progbits,_ZNK3r2p4Time8to_s_rawEv,comdat
 224      AFF30080 
 225              		.align	2
 226              		.p2align 4,,15
ARM GAS  /tmp/ccypRU8x.s 			page 5


 227              		.weak	_ZNK3r2p4Time8to_s_rawEv
 228              		.thumb
 229              		.thumb_func
 230              		.type	_ZNK3r2p4Time8to_s_rawEv, %function
 231              	_ZNK3r2p4Time8to_s_rawEv:
 232              	.LFB257:
 233              		.file 5 "/home/ergae/r2p-sdk/core/Middleware/include/r2p/Time.hpp"
 234              		.loc 5 89 0
 235              		.cfi_startproc
 236              		@ args = 0, pretend = 0, frame = 8
 237              		@ frame_needed = 0, uses_anonymous_args = 0
 238              		@ link register save eliminated.
 239 0000 82B0     		sub	sp, sp, #8
 240              		.cfi_def_cfa_offset 8
 241 0002 0190     		str	r0, [sp, #4]
 242              		.loc 5 91 0
 243 0004 019B     		ldr	r3, [sp, #4]
 244 0006 1B68     		ldr	r3, [r3]
 245 0008 044A     		ldr	r2, .L10
 246 000a 82FB0312 		smull	r1, r2, r2, r3
 247 000e 9214     		asrs	r2, r2, #18
 248 0010 DB17     		asrs	r3, r3, #31
 249 0012 D31A     		subs	r3, r2, r3
 250              		.loc 5 92 0
 251 0014 1846     		mov	r0, r3
 252 0016 02B0     		add	sp, sp, #8
 253              		.cfi_def_cfa_offset 0
 254              		@ sp needed
 255 0018 7047     		bx	lr
 256              	.L11:
 257 001a 00BF     		.align	2
 258              	.L10:
 259 001c 83DE1B43 		.word	1125899907
 260              		.cfi_endproc
 261              	.LFE257:
 262              		.size	_ZNK3r2p4Time8to_s_rawEv, .-_ZNK3r2p4Time8to_s_rawEv
 263              		.section	.text._ZN3r2p4TimeaSERKS0_,"axG",%progbits,_ZN3r2p4TimeaSERKS0_,comdat
 264              		.align	2
 265              		.p2align 4,,15
 266              		.weak	_ZN3r2p4TimeaSERKS0_
 267              		.thumb
 268              		.thumb_func
 269              		.type	_ZN3r2p4TimeaSERKS0_, %function
 270              	_ZN3r2p4TimeaSERKS0_:
 271              	.LFB263:
 272              		.loc 5 131 0
 273              		.cfi_startproc
 274              		@ args = 0, pretend = 0, frame = 8
 275              		@ frame_needed = 0, uses_anonymous_args = 0
 276              		@ link register save eliminated.
 277 0000 82B0     		sub	sp, sp, #8
 278              		.cfi_def_cfa_offset 8
 279 0002 0190     		str	r0, [sp, #4]
 280 0004 0091     		str	r1, [sp]
 281              		.loc 5 133 0
 282 0006 009B     		ldr	r3, [sp]
 283 0008 1A68     		ldr	r2, [r3]
ARM GAS  /tmp/ccypRU8x.s 			page 6


 284 000a 019B     		ldr	r3, [sp, #4]
 285 000c 1A60     		str	r2, [r3]
 286              		.loc 5 134 0
 287 000e 019B     		ldr	r3, [sp, #4]
 288              		.loc 5 135 0
 289 0010 1846     		mov	r0, r3
 290 0012 02B0     		add	sp, sp, #8
 291              		.cfi_def_cfa_offset 0
 292              		@ sp needed
 293 0014 7047     		bx	lr
 294              		.cfi_endproc
 295              	.LFE263:
 296              		.size	_ZN3r2p4TimeaSERKS0_, .-_ZN3r2p4TimeaSERKS0_
 297 0016 00BFAFF3 		.section	.text._ZN3r2p4Time2msEl,"axG",%progbits,_ZN3r2p4Time2msEl,comdat
 297      0080AFF3 
 297      0080
 298              		.align	2
 299              		.p2align 4,,15
 300              		.weak	_ZN3r2p4Time2msEl
 301              		.thumb
 302              		.thumb_func
 303              		.type	_ZN3r2p4Time2msEl, %function
 304              	_ZN3r2p4Time2msEl:
 305              	.LFB277:
 306              		.loc 5 184 0
 307              		.cfi_startproc
 308              		@ args = 0, pretend = 0, frame = 8
 309              		@ frame_needed = 0, uses_anonymous_args = 0
 310 0000 00B5     		push	{lr}
 311              		.cfi_def_cfa_offset 4
 312              		.cfi_offset 14, -4
 313 0002 83B0     		sub	sp, sp, #12
 314              		.cfi_def_cfa_offset 16
 315 0004 0190     		str	r0, [sp, #4]
 316 0006 0091     		str	r1, [sp]
 317              		.loc 5 186 0
 318 0008 009B     		ldr	r3, [sp]
 319 000a 4FF47A72 		mov	r2, #1000
 320 000e 02FB03F3 		mul	r3, r2, r3
 321 0012 0198     		ldr	r0, [sp, #4]
 322 0014 1946     		mov	r1, r3
 323 0016 FFF7FEFF 		bl	_ZN3r2p4TimeC1IlEET_
 324              		.loc 5 187 0
 325 001a 0198     		ldr	r0, [sp, #4]
 326 001c 03B0     		add	sp, sp, #12
 327              		.cfi_def_cfa_offset 4
 328              		@ sp needed
 329 001e 5DF804FB 		ldr	pc, [sp], #4
 330              		.cfi_endproc
 331              	.LFE277:
 332              		.size	_ZN3r2p4Time2msEl, .-_ZN3r2p4Time2msEl
 333 0022 00BFAFF3 		.section	.text._ZN3r2p7Message12reset_unsafeEv,"axG",%progbits,_ZN3r2p7Message12reset_unsafeEv,com
 333      0080AFF3 
 333      0080AFF3 
 333      0080
 334              		.align	2
 335              		.p2align 4,,15
ARM GAS  /tmp/ccypRU8x.s 			page 7


 336              		.weak	_ZN3r2p7Message12reset_unsafeEv
 337              		.thumb
 338              		.thumb_func
 339              		.type	_ZN3r2p7Message12reset_unsafeEv, %function
 340              	_ZN3r2p7Message12reset_unsafeEv:
 341              	.LFB293:
 342              		.file 6 "/home/ergae/r2p-sdk/core/Middleware/include/r2p/Message.hpp"
 343              		.loc 6 122 0
 344              		.cfi_startproc
 345              		@ args = 0, pretend = 0, frame = 8
 346              		@ frame_needed = 0, uses_anonymous_args = 0
 347              		@ link register save eliminated.
 348 0000 82B0     		sub	sp, sp, #8
 349              		.cfi_def_cfa_offset 8
 350 0002 0190     		str	r0, [sp, #4]
 351              		.loc 6 127 0
 352 0004 019B     		ldr	r3, [sp, #4]
 353 0006 0022     		movs	r2, #0
 354 0008 1A70     		strb	r2, [r3]
 355 000a 0022     		movs	r2, #0
 356 000c 5A70     		strb	r2, [r3, #1]
 357              		.loc 6 128 0
 358 000e 02B0     		add	sp, sp, #8
 359              		.cfi_def_cfa_offset 0
 360              		@ sp needed
 361 0010 7047     		bx	lr
 362              		.cfi_endproc
 363              	.LFE293:
 364              		.size	_ZN3r2p7Message12reset_unsafeEv, .-_ZN3r2p7Message12reset_unsafeEv
 365 0012 00BFAFF3 		.section	.text._ZN3r2p7MessageC2Ev,"axG",%progbits,_ZN3r2p7MessageC5Ev,comdat
 365      0080AFF3 
 365      0080AFF3 
 365      0080
 366              		.align	2
 367              		.p2align 4,,15
 368              		.weak	_ZN3r2p7MessageC2Ev
 369              		.thumb
 370              		.thumb_func
 371              		.type	_ZN3r2p7MessageC2Ev, %function
 372              	_ZN3r2p7MessageC2Ev:
 373              	.LFB295:
 374              		.loc 6 132 0
 375              		.cfi_startproc
 376              		@ args = 0, pretend = 0, frame = 8
 377              		@ frame_needed = 0, uses_anonymous_args = 0
 378              		@ link register save eliminated.
 379 0000 82B0     		sub	sp, sp, #8
 380              		.cfi_def_cfa_offset 8
 381 0002 0190     		str	r0, [sp, #4]
 382              	.LBB59:
 383              		.loc 6 137 0
 384 0004 019B     		ldr	r3, [sp, #4]
 385 0006 0022     		movs	r2, #0
 386 0008 1A70     		strb	r2, [r3]
 387 000a 0022     		movs	r2, #0
 388 000c 5A70     		strb	r2, [r3, #1]
 389              	.LBE59:
ARM GAS  /tmp/ccypRU8x.s 			page 8


 390              		.loc 6 138 0
 391 000e 019B     		ldr	r3, [sp, #4]
 392 0010 1846     		mov	r0, r3
 393 0012 02B0     		add	sp, sp, #8
 394              		.cfi_def_cfa_offset 0
 395              		@ sp needed
 396 0014 7047     		bx	lr
 397              		.cfi_endproc
 398              	.LFE295:
 399              		.size	_ZN3r2p7MessageC2Ev, .-_ZN3r2p7MessageC2Ev
 400              		.weak	_ZN3r2p7MessageC1Ev
 401              		.thumb_set _ZN3r2p7MessageC1Ev,_ZN3r2p7MessageC2Ev
 402 0016 00BFAFF3 		.section	.rodata
 402      0080AFF3 
 402      0080
 403              		.align	2
 404              	.LC0:
 405 0000 5232505F 		.ascii	"R2P_ASSERT()\000"
 405      41535345 
 405      52542829 
 405      00
 406              		.section	.text._ZN3r2p13BasePublisher12alloc_unsafeERPNS_7MessageE,"axG",%progbits,_ZN3r2p13BasePu
 407              		.align	2
 408              		.p2align 4,,15
 409              		.weak	_ZN3r2p13BasePublisher12alloc_unsafeERPNS_7MessageE
 410              		.thumb
 411              		.thumb_func
 412              		.type	_ZN3r2p13BasePublisher12alloc_unsafeERPNS_7MessageE, %function
 413              	_ZN3r2p13BasePublisher12alloc_unsafeERPNS_7MessageE:
 414              	.LFB304:
 415              		.file 7 "/home/ergae/r2p-sdk/core/Middleware/include/r2p/BasePublisher.hpp"
 416              		.loc 7 64 0
 417              		.cfi_startproc
 418              		@ args = 0, pretend = 0, frame = 8
 419              		@ frame_needed = 0, uses_anonymous_args = 0
 420 0000 00B5     		push	{lr}
 421              		.cfi_def_cfa_offset 4
 422              		.cfi_offset 14, -4
 423 0002 83B0     		sub	sp, sp, #12
 424              		.cfi_def_cfa_offset 16
 425 0004 0190     		str	r0, [sp, #4]
 426 0006 0091     		str	r1, [sp]
 427              		.loc 7 66 0
 428 0008 019B     		ldr	r3, [sp, #4]
 429 000a 5B68     		ldr	r3, [r3, #4]
 430 000c 002B     		cmp	r3, #0
 431 000e 02D1     		bne	.L21
 432              		.loc 7 66 0 is_stmt 0 discriminator 1
 433 0010 0A48     		ldr	r0, .L23
 434 0012 FFF7FEFF 		bl	chDbgPanic
 435              	.L21:
 436              		.loc 7 68 0 is_stmt 1
 437 0016 019B     		ldr	r3, [sp, #4]
 438 0018 5B68     		ldr	r3, [r3, #4]
 439 001a 1846     		mov	r0, r3
 440 001c FFF7FEFF 		bl	_ZN3r2p5Topic12alloc_unsafeEv
 441 0020 0246     		mov	r2, r0
ARM GAS  /tmp/ccypRU8x.s 			page 9


 442 0022 009B     		ldr	r3, [sp]
 443 0024 1A60     		str	r2, [r3]
 444              		.loc 7 69 0
 445 0026 009B     		ldr	r3, [sp]
 446 0028 1B68     		ldr	r3, [r3]
 447 002a 002B     		cmp	r3, #0
 448 002c 14BF     		ite	ne
 449 002e 0123     		movne	r3, #1
 450 0030 0023     		moveq	r3, #0
 451 0032 DBB2     		uxtb	r3, r3
 452              		.loc 7 70 0
 453 0034 1846     		mov	r0, r3
 454 0036 03B0     		add	sp, sp, #12
 455              		.cfi_def_cfa_offset 4
 456              		@ sp needed
 457 0038 5DF804FB 		ldr	pc, [sp], #4
 458              	.L24:
 459              		.align	2
 460              	.L23:
 461 003c 00000000 		.word	.LC0
 462              		.cfi_endproc
 463              	.LFE304:
 464              		.size	_ZN3r2p13BasePublisher12alloc_unsafeERPNS_7MessageE, .-_ZN3r2p13BasePublisher12alloc_unsafeE
 465              		.section	.text._ZN3r2p13BasePublisher5allocERPNS_7MessageE,"axG",%progbits,_ZN3r2p13BasePublisher5
 466              		.align	2
 467              		.p2align 4,,15
 468              		.weak	_ZN3r2p13BasePublisher5allocERPNS_7MessageE
 469              		.thumb
 470              		.thumb_func
 471              		.type	_ZN3r2p13BasePublisher5allocERPNS_7MessageE, %function
 472              	_ZN3r2p13BasePublisher5allocERPNS_7MessageE:
 473              	.LFB305:
 474              		.loc 7 74 0
 475              		.cfi_startproc
 476              		@ args = 0, pretend = 0, frame = 16
 477              		@ frame_needed = 0, uses_anonymous_args = 0
 478 0000 00B5     		push	{lr}
 479              		.cfi_def_cfa_offset 4
 480              		.cfi_offset 14, -4
 481 0002 85B0     		sub	sp, sp, #20
 482              		.cfi_def_cfa_offset 24
 483 0004 0190     		str	r0, [sp, #4]
 484 0006 0091     		str	r1, [sp]
 485              	.LBB60:
 486              		.loc 7 76 0
 487 0008 FFF7FEFF 		bl	_ZN3r2p7SysLock7acquireEv
 488              		.loc 7 77 0
 489 000c 0198     		ldr	r0, [sp, #4]
 490 000e 0099     		ldr	r1, [sp]
 491 0010 FFF7FEFF 		bl	_ZN3r2p13BasePublisher12alloc_unsafeERPNS_7MessageE
 492 0014 0346     		mov	r3, r0
 493 0016 8DF80F30 		strb	r3, [sp, #15]
 494              		.loc 7 78 0
 495 001a FFF7FEFF 		bl	_ZN3r2p7SysLock7releaseEv
 496              		.loc 7 79 0
 497 001e 9DF80F30 		ldrb	r3, [sp, #15]	@ zero_extendqisi2
 498              	.LBE60:
ARM GAS  /tmp/ccypRU8x.s 			page 10


 499              		.loc 7 80 0
 500 0022 1846     		mov	r0, r3
 501 0024 05B0     		add	sp, sp, #20
 502              		.cfi_def_cfa_offset 4
 503              		@ sp needed
 504 0026 5DF804FB 		ldr	pc, [sp], #4
 505              		.cfi_endproc
 506              	.LFE305:
 507              		.size	_ZN3r2p13BasePublisher5allocERPNS_7MessageE, .-_ZN3r2p13BasePublisher5allocERPNS_7MessageE
 508 002a 00BFAFF3 		.section	.text._ZN3r2p7Thread_4selfEv,"axG",%progbits,_ZN3r2p7Thread_4selfEv,comdat
 508      0080
 509              		.align	2
 510              		.p2align 4,,15
 511              		.weak	_ZN3r2p7Thread_4selfEv
 512              		.thumb
 513              		.thumb_func
 514              		.type	_ZN3r2p7Thread_4selfEv, %function
 515              	_ZN3r2p7Thread_4selfEv:
 516              	.LFB337:
 517              		.file 8 "/home/ergae/r2p-sdk/core/Middleware/port/chibios/include/r2p/impl/Thread_.hpp"
 518              		.loc 8 152 0
 519              		.cfi_startproc
 520              		@ args = 0, pretend = 0, frame = 0
 521              		@ frame_needed = 0, uses_anonymous_args = 0
 522              		@ link register save eliminated.
 523              		.loc 8 154 0
 524 0000 014B     		ldr	r3, .L29
 525 0002 9B69     		ldr	r3, [r3, #24]
 526              		.loc 8 155 0
 527 0004 1846     		mov	r0, r3
 528 0006 7047     		bx	lr
 529              	.L30:
 530              		.align	2
 531              	.L29:
 532 0008 00000000 		.word	rlist
 533              		.cfi_endproc
 534              	.LFE337:
 535              		.size	_ZN3r2p7Thread_4selfEv, .-_ZN3r2p7Thread_4selfEv
 536 000c AFF30080 		.section	.text._ZN3r2p7Thread_5sleepERKNS_4TimeE,"axG",%progbits,_ZN3r2p7Thread_5sleepERKNS_4TimeE
 537              		.align	2
 538              		.p2align 4,,15
 539              		.weak	_ZN3r2p7Thread_5sleepERKNS_4TimeE
 540              		.thumb
 541              		.thumb_func
 542              		.type	_ZN3r2p7Thread_5sleepERKNS_4TimeE, %function
 543              	_ZN3r2p7Thread_5sleepERKNS_4TimeE:
 544              	.LFB341:
 545              		.loc 8 180 0
 546              		.cfi_startproc
 547              		@ args = 0, pretend = 0, frame = 8
 548              		@ frame_needed = 0, uses_anonymous_args = 0
 549 0000 00B5     		push	{lr}
 550              		.cfi_def_cfa_offset 4
 551              		.cfi_offset 14, -4
 552 0002 83B0     		sub	sp, sp, #12
 553              		.cfi_def_cfa_offset 16
 554 0004 0190     		str	r0, [sp, #4]
ARM GAS  /tmp/ccypRU8x.s 			page 11


 555              		.loc 8 182 0
 556 0006 019B     		ldr	r3, [sp, #4]
 557 0008 1B68     		ldr	r3, [r3]
 558 000a 002B     		cmp	r3, #0
 559 000c 21DD     		ble	.L32
 560              		.loc 8 183 0
 561 000e 019B     		ldr	r3, [sp, #4]
 562 0010 1B68     		ldr	r3, [r3]
 563 0012 124A     		ldr	r2, .L36
 564 0014 9342     		cmp	r3, r2
 565 0016 10DC     		bgt	.L33
 566              		.loc 8 184 0
 567 0018 019B     		ldr	r3, [sp, #4]
 568 001a 1B68     		ldr	r3, [r3]
 569 001c 1A46     		mov	r2, r3
 570 001e 4FF47A73 		mov	r3, #1000
 571 0022 03FB02F3 		mul	r3, r3, r2
 572 0026 013B     		subs	r3, r3, #1
 573 0028 0D4A     		ldr	r2, .L36+4
 574 002a A2FB0323 		umull	r2, r3, r2, r3
 575 002e 9B0C     		lsrs	r3, r3, #18
 576 0030 0133     		adds	r3, r3, #1
 577 0032 1846     		mov	r0, r3
 578 0034 FFF7FEFF 		bl	chThdSleep
 579 0038 0DE0     		b	.L31
 580              	.L33:
 581              		.loc 8 186 0
 582 003a 0198     		ldr	r0, [sp, #4]
 583 003c FFF7FEFF 		bl	_ZNK3r2p4Time8to_s_rawEv
 584 0040 0246     		mov	r2, r0
 585 0042 4FF47A73 		mov	r3, #1000
 586 0046 03FB02F3 		mul	r3, r3, r2
 587 004a 1846     		mov	r0, r3
 588 004c FFF7FEFF 		bl	chThdSleep
 589 0050 01E0     		b	.L31
 590              	.L32:
 591              		.loc 8 189 0
 592 0052 FFF7FEFF 		bl	chThdYield
 593              	.L31:
 594              		.loc 8 191 0
 595 0056 03B0     		add	sp, sp, #12
 596              		.cfi_def_cfa_offset 4
 597              		@ sp needed
 598 0058 5DF804FB 		ldr	pc, [sp], #4
 599              	.L37:
 600              		.align	2
 601              	.L36:
 602 005c 3F420F00 		.word	999999
 603 0060 83DE1B43 		.word	1125899907
 604              		.cfi_endproc
 605              	.LFE341:
 606              		.size	_ZN3r2p7Thread_5sleepERKNS_4TimeE, .-_ZN3r2p7Thread_5sleepERKNS_4TimeE
 607 0064 AFF30080 		.section	.text._ZN3r2p6Thread4selfEv,"axG",%progbits,_ZN3r2p6Thread4selfEv,comdat
 607      AFF30080 
 607      AFF30080 
 608              		.align	2
 609              		.p2align 4,,15
ARM GAS  /tmp/ccypRU8x.s 			page 12


 610              		.weak	_ZN3r2p6Thread4selfEv
 611              		.thumb
 612              		.thumb_func
 613              		.type	_ZN3r2p6Thread4selfEv, %function
 614              	_ZN3r2p6Thread4selfEv:
 615              	.LFB348:
 616              		.file 9 "/home/ergae/r2p-sdk/core/Middleware/include/r2p/Thread.hpp"
 617              		.loc 9 112 0
 618              		.cfi_startproc
 619              		@ args = 0, pretend = 0, frame = 0
 620              		@ frame_needed = 0, uses_anonymous_args = 0
 621 0000 08B5     		push	{r3, lr}
 622              		.cfi_def_cfa_offset 8
 623              		.cfi_offset 3, -8
 624              		.cfi_offset 14, -4
 625              		.loc 9 114 0
 626 0002 FFF7FEFF 		bl	_ZN3r2p7Thread_4selfEv
 627 0006 0346     		mov	r3, r0
 628              		.loc 9 115 0
 629 0008 1846     		mov	r0, r3
 630 000a 08BD     		pop	{r3, pc}
 631              		.cfi_endproc
 632              	.LFE348:
 633              		.size	_ZN3r2p6Thread4selfEv, .-_ZN3r2p6Thread4selfEv
 634 000c AFF30080 		.section	.text._ZN3r2p6Thread5sleepERKNS_4TimeE,"axG",%progbits,_ZN3r2p6Thread5sleepERKNS_4TimeE,c
 635              		.align	2
 636              		.p2align 4,,15
 637              		.weak	_ZN3r2p6Thread5sleepERKNS_4TimeE
 638              		.thumb
 639              		.thumb_func
 640              		.type	_ZN3r2p6Thread5sleepERKNS_4TimeE, %function
 641              	_ZN3r2p6Thread5sleepERKNS_4TimeE:
 642              	.LFB352:
 643              		.loc 9 140 0
 644              		.cfi_startproc
 645              		@ args = 0, pretend = 0, frame = 8
 646              		@ frame_needed = 0, uses_anonymous_args = 0
 647 0000 00B5     		push	{lr}
 648              		.cfi_def_cfa_offset 4
 649              		.cfi_offset 14, -4
 650 0002 83B0     		sub	sp, sp, #12
 651              		.cfi_def_cfa_offset 16
 652 0004 0190     		str	r0, [sp, #4]
 653              		.loc 9 142 0
 654 0006 0198     		ldr	r0, [sp, #4]
 655 0008 FFF7FEFF 		bl	_ZN3r2p7Thread_5sleepERKNS_4TimeE
 656              		.loc 9 143 0
 657 000c 03B0     		add	sp, sp, #12
 658              		.cfi_def_cfa_offset 4
 659              		@ sp needed
 660 000e 5DF804FB 		ldr	pc, [sp], #4
 661              		.cfi_endproc
 662              	.LFE352:
 663              		.size	_ZN3r2p6Thread5sleepERKNS_4TimeE, .-_ZN3r2p6Thread5sleepERKNS_4TimeE
 664 0012 00BFAFF3 		.section	.text._ZNK3r2p10SpinEvent_10get_threadEv,"axG",%progbits,_ZNK3r2p10SpinEvent_10get_thread
 664      0080AFF3 
 664      0080AFF3 
ARM GAS  /tmp/ccypRU8x.s 			page 13


 664      0080
 665              		.align	2
 666              		.p2align 4,,15
 667              		.weak	_ZNK3r2p10SpinEvent_10get_threadEv
 668              		.thumb
 669              		.thumb_func
 670              		.type	_ZNK3r2p10SpinEvent_10get_threadEv, %function
 671              	_ZNK3r2p10SpinEvent_10get_threadEv:
 672              	.LFB354:
 673              		.file 10 "/home/ergae/r2p-sdk/core/Middleware/port/chibios/include/r2p/impl/SpinEvent_.hpp"
 674              		.loc 10 36 0
 675              		.cfi_startproc
 676              		@ args = 0, pretend = 0, frame = 8
 677              		@ frame_needed = 0, uses_anonymous_args = 0
 678              		@ link register save eliminated.
 679 0000 82B0     		sub	sp, sp, #8
 680              		.cfi_def_cfa_offset 8
 681 0002 0190     		str	r0, [sp, #4]
 682              		.loc 10 38 0
 683 0004 019B     		ldr	r3, [sp, #4]
 684 0006 1B68     		ldr	r3, [r3]
 685              		.loc 10 39 0
 686 0008 1846     		mov	r0, r3
 687 000a 02B0     		add	sp, sp, #8
 688              		.cfi_def_cfa_offset 0
 689              		@ sp needed
 690 000c 7047     		bx	lr
 691              		.cfi_endproc
 692              	.LFE354:
 693              		.size	_ZNK3r2p10SpinEvent_10get_threadEv, .-_ZNK3r2p10SpinEvent_10get_threadEv
 694 000e 00BF     		.section	.text._ZN3r2p10SpinEvent_10set_threadEPNS_6ThreadE,"axG",%progbits,_ZN3r2p10SpinEvent_10s
 695              		.align	2
 696              		.p2align 4,,15
 697              		.weak	_ZN3r2p10SpinEvent_10set_threadEPNS_6ThreadE
 698              		.thumb
 699              		.thumb_func
 700              		.type	_ZN3r2p10SpinEvent_10set_threadEPNS_6ThreadE, %function
 701              	_ZN3r2p10SpinEvent_10set_threadEPNS_6ThreadE:
 702              	.LFB355:
 703              		.loc 10 43 0
 704              		.cfi_startproc
 705              		@ args = 0, pretend = 0, frame = 8
 706              		@ frame_needed = 0, uses_anonymous_args = 0
 707              		@ link register save eliminated.
 708 0000 82B0     		sub	sp, sp, #8
 709              		.cfi_def_cfa_offset 8
 710 0002 0190     		str	r0, [sp, #4]
 711 0004 0091     		str	r1, [sp]
 712              		.loc 10 45 0
 713 0006 019B     		ldr	r3, [sp, #4]
 714 0008 009A     		ldr	r2, [sp]
 715 000a 1A60     		str	r2, [r3]
 716              		.loc 10 46 0
 717 000c 02B0     		add	sp, sp, #8
 718              		.cfi_def_cfa_offset 0
 719              		@ sp needed
 720 000e 7047     		bx	lr
ARM GAS  /tmp/ccypRU8x.s 			page 14


 721              		.cfi_endproc
 722              	.LFE355:
 723              		.size	_ZN3r2p10SpinEvent_10set_threadEPNS_6ThreadE, .-_ZN3r2p10SpinEvent_10set_threadEPNS_6ThreadE
 724              		.section	.text._ZN3r2p10SpinEvent_13signal_unsafeEj,"axG",%progbits,_ZN3r2p10SpinEvent_13signal_un
 725              		.align	2
 726              		.p2align 4,,15
 727              		.weak	_ZN3r2p10SpinEvent_13signal_unsafeEj
 728              		.thumb
 729              		.thumb_func
 730              		.type	_ZN3r2p10SpinEvent_13signal_unsafeEj, %function
 731              	_ZN3r2p10SpinEvent_13signal_unsafeEj:
 732              	.LFB356:
 733              		.loc 10 50 0
 734              		.cfi_startproc
 735              		@ args = 0, pretend = 0, frame = 8
 736              		@ frame_needed = 0, uses_anonymous_args = 0
 737 0000 00B5     		push	{lr}
 738              		.cfi_def_cfa_offset 4
 739              		.cfi_offset 14, -4
 740 0002 83B0     		sub	sp, sp, #12
 741              		.cfi_def_cfa_offset 16
 742 0004 0190     		str	r0, [sp, #4]
 743 0006 0091     		str	r1, [sp]
 744              		.loc 10 52 0
 745 0008 019B     		ldr	r3, [sp, #4]
 746 000a 1B68     		ldr	r3, [r3]
 747 000c 002B     		cmp	r3, #0
 748 000e 10D0     		beq	.L44
 749              		.loc 10 53 0
 750 0010 2022     		movs	r2, #32
 751 0012 009B     		ldr	r3, [sp]
 752 0014 9A42     		cmp	r2, r3
 753 0016 02D8     		bhi	.L46
 754              		.loc 10 53 0 is_stmt 0 discriminator 1
 755 0018 0748     		ldr	r0, .L47
 756 001a FFF7FEFF 		bl	chDbgPanic
 757              	.L46:
 758              		.loc 10 54 0 is_stmt 1
 759 001e 019B     		ldr	r3, [sp, #4]
 760 0020 1968     		ldr	r1, [r3]
 761 0022 009B     		ldr	r3, [sp]
 762 0024 0122     		movs	r2, #1
 763 0026 02FA03F3 		lsl	r3, r2, r3
 764 002a 0846     		mov	r0, r1
 765 002c 1946     		mov	r1, r3
 766 002e FFF7FEFF 		bl	chEvtSignalI
 767              	.L44:
 768              		.loc 10 56 0
 769 0032 03B0     		add	sp, sp, #12
 770              		.cfi_def_cfa_offset 4
 771              		@ sp needed
 772 0034 5DF804FB 		ldr	pc, [sp], #4
 773              	.L48:
 774              		.align	2
 775              	.L47:
 776 0038 00000000 		.word	.LC0
 777              		.cfi_endproc
ARM GAS  /tmp/ccypRU8x.s 			page 15


 778              	.LFE356:
 779              		.size	_ZN3r2p10SpinEvent_13signal_unsafeEj, .-_ZN3r2p10SpinEvent_13signal_unsafeEj
 780 003c AFF30080 		.section	.text._ZNK3r2p9SpinEvent10get_threadEv,"axG",%progbits,_ZNK3r2p9SpinEvent10get_threadEv,c
 781              		.align	2
 782              		.p2align 4,,15
 783              		.weak	_ZNK3r2p9SpinEvent10get_threadEv
 784              		.thumb
 785              		.thumb_func
 786              		.type	_ZNK3r2p9SpinEvent10get_threadEv, %function
 787              	_ZNK3r2p9SpinEvent10get_threadEv:
 788              	.LFB362:
 789              		.file 11 "/home/ergae/r2p-sdk/core/Middleware/include/r2p/SpinEvent.hpp"
 790              		.loc 11 35 0
 791              		.cfi_startproc
 792              		@ args = 0, pretend = 0, frame = 8
 793              		@ frame_needed = 0, uses_anonymous_args = 0
 794 0000 00B5     		push	{lr}
 795              		.cfi_def_cfa_offset 4
 796              		.cfi_offset 14, -4
 797 0002 83B0     		sub	sp, sp, #12
 798              		.cfi_def_cfa_offset 16
 799 0004 0190     		str	r0, [sp, #4]
 800              		.loc 11 37 0
 801 0006 019B     		ldr	r3, [sp, #4]
 802 0008 1846     		mov	r0, r3
 803 000a FFF7FEFF 		bl	_ZNK3r2p10SpinEvent_10get_threadEv
 804 000e 0346     		mov	r3, r0
 805              		.loc 11 38 0
 806 0010 1846     		mov	r0, r3
 807 0012 03B0     		add	sp, sp, #12
 808              		.cfi_def_cfa_offset 4
 809              		@ sp needed
 810 0014 5DF804FB 		ldr	pc, [sp], #4
 811              		.cfi_endproc
 812              	.LFE362:
 813              		.size	_ZNK3r2p9SpinEvent10get_threadEv, .-_ZNK3r2p9SpinEvent10get_threadEv
 814 0018 AFF30080 		.section	.text._ZN3r2p9SpinEvent10set_threadEPNS_6ThreadE,"axG",%progbits,_ZN3r2p9SpinEvent10set_t
 814      AFF30080 
 815              		.align	2
 816              		.p2align 4,,15
 817              		.weak	_ZN3r2p9SpinEvent10set_threadEPNS_6ThreadE
 818              		.thumb
 819              		.thumb_func
 820              		.type	_ZN3r2p9SpinEvent10set_threadEPNS_6ThreadE, %function
 821              	_ZN3r2p9SpinEvent10set_threadEPNS_6ThreadE:
 822              	.LFB363:
 823              		.loc 11 42 0
 824              		.cfi_startproc
 825              		@ args = 0, pretend = 0, frame = 8
 826              		@ frame_needed = 0, uses_anonymous_args = 0
 827 0000 00B5     		push	{lr}
 828              		.cfi_def_cfa_offset 4
 829              		.cfi_offset 14, -4
 830 0002 83B0     		sub	sp, sp, #12
 831              		.cfi_def_cfa_offset 16
 832 0004 0190     		str	r0, [sp, #4]
 833 0006 0091     		str	r1, [sp]
ARM GAS  /tmp/ccypRU8x.s 			page 16


 834              		.loc 11 44 0
 835 0008 019B     		ldr	r3, [sp, #4]
 836 000a 1846     		mov	r0, r3
 837 000c 0099     		ldr	r1, [sp]
 838 000e FFF7FEFF 		bl	_ZN3r2p10SpinEvent_10set_threadEPNS_6ThreadE
 839              		.loc 11 45 0
 840 0012 03B0     		add	sp, sp, #12
 841              		.cfi_def_cfa_offset 4
 842              		@ sp needed
 843 0014 5DF804FB 		ldr	pc, [sp], #4
 844              		.cfi_endproc
 845              	.LFE363:
 846              		.size	_ZN3r2p9SpinEvent10set_threadEPNS_6ThreadE, .-_ZN3r2p9SpinEvent10set_threadEPNS_6ThreadE
 847 0018 AFF30080 		.section	.text._ZN3r2p9SpinEvent13signal_unsafeEj,"axG",%progbits,_ZN3r2p9SpinEvent13signal_unsafe
 847      AFF30080 
 848              		.align	2
 849              		.p2align 4,,15
 850              		.weak	_ZN3r2p9SpinEvent13signal_unsafeEj
 851              		.thumb
 852              		.thumb_func
 853              		.type	_ZN3r2p9SpinEvent13signal_unsafeEj, %function
 854              	_ZN3r2p9SpinEvent13signal_unsafeEj:
 855              	.LFB364:
 856              		.loc 11 49 0
 857              		.cfi_startproc
 858              		@ args = 0, pretend = 0, frame = 8
 859              		@ frame_needed = 0, uses_anonymous_args = 0
 860 0000 00B5     		push	{lr}
 861              		.cfi_def_cfa_offset 4
 862              		.cfi_offset 14, -4
 863 0002 83B0     		sub	sp, sp, #12
 864              		.cfi_def_cfa_offset 16
 865 0004 0190     		str	r0, [sp, #4]
 866 0006 0091     		str	r1, [sp]
 867              		.loc 11 51 0
 868 0008 019B     		ldr	r3, [sp, #4]
 869 000a 1846     		mov	r0, r3
 870 000c 0099     		ldr	r1, [sp]
 871 000e FFF7FEFF 		bl	_ZN3r2p10SpinEvent_13signal_unsafeEj
 872              		.loc 11 52 0
 873 0012 03B0     		add	sp, sp, #12
 874              		.cfi_def_cfa_offset 4
 875              		@ sp needed
 876 0014 5DF804FB 		ldr	pc, [sp], #4
 877              		.cfi_endproc
 878              	.LFE364:
 879              		.size	_ZN3r2p9SpinEvent13signal_unsafeEj, .-_ZN3r2p9SpinEvent13signal_unsafeEj
 880 0018 AFF30080 		.section	.text._ZNK3r2p4Node11get_enabledEv,"axG",%progbits,_ZNK3r2p4Node11get_enabledEv,comdat
 880      AFF30080 
 881              		.align	2
 882              		.p2align 4,,15
 883              		.weak	_ZNK3r2p4Node11get_enabledEv
 884              		.thumb
 885              		.thumb_func
 886              		.type	_ZNK3r2p4Node11get_enabledEv, %function
 887              	_ZNK3r2p4Node11get_enabledEv:
 888              	.LFB381:
ARM GAS  /tmp/ccypRU8x.s 			page 17


 889              		.file 12 "/home/ergae/r2p-sdk/core/Middleware/include/r2p/Node.hpp"
 890              		.loc 12 103 0
 891              		.cfi_startproc
 892              		@ args = 0, pretend = 0, frame = 8
 893              		@ frame_needed = 0, uses_anonymous_args = 0
 894 0000 00B5     		push	{lr}
 895              		.cfi_def_cfa_offset 4
 896              		.cfi_offset 14, -4
 897 0002 83B0     		sub	sp, sp, #12
 898              		.cfi_def_cfa_offset 16
 899 0004 0190     		str	r0, [sp, #4]
 900              		.loc 12 105 0
 901 0006 019B     		ldr	r3, [sp, #4]
 902 0008 0C33     		adds	r3, r3, #12
 903 000a 1846     		mov	r0, r3
 904 000c FFF7FEFF 		bl	_ZNK3r2p9SpinEvent10get_threadEv
 905 0010 0346     		mov	r3, r0
 906 0012 002B     		cmp	r3, #0
 907 0014 14BF     		ite	ne
 908 0016 0123     		movne	r3, #1
 909 0018 0023     		moveq	r3, #0
 910 001a DBB2     		uxtb	r3, r3
 911              		.loc 12 106 0
 912 001c 1846     		mov	r0, r3
 913 001e 03B0     		add	sp, sp, #12
 914              		.cfi_def_cfa_offset 4
 915              		@ sp needed
 916 0020 5DF804FB 		ldr	pc, [sp], #4
 917              		.cfi_endproc
 918              	.LFE381:
 919              		.size	_ZNK3r2p4Node11get_enabledEv, .-_ZNK3r2p4Node11get_enabledEv
 920 0024 AFF30080 		.section	.text._ZN3r2p4Node11set_enabledEb,"axG",%progbits,_ZN3r2p4Node11set_enabledEb,comdat
 920      AFF30080 
 920      AFF30080 
 921              		.align	2
 922              		.p2align 4,,15
 923              		.weak	_ZN3r2p4Node11set_enabledEb
 924              		.thumb
 925              		.thumb_func
 926              		.type	_ZN3r2p4Node11set_enabledEb, %function
 927              	_ZN3r2p4Node11set_enabledEb:
 928              	.LFB382:
 929              		.loc 12 110 0
 930              		.cfi_startproc
 931              		@ args = 0, pretend = 0, frame = 8
 932              		@ frame_needed = 0, uses_anonymous_args = 0
 933 0000 10B5     		push	{r4, lr}
 934              		.cfi_def_cfa_offset 8
 935              		.cfi_offset 4, -8
 936              		.cfi_offset 14, -4
 937 0002 82B0     		sub	sp, sp, #8
 938              		.cfi_def_cfa_offset 16
 939 0004 0190     		str	r0, [sp, #4]
 940 0006 0B46     		mov	r3, r1
 941 0008 8DF80330 		strb	r3, [sp, #3]
 942              		.loc 12 112 0
 943 000c 019B     		ldr	r3, [sp, #4]
ARM GAS  /tmp/ccypRU8x.s 			page 18


 944 000e 03F10C04 		add	r4, r3, #12
 945 0012 9DF80330 		ldrb	r3, [sp, #3]	@ zero_extendqisi2
 946 0016 002B     		cmp	r3, #0
 947 0018 03D0     		beq	.L56
 948              		.loc 12 112 0 is_stmt 0 discriminator 1
 949 001a FFF7FEFF 		bl	_ZN3r2p6Thread4selfEv
 950 001e 0346     		mov	r3, r0
 951 0020 00E0     		b	.L57
 952              	.L56:
 953              		.loc 12 112 0 discriminator 2
 954 0022 0023     		movs	r3, #0
 955              	.L57:
 956              		.loc 12 112 0 discriminator 4
 957 0024 2046     		mov	r0, r4
 958 0026 1946     		mov	r1, r3
 959 0028 FFF7FEFF 		bl	_ZN3r2p9SpinEvent10set_threadEPNS_6ThreadE
 960              		.loc 12 113 0 is_stmt 1 discriminator 4
 961 002c 02B0     		add	sp, sp, #8
 962              		.cfi_def_cfa_offset 8
 963              		@ sp needed
 964 002e 10BD     		pop	{r4, pc}
 965              		.cfi_endproc
 966              	.LFE382:
 967              		.size	_ZN3r2p4Node11set_enabledEb, .-_ZN3r2p4Node11set_enabledEb
 968              		.section	.text._ZN3r2p4Node13notify_unsafeEj,"axG",%progbits,_ZN3r2p4Node13notify_unsafeEj,comdat
 969              		.align	2
 970              		.p2align 4,,15
 971              		.weak	_ZN3r2p4Node13notify_unsafeEj
 972              		.thumb
 973              		.thumb_func
 974              		.type	_ZN3r2p4Node13notify_unsafeEj, %function
 975              	_ZN3r2p4Node13notify_unsafeEj:
 976              	.LFB386:
 977              		.loc 12 140 0
 978              		.cfi_startproc
 979              		@ args = 0, pretend = 0, frame = 8
 980              		@ frame_needed = 0, uses_anonymous_args = 0
 981 0000 00B5     		push	{lr}
 982              		.cfi_def_cfa_offset 4
 983              		.cfi_offset 14, -4
 984 0002 83B0     		sub	sp, sp, #12
 985              		.cfi_def_cfa_offset 16
 986 0004 0190     		str	r0, [sp, #4]
 987 0006 0091     		str	r1, [sp]
 988              		.loc 12 142 0
 989 0008 019B     		ldr	r3, [sp, #4]
 990 000a 0C33     		adds	r3, r3, #12
 991 000c 1846     		mov	r0, r3
 992 000e 0099     		ldr	r1, [sp]
 993 0010 FFF7FEFF 		bl	_ZN3r2p9SpinEvent13signal_unsafeEj
 994              		.loc 12 143 0
 995 0014 03B0     		add	sp, sp, #12
 996              		.cfi_def_cfa_offset 4
 997              		@ sp needed
 998 0016 5DF804FB 		ldr	pc, [sp], #4
 999              		.cfi_endproc
 1000              	.LFE386:
ARM GAS  /tmp/ccypRU8x.s 			page 19


 1001              		.size	_ZN3r2p4Node13notify_unsafeEj, .-_ZN3r2p4Node13notify_unsafeEj
 1002 001a 00BFAFF3 		.section	.text._ZNK3r2p15LocalSubscriber16get_queue_lengthEv,"axG",%progbits,_ZNK3r2p15LocalSubscr
 1002      0080
 1003              		.align	2
 1004              		.p2align 4,,15
 1005              		.weak	_ZNK3r2p15LocalSubscriber16get_queue_lengthEv
 1006              		.thumb
 1007              		.thumb_func
 1008              		.type	_ZNK3r2p15LocalSubscriber16get_queue_lengthEv, %function
 1009              	_ZNK3r2p15LocalSubscriber16get_queue_lengthEv:
 1010              	.LFB392:
 1011              		.file 13 "/home/ergae/r2p-sdk/core/Middleware/include/r2p/LocalSubscriber.hpp"
 1012              		.loc 13 64 0
 1013              		.cfi_startproc
 1014              		@ args = 0, pretend = 0, frame = 8
 1015              		@ frame_needed = 0, uses_anonymous_args = 0
 1016 0000 00B5     		push	{lr}
 1017              		.cfi_def_cfa_offset 4
 1018              		.cfi_offset 14, -4
 1019 0002 83B0     		sub	sp, sp, #12
 1020              		.cfi_def_cfa_offset 16
 1021 0004 0190     		str	r0, [sp, #4]
 1022              		.loc 13 66 0
 1023 0006 019B     		ldr	r3, [sp, #4]
 1024 0008 1033     		adds	r3, r3, #16
 1025 000a 1846     		mov	r0, r3
 1026 000c FFF7FEFF 		bl	_ZNK3r2p10ArrayQueueIPNS_7MessageEE10get_lengthEv
 1027 0010 0346     		mov	r3, r0
 1028              		.loc 13 67 0
 1029 0012 1846     		mov	r0, r3
 1030 0014 03B0     		add	sp, sp, #12
 1031              		.cfi_def_cfa_offset 4
 1032              		@ sp needed
 1033 0016 5DF804FB 		ldr	pc, [sp], #4
 1034              		.cfi_endproc
 1035              	.LFE392:
 1036              		.size	_ZNK3r2p15LocalSubscriber16get_queue_lengthEv, .-_ZNK3r2p15LocalSubscriber16get_queue_length
 1037 001a 00BFAFF3 		.section	.text._ZN3r2p15LocalSubscriber12fetch_unsafeERPNS_7MessageERNS_4TimeE,"axG",%progbits,_ZN
 1037      0080
 1038              		.align	2
 1039              		.p2align 4,,15
 1040              		.weak	_ZN3r2p15LocalSubscriber12fetch_unsafeERPNS_7MessageERNS_4TimeE
 1041              		.thumb
 1042              		.thumb_func
 1043              		.type	_ZN3r2p15LocalSubscriber12fetch_unsafeERPNS_7MessageERNS_4TimeE, %function
 1044              	_ZN3r2p15LocalSubscriber12fetch_unsafeERPNS_7MessageERNS_4TimeE:
 1045              	.LFB393:
 1046              		.loc 13 71 0
 1047              		.cfi_startproc
 1048              		@ args = 0, pretend = 0, frame = 24
 1049              		@ frame_needed = 0, uses_anonymous_args = 0
 1050 0000 00B5     		push	{lr}
 1051              		.cfi_def_cfa_offset 4
 1052              		.cfi_offset 14, -4
 1053 0002 87B0     		sub	sp, sp, #28
 1054              		.cfi_def_cfa_offset 32
 1055 0004 0390     		str	r0, [sp, #12]
ARM GAS  /tmp/ccypRU8x.s 			page 20


 1056 0006 0291     		str	r1, [sp, #8]
 1057 0008 0192     		str	r2, [sp, #4]
 1058              		.loc 13 73 0
 1059 000a 039B     		ldr	r3, [sp, #12]
 1060 000c 1033     		adds	r3, r3, #16
 1061 000e 1846     		mov	r0, r3
 1062 0010 0299     		ldr	r1, [sp, #8]
 1063 0012 FFF7FEFF 		bl	_ZN3r2p10ArrayQueueIPNS_7MessageEE12fetch_unsafeERS2_
 1064 0016 0346     		mov	r3, r0
 1065 0018 002B     		cmp	r3, #0
 1066 001a 0AD0     		beq	.L62
 1067              		.loc 13 74 0
 1068 001c 05AB     		add	r3, sp, #20
 1069 001e 1846     		mov	r0, r3
 1070 0020 FFF7FEFF 		bl	_ZN3r2p4Time3nowEv
 1071 0024 05AB     		add	r3, sp, #20
 1072 0026 0198     		ldr	r0, [sp, #4]
 1073 0028 1946     		mov	r1, r3
 1074 002a FFF7FEFF 		bl	_ZN3r2p4TimeaSERKS0_
 1075              		.loc 13 75 0
 1076 002e 0123     		movs	r3, #1
 1077 0030 00E0     		b	.L63
 1078              	.L62:
 1079              		.loc 13 77 0
 1080 0032 0023     		movs	r3, #0
 1081              	.L63:
 1082              		.loc 13 78 0
 1083 0034 1846     		mov	r0, r3
 1084 0036 07B0     		add	sp, sp, #28
 1085              		.cfi_def_cfa_offset 4
 1086              		@ sp needed
 1087 0038 5DF804FB 		ldr	pc, [sp], #4
 1088              		.cfi_endproc
 1089              	.LFE393:
 1090              		.size	_ZN3r2p15LocalSubscriber12fetch_unsafeERPNS_7MessageERNS_4TimeE, .-_ZN3r2p15LocalSubscriber1
 1091 003c AFF30080 		.section	.text._ZN3r2p15LocalSubscriber13notify_unsafeERNS_7MessageERKNS_4TimeE,"axG",%progbits,_Z
 1092              		.align	2
 1093              		.p2align 4,,15
 1094              		.weak	_ZN3r2p15LocalSubscriber13notify_unsafeERNS_7MessageERKNS_4TimeE
 1095              		.thumb
 1096              		.thumb_func
 1097              		.type	_ZN3r2p15LocalSubscriber13notify_unsafeERNS_7MessageERKNS_4TimeE, %function
 1098              	_ZN3r2p15LocalSubscriber13notify_unsafeERNS_7MessageERKNS_4TimeE:
 1099              	.LFB394:
 1100              		.loc 13 82 0
 1101              		.cfi_startproc
 1102              		@ args = 0, pretend = 0, frame = 16
 1103              		@ frame_needed = 0, uses_anonymous_args = 0
 1104 0000 00B5     		push	{lr}
 1105              		.cfi_def_cfa_offset 4
 1106              		.cfi_offset 14, -4
 1107 0002 85B0     		sub	sp, sp, #20
 1108              		.cfi_def_cfa_offset 24
 1109 0004 0390     		str	r0, [sp, #12]
 1110 0006 0291     		str	r1, [sp, #8]
 1111 0008 0192     		str	r2, [sp, #4]
 1112              		.loc 13 86 0
ARM GAS  /tmp/ccypRU8x.s 			page 21


 1113 000a 039B     		ldr	r3, [sp, #12]
 1114 000c 9B68     		ldr	r3, [r3, #8]
 1115 000e 1846     		mov	r0, r3
 1116 0010 FFF7FEFF 		bl	_ZNK3r2p4Node11get_enabledEv
 1117 0014 0346     		mov	r3, r0
 1118 0016 002B     		cmp	r3, #0
 1119 0018 0AD0     		beq	.L65
 1120              		.loc 13 86 0 is_stmt 0 discriminator 1
 1121 001a 039B     		ldr	r3, [sp, #12]
 1122 001c 1033     		adds	r3, r3, #16
 1123 001e 1846     		mov	r0, r3
 1124 0020 0299     		ldr	r1, [sp, #8]
 1125 0022 FFF7FEFF 		bl	_ZN3r2p10ArrayQueueIPNS_7MessageEE11post_unsafeES2_
 1126 0026 0346     		mov	r3, r0
 1127 0028 002B     		cmp	r3, #0
 1128 002a 01D0     		beq	.L65
 1129              		.loc 13 86 0 discriminator 3
 1130 002c 0123     		movs	r3, #1
 1131 002e 00E0     		b	.L66
 1132              	.L65:
 1133              		.loc 13 86 0 discriminator 4
 1134 0030 0023     		movs	r3, #0
 1135              	.L66:
 1136              		.loc 13 86 0 discriminator 6
 1137 0032 002B     		cmp	r3, #0
 1138 0034 0AD0     		beq	.L67
 1139              		.loc 13 87 0 is_stmt 1
 1140 0036 039B     		ldr	r3, [sp, #12]
 1141 0038 9A68     		ldr	r2, [r3, #8]
 1142 003a 039B     		ldr	r3, [sp, #12]
 1143 003c 93F82430 		ldrb	r3, [r3, #36]	@ zero_extendqisi2
 1144 0040 1046     		mov	r0, r2
 1145 0042 1946     		mov	r1, r3
 1146 0044 FFF7FEFF 		bl	_ZN3r2p4Node13notify_unsafeEj
 1147              		.loc 13 88 0
 1148 0048 0123     		movs	r3, #1
 1149 004a 00E0     		b	.L68
 1150              	.L67:
 1151              		.loc 13 90 0
 1152 004c 0023     		movs	r3, #0
 1153              	.L68:
 1154              		.loc 13 91 0
 1155 004e 1846     		mov	r0, r3
 1156 0050 05B0     		add	sp, sp, #20
 1157              		.cfi_def_cfa_offset 4
 1158              		@ sp needed
 1159 0052 5DF804FB 		ldr	pc, [sp], #4
 1160              		.cfi_endproc
 1161              	.LFE394:
 1162              		.size	_ZN3r2p15LocalSubscriber13notify_unsafeERNS_7MessageERKNS_4TimeE, .-_ZN3r2p15LocalSubscriber
 1163 0056 00BFAFF3 		.section	.text._ZN3r2p5Topic12alloc_unsafeEv,"axG",%progbits,_ZN3r2p5Topic12alloc_unsafeEv,comdat
 1163      0080AFF3 
 1163      0080
 1164              		.align	2
 1165              		.p2align 4,,15
 1166              		.weak	_ZN3r2p5Topic12alloc_unsafeEv
 1167              		.thumb
ARM GAS  /tmp/ccypRU8x.s 			page 22


 1168              		.thumb_func
 1169              		.type	_ZN3r2p5Topic12alloc_unsafeEv, %function
 1170              	_ZN3r2p5Topic12alloc_unsafeEv:
 1171              	.LFB413:
 1172              		.file 14 "/home/ergae/r2p-sdk/core/Middleware/include/r2p/Topic.hpp"
 1173              		.loc 14 250 0
 1174              		.cfi_startproc
 1175              		@ args = 0, pretend = 0, frame = 8
 1176              		@ frame_needed = 0, uses_anonymous_args = 0
 1177 0000 10B5     		push	{r4, lr}
 1178              		.cfi_def_cfa_offset 8
 1179              		.cfi_offset 4, -8
 1180              		.cfi_offset 14, -4
 1181 0002 82B0     		sub	sp, sp, #8
 1182              		.cfi_def_cfa_offset 16
 1183 0004 0190     		str	r0, [sp, #4]
 1184              	.LBB61:
 1185              		.loc 14 252 0
 1186 0006 019B     		ldr	r3, [sp, #4]
 1187 0008 0833     		adds	r3, r3, #8
 1188 000a 1846     		mov	r0, r3
 1189 000c FFF7FEFF 		bl	_ZN3r2p11MemoryPool_12alloc_unsafeEv
 1190 0010 0446     		mov	r4, r0
 1191              		.loc 14 253 0
 1192 0012 002C     		cmp	r4, #0
 1193 0014 04D0     		beq	.L70
 1194              		.loc 14 254 0
 1195 0016 2046     		mov	r0, r4
 1196 0018 FFF7FEFF 		bl	_ZN3r2p7Message12reset_unsafeEv
 1197              		.loc 14 255 0
 1198 001c 2346     		mov	r3, r4
 1199 001e 00E0     		b	.L71
 1200              	.L70:
 1201              		.loc 14 257 0
 1202 0020 0023     		movs	r3, #0
 1203              	.L71:
 1204              	.LBE61:
 1205              		.loc 14 258 0
 1206 0022 1846     		mov	r0, r3
 1207 0024 02B0     		add	sp, sp, #8
 1208              		.cfi_def_cfa_offset 8
 1209              		@ sp needed
 1210 0026 10BD     		pop	{r4, pc}
 1211              		.cfi_endproc
 1212              	.LFE413:
 1213              		.size	_ZN3r2p5Topic12alloc_unsafeEv, .-_ZN3r2p5Topic12alloc_unsafeEv
 1214              		.global	vel_node
 1215 0028 AFF30080 		.section	.bss.vel_node,"aw",%nobits
 1215      AFF30080 
 1216              		.align	2
 1217              		.type	vel_node, %object
 1218              		.size	vel_node, 28
 1219              	vel_node:
 1220 0000 00000000 		.space	28
 1220      00000000 
 1220      00000000 
 1220      00000000 
ARM GAS  /tmp/ccypRU8x.s 			page 23


 1220      00000000 
 1221              		.global	vel_pub
 1222              		.section	.bss.vel_pub,"aw",%nobits
 1223              		.align	2
 1224              		.type	vel_pub, %object
 1225              		.size	vel_pub, 16
 1226              	vel_pub:
 1227 0000 00000000 		.space	16
 1227      00000000 
 1227      00000000 
 1227      00000000 
 1228              		.global	speed_first_time
 1229              		.section	.data.speed_first_time,"aw",%progbits
 1230              		.type	speed_first_time, %object
 1231              		.size	speed_first_time, 1
 1232              	speed_first_time:
 1233 0000 01       		.byte	1
 1234              		.global	pidcfg_node
 1235              		.section	.bss.pidcfg_node,"aw",%nobits
 1236              		.align	2
 1237              		.type	pidcfg_node, %object
 1238              		.size	pidcfg_node, 28
 1239              	pidcfg_node:
 1240 0000 00000000 		.space	28
 1240      00000000 
 1240      00000000 
 1240      00000000 
 1240      00000000 
 1241              		.global	pidcfg_pub
 1242              		.section	.bss.pidcfg_pub,"aw",%nobits
 1243              		.align	2
 1244              		.type	pidcfg_pub, %object
 1245              		.size	pidcfg_pub, 16
 1246              	pidcfg_pub:
 1247 0000 00000000 		.space	16
 1247      00000000 
 1247      00000000 
 1247      00000000 
 1248              		.global	pidcfg_first_time
 1249              		.section	.data.pidcfg_first_time,"aw",%progbits
 1250              		.type	pidcfg_first_time, %object
 1251              		.size	pidcfg_first_time, 1
 1252              	pidcfg_first_time:
 1253 0000 01       		.byte	1
 1254              		.global	pixy_node
 1255              		.section	.bss.pixy_node,"aw",%nobits
 1256              		.align	2
 1257              		.type	pixy_node, %object
 1258              		.size	pixy_node, 28
 1259              	pixy_node:
 1260 0000 00000000 		.space	28
 1260      00000000 
 1260      00000000 
 1260      00000000 
 1260      00000000 
 1261              		.global	pixy_sub
 1262              		.section	.bss.pixy_sub,"aw",%nobits
ARM GAS  /tmp/ccypRU8x.s 			page 24


 1263              		.align	2
 1264              		.type	pixy_sub, %object
 1265              		.size	pixy_sub, 156
 1266              	pixy_sub:
 1267 0000 00000000 		.space	156
 1267      00000000 
 1267      00000000 
 1267      00000000 
 1267      00000000 
 1268              		.global	pixy_first_time
 1269              		.section	.data.pixy_first_time,"aw",%progbits
 1270              		.type	pixy_first_time, %object
 1271              		.size	pixy_first_time, 1
 1272              	pixy_first_time:
 1273 0000 01       		.byte	1
 1274              		.global	proximity_values
 1275              		.section	.bss.proximity_values,"aw",%nobits
 1276              		.align	2
 1277              		.type	proximity_values, %object
 1278              		.size	proximity_values, 32
 1279              	proximity_values:
 1280 0000 00000000 		.space	32
 1280      00000000 
 1280      00000000 
 1280      00000000 
 1280      00000000 
 1281              		.global	proximity_node
 1282              		.section	.bss.proximity_node,"aw",%nobits
 1283              		.align	2
 1284              		.type	proximity_node, %object
 1285              		.size	proximity_node, 28
 1286              	proximity_node:
 1287 0000 00000000 		.space	28
 1287      00000000 
 1287      00000000 
 1287      00000000 
 1287      00000000 
 1288              		.global	proximity_sub
 1289              		.section	.bss.proximity_sub,"aw",%nobits
 1290              		.align	2
 1291              		.type	proximity_sub, %object
 1292              		.size	proximity_sub, 168
 1293              	proximity_sub:
 1294 0000 00000000 		.space	168
 1294      00000000 
 1294      00000000 
 1294      00000000 
 1294      00000000 
 1295              		.global	proxy_first_time
 1296              		.section	.data.proxy_first_time,"aw",%progbits
 1297              		.type	proxy_first_time, %object
 1298              		.size	proxy_first_time, 1
 1299              	proxy_first_time:
 1300 0000 01       		.byte	1
 1301              		.global	serialp
 1302              		.section	.bss.serialp,"aw",%nobits
 1303              		.align	2
ARM GAS  /tmp/ccypRU8x.s 			page 25


 1304              		.type	serialp, %object
 1305              		.size	serialp, 4
 1306              	serialp:
 1307 0000 00000000 		.space	4
 1308              		.global	stream_enc
 1309              		.section	.bss.stream_enc,"aw",%nobits
 1310              		.type	stream_enc, %object
 1311              		.size	stream_enc, 1
 1312              	stream_enc:
 1313 0000 00       		.space	1
 1314              		.section	.text._Z22usb_lld_disconnect_busP9USBDriver,"ax",%progbits
 1315              		.align	2
 1316              		.p2align 4,,15
 1317              		.global	_Z22usb_lld_disconnect_busP9USBDriver
 1318              		.thumb
 1319              		.thumb_func
 1320              		.type	_Z22usb_lld_disconnect_busP9USBDriver, %function
 1321              	_Z22usb_lld_disconnect_busP9USBDriver:
 1322              	.LFB598:
 1323              		.file 15 "nodes/shell_node.cpp"
 1324              		.loc 15 107 0
 1325              		.cfi_startproc
 1326              		@ args = 0, pretend = 0, frame = 8
 1327              		@ frame_needed = 0, uses_anonymous_args = 0
 1328 0000 00B5     		push	{lr}
 1329              		.cfi_def_cfa_offset 4
 1330              		.cfi_offset 14, -4
 1331 0002 83B0     		sub	sp, sp, #12
 1332              		.cfi_def_cfa_offset 16
 1333 0004 0190     		str	r0, [sp, #4]
 1334              		.loc 15 110 0
 1335 0006 4FF09043 		mov	r3, #1207959552
 1336 000a 4FF4C052 		mov	r2, #6144
 1337 000e 5A83     		strh	r2, [r3, #26]	@ movhi
 1338              		.loc 15 111 0
 1339 0010 4FF09040 		mov	r0, #1207959552
 1340 0014 4FF40061 		mov	r1, #2048
 1341 0018 0122     		movs	r2, #1
 1342 001a FFF7FEFF 		bl	_pal_lld_setgroupmode
 1343              		.loc 15 112 0
 1344 001e 4FF09040 		mov	r0, #1207959552
 1345 0022 4FF48051 		mov	r1, #4096
 1346 0026 0122     		movs	r2, #1
 1347 0028 FFF7FEFF 		bl	_pal_lld_setgroupmode
 1348              		.loc 15 113 0
 1349 002c 03B0     		add	sp, sp, #12
 1350              		.cfi_def_cfa_offset 4
 1351              		@ sp needed
 1352 002e 5DF804FB 		ldr	pc, [sp], #4
 1353              		.cfi_endproc
 1354              	.LFE598:
 1355              		.size	_Z22usb_lld_disconnect_busP9USBDriver, .-_Z22usb_lld_disconnect_busP9USBDriver
 1356 0032 00BFAFF3 		.section	.text._Z19usb_lld_connect_busP9USBDriver,"ax",%progbits
 1356      0080AFF3 
 1356      0080AFF3 
 1356      0080
 1357              		.align	2
ARM GAS  /tmp/ccypRU8x.s 			page 26


 1358              		.p2align 4,,15
 1359              		.global	_Z19usb_lld_connect_busP9USBDriver
 1360              		.thumb
 1361              		.thumb_func
 1362              		.type	_Z19usb_lld_connect_busP9USBDriver, %function
 1363              	_Z19usb_lld_connect_busP9USBDriver:
 1364              	.LFB599:
 1365              		.loc 15 115 0
 1366              		.cfi_startproc
 1367              		@ args = 0, pretend = 0, frame = 8
 1368              		@ frame_needed = 0, uses_anonymous_args = 0
 1369 0000 00B5     		push	{lr}
 1370              		.cfi_def_cfa_offset 4
 1371              		.cfi_offset 14, -4
 1372 0002 83B0     		sub	sp, sp, #12
 1373              		.cfi_def_cfa_offset 16
 1374 0004 0190     		str	r0, [sp, #4]
 1375              		.loc 15 118 0
 1376 0006 4FF09043 		mov	r3, #1207959552
 1377 000a 4FF4C052 		mov	r2, #6144
 1378 000e 5A83     		strh	r2, [r3, #26]	@ movhi
 1379              		.loc 15 119 0
 1380 0010 4FF09040 		mov	r0, #1207959552
 1381 0014 4FF40061 		mov	r1, #2048
 1382 0018 40F20272 		movw	r2, #1794
 1383 001c FFF7FEFF 		bl	_pal_lld_setgroupmode
 1384              		.loc 15 120 0
 1385 0020 4FF09040 		mov	r0, #1207959552
 1386 0024 4FF48051 		mov	r1, #4096
 1387 0028 40F20272 		movw	r2, #1794
 1388 002c FFF7FEFF 		bl	_pal_lld_setgroupmode
 1389              		.loc 15 121 0
 1390 0030 03B0     		add	sp, sp, #12
 1391              		.cfi_def_cfa_offset 4
 1392              		@ sp needed
 1393 0032 5DF804FB 		ldr	pc, [sp], #4
 1394              		.cfi_endproc
 1395              	.LFE599:
 1396              		.size	_Z19usb_lld_connect_busP9USBDriver, .-_Z19usb_lld_connect_busP9USBDriver
 1397 0036 00BFAFF3 		.section	.rodata
 1397      0080AFF3 
 1397      0080
 1398 000d 000000   		.align	2
 1399              	.LC1:
 1400 0010 55736167 		.ascii	"Usage: run <forward> <strafe> <angular>\015\012\000"
 1400      653A2072 
 1400      756E203C 
 1400      666F7277 
 1400      6172643E 
 1401 003a 0000     		.align	2
 1402              	.LC2:
 1403 003c 73706565 		.ascii	"speed3\000"
 1403      643300
 1404              		.global	__aeabi_d2f
 1405              		.global	__aeabi_f2d
 1406 0043 00       		.align	2
 1407              	.LC3:
ARM GAS  /tmp/ccypRU8x.s 			page 27


 1408 0044 53455450 		.ascii	"SETPOINT: %f %f %f\015\012\000"
 1408      4F494E54 
 1408      3A202566 
 1408      20256620 
 1408      25660D0A 
 1409              		.section	.text._ZL7cmd_runP20BaseSequentialStreamiPPc,"ax",%progbits
 1410              		.align	2
 1411              		.p2align 4,,15
 1412              		.thumb
 1413              		.thumb_func
 1414              		.type	_ZL7cmd_runP20BaseSequentialStreamiPPc, %function
 1415              	_ZL7cmd_runP20BaseSequentialStreamiPPc:
 1416              	.LFB600:
 1417              		.loc 15 129 0
 1418              		.cfi_startproc
 1419              		@ args = 0, pretend = 0, frame = 56
 1420              		@ frame_needed = 0, uses_anonymous_args = 0
 1421 0000 F0B5     		push	{r4, r5, r6, r7, lr}
 1422              		.cfi_def_cfa_offset 20
 1423              		.cfi_offset 4, -20
 1424              		.cfi_offset 5, -16
 1425              		.cfi_offset 6, -12
 1426              		.cfi_offset 7, -8
 1427              		.cfi_offset 14, -4
 1428 0002 93B0     		sub	sp, sp, #76
 1429              		.cfi_def_cfa_offset 96
 1430 0004 0790     		str	r0, [sp, #28]
 1431 0006 0691     		str	r1, [sp, #24]
 1432 0008 0592     		str	r2, [sp, #20]
 1433              	.LBB62:
 1434              		.loc 15 134 0
 1435 000a 069B     		ldr	r3, [sp, #24]
 1436 000c 032B     		cmp	r3, #3
 1437 000e 04D0     		beq	.L75
 1438              		.loc 15 135 0
 1439 0010 0798     		ldr	r0, [sp, #28]
 1440 0012 7C49     		ldr	r1, .L79
 1441 0014 FFF7FEFF 		bl	_ZL8chprintfP20BaseSequentialStreamPKcz
 1442 0018 F1E0     		b	.L74
 1443              	.L75:
 1444              		.loc 15 139 0
 1445 001a 7B48     		ldr	r0, .L79+4
 1446 001c 0121     		movs	r1, #1
 1447 001e FFF7FEFF 		bl	_ZN3r2p4Node11set_enabledEb
 1448              		.loc 15 141 0
 1449 0022 7A4B     		ldr	r3, .L79+8
 1450 0024 1B78     		ldrb	r3, [r3]	@ zero_extendqisi2
 1451 0026 002B     		cmp	r3, #0
 1452 0028 08D0     		beq	.L77
 1453              		.loc 15 142 0
 1454 002a 7748     		ldr	r0, .L79+4
 1455 002c 7849     		ldr	r1, .L79+12
 1456 002e 794A     		ldr	r2, .L79+16
 1457 0030 794B     		ldr	r3, .L79+20
 1458 0032 FFF7FEFF 		bl	_ZN3r2p4Node9advertiseINS_9Speed3MsgEEEbRNS_9PublisherIT_EEPKcRKNS_4TimeE
 1459              		.loc 15 143 0
 1460 0036 754B     		ldr	r3, .L79+8
ARM GAS  /tmp/ccypRU8x.s 			page 28


 1461 0038 0022     		movs	r2, #0
 1462 003a 1A70     		strb	r2, [r3]
 1463              	.L77:
 1464              		.loc 15 146 0
 1465 003c 059B     		ldr	r3, [sp, #20]
 1466 003e 1B68     		ldr	r3, [r3]
 1467 0040 1846     		mov	r0, r3
 1468 0042 FFF7FEFF 		bl	atof
 1469 0046 53EC102B 		fmrrd	r2, r3, d0
 1470 004a 1046     		mov	r0, r2
 1471 004c 1946     		mov	r1, r3
 1472 004e FFF7FEFF 		bl	__aeabi_d2f
 1473 0052 0346     		mov	r3, r0	@ float
 1474 0054 1193     		str	r3, [sp, #68]	@ float
 1475              		.loc 15 147 0
 1476 0056 059B     		ldr	r3, [sp, #20]
 1477 0058 0433     		adds	r3, r3, #4
 1478 005a 1B68     		ldr	r3, [r3]
 1479 005c 1846     		mov	r0, r3
 1480 005e FFF7FEFF 		bl	atof
 1481 0062 53EC102B 		fmrrd	r2, r3, d0
 1482 0066 1046     		mov	r0, r2
 1483 0068 1946     		mov	r1, r3
 1484 006a FFF7FEFF 		bl	__aeabi_d2f
 1485 006e 0346     		mov	r3, r0	@ float
 1486 0070 1093     		str	r3, [sp, #64]	@ float
 1487              		.loc 15 148 0
 1488 0072 059B     		ldr	r3, [sp, #20]
 1489 0074 0833     		adds	r3, r3, #8
 1490 0076 1B68     		ldr	r3, [r3]
 1491 0078 1846     		mov	r0, r3
 1492 007a FFF7FEFF 		bl	atof
 1493 007e 53EC102B 		fmrrd	r2, r3, d0
 1494 0082 1046     		mov	r0, r2
 1495 0084 1946     		mov	r1, r3
 1496 0086 FFF7FEFF 		bl	__aeabi_d2f
 1497 008a 0346     		mov	r3, r0	@ float
 1498 008c 0F93     		str	r3, [sp, #60]	@ float
 1499              		.loc 15 151 0
 1500 008e DDED0F7A 		flds	s15, [sp, #60]
 1501 0092 9FED627A 		flds	s14, .L79+24
 1502 0096 67EE877A 		fmuls	s15, s15, s14
 1503 009a CDED0E7A 		fsts	s15, [sp, #56]
 1504              		.loc 15 152 0
 1505 009e DDED107A 		flds	s15, [sp, #64]
 1506 00a2 9FED5F7A 		flds	s14, .L79+28
 1507 00a6 67EE877A 		fmuls	s15, s15, s14
 1508 00aa CDED0D7A 		fsts	s15, [sp, #52]
 1509              		.loc 15 153 0
 1510 00ae DDED117A 		flds	s15, [sp, #68]
 1511 00b2 9FED5C7A 		flds	s14, .L79+32
 1512 00b6 67EE877A 		fmuls	s15, s15, s14
 1513 00ba CDED0C7A 		fsts	s15, [sp, #48]
 1514              		.loc 15 155 0
 1515 00be 9DED0D7A 		flds	s14, [sp, #52]
 1516 00c2 DDED0C7A 		flds	s15, [sp, #48]
 1517 00c6 37EE677A 		fsubs	s14, s14, s15
ARM GAS  /tmp/ccypRU8x.s 			page 29


 1518 00ca DDED0E7A 		flds	s15, [sp, #56]
 1519 00ce 77EE277A 		fadds	s15, s14, s15
 1520 00d2 CDED0B7A 		fsts	s15, [sp, #44]
 1521              		.loc 15 156 0
 1522 00d6 9DED0D7A 		flds	s14, [sp, #52]
 1523 00da DDED0C7A 		flds	s15, [sp, #48]
 1524 00de 37EE277A 		fadds	s14, s14, s15
 1525 00e2 DDED0E7A 		flds	s15, [sp, #56]
 1526 00e6 77EE277A 		fadds	s15, s14, s15
 1527 00ea CDED0A7A 		fsts	s15, [sp, #40]
 1528              		.loc 15 157 0
 1529 00ee DDED107A 		flds	s15, [sp, #64]
 1530 00f2 9FED4D7A 		flds	s14, .L79+36
 1531 00f6 27EE877A 		fmuls	s14, s15, s14
 1532 00fa DDED0E7A 		flds	s15, [sp, #56]
 1533 00fe 77EE277A 		fadds	s15, s14, s15
 1534 0102 CDED097A 		fsts	s15, [sp, #36]
 1535              		.loc 15 160 0
 1536 0106 08AB     		add	r3, sp, #32
 1537 0108 4148     		ldr	r0, .L79+12
 1538 010a 1946     		mov	r1, r3
 1539 010c FFF7FEFF 		bl	_ZN3r2p9PublisherINS_9Speed3MsgEE5allocERPS1_
 1540 0110 0346     		mov	r3, r0
 1541 0112 002B     		cmp	r3, #0
 1542 0114 56D0     		beq	.L78
 1543              		.loc 15 161 0
 1544 0116 089C     		ldr	r4, [sp, #32]
 1545 0118 9FED440A 		flds	s0, .L79+40
 1546 011c DDED0B0A 		flds	s1, [sp, #44]
 1547 0120 9FED431A 		flds	s2, .L79+44
 1548 0124 FFF7FEFF 		bl	_Z5clampIfET_S0_S0_S0_
 1549 0128 F0EE407A 		fcpys	s15, s0
 1550 012c FDEEE77A 		ftosizs	s15, s15
 1551 0130 CDED047A 		fsts	s15, [sp, #16]	@ int
 1552 0134 BDF81030 		ldrh	r3, [sp, #16]	@ movhi
 1553 0138 9BB2     		uxth	r3, r3
 1554 013a 1BB2     		sxth	r3, r3
 1555 013c 07EE903A 		fmsr	s15, r3	@ int
 1556 0140 F8EEE77A 		fsitos	s15, s15
 1557 0144 A31C     		adds	r3, r4, #2
 1558 0146 17EE902A 		fmrs	r2, s15
 1559 014a 1A60     		str	r2, [r3]	@ unaligned
 1560              		.loc 15 162 0
 1561 014c 089C     		ldr	r4, [sp, #32]
 1562 014e 9FED370A 		flds	s0, .L79+40
 1563 0152 DDED0A0A 		flds	s1, [sp, #40]
 1564 0156 9FED361A 		flds	s2, .L79+44
 1565 015a FFF7FEFF 		bl	_Z5clampIfET_S0_S0_S0_
 1566 015e F0EE407A 		fcpys	s15, s0
 1567 0162 FDEEE77A 		ftosizs	s15, s15
 1568 0166 CDED047A 		fsts	s15, [sp, #16]	@ int
 1569 016a BDF81030 		ldrh	r3, [sp, #16]	@ movhi
 1570 016e 9BB2     		uxth	r3, r3
 1571 0170 1BB2     		sxth	r3, r3
 1572 0172 07EE903A 		fmsr	s15, r3	@ int
 1573 0176 F8EEE77A 		fsitos	s15, s15
 1574 017a A31D     		adds	r3, r4, #6
ARM GAS  /tmp/ccypRU8x.s 			page 30


 1575 017c 17EE902A 		fmrs	r2, s15
 1576 0180 1A60     		str	r2, [r3]	@ unaligned
 1577              		.loc 15 163 0
 1578 0182 089C     		ldr	r4, [sp, #32]
 1579 0184 9FED290A 		flds	s0, .L79+40
 1580 0188 DDED090A 		flds	s1, [sp, #36]
 1581 018c 9FED281A 		flds	s2, .L79+44
 1582 0190 FFF7FEFF 		bl	_Z5clampIfET_S0_S0_S0_
 1583 0194 F0EE407A 		fcpys	s15, s0
 1584 0198 FDEEE77A 		ftosizs	s15, s15
 1585 019c CDED047A 		fsts	s15, [sp, #16]	@ int
 1586 01a0 BDF81030 		ldrh	r3, [sp, #16]	@ movhi
 1587 01a4 9BB2     		uxth	r3, r3
 1588 01a6 1BB2     		sxth	r3, r3
 1589 01a8 07EE903A 		fmsr	s15, r3	@ int
 1590 01ac F8EEE77A 		fsitos	s15, s15
 1591 01b0 04F10A03 		add	r3, r4, #10
 1592 01b4 17EE902A 		fmrs	r2, s15
 1593 01b8 1A60     		str	r2, [r3]	@ unaligned
 1594              		.loc 15 164 0
 1595 01ba 089B     		ldr	r3, [sp, #32]
 1596 01bc 1448     		ldr	r0, .L79+12
 1597 01be 1946     		mov	r1, r3
 1598 01c0 FFF7FEFF 		bl	_ZN3r2p9PublisherINS_9Speed3MsgEE7publishERS1_
 1599              	.L78:
 1600              		.loc 15 167 0
 1601 01c4 0B98     		ldr	r0, [sp, #44]	@ float
 1602 01c6 FFF7FEFF 		bl	__aeabi_f2d
 1603 01ca 0646     		mov	r6, r0
 1604 01cc 0F46     		mov	r7, r1
 1605 01ce 0A98     		ldr	r0, [sp, #40]	@ float
 1606 01d0 FFF7FEFF 		bl	__aeabi_f2d
 1607 01d4 0446     		mov	r4, r0
 1608 01d6 0D46     		mov	r5, r1
 1609 01d8 0998     		ldr	r0, [sp, #36]	@ float
 1610 01da FFF7FEFF 		bl	__aeabi_f2d
 1611 01de 0246     		mov	r2, r0
 1612 01e0 0B46     		mov	r3, r1
 1613 01e2 CDE90045 		strd	r4, [sp]
 1614 01e6 CDE90223 		strd	r2, [sp, #8]
 1615 01ea 0798     		ldr	r0, [sp, #28]
 1616 01ec 1149     		ldr	r1, .L79+48
 1617 01ee 3246     		mov	r2, r6
 1618 01f0 3B46     		mov	r3, r7
 1619 01f2 FFF7FEFF 		bl	_ZL8chprintfP20BaseSequentialStreamPKcz
 1620              		.loc 15 169 0
 1621 01f6 0448     		ldr	r0, .L79+4
 1622 01f8 0021     		movs	r1, #0
 1623 01fa FFF7FEFF 		bl	_ZN3r2p4Node11set_enabledEb
 1624              	.L74:
 1625              	.LBE62:
 1626              		.loc 15 170 0
 1627 01fe 13B0     		add	sp, sp, #76
 1628              		.cfi_def_cfa_offset 20
 1629              		@ sp needed
 1630 0200 F0BD     		pop	{r4, r5, r6, r7, pc}
 1631              	.L80:
ARM GAS  /tmp/ccypRU8x.s 			page 31


 1632 0202 00BF     		.align	2
 1633              	.L79:
 1634 0204 10000000 		.word	.LC1
 1635 0208 00000000 		.word	vel_node
 1636 020c 00000000 		.word	speed_first_time
 1637 0210 00000000 		.word	vel_pub
 1638 0214 3C000000 		.word	.LC2
 1639 0218 00000000 		.word	_ZN3r2p4Time8INFINITEE
 1640 021c 244992C0 		.word	-1064154844
 1641 0220 49926441 		.word	1097110089
 1642 0224 DBF2C541 		.word	1103491803
 1643 0228 4992E4C1 		.word	-1041984951
 1644 022c 000050C2 		.word	-1034944512
 1645 0230 00005042 		.word	1112539136
 1646 0234 44000000 		.word	.LC3
 1647              		.cfi_endproc
 1648              	.LFE600:
 1649              		.size	_ZL7cmd_runP20BaseSequentialStreamiPPc, .-_ZL7cmd_runP20BaseSequentialStreamiPPc
 1650 0238 AFF30080 		.section	.rodata
 1650      AFF30080 
 1651 0059 000000   		.align	2
 1652              	.LC4:
 1653 005c 25642073 		.ascii	"%d second to explosion\012\000"
 1653      65636F6E 
 1653      6420746F 
 1653      20657870 
 1653      6C6F7369 
 1654              		.align	2
 1655              	.LC5:
 1656 0074 424F4F4F 		.ascii	"BOOOOOOM\012\000"
 1656      4F4F4F4D 
 1656      0A00
 1657 007e 0000     		.align	2
 1658              	.LC6:
 1659 0080 70697879 		.ascii	"pixy\000"
 1659      00
 1660 0085 000000   		.align	2
 1661              	.LC7:
 1662 0088 48656967 		.ascii	"Height: %d \012\000"
 1662      68743A20 
 1662      2564200A 
 1662      00
 1663 0095 000000   		.align	2
 1664              	.LC8:
 1665 0098 526F7461 		.ascii	"Rotating Right\012\000"
 1665      74696E67 
 1665      20526967 
 1665      68740A00 
 1666              		.align	2
 1667              	.LC9:
 1668 00a8 526F7461 		.ascii	"Rotating Left\012\000"
 1668      74696E67 
 1668      204C6566 
 1668      740A00
 1669 00b7 00       		.align	2
 1670              	.LC10:
 1671 00b8 476F696E 		.ascii	"Going Ahead\012\000"
ARM GAS  /tmp/ccypRU8x.s 			page 32


 1671      67204168 
 1671      6561640A 
 1671      00
 1672 00c5 000000   		.align	2
 1673              	.LC11:
 1674 00c8 4F626A65 		.ascii	"Object Found\012\000"
 1674      63742046 
 1674      6F756E64 
 1674      0A00
 1675 00d6 0000     		.align	2
 1676              	.LC12:
 1677 00d8 4F626A65 		.ascii	"Object Centered\012\000"
 1677      63742043 
 1677      656E7465 
 1677      7265640A 
 1677      00
 1678 00e9 000000   		.align	2
 1679              	.LC13:
 1680 00ec 53656172 		.ascii	"Searching\012\000"
 1680      6368696E 
 1680      670A00
 1681              		.section	.text._ZL10cmd_followP20BaseSequentialStreamiPPc,"ax",%progbits
 1682              		.align	2
 1683              		.p2align 4,,15
 1684              		.thumb
 1685              		.thumb_func
 1686              		.type	_ZL10cmd_followP20BaseSequentialStreamiPPc, %function
 1687              	_ZL10cmd_followP20BaseSequentialStreamiPPc:
 1688              	.LFB601:
 1689              		.loc 15 172 0
 1690              		.cfi_startproc
 1691              		@ args = 0, pretend = 0, frame = 80
 1692              		@ frame_needed = 0, uses_anonymous_args = 0
 1693 0000 10B5     		push	{r4, lr}
 1694              		.cfi_def_cfa_offset 8
 1695              		.cfi_offset 4, -8
 1696              		.cfi_offset 14, -4
 1697 0002 94B0     		sub	sp, sp, #80
 1698              		.cfi_def_cfa_offset 88
 1699 0004 0390     		str	r0, [sp, #12]
 1700 0006 0291     		str	r1, [sp, #8]
 1701 0008 0192     		str	r2, [sp, #4]
 1702              	.LBB63:
 1703              	.LBB64:
 1704              		.loc 15 175 0
 1705 000a 0A23     		movs	r3, #10
 1706 000c 1393     		str	r3, [sp, #76]
 1707 000e 11E0     		b	.L82
 1708              	.L83:
 1709              		.loc 15 177 0 discriminator 3
 1710 0010 0398     		ldr	r0, [sp, #12]
 1711 0012 7D49     		ldr	r1, .L103
 1712 0014 139A     		ldr	r2, [sp, #76]
 1713 0016 FFF7FEFF 		bl	_ZL8chprintfP20BaseSequentialStreamPKcz
 1714              		.loc 15 178 0 discriminator 3
 1715 001a 06AB     		add	r3, sp, #24
 1716 001c 1846     		mov	r0, r3
ARM GAS  /tmp/ccypRU8x.s 			page 33


 1717 001e 4FF47A71 		mov	r1, #1000
 1718 0022 FFF7FEFF 		bl	_ZN3r2p4Time2msEl
 1719 0026 06AB     		add	r3, sp, #24
 1720 0028 1846     		mov	r0, r3
 1721 002a FFF7FEFF 		bl	_ZN3r2p6Thread5sleepERKNS_4TimeE
 1722              		.loc 15 175 0 discriminator 3
 1723 002e 139B     		ldr	r3, [sp, #76]
 1724 0030 013B     		subs	r3, r3, #1
 1725 0032 1393     		str	r3, [sp, #76]
 1726              	.L82:
 1727              		.loc 15 175 0 is_stmt 0 discriminator 1
 1728 0034 139B     		ldr	r3, [sp, #76]
 1729 0036 002B     		cmp	r3, #0
 1730 0038 EADC     		bgt	.L83
 1731              	.LBE64:
 1732              		.loc 15 180 0 is_stmt 1
 1733 003a 0398     		ldr	r0, [sp, #12]
 1734 003c 7349     		ldr	r1, .L103+4
 1735 003e FFF7FEFF 		bl	_ZL8chprintfP20BaseSequentialStreamPKcz
 1736              		.loc 15 183 0
 1737 0042 734B     		ldr	r3, .L103+8
 1738 0044 1B78     		ldrb	r3, [r3]	@ zero_extendqisi2
 1739 0046 002B     		cmp	r3, #0
 1740 0048 07D0     		beq	.L84
 1741              		.loc 15 184 0
 1742 004a 7248     		ldr	r0, .L103+12
 1743 004c 7249     		ldr	r1, .L103+16
 1744 004e 734A     		ldr	r2, .L103+20
 1745 0050 FFF7FEFF 		bl	_ZN3r2p4Node9subscribeINS_7PixyMsgELj5EEEbRNS_10SubscriberIT_XT0_EEEPKc
 1746              		.loc 15 185 0
 1747 0054 6E4B     		ldr	r3, .L103+8
 1748 0056 0022     		movs	r2, #0
 1749 0058 1A70     		strb	r2, [r3]
 1750              	.L84:
 1751              		.loc 15 187 0
 1752 005a 6E48     		ldr	r0, .L103+12
 1753 005c 0121     		movs	r1, #1
 1754 005e FFF7FEFF 		bl	_ZN3r2p4Node11set_enabledEb
 1755              		.loc 15 191 0
 1756 0062 6F48     		ldr	r0, .L103+24
 1757 0064 0121     		movs	r1, #1
 1758 0066 FFF7FEFF 		bl	_ZN3r2p4Node11set_enabledEb
 1759              		.loc 15 193 0
 1760 006a 6E4B     		ldr	r3, .L103+28
 1761 006c 1B78     		ldrb	r3, [r3]	@ zero_extendqisi2
 1762 006e 002B     		cmp	r3, #0
 1763 0070 08D0     		beq	.L85
 1764              		.loc 15 194 0
 1765 0072 6B48     		ldr	r0, .L103+24
 1766 0074 6C49     		ldr	r1, .L103+32
 1767 0076 6D4A     		ldr	r2, .L103+36
 1768 0078 6D4B     		ldr	r3, .L103+40
 1769 007a FFF7FEFF 		bl	_ZN3r2p4Node9advertiseINS_9Speed3MsgEEEbRNS_9PublisherIT_EEPKcRKNS_4TimeE
 1770              		.loc 15 195 0
 1771 007e 694B     		ldr	r3, .L103+28
 1772 0080 0022     		movs	r2, #0
 1773 0082 1A70     		strb	r2, [r3]
ARM GAS  /tmp/ccypRU8x.s 			page 34


 1774              	.L85:
 1775              		.loc 15 197 0
 1776 0084 4FF00003 		mov	r3, #0
 1777 0088 1293     		str	r3, [sp, #72]	@ float
 1778              		.loc 15 198 0
 1779 008a 4FF00003 		mov	r3, #0
 1780 008e 1193     		str	r3, [sp, #68]	@ float
 1781              		.loc 15 199 0
 1782 0090 4FF00003 		mov	r3, #0
 1783 0094 1093     		str	r3, [sp, #64]	@ float
 1784              	.L102:
 1785              	.LBB65:
 1786              	.LBB66:
 1787              		.loc 15 202 0
 1788 0096 4FF00003 		mov	r3, #0
 1789 009a 1293     		str	r3, [sp, #72]	@ float
 1790              		.loc 15 203 0
 1791 009c 4FF00003 		mov	r3, #0
 1792 00a0 1193     		str	r3, [sp, #68]	@ float
 1793              		.loc 15 204 0
 1794 00a2 4FF00003 		mov	r3, #0
 1795 00a6 1093     		str	r3, [sp, #64]	@ float
 1796              		.loc 15 205 0
 1797 00a8 0023     		movs	r3, #0
 1798 00aa 0F93     		str	r3, [sp, #60]
 1799              		.loc 15 206 0
 1800 00ac 0BE0     		b	.L86
 1801              	.L89:
 1802              		.loc 15 207 0
 1803 00ae 07AB     		add	r3, sp, #28
 1804 00b0 1846     		mov	r0, r3
 1805 00b2 0521     		movs	r1, #5
 1806 00b4 FFF7FEFF 		bl	_ZN3r2p4Time2msEl
 1807 00b8 07AB     		add	r3, sp, #28
 1808 00ba 1846     		mov	r0, r3
 1809 00bc FFF7FEFF 		bl	_ZN3r2p6Thread5sleepERKNS_4TimeE
 1810              		.loc 15 208 0
 1811 00c0 0F9B     		ldr	r3, [sp, #60]
 1812 00c2 0133     		adds	r3, r3, #1
 1813 00c4 0F93     		str	r3, [sp, #60]
 1814              	.L86:
 1815              		.loc 15 206 0
 1816 00c6 05AB     		add	r3, sp, #20
 1817 00c8 5348     		ldr	r0, .L103+16
 1818 00ca 1946     		mov	r1, r3
 1819 00cc FFF7FEFF 		bl	_ZN3r2p16SubscriberExtBufINS_7PixyMsgEE5fetchERPS1_
 1820 00d0 0346     		mov	r3, r0
 1821 00d2 83F00103 		eor	r3, r3, #1
 1822 00d6 DBB2     		uxtb	r3, r3
 1823 00d8 002B     		cmp	r3, #0
 1824 00da 05D0     		beq	.L87
 1825              		.loc 15 206 0 is_stmt 0 discriminator 1
 1826 00dc 0F9B     		ldr	r3, [sp, #60]
 1827 00de B3F57A7F 		cmp	r3, #1000
 1828 00e2 01DA     		bge	.L87
 1829              		.loc 15 206 0 discriminator 3
 1830 00e4 0123     		movs	r3, #1
ARM GAS  /tmp/ccypRU8x.s 			page 35


 1831 00e6 00E0     		b	.L88
 1832              	.L87:
 1833              		.loc 15 206 0 discriminator 4
 1834 00e8 0023     		movs	r3, #0
 1835              	.L88:
 1836              		.loc 15 206 0 discriminator 6
 1837 00ea 002B     		cmp	r3, #0
 1838 00ec DFD1     		bne	.L89
 1839              	.LBB67:
 1840              		.loc 15 211 0 is_stmt 1
 1841 00ee 0F9B     		ldr	r3, [sp, #60]
 1842 00f0 B3F57A7F 		cmp	r3, #1000
 1843 00f4 80F2B080 		bge	.L90
 1844              	.LBB68:
 1845              	.LBB69:
 1846              		.loc 15 212 0
 1847 00f8 0023     		movs	r3, #0
 1848 00fa 0E93     		str	r3, [sp, #56]
 1849 00fc 0CE0     		b	.L91
 1850              	.L92:
 1851              		.loc 15 213 0 discriminator 3
 1852 00fe 059B     		ldr	r3, [sp, #20]
 1853 0100 4548     		ldr	r0, .L103+16
 1854 0102 1946     		mov	r1, r3
 1855 0104 FFF7FEFF 		bl	_ZN3r2p16SubscriberExtBufINS_7PixyMsgEE7releaseERS1_
 1856              		.loc 15 214 0 discriminator 3
 1857 0108 05AB     		add	r3, sp, #20
 1858 010a 4348     		ldr	r0, .L103+16
 1859 010c 1946     		mov	r1, r3
 1860 010e FFF7FEFF 		bl	_ZN3r2p16SubscriberExtBufINS_7PixyMsgEE5fetchERPS1_
 1861              		.loc 15 212 0 discriminator 3
 1862 0112 0E9B     		ldr	r3, [sp, #56]
 1863 0114 0133     		adds	r3, r3, #1
 1864 0116 0E93     		str	r3, [sp, #56]
 1865              	.L91:
 1866              		.loc 15 212 0 is_stmt 0 discriminator 1
 1867 0118 0E9B     		ldr	r3, [sp, #56]
 1868 011a 032B     		cmp	r3, #3
 1869 011c EFDD     		ble	.L92
 1870              	.LBE69:
 1871              		.loc 15 216 0 is_stmt 1
 1872 011e 059B     		ldr	r3, [sp, #20]
 1873 0120 9B89     		ldrh	r3, [r3, #12]	@ unaligned
 1874 0122 9BB2     		uxth	r3, r3
 1875 0124 0398     		ldr	r0, [sp, #12]
 1876 0126 4349     		ldr	r1, .L103+44
 1877 0128 1A46     		mov	r2, r3
 1878 012a FFF7FEFF 		bl	_ZL8chprintfP20BaseSequentialStreamPKcz
 1879              		.loc 15 217 0
 1880 012e 059B     		ldr	r3, [sp, #20]
 1881 0130 9B89     		ldrh	r3, [r3, #12]	@ unaligned
 1882 0132 9BB2     		uxth	r3, r3
 1883 0134 632B     		cmp	r3, #99
 1884 0136 2ED8     		bhi	.L93
 1885              		.loc 15 218 0
 1886 0138 059B     		ldr	r3, [sp, #20]
 1887 013a DB88     		ldrh	r3, [r3, #6]	@ unaligned
ARM GAS  /tmp/ccypRU8x.s 			page 36


 1888 013c 9BB2     		uxth	r3, r3
 1889 013e C82B     		cmp	r3, #200
 1890 0140 0BD9     		bls	.L94
 1891              		.loc 15 219 0
 1892 0142 0398     		ldr	r0, [sp, #12]
 1893 0144 3C49     		ldr	r1, .L103+48
 1894 0146 FFF7FEFF 		bl	_ZL8chprintfP20BaseSequentialStreamPKcz
 1895              		.loc 15 220 0
 1896 014a 3C4B     		ldr	r3, .L103+52
 1897 014c 1293     		str	r3, [sp, #72]	@ float
 1898              		.loc 15 221 0
 1899 014e 4FF00003 		mov	r3, #0
 1900 0152 1193     		str	r3, [sp, #68]	@ float
 1901              		.loc 15 222 0
 1902 0154 3A4B     		ldr	r3, .L103+56
 1903 0156 1093     		str	r3, [sp, #64]	@ float
 1904 0158 50E0     		b	.L97
 1905              	.L94:
 1906              		.loc 15 223 0
 1907 015a 059B     		ldr	r3, [sp, #20]
 1908 015c DB88     		ldrh	r3, [r3, #6]	@ unaligned
 1909 015e 9BB2     		uxth	r3, r3
 1910 0160 772B     		cmp	r3, #119
 1911 0162 0BD8     		bhi	.L96
 1912              		.loc 15 224 0
 1913 0164 0398     		ldr	r0, [sp, #12]
 1914 0166 3749     		ldr	r1, .L103+60
 1915 0168 FFF7FEFF 		bl	_ZL8chprintfP20BaseSequentialStreamPKcz
 1916              		.loc 15 225 0
 1917 016c 334B     		ldr	r3, .L103+52
 1918 016e 1293     		str	r3, [sp, #72]	@ float
 1919              		.loc 15 226 0
 1920 0170 4FF00003 		mov	r3, #0
 1921 0174 1193     		str	r3, [sp, #68]	@ float
 1922              		.loc 15 227 0
 1923 0176 314B     		ldr	r3, .L103+52
 1924 0178 1093     		str	r3, [sp, #64]	@ float
 1925 017a 3FE0     		b	.L97
 1926              	.L96:
 1927              		.loc 15 229 0
 1928 017c 0398     		ldr	r0, [sp, #12]
 1929 017e 3249     		ldr	r1, .L103+64
 1930 0180 FFF7FEFF 		bl	_ZL8chprintfP20BaseSequentialStreamPKcz
 1931              		.loc 15 230 0
 1932 0184 314B     		ldr	r3, .L103+68
 1933 0186 1293     		str	r3, [sp, #72]	@ float
 1934              		.loc 15 231 0
 1935 0188 4FF00003 		mov	r3, #0
 1936 018c 1193     		str	r3, [sp, #68]	@ float
 1937              		.loc 15 232 0
 1938 018e 4FF00003 		mov	r3, #0
 1939 0192 1093     		str	r3, [sp, #64]	@ float
 1940 0194 32E0     		b	.L97
 1941              	.L93:
 1942              		.loc 15 236 0
 1943 0196 0398     		ldr	r0, [sp, #12]
 1944 0198 2D49     		ldr	r1, .L103+72
ARM GAS  /tmp/ccypRU8x.s 			page 37


 1945 019a FFF7FEFF 		bl	_ZL8chprintfP20BaseSequentialStreamPKcz
 1946              		.loc 15 237 0
 1947 019e 059B     		ldr	r3, [sp, #20]
 1948 01a0 DB88     		ldrh	r3, [r3, #6]	@ unaligned
 1949 01a2 9BB2     		uxth	r3, r3
 1950 01a4 AA2B     		cmp	r3, #170
 1951 01a6 0BD9     		bls	.L98
 1952              		.loc 15 238 0
 1953 01a8 0398     		ldr	r0, [sp, #12]
 1954 01aa 2349     		ldr	r1, .L103+48
 1955 01ac FFF7FEFF 		bl	_ZL8chprintfP20BaseSequentialStreamPKcz
 1956              		.loc 15 239 0
 1957 01b0 224B     		ldr	r3, .L103+52
 1958 01b2 1293     		str	r3, [sp, #72]	@ float
 1959              		.loc 15 240 0
 1960 01b4 4FF00003 		mov	r3, #0
 1961 01b8 1193     		str	r3, [sp, #68]	@ float
 1962              		.loc 15 241 0
 1963 01ba 214B     		ldr	r3, .L103+56
 1964 01bc 1093     		str	r3, [sp, #64]	@ float
 1965 01be 1DE0     		b	.L97
 1966              	.L98:
 1967              		.loc 15 242 0
 1968 01c0 059B     		ldr	r3, [sp, #20]
 1969 01c2 DB88     		ldrh	r3, [r3, #6]	@ unaligned
 1970 01c4 9BB2     		uxth	r3, r3
 1971 01c6 952B     		cmp	r3, #149
 1972 01c8 0BD8     		bhi	.L99
 1973              		.loc 15 243 0
 1974 01ca 0398     		ldr	r0, [sp, #12]
 1975 01cc 1D49     		ldr	r1, .L103+60
 1976 01ce FFF7FEFF 		bl	_ZL8chprintfP20BaseSequentialStreamPKcz
 1977              		.loc 15 244 0
 1978 01d2 1A4B     		ldr	r3, .L103+52
 1979 01d4 1293     		str	r3, [sp, #72]	@ float
 1980              		.loc 15 245 0
 1981 01d6 4FF00003 		mov	r3, #0
 1982 01da 1193     		str	r3, [sp, #68]	@ float
 1983              		.loc 15 246 0
 1984 01dc 174B     		ldr	r3, .L103+52
 1985 01de 1093     		str	r3, [sp, #64]	@ float
 1986 01e0 0CE0     		b	.L97
 1987              	.L99:
 1988              		.loc 15 248 0
 1989 01e2 0398     		ldr	r0, [sp, #12]
 1990 01e4 1B49     		ldr	r1, .L103+76
 1991 01e6 FFF7FEFF 		bl	_ZL8chprintfP20BaseSequentialStreamPKcz
 1992              		.loc 15 249 0
 1993 01ea 4FF00003 		mov	r3, #0
 1994 01ee 1293     		str	r3, [sp, #72]	@ float
 1995              		.loc 15 250 0
 1996 01f0 4FF00003 		mov	r3, #0
 1997 01f4 1193     		str	r3, [sp, #68]	@ float
 1998              		.loc 15 251 0
 1999 01f6 4FF00003 		mov	r3, #0
 2000 01fa 1093     		str	r3, [sp, #64]	@ float
 2001              	.L97:
ARM GAS  /tmp/ccypRU8x.s 			page 38


 2002              		.loc 15 254 0
 2003 01fc 059B     		ldr	r3, [sp, #20]
 2004 01fe 0648     		ldr	r0, .L103+16
 2005 0200 1946     		mov	r1, r3
 2006 0202 FFF7FEFF 		bl	_ZN3r2p16SubscriberExtBufINS_7PixyMsgEE7releaseERS1_
 2007              	.LBE68:
 2008 0206 34E0     		b	.L100
 2009              	.L104:
 2010              		.align	2
 2011              	.L103:
 2012 0208 5C000000 		.word	.LC4
 2013 020c 74000000 		.word	.LC5
 2014 0210 00000000 		.word	pixy_first_time
 2015 0214 00000000 		.word	pixy_node
 2016 0218 00000000 		.word	pixy_sub
 2017 021c 80000000 		.word	.LC6
 2018 0220 00000000 		.word	vel_node
 2019 0224 00000000 		.word	speed_first_time
 2020 0228 00000000 		.word	vel_pub
 2021 022c 3C000000 		.word	.LC2
 2022 0230 00000000 		.word	_ZN3r2p4Time8INFINITEE
 2023 0234 88000000 		.word	.LC7
 2024 0238 98000000 		.word	.LC8
 2025 023c CDCC4CBE 		.word	-1102263091
 2026 0240 CDCCCC3D 		.word	1036831949
 2027 0244 A8000000 		.word	.LC9
 2028 0248 B8000000 		.word	.LC10
 2029 024c CDCCCCBE 		.word	-1093874483
 2030 0250 C8000000 		.word	.LC11
 2031 0254 D8000000 		.word	.LC12
 2032              	.L90:
 2033              		.loc 15 258 0
 2034 0258 0398     		ldr	r0, [sp, #12]
 2035 025a 5449     		ldr	r1, .L105
 2036 025c FFF7FEFF 		bl	_ZL8chprintfP20BaseSequentialStreamPKcz
 2037              		.loc 15 259 0
 2038 0260 4FF00003 		mov	r3, #0
 2039 0264 1293     		str	r3, [sp, #72]	@ float
 2040              		.loc 15 260 0
 2041 0266 4FF00003 		mov	r3, #0
 2042 026a 1193     		str	r3, [sp, #68]	@ float
 2043              		.loc 15 261 0
 2044 026c 4FF07E53 		mov	r3, #1065353216
 2045 0270 1093     		str	r3, [sp, #64]	@ float
 2046              	.L100:
 2047              	.LBE67:
 2048              		.loc 15 266 0
 2049 0272 DDED107A 		flds	s15, [sp, #64]
 2050 0276 9FED4E7A 		flds	s14, .L105+4
 2051 027a 67EE877A 		fmuls	s15, s15, s14
 2052 027e CDED0D7A 		fsts	s15, [sp, #52]
 2053              		.loc 15 267 0
 2054 0282 DDED117A 		flds	s15, [sp, #68]
 2055 0286 9FED4B7A 		flds	s14, .L105+8
 2056 028a 67EE877A 		fmuls	s15, s15, s14
 2057 028e CDED0C7A 		fsts	s15, [sp, #48]
 2058              		.loc 15 268 0
ARM GAS  /tmp/ccypRU8x.s 			page 39


 2059 0292 DDED127A 		flds	s15, [sp, #72]
 2060 0296 9FED487A 		flds	s14, .L105+12
 2061 029a 67EE877A 		fmuls	s15, s15, s14
 2062 029e CDED0B7A 		fsts	s15, [sp, #44]
 2063              		.loc 15 270 0
 2064 02a2 9DED0C7A 		flds	s14, [sp, #48]
 2065 02a6 DDED0B7A 		flds	s15, [sp, #44]
 2066 02aa 37EE677A 		fsubs	s14, s14, s15
 2067 02ae DDED0D7A 		flds	s15, [sp, #52]
 2068 02b2 77EE277A 		fadds	s15, s14, s15
 2069 02b6 CDED0A7A 		fsts	s15, [sp, #40]
 2070              		.loc 15 271 0
 2071 02ba 9DED0C7A 		flds	s14, [sp, #48]
 2072 02be DDED0B7A 		flds	s15, [sp, #44]
 2073 02c2 37EE277A 		fadds	s14, s14, s15
 2074 02c6 DDED0D7A 		flds	s15, [sp, #52]
 2075 02ca 77EE277A 		fadds	s15, s14, s15
 2076 02ce CDED097A 		fsts	s15, [sp, #36]
 2077              		.loc 15 272 0
 2078 02d2 DDED117A 		flds	s15, [sp, #68]
 2079 02d6 9FED397A 		flds	s14, .L105+16
 2080 02da 27EE877A 		fmuls	s14, s15, s14
 2081 02de DDED0D7A 		flds	s15, [sp, #52]
 2082 02e2 77EE277A 		fadds	s15, s14, s15
 2083 02e6 CDED087A 		fsts	s15, [sp, #32]
 2084              		.loc 15 275 0
 2085 02ea 04AB     		add	r3, sp, #16
 2086 02ec 3448     		ldr	r0, .L105+20
 2087 02ee 1946     		mov	r1, r3
 2088 02f0 FFF7FEFF 		bl	_ZN3r2p9PublisherINS_9Speed3MsgEE5allocERPS1_
 2089 02f4 0346     		mov	r3, r0
 2090 02f6 002B     		cmp	r3, #0
 2091 02f8 56D0     		beq	.L101
 2092              		.loc 15 276 0
 2093 02fa 049C     		ldr	r4, [sp, #16]
 2094 02fc 9FED310A 		flds	s0, .L105+24
 2095 0300 DDED0A0A 		flds	s1, [sp, #40]
 2096 0304 9FED301A 		flds	s2, .L105+28
 2097 0308 FFF7FEFF 		bl	_Z5clampIfET_S0_S0_S0_
 2098 030c F0EE407A 		fcpys	s15, s0
 2099 0310 FDEEE77A 		ftosizs	s15, s15
 2100 0314 CDED007A 		fsts	s15, [sp]	@ int
 2101 0318 BDF80030 		ldrh	r3, [sp]	@ movhi
 2102 031c 9BB2     		uxth	r3, r3
 2103 031e 1BB2     		sxth	r3, r3
 2104 0320 07EE903A 		fmsr	s15, r3	@ int
 2105 0324 F8EEE77A 		fsitos	s15, s15
 2106 0328 A31C     		adds	r3, r4, #2
 2107 032a 17EE902A 		fmrs	r2, s15
 2108 032e 1A60     		str	r2, [r3]	@ unaligned
 2109              		.loc 15 277 0
 2110 0330 049C     		ldr	r4, [sp, #16]
 2111 0332 9FED240A 		flds	s0, .L105+24
 2112 0336 DDED090A 		flds	s1, [sp, #36]
 2113 033a 9FED231A 		flds	s2, .L105+28
 2114 033e FFF7FEFF 		bl	_Z5clampIfET_S0_S0_S0_
 2115 0342 F0EE407A 		fcpys	s15, s0
ARM GAS  /tmp/ccypRU8x.s 			page 40


 2116 0346 FDEEE77A 		ftosizs	s15, s15
 2117 034a CDED007A 		fsts	s15, [sp]	@ int
 2118 034e BDF80030 		ldrh	r3, [sp]	@ movhi
 2119 0352 9BB2     		uxth	r3, r3
 2120 0354 1BB2     		sxth	r3, r3
 2121 0356 07EE903A 		fmsr	s15, r3	@ int
 2122 035a F8EEE77A 		fsitos	s15, s15
 2123 035e A31D     		adds	r3, r4, #6
 2124 0360 17EE902A 		fmrs	r2, s15
 2125 0364 1A60     		str	r2, [r3]	@ unaligned
 2126              		.loc 15 278 0
 2127 0366 049C     		ldr	r4, [sp, #16]
 2128 0368 9FED160A 		flds	s0, .L105+24
 2129 036c DDED080A 		flds	s1, [sp, #32]
 2130 0370 9FED151A 		flds	s2, .L105+28
 2131 0374 FFF7FEFF 		bl	_Z5clampIfET_S0_S0_S0_
 2132 0378 F0EE407A 		fcpys	s15, s0
 2133 037c FDEEE77A 		ftosizs	s15, s15
 2134 0380 CDED007A 		fsts	s15, [sp]	@ int
 2135 0384 BDF80030 		ldrh	r3, [sp]	@ movhi
 2136 0388 9BB2     		uxth	r3, r3
 2137 038a 1BB2     		sxth	r3, r3
 2138 038c 07EE903A 		fmsr	s15, r3	@ int
 2139 0390 F8EEE77A 		fsitos	s15, s15
 2140 0394 04F10A03 		add	r3, r4, #10
 2141 0398 17EE902A 		fmrs	r2, s15
 2142 039c 1A60     		str	r2, [r3]	@ unaligned
 2143              		.loc 15 279 0
 2144 039e 049B     		ldr	r3, [sp, #16]
 2145 03a0 0748     		ldr	r0, .L105+20
 2146 03a2 1946     		mov	r1, r3
 2147 03a4 FFF7FEFF 		bl	_ZN3r2p9PublisherINS_9Speed3MsgEE7publishERS1_
 2148              	.L101:
 2149              	.LBE66:
 2150              		.loc 15 281 0
 2151 03a8 75E6     		b	.L102
 2152              	.L106:
 2153 03aa 00BF     		.align	2
 2154              	.L105:
 2155 03ac EC000000 		.word	.LC13
 2156 03b0 244992C0 		.word	-1064154844
 2157 03b4 49926441 		.word	1097110089
 2158 03b8 DBF2C541 		.word	1103491803
 2159 03bc 4992E4C1 		.word	-1041984951
 2160 03c0 00000000 		.word	vel_pub
 2161 03c4 000050C2 		.word	-1034944512
 2162 03c8 00005042 		.word	1112539136
 2163              	.LBE65:
 2164              	.LBE63:
 2165              		.cfi_endproc
 2166              	.LFE601:
 2167              		.size	_ZL10cmd_followP20BaseSequentialStreamiPPc, .-_ZL10cmd_followP20BaseSequentialStreamiPPc
 2168 03cc AFF30080 		.section	.rodata
 2169 00f7 00       		.align	2
 2170              	.LC14:
 2171 00f8 70726F78 		.ascii	"proximity\000"
 2171      696D6974 
ARM GAS  /tmp/ccypRU8x.s 			page 41


 2171      7900
 2172 0102 0000     		.align	2
 2173              	.LC15:
 2174 0104 5072696E 		.ascii	"Print from Proximity\015\012\000"
 2174      74206672 
 2174      6F6D2050 
 2174      726F7869 
 2174      6D697479 
 2175 011b 00       		.align	2
 2176              	.LC16:
 2177 011c 6972206E 		.ascii	"ir n:%d value : %d\015\012\000"
 2177      3A256420 
 2177      76616C75 
 2177      65203A20 
 2177      25640D0A 
 2178 0131 000000   		.align	2
 2179              	.LC17:
 2180 0134 0D0A00   		.ascii	"\015\012\000"
 2181              		.section	.text._ZL13cmd_proximityP20BaseSequentialStreamiPPc,"ax",%progbits
 2182              		.align	2
 2183              		.p2align 4,,15
 2184              		.thumb
 2185              		.thumb_func
 2186              		.type	_ZL13cmd_proximityP20BaseSequentialStreamiPPc, %function
 2187              	_ZL13cmd_proximityP20BaseSequentialStreamiPPc:
 2188              	.LFB602:
 2189              		.loc 15 289 0
 2190              		.cfi_startproc
 2191              		@ args = 0, pretend = 0, frame = 32
 2192              		@ frame_needed = 0, uses_anonymous_args = 0
 2193 0000 00B5     		push	{lr}
 2194              		.cfi_def_cfa_offset 4
 2195              		.cfi_offset 14, -4
 2196 0002 89B0     		sub	sp, sp, #36
 2197              		.cfi_def_cfa_offset 40
 2198 0004 0390     		str	r0, [sp, #12]
 2199 0006 0291     		str	r1, [sp, #8]
 2200 0008 0192     		str	r2, [sp, #4]
 2201              	.LBB70:
 2202              		.loc 15 292 0
 2203 000a 0023     		movs	r3, #0
 2204 000c 0793     		str	r3, [sp, #28]
 2205              		.loc 15 295 0
 2206 000e 2E4B     		ldr	r3, .L116
 2207 0010 1B78     		ldrb	r3, [r3]	@ zero_extendqisi2
 2208 0012 002B     		cmp	r3, #0
 2209 0014 07D0     		beq	.L108
 2210              		.loc 15 296 0
 2211 0016 2D48     		ldr	r0, .L116+4
 2212 0018 2D49     		ldr	r1, .L116+8
 2213 001a 2E4A     		ldr	r2, .L116+12
 2214 001c FFF7FEFF 		bl	_ZN3r2p4Node9subscribeINS_12ProximityMsgELj5EEEbRNS_10SubscriberIT_XT0_EEEPKc
 2215              		.loc 15 297 0
 2216 0020 294B     		ldr	r3, .L116
 2217 0022 0022     		movs	r2, #0
 2218 0024 1A70     		strb	r2, [r3]
 2219              	.L108:
ARM GAS  /tmp/ccypRU8x.s 			page 42


 2220              		.loc 15 299 0
 2221 0026 2948     		ldr	r0, .L116+4
 2222 0028 0121     		movs	r1, #1
 2223 002a FFF7FEFF 		bl	_ZN3r2p4Node11set_enabledEb
 2224              		.loc 15 301 0
 2225 002e 0398     		ldr	r0, [sp, #12]
 2226 0030 2949     		ldr	r1, .L116+16
 2227 0032 FFF7FEFF 		bl	_ZL8chprintfP20BaseSequentialStreamPKcz
 2228              		.loc 15 302 0
 2229 0036 0BE0     		b	.L109
 2230              	.L112:
 2231              		.loc 15 303 0
 2232 0038 05AB     		add	r3, sp, #20
 2233 003a 1846     		mov	r0, r3
 2234 003c 0521     		movs	r1, #5
 2235 003e FFF7FEFF 		bl	_ZN3r2p4Time2msEl
 2236 0042 05AB     		add	r3, sp, #20
 2237 0044 1846     		mov	r0, r3
 2238 0046 FFF7FEFF 		bl	_ZN3r2p6Thread5sleepERKNS_4TimeE
 2239              		.loc 15 304 0
 2240 004a 079B     		ldr	r3, [sp, #28]
 2241 004c 0133     		adds	r3, r3, #1
 2242 004e 0793     		str	r3, [sp, #28]
 2243              	.L109:
 2244              		.loc 15 302 0
 2245 0050 04AB     		add	r3, sp, #16
 2246 0052 1F48     		ldr	r0, .L116+8
 2247 0054 1946     		mov	r1, r3
 2248 0056 FFF7FEFF 		bl	_ZN3r2p16SubscriberExtBufINS_12ProximityMsgEE5fetchERPS1_
 2249 005a 0346     		mov	r3, r0
 2250 005c 83F00103 		eor	r3, r3, #1
 2251 0060 DBB2     		uxtb	r3, r3
 2252 0062 002B     		cmp	r3, #0
 2253 0064 05D0     		beq	.L110
 2254              		.loc 15 302 0 is_stmt 0 discriminator 1
 2255 0066 079B     		ldr	r3, [sp, #28]
 2256 0068 B3F57A7F 		cmp	r3, #1000
 2257 006c 01DA     		bge	.L110
 2258              		.loc 15 302 0 discriminator 3
 2259 006e 0123     		movs	r3, #1
 2260 0070 00E0     		b	.L111
 2261              	.L110:
 2262              		.loc 15 302 0 discriminator 4
 2263 0072 0023     		movs	r3, #0
 2264              	.L111:
 2265              		.loc 15 302 0 discriminator 6
 2266 0074 002B     		cmp	r3, #0
 2267 0076 DFD1     		bne	.L112
 2268              	.LBB71:
 2269              		.loc 15 307 0 is_stmt 1
 2270 0078 079B     		ldr	r3, [sp, #28]
 2271 007a B3F57A7F 		cmp	r3, #1000
 2272 007e 17DA     		bge	.L113
 2273              	.LBB72:
 2274              	.LBB73:
 2275              		.loc 15 309 0
 2276 0080 0023     		movs	r3, #0
ARM GAS  /tmp/ccypRU8x.s 			page 43


 2277 0082 0693     		str	r3, [sp, #24]
 2278 0084 0DE0     		b	.L114
 2279              	.L115:
 2280              		.loc 15 311 0 discriminator 3
 2281 0086 049A     		ldr	r2, [sp, #16]
 2282 0088 069B     		ldr	r3, [sp, #24]
 2283 008a 5B00     		lsls	r3, r3, #1
 2284 008c 1344     		add	r3, r3, r2
 2285 008e 5B88     		ldrh	r3, [r3, #2]	@ unaligned
 2286 0090 9BB2     		uxth	r3, r3
 2287 0092 0398     		ldr	r0, [sp, #12]
 2288 0094 1149     		ldr	r1, .L116+20
 2289 0096 069A     		ldr	r2, [sp, #24]
 2290 0098 FFF7FEFF 		bl	_ZL8chprintfP20BaseSequentialStreamPKcz
 2291              		.loc 15 309 0 discriminator 3
 2292 009c 069B     		ldr	r3, [sp, #24]
 2293 009e 0133     		adds	r3, r3, #1
 2294 00a0 0693     		str	r3, [sp, #24]
 2295              	.L114:
 2296              		.loc 15 309 0 is_stmt 0 discriminator 1
 2297 00a2 069B     		ldr	r3, [sp, #24]
 2298 00a4 072B     		cmp	r3, #7
 2299 00a6 EEDD     		ble	.L115
 2300              	.LBE73:
 2301              		.loc 15 314 0 is_stmt 1
 2302 00a8 0398     		ldr	r0, [sp, #12]
 2303 00aa 0D49     		ldr	r1, .L116+24
 2304 00ac FFF7FEFF 		bl	_ZL8chprintfP20BaseSequentialStreamPKcz
 2305              	.L113:
 2306              	.LBE72:
 2307              	.LBE71:
 2308              		.loc 15 316 0
 2309 00b0 049B     		ldr	r3, [sp, #16]
 2310 00b2 0748     		ldr	r0, .L116+8
 2311 00b4 1946     		mov	r1, r3
 2312 00b6 FFF7FEFF 		bl	_ZN3r2p16SubscriberExtBufINS_12ProximityMsgEE7releaseERS1_
 2313              		.loc 15 317 0
 2314 00ba 0448     		ldr	r0, .L116+4
 2315 00bc 0021     		movs	r1, #0
 2316 00be FFF7FEFF 		bl	_ZN3r2p4Node11set_enabledEb
 2317              	.LBE70:
 2318              		.loc 15 318 0
 2319 00c2 09B0     		add	sp, sp, #36
 2320              		.cfi_def_cfa_offset 4
 2321              		@ sp needed
 2322 00c4 5DF804FB 		ldr	pc, [sp], #4
 2323              	.L117:
 2324              		.align	2
 2325              	.L116:
 2326 00c8 00000000 		.word	proxy_first_time
 2327 00cc 00000000 		.word	proximity_node
 2328 00d0 00000000 		.word	proximity_sub
 2329 00d4 F8000000 		.word	.LC14
 2330 00d8 04010000 		.word	.LC15
 2331 00dc 1C010000 		.word	.LC16
 2332 00e0 34010000 		.word	.LC17
 2333              		.cfi_endproc
ARM GAS  /tmp/ccypRU8x.s 			page 44


 2334              	.LFE602:
 2335              		.size	_ZL13cmd_proximityP20BaseSequentialStreamiPPc, .-_ZL13cmd_proximityP20BaseSequentialStreamiP
 2336 00e4 AFF30080 		.section	.rodata
 2336      AFF30080 
 2336      AFF30080 
 2337 0137 00       		.align	2
 2338              	.LC18:
 2339 0138 5072696E 		.ascii	"Print from Pixy\015\012\000"
 2339      74206672 
 2339      6F6D2050 
 2339      6978790D 
 2339      0A00
 2340 014a 0000     		.align	2
 2341              	.LC19:
 2342 014c 53696720 		.ascii	"Sig %d \000"
 2342      25642000 
 2343              		.align	2
 2344              	.LC20:
 2345 0154 58202564 		.ascii	"X %d \000"
 2345      2000
 2346 015a 0000     		.align	2
 2347              	.LC21:
 2348 015c 59202564 		.ascii	"Y %d \000"
 2348      2000
 2349 0162 0000     		.align	2
 2350              	.LC22:
 2351 0164 57696474 		.ascii	"Width %d \000"
 2351      68202564 
 2351      2000
 2352 016e 0000     		.align	2
 2353              	.LC23:
 2354 0170 48656967 		.ascii	"Height %d \000"
 2354      68742025 
 2354      642000
 2355 017b 00       		.align	2
 2356              	.LC24:
 2357 017c 74696D65 		.ascii	"timeout\000"
 2357      6F757400 
 2358              		.section	.text._ZL8cmd_pixyP20BaseSequentialStreamiPPc,"ax",%progbits
 2359              		.align	2
 2360              		.p2align 4,,15
 2361              		.thumb
 2362              		.thumb_func
 2363              		.type	_ZL8cmd_pixyP20BaseSequentialStreamiPPc, %function
 2364              	_ZL8cmd_pixyP20BaseSequentialStreamiPPc:
 2365              	.LFB603:
 2366              		.loc 15 321 0
 2367              		.cfi_startproc
 2368              		@ args = 0, pretend = 0, frame = 24
 2369              		@ frame_needed = 0, uses_anonymous_args = 0
 2370 0000 00B5     		push	{lr}
 2371              		.cfi_def_cfa_offset 4
 2372              		.cfi_offset 14, -4
 2373 0002 87B0     		sub	sp, sp, #28
 2374              		.cfi_def_cfa_offset 32
 2375 0004 0390     		str	r0, [sp, #12]
 2376 0006 0291     		str	r1, [sp, #8]
ARM GAS  /tmp/ccypRU8x.s 			page 45


 2377 0008 0192     		str	r2, [sp, #4]
 2378              	.LBB74:
 2379              		.loc 15 325 0
 2380 000a 394B     		ldr	r3, .L126
 2381 000c 1B78     		ldrb	r3, [r3]	@ zero_extendqisi2
 2382 000e 002B     		cmp	r3, #0
 2383 0010 07D0     		beq	.L119
 2384              		.loc 15 326 0
 2385 0012 3848     		ldr	r0, .L126+4
 2386 0014 3849     		ldr	r1, .L126+8
 2387 0016 394A     		ldr	r2, .L126+12
 2388 0018 FFF7FEFF 		bl	_ZN3r2p4Node9subscribeINS_7PixyMsgELj5EEEbRNS_10SubscriberIT_XT0_EEEPKc
 2389              		.loc 15 327 0
 2390 001c 344B     		ldr	r3, .L126
 2391 001e 0022     		movs	r2, #0
 2392 0020 1A70     		strb	r2, [r3]
 2393              	.L119:
 2394              		.loc 15 329 0
 2395 0022 3448     		ldr	r0, .L126+4
 2396 0024 0121     		movs	r1, #1
 2397 0026 FFF7FEFF 		bl	_ZN3r2p4Node11set_enabledEb
 2398              		.loc 15 331 0
 2399 002a 0398     		ldr	r0, [sp, #12]
 2400 002c 3449     		ldr	r1, .L126+16
 2401 002e FFF7FEFF 		bl	_ZL8chprintfP20BaseSequentialStreamPKcz
 2402              		.loc 15 333 0
 2403 0032 0023     		movs	r3, #0
 2404 0034 0593     		str	r3, [sp, #20]
 2405              		.loc 15 334 0
 2406 0036 05E0     		b	.L120
 2407              	.L123:
 2408              		.loc 15 335 0
 2409 0038 0520     		movs	r0, #5
 2410 003a FFF7FEFF 		bl	chThdSleep
 2411              		.loc 15 336 0
 2412 003e 059B     		ldr	r3, [sp, #20]
 2413 0040 0133     		adds	r3, r3, #1
 2414 0042 0593     		str	r3, [sp, #20]
 2415              	.L120:
 2416              		.loc 15 334 0
 2417 0044 04AB     		add	r3, sp, #16
 2418 0046 2C48     		ldr	r0, .L126+8
 2419 0048 1946     		mov	r1, r3
 2420 004a FFF7FEFF 		bl	_ZN3r2p16SubscriberExtBufINS_7PixyMsgEE5fetchERPS1_
 2421 004e 0346     		mov	r3, r0
 2422 0050 83F00103 		eor	r3, r3, #1
 2423 0054 DBB2     		uxtb	r3, r3
 2424 0056 002B     		cmp	r3, #0
 2425 0058 05D0     		beq	.L121
 2426              		.loc 15 334 0 is_stmt 0 discriminator 1
 2427 005a 059B     		ldr	r3, [sp, #20]
 2428 005c B3F57A7F 		cmp	r3, #1000
 2429 0060 01DA     		bge	.L121
 2430              		.loc 15 334 0 discriminator 3
 2431 0062 0123     		movs	r3, #1
 2432 0064 00E0     		b	.L122
 2433              	.L121:
ARM GAS  /tmp/ccypRU8x.s 			page 46


 2434              		.loc 15 334 0 discriminator 4
 2435 0066 0023     		movs	r3, #0
 2436              	.L122:
 2437              		.loc 15 334 0 discriminator 6
 2438 0068 002B     		cmp	r3, #0
 2439 006a E5D1     		bne	.L123
 2440              		.loc 15 338 0 is_stmt 1
 2441 006c 059B     		ldr	r3, [sp, #20]
 2442 006e B3F57A7F 		cmp	r3, #1000
 2443 0072 31DA     		bge	.L124
 2444              		.loc 15 340 0
 2445 0074 049B     		ldr	r3, [sp, #16]
 2446 0076 9B88     		ldrh	r3, [r3, #4]	@ unaligned
 2447 0078 9BB2     		uxth	r3, r3
 2448 007a 0398     		ldr	r0, [sp, #12]
 2449 007c 2149     		ldr	r1, .L126+20
 2450 007e 1A46     		mov	r2, r3
 2451 0080 FFF7FEFF 		bl	_ZL8chprintfP20BaseSequentialStreamPKcz
 2452              		.loc 15 341 0
 2453 0084 049B     		ldr	r3, [sp, #16]
 2454 0086 DB88     		ldrh	r3, [r3, #6]	@ unaligned
 2455 0088 9BB2     		uxth	r3, r3
 2456 008a 0398     		ldr	r0, [sp, #12]
 2457 008c 1E49     		ldr	r1, .L126+24
 2458 008e 1A46     		mov	r2, r3
 2459 0090 FFF7FEFF 		bl	_ZL8chprintfP20BaseSequentialStreamPKcz
 2460              		.loc 15 342 0
 2461 0094 049B     		ldr	r3, [sp, #16]
 2462 0096 1B89     		ldrh	r3, [r3, #8]	@ unaligned
 2463 0098 9BB2     		uxth	r3, r3
 2464 009a 0398     		ldr	r0, [sp, #12]
 2465 009c 1B49     		ldr	r1, .L126+28
 2466 009e 1A46     		mov	r2, r3
 2467 00a0 FFF7FEFF 		bl	_ZL8chprintfP20BaseSequentialStreamPKcz
 2468              		.loc 15 343 0
 2469 00a4 049B     		ldr	r3, [sp, #16]
 2470 00a6 5B89     		ldrh	r3, [r3, #10]	@ unaligned
 2471 00a8 9BB2     		uxth	r3, r3
 2472 00aa 0398     		ldr	r0, [sp, #12]
 2473 00ac 1849     		ldr	r1, .L126+32
 2474 00ae 1A46     		mov	r2, r3
 2475 00b0 FFF7FEFF 		bl	_ZL8chprintfP20BaseSequentialStreamPKcz
 2476              		.loc 15 344 0
 2477 00b4 049B     		ldr	r3, [sp, #16]
 2478 00b6 9B89     		ldrh	r3, [r3, #12]	@ unaligned
 2479 00b8 9BB2     		uxth	r3, r3
 2480 00ba 0398     		ldr	r0, [sp, #12]
 2481 00bc 1549     		ldr	r1, .L126+36
 2482 00be 1A46     		mov	r2, r3
 2483 00c0 FFF7FEFF 		bl	_ZL8chprintfP20BaseSequentialStreamPKcz
 2484              		.loc 15 346 0
 2485 00c4 0398     		ldr	r0, [sp, #12]
 2486 00c6 1449     		ldr	r1, .L126+40
 2487 00c8 FFF7FEFF 		bl	_ZL8chprintfP20BaseSequentialStreamPKcz
 2488              		.loc 15 348 0
 2489 00cc 049B     		ldr	r3, [sp, #16]
 2490 00ce 0A48     		ldr	r0, .L126+8
ARM GAS  /tmp/ccypRU8x.s 			page 47


 2491 00d0 1946     		mov	r1, r3
 2492 00d2 FFF7FEFF 		bl	_ZN3r2p16SubscriberExtBufINS_7PixyMsgEE7releaseERS1_
 2493 00d6 03E0     		b	.L125
 2494              	.L124:
 2495              		.loc 15 351 0
 2496 00d8 0398     		ldr	r0, [sp, #12]
 2497 00da 1049     		ldr	r1, .L126+44
 2498 00dc FFF7FEFF 		bl	_ZL8chprintfP20BaseSequentialStreamPKcz
 2499              	.L125:
 2500              		.loc 15 354 0
 2501 00e0 0448     		ldr	r0, .L126+4
 2502 00e2 0021     		movs	r1, #0
 2503 00e4 FFF7FEFF 		bl	_ZN3r2p4Node11set_enabledEb
 2504              	.LBE74:
 2505              		.loc 15 356 0
 2506 00e8 07B0     		add	sp, sp, #28
 2507              		.cfi_def_cfa_offset 4
 2508              		@ sp needed
 2509 00ea 5DF804FB 		ldr	pc, [sp], #4
 2510              	.L127:
 2511 00ee 00BF     		.align	2
 2512              	.L126:
 2513 00f0 00000000 		.word	pixy_first_time
 2514 00f4 00000000 		.word	pixy_node
 2515 00f8 00000000 		.word	pixy_sub
 2516 00fc 80000000 		.word	.LC6
 2517 0100 38010000 		.word	.LC18
 2518 0104 4C010000 		.word	.LC19
 2519 0108 54010000 		.word	.LC20
 2520 010c 5C010000 		.word	.LC21
 2521 0110 64010000 		.word	.LC22
 2522 0114 70010000 		.word	.LC23
 2523 0118 34010000 		.word	.LC17
 2524 011c 7C010000 		.word	.LC24
 2525              		.cfi_endproc
 2526              	.LFE603:
 2527              		.size	_ZL8cmd_pixyP20BaseSequentialStreamiPPc, .-_ZL8cmd_pixyP20BaseSequentialStreamiPPc
 2528              		.section	.rodata
 2529              		.align	2
 2530              	.LC25:
 2531 0184 55736167 		.ascii	"Usage: stop\015\012\000"
 2531      653A2073 
 2531      746F700D 
 2531      0A00
 2532              		.section	.text._ZL8cmd_stopP20BaseSequentialStreamiPPc,"ax",%progbits
 2533              		.align	2
 2534              		.p2align 4,,15
 2535              		.thumb
 2536              		.thumb_func
 2537              		.type	_ZL8cmd_stopP20BaseSequentialStreamiPPc, %function
 2538              	_ZL8cmd_stopP20BaseSequentialStreamiPPc:
 2539              	.LFB604:
 2540              		.loc 15 359 0
 2541              		.cfi_startproc
 2542              		@ args = 0, pretend = 0, frame = 24
 2543              		@ frame_needed = 0, uses_anonymous_args = 0
 2544 0000 00B5     		push	{lr}
ARM GAS  /tmp/ccypRU8x.s 			page 48


 2545              		.cfi_def_cfa_offset 4
 2546              		.cfi_offset 14, -4
 2547 0002 87B0     		sub	sp, sp, #28
 2548              		.cfi_def_cfa_offset 32
 2549 0004 0390     		str	r0, [sp, #12]
 2550 0006 0291     		str	r1, [sp, #8]
 2551 0008 0192     		str	r2, [sp, #4]
 2552              	.LBB75:
 2553              		.loc 15 364 0
 2554 000a 029B     		ldr	r3, [sp, #8]
 2555 000c 002B     		cmp	r3, #0
 2556 000e 04DD     		ble	.L129
 2557              		.loc 15 365 0
 2558 0010 0398     		ldr	r0, [sp, #12]
 2559 0012 1C49     		ldr	r1, .L133
 2560 0014 FFF7FEFF 		bl	_ZL8chprintfP20BaseSequentialStreamPKcz
 2561 0018 30E0     		b	.L128
 2562              	.L129:
 2563              		.loc 15 369 0
 2564 001a 1B48     		ldr	r0, .L133+4
 2565 001c 0121     		movs	r1, #1
 2566 001e FFF7FEFF 		bl	_ZN3r2p4Node11set_enabledEb
 2567              		.loc 15 371 0
 2568 0022 1A4B     		ldr	r3, .L133+8
 2569 0024 1B78     		ldrb	r3, [r3]	@ zero_extendqisi2
 2570 0026 002B     		cmp	r3, #0
 2571 0028 08D0     		beq	.L131
 2572              		.loc 15 372 0
 2573 002a 1748     		ldr	r0, .L133+4
 2574 002c 1849     		ldr	r1, .L133+12
 2575 002e 194A     		ldr	r2, .L133+16
 2576 0030 194B     		ldr	r3, .L133+20
 2577 0032 FFF7FEFF 		bl	_ZN3r2p4Node9advertiseINS_9Speed3MsgEEEbRNS_9PublisherIT_EEPKcRKNS_4TimeE
 2578              		.loc 15 373 0
 2579 0036 154B     		ldr	r3, .L133+8
 2580 0038 0022     		movs	r2, #0
 2581 003a 1A70     		strb	r2, [r3]
 2582              	.L131:
 2583              		.loc 15 377 0
 2584 003c 05AB     		add	r3, sp, #20
 2585 003e 1448     		ldr	r0, .L133+12
 2586 0040 1946     		mov	r1, r3
 2587 0042 FFF7FEFF 		bl	_ZN3r2p9PublisherINS_9Speed3MsgEE5allocERPS1_
 2588 0046 0346     		mov	r3, r0
 2589 0048 002B     		cmp	r3, #0
 2590 004a 13D0     		beq	.L132
 2591              		.loc 15 378 0
 2592 004c 059B     		ldr	r3, [sp, #20]
 2593 004e 0233     		adds	r3, r3, #2
 2594 0050 4FF00002 		mov	r2, #0
 2595 0054 1A60     		str	r2, [r3]	@ unaligned
 2596              		.loc 15 379 0
 2597 0056 059B     		ldr	r3, [sp, #20]
 2598 0058 0633     		adds	r3, r3, #6
 2599 005a 4FF00002 		mov	r2, #0
 2600 005e 1A60     		str	r2, [r3]	@ unaligned
 2601              		.loc 15 380 0
ARM GAS  /tmp/ccypRU8x.s 			page 49


 2602 0060 059B     		ldr	r3, [sp, #20]
 2603 0062 0A33     		adds	r3, r3, #10
 2604 0064 4FF00002 		mov	r2, #0
 2605 0068 1A60     		str	r2, [r3]	@ unaligned
 2606              		.loc 15 381 0
 2607 006a 059B     		ldr	r3, [sp, #20]
 2608 006c 0848     		ldr	r0, .L133+12
 2609 006e 1946     		mov	r1, r3
 2610 0070 FFF7FEFF 		bl	_ZN3r2p9PublisherINS_9Speed3MsgEE7publishERS1_
 2611              	.L132:
 2612              		.loc 15 384 0
 2613 0074 0448     		ldr	r0, .L133+4
 2614 0076 0021     		movs	r1, #0
 2615 0078 FFF7FEFF 		bl	_ZN3r2p4Node11set_enabledEb
 2616              	.L128:
 2617              	.LBE75:
 2618              		.loc 15 385 0
 2619 007c 07B0     		add	sp, sp, #28
 2620              		.cfi_def_cfa_offset 4
 2621              		@ sp needed
 2622 007e 5DF804FB 		ldr	pc, [sp], #4
 2623              	.L134:
 2624 0082 00BF     		.align	2
 2625              	.L133:
 2626 0084 84010000 		.word	.LC25
 2627 0088 00000000 		.word	vel_node
 2628 008c 00000000 		.word	speed_first_time
 2629 0090 00000000 		.word	vel_pub
 2630 0094 3C000000 		.word	.LC2
 2631 0098 00000000 		.word	_ZN3r2p4Time8INFINITEE
 2632              		.cfi_endproc
 2633              	.LFE604:
 2634              		.size	_ZL8cmd_stopP20BaseSequentialStreamiPPc, .-_ZL8cmd_stopP20BaseSequentialStreamiPPc
 2635 009c AFF30080 		.section	.rodata
 2636 0192 0000     		.align	2
 2637              	.LC26:
 2638 0194 55736167 		.ascii	"Usage: e\015\012\000"
 2638      653A2065 
 2638      0D0A00
 2639              		.section	.text._ZL7cmd_encP20BaseSequentialStreamiPPc,"ax",%progbits
 2640              		.align	2
 2641              		.p2align 4,,15
 2642              		.thumb
 2643              		.thumb_func
 2644              		.type	_ZL7cmd_encP20BaseSequentialStreamiPPc, %function
 2645              	_ZL7cmd_encP20BaseSequentialStreamiPPc:
 2646              	.LFB605:
 2647              		.loc 15 388 0
 2648              		.cfi_startproc
 2649              		@ args = 0, pretend = 0, frame = 16
 2650              		@ frame_needed = 0, uses_anonymous_args = 0
 2651 0000 00B5     		push	{lr}
 2652              		.cfi_def_cfa_offset 4
 2653              		.cfi_offset 14, -4
 2654 0002 85B0     		sub	sp, sp, #20
 2655              		.cfi_def_cfa_offset 24
 2656 0004 0390     		str	r0, [sp, #12]
ARM GAS  /tmp/ccypRU8x.s 			page 50


 2657 0006 0291     		str	r1, [sp, #8]
 2658 0008 0192     		str	r2, [sp, #4]
 2659              		.loc 15 392 0
 2660 000a 029B     		ldr	r3, [sp, #8]
 2661 000c 002B     		cmp	r3, #0
 2662 000e 04DD     		ble	.L136
 2663              		.loc 15 393 0
 2664 0010 0398     		ldr	r0, [sp, #12]
 2665 0012 0849     		ldr	r1, .L138
 2666 0014 FFF7FEFF 		bl	_ZL8chprintfP20BaseSequentialStreamPKcz
 2667              		.loc 15 394 0
 2668 0018 09E0     		b	.L135
 2669              	.L136:
 2670              		.loc 15 397 0
 2671 001a 074A     		ldr	r2, .L138+4
 2672 001c 039B     		ldr	r3, [sp, #12]
 2673 001e 1360     		str	r3, [r2]
 2674              		.loc 15 398 0
 2675 0020 064B     		ldr	r3, .L138+8
 2676 0022 1B78     		ldrb	r3, [r3]	@ zero_extendqisi2
 2677 0024 83F00103 		eor	r3, r3, #1
 2678 0028 DAB2     		uxtb	r2, r3
 2679 002a 044B     		ldr	r3, .L138+8
 2680 002c 1A70     		strb	r2, [r3]
 2681              	.L135:
 2682              		.loc 15 399 0
 2683 002e 05B0     		add	sp, sp, #20
 2684              		.cfi_def_cfa_offset 4
 2685              		@ sp needed
 2686 0030 5DF804FB 		ldr	pc, [sp], #4
 2687              	.L139:
 2688              		.align	2
 2689              	.L138:
 2690 0034 94010000 		.word	.LC26
 2691 0038 00000000 		.word	serialp
 2692 003c 00000000 		.word	stream_enc
 2693              		.cfi_endproc
 2694              	.LFE605:
 2695              		.size	_ZL7cmd_encP20BaseSequentialStreamiPPc, .-_ZL7cmd_encP20BaseSequentialStreamiPPc
 2696              		.section	.rodata
 2697 019f 00       		.align	2
 2698              	.LC27:
 2699 01a0 55736167 		.ascii	"Usage: pidcfg <k> <ti> <td>\015\012\000"
 2699      653A2070 
 2699      69646366 
 2699      67203C6B 
 2699      3E203C74 
 2700 01be 0000     		.align	2
 2701              	.LC28:
 2702 01c0 70696463 		.ascii	"pidcfg\000"
 2702      666700
 2703              		.section	.text._ZL10cmd_pidcfgP20BaseSequentialStreamiPPc,"ax",%progbits
 2704              		.align	2
 2705              		.p2align 4,,15
 2706              		.thumb
 2707              		.thumb_func
 2708              		.type	_ZL10cmd_pidcfgP20BaseSequentialStreamiPPc, %function
ARM GAS  /tmp/ccypRU8x.s 			page 51


 2709              	_ZL10cmd_pidcfgP20BaseSequentialStreamiPPc:
 2710              	.LFB606:
 2711              		.loc 15 402 0
 2712              		.cfi_startproc
 2713              		@ args = 0, pretend = 0, frame = 24
 2714              		@ frame_needed = 0, uses_anonymous_args = 0
 2715 0000 10B5     		push	{r4, lr}
 2716              		.cfi_def_cfa_offset 8
 2717              		.cfi_offset 4, -8
 2718              		.cfi_offset 14, -4
 2719 0002 86B0     		sub	sp, sp, #24
 2720              		.cfi_def_cfa_offset 32
 2721 0004 0390     		str	r0, [sp, #12]
 2722 0006 0291     		str	r1, [sp, #8]
 2723 0008 0192     		str	r2, [sp, #4]
 2724              	.LBB76:
 2725              		.loc 15 407 0
 2726 000a 029B     		ldr	r3, [sp, #8]
 2727 000c 032B     		cmp	r3, #3
 2728 000e 04D0     		beq	.L141
 2729              		.loc 15 408 0
 2730 0010 0398     		ldr	r0, [sp, #12]
 2731 0012 2C49     		ldr	r1, .L145
 2732 0014 FFF7FEFF 		bl	_ZL8chprintfP20BaseSequentialStreamPKcz
 2733 0018 51E0     		b	.L140
 2734              	.L141:
 2735              		.loc 15 412 0
 2736 001a 2B48     		ldr	r0, .L145+4
 2737 001c 0121     		movs	r1, #1
 2738 001e FFF7FEFF 		bl	_ZN3r2p4Node11set_enabledEb
 2739              		.loc 15 414 0
 2740 0022 2A4B     		ldr	r3, .L145+8
 2741 0024 1B78     		ldrb	r3, [r3]	@ zero_extendqisi2
 2742 0026 002B     		cmp	r3, #0
 2743 0028 08D0     		beq	.L143
 2744              		.loc 15 415 0
 2745 002a 2748     		ldr	r0, .L145+4
 2746 002c 2849     		ldr	r1, .L145+12
 2747 002e 294A     		ldr	r2, .L145+16
 2748 0030 294B     		ldr	r3, .L145+20
 2749 0032 FFF7FEFF 		bl	_ZN3r2p4Node9advertiseINS_9PIDCfgMsgEEEbRNS_9PublisherIT_EEPKcRKNS_4TimeE
 2750              		.loc 15 416 0
 2751 0036 254B     		ldr	r3, .L145+8
 2752 0038 0022     		movs	r2, #0
 2753 003a 1A70     		strb	r2, [r3]
 2754              	.L143:
 2755              		.loc 15 419 0
 2756 003c 05AB     		add	r3, sp, #20
 2757 003e 2448     		ldr	r0, .L145+12
 2758 0040 1946     		mov	r1, r3
 2759 0042 FFF7FEFF 		bl	_ZN3r2p9PublisherINS_9PIDCfgMsgEE5allocERPS1_
 2760 0046 0346     		mov	r3, r0
 2761 0048 002B     		cmp	r3, #0
 2762 004a 34D0     		beq	.L144
 2763              		.loc 15 420 0
 2764 004c 059C     		ldr	r4, [sp, #20]
 2765 004e 019B     		ldr	r3, [sp, #4]
ARM GAS  /tmp/ccypRU8x.s 			page 52


 2766 0050 1B68     		ldr	r3, [r3]
 2767 0052 1846     		mov	r0, r3
 2768 0054 FFF7FEFF 		bl	atof
 2769 0058 53EC102B 		fmrrd	r2, r3, d0
 2770 005c 1046     		mov	r0, r2
 2771 005e 1946     		mov	r1, r3
 2772 0060 FFF7FEFF 		bl	__aeabi_d2f
 2773 0064 0246     		mov	r2, r0	@ float
 2774 0066 A31C     		adds	r3, r4, #2
 2775 0068 1A60     		str	r2, [r3]	@ unaligned
 2776              		.loc 15 421 0
 2777 006a 059C     		ldr	r4, [sp, #20]
 2778 006c 019B     		ldr	r3, [sp, #4]
 2779 006e 0433     		adds	r3, r3, #4
 2780 0070 1B68     		ldr	r3, [r3]
 2781 0072 1846     		mov	r0, r3
 2782 0074 FFF7FEFF 		bl	atof
 2783 0078 53EC102B 		fmrrd	r2, r3, d0
 2784 007c 1046     		mov	r0, r2
 2785 007e 1946     		mov	r1, r3
 2786 0080 FFF7FEFF 		bl	__aeabi_d2f
 2787 0084 0246     		mov	r2, r0	@ float
 2788 0086 A31D     		adds	r3, r4, #6
 2789 0088 1A60     		str	r2, [r3]	@ unaligned
 2790              		.loc 15 422 0
 2791 008a 059C     		ldr	r4, [sp, #20]
 2792 008c 019B     		ldr	r3, [sp, #4]
 2793 008e 0833     		adds	r3, r3, #8
 2794 0090 1B68     		ldr	r3, [r3]
 2795 0092 1846     		mov	r0, r3
 2796 0094 FFF7FEFF 		bl	atof
 2797 0098 53EC102B 		fmrrd	r2, r3, d0
 2798 009c 1046     		mov	r0, r2
 2799 009e 1946     		mov	r1, r3
 2800 00a0 FFF7FEFF 		bl	__aeabi_d2f
 2801 00a4 0246     		mov	r2, r0	@ float
 2802 00a6 04F10A03 		add	r3, r4, #10
 2803 00aa 1A60     		str	r2, [r3]	@ unaligned
 2804              		.loc 15 423 0
 2805 00ac 059B     		ldr	r3, [sp, #20]
 2806 00ae 0848     		ldr	r0, .L145+12
 2807 00b0 1946     		mov	r1, r3
 2808 00b2 FFF7FEFF 		bl	_ZN3r2p9PublisherINS_9PIDCfgMsgEE7publishERS1_
 2809              	.L144:
 2810              		.loc 15 426 0
 2811 00b6 0448     		ldr	r0, .L145+4
 2812 00b8 0021     		movs	r1, #0
 2813 00ba FFF7FEFF 		bl	_ZN3r2p4Node11set_enabledEb
 2814              	.L140:
 2815              	.LBE76:
 2816              		.loc 15 427 0
 2817 00be 06B0     		add	sp, sp, #24
 2818              		.cfi_def_cfa_offset 8
 2819              		@ sp needed
 2820 00c0 10BD     		pop	{r4, pc}
 2821              	.L146:
 2822 00c2 00BF     		.align	2
ARM GAS  /tmp/ccypRU8x.s 			page 53


 2823              	.L145:
 2824 00c4 A0010000 		.word	.LC27
 2825 00c8 00000000 		.word	pidcfg_node
 2826 00cc 00000000 		.word	pidcfg_first_time
 2827 00d0 00000000 		.word	pidcfg_pub
 2828 00d4 C0010000 		.word	.LC28
 2829 00d8 00000000 		.word	_ZN3r2p4Time8INFINITEE
 2830              		.cfi_endproc
 2831              	.LFE606:
 2832              		.size	_ZL10cmd_pidcfgP20BaseSequentialStreamiPPc, .-_ZL10cmd_pidcfgP20BaseSequentialStreamiPPc
 2833 00dc AFF30080 		.section	.rodata
 2834 01c7 00       		.align	2
 2835              	.LC29:
 2836 01c8 7368656C 		.ascii	"shell\000"
 2836      6C00
 2837              		.section	.text._Z10shell_nodePv,"ax",%progbits
 2838              		.align	2
 2839              		.p2align 4,,15
 2840              		.global	_Z10shell_nodePv
 2841              		.thumb
 2842              		.thumb_func
 2843              		.type	_Z10shell_nodePv, %function
 2844              	_Z10shell_nodePv:
 2845              	.LFB607:
 2846              		.loc 15 436 0
 2847              		.cfi_startproc
 2848              		@ args = 0, pretend = 0, frame = 48
 2849              		@ frame_needed = 0, uses_anonymous_args = 0
 2850 0000 00B5     		push	{lr}
 2851              		.cfi_def_cfa_offset 4
 2852              		.cfi_offset 14, -4
 2853 0002 8DB0     		sub	sp, sp, #52
 2854              		.cfi_def_cfa_offset 56
 2855 0004 0190     		str	r0, [sp, #4]
 2856              	.LBB77:
 2857              		.loc 15 437 0
 2858 0006 03AB     		add	r3, sp, #12
 2859 0008 1846     		mov	r0, r3
 2860 000a 2849     		ldr	r1, .L151
 2861 000c 0122     		movs	r2, #1
 2862 000e FFF7FEFF 		bl	_ZN3r2p4NodeC1EPKcb
 2863              		.loc 15 438 0
 2864 0012 0023     		movs	r3, #0
 2865 0014 0B93     		str	r3, [sp, #44]
 2866              		.loc 15 443 0
 2867 0016 2648     		ldr	r0, .L151+4
 2868 0018 FFF7FEFF 		bl	sduObjectInit
 2869              		.loc 15 444 0
 2870 001c 2448     		ldr	r0, .L151+4
 2871 001e 2549     		ldr	r1, .L151+8
 2872 0020 FFF7FEFF 		bl	sduStart
 2873              		.loc 15 451 0
 2874 0024 234B     		ldr	r3, .L151+8
 2875 0026 1B68     		ldr	r3, [r3]
 2876 0028 1846     		mov	r0, r3
 2877 002a FFF7FEFF 		bl	_Z22usb_lld_disconnect_busP9USBDriver
 2878              		.loc 15 452 0
ARM GAS  /tmp/ccypRU8x.s 			page 54


 2879 002e 4FF4FA70 		mov	r0, #500
 2880 0032 FFF7FEFF 		bl	chThdSleep
 2881              		.loc 15 453 0
 2882 0036 1F4B     		ldr	r3, .L151+8
 2883 0038 1B68     		ldr	r3, [r3]
 2884 003a 1846     		mov	r0, r3
 2885 003c 1E49     		ldr	r1, .L151+12
 2886 003e FFF7FEFF 		bl	usbStart
 2887              		.loc 15 454 0
 2888 0042 1C4B     		ldr	r3, .L151+8
 2889 0044 1B68     		ldr	r3, [r3]
 2890 0046 1846     		mov	r0, r3
 2891 0048 FFF7FEFF 		bl	_Z19usb_lld_connect_busP9USBDriver
 2892              		.loc 15 459 0
 2893 004c FFF7FEFF 		bl	shellInit
 2894              	.L150:
 2895              		.loc 15 462 0
 2896 0050 0B9B     		ldr	r3, [sp, #44]
 2897 0052 002B     		cmp	r3, #0
 2898 0054 15D1     		bne	.L148
 2899              		.loc 15 462 0 is_stmt 0 discriminator 1
 2900 0056 164B     		ldr	r3, .L151+4
 2901 0058 D3F85432 		ldr	r3, [r3, #596]
 2902 005c 1B68     		ldr	r3, [r3]
 2903 005e 1B78     		ldrb	r3, [r3]	@ zero_extendqisi2
 2904 0060 042B     		cmp	r3, #4
 2905 0062 0ED1     		bne	.L148
 2906              		.loc 15 463 0 is_stmt 1
 2907 0064 B023     		movs	r3, #176
 2908 0066 6833     		adds	r3, r3, #104
 2909 0068 03F58153 		add	r3, r3, #4128
 2910 006c 1F33     		adds	r3, r3, #31
 2911 006e 0722     		movs	r2, #7
 2912 0070 1343     		orrs	r3, r3, r2
 2913 0072 0133     		adds	r3, r3, #1
 2914 0074 1148     		ldr	r0, .L151+16
 2915 0076 1946     		mov	r1, r3
 2916 0078 3F22     		movs	r2, #63
 2917 007a FFF7FEFF 		bl	shellCreate
 2918 007e 0B90     		str	r0, [sp, #44]
 2919 0080 09E0     		b	.L149
 2920              	.L148:
 2921              		.loc 15 464 0
 2922 0082 0B9B     		ldr	r3, [sp, #44]
 2923 0084 93F82030 		ldrb	r3, [r3, #32]	@ zero_extendqisi2
 2924 0088 0E2B     		cmp	r3, #14
 2925 008a 04D1     		bne	.L149
 2926              		.loc 15 465 0
 2927 008c 0B98     		ldr	r0, [sp, #44]
 2928 008e FFF7FEFF 		bl	chThdRelease
 2929              		.loc 15 466 0
 2930 0092 0023     		movs	r3, #0
 2931 0094 0B93     		str	r3, [sp, #44]
 2932              	.L149:
 2933              		.loc 15 469 0
 2934 0096 0AAB     		add	r3, sp, #40
 2935 0098 1846     		mov	r0, r3
ARM GAS  /tmp/ccypRU8x.s 			page 55


 2936 009a 4FF4FA71 		mov	r1, #500
 2937 009e FFF7FEFF 		bl	_ZN3r2p4Time2msEl
 2938 00a2 0AAB     		add	r3, sp, #40
 2939 00a4 1846     		mov	r0, r3
 2940 00a6 FFF7FEFF 		bl	_ZN3r2p6Thread5sleepERKNS_4TimeE
 2941 00aa D1E7     		b	.L150
 2942              	.L152:
 2943              		.align	2
 2944              	.L151:
 2945 00ac C8010000 		.word	.LC29
 2946 00b0 00000000 		.word	SDU1
 2947 00b4 00000000 		.word	serusbcfg
 2948 00b8 00000000 		.word	usbcfg
 2949 00bc 00000000 		.word	_ZL13usb_shell_cfg
 2950              	.LBE77:
 2951              		.cfi_endproc
 2952              	.LFE607:
 2953              		.size	_Z10shell_nodePv, .-_Z10shell_nodePv
 2954              		.section	.text._ZN3r2p4TimeC2IlEET_,"axG",%progbits,_ZN3r2p4TimeC5IlEET_,comdat
 2955              		.align	2
 2956              		.p2align 4,,15
 2957              		.weak	_ZN3r2p4TimeC2IlEET_
 2958              		.thumb
 2959              		.thumb_func
 2960              		.type	_ZN3r2p4TimeC2IlEET_, %function
 2961              	_ZN3r2p4TimeC2IlEET_:
 2962              	.LFB609:
 2963              		.loc 5 159 0
 2964              		.cfi_startproc
 2965              		@ args = 0, pretend = 0, frame = 8
 2966              		@ frame_needed = 0, uses_anonymous_args = 0
 2967              		@ link register save eliminated.
 2968 0000 82B0     		sub	sp, sp, #8
 2969              		.cfi_def_cfa_offset 8
 2970 0002 0190     		str	r0, [sp, #4]
 2971 0004 0091     		str	r1, [sp]
 2972              	.LBB78:
 2973              		.loc 5 161 0
 2974 0006 019B     		ldr	r3, [sp, #4]
 2975 0008 009A     		ldr	r2, [sp]
 2976 000a 1A60     		str	r2, [r3]
 2977              	.LBE78:
 2978              		.loc 5 162 0
 2979 000c 019B     		ldr	r3, [sp, #4]
 2980 000e 1846     		mov	r0, r3
 2981 0010 02B0     		add	sp, sp, #8
 2982              		.cfi_def_cfa_offset 0
 2983              		@ sp needed
 2984 0012 7047     		bx	lr
 2985              		.cfi_endproc
 2986              	.LFE609:
 2987              		.size	_ZN3r2p4TimeC2IlEET_, .-_ZN3r2p4TimeC2IlEET_
 2988              		.weak	_ZN3r2p4TimeC1IlEET_
 2989              		.thumb_set _ZN3r2p4TimeC1IlEET_,_ZN3r2p4TimeC2IlEET_
 2990 0014 AFF30080 		.section	.text._ZNK3r2p10ArrayQueueIPNS_7MessageEE10get_lengthEv,"axG",%progbits,_ZNK3r2p10ArrayQu
 2990      AFF30080 
 2990      AFF30080 
ARM GAS  /tmp/ccypRU8x.s 			page 56


 2991              		.align	2
 2992              		.p2align 4,,15
 2993              		.weak	_ZNK3r2p10ArrayQueueIPNS_7MessageEE10get_lengthEv
 2994              		.thumb
 2995              		.thumb_func
 2996              		.type	_ZNK3r2p10ArrayQueueIPNS_7MessageEE10get_lengthEv, %function
 2997              	_ZNK3r2p10ArrayQueueIPNS_7MessageEE10get_lengthEv:
 2998              	.LFB617:
 2999              		.file 16 "/home/ergae/r2p-sdk/core/Middleware/include/r2p/ArrayQueue.hpp"
 3000              		.loc 16 81 0
 3001              		.cfi_startproc
 3002              		@ args = 0, pretend = 0, frame = 8
 3003              		@ frame_needed = 0, uses_anonymous_args = 0
 3004              		@ link register save eliminated.
 3005 0000 82B0     		sub	sp, sp, #8
 3006              		.cfi_def_cfa_offset 8
 3007 0002 0190     		str	r0, [sp, #4]
 3008              		.loc 16 83 0
 3009 0004 019B     		ldr	r3, [sp, #4]
 3010 0006 5B68     		ldr	r3, [r3, #4]
 3011              		.loc 16 84 0
 3012 0008 1846     		mov	r0, r3
 3013 000a 02B0     		add	sp, sp, #8
 3014              		.cfi_def_cfa_offset 0
 3015              		@ sp needed
 3016 000c 7047     		bx	lr
 3017              		.cfi_endproc
 3018              	.LFE617:
 3019              		.size	_ZNK3r2p10ArrayQueueIPNS_7MessageEE10get_lengthEv, .-_ZNK3r2p10ArrayQueueIPNS_7MessageEE10ge
 3020 000e 00BF     		.section	.text._ZN3r2p10ArrayQueueIPNS_7MessageEE12fetch_unsafeERS2_,"axG",%progbits,_ZN3r2p10Arra
 3021              		.align	2
 3022              		.p2align 4,,15
 3023              		.weak	_ZN3r2p10ArrayQueueIPNS_7MessageEE12fetch_unsafeERS2_
 3024              		.thumb
 3025              		.thumb_func
 3026              		.type	_ZN3r2p10ArrayQueueIPNS_7MessageEE12fetch_unsafeERS2_, %function
 3027              	_ZN3r2p10ArrayQueueIPNS_7MessageEE12fetch_unsafeERS2_:
 3028              	.LFB618:
 3029              		.loc 16 52 0
 3030              		.cfi_startproc
 3031              		@ args = 0, pretend = 0, frame = 8
 3032              		@ frame_needed = 0, uses_anonymous_args = 0
 3033              		@ link register save eliminated.
 3034 0000 82B0     		sub	sp, sp, #8
 3035              		.cfi_def_cfa_offset 8
 3036 0002 0190     		str	r0, [sp, #4]
 3037 0004 0091     		str	r1, [sp]
 3038              		.loc 16 54 0
 3039 0006 019B     		ldr	r3, [sp, #4]
 3040 0008 9B68     		ldr	r3, [r3, #8]
 3041 000a 002B     		cmp	r3, #0
 3042 000c 23D0     		beq	.L159
 3043              		.loc 16 55 0
 3044 000e 019B     		ldr	r3, [sp, #4]
 3045 0010 9B68     		ldr	r3, [r3, #8]
 3046 0012 5A1E     		subs	r2, r3, #1
 3047 0014 019B     		ldr	r3, [sp, #4]
ARM GAS  /tmp/ccypRU8x.s 			page 57


 3048 0016 9A60     		str	r2, [r3, #8]
 3049              		.loc 16 56 0
 3050 0018 019B     		ldr	r3, [sp, #4]
 3051 001a DB68     		ldr	r3, [r3, #12]
 3052 001c 1A68     		ldr	r2, [r3]
 3053 001e 009B     		ldr	r3, [sp]
 3054 0020 1A60     		str	r2, [r3]
 3055              		.loc 16 57 0
 3056 0022 019B     		ldr	r3, [sp, #4]
 3057 0024 DB68     		ldr	r3, [r3, #12]
 3058 0026 1A1D     		adds	r2, r3, #4
 3059 0028 019B     		ldr	r3, [sp, #4]
 3060 002a DA60     		str	r2, [r3, #12]
 3061 002c 019B     		ldr	r3, [sp, #4]
 3062 002e DA68     		ldr	r2, [r3, #12]
 3063 0030 019B     		ldr	r3, [sp, #4]
 3064 0032 1968     		ldr	r1, [r3]
 3065 0034 019B     		ldr	r3, [sp, #4]
 3066 0036 5B68     		ldr	r3, [r3, #4]
 3067 0038 9B00     		lsls	r3, r3, #2
 3068 003a 0B44     		add	r3, r3, r1
 3069 003c 9A42     		cmp	r2, r3
 3070 003e 2CBF     		ite	cs
 3071 0040 0123     		movcs	r3, #1
 3072 0042 0023     		movcc	r3, #0
 3073 0044 DBB2     		uxtb	r3, r3
 3074 0046 002B     		cmp	r3, #0
 3075 0048 03D0     		beq	.L160
 3076              		.loc 16 58 0
 3077 004a 019B     		ldr	r3, [sp, #4]
 3078 004c 1A68     		ldr	r2, [r3]
 3079 004e 019B     		ldr	r3, [sp, #4]
 3080 0050 DA60     		str	r2, [r3, #12]
 3081              	.L160:
 3082              		.loc 16 60 0
 3083 0052 0123     		movs	r3, #1
 3084 0054 00E0     		b	.L161
 3085              	.L159:
 3086              		.loc 16 62 0
 3087 0056 0023     		movs	r3, #0
 3088              	.L161:
 3089              		.loc 16 63 0
 3090 0058 1846     		mov	r0, r3
 3091 005a 02B0     		add	sp, sp, #8
 3092              		.cfi_def_cfa_offset 0
 3093              		@ sp needed
 3094 005c 7047     		bx	lr
 3095              		.cfi_endproc
 3096              	.LFE618:
 3097              		.size	_ZN3r2p10ArrayQueueIPNS_7MessageEE12fetch_unsafeERS2_, .-_ZN3r2p10ArrayQueueIPNS_7MessageEE1
 3098 005e 00BF     		.section	.text._ZN3r2p10ArrayQueueIPNS_7MessageEE11post_unsafeES2_,"axG",%progbits,_ZN3r2p10ArrayQ
 3099              		.align	2
 3100              		.p2align 4,,15
 3101              		.weak	_ZN3r2p10ArrayQueueIPNS_7MessageEE11post_unsafeES2_
 3102              		.thumb
 3103              		.thumb_func
 3104              		.type	_ZN3r2p10ArrayQueueIPNS_7MessageEE11post_unsafeES2_, %function
ARM GAS  /tmp/ccypRU8x.s 			page 58


 3105              	_ZN3r2p10ArrayQueueIPNS_7MessageEE11post_unsafeES2_:
 3106              	.LFB619:
 3107              		.loc 16 37 0
 3108              		.cfi_startproc
 3109              		@ args = 0, pretend = 0, frame = 8
 3110              		@ frame_needed = 0, uses_anonymous_args = 0
 3111              		@ link register save eliminated.
 3112 0000 82B0     		sub	sp, sp, #8
 3113              		.cfi_def_cfa_offset 8
 3114 0002 0190     		str	r0, [sp, #4]
 3115 0004 0091     		str	r1, [sp]
 3116              		.loc 16 39 0
 3117 0006 019B     		ldr	r3, [sp, #4]
 3118 0008 9A68     		ldr	r2, [r3, #8]
 3119 000a 019B     		ldr	r3, [sp, #4]
 3120 000c 5B68     		ldr	r3, [r3, #4]
 3121 000e 9A42     		cmp	r2, r3
 3122 0010 22D2     		bcs	.L163
 3123              		.loc 16 40 0
 3124 0012 019B     		ldr	r3, [sp, #4]
 3125 0014 9B68     		ldr	r3, [r3, #8]
 3126 0016 5A1C     		adds	r2, r3, #1
 3127 0018 019B     		ldr	r3, [sp, #4]
 3128 001a 9A60     		str	r2, [r3, #8]
 3129              		.loc 16 41 0
 3130 001c 019B     		ldr	r3, [sp, #4]
 3131 001e 1B69     		ldr	r3, [r3, #16]
 3132 0020 009A     		ldr	r2, [sp]
 3133 0022 1A60     		str	r2, [r3]
 3134              		.loc 16 42 0
 3135 0024 019B     		ldr	r3, [sp, #4]
 3136 0026 1B69     		ldr	r3, [r3, #16]
 3137 0028 1A1D     		adds	r2, r3, #4
 3138 002a 019B     		ldr	r3, [sp, #4]
 3139 002c 1A61     		str	r2, [r3, #16]
 3140 002e 019B     		ldr	r3, [sp, #4]
 3141 0030 1A69     		ldr	r2, [r3, #16]
 3142 0032 019B     		ldr	r3, [sp, #4]
 3143 0034 1968     		ldr	r1, [r3]
 3144 0036 019B     		ldr	r3, [sp, #4]
 3145 0038 5B68     		ldr	r3, [r3, #4]
 3146 003a 9B00     		lsls	r3, r3, #2
 3147 003c 0B44     		add	r3, r3, r1
 3148 003e 9A42     		cmp	r2, r3
 3149 0040 2CBF     		ite	cs
 3150 0042 0123     		movcs	r3, #1
 3151 0044 0023     		movcc	r3, #0
 3152 0046 DBB2     		uxtb	r3, r3
 3153 0048 002B     		cmp	r3, #0
 3154 004a 03D0     		beq	.L164
 3155              		.loc 16 43 0
 3156 004c 019B     		ldr	r3, [sp, #4]
 3157 004e 1A68     		ldr	r2, [r3]
 3158 0050 019B     		ldr	r3, [sp, #4]
 3159 0052 1A61     		str	r2, [r3, #16]
 3160              	.L164:
 3161              		.loc 16 45 0
ARM GAS  /tmp/ccypRU8x.s 			page 59


 3162 0054 0123     		movs	r3, #1
 3163 0056 00E0     		b	.L165
 3164              	.L163:
 3165              		.loc 16 47 0
 3166 0058 0023     		movs	r3, #0
 3167              	.L165:
 3168              		.loc 16 48 0
 3169 005a 1846     		mov	r0, r3
 3170 005c 02B0     		add	sp, sp, #8
 3171              		.cfi_def_cfa_offset 0
 3172              		@ sp needed
 3173 005e 7047     		bx	lr
 3174              		.cfi_endproc
 3175              	.LFE619:
 3176              		.size	_ZN3r2p10ArrayQueueIPNS_7MessageEE11post_unsafeES2_, .-_ZN3r2p10ArrayQueueIPNS_7MessageEE11p
 3177              		.section	.text._ZN3r2p9PublisherINS_9Speed3MsgEEC2Ev,"axG",%progbits,_ZN3r2p9PublisherINS_9Speed3M
 3178              		.align	2
 3179              		.p2align 4,,15
 3180              		.weak	_ZN3r2p9PublisherINS_9Speed3MsgEEC2Ev
 3181              		.thumb
 3182              		.thumb_func
 3183              		.type	_ZN3r2p9PublisherINS_9Speed3MsgEEC2Ev, %function
 3184              	_ZN3r2p9PublisherINS_9Speed3MsgEEC2Ev:
 3185              	.LFB630:
 3186              		.file 17 "/home/ergae/r2p-sdk/core/Middleware/include/r2p/Publisher.hpp"
 3187              		.loc 17 47 0
 3188              		.cfi_startproc
 3189              		@ args = 0, pretend = 0, frame = 8
 3190              		@ frame_needed = 0, uses_anonymous_args = 0
 3191 0000 00B5     		push	{lr}
 3192              		.cfi_def_cfa_offset 4
 3193              		.cfi_offset 14, -4
 3194 0002 83B0     		sub	sp, sp, #12
 3195              		.cfi_def_cfa_offset 16
 3196 0004 0190     		str	r0, [sp, #4]
 3197              	.LBB79:
 3198              		.loc 17 47 0
 3199 0006 019B     		ldr	r3, [sp, #4]
 3200 0008 1846     		mov	r0, r3
 3201 000a FFF7FEFF 		bl	_ZN3r2p14LocalPublisherC2Ev
 3202 000e 019B     		ldr	r3, [sp, #4]
 3203 0010 034A     		ldr	r2, .L169
 3204 0012 1A60     		str	r2, [r3]
 3205              	.LBE79:
 3206              		.loc 17 50 0
 3207 0014 019B     		ldr	r3, [sp, #4]
 3208 0016 1846     		mov	r0, r3
 3209 0018 03B0     		add	sp, sp, #12
 3210              		.cfi_def_cfa_offset 4
 3211              		@ sp needed
 3212 001a 5DF804FB 		ldr	pc, [sp], #4
 3213              	.L170:
 3214 001e 00BF     		.align	2
 3215              	.L169:
 3216 0020 08000000 		.word	_ZTVN3r2p9PublisherINS_9Speed3MsgEEE+8
 3217              		.cfi_endproc
 3218              	.LFE630:
ARM GAS  /tmp/ccypRU8x.s 			page 60


 3219              		.size	_ZN3r2p9PublisherINS_9Speed3MsgEEC2Ev, .-_ZN3r2p9PublisherINS_9Speed3MsgEEC2Ev
 3220              		.weak	_ZN3r2p9PublisherINS_9Speed3MsgEEC1Ev
 3221              		.thumb_set _ZN3r2p9PublisherINS_9Speed3MsgEEC1Ev,_ZN3r2p9PublisherINS_9Speed3MsgEEC2Ev
 3222 0024 AFF30080 		.section	.text._ZN3r2p9PublisherINS_9PIDCfgMsgEEC2Ev,"axG",%progbits,_ZN3r2p9PublisherINS_9PIDCfgM
 3222      AFF30080 
 3222      AFF30080 
 3223              		.align	2
 3224              		.p2align 4,,15
 3225              		.weak	_ZN3r2p9PublisherINS_9PIDCfgMsgEEC2Ev
 3226              		.thumb
 3227              		.thumb_func
 3228              		.type	_ZN3r2p9PublisherINS_9PIDCfgMsgEEC2Ev, %function
 3229              	_ZN3r2p9PublisherINS_9PIDCfgMsgEEC2Ev:
 3230              	.LFB633:
 3231              		.loc 17 47 0
 3232              		.cfi_startproc
 3233              		@ args = 0, pretend = 0, frame = 8
 3234              		@ frame_needed = 0, uses_anonymous_args = 0
 3235 0000 00B5     		push	{lr}
 3236              		.cfi_def_cfa_offset 4
 3237              		.cfi_offset 14, -4
 3238 0002 83B0     		sub	sp, sp, #12
 3239              		.cfi_def_cfa_offset 16
 3240 0004 0190     		str	r0, [sp, #4]
 3241              	.LBB80:
 3242              		.loc 17 47 0
 3243 0006 019B     		ldr	r3, [sp, #4]
 3244 0008 1846     		mov	r0, r3
 3245 000a FFF7FEFF 		bl	_ZN3r2p14LocalPublisherC2Ev
 3246 000e 019B     		ldr	r3, [sp, #4]
 3247 0010 034A     		ldr	r2, .L174
 3248 0012 1A60     		str	r2, [r3]
 3249              	.LBE80:
 3250              		.loc 17 50 0
 3251 0014 019B     		ldr	r3, [sp, #4]
 3252 0016 1846     		mov	r0, r3
 3253 0018 03B0     		add	sp, sp, #12
 3254              		.cfi_def_cfa_offset 4
 3255              		@ sp needed
 3256 001a 5DF804FB 		ldr	pc, [sp], #4
 3257              	.L175:
 3258 001e 00BF     		.align	2
 3259              	.L174:
 3260 0020 08000000 		.word	_ZTVN3r2p9PublisherINS_9PIDCfgMsgEEE+8
 3261              		.cfi_endproc
 3262              	.LFE633:
 3263              		.size	_ZN3r2p9PublisherINS_9PIDCfgMsgEEC2Ev, .-_ZN3r2p9PublisherINS_9PIDCfgMsgEEC2Ev
 3264              		.weak	_ZN3r2p9PublisherINS_9PIDCfgMsgEEC1Ev
 3265              		.thumb_set _ZN3r2p9PublisherINS_9PIDCfgMsgEEC1Ev,_ZN3r2p9PublisherINS_9PIDCfgMsgEEC2Ev
 3266 0024 AFF30080 		.section	.text._ZN3r2p7PixyMsgC2Ev,"axG",%progbits,_ZN3r2p7PixyMsgC5Ev,comdat
 3266      AFF30080 
 3266      AFF30080 
 3267              		.align	2
 3268              		.p2align 4,,15
 3269              		.weak	_ZN3r2p7PixyMsgC2Ev
 3270              		.thumb
 3271              		.thumb_func
ARM GAS  /tmp/ccypRU8x.s 			page 61


 3272              		.type	_ZN3r2p7PixyMsgC2Ev, %function
 3273              	_ZN3r2p7PixyMsgC2Ev:
 3274              	.LFB637:
 3275              		.file 18 "/home/ergae/r2p-sdk/core/Middleware/include/r2p/msg/pixy.hpp"
 3276              		.loc 18 4 0
 3277              		.cfi_startproc
 3278              		@ args = 0, pretend = 0, frame = 8
 3279              		@ frame_needed = 0, uses_anonymous_args = 0
 3280 0000 00B5     		push	{lr}
 3281              		.cfi_def_cfa_offset 4
 3282              		.cfi_offset 14, -4
 3283 0002 83B0     		sub	sp, sp, #12
 3284              		.cfi_def_cfa_offset 16
 3285 0004 0190     		str	r0, [sp, #4]
 3286              	.LBB81:
 3287              		.loc 18 4 0
 3288 0006 019B     		ldr	r3, [sp, #4]
 3289 0008 1846     		mov	r0, r3
 3290 000a FFF7FEFF 		bl	_ZN3r2p7MessageC2Ev
 3291              	.LBE81:
 3292 000e 019B     		ldr	r3, [sp, #4]
 3293 0010 1846     		mov	r0, r3
 3294 0012 03B0     		add	sp, sp, #12
 3295              		.cfi_def_cfa_offset 4
 3296              		@ sp needed
 3297 0014 5DF804FB 		ldr	pc, [sp], #4
 3298              		.cfi_endproc
 3299              	.LFE637:
 3300              		.size	_ZN3r2p7PixyMsgC2Ev, .-_ZN3r2p7PixyMsgC2Ev
 3301              		.weak	_ZN3r2p7PixyMsgC1Ev
 3302              		.thumb_set _ZN3r2p7PixyMsgC1Ev,_ZN3r2p7PixyMsgC2Ev
 3303 0018 AFF30080 		.section	.text._ZN3r2p10SubscriberINS_7PixyMsgELj5EEC2EPFbRKS1_E,"axG",%progbits,_ZN3r2p10Subscrib
 3303      AFF30080 
 3304              		.align	2
 3305              		.p2align 4,,15
 3306              		.weak	_ZN3r2p10SubscriberINS_7PixyMsgELj5EEC2EPFbRKS1_E
 3307              		.thumb
 3308              		.thumb_func
 3309              		.type	_ZN3r2p10SubscriberINS_7PixyMsgELj5EEC2EPFbRKS1_E, %function
 3310              	_ZN3r2p10SubscriberINS_7PixyMsgELj5EEC2EPFbRKS1_E:
 3311              	.LFB639:
 3312              		.file 19 "/home/ergae/r2p-sdk/core/Middleware/include/r2p/Subscriber.hpp"
 3313              		.loc 19 31 0
 3314              		.cfi_startproc
 3315              		@ args = 0, pretend = 0, frame = 8
 3316              		@ frame_needed = 0, uses_anonymous_args = 0
 3317 0000 30B5     		push	{r4, r5, lr}
 3318              		.cfi_def_cfa_offset 12
 3319              		.cfi_offset 4, -12
 3320              		.cfi_offset 5, -8
 3321              		.cfi_offset 14, -4
 3322 0002 83B0     		sub	sp, sp, #12
 3323              		.cfi_def_cfa_offset 24
 3324 0004 0190     		str	r0, [sp, #4]
 3325 0006 0091     		str	r1, [sp]
 3326              	.LBB82:
 3327              		.loc 19 33 0
ARM GAS  /tmp/ccypRU8x.s 			page 62


 3328 0008 019A     		ldr	r2, [sp, #4]
 3329 000a 019B     		ldr	r3, [sp, #4]
 3330 000c 8833     		adds	r3, r3, #136
 3331 000e 1046     		mov	r0, r2
 3332 0010 1946     		mov	r1, r3
 3333 0012 0522     		movs	r2, #5
 3334 0014 009B     		ldr	r3, [sp]
 3335 0016 FFF7FEFF 		bl	_ZN3r2p16SubscriberExtBufINS_7PixyMsgEEC2EPPS1_jPFbRKS1_E
 3336 001a 019B     		ldr	r3, [sp, #4]
 3337 001c 094A     		ldr	r2, .L184
 3338 001e 1A60     		str	r2, [r3]
 3339 0020 019B     		ldr	r3, [sp, #4]
 3340 0022 3833     		adds	r3, r3, #56
 3341 0024 0424     		movs	r4, #4
 3342 0026 1D46     		mov	r5, r3
 3343 0028 04E0     		b	.L180
 3344              	.L181:
 3345              		.loc 19 33 0 is_stmt 0 discriminator 3
 3346 002a 2846     		mov	r0, r5
 3347 002c FFF7FEFF 		bl	_ZN3r2p7PixyMsgC1Ev
 3348 0030 1035     		adds	r5, r5, #16
 3349 0032 013C     		subs	r4, r4, #1
 3350              	.L180:
 3351              		.loc 19 33 0 discriminator 1
 3352 0034 B4F1FF3F 		cmp	r4, #-1
 3353 0038 F7D1     		bne	.L181
 3354              	.LBE82:
 3355              		.loc 19 34 0 is_stmt 1 discriminator 4
 3356 003a 019B     		ldr	r3, [sp, #4]
 3357 003c 1846     		mov	r0, r3
 3358 003e 03B0     		add	sp, sp, #12
 3359              		.cfi_def_cfa_offset 12
 3360              		@ sp needed
 3361 0040 30BD     		pop	{r4, r5, pc}
 3362              	.L185:
 3363 0042 00BF     		.align	2
 3364              	.L184:
 3365 0044 08000000 		.word	_ZTVN3r2p10SubscriberINS_7PixyMsgELj5EEE+8
 3366              		.cfi_endproc
 3367              	.LFE639:
 3368              		.size	_ZN3r2p10SubscriberINS_7PixyMsgELj5EEC2EPFbRKS1_E, .-_ZN3r2p10SubscriberINS_7PixyMsgELj5EEC2
 3369              		.weak	_ZN3r2p10SubscriberINS_7PixyMsgELj5EEC1EPFbRKS1_E
 3370              		.thumb_set _ZN3r2p10SubscriberINS_7PixyMsgELj5EEC1EPFbRKS1_E,_ZN3r2p10SubscriberINS_7PixyMsgELj5EE
 3371 0048 AFF30080 		.section	.text._ZN3r2p12ProximityMsgC2Ev,"axG",%progbits,_ZN3r2p12ProximityMsgC5Ev,comdat
 3371      AFF30080 
 3372              		.align	2
 3373              		.p2align 4,,15
 3374              		.weak	_ZN3r2p12ProximityMsgC2Ev
 3375              		.thumb
 3376              		.thumb_func
 3377              		.type	_ZN3r2p12ProximityMsgC2Ev, %function
 3378              	_ZN3r2p12ProximityMsgC2Ev:
 3379              	.LFB643:
 3380              		.file 20 "/home/ergae/r2p-sdk/core/Middleware/include/r2p/msg/proximity.hpp"
 3381              		.loc 20 7 0
 3382              		.cfi_startproc
 3383              		@ args = 0, pretend = 0, frame = 8
ARM GAS  /tmp/ccypRU8x.s 			page 63


 3384              		@ frame_needed = 0, uses_anonymous_args = 0
 3385 0000 00B5     		push	{lr}
 3386              		.cfi_def_cfa_offset 4
 3387              		.cfi_offset 14, -4
 3388 0002 83B0     		sub	sp, sp, #12
 3389              		.cfi_def_cfa_offset 16
 3390 0004 0190     		str	r0, [sp, #4]
 3391              	.LBB83:
 3392              		.loc 20 7 0
 3393 0006 019B     		ldr	r3, [sp, #4]
 3394 0008 1846     		mov	r0, r3
 3395 000a FFF7FEFF 		bl	_ZN3r2p7MessageC2Ev
 3396              	.LBE83:
 3397 000e 019B     		ldr	r3, [sp, #4]
 3398 0010 1846     		mov	r0, r3
 3399 0012 03B0     		add	sp, sp, #12
 3400              		.cfi_def_cfa_offset 4
 3401              		@ sp needed
 3402 0014 5DF804FB 		ldr	pc, [sp], #4
 3403              		.cfi_endproc
 3404              	.LFE643:
 3405              		.size	_ZN3r2p12ProximityMsgC2Ev, .-_ZN3r2p12ProximityMsgC2Ev
 3406              		.weak	_ZN3r2p12ProximityMsgC1Ev
 3407              		.thumb_set _ZN3r2p12ProximityMsgC1Ev,_ZN3r2p12ProximityMsgC2Ev
 3408 0018 AFF30080 		.section	.text._ZN3r2p10SubscriberINS_12ProximityMsgELj5EEC2EPFbRKS1_E,"axG",%progbits,_ZN3r2p10Su
 3408      AFF30080 
 3409              		.align	2
 3410              		.p2align 4,,15
 3411              		.weak	_ZN3r2p10SubscriberINS_12ProximityMsgELj5EEC2EPFbRKS1_E
 3412              		.thumb
 3413              		.thumb_func
 3414              		.type	_ZN3r2p10SubscriberINS_12ProximityMsgELj5EEC2EPFbRKS1_E, %function
 3415              	_ZN3r2p10SubscriberINS_12ProximityMsgELj5EEC2EPFbRKS1_E:
 3416              	.LFB645:
 3417              		.loc 19 31 0
 3418              		.cfi_startproc
 3419              		@ args = 0, pretend = 0, frame = 8
 3420              		@ frame_needed = 0, uses_anonymous_args = 0
 3421 0000 30B5     		push	{r4, r5, lr}
 3422              		.cfi_def_cfa_offset 12
 3423              		.cfi_offset 4, -12
 3424              		.cfi_offset 5, -8
 3425              		.cfi_offset 14, -4
 3426 0002 83B0     		sub	sp, sp, #12
 3427              		.cfi_def_cfa_offset 24
 3428 0004 0190     		str	r0, [sp, #4]
 3429 0006 0091     		str	r1, [sp]
 3430              	.LBB84:
 3431              		.loc 19 33 0
 3432 0008 019A     		ldr	r2, [sp, #4]
 3433 000a 019B     		ldr	r3, [sp, #4]
 3434 000c 9433     		adds	r3, r3, #148
 3435 000e 1046     		mov	r0, r2
 3436 0010 1946     		mov	r1, r3
 3437 0012 0522     		movs	r2, #5
 3438 0014 009B     		ldr	r3, [sp]
 3439 0016 FFF7FEFF 		bl	_ZN3r2p16SubscriberExtBufINS_12ProximityMsgEEC2EPPS1_jPFbRKS1_E
ARM GAS  /tmp/ccypRU8x.s 			page 64


 3440 001a 019B     		ldr	r3, [sp, #4]
 3441 001c 094A     		ldr	r2, .L194
 3442 001e 1A60     		str	r2, [r3]
 3443 0020 019B     		ldr	r3, [sp, #4]
 3444 0022 3833     		adds	r3, r3, #56
 3445 0024 0424     		movs	r4, #4
 3446 0026 1D46     		mov	r5, r3
 3447 0028 04E0     		b	.L190
 3448              	.L191:
 3449              		.loc 19 33 0 is_stmt 0 discriminator 3
 3450 002a 2846     		mov	r0, r5
 3451 002c FFF7FEFF 		bl	_ZN3r2p12ProximityMsgC1Ev
 3452 0030 1235     		adds	r5, r5, #18
 3453 0032 013C     		subs	r4, r4, #1
 3454              	.L190:
 3455              		.loc 19 33 0 discriminator 1
 3456 0034 B4F1FF3F 		cmp	r4, #-1
 3457 0038 F7D1     		bne	.L191
 3458              	.LBE84:
 3459              		.loc 19 34 0 is_stmt 1 discriminator 4
 3460 003a 019B     		ldr	r3, [sp, #4]
 3461 003c 1846     		mov	r0, r3
 3462 003e 03B0     		add	sp, sp, #12
 3463              		.cfi_def_cfa_offset 12
 3464              		@ sp needed
 3465 0040 30BD     		pop	{r4, r5, pc}
 3466              	.L195:
 3467 0042 00BF     		.align	2
 3468              	.L194:
 3469 0044 08000000 		.word	_ZTVN3r2p10SubscriberINS_12ProximityMsgELj5EEE+8
 3470              		.cfi_endproc
 3471              	.LFE645:
 3472              		.size	_ZN3r2p10SubscriberINS_12ProximityMsgELj5EEC2EPFbRKS1_E, .-_ZN3r2p10SubscriberINS_12Proximit
 3473              		.weak	_ZN3r2p10SubscriberINS_12ProximityMsgELj5EEC1EPFbRKS1_E
 3474              		.thumb_set _ZN3r2p10SubscriberINS_12ProximityMsgELj5EEC1EPFbRKS1_E,_ZN3r2p10SubscriberINS_12Proxim
 3475 0048 AFF30080 		.section	.text._ZN3r2p4Node9advertiseINS_9Speed3MsgEEEbRNS_9PublisherIT_EEPKcRKNS_4TimeE,"axG",%pr
 3475      AFF30080 
 3476              		.align	2
 3477              		.p2align 4,,15
 3478              		.weak	_ZN3r2p4Node9advertiseINS_9Speed3MsgEEEbRNS_9PublisherIT_EEPKcRKNS_4TimeE
 3479              		.thumb
 3480              		.thumb_func
 3481              		.type	_ZN3r2p4Node9advertiseINS_9Speed3MsgEEEbRNS_9PublisherIT_EEPKcRKNS_4TimeE, %function
 3482              	_ZN3r2p4Node9advertiseINS_9Speed3MsgEEEbRNS_9PublisherIT_EEPKcRKNS_4TimeE:
 3483              	.LFB647:
 3484              		.loc 12 117 0
 3485              		.cfi_startproc
 3486              		@ args = 0, pretend = 0, frame = 16
 3487              		@ frame_needed = 0, uses_anonymous_args = 0
 3488 0000 00B5     		push	{lr}
 3489              		.cfi_def_cfa_offset 4
 3490              		.cfi_offset 14, -4
 3491 0002 87B0     		sub	sp, sp, #28
 3492              		.cfi_def_cfa_offset 32
 3493 0004 0590     		str	r0, [sp, #20]
 3494 0006 0491     		str	r1, [sp, #16]
 3495 0008 0392     		str	r2, [sp, #12]
ARM GAS  /tmp/ccypRU8x.s 			page 65


 3496 000a 0293     		str	r3, [sp, #8]
 3497              		.loc 12 120 0
 3498 000c 049A     		ldr	r2, [sp, #16]
 3499 000e 0E23     		movs	r3, #14
 3500 0010 0093     		str	r3, [sp]
 3501 0012 0598     		ldr	r0, [sp, #20]
 3502 0014 1146     		mov	r1, r2
 3503 0016 039A     		ldr	r2, [sp, #12]
 3504 0018 029B     		ldr	r3, [sp, #8]
 3505 001a FFF7FEFF 		bl	_ZN3r2p4Node9advertiseERNS_14LocalPublisherEPKcRKNS_4TimeEj
 3506 001e 0346     		mov	r3, r0
 3507              		.loc 12 121 0
 3508 0020 1846     		mov	r0, r3
 3509 0022 07B0     		add	sp, sp, #28
 3510              		.cfi_def_cfa_offset 4
 3511              		@ sp needed
 3512 0024 5DF804FB 		ldr	pc, [sp], #4
 3513              		.cfi_endproc
 3514              	.LFE647:
 3515              		.size	_ZN3r2p4Node9advertiseINS_9Speed3MsgEEEbRNS_9PublisherIT_EEPKcRKNS_4TimeE, .-_ZN3r2p4Node9ad
 3516 0028 AFF30080 		.section	.text._ZN3r2p9PublisherINS_9Speed3MsgEE5allocERPS1_,"axG",%progbits,_ZN3r2p9PublisherINS_
 3516      AFF30080 
 3517              		.align	2
 3518              		.p2align 4,,15
 3519              		.weak	_ZN3r2p9PublisherINS_9Speed3MsgEE5allocERPS1_
 3520              		.thumb
 3521              		.thumb_func
 3522              		.type	_ZN3r2p9PublisherINS_9Speed3MsgEE5allocERPS1_, %function
 3523              	_ZN3r2p9PublisherINS_9Speed3MsgEE5allocERPS1_:
 3524              	.LFB648:
 3525              		.loc 17 25 0
 3526              		.cfi_startproc
 3527              		@ args = 0, pretend = 0, frame = 8
 3528              		@ frame_needed = 0, uses_anonymous_args = 0
 3529 0000 00B5     		push	{lr}
 3530              		.cfi_def_cfa_offset 4
 3531              		.cfi_offset 14, -4
 3532 0002 83B0     		sub	sp, sp, #12
 3533              		.cfi_def_cfa_offset 16
 3534 0004 0190     		str	r0, [sp, #4]
 3535 0006 0091     		str	r1, [sp]
 3536              		.loc 17 28 0
 3537 0008 019B     		ldr	r3, [sp, #4]
 3538 000a 1846     		mov	r0, r3
 3539 000c 0099     		ldr	r1, [sp]
 3540 000e FFF7FEFF 		bl	_ZN3r2p13BasePublisher5allocERPNS_7MessageE
 3541 0012 0346     		mov	r3, r0
 3542              		.loc 17 29 0
 3543 0014 1846     		mov	r0, r3
 3544 0016 03B0     		add	sp, sp, #12
 3545              		.cfi_def_cfa_offset 4
 3546              		@ sp needed
 3547 0018 5DF804FB 		ldr	pc, [sp], #4
 3548              		.cfi_endproc
 3549              	.LFE648:
 3550              		.size	_ZN3r2p9PublisherINS_9Speed3MsgEE5allocERPS1_, .-_ZN3r2p9PublisherINS_9Speed3MsgEE5allocERPS
 3551 001c AFF30080 		.section	.text._Z5clampIfET_S0_S0_S0_,"ax",%progbits
ARM GAS  /tmp/ccypRU8x.s 			page 66


 3552              		.align	2
 3553              		.p2align 4,,15
 3554              		.thumb
 3555              		.thumb_func
 3556              		.type	_Z5clampIfET_S0_S0_S0_, %function
 3557              	_Z5clampIfET_S0_S0_S0_:
 3558              	.LFB649:
 3559              		.loc 15 53 0
 3560              		.cfi_startproc
 3561              		@ args = 0, pretend = 0, frame = 16
 3562              		@ frame_needed = 0, uses_anonymous_args = 0
 3563              		@ link register save eliminated.
 3564 0000 84B0     		sub	sp, sp, #16
 3565              		.cfi_def_cfa_offset 16
 3566 0002 8DED030A 		fsts	s0, [sp, #12]
 3567 0006 CDED020A 		fsts	s1, [sp, #8]
 3568 000a 8DED011A 		fsts	s2, [sp, #4]
 3569              		.loc 15 54 0
 3570 000e 9DED027A 		flds	s14, [sp, #8]
 3571 0012 DDED037A 		flds	s15, [sp, #12]
 3572 0016 B4EEE77A 		fcmpes	s14, s15
 3573 001a F1EE10FA 		fmstat
 3574 001e 01D5     		bpl	.L210
 3575              		.loc 15 54 0 is_stmt 0 discriminator 1
 3576 0020 039B     		ldr	r3, [sp, #12]	@ float
 3577 0022 0BE0     		b	.L203
 3578              	.L210:
 3579              		.loc 15 54 0 discriminator 2
 3580 0024 9DED027A 		flds	s14, [sp, #8]
 3581 0028 DDED017A 		flds	s15, [sp, #4]
 3582 002c B4EEE77A 		fcmpes	s14, s15
 3583 0030 F1EE10FA 		fmstat
 3584 0034 01DD     		ble	.L211
 3585              		.loc 15 54 0 discriminator 4
 3586 0036 019B     		ldr	r3, [sp, #4]	@ float
 3587 0038 00E0     		b	.L203
 3588              	.L211:
 3589              		.loc 15 54 0 discriminator 5
 3590 003a 029B     		ldr	r3, [sp, #8]	@ float
 3591              	.L203:
 3592              		.loc 15 54 0 discriminator 8
 3593 003c 07EE903A 		fmsr	s15, r3
 3594              		.loc 15 55 0 is_stmt 1 discriminator 8
 3595 0040 B0EE670A 		fcpys	s0, s15
 3596 0044 04B0     		add	sp, sp, #16
 3597              		.cfi_def_cfa_offset 0
 3598              		@ sp needed
 3599 0046 7047     		bx	lr
 3600              		.cfi_endproc
 3601              	.LFE649:
 3602              		.size	_Z5clampIfET_S0_S0_S0_, .-_Z5clampIfET_S0_S0_S0_
 3603 0048 AFF30080 		.section	.text._ZN3r2p9PublisherINS_9Speed3MsgEE7publishERS1_,"axG",%progbits,_ZN3r2p9PublisherINS
 3603      AFF30080 
 3604              		.align	2
 3605              		.p2align 4,,15
 3606              		.weak	_ZN3r2p9PublisherINS_9Speed3MsgEE7publishERS1_
 3607              		.thumb
ARM GAS  /tmp/ccypRU8x.s 			page 67


 3608              		.thumb_func
 3609              		.type	_ZN3r2p9PublisherINS_9Speed3MsgEE7publishERS1_, %function
 3610              	_ZN3r2p9PublisherINS_9Speed3MsgEE7publishERS1_:
 3611              	.LFB650:
 3612              		.loc 17 33 0
 3613              		.cfi_startproc
 3614              		@ args = 0, pretend = 0, frame = 8
 3615              		@ frame_needed = 0, uses_anonymous_args = 0
 3616 0000 00B5     		push	{lr}
 3617              		.cfi_def_cfa_offset 4
 3618              		.cfi_offset 14, -4
 3619 0002 83B0     		sub	sp, sp, #12
 3620              		.cfi_def_cfa_offset 16
 3621 0004 0190     		str	r0, [sp, #4]
 3622 0006 0091     		str	r1, [sp]
 3623              		.loc 17 36 0
 3624 0008 019A     		ldr	r2, [sp, #4]
 3625 000a 009B     		ldr	r3, [sp]
 3626 000c 1046     		mov	r0, r2
 3627 000e 1946     		mov	r1, r3
 3628 0010 FFF7FEFF 		bl	_ZN3r2p13BasePublisher7publishERNS_7MessageE
 3629 0014 0346     		mov	r3, r0
 3630              		.loc 17 37 0
 3631 0016 1846     		mov	r0, r3
 3632 0018 03B0     		add	sp, sp, #12
 3633              		.cfi_def_cfa_offset 4
 3634              		@ sp needed
 3635 001a 5DF804FB 		ldr	pc, [sp], #4
 3636              		.cfi_endproc
 3637              	.LFE650:
 3638              		.size	_ZN3r2p9PublisherINS_9Speed3MsgEE7publishERS1_, .-_ZN3r2p9PublisherINS_9Speed3MsgEE7publishE
 3639 001e 00BF     		.section	.text._ZN3r2p4Node9subscribeINS_7PixyMsgELj5EEEbRNS_10SubscriberIT_XT0_EEEPKc,"axG",%prog
 3640              		.align	2
 3641              		.p2align 4,,15
 3642              		.weak	_ZN3r2p4Node9subscribeINS_7PixyMsgELj5EEEbRNS_10SubscriberIT_XT0_EEEPKc
 3643              		.thumb
 3644              		.thumb_func
 3645              		.type	_ZN3r2p4Node9subscribeINS_7PixyMsgELj5EEEbRNS_10SubscriberIT_XT0_EEEPKc, %function
 3646              	_ZN3r2p4Node9subscribeINS_7PixyMsgELj5EEEbRNS_10SubscriberIT_XT0_EEEPKc:
 3647              	.LFB651:
 3648              		.loc 12 133 0
 3649              		.cfi_startproc
 3650              		@ args = 0, pretend = 0, frame = 16
 3651              		@ frame_needed = 0, uses_anonymous_args = 0
 3652 0000 10B5     		push	{r4, lr}
 3653              		.cfi_def_cfa_offset 8
 3654              		.cfi_offset 4, -8
 3655              		.cfi_offset 14, -4
 3656 0002 86B0     		sub	sp, sp, #24
 3657              		.cfi_def_cfa_offset 32
 3658 0004 0590     		str	r0, [sp, #20]
 3659 0006 0491     		str	r1, [sp, #16]
 3660 0008 0392     		str	r2, [sp, #12]
 3661              		.loc 12 135 0
 3662 000a 049A     		ldr	r2, [sp, #16]
 3663 000c 049B     		ldr	r3, [sp, #16]
 3664 000e 03F13804 		add	r4, r3, #56
ARM GAS  /tmp/ccypRU8x.s 			page 68


 3665 0012 1023     		movs	r3, #16
 3666 0014 0093     		str	r3, [sp]
 3667 0016 0598     		ldr	r0, [sp, #20]
 3668 0018 1146     		mov	r1, r2
 3669 001a 039A     		ldr	r2, [sp, #12]
 3670 001c 2346     		mov	r3, r4
 3671 001e FFF7FEFF 		bl	_ZN3r2p4Node9subscribeERNS_15LocalSubscriberEPKcPNS_7MessageEj
 3672 0022 0346     		mov	r3, r0
 3673              		.loc 12 136 0
 3674 0024 1846     		mov	r0, r3
 3675 0026 06B0     		add	sp, sp, #24
 3676              		.cfi_def_cfa_offset 8
 3677              		@ sp needed
 3678 0028 10BD     		pop	{r4, pc}
 3679              		.cfi_endproc
 3680              	.LFE651:
 3681              		.size	_ZN3r2p4Node9subscribeINS_7PixyMsgELj5EEEbRNS_10SubscriberIT_XT0_EEEPKc, .-_ZN3r2p4Node9subs
 3682 002a 00BFAFF3 		.section	.text._ZN3r2p16SubscriberExtBufINS_7PixyMsgEE5fetchERPS1_,"axG",%progbits,_ZN3r2p16Subscr
 3682      0080
 3683              		.align	2
 3684              		.p2align 4,,15
 3685              		.weak	_ZN3r2p16SubscriberExtBufINS_7PixyMsgEE5fetchERPS1_
 3686              		.thumb
 3687              		.thumb_func
 3688              		.type	_ZN3r2p16SubscriberExtBufINS_7PixyMsgEE5fetchERPS1_, %function
 3689              	_ZN3r2p16SubscriberExtBufINS_7PixyMsgEE5fetchERPS1_:
 3690              	.LFB652:
 3691              		.file 21 "/home/ergae/r2p-sdk/core/Middleware/include/r2p/SubscriberExtBuf.hpp"
 3692              		.loc 21 31 0
 3693              		.cfi_startproc
 3694              		@ args = 0, pretend = 0, frame = 8
 3695              		@ frame_needed = 0, uses_anonymous_args = 0
 3696 0000 00B5     		push	{lr}
 3697              		.cfi_def_cfa_offset 4
 3698              		.cfi_offset 14, -4
 3699 0002 83B0     		sub	sp, sp, #12
 3700              		.cfi_def_cfa_offset 16
 3701 0004 0190     		str	r0, [sp, #4]
 3702 0006 0091     		str	r1, [sp]
 3703              		.loc 21 34 0
 3704 0008 019B     		ldr	r3, [sp, #4]
 3705 000a 1846     		mov	r0, r3
 3706 000c 0099     		ldr	r1, [sp]
 3707 000e FFF7FEFF 		bl	_ZN3r2p15LocalSubscriber5fetchERPNS_7MessageE
 3708 0012 0346     		mov	r3, r0
 3709              		.loc 21 35 0
 3710 0014 1846     		mov	r0, r3
 3711 0016 03B0     		add	sp, sp, #12
 3712              		.cfi_def_cfa_offset 4
 3713              		@ sp needed
 3714 0018 5DF804FB 		ldr	pc, [sp], #4
 3715              		.cfi_endproc
 3716              	.LFE652:
 3717              		.size	_ZN3r2p16SubscriberExtBufINS_7PixyMsgEE5fetchERPS1_, .-_ZN3r2p16SubscriberExtBufINS_7PixyMsg
 3718 001c AFF30080 		.section	.text._ZN3r2p16SubscriberExtBufINS_7PixyMsgEE7releaseERS1_,"axG",%progbits,_ZN3r2p16Subsc
 3719              		.align	2
 3720              		.p2align 4,,15
ARM GAS  /tmp/ccypRU8x.s 			page 69


 3721              		.weak	_ZN3r2p16SubscriberExtBufINS_7PixyMsgEE7releaseERS1_
 3722              		.thumb
 3723              		.thumb_func
 3724              		.type	_ZN3r2p16SubscriberExtBufINS_7PixyMsgEE7releaseERS1_, %function
 3725              	_ZN3r2p16SubscriberExtBufINS_7PixyMsgEE7releaseERS1_:
 3726              	.LFB653:
 3727              		.loc 21 57 0
 3728              		.cfi_startproc
 3729              		@ args = 0, pretend = 0, frame = 8
 3730              		@ frame_needed = 0, uses_anonymous_args = 0
 3731 0000 00B5     		push	{lr}
 3732              		.cfi_def_cfa_offset 4
 3733              		.cfi_offset 14, -4
 3734 0002 83B0     		sub	sp, sp, #12
 3735              		.cfi_def_cfa_offset 16
 3736 0004 0190     		str	r0, [sp, #4]
 3737 0006 0091     		str	r1, [sp]
 3738              		.loc 21 60 0
 3739 0008 019A     		ldr	r2, [sp, #4]
 3740 000a 009B     		ldr	r3, [sp]
 3741 000c 1046     		mov	r0, r2
 3742 000e 1946     		mov	r1, r3
 3743 0010 FFF7FEFF 		bl	_ZN3r2p14BaseSubscriber7releaseERNS_7MessageE
 3744 0014 0346     		mov	r3, r0
 3745              		.loc 21 61 0
 3746 0016 1846     		mov	r0, r3
 3747 0018 03B0     		add	sp, sp, #12
 3748              		.cfi_def_cfa_offset 4
 3749              		@ sp needed
 3750 001a 5DF804FB 		ldr	pc, [sp], #4
 3751              		.cfi_endproc
 3752              	.LFE653:
 3753              		.size	_ZN3r2p16SubscriberExtBufINS_7PixyMsgEE7releaseERS1_, .-_ZN3r2p16SubscriberExtBufINS_7PixyMs
 3754 001e 00BF     		.section	.text._ZN3r2p4Node9subscribeINS_12ProximityMsgELj5EEEbRNS_10SubscriberIT_XT0_EEEPKc,"axG"
 3755              		.align	2
 3756              		.p2align 4,,15
 3757              		.weak	_ZN3r2p4Node9subscribeINS_12ProximityMsgELj5EEEbRNS_10SubscriberIT_XT0_EEEPKc
 3758              		.thumb
 3759              		.thumb_func
 3760              		.type	_ZN3r2p4Node9subscribeINS_12ProximityMsgELj5EEEbRNS_10SubscriberIT_XT0_EEEPKc, %function
 3761              	_ZN3r2p4Node9subscribeINS_12ProximityMsgELj5EEEbRNS_10SubscriberIT_XT0_EEEPKc:
 3762              	.LFB654:
 3763              		.loc 12 133 0
 3764              		.cfi_startproc
 3765              		@ args = 0, pretend = 0, frame = 16
 3766              		@ frame_needed = 0, uses_anonymous_args = 0
 3767 0000 10B5     		push	{r4, lr}
 3768              		.cfi_def_cfa_offset 8
 3769              		.cfi_offset 4, -8
 3770              		.cfi_offset 14, -4
 3771 0002 86B0     		sub	sp, sp, #24
 3772              		.cfi_def_cfa_offset 32
 3773 0004 0590     		str	r0, [sp, #20]
 3774 0006 0491     		str	r1, [sp, #16]
 3775 0008 0392     		str	r2, [sp, #12]
 3776              		.loc 12 135 0
 3777 000a 049A     		ldr	r2, [sp, #16]
ARM GAS  /tmp/ccypRU8x.s 			page 70


 3778 000c 049B     		ldr	r3, [sp, #16]
 3779 000e 03F13804 		add	r4, r3, #56
 3780 0012 1223     		movs	r3, #18
 3781 0014 0093     		str	r3, [sp]
 3782 0016 0598     		ldr	r0, [sp, #20]
 3783 0018 1146     		mov	r1, r2
 3784 001a 039A     		ldr	r2, [sp, #12]
 3785 001c 2346     		mov	r3, r4
 3786 001e FFF7FEFF 		bl	_ZN3r2p4Node9subscribeERNS_15LocalSubscriberEPKcPNS_7MessageEj
 3787 0022 0346     		mov	r3, r0
 3788              		.loc 12 136 0
 3789 0024 1846     		mov	r0, r3
 3790 0026 06B0     		add	sp, sp, #24
 3791              		.cfi_def_cfa_offset 8
 3792              		@ sp needed
 3793 0028 10BD     		pop	{r4, pc}
 3794              		.cfi_endproc
 3795              	.LFE654:
 3796              		.size	_ZN3r2p4Node9subscribeINS_12ProximityMsgELj5EEEbRNS_10SubscriberIT_XT0_EEEPKc, .-_ZN3r2p4Nod
 3797 002a 00BFAFF3 		.section	.text._ZN3r2p16SubscriberExtBufINS_12ProximityMsgEE5fetchERPS1_,"axG",%progbits,_ZN3r2p16
 3797      0080
 3798              		.align	2
 3799              		.p2align 4,,15
 3800              		.weak	_ZN3r2p16SubscriberExtBufINS_12ProximityMsgEE5fetchERPS1_
 3801              		.thumb
 3802              		.thumb_func
 3803              		.type	_ZN3r2p16SubscriberExtBufINS_12ProximityMsgEE5fetchERPS1_, %function
 3804              	_ZN3r2p16SubscriberExtBufINS_12ProximityMsgEE5fetchERPS1_:
 3805              	.LFB655:
 3806              		.loc 21 31 0
 3807              		.cfi_startproc
 3808              		@ args = 0, pretend = 0, frame = 8
 3809              		@ frame_needed = 0, uses_anonymous_args = 0
 3810 0000 00B5     		push	{lr}
 3811              		.cfi_def_cfa_offset 4
 3812              		.cfi_offset 14, -4
 3813 0002 83B0     		sub	sp, sp, #12
 3814              		.cfi_def_cfa_offset 16
 3815 0004 0190     		str	r0, [sp, #4]
 3816 0006 0091     		str	r1, [sp]
 3817              		.loc 21 34 0
 3818 0008 019B     		ldr	r3, [sp, #4]
 3819 000a 1846     		mov	r0, r3
 3820 000c 0099     		ldr	r1, [sp]
 3821 000e FFF7FEFF 		bl	_ZN3r2p15LocalSubscriber5fetchERPNS_7MessageE
 3822 0012 0346     		mov	r3, r0
 3823              		.loc 21 35 0
 3824 0014 1846     		mov	r0, r3
 3825 0016 03B0     		add	sp, sp, #12
 3826              		.cfi_def_cfa_offset 4
 3827              		@ sp needed
 3828 0018 5DF804FB 		ldr	pc, [sp], #4
 3829              		.cfi_endproc
 3830              	.LFE655:
 3831              		.size	_ZN3r2p16SubscriberExtBufINS_12ProximityMsgEE5fetchERPS1_, .-_ZN3r2p16SubscriberExtBufINS_12
 3832 001c AFF30080 		.section	.text._ZN3r2p16SubscriberExtBufINS_12ProximityMsgEE7releaseERS1_,"axG",%progbits,_ZN3r2p1
 3833              		.align	2
ARM GAS  /tmp/ccypRU8x.s 			page 71


 3834              		.p2align 4,,15
 3835              		.weak	_ZN3r2p16SubscriberExtBufINS_12ProximityMsgEE7releaseERS1_
 3836              		.thumb
 3837              		.thumb_func
 3838              		.type	_ZN3r2p16SubscriberExtBufINS_12ProximityMsgEE7releaseERS1_, %function
 3839              	_ZN3r2p16SubscriberExtBufINS_12ProximityMsgEE7releaseERS1_:
 3840              	.LFB656:
 3841              		.loc 21 57 0
 3842              		.cfi_startproc
 3843              		@ args = 0, pretend = 0, frame = 8
 3844              		@ frame_needed = 0, uses_anonymous_args = 0
 3845 0000 00B5     		push	{lr}
 3846              		.cfi_def_cfa_offset 4
 3847              		.cfi_offset 14, -4
 3848 0002 83B0     		sub	sp, sp, #12
 3849              		.cfi_def_cfa_offset 16
 3850 0004 0190     		str	r0, [sp, #4]
 3851 0006 0091     		str	r1, [sp]
 3852              		.loc 21 60 0
 3853 0008 019A     		ldr	r2, [sp, #4]
 3854 000a 009B     		ldr	r3, [sp]
 3855 000c 1046     		mov	r0, r2
 3856 000e 1946     		mov	r1, r3
 3857 0010 FFF7FEFF 		bl	_ZN3r2p14BaseSubscriber7releaseERNS_7MessageE
 3858 0014 0346     		mov	r3, r0
 3859              		.loc 21 61 0
 3860 0016 1846     		mov	r0, r3
 3861 0018 03B0     		add	sp, sp, #12
 3862              		.cfi_def_cfa_offset 4
 3863              		@ sp needed
 3864 001a 5DF804FB 		ldr	pc, [sp], #4
 3865              		.cfi_endproc
 3866              	.LFE656:
 3867              		.size	_ZN3r2p16SubscriberExtBufINS_12ProximityMsgEE7releaseERS1_, .-_ZN3r2p16SubscriberExtBufINS_1
 3868 001e 00BF     		.section	.text._ZN3r2p4Node9advertiseINS_9PIDCfgMsgEEEbRNS_9PublisherIT_EEPKcRKNS_4TimeE,"axG",%pr
 3869              		.align	2
 3870              		.p2align 4,,15
 3871              		.weak	_ZN3r2p4Node9advertiseINS_9PIDCfgMsgEEEbRNS_9PublisherIT_EEPKcRKNS_4TimeE
 3872              		.thumb
 3873              		.thumb_func
 3874              		.type	_ZN3r2p4Node9advertiseINS_9PIDCfgMsgEEEbRNS_9PublisherIT_EEPKcRKNS_4TimeE, %function
 3875              	_ZN3r2p4Node9advertiseINS_9PIDCfgMsgEEEbRNS_9PublisherIT_EEPKcRKNS_4TimeE:
 3876              	.LFB657:
 3877              		.loc 12 117 0
 3878              		.cfi_startproc
 3879              		@ args = 0, pretend = 0, frame = 16
 3880              		@ frame_needed = 0, uses_anonymous_args = 0
 3881 0000 00B5     		push	{lr}
 3882              		.cfi_def_cfa_offset 4
 3883              		.cfi_offset 14, -4
 3884 0002 87B0     		sub	sp, sp, #28
 3885              		.cfi_def_cfa_offset 32
 3886 0004 0590     		str	r0, [sp, #20]
 3887 0006 0491     		str	r1, [sp, #16]
 3888 0008 0392     		str	r2, [sp, #12]
 3889 000a 0293     		str	r3, [sp, #8]
 3890              		.loc 12 120 0
ARM GAS  /tmp/ccypRU8x.s 			page 72


 3891 000c 049A     		ldr	r2, [sp, #16]
 3892 000e 0E23     		movs	r3, #14
 3893 0010 0093     		str	r3, [sp]
 3894 0012 0598     		ldr	r0, [sp, #20]
 3895 0014 1146     		mov	r1, r2
 3896 0016 039A     		ldr	r2, [sp, #12]
 3897 0018 029B     		ldr	r3, [sp, #8]
 3898 001a FFF7FEFF 		bl	_ZN3r2p4Node9advertiseERNS_14LocalPublisherEPKcRKNS_4TimeEj
 3899 001e 0346     		mov	r3, r0
 3900              		.loc 12 121 0
 3901 0020 1846     		mov	r0, r3
 3902 0022 07B0     		add	sp, sp, #28
 3903              		.cfi_def_cfa_offset 4
 3904              		@ sp needed
 3905 0024 5DF804FB 		ldr	pc, [sp], #4
 3906              		.cfi_endproc
 3907              	.LFE657:
 3908              		.size	_ZN3r2p4Node9advertiseINS_9PIDCfgMsgEEEbRNS_9PublisherIT_EEPKcRKNS_4TimeE, .-_ZN3r2p4Node9ad
 3909 0028 AFF30080 		.section	.text._ZN3r2p9PublisherINS_9PIDCfgMsgEE5allocERPS1_,"axG",%progbits,_ZN3r2p9PublisherINS_
 3909      AFF30080 
 3910              		.align	2
 3911              		.p2align 4,,15
 3912              		.weak	_ZN3r2p9PublisherINS_9PIDCfgMsgEE5allocERPS1_
 3913              		.thumb
 3914              		.thumb_func
 3915              		.type	_ZN3r2p9PublisherINS_9PIDCfgMsgEE5allocERPS1_, %function
 3916              	_ZN3r2p9PublisherINS_9PIDCfgMsgEE5allocERPS1_:
 3917              	.LFB658:
 3918              		.loc 17 25 0
 3919              		.cfi_startproc
 3920              		@ args = 0, pretend = 0, frame = 8
 3921              		@ frame_needed = 0, uses_anonymous_args = 0
 3922 0000 00B5     		push	{lr}
 3923              		.cfi_def_cfa_offset 4
 3924              		.cfi_offset 14, -4
 3925 0002 83B0     		sub	sp, sp, #12
 3926              		.cfi_def_cfa_offset 16
 3927 0004 0190     		str	r0, [sp, #4]
 3928 0006 0091     		str	r1, [sp]
 3929              		.loc 17 28 0
 3930 0008 019B     		ldr	r3, [sp, #4]
 3931 000a 1846     		mov	r0, r3
 3932 000c 0099     		ldr	r1, [sp]
 3933 000e FFF7FEFF 		bl	_ZN3r2p13BasePublisher5allocERPNS_7MessageE
 3934 0012 0346     		mov	r3, r0
 3935              		.loc 17 29 0
 3936 0014 1846     		mov	r0, r3
 3937 0016 03B0     		add	sp, sp, #12
 3938              		.cfi_def_cfa_offset 4
 3939              		@ sp needed
 3940 0018 5DF804FB 		ldr	pc, [sp], #4
 3941              		.cfi_endproc
 3942              	.LFE658:
 3943              		.size	_ZN3r2p9PublisherINS_9PIDCfgMsgEE5allocERPS1_, .-_ZN3r2p9PublisherINS_9PIDCfgMsgEE5allocERPS
 3944 001c AFF30080 		.section	.text._ZN3r2p9PublisherINS_9PIDCfgMsgEE7publishERS1_,"axG",%progbits,_ZN3r2p9PublisherINS
 3945              		.align	2
 3946              		.p2align 4,,15
ARM GAS  /tmp/ccypRU8x.s 			page 73


 3947              		.weak	_ZN3r2p9PublisherINS_9PIDCfgMsgEE7publishERS1_
 3948              		.thumb
 3949              		.thumb_func
 3950              		.type	_ZN3r2p9PublisherINS_9PIDCfgMsgEE7publishERS1_, %function
 3951              	_ZN3r2p9PublisherINS_9PIDCfgMsgEE7publishERS1_:
 3952              	.LFB659:
 3953              		.loc 17 33 0
 3954              		.cfi_startproc
 3955              		@ args = 0, pretend = 0, frame = 8
 3956              		@ frame_needed = 0, uses_anonymous_args = 0
 3957 0000 00B5     		push	{lr}
 3958              		.cfi_def_cfa_offset 4
 3959              		.cfi_offset 14, -4
 3960 0002 83B0     		sub	sp, sp, #12
 3961              		.cfi_def_cfa_offset 16
 3962 0004 0190     		str	r0, [sp, #4]
 3963 0006 0091     		str	r1, [sp]
 3964              		.loc 17 36 0
 3965 0008 019A     		ldr	r2, [sp, #4]
 3966 000a 009B     		ldr	r3, [sp]
 3967 000c 1046     		mov	r0, r2
 3968 000e 1946     		mov	r1, r3
 3969 0010 FFF7FEFF 		bl	_ZN3r2p13BasePublisher7publishERNS_7MessageE
 3970 0014 0346     		mov	r3, r0
 3971              		.loc 17 37 0
 3972 0016 1846     		mov	r0, r3
 3973 0018 03B0     		add	sp, sp, #12
 3974              		.cfi_def_cfa_offset 4
 3975              		@ sp needed
 3976 001a 5DF804FB 		ldr	pc, [sp], #4
 3977              		.cfi_endproc
 3978              	.LFE659:
 3979              		.size	_ZN3r2p9PublisherINS_9PIDCfgMsgEE7publishERS1_, .-_ZN3r2p9PublisherINS_9PIDCfgMsgEE7publishE
 3980 001e 00BF     		.section	.text._ZN3r2p16SubscriberExtBufINS_7PixyMsgEEC2EPPS1_jPFbRKS1_E,"axG",%progbits,_ZN3r2p16
 3981              		.align	2
 3982              		.p2align 4,,15
 3983              		.weak	_ZN3r2p16SubscriberExtBufINS_7PixyMsgEEC2EPPS1_jPFbRKS1_E
 3984              		.thumb
 3985              		.thumb_func
 3986              		.type	_ZN3r2p16SubscriberExtBufINS_7PixyMsgEEC2EPPS1_jPFbRKS1_E, %function
 3987              	_ZN3r2p16SubscriberExtBufINS_7PixyMsgEEC2EPPS1_jPFbRKS1_E:
 3988              	.LFB663:
 3989              		.loc 21 65 0
 3990              		.cfi_startproc
 3991              		@ args = 0, pretend = 0, frame = 16
 3992              		@ frame_needed = 0, uses_anonymous_args = 0
 3993 0000 00B5     		push	{lr}
 3994              		.cfi_def_cfa_offset 4
 3995              		.cfi_offset 14, -4
 3996 0002 85B0     		sub	sp, sp, #20
 3997              		.cfi_def_cfa_offset 24
 3998 0004 0390     		str	r0, [sp, #12]
 3999 0006 0291     		str	r1, [sp, #8]
 4000 0008 0192     		str	r2, [sp, #4]
 4001 000a 0093     		str	r3, [sp]
 4002              	.LBB85:
 4003              		.loc 21 69 0
ARM GAS  /tmp/ccypRU8x.s 			page 74


 4004 000c 039B     		ldr	r3, [sp, #12]
 4005 000e 1846     		mov	r0, r3
 4006 0010 0299     		ldr	r1, [sp, #8]
 4007 0012 019A     		ldr	r2, [sp, #4]
 4008 0014 009B     		ldr	r3, [sp]
 4009 0016 FFF7FEFF 		bl	_ZN3r2p15LocalSubscriberC2EPPNS_7MessageEjPFbRKS1_E
 4010 001a 039B     		ldr	r3, [sp, #12]
 4011 001c 034A     		ldr	r2, .L235
 4012 001e 1A60     		str	r2, [r3]
 4013              	.LBE85:
 4014              		.loc 21 72 0
 4015 0020 039B     		ldr	r3, [sp, #12]
 4016 0022 1846     		mov	r0, r3
 4017 0024 05B0     		add	sp, sp, #20
 4018              		.cfi_def_cfa_offset 4
 4019              		@ sp needed
 4020 0026 5DF804FB 		ldr	pc, [sp], #4
 4021              	.L236:
 4022 002a 00BF     		.align	2
 4023              	.L235:
 4024 002c 08000000 		.word	_ZTVN3r2p16SubscriberExtBufINS_7PixyMsgEEE+8
 4025              		.cfi_endproc
 4026              	.LFE663:
 4027              		.size	_ZN3r2p16SubscriberExtBufINS_7PixyMsgEEC2EPPS1_jPFbRKS1_E, .-_ZN3r2p16SubscriberExtBufINS_7P
 4028              		.weak	_ZN3r2p16SubscriberExtBufINS_7PixyMsgEEC1EPPS1_jPFbRKS1_E
 4029              		.thumb_set _ZN3r2p16SubscriberExtBufINS_7PixyMsgEEC1EPPS1_jPFbRKS1_E,_ZN3r2p16SubscriberExtBufINS_
 4030              		.section	.text._ZN3r2p16SubscriberExtBufINS_7PixyMsgEED2Ev,"axG",%progbits,_ZN3r2p16SubscriberExtB
 4031              		.align	2
 4032              		.p2align 4,,15
 4033              		.weak	_ZN3r2p16SubscriberExtBufINS_7PixyMsgEED2Ev
 4034              		.thumb
 4035              		.thumb_func
 4036              		.type	_ZN3r2p16SubscriberExtBufINS_7PixyMsgEED2Ev, %function
 4037              	_ZN3r2p16SubscriberExtBufINS_7PixyMsgEED2Ev:
 4038              	.LFB666:
 4039              		.loc 21 76 0
 4040              		.cfi_startproc
 4041              		@ args = 0, pretend = 0, frame = 8
 4042              		@ frame_needed = 0, uses_anonymous_args = 0
 4043 0000 00B5     		push	{lr}
 4044              		.cfi_def_cfa_offset 4
 4045              		.cfi_offset 14, -4
 4046 0002 83B0     		sub	sp, sp, #12
 4047              		.cfi_def_cfa_offset 16
 4048 0004 0190     		str	r0, [sp, #4]
 4049              	.LBB86:
 4050              		.loc 21 79 0
 4051 0006 019B     		ldr	r3, [sp, #4]
 4052 0008 084A     		ldr	r2, .L241
 4053 000a 1A60     		str	r2, [r3]
 4054 000c 019B     		ldr	r3, [sp, #4]
 4055 000e 1846     		mov	r0, r3
 4056 0010 FFF7FEFF 		bl	_ZN3r2p15LocalSubscriberD2Ev
 4057              	.LBE86:
 4058 0014 0023     		movs	r3, #0
 4059 0016 002B     		cmp	r3, #0
 4060 0018 02D0     		beq	.L239
ARM GAS  /tmp/ccypRU8x.s 			page 75


 4061              		.loc 21 79 0 is_stmt 0 discriminator 2
 4062 001a 0198     		ldr	r0, [sp, #4]
 4063 001c FFF7FEFF 		bl	_ZdlPv
 4064              	.L239:
 4065              		.loc 21 79 0 discriminator 4
 4066 0020 019B     		ldr	r3, [sp, #4]
 4067 0022 1846     		mov	r0, r3
 4068 0024 03B0     		add	sp, sp, #12
 4069              		.cfi_def_cfa_offset 4
 4070              		@ sp needed
 4071 0026 5DF804FB 		ldr	pc, [sp], #4
 4072              	.L242:
 4073 002a 00BF     		.align	2
 4074              	.L241:
 4075 002c 08000000 		.word	_ZTVN3r2p16SubscriberExtBufINS_7PixyMsgEEE+8
 4076              		.cfi_endproc
 4077              	.LFE666:
 4078              		.size	_ZN3r2p16SubscriberExtBufINS_7PixyMsgEED2Ev, .-_ZN3r2p16SubscriberExtBufINS_7PixyMsgEED2Ev
 4079              		.weak	_ZN3r2p16SubscriberExtBufINS_7PixyMsgEED1Ev
 4080              		.thumb_set _ZN3r2p16SubscriberExtBufINS_7PixyMsgEED1Ev,_ZN3r2p16SubscriberExtBufINS_7PixyMsgEED2Ev
 4081              		.section	.text._ZN3r2p16SubscriberExtBufINS_7PixyMsgEED0Ev,"axG",%progbits,_ZN3r2p16SubscriberExtB
 4082              		.align	2
 4083              		.p2align 4,,15
 4084              		.weak	_ZN3r2p16SubscriberExtBufINS_7PixyMsgEED0Ev
 4085              		.thumb
 4086              		.thumb_func
 4087              		.type	_ZN3r2p16SubscriberExtBufINS_7PixyMsgEED0Ev, %function
 4088              	_ZN3r2p16SubscriberExtBufINS_7PixyMsgEED0Ev:
 4089              	.LFB668:
 4090              		.loc 21 76 0 is_stmt 1
 4091              		.cfi_startproc
 4092              		@ args = 0, pretend = 0, frame = 8
 4093              		@ frame_needed = 0, uses_anonymous_args = 0
 4094 0000 00B5     		push	{lr}
 4095              		.cfi_def_cfa_offset 4
 4096              		.cfi_offset 14, -4
 4097 0002 83B0     		sub	sp, sp, #12
 4098              		.cfi_def_cfa_offset 16
 4099 0004 0190     		str	r0, [sp, #4]
 4100              		.loc 21 79 0
 4101 0006 0198     		ldr	r0, [sp, #4]
 4102 0008 FFF7FEFF 		bl	_ZN3r2p16SubscriberExtBufINS_7PixyMsgEED1Ev
 4103 000c 0198     		ldr	r0, [sp, #4]
 4104 000e FFF7FEFF 		bl	_ZdlPv
 4105 0012 019B     		ldr	r3, [sp, #4]
 4106 0014 1846     		mov	r0, r3
 4107 0016 03B0     		add	sp, sp, #12
 4108              		.cfi_def_cfa_offset 4
 4109              		@ sp needed
 4110 0018 5DF804FB 		ldr	pc, [sp], #4
 4111              		.cfi_endproc
 4112              	.LFE668:
 4113              		.size	_ZN3r2p16SubscriberExtBufINS_7PixyMsgEED0Ev, .-_ZN3r2p16SubscriberExtBufINS_7PixyMsgEED0Ev
 4114 001c AFF30080 		.section	.text._ZN3r2p16SubscriberExtBufINS_12ProximityMsgEEC2EPPS1_jPFbRKS1_E,"axG",%progbits,_ZN
 4115              		.align	2
 4116              		.p2align 4,,15
 4117              		.weak	_ZN3r2p16SubscriberExtBufINS_12ProximityMsgEEC2EPPS1_jPFbRKS1_E
ARM GAS  /tmp/ccypRU8x.s 			page 76


 4118              		.thumb
 4119              		.thumb_func
 4120              		.type	_ZN3r2p16SubscriberExtBufINS_12ProximityMsgEEC2EPPS1_jPFbRKS1_E, %function
 4121              	_ZN3r2p16SubscriberExtBufINS_12ProximityMsgEEC2EPPS1_jPFbRKS1_E:
 4122              	.LFB670:
 4123              		.loc 21 65 0
 4124              		.cfi_startproc
 4125              		@ args = 0, pretend = 0, frame = 16
 4126              		@ frame_needed = 0, uses_anonymous_args = 0
 4127 0000 00B5     		push	{lr}
 4128              		.cfi_def_cfa_offset 4
 4129              		.cfi_offset 14, -4
 4130 0002 85B0     		sub	sp, sp, #20
 4131              		.cfi_def_cfa_offset 24
 4132 0004 0390     		str	r0, [sp, #12]
 4133 0006 0291     		str	r1, [sp, #8]
 4134 0008 0192     		str	r2, [sp, #4]
 4135 000a 0093     		str	r3, [sp]
 4136              	.LBB87:
 4137              		.loc 21 69 0
 4138 000c 039B     		ldr	r3, [sp, #12]
 4139 000e 1846     		mov	r0, r3
 4140 0010 0299     		ldr	r1, [sp, #8]
 4141 0012 019A     		ldr	r2, [sp, #4]
 4142 0014 009B     		ldr	r3, [sp]
 4143 0016 FFF7FEFF 		bl	_ZN3r2p15LocalSubscriberC2EPPNS_7MessageEjPFbRKS1_E
 4144 001a 039B     		ldr	r3, [sp, #12]
 4145 001c 034A     		ldr	r2, .L249
 4146 001e 1A60     		str	r2, [r3]
 4147              	.LBE87:
 4148              		.loc 21 72 0
 4149 0020 039B     		ldr	r3, [sp, #12]
 4150 0022 1846     		mov	r0, r3
 4151 0024 05B0     		add	sp, sp, #20
 4152              		.cfi_def_cfa_offset 4
 4153              		@ sp needed
 4154 0026 5DF804FB 		ldr	pc, [sp], #4
 4155              	.L250:
 4156 002a 00BF     		.align	2
 4157              	.L249:
 4158 002c 08000000 		.word	_ZTVN3r2p16SubscriberExtBufINS_12ProximityMsgEEE+8
 4159              		.cfi_endproc
 4160              	.LFE670:
 4161              		.size	_ZN3r2p16SubscriberExtBufINS_12ProximityMsgEEC2EPPS1_jPFbRKS1_E, .-_ZN3r2p16SubscriberExtBuf
 4162              		.weak	_ZN3r2p16SubscriberExtBufINS_12ProximityMsgEEC1EPPS1_jPFbRKS1_E
 4163              		.thumb_set _ZN3r2p16SubscriberExtBufINS_12ProximityMsgEEC1EPPS1_jPFbRKS1_E,_ZN3r2p16SubscriberExtB
 4164              		.section	.text._ZN3r2p16SubscriberExtBufINS_12ProximityMsgEED2Ev,"axG",%progbits,_ZN3r2p16Subscrib
 4165              		.align	2
 4166              		.p2align 4,,15
 4167              		.weak	_ZN3r2p16SubscriberExtBufINS_12ProximityMsgEED2Ev
 4168              		.thumb
 4169              		.thumb_func
 4170              		.type	_ZN3r2p16SubscriberExtBufINS_12ProximityMsgEED2Ev, %function
 4171              	_ZN3r2p16SubscriberExtBufINS_12ProximityMsgEED2Ev:
 4172              	.LFB673:
 4173              		.loc 21 76 0
 4174              		.cfi_startproc
ARM GAS  /tmp/ccypRU8x.s 			page 77


 4175              		@ args = 0, pretend = 0, frame = 8
 4176              		@ frame_needed = 0, uses_anonymous_args = 0
 4177 0000 00B5     		push	{lr}
 4178              		.cfi_def_cfa_offset 4
 4179              		.cfi_offset 14, -4
 4180 0002 83B0     		sub	sp, sp, #12
 4181              		.cfi_def_cfa_offset 16
 4182 0004 0190     		str	r0, [sp, #4]
 4183              	.LBB88:
 4184              		.loc 21 79 0
 4185 0006 019B     		ldr	r3, [sp, #4]
 4186 0008 084A     		ldr	r2, .L255
 4187 000a 1A60     		str	r2, [r3]
 4188 000c 019B     		ldr	r3, [sp, #4]
 4189 000e 1846     		mov	r0, r3
 4190 0010 FFF7FEFF 		bl	_ZN3r2p15LocalSubscriberD2Ev
 4191              	.LBE88:
 4192 0014 0023     		movs	r3, #0
 4193 0016 002B     		cmp	r3, #0
 4194 0018 02D0     		beq	.L253
 4195              		.loc 21 79 0 is_stmt 0 discriminator 2
 4196 001a 0198     		ldr	r0, [sp, #4]
 4197 001c FFF7FEFF 		bl	_ZdlPv
 4198              	.L253:
 4199              		.loc 21 79 0 discriminator 4
 4200 0020 019B     		ldr	r3, [sp, #4]
 4201 0022 1846     		mov	r0, r3
 4202 0024 03B0     		add	sp, sp, #12
 4203              		.cfi_def_cfa_offset 4
 4204              		@ sp needed
 4205 0026 5DF804FB 		ldr	pc, [sp], #4
 4206              	.L256:
 4207 002a 00BF     		.align	2
 4208              	.L255:
 4209 002c 08000000 		.word	_ZTVN3r2p16SubscriberExtBufINS_12ProximityMsgEEE+8
 4210              		.cfi_endproc
 4211              	.LFE673:
 4212              		.size	_ZN3r2p16SubscriberExtBufINS_12ProximityMsgEED2Ev, .-_ZN3r2p16SubscriberExtBufINS_12Proximit
 4213              		.weak	_ZN3r2p16SubscriberExtBufINS_12ProximityMsgEED1Ev
 4214              		.thumb_set _ZN3r2p16SubscriberExtBufINS_12ProximityMsgEED1Ev,_ZN3r2p16SubscriberExtBufINS_12Proxim
 4215              		.section	.text._ZN3r2p16SubscriberExtBufINS_12ProximityMsgEED0Ev,"axG",%progbits,_ZN3r2p16Subscrib
 4216              		.align	2
 4217              		.p2align 4,,15
 4218              		.weak	_ZN3r2p16SubscriberExtBufINS_12ProximityMsgEED0Ev
 4219              		.thumb
 4220              		.thumb_func
 4221              		.type	_ZN3r2p16SubscriberExtBufINS_12ProximityMsgEED0Ev, %function
 4222              	_ZN3r2p16SubscriberExtBufINS_12ProximityMsgEED0Ev:
 4223              	.LFB675:
 4224              		.loc 21 76 0 is_stmt 1
 4225              		.cfi_startproc
 4226              		@ args = 0, pretend = 0, frame = 8
 4227              		@ frame_needed = 0, uses_anonymous_args = 0
 4228 0000 00B5     		push	{lr}
 4229              		.cfi_def_cfa_offset 4
 4230              		.cfi_offset 14, -4
 4231 0002 83B0     		sub	sp, sp, #12
ARM GAS  /tmp/ccypRU8x.s 			page 78


 4232              		.cfi_def_cfa_offset 16
 4233 0004 0190     		str	r0, [sp, #4]
 4234              		.loc 21 79 0
 4235 0006 0198     		ldr	r0, [sp, #4]
 4236 0008 FFF7FEFF 		bl	_ZN3r2p16SubscriberExtBufINS_12ProximityMsgEED1Ev
 4237 000c 0198     		ldr	r0, [sp, #4]
 4238 000e FFF7FEFF 		bl	_ZdlPv
 4239 0012 019B     		ldr	r3, [sp, #4]
 4240 0014 1846     		mov	r0, r3
 4241 0016 03B0     		add	sp, sp, #12
 4242              		.cfi_def_cfa_offset 4
 4243              		@ sp needed
 4244 0018 5DF804FB 		ldr	pc, [sp], #4
 4245              		.cfi_endproc
 4246              	.LFE675:
 4247              		.size	_ZN3r2p16SubscriberExtBufINS_12ProximityMsgEED0Ev, .-_ZN3r2p16SubscriberExtBufINS_12Proximit
 4248              		.weak	_ZTVN3r2p10SubscriberINS_12ProximityMsgELj5EEE
 4249 001c AFF30080 		.section	.rodata._ZTVN3r2p10SubscriberINS_12ProximityMsgELj5EEE,"aG",%progbits,_ZTVN3r2p10Subscrib
 4250              		.align	3
 4251              		.type	_ZTVN3r2p10SubscriberINS_12ProximityMsgELj5EEE, %object
 4252              		.size	_ZTVN3r2p10SubscriberINS_12ProximityMsgELj5EEE, 36
 4253              	_ZTVN3r2p10SubscriberINS_12ProximityMsgELj5EEE:
 4254 0000 00000000 		.word	0
 4255 0004 00000000 		.word	0
 4256 0008 00000000 		.word	_ZNK3r2p15LocalSubscriber16get_queue_lengthEv
 4257 000c 00000000 		.word	_ZN3r2p15LocalSubscriber13notify_unsafeERNS_7MessageERKNS_4TimeE
 4258 0010 00000000 		.word	_ZN3r2p15LocalSubscriber12fetch_unsafeERPNS_7MessageERNS_4TimeE
 4259 0014 00000000 		.word	_ZN3r2p15LocalSubscriber6notifyERNS_7MessageERKNS_4TimeE
 4260 0018 00000000 		.word	_ZN3r2p15LocalSubscriber5fetchERPNS_7MessageERNS_4TimeE
 4261 001c 00000000 		.word	_ZN3r2p10SubscriberINS_12ProximityMsgELj5EED1Ev
 4262 0020 00000000 		.word	_ZN3r2p10SubscriberINS_12ProximityMsgELj5EED0Ev
 4263              		.weak	_ZTVN3r2p16SubscriberExtBufINS_12ProximityMsgEEE
 4264 0024 00000000 		.section	.rodata._ZTVN3r2p16SubscriberExtBufINS_12ProximityMsgEEE,"aG",%progbits,_ZTVN3r2p16Subscr
 4265              		.align	3
 4266              		.type	_ZTVN3r2p16SubscriberExtBufINS_12ProximityMsgEEE, %object
 4267              		.size	_ZTVN3r2p16SubscriberExtBufINS_12ProximityMsgEEE, 36
 4268              	_ZTVN3r2p16SubscriberExtBufINS_12ProximityMsgEEE:
 4269 0000 00000000 		.word	0
 4270 0004 00000000 		.word	0
 4271 0008 00000000 		.word	_ZNK3r2p15LocalSubscriber16get_queue_lengthEv
 4272 000c 00000000 		.word	_ZN3r2p15LocalSubscriber13notify_unsafeERNS_7MessageERKNS_4TimeE
 4273 0010 00000000 		.word	_ZN3r2p15LocalSubscriber12fetch_unsafeERPNS_7MessageERNS_4TimeE
 4274 0014 00000000 		.word	_ZN3r2p15LocalSubscriber6notifyERNS_7MessageERKNS_4TimeE
 4275 0018 00000000 		.word	_ZN3r2p15LocalSubscriber5fetchERPNS_7MessageERNS_4TimeE
 4276 001c 00000000 		.word	_ZN3r2p16SubscriberExtBufINS_12ProximityMsgEED1Ev
 4277 0020 00000000 		.word	_ZN3r2p16SubscriberExtBufINS_12ProximityMsgEED0Ev
 4278              		.weak	_ZTVN3r2p10SubscriberINS_7PixyMsgELj5EEE
 4279 0024 00000000 		.section	.rodata._ZTVN3r2p10SubscriberINS_7PixyMsgELj5EEE,"aG",%progbits,_ZTVN3r2p10SubscriberINS_
 4280              		.align	3
 4281              		.type	_ZTVN3r2p10SubscriberINS_7PixyMsgELj5EEE, %object
 4282              		.size	_ZTVN3r2p10SubscriberINS_7PixyMsgELj5EEE, 36
 4283              	_ZTVN3r2p10SubscriberINS_7PixyMsgELj5EEE:
 4284 0000 00000000 		.word	0
 4285 0004 00000000 		.word	0
 4286 0008 00000000 		.word	_ZNK3r2p15LocalSubscriber16get_queue_lengthEv
 4287 000c 00000000 		.word	_ZN3r2p15LocalSubscriber13notify_unsafeERNS_7MessageERKNS_4TimeE
 4288 0010 00000000 		.word	_ZN3r2p15LocalSubscriber12fetch_unsafeERPNS_7MessageERNS_4TimeE
ARM GAS  /tmp/ccypRU8x.s 			page 79


 4289 0014 00000000 		.word	_ZN3r2p15LocalSubscriber6notifyERNS_7MessageERKNS_4TimeE
 4290 0018 00000000 		.word	_ZN3r2p15LocalSubscriber5fetchERPNS_7MessageERNS_4TimeE
 4291 001c 00000000 		.word	_ZN3r2p10SubscriberINS_7PixyMsgELj5EED1Ev
 4292 0020 00000000 		.word	_ZN3r2p10SubscriberINS_7PixyMsgELj5EED0Ev
 4293              		.weak	_ZTVN3r2p16SubscriberExtBufINS_7PixyMsgEEE
 4294 0024 00000000 		.section	.rodata._ZTVN3r2p16SubscriberExtBufINS_7PixyMsgEEE,"aG",%progbits,_ZTVN3r2p16SubscriberEx
 4295              		.align	3
 4296              		.type	_ZTVN3r2p16SubscriberExtBufINS_7PixyMsgEEE, %object
 4297              		.size	_ZTVN3r2p16SubscriberExtBufINS_7PixyMsgEEE, 36
 4298              	_ZTVN3r2p16SubscriberExtBufINS_7PixyMsgEEE:
 4299 0000 00000000 		.word	0
 4300 0004 00000000 		.word	0
 4301 0008 00000000 		.word	_ZNK3r2p15LocalSubscriber16get_queue_lengthEv
 4302 000c 00000000 		.word	_ZN3r2p15LocalSubscriber13notify_unsafeERNS_7MessageERKNS_4TimeE
 4303 0010 00000000 		.word	_ZN3r2p15LocalSubscriber12fetch_unsafeERPNS_7MessageERNS_4TimeE
 4304 0014 00000000 		.word	_ZN3r2p15LocalSubscriber6notifyERNS_7MessageERKNS_4TimeE
 4305 0018 00000000 		.word	_ZN3r2p15LocalSubscriber5fetchERPNS_7MessageERNS_4TimeE
 4306 001c 00000000 		.word	_ZN3r2p16SubscriberExtBufINS_7PixyMsgEED1Ev
 4307 0020 00000000 		.word	_ZN3r2p16SubscriberExtBufINS_7PixyMsgEED0Ev
 4308              		.weak	_ZTVN3r2p9PublisherINS_9PIDCfgMsgEEE
 4309 0024 00000000 		.section	.rodata._ZTVN3r2p9PublisherINS_9PIDCfgMsgEEE,"aG",%progbits,_ZTVN3r2p9PublisherINS_9PIDCf
 4310              		.align	3
 4311              		.type	_ZTVN3r2p9PublisherINS_9PIDCfgMsgEEE, %object
 4312              		.size	_ZTVN3r2p9PublisherINS_9PIDCfgMsgEEE, 16
 4313              	_ZTVN3r2p9PublisherINS_9PIDCfgMsgEEE:
 4314 0000 00000000 		.word	0
 4315 0004 00000000 		.word	0
 4316 0008 00000000 		.word	_ZN3r2p9PublisherINS_9PIDCfgMsgEED1Ev
 4317 000c 00000000 		.word	_ZN3r2p9PublisherINS_9PIDCfgMsgEED0Ev
 4318              		.weak	_ZTVN3r2p9PublisherINS_9Speed3MsgEEE
 4319              		.section	.rodata._ZTVN3r2p9PublisherINS_9Speed3MsgEEE,"aG",%progbits,_ZTVN3r2p9PublisherINS_9Speed
 4320              		.align	3
 4321              		.type	_ZTVN3r2p9PublisherINS_9Speed3MsgEEE, %object
 4322              		.size	_ZTVN3r2p9PublisherINS_9Speed3MsgEEE, 16
 4323              	_ZTVN3r2p9PublisherINS_9Speed3MsgEEE:
 4324 0000 00000000 		.word	0
 4325 0004 00000000 		.word	0
 4326 0008 00000000 		.word	_ZN3r2p9PublisherINS_9Speed3MsgEED1Ev
 4327 000c 00000000 		.word	_ZN3r2p9PublisherINS_9Speed3MsgEED0Ev
 4328              		.section	.rodata
 4329 01ce 0000     		.align	2
 4330              	.LC30:
 4331 01d0 73706565 		.ascii	"speedpub\000"
 4331      64707562 
 4331      00
 4332              		.section	.text._Z41__static_initialization_and_destruction_0ii,"ax",%progbits
 4333              		.align	2
 4334              		.p2align 4,,15
 4335              		.thumb
 4336              		.thumb_func
 4337              		.type	_Z41__static_initialization_and_destruction_0ii, %function
 4338              	_Z41__static_initialization_and_destruction_0ii:
 4339              	.LFB678:
 4340              		.loc 15 473 0
 4341              		.cfi_startproc
 4342              		@ args = 0, pretend = 0, frame = 8
 4343              		@ frame_needed = 0, uses_anonymous_args = 0
ARM GAS  /tmp/ccypRU8x.s 			page 80


 4344 0000 00B5     		push	{lr}
 4345              		.cfi_def_cfa_offset 4
 4346              		.cfi_offset 14, -4
 4347 0002 83B0     		sub	sp, sp, #12
 4348              		.cfi_def_cfa_offset 16
 4349 0004 0190     		str	r0, [sp, #4]
 4350 0006 0091     		str	r1, [sp]
 4351              		.loc 15 473 0
 4352 0008 019B     		ldr	r3, [sp, #4]
 4353 000a 012B     		cmp	r3, #1
 4354 000c 4ED1     		bne	.L260
 4355              		.loc 15 473 0 is_stmt 0 discriminator 1
 4356 000e 009B     		ldr	r3, [sp]
 4357 0010 4FF6FF72 		movw	r2, #65535
 4358 0014 9342     		cmp	r3, r2
 4359 0016 49D1     		bne	.L260
 4360              		.loc 15 15 0 is_stmt 1
 4361 0018 2648     		ldr	r0, .L262
 4362 001a 2749     		ldr	r1, .L262+4
 4363 001c 0022     		movs	r2, #0
 4364 001e FFF7FEFF 		bl	_ZN3r2p4NodeC1EPKcb
 4365 0022 2448     		ldr	r0, .L262
 4366 0024 2549     		ldr	r1, .L262+8
 4367 0026 264A     		ldr	r2, .L262+12
 4368 0028 FFF7FEFF 		bl	__aeabi_atexit
 4369              		.loc 15 16 0
 4370 002c 2548     		ldr	r0, .L262+16
 4371 002e FFF7FEFF 		bl	_ZN3r2p9PublisherINS_9Speed3MsgEEC1Ev
 4372 0032 2448     		ldr	r0, .L262+16
 4373 0034 2449     		ldr	r1, .L262+20
 4374 0036 224A     		ldr	r2, .L262+12
 4375 0038 FFF7FEFF 		bl	__aeabi_atexit
 4376              		.loc 15 19 0
 4377 003c 2348     		ldr	r0, .L262+24
 4378 003e 2449     		ldr	r1, .L262+28
 4379 0040 0022     		movs	r2, #0
 4380 0042 FFF7FEFF 		bl	_ZN3r2p4NodeC1EPKcb
 4381 0046 2148     		ldr	r0, .L262+24
 4382 0048 1C49     		ldr	r1, .L262+8
 4383 004a 1D4A     		ldr	r2, .L262+12
 4384 004c FFF7FEFF 		bl	__aeabi_atexit
 4385              		.loc 15 20 0
 4386 0050 2048     		ldr	r0, .L262+32
 4387 0052 FFF7FEFF 		bl	_ZN3r2p9PublisherINS_9PIDCfgMsgEEC1Ev
 4388 0056 1F48     		ldr	r0, .L262+32
 4389 0058 1F49     		ldr	r1, .L262+36
 4390 005a 194A     		ldr	r2, .L262+12
 4391 005c FFF7FEFF 		bl	__aeabi_atexit
 4392              		.loc 15 23 0
 4393 0060 1E48     		ldr	r0, .L262+40
 4394 0062 1F49     		ldr	r1, .L262+44
 4395 0064 0022     		movs	r2, #0
 4396 0066 FFF7FEFF 		bl	_ZN3r2p4NodeC1EPKcb
 4397 006a 1C48     		ldr	r0, .L262+40
 4398 006c 1349     		ldr	r1, .L262+8
 4399 006e 144A     		ldr	r2, .L262+12
 4400 0070 FFF7FEFF 		bl	__aeabi_atexit
ARM GAS  /tmp/ccypRU8x.s 			page 81


 4401              		.loc 15 24 0
 4402 0074 1B48     		ldr	r0, .L262+48
 4403 0076 0021     		movs	r1, #0
 4404 0078 FFF7FEFF 		bl	_ZN3r2p10SubscriberINS_7PixyMsgELj5EEC1EPFbRKS1_E
 4405 007c 1948     		ldr	r0, .L262+48
 4406 007e 1A49     		ldr	r1, .L262+52
 4407 0080 0F4A     		ldr	r2, .L262+12
 4408 0082 FFF7FEFF 		bl	__aeabi_atexit
 4409              		.loc 15 41 0
 4410 0086 1948     		ldr	r0, .L262+56
 4411 0088 1949     		ldr	r1, .L262+60
 4412 008a 0022     		movs	r2, #0
 4413 008c FFF7FEFF 		bl	_ZN3r2p4NodeC1EPKcb
 4414 0090 1648     		ldr	r0, .L262+56
 4415 0092 0A49     		ldr	r1, .L262+8
 4416 0094 0A4A     		ldr	r2, .L262+12
 4417 0096 FFF7FEFF 		bl	__aeabi_atexit
 4418              		.loc 15 43 0
 4419 009a 1648     		ldr	r0, .L262+64
 4420 009c 0021     		movs	r1, #0
 4421 009e FFF7FEFF 		bl	_ZN3r2p10SubscriberINS_12ProximityMsgELj5EEC1EPFbRKS1_E
 4422 00a2 1448     		ldr	r0, .L262+64
 4423 00a4 1449     		ldr	r1, .L262+68
 4424 00a6 064A     		ldr	r2, .L262+12
 4425 00a8 FFF7FEFF 		bl	__aeabi_atexit
 4426              	.L260:
 4427              		.loc 15 473 0
 4428 00ac 03B0     		add	sp, sp, #12
 4429              		.cfi_def_cfa_offset 4
 4430              		@ sp needed
 4431 00ae 5DF804FB 		ldr	pc, [sp], #4
 4432              	.L263:
 4433 00b2 00BF     		.align	2
 4434              	.L262:
 4435 00b4 00000000 		.word	vel_node
 4436 00b8 D0010000 		.word	.LC30
 4437 00bc 00000000 		.word	_ZN3r2p4NodeD1Ev
 4438 00c0 00000000 		.word	__dso_handle
 4439 00c4 00000000 		.word	vel_pub
 4440 00c8 00000000 		.word	_ZN3r2p9PublisherINS_9Speed3MsgEED1Ev
 4441 00cc 00000000 		.word	pidcfg_node
 4442 00d0 C0010000 		.word	.LC28
 4443 00d4 00000000 		.word	pidcfg_pub
 4444 00d8 00000000 		.word	_ZN3r2p9PublisherINS_9PIDCfgMsgEED1Ev
 4445 00dc 00000000 		.word	pixy_node
 4446 00e0 80000000 		.word	.LC6
 4447 00e4 00000000 		.word	pixy_sub
 4448 00e8 00000000 		.word	_ZN3r2p10SubscriberINS_7PixyMsgELj5EED1Ev
 4449 00ec 00000000 		.word	proximity_node
 4450 00f0 F8000000 		.word	.LC14
 4451 00f4 00000000 		.word	proximity_sub
 4452 00f8 00000000 		.word	_ZN3r2p10SubscriberINS_12ProximityMsgELj5EED1Ev
 4453              		.cfi_endproc
 4454              	.LFE678:
 4455              		.size	_Z41__static_initialization_and_destruction_0ii, .-_Z41__static_initialization_and_destructi
 4456 00fc AFF30080 		.section	.rodata
 4457 01d9 000000   		.align	2
ARM GAS  /tmp/ccypRU8x.s 			page 82


 4458              	.LC31:
 4459 01dc 666F6C6C 		.ascii	"follow\000"
 4459      6F7700
 4460 01e3 00       		.align	2
 4461              	.LC32:
 4462 01e4 7200     		.ascii	"r\000"
 4463 01e6 0000     		.align	2
 4464              	.LC33:
 4465 01e8 7300     		.ascii	"s\000"
 4466 01ea 0000     		.align	2
 4467              	.LC34:
 4468 01ec 6500     		.ascii	"e\000"
 4469 01ee 0000     		.section	.rodata._ZL8commands,"a",%progbits
 4470              		.align	2
 4471              		.type	_ZL8commands, %object
 4472              		.size	_ZL8commands, 64
 4473              	_ZL8commands:
 4474 0000 DC010000 		.word	.LC31
 4475 0004 00000000 		.word	_ZL10cmd_followP20BaseSequentialStreamiPPc
 4476 0008 80000000 		.word	.LC6
 4477 000c 00000000 		.word	_ZL8cmd_pixyP20BaseSequentialStreamiPPc
 4478 0010 F8000000 		.word	.LC14
 4479 0014 00000000 		.word	_ZL13cmd_proximityP20BaseSequentialStreamiPPc
 4480 0018 E4010000 		.word	.LC32
 4481 001c 00000000 		.word	_ZL7cmd_runP20BaseSequentialStreamiPPc
 4482 0020 E8010000 		.word	.LC33
 4483 0024 00000000 		.word	_ZL8cmd_stopP20BaseSequentialStreamiPPc
 4484 0028 EC010000 		.word	.LC34
 4485 002c 00000000 		.word	_ZL7cmd_encP20BaseSequentialStreamiPPc
 4486 0030 C0010000 		.word	.LC28
 4487 0034 00000000 		.word	_ZL10cmd_pidcfgP20BaseSequentialStreamiPPc
 4488 0038 00000000 		.word	0
 4489 003c 00000000 		.word	0
 4490              		.section	.rodata._ZL13usb_shell_cfg,"a",%progbits
 4491              		.align	2
 4492              		.type	_ZL13usb_shell_cfg, %object
 4493              		.size	_ZL13usb_shell_cfg, 8
 4494              	_ZL13usb_shell_cfg:
 4495 0000 00000000 		.word	SDU1
 4496 0004 00000000 		.word	_ZL8commands
 4497              		.section	.text._ZN3r2p10SubscriberINS_12ProximityMsgELj5EED2Ev,"axG",%progbits,_ZN3r2p10Subscriber
 4498              		.align	2
 4499              		.p2align 4,,15
 4500              		.weak	_ZN3r2p10SubscriberINS_12ProximityMsgELj5EED2Ev
 4501              		.thumb
 4502              		.thumb_func
 4503              		.type	_ZN3r2p10SubscriberINS_12ProximityMsgELj5EED2Ev, %function
 4504              	_ZN3r2p10SubscriberINS_12ProximityMsgELj5EED2Ev:
 4505              	.LFB680:
 4506              		.loc 19 38 0
 4507              		.cfi_startproc
 4508              		@ args = 0, pretend = 0, frame = 8
 4509              		@ frame_needed = 0, uses_anonymous_args = 0
 4510 0000 00B5     		push	{lr}
 4511              		.cfi_def_cfa_offset 4
 4512              		.cfi_offset 14, -4
 4513 0002 83B0     		sub	sp, sp, #12
ARM GAS  /tmp/ccypRU8x.s 			page 83


 4514              		.cfi_def_cfa_offset 16
 4515 0004 0190     		str	r0, [sp, #4]
 4516              	.LBB89:
 4517              		.loc 19 38 0
 4518 0006 019B     		ldr	r3, [sp, #4]
 4519 0008 084A     		ldr	r2, .L268
 4520 000a 1A60     		str	r2, [r3]
 4521 000c 019B     		ldr	r3, [sp, #4]
 4522 000e 1846     		mov	r0, r3
 4523 0010 FFF7FEFF 		bl	_ZN3r2p16SubscriberExtBufINS_12ProximityMsgEED2Ev
 4524              	.LBE89:
 4525 0014 0023     		movs	r3, #0
 4526 0016 002B     		cmp	r3, #0
 4527 0018 02D0     		beq	.L266
 4528              		.loc 19 38 0 is_stmt 0 discriminator 2
 4529 001a 0198     		ldr	r0, [sp, #4]
 4530 001c FFF7FEFF 		bl	_ZdlPv
 4531              	.L266:
 4532              		.loc 19 38 0 discriminator 4
 4533 0020 019B     		ldr	r3, [sp, #4]
 4534 0022 1846     		mov	r0, r3
 4535 0024 03B0     		add	sp, sp, #12
 4536              		.cfi_def_cfa_offset 4
 4537              		@ sp needed
 4538 0026 5DF804FB 		ldr	pc, [sp], #4
 4539              	.L269:
 4540 002a 00BF     		.align	2
 4541              	.L268:
 4542 002c 08000000 		.word	_ZTVN3r2p10SubscriberINS_12ProximityMsgELj5EEE+8
 4543              		.cfi_endproc
 4544              	.LFE680:
 4545              		.size	_ZN3r2p10SubscriberINS_12ProximityMsgELj5EED2Ev, .-_ZN3r2p10SubscriberINS_12ProximityMsgELj5
 4546              		.weak	_ZN3r2p10SubscriberINS_12ProximityMsgELj5EED1Ev
 4547              		.thumb_set _ZN3r2p10SubscriberINS_12ProximityMsgELj5EED1Ev,_ZN3r2p10SubscriberINS_12ProximityMsgEL
 4548              		.section	.text._ZN3r2p10SubscriberINS_12ProximityMsgELj5EED0Ev,"axG",%progbits,_ZN3r2p10Subscriber
 4549              		.align	2
 4550              		.p2align 4,,15
 4551              		.weak	_ZN3r2p10SubscriberINS_12ProximityMsgELj5EED0Ev
 4552              		.thumb
 4553              		.thumb_func
 4554              		.type	_ZN3r2p10SubscriberINS_12ProximityMsgELj5EED0Ev, %function
 4555              	_ZN3r2p10SubscriberINS_12ProximityMsgELj5EED0Ev:
 4556              	.LFB682:
 4557              		.loc 19 38 0 is_stmt 1
 4558              		.cfi_startproc
 4559              		@ args = 0, pretend = 0, frame = 8
 4560              		@ frame_needed = 0, uses_anonymous_args = 0
 4561 0000 00B5     		push	{lr}
 4562              		.cfi_def_cfa_offset 4
 4563              		.cfi_offset 14, -4
 4564 0002 83B0     		sub	sp, sp, #12
 4565              		.cfi_def_cfa_offset 16
 4566 0004 0190     		str	r0, [sp, #4]
 4567              		.loc 19 38 0
 4568 0006 0198     		ldr	r0, [sp, #4]
 4569 0008 FFF7FEFF 		bl	_ZN3r2p10SubscriberINS_12ProximityMsgELj5EED1Ev
 4570 000c 0198     		ldr	r0, [sp, #4]
ARM GAS  /tmp/ccypRU8x.s 			page 84


 4571 000e FFF7FEFF 		bl	_ZdlPv
 4572 0012 019B     		ldr	r3, [sp, #4]
 4573 0014 1846     		mov	r0, r3
 4574 0016 03B0     		add	sp, sp, #12
 4575              		.cfi_def_cfa_offset 4
 4576              		@ sp needed
 4577 0018 5DF804FB 		ldr	pc, [sp], #4
 4578              		.cfi_endproc
 4579              	.LFE682:
 4580              		.size	_ZN3r2p10SubscriberINS_12ProximityMsgELj5EED0Ev, .-_ZN3r2p10SubscriberINS_12ProximityMsgELj5
 4581 001c AFF30080 		.section	.text._ZN3r2p10SubscriberINS_7PixyMsgELj5EED2Ev,"axG",%progbits,_ZN3r2p10SubscriberINS_7P
 4582              		.align	2
 4583              		.p2align 4,,15
 4584              		.weak	_ZN3r2p10SubscriberINS_7PixyMsgELj5EED2Ev
 4585              		.thumb
 4586              		.thumb_func
 4587              		.type	_ZN3r2p10SubscriberINS_7PixyMsgELj5EED2Ev, %function
 4588              	_ZN3r2p10SubscriberINS_7PixyMsgELj5EED2Ev:
 4589              	.LFB684:
 4590              		.loc 19 38 0
 4591              		.cfi_startproc
 4592              		@ args = 0, pretend = 0, frame = 8
 4593              		@ frame_needed = 0, uses_anonymous_args = 0
 4594 0000 00B5     		push	{lr}
 4595              		.cfi_def_cfa_offset 4
 4596              		.cfi_offset 14, -4
 4597 0002 83B0     		sub	sp, sp, #12
 4598              		.cfi_def_cfa_offset 16
 4599 0004 0190     		str	r0, [sp, #4]
 4600              	.LBB90:
 4601              		.loc 19 38 0
 4602 0006 019B     		ldr	r3, [sp, #4]
 4603 0008 084A     		ldr	r2, .L277
 4604 000a 1A60     		str	r2, [r3]
 4605 000c 019B     		ldr	r3, [sp, #4]
 4606 000e 1846     		mov	r0, r3
 4607 0010 FFF7FEFF 		bl	_ZN3r2p16SubscriberExtBufINS_7PixyMsgEED2Ev
 4608              	.LBE90:
 4609 0014 0023     		movs	r3, #0
 4610 0016 002B     		cmp	r3, #0
 4611 0018 02D0     		beq	.L275
 4612              		.loc 19 38 0 is_stmt 0 discriminator 2
 4613 001a 0198     		ldr	r0, [sp, #4]
 4614 001c FFF7FEFF 		bl	_ZdlPv
 4615              	.L275:
 4616              		.loc 19 38 0 discriminator 4
 4617 0020 019B     		ldr	r3, [sp, #4]
 4618 0022 1846     		mov	r0, r3
 4619 0024 03B0     		add	sp, sp, #12
 4620              		.cfi_def_cfa_offset 4
 4621              		@ sp needed
 4622 0026 5DF804FB 		ldr	pc, [sp], #4
 4623              	.L278:
 4624 002a 00BF     		.align	2
 4625              	.L277:
 4626 002c 08000000 		.word	_ZTVN3r2p10SubscriberINS_7PixyMsgELj5EEE+8
 4627              		.cfi_endproc
ARM GAS  /tmp/ccypRU8x.s 			page 85


 4628              	.LFE684:
 4629              		.size	_ZN3r2p10SubscriberINS_7PixyMsgELj5EED2Ev, .-_ZN3r2p10SubscriberINS_7PixyMsgELj5EED2Ev
 4630              		.weak	_ZN3r2p10SubscriberINS_7PixyMsgELj5EED1Ev
 4631              		.thumb_set _ZN3r2p10SubscriberINS_7PixyMsgELj5EED1Ev,_ZN3r2p10SubscriberINS_7PixyMsgELj5EED2Ev
 4632              		.section	.text._ZN3r2p10SubscriberINS_7PixyMsgELj5EED0Ev,"axG",%progbits,_ZN3r2p10SubscriberINS_7P
 4633              		.align	2
 4634              		.p2align 4,,15
 4635              		.weak	_ZN3r2p10SubscriberINS_7PixyMsgELj5EED0Ev
 4636              		.thumb
 4637              		.thumb_func
 4638              		.type	_ZN3r2p10SubscriberINS_7PixyMsgELj5EED0Ev, %function
 4639              	_ZN3r2p10SubscriberINS_7PixyMsgELj5EED0Ev:
 4640              	.LFB686:
 4641              		.loc 19 38 0 is_stmt 1
 4642              		.cfi_startproc
 4643              		@ args = 0, pretend = 0, frame = 8
 4644              		@ frame_needed = 0, uses_anonymous_args = 0
 4645 0000 00B5     		push	{lr}
 4646              		.cfi_def_cfa_offset 4
 4647              		.cfi_offset 14, -4
 4648 0002 83B0     		sub	sp, sp, #12
 4649              		.cfi_def_cfa_offset 16
 4650 0004 0190     		str	r0, [sp, #4]
 4651              		.loc 19 38 0
 4652 0006 0198     		ldr	r0, [sp, #4]
 4653 0008 FFF7FEFF 		bl	_ZN3r2p10SubscriberINS_7PixyMsgELj5EED1Ev
 4654 000c 0198     		ldr	r0, [sp, #4]
 4655 000e FFF7FEFF 		bl	_ZdlPv
 4656 0012 019B     		ldr	r3, [sp, #4]
 4657 0014 1846     		mov	r0, r3
 4658 0016 03B0     		add	sp, sp, #12
 4659              		.cfi_def_cfa_offset 4
 4660              		@ sp needed
 4661 0018 5DF804FB 		ldr	pc, [sp], #4
 4662              		.cfi_endproc
 4663              	.LFE686:
 4664              		.size	_ZN3r2p10SubscriberINS_7PixyMsgELj5EED0Ev, .-_ZN3r2p10SubscriberINS_7PixyMsgELj5EED0Ev
 4665 001c AFF30080 		.section	.text._ZN3r2p9PublisherINS_9PIDCfgMsgEED2Ev,"axG",%progbits,_ZN3r2p9PublisherINS_9PIDCfgM
 4666              		.align	2
 4667              		.p2align 4,,15
 4668              		.weak	_ZN3r2p9PublisherINS_9PIDCfgMsgEED2Ev
 4669              		.thumb
 4670              		.thumb_func
 4671              		.type	_ZN3r2p9PublisherINS_9PIDCfgMsgEED2Ev, %function
 4672              	_ZN3r2p9PublisherINS_9PIDCfgMsgEED2Ev:
 4673              	.LFB688:
 4674              		.loc 17 54 0
 4675              		.cfi_startproc
 4676              		@ args = 0, pretend = 0, frame = 8
 4677              		@ frame_needed = 0, uses_anonymous_args = 0
 4678 0000 00B5     		push	{lr}
 4679              		.cfi_def_cfa_offset 4
 4680              		.cfi_offset 14, -4
 4681 0002 83B0     		sub	sp, sp, #12
 4682              		.cfi_def_cfa_offset 16
 4683 0004 0190     		str	r0, [sp, #4]
 4684              	.LBB91:
ARM GAS  /tmp/ccypRU8x.s 			page 86


 4685              		.loc 17 57 0
 4686 0006 019B     		ldr	r3, [sp, #4]
 4687 0008 084A     		ldr	r2, .L286
 4688 000a 1A60     		str	r2, [r3]
 4689 000c 019B     		ldr	r3, [sp, #4]
 4690 000e 1846     		mov	r0, r3
 4691 0010 FFF7FEFF 		bl	_ZN3r2p14LocalPublisherD2Ev
 4692              	.LBE91:
 4693 0014 0023     		movs	r3, #0
 4694 0016 002B     		cmp	r3, #0
 4695 0018 02D0     		beq	.L284
 4696              		.loc 17 57 0 is_stmt 0 discriminator 2
 4697 001a 0198     		ldr	r0, [sp, #4]
 4698 001c FFF7FEFF 		bl	_ZdlPv
 4699              	.L284:
 4700              		.loc 17 57 0 discriminator 4
 4701 0020 019B     		ldr	r3, [sp, #4]
 4702 0022 1846     		mov	r0, r3
 4703 0024 03B0     		add	sp, sp, #12
 4704              		.cfi_def_cfa_offset 4
 4705              		@ sp needed
 4706 0026 5DF804FB 		ldr	pc, [sp], #4
 4707              	.L287:
 4708 002a 00BF     		.align	2
 4709              	.L286:
 4710 002c 08000000 		.word	_ZTVN3r2p9PublisherINS_9PIDCfgMsgEEE+8
 4711              		.cfi_endproc
 4712              	.LFE688:
 4713              		.size	_ZN3r2p9PublisherINS_9PIDCfgMsgEED2Ev, .-_ZN3r2p9PublisherINS_9PIDCfgMsgEED2Ev
 4714              		.weak	_ZN3r2p9PublisherINS_9PIDCfgMsgEED1Ev
 4715              		.thumb_set _ZN3r2p9PublisherINS_9PIDCfgMsgEED1Ev,_ZN3r2p9PublisherINS_9PIDCfgMsgEED2Ev
 4716              		.section	.text._ZN3r2p9PublisherINS_9PIDCfgMsgEED0Ev,"axG",%progbits,_ZN3r2p9PublisherINS_9PIDCfgM
 4717              		.align	2
 4718              		.p2align 4,,15
 4719              		.weak	_ZN3r2p9PublisherINS_9PIDCfgMsgEED0Ev
 4720              		.thumb
 4721              		.thumb_func
 4722              		.type	_ZN3r2p9PublisherINS_9PIDCfgMsgEED0Ev, %function
 4723              	_ZN3r2p9PublisherINS_9PIDCfgMsgEED0Ev:
 4724              	.LFB690:
 4725              		.loc 17 54 0 is_stmt 1
 4726              		.cfi_startproc
 4727              		@ args = 0, pretend = 0, frame = 8
 4728              		@ frame_needed = 0, uses_anonymous_args = 0
 4729 0000 00B5     		push	{lr}
 4730              		.cfi_def_cfa_offset 4
 4731              		.cfi_offset 14, -4
 4732 0002 83B0     		sub	sp, sp, #12
 4733              		.cfi_def_cfa_offset 16
 4734 0004 0190     		str	r0, [sp, #4]
 4735              		.loc 17 57 0
 4736 0006 0198     		ldr	r0, [sp, #4]
 4737 0008 FFF7FEFF 		bl	_ZN3r2p9PublisherINS_9PIDCfgMsgEED1Ev
 4738 000c 0198     		ldr	r0, [sp, #4]
 4739 000e FFF7FEFF 		bl	_ZdlPv
 4740 0012 019B     		ldr	r3, [sp, #4]
 4741 0014 1846     		mov	r0, r3
ARM GAS  /tmp/ccypRU8x.s 			page 87


 4742 0016 03B0     		add	sp, sp, #12
 4743              		.cfi_def_cfa_offset 4
 4744              		@ sp needed
 4745 0018 5DF804FB 		ldr	pc, [sp], #4
 4746              		.cfi_endproc
 4747              	.LFE690:
 4748              		.size	_ZN3r2p9PublisherINS_9PIDCfgMsgEED0Ev, .-_ZN3r2p9PublisherINS_9PIDCfgMsgEED0Ev
 4749 001c AFF30080 		.section	.text._ZN3r2p9PublisherINS_9Speed3MsgEED2Ev,"axG",%progbits,_ZN3r2p9PublisherINS_9Speed3M
 4750              		.align	2
 4751              		.p2align 4,,15
 4752              		.weak	_ZN3r2p9PublisherINS_9Speed3MsgEED2Ev
 4753              		.thumb
 4754              		.thumb_func
 4755              		.type	_ZN3r2p9PublisherINS_9Speed3MsgEED2Ev, %function
 4756              	_ZN3r2p9PublisherINS_9Speed3MsgEED2Ev:
 4757              	.LFB692:
 4758              		.loc 17 54 0
 4759              		.cfi_startproc
 4760              		@ args = 0, pretend = 0, frame = 8
 4761              		@ frame_needed = 0, uses_anonymous_args = 0
 4762 0000 00B5     		push	{lr}
 4763              		.cfi_def_cfa_offset 4
 4764              		.cfi_offset 14, -4
 4765 0002 83B0     		sub	sp, sp, #12
 4766              		.cfi_def_cfa_offset 16
 4767 0004 0190     		str	r0, [sp, #4]
 4768              	.LBB92:
 4769              		.loc 17 57 0
 4770 0006 019B     		ldr	r3, [sp, #4]
 4771 0008 084A     		ldr	r2, .L295
 4772 000a 1A60     		str	r2, [r3]
 4773 000c 019B     		ldr	r3, [sp, #4]
 4774 000e 1846     		mov	r0, r3
 4775 0010 FFF7FEFF 		bl	_ZN3r2p14LocalPublisherD2Ev
 4776              	.LBE92:
 4777 0014 0023     		movs	r3, #0
 4778 0016 002B     		cmp	r3, #0
 4779 0018 02D0     		beq	.L293
 4780              		.loc 17 57 0 is_stmt 0 discriminator 2
 4781 001a 0198     		ldr	r0, [sp, #4]
 4782 001c FFF7FEFF 		bl	_ZdlPv
 4783              	.L293:
 4784              		.loc 17 57 0 discriminator 4
 4785 0020 019B     		ldr	r3, [sp, #4]
 4786 0022 1846     		mov	r0, r3
 4787 0024 03B0     		add	sp, sp, #12
 4788              		.cfi_def_cfa_offset 4
 4789              		@ sp needed
 4790 0026 5DF804FB 		ldr	pc, [sp], #4
 4791              	.L296:
 4792 002a 00BF     		.align	2
 4793              	.L295:
 4794 002c 08000000 		.word	_ZTVN3r2p9PublisherINS_9Speed3MsgEEE+8
 4795              		.cfi_endproc
 4796              	.LFE692:
 4797              		.size	_ZN3r2p9PublisherINS_9Speed3MsgEED2Ev, .-_ZN3r2p9PublisherINS_9Speed3MsgEED2Ev
 4798              		.weak	_ZN3r2p9PublisherINS_9Speed3MsgEED1Ev
ARM GAS  /tmp/ccypRU8x.s 			page 88


 4799              		.thumb_set _ZN3r2p9PublisherINS_9Speed3MsgEED1Ev,_ZN3r2p9PublisherINS_9Speed3MsgEED2Ev
 4800              		.section	.text._ZN3r2p9PublisherINS_9Speed3MsgEED0Ev,"axG",%progbits,_ZN3r2p9PublisherINS_9Speed3M
 4801              		.align	2
 4802              		.p2align 4,,15
 4803              		.weak	_ZN3r2p9PublisherINS_9Speed3MsgEED0Ev
 4804              		.thumb
 4805              		.thumb_func
 4806              		.type	_ZN3r2p9PublisherINS_9Speed3MsgEED0Ev, %function
 4807              	_ZN3r2p9PublisherINS_9Speed3MsgEED0Ev:
 4808              	.LFB694:
 4809              		.loc 17 54 0 is_stmt 1
 4810              		.cfi_startproc
 4811              		@ args = 0, pretend = 0, frame = 8
 4812              		@ frame_needed = 0, uses_anonymous_args = 0
 4813 0000 00B5     		push	{lr}
 4814              		.cfi_def_cfa_offset 4
 4815              		.cfi_offset 14, -4
 4816 0002 83B0     		sub	sp, sp, #12
 4817              		.cfi_def_cfa_offset 16
 4818 0004 0190     		str	r0, [sp, #4]
 4819              		.loc 17 57 0
 4820 0006 0198     		ldr	r0, [sp, #4]
 4821 0008 FFF7FEFF 		bl	_ZN3r2p9PublisherINS_9Speed3MsgEED1Ev
 4822 000c 0198     		ldr	r0, [sp, #4]
 4823 000e FFF7FEFF 		bl	_ZdlPv
 4824 0012 019B     		ldr	r3, [sp, #4]
 4825 0014 1846     		mov	r0, r3
 4826 0016 03B0     		add	sp, sp, #12
 4827              		.cfi_def_cfa_offset 4
 4828              		@ sp needed
 4829 0018 5DF804FB 		ldr	pc, [sp], #4
 4830              		.cfi_endproc
 4831              	.LFE694:
 4832              		.size	_ZN3r2p9PublisherINS_9Speed3MsgEED0Ev, .-_ZN3r2p9PublisherINS_9Speed3MsgEED0Ev
 4833 001c AFF30080 		.section	.text._GLOBAL__sub_I_vel_node,"ax",%progbits
 4834              		.align	2
 4835              		.p2align 4,,15
 4836              		.thumb
 4837              		.thumb_func
 4838              		.type	_GLOBAL__sub_I_vel_node, %function
 4839              	_GLOBAL__sub_I_vel_node:
 4840              	.LFB695:
 4841              		.loc 15 473 0
 4842              		.cfi_startproc
 4843              		@ args = 0, pretend = 0, frame = 0
 4844              		@ frame_needed = 0, uses_anonymous_args = 0
 4845 0000 08B5     		push	{r3, lr}
 4846              		.cfi_def_cfa_offset 8
 4847              		.cfi_offset 3, -8
 4848              		.cfi_offset 14, -4
 4849              		.loc 15 473 0
 4850 0002 0120     		movs	r0, #1
 4851 0004 4FF6FF71 		movw	r1, #65535
 4852 0008 FFF7FEFF 		bl	_Z41__static_initialization_and_destruction_0ii
 4853 000c 08BD     		pop	{r3, pc}
 4854              		.cfi_endproc
 4855              	.LFE695:
ARM GAS  /tmp/ccypRU8x.s 			page 89


 4856              		.size	_GLOBAL__sub_I_vel_node, .-_GLOBAL__sub_I_vel_node
 4857 000e 00BF     		.section	.init_array,"aw",%init_array
 4858              		.align	2
 4859 0000 00000000 		.word	_GLOBAL__sub_I_vel_node(target1)
 4860              		.text
 4861              	.Letext0:
 4862              		.file 22 "/home/ergae/r2p-sdk/tools/gcc-arm-none-eabi-4_9-2014q4/lib/gcc/arm-none-eabi/4.9.3/inclu
 4863              		.file 23 "/home/ergae/r2p-sdk/tools/gcc-arm-none-eabi-4_9-2014q4/arm-none-eabi/include/machine/_de
 4864              		.file 24 "/home/ergae/r2p-sdk/tools/gcc-arm-none-eabi-4_9-2014q4/arm-none-eabi/include/stdint.h"
 4865              		.file 25 "/home/ergae/r2p-sdk/core/ChibiOS/os/ports/GCC/ARMCMx/chtypes.h"
 4866              		.file 26 "/home/ergae/r2p-sdk/core/ChibiOS/os/kernel/include/chlists.h"
 4867              		.file 27 "/home/ergae/r2p-sdk/core/ChibiOS/os/kernel/include/chthreads.h"
 4868              		.file 28 "/home/ergae/r2p-sdk/core/ChibiOS/os/ports/GCC/ARMCMx/chcore_v7m.h"
 4869              		.file 29 "/home/ergae/r2p-sdk/core/ChibiOS/os/kernel/include/chschd.h"
 4870              		.file 30 "/home/ergae/r2p-sdk/core/ChibiOS/os/kernel/include/chmtx.h"
 4871              		.file 31 "/home/ergae/r2p-sdk/core/ChibiOS/os/kernel/include/chevents.h"
 4872              		.file 32 "/home/ergae/r2p-sdk/core/ChibiOS/os/kernel/include/chmemcore.h"
 4873              		.file 33 "/home/ergae/r2p-sdk/core/ChibiOS/os/kernel/include/chmempools.h"
 4874              		.file 34 "/home/ergae/r2p-sdk/core/ChibiOS/os/kernel/include/chqueues.h"
 4875              		.file 35 "/home/ergae/r2p-sdk/core/ChibiOS/os/kernel/include/chstreams.h"
 4876              		.file 36 "/home/ergae/r2p-sdk/core/ChibiOS/os/hal/platforms/STM32/GPIOv2/pal_lld.h"
 4877              		.file 37 "/home/ergae/r2p-sdk/core/ChibiOS/os/hal/include/usb.h"
 4878              		.file 38 "/home/ergae/r2p-sdk/core/ChibiOS/os/hal/platforms/STM32/USBv1/usb_lld.h"
 4879              		.file 39 "/home/ergae/r2p-sdk/core/ChibiOS/os/hal/include/serial_usb.h"
 4880              		.file 40 "/home/ergae/r2p-sdk/tools/gcc-arm-none-eabi-4_9-2014q4/lib/gcc/arm-none-eabi/4.9.3/inclu
 4881              		.file 41 "<built-in>"
 4882              		.file 42 "/home/ergae/r2p-sdk/core/ChibiOS/os/various/shell.h"
 4883              		.file 43 "/home/ergae/r2p-sdk/tools/gcc-arm-none-eabi-4_9-2014q4/arm-none-eabi/include/c++/4.9.3/c
 4884              		.file 44 "/home/ergae/r2p-sdk/tools/gcc-arm-none-eabi-4_9-2014q4/arm-none-eabi/include/string.h"
 4885              		.file 45 "/home/ergae/r2p-sdk/core/Middleware/include/r2p/Uncopyable.hpp"
 4886              		.file 46 "/home/ergae/r2p-sdk/core/Middleware/include/r2p/StaticList.hpp"
 4887              		.file 47 "/home/ergae/r2p-sdk/core/Middleware/include/r2p/LocalPublisher.hpp"
 4888              		.file 48 "/home/ergae/r2p-sdk/core/Middleware/include/r2p/BaseSubscriber.hpp"
 4889              		.file 49 "/home/ergae/r2p-sdk/core/Middleware/include/r2p/msg/motor.hpp"
 4890              		.file 50 "/home/ergae/r2p-sdk/core/Middleware/include/r2p/common.hpp"
 4891              		.file 51 "/home/ergae/r2p-sdk/core/ChibiOS/os/ports/common/ARMCMx/CMSIS/include/core_cm4.h"
 4892              		.file 52 "/home/ergae/r2p-sdk/modules/USB_module/usbcfg.h"
 4893              		.section	.debug_info,"",%progbits
 4894              	.Ldebug_info0:
 4895 0000 166C0000 		.4byte	0x6c16
 4896 0004 0400     		.2byte	0x4
 4897 0006 00000000 		.4byte	.Ldebug_abbrev0
 4898 000a 04       		.byte	0x4
 4899 000b 01       		.uleb128 0x1
 4900 000c 470A0000 		.4byte	.LASF931
 4901 0010 04       		.byte	0x4
 4902 0011 19580000 		.4byte	.LASF932
 4903 0015 205E0000 		.4byte	.LASF933
 4904 0019 00000000 		.4byte	.Ldebug_ranges0+0
 4905 001d 00000000 		.4byte	0
 4906 0021 00000000 		.4byte	.Ldebug_line0
 4907 0025 02       		.uleb128 0x2
 4908 0026 64210000 		.4byte	.LASF2
 4909 002a 16       		.byte	0x16
 4910 002b D4       		.byte	0xd4
 4911 002c 30000000 		.4byte	0x30
 4912 0030 03       		.uleb128 0x3
ARM GAS  /tmp/ccypRU8x.s 			page 90


 4913 0031 04       		.byte	0x4
 4914 0032 07       		.byte	0x7
 4915 0033 24620000 		.4byte	.LASF0
 4916 0037 04       		.uleb128 0x4
 4917 0038 04       		.byte	0x4
 4918 0039 05       		.byte	0x5
 4919 003a 696E7400 		.ascii	"int\000"
 4920 003e 03       		.uleb128 0x3
 4921 003f 01       		.byte	0x1
 4922 0040 06       		.byte	0x6
 4923 0041 B1330000 		.4byte	.LASF1
 4924 0045 02       		.uleb128 0x2
 4925 0046 4F020000 		.4byte	.LASF3
 4926 004a 17       		.byte	0x17
 4927 004b 1D       		.byte	0x1d
 4928 004c 50000000 		.4byte	0x50
 4929 0050 03       		.uleb128 0x3
 4930 0051 01       		.byte	0x1
 4931 0052 08       		.byte	0x8
 4932 0053 AB170000 		.4byte	.LASF4
 4933 0057 02       		.uleb128 0x2
 4934 0058 DC140000 		.4byte	.LASF5
 4935 005c 17       		.byte	0x17
 4936 005d 29       		.byte	0x29
 4937 005e 62000000 		.4byte	0x62
 4938 0062 03       		.uleb128 0x3
 4939 0063 02       		.byte	0x2
 4940 0064 05       		.byte	0x5
 4941 0065 D1620000 		.4byte	.LASF6
 4942 0069 02       		.uleb128 0x2
 4943 006a F0140000 		.4byte	.LASF7
 4944 006e 17       		.byte	0x17
 4945 006f 2B       		.byte	0x2b
 4946 0070 74000000 		.4byte	0x74
 4947 0074 03       		.uleb128 0x3
 4948 0075 02       		.byte	0x2
 4949 0076 07       		.byte	0x7
 4950 0077 9E330000 		.4byte	.LASF8
 4951 007b 02       		.uleb128 0x2
 4952 007c C04C0000 		.4byte	.LASF9
 4953 0080 17       		.byte	0x17
 4954 0081 3F       		.byte	0x3f
 4955 0082 86000000 		.4byte	0x86
 4956 0086 03       		.uleb128 0x3
 4957 0087 04       		.byte	0x4
 4958 0088 05       		.byte	0x5
 4959 0089 B03B0000 		.4byte	.LASF10
 4960 008d 02       		.uleb128 0x2
 4961 008e 054D0000 		.4byte	.LASF11
 4962 0092 17       		.byte	0x17
 4963 0093 41       		.byte	0x41
 4964 0094 98000000 		.4byte	0x98
 4965 0098 03       		.uleb128 0x3
 4966 0099 04       		.byte	0x4
 4967 009a 07       		.byte	0x7
 4968 009b CA3F0000 		.4byte	.LASF12
 4969 009f 03       		.uleb128 0x3
ARM GAS  /tmp/ccypRU8x.s 			page 91


 4970 00a0 08       		.byte	0x8
 4971 00a1 05       		.byte	0x5
 4972 00a2 49590000 		.4byte	.LASF13
 4973 00a6 02       		.uleb128 0x2
 4974 00a7 05290000 		.4byte	.LASF14
 4975 00ab 17       		.byte	0x17
 4976 00ac 5B       		.byte	0x5b
 4977 00ad B1000000 		.4byte	0xb1
 4978 00b1 03       		.uleb128 0x3
 4979 00b2 08       		.byte	0x8
 4980 00b3 07       		.byte	0x7
 4981 00b4 B3510000 		.4byte	.LASF15
 4982 00b8 03       		.uleb128 0x3
 4983 00b9 04       		.byte	0x4
 4984 00ba 07       		.byte	0x7
 4985 00bb 26330000 		.4byte	.LASF16
 4986 00bf 05       		.uleb128 0x5
 4987 00c0 04       		.byte	0x4
 4988 00c1 06       		.uleb128 0x6
 4989 00c2 04       		.byte	0x4
 4990 00c3 C7000000 		.4byte	0xc7
 4991 00c7 03       		.uleb128 0x3
 4992 00c8 01       		.byte	0x1
 4993 00c9 08       		.byte	0x8
 4994 00ca 56420000 		.4byte	.LASF17
 4995 00ce 06       		.uleb128 0x6
 4996 00cf 04       		.byte	0x4
 4997 00d0 D4000000 		.4byte	0xd4
 4998 00d4 07       		.uleb128 0x7
 4999 00d5 C7000000 		.4byte	0xc7
 5000 00d9 06       		.uleb128 0x6
 5001 00da 04       		.byte	0x4
 5002 00db DF000000 		.4byte	0xdf
 5003 00df 08       		.uleb128 0x8
 5004 00e0 02       		.uleb128 0x2
 5005 00e1 DE210000 		.4byte	.LASF18
 5006 00e5 18       		.byte	0x18
 5007 00e6 15       		.byte	0x15
 5008 00e7 45000000 		.4byte	0x45
 5009 00eb 02       		.uleb128 0x2
 5010 00ec 96330000 		.4byte	.LASF19
 5011 00f0 18       		.byte	0x18
 5012 00f1 20       		.byte	0x20
 5013 00f2 57000000 		.4byte	0x57
 5014 00f6 02       		.uleb128 0x2
 5015 00f7 17060000 		.4byte	.LASF20
 5016 00fb 18       		.byte	0x18
 5017 00fc 21       		.byte	0x21
 5018 00fd 69000000 		.4byte	0x69
 5019 0101 02       		.uleb128 0x2
 5020 0102 870C0000 		.4byte	.LASF21
 5021 0106 18       		.byte	0x18
 5022 0107 2C       		.byte	0x2c
 5023 0108 7B000000 		.4byte	0x7b
 5024 010c 02       		.uleb128 0x2
 5025 010d F63D0000 		.4byte	.LASF22
 5026 0111 18       		.byte	0x18
ARM GAS  /tmp/ccypRU8x.s 			page 92


 5027 0112 2D       		.byte	0x2d
 5028 0113 8D000000 		.4byte	0x8d
 5029 0117 02       		.uleb128 0x2
 5030 0118 9E1A0000 		.4byte	.LASF23
 5031 011c 18       		.byte	0x18
 5032 011d 39       		.byte	0x39
 5033 011e A6000000 		.4byte	0xa6
 5034 0122 02       		.uleb128 0x2
 5035 0123 DC3F0000 		.4byte	.LASF24
 5036 0127 19       		.byte	0x19
 5037 0128 2B       		.byte	0x2b
 5038 0129 2D010000 		.4byte	0x12d
 5039 012d 03       		.uleb128 0x3
 5040 012e 01       		.byte	0x1
 5041 012f 02       		.byte	0x2
 5042 0130 420A0000 		.4byte	.LASF25
 5043 0134 02       		.uleb128 0x2
 5044 0135 0B2E0000 		.4byte	.LASF26
 5045 0139 19       		.byte	0x19
 5046 013a 2C       		.byte	0x2c
 5047 013b E0000000 		.4byte	0xe0
 5048 013f 02       		.uleb128 0x2
 5049 0140 80550000 		.4byte	.LASF27
 5050 0144 19       		.byte	0x19
 5051 0145 2D       		.byte	0x2d
 5052 0146 E0000000 		.4byte	0xe0
 5053 014a 02       		.uleb128 0x2
 5054 014b 1B2D0000 		.4byte	.LASF28
 5055 014f 19       		.byte	0x19
 5056 0150 2E       		.byte	0x2e
 5057 0151 E0000000 		.4byte	0xe0
 5058 0155 02       		.uleb128 0x2
 5059 0156 A6320000 		.4byte	.LASF29
 5060 015a 19       		.byte	0x19
 5061 015b 2F       		.byte	0x2f
 5062 015c E0000000 		.4byte	0xe0
 5063 0160 02       		.uleb128 0x2
 5064 0161 3E130000 		.4byte	.LASF30
 5065 0165 19       		.byte	0x19
 5066 0166 30       		.byte	0x30
 5067 0167 0C010000 		.4byte	0x10c
 5068 016b 02       		.uleb128 0x2
 5069 016c FD000000 		.4byte	.LASF31
 5070 0170 19       		.byte	0x19
 5071 0171 31       		.byte	0x31
 5072 0172 01010000 		.4byte	0x101
 5073 0176 02       		.uleb128 0x2
 5074 0177 043F0000 		.4byte	.LASF32
 5075 017b 19       		.byte	0x19
 5076 017c 33       		.byte	0x33
 5077 017d 0C010000 		.4byte	0x10c
 5078 0181 02       		.uleb128 0x2
 5079 0182 395B0000 		.4byte	.LASF33
 5080 0186 19       		.byte	0x19
 5081 0187 34       		.byte	0x34
 5082 0188 0C010000 		.4byte	0x10c
 5083 018c 02       		.uleb128 0x2
ARM GAS  /tmp/ccypRU8x.s 			page 93


 5084 018d DD0C0000 		.4byte	.LASF34
 5085 0191 19       		.byte	0x19
 5086 0192 35       		.byte	0x35
 5087 0193 0C010000 		.4byte	0x10c
 5088 0197 02       		.uleb128 0x2
 5089 0198 D31A0000 		.4byte	.LASF35
 5090 019c 1A       		.byte	0x1a
 5091 019d 2A       		.byte	0x2a
 5092 019e A2010000 		.4byte	0x1a2
 5093 01a2 09       		.uleb128 0x9
 5094 01a3 D31A0000 		.4byte	.LASF35
 5095 01a7 4C       		.byte	0x4c
 5096 01a8 1B       		.byte	0x1b
 5097 01a9 5E       		.byte	0x5e
 5098 01aa E0020000 		.4byte	0x2e0
 5099 01ae 0A       		.uleb128 0xa
 5100 01af 04       		.byte	0x4
 5101 01b0 1B       		.byte	0x1b
 5102 01b1 96       		.byte	0x96
 5103 01b2 E3010000 		.4byte	0x1e3
 5104 01b6 0B       		.uleb128 0xb
 5105 01b7 66270000 		.4byte	.LASF36
 5106 01bb 1B       		.byte	0x1b
 5107 01bc 9D       		.byte	0x9d
 5108 01bd 6B010000 		.4byte	0x16b
 5109 01c1 0B       		.uleb128 0xb
 5110 01c2 0F230000 		.4byte	.LASF37
 5111 01c6 1B       		.byte	0x1b
 5112 01c7 A4       		.byte	0xa4
 5113 01c8 6B010000 		.4byte	0x16b
 5114 01cc 0B       		.uleb128 0xb
 5115 01cd 93490000 		.4byte	.LASF38
 5116 01d1 1B       		.byte	0x1b
 5117 01d2 AB       		.byte	0xab
 5118 01d3 BF000000 		.4byte	0xbf
 5119 01d7 0B       		.uleb128 0xb
 5120 01d8 1A540000 		.4byte	.LASF39
 5121 01dc 1B       		.byte	0x1b
 5122 01dd B2       		.byte	0xb2
 5123 01de 76010000 		.4byte	0x176
 5124 01e2 00       		.byte	0
 5125 01e3 0C       		.uleb128 0xc
 5126 01e4 462A0000 		.4byte	.LASF40
 5127 01e8 1B       		.byte	0x1b
 5128 01e9 5F       		.byte	0x5f
 5129 01ea 5C060000 		.4byte	0x65c
 5130 01ee 00       		.byte	0
 5131 01ef 0C       		.uleb128 0xc
 5132 01f0 EE210000 		.4byte	.LASF41
 5133 01f4 1B       		.byte	0x1b
 5134 01f5 61       		.byte	0x61
 5135 01f6 5C060000 		.4byte	0x65c
 5136 01fa 04       		.byte	0x4
 5137 01fb 0C       		.uleb128 0xc
 5138 01fc 1F280000 		.4byte	.LASF42
 5139 0200 1B       		.byte	0x1b
 5140 0201 63       		.byte	0x63
ARM GAS  /tmp/ccypRU8x.s 			page 94


 5141 0202 60010000 		.4byte	0x160
 5142 0206 08       		.byte	0x8
 5143 0207 0C       		.uleb128 0xc
 5144 0208 99190000 		.4byte	.LASF43
 5145 020c 1B       		.byte	0x1b
 5146 020d 64       		.byte	0x64
 5147 020e 9C040000 		.4byte	0x49c
 5148 0212 0C       		.byte	0xc
 5149 0213 0C       		.uleb128 0xc
 5150 0214 F0070000 		.4byte	.LASF44
 5151 0218 1B       		.byte	0x1b
 5152 0219 66       		.byte	0x66
 5153 021a 5C060000 		.4byte	0x65c
 5154 021e 10       		.byte	0x10
 5155 021f 0C       		.uleb128 0xc
 5156 0220 EF5D0000 		.4byte	.LASF45
 5157 0224 1B       		.byte	0x1b
 5158 0225 67       		.byte	0x67
 5159 0226 5C060000 		.4byte	0x65c
 5160 022a 14       		.byte	0x14
 5161 022b 0C       		.uleb128 0xc
 5162 022c 44560000 		.4byte	.LASF46
 5163 0230 1B       		.byte	0x1b
 5164 0231 6E       		.byte	0x6e
 5165 0232 CE000000 		.4byte	0xce
 5166 0236 18       		.byte	0x18
 5167 0237 0C       		.uleb128 0xc
 5168 0238 DC460000 		.4byte	.LASF47
 5169 023c 1B       		.byte	0x1b
 5170 023d 74       		.byte	0x74
 5171 023e 62060000 		.4byte	0x662
 5172 0242 1C       		.byte	0x1c
 5173 0243 0C       		.uleb128 0xc
 5174 0244 E1630000 		.4byte	.LASF48
 5175 0248 1B       		.byte	0x1b
 5176 0249 79       		.byte	0x79
 5177 024a 3F010000 		.4byte	0x13f
 5178 024e 20       		.byte	0x20
 5179 024f 0C       		.uleb128 0xc
 5180 0250 D4530000 		.4byte	.LASF49
 5181 0254 1B       		.byte	0x1b
 5182 0255 7D       		.byte	0x7d
 5183 0256 34010000 		.4byte	0x134
 5184 025a 21       		.byte	0x21
 5185 025b 0C       		.uleb128 0xc
 5186 025c 413B0000 		.4byte	.LASF50
 5187 0260 1B       		.byte	0x1b
 5188 0261 82       		.byte	0x82
 5189 0262 4A010000 		.4byte	0x14a
 5190 0266 22       		.byte	0x22
 5191 0267 0C       		.uleb128 0xc
 5192 0268 C5330000 		.4byte	.LASF51
 5193 026c 1B       		.byte	0x1b
 5194 026d 88       		.byte	0x88
 5195 026e 55010000 		.4byte	0x155
 5196 0272 23       		.byte	0x23
 5197 0273 0C       		.uleb128 0xc
ARM GAS  /tmp/ccypRU8x.s 			page 95


 5198 0274 CF330000 		.4byte	.LASF52
 5199 0278 1B       		.byte	0x1b
 5200 0279 8F       		.byte	0x8f
 5201 027a C2040000 		.4byte	0x4c2
 5202 027e 24       		.byte	0x24
 5203 027f 0D       		.uleb128 0xd
 5204 0280 705F7500 		.ascii	"p_u\000"
 5205 0284 1B       		.byte	0x1b
 5206 0285 B4       		.byte	0xb4
 5207 0286 AE010000 		.4byte	0x1ae
 5208 028a 28       		.byte	0x28
 5209 028b 0C       		.uleb128 0xc
 5210 028c 6C110000 		.4byte	.LASF53
 5211 0290 1B       		.byte	0x1b
 5212 0291 B9       		.byte	0xb9
 5213 0292 2F030000 		.4byte	0x32f
 5214 0296 2C       		.byte	0x2c
 5215 0297 0C       		.uleb128 0xc
 5216 0298 06200000 		.4byte	.LASF54
 5217 029c 1B       		.byte	0x1b
 5218 029d BF       		.byte	0xbf
 5219 029e 0B030000 		.4byte	0x30b
 5220 02a2 30       		.byte	0x30
 5221 02a3 0C       		.uleb128 0xc
 5222 02a4 0F150000 		.4byte	.LASF55
 5223 02a8 1B       		.byte	0x1b
 5224 02a9 C3       		.byte	0xc3
 5225 02aa 6B010000 		.4byte	0x16b
 5226 02ae 38       		.byte	0x38
 5227 02af 0C       		.uleb128 0xc
 5228 02b0 A34E0000 		.4byte	.LASF56
 5229 02b4 1B       		.byte	0x1b
 5230 02b5 C9       		.byte	0xc9
 5231 02b6 76010000 		.4byte	0x176
 5232 02ba 3C       		.byte	0x3c
 5233 02bb 0C       		.uleb128 0xc
 5234 02bc F1540000 		.4byte	.LASF57
 5235 02c0 1B       		.byte	0x1b
 5236 02c1 D0       		.byte	0xd0
 5237 02c2 68060000 		.4byte	0x668
 5238 02c6 40       		.byte	0x40
 5239 02c7 0C       		.uleb128 0xc
 5240 02c8 EE490000 		.4byte	.LASF58
 5241 02cc 1B       		.byte	0x1b
 5242 02cd D4       		.byte	0xd4
 5243 02ce 60010000 		.4byte	0x160
 5244 02d2 44       		.byte	0x44
 5245 02d3 0C       		.uleb128 0xc
 5246 02d4 3A2D0000 		.4byte	.LASF59
 5247 02d8 1B       		.byte	0x1b
 5248 02d9 DA       		.byte	0xda
 5249 02da BF000000 		.4byte	0xbf
 5250 02de 48       		.byte	0x48
 5251 02df 00       		.byte	0
 5252 02e0 0E       		.uleb128 0xe
 5253 02e1 08       		.byte	0x8
 5254 02e2 1A       		.byte	0x1a
ARM GAS  /tmp/ccypRU8x.s 			page 96


 5255 02e3 61       		.byte	0x61
 5256 02e4 5E440000 		.4byte	.LASF61
 5257 02e8 05030000 		.4byte	0x305
 5258 02ec 0C       		.uleb128 0xc
 5259 02ed 462A0000 		.4byte	.LASF40
 5260 02f1 1A       		.byte	0x1a
 5261 02f2 62       		.byte	0x62
 5262 02f3 05030000 		.4byte	0x305
 5263 02f7 00       		.byte	0
 5264 02f8 0C       		.uleb128 0xc
 5265 02f9 EE210000 		.4byte	.LASF41
 5266 02fd 1A       		.byte	0x1a
 5267 02fe 64       		.byte	0x64
 5268 02ff 05030000 		.4byte	0x305
 5269 0303 04       		.byte	0x4
 5270 0304 00       		.byte	0
 5271 0305 06       		.uleb128 0x6
 5272 0306 04       		.byte	0x4
 5273 0307 97010000 		.4byte	0x197
 5274 030b 02       		.uleb128 0x2
 5275 030c D1210000 		.4byte	.LASF60
 5276 0310 1A       		.byte	0x1a
 5277 0311 66       		.byte	0x66
 5278 0312 E0020000 		.4byte	0x2e0
 5279 0316 0E       		.uleb128 0xe
 5280 0317 04       		.byte	0x4
 5281 0318 1A       		.byte	0x1a
 5282 0319 6B       		.byte	0x6b
 5283 031a 32120000 		.4byte	.LASF62
 5284 031e 2F030000 		.4byte	0x32f
 5285 0322 0C       		.uleb128 0xc
 5286 0323 462A0000 		.4byte	.LASF40
 5287 0327 1A       		.byte	0x1a
 5288 0328 6D       		.byte	0x6d
 5289 0329 05030000 		.4byte	0x305
 5290 032d 00       		.byte	0
 5291 032e 00       		.byte	0
 5292 032f 02       		.uleb128 0x2
 5293 0330 5F360000 		.4byte	.LASF63
 5294 0334 1A       		.byte	0x1a
 5295 0335 70       		.byte	0x70
 5296 0336 16030000 		.4byte	0x316
 5297 033a 02       		.uleb128 0x2
 5298 033b FB3E0000 		.4byte	.LASF64
 5299 033f 1C       		.byte	0x1c
 5300 0340 E5       		.byte	0xe5
 5301 0341 BF000000 		.4byte	0xbf
 5302 0345 02       		.uleb128 0x2
 5303 0346 06170000 		.4byte	.LASF65
 5304 034a 1C       		.byte	0x1c
 5305 034b EB       		.byte	0xeb
 5306 034c 17010000 		.4byte	0x117
 5307 0350 0F       		.uleb128 0xf
 5308 0351 73000000 		.4byte	.LASF66
 5309 0355 64       		.byte	0x64
 5310 0356 1C       		.byte	0x1c
 5311 0357 0C01     		.2byte	0x10c
ARM GAS  /tmp/ccypRU8x.s 			page 97


 5312 0359 9C040000 		.4byte	0x49c
 5313 035d 10       		.uleb128 0x10
 5314 035e 73313600 		.ascii	"s16\000"
 5315 0362 1C       		.byte	0x1c
 5316 0363 0E01     		.2byte	0x10e
 5317 0365 3A030000 		.4byte	0x33a
 5318 0369 00       		.byte	0
 5319 036a 10       		.uleb128 0x10
 5320 036b 73313700 		.ascii	"s17\000"
 5321 036f 1C       		.byte	0x1c
 5322 0370 0F01     		.2byte	0x10f
 5323 0372 3A030000 		.4byte	0x33a
 5324 0376 04       		.byte	0x4
 5325 0377 10       		.uleb128 0x10
 5326 0378 73313800 		.ascii	"s18\000"
 5327 037c 1C       		.byte	0x1c
 5328 037d 1001     		.2byte	0x110
 5329 037f 3A030000 		.4byte	0x33a
 5330 0383 08       		.byte	0x8
 5331 0384 10       		.uleb128 0x10
 5332 0385 73313900 		.ascii	"s19\000"
 5333 0389 1C       		.byte	0x1c
 5334 038a 1101     		.2byte	0x111
 5335 038c 3A030000 		.4byte	0x33a
 5336 0390 0C       		.byte	0xc
 5337 0391 10       		.uleb128 0x10
 5338 0392 73323000 		.ascii	"s20\000"
 5339 0396 1C       		.byte	0x1c
 5340 0397 1201     		.2byte	0x112
 5341 0399 3A030000 		.4byte	0x33a
 5342 039d 10       		.byte	0x10
 5343 039e 10       		.uleb128 0x10
 5344 039f 73323100 		.ascii	"s21\000"
 5345 03a3 1C       		.byte	0x1c
 5346 03a4 1301     		.2byte	0x113
 5347 03a6 3A030000 		.4byte	0x33a
 5348 03aa 14       		.byte	0x14
 5349 03ab 10       		.uleb128 0x10
 5350 03ac 73323200 		.ascii	"s22\000"
 5351 03b0 1C       		.byte	0x1c
 5352 03b1 1401     		.2byte	0x114
 5353 03b3 3A030000 		.4byte	0x33a
 5354 03b7 18       		.byte	0x18
 5355 03b8 10       		.uleb128 0x10
 5356 03b9 73323300 		.ascii	"s23\000"
 5357 03bd 1C       		.byte	0x1c
 5358 03be 1501     		.2byte	0x115
 5359 03c0 3A030000 		.4byte	0x33a
 5360 03c4 1C       		.byte	0x1c
 5361 03c5 10       		.uleb128 0x10
 5362 03c6 73323400 		.ascii	"s24\000"
 5363 03ca 1C       		.byte	0x1c
 5364 03cb 1601     		.2byte	0x116
 5365 03cd 3A030000 		.4byte	0x33a
 5366 03d1 20       		.byte	0x20
 5367 03d2 10       		.uleb128 0x10
 5368 03d3 73323500 		.ascii	"s25\000"
ARM GAS  /tmp/ccypRU8x.s 			page 98


 5369 03d7 1C       		.byte	0x1c
 5370 03d8 1701     		.2byte	0x117
 5371 03da 3A030000 		.4byte	0x33a
 5372 03de 24       		.byte	0x24
 5373 03df 10       		.uleb128 0x10
 5374 03e0 73323600 		.ascii	"s26\000"
 5375 03e4 1C       		.byte	0x1c
 5376 03e5 1801     		.2byte	0x118
 5377 03e7 3A030000 		.4byte	0x33a
 5378 03eb 28       		.byte	0x28
 5379 03ec 10       		.uleb128 0x10
 5380 03ed 73323700 		.ascii	"s27\000"
 5381 03f1 1C       		.byte	0x1c
 5382 03f2 1901     		.2byte	0x119
 5383 03f4 3A030000 		.4byte	0x33a
 5384 03f8 2C       		.byte	0x2c
 5385 03f9 10       		.uleb128 0x10
 5386 03fa 73323800 		.ascii	"s28\000"
 5387 03fe 1C       		.byte	0x1c
 5388 03ff 1A01     		.2byte	0x11a
 5389 0401 3A030000 		.4byte	0x33a
 5390 0405 30       		.byte	0x30
 5391 0406 10       		.uleb128 0x10
 5392 0407 73323900 		.ascii	"s29\000"
 5393 040b 1C       		.byte	0x1c
 5394 040c 1B01     		.2byte	0x11b
 5395 040e 3A030000 		.4byte	0x33a
 5396 0412 34       		.byte	0x34
 5397 0413 10       		.uleb128 0x10
 5398 0414 73333000 		.ascii	"s30\000"
 5399 0418 1C       		.byte	0x1c
 5400 0419 1C01     		.2byte	0x11c
 5401 041b 3A030000 		.4byte	0x33a
 5402 041f 38       		.byte	0x38
 5403 0420 10       		.uleb128 0x10
 5404 0421 73333100 		.ascii	"s31\000"
 5405 0425 1C       		.byte	0x1c
 5406 0426 1D01     		.2byte	0x11d
 5407 0428 3A030000 		.4byte	0x33a
 5408 042c 3C       		.byte	0x3c
 5409 042d 10       		.uleb128 0x10
 5410 042e 723400   		.ascii	"r4\000"
 5411 0431 1C       		.byte	0x1c
 5412 0432 1F01     		.2byte	0x11f
 5413 0434 3A030000 		.4byte	0x33a
 5414 0438 40       		.byte	0x40
 5415 0439 10       		.uleb128 0x10
 5416 043a 723500   		.ascii	"r5\000"
 5417 043d 1C       		.byte	0x1c
 5418 043e 2001     		.2byte	0x120
 5419 0440 3A030000 		.4byte	0x33a
 5420 0444 44       		.byte	0x44
 5421 0445 10       		.uleb128 0x10
 5422 0446 723600   		.ascii	"r6\000"
 5423 0449 1C       		.byte	0x1c
 5424 044a 2101     		.2byte	0x121
 5425 044c 3A030000 		.4byte	0x33a
ARM GAS  /tmp/ccypRU8x.s 			page 99


 5426 0450 48       		.byte	0x48
 5427 0451 10       		.uleb128 0x10
 5428 0452 723700   		.ascii	"r7\000"
 5429 0455 1C       		.byte	0x1c
 5430 0456 2201     		.2byte	0x122
 5431 0458 3A030000 		.4byte	0x33a
 5432 045c 4C       		.byte	0x4c
 5433 045d 10       		.uleb128 0x10
 5434 045e 723800   		.ascii	"r8\000"
 5435 0461 1C       		.byte	0x1c
 5436 0462 2301     		.2byte	0x123
 5437 0464 3A030000 		.4byte	0x33a
 5438 0468 50       		.byte	0x50
 5439 0469 10       		.uleb128 0x10
 5440 046a 723900   		.ascii	"r9\000"
 5441 046d 1C       		.byte	0x1c
 5442 046e 2401     		.2byte	0x124
 5443 0470 3A030000 		.4byte	0x33a
 5444 0474 54       		.byte	0x54
 5445 0475 10       		.uleb128 0x10
 5446 0476 72313000 		.ascii	"r10\000"
 5447 047a 1C       		.byte	0x1c
 5448 047b 2501     		.2byte	0x125
 5449 047d 3A030000 		.4byte	0x33a
 5450 0481 58       		.byte	0x58
 5451 0482 10       		.uleb128 0x10
 5452 0483 72313100 		.ascii	"r11\000"
 5453 0487 1C       		.byte	0x1c
 5454 0488 2601     		.2byte	0x126
 5455 048a 3A030000 		.4byte	0x33a
 5456 048e 5C       		.byte	0x5c
 5457 048f 10       		.uleb128 0x10
 5458 0490 6C7200   		.ascii	"lr\000"
 5459 0493 1C       		.byte	0x1c
 5460 0494 2701     		.2byte	0x127
 5461 0496 3A030000 		.4byte	0x33a
 5462 049a 60       		.byte	0x60
 5463 049b 00       		.byte	0
 5464 049c 0F       		.uleb128 0xf
 5465 049d 9B3D0000 		.4byte	.LASF67
 5466 04a1 04       		.byte	0x4
 5467 04a2 1C       		.byte	0x1c
 5468 04a3 3101     		.2byte	0x131
 5469 04a5 B7040000 		.4byte	0x4b7
 5470 04a9 10       		.uleb128 0x10
 5471 04aa 72313300 		.ascii	"r13\000"
 5472 04ae 1C       		.byte	0x1c
 5473 04af 3201     		.2byte	0x132
 5474 04b1 B7040000 		.4byte	0x4b7
 5475 04b5 00       		.byte	0
 5476 04b6 00       		.byte	0
 5477 04b7 06       		.uleb128 0x6
 5478 04b8 04       		.byte	0x4
 5479 04b9 50030000 		.4byte	0x350
 5480 04bd 11       		.uleb128 0x11
 5481 04be 0C010000 		.4byte	0x10c
 5482 04c2 11       		.uleb128 0x11
ARM GAS  /tmp/ccypRU8x.s 			page 100


 5483 04c3 8C010000 		.4byte	0x18c
 5484 04c7 0E       		.uleb128 0xe
 5485 04c8 1C       		.byte	0x1c
 5486 04c9 1D       		.byte	0x1d
 5487 04ca 5E       		.byte	0x5e
 5488 04cb 5C250000 		.4byte	.LASF68
 5489 04cf 1C050000 		.4byte	0x51c
 5490 04d3 0C       		.uleb128 0xc
 5491 04d4 64420000 		.4byte	.LASF69
 5492 04d8 1D       		.byte	0x1d
 5493 04d9 5F       		.byte	0x5f
 5494 04da 0B030000 		.4byte	0x30b
 5495 04de 00       		.byte	0
 5496 04df 0C       		.uleb128 0xc
 5497 04e0 30510000 		.4byte	.LASF70
 5498 04e4 1D       		.byte	0x1d
 5499 04e5 60       		.byte	0x60
 5500 04e6 60010000 		.4byte	0x160
 5501 04ea 08       		.byte	0x8
 5502 04eb 0C       		.uleb128 0xc
 5503 04ec 601F0000 		.4byte	.LASF71
 5504 04f0 1D       		.byte	0x1d
 5505 04f1 62       		.byte	0x62
 5506 04f2 9C040000 		.4byte	0x49c
 5507 04f6 0C       		.byte	0xc
 5508 04f7 0C       		.uleb128 0xc
 5509 04f8 1A320000 		.4byte	.LASF72
 5510 04fc 1D       		.byte	0x1d
 5511 04fd 65       		.byte	0x65
 5512 04fe 05030000 		.4byte	0x305
 5513 0502 10       		.byte	0x10
 5514 0503 0C       		.uleb128 0xc
 5515 0504 E6210000 		.4byte	.LASF73
 5516 0508 1D       		.byte	0x1d
 5517 0509 66       		.byte	0x66
 5518 050a 05030000 		.4byte	0x305
 5519 050e 14       		.byte	0x14
 5520 050f 0C       		.uleb128 0xc
 5521 0510 CA190000 		.4byte	.LASF74
 5522 0514 1D       		.byte	0x1d
 5523 0515 69       		.byte	0x69
 5524 0516 05030000 		.4byte	0x305
 5525 051a 18       		.byte	0x18
 5526 051b 00       		.byte	0
 5527 051c 02       		.uleb128 0x2
 5528 051d 471B0000 		.4byte	.LASF75
 5529 0521 1D       		.byte	0x1d
 5530 0522 6B       		.byte	0x6b
 5531 0523 C7040000 		.4byte	0x4c7
 5532 0527 09       		.uleb128 0x9
 5533 0528 FC1D0000 		.4byte	.LASF76
 5534 052c 10       		.byte	0x10
 5535 052d 1E       		.byte	0x1e
 5536 052e 2C       		.byte	0x2c
 5537 052f 58050000 		.4byte	0x558
 5538 0533 0C       		.uleb128 0xc
 5539 0534 E03B0000 		.4byte	.LASF77
ARM GAS  /tmp/ccypRU8x.s 			page 101


 5540 0538 1E       		.byte	0x1e
 5541 0539 2D       		.byte	0x2d
 5542 053a 0B030000 		.4byte	0x30b
 5543 053e 00       		.byte	0
 5544 053f 0C       		.uleb128 0xc
 5545 0540 57360000 		.4byte	.LASF78
 5546 0544 1E       		.byte	0x1e
 5547 0545 2F       		.byte	0x2f
 5548 0546 05030000 		.4byte	0x305
 5549 054a 08       		.byte	0x8
 5550 054b 0C       		.uleb128 0xc
 5551 054c F0040000 		.4byte	.LASF79
 5552 0550 1E       		.byte	0x1e
 5553 0551 31       		.byte	0x31
 5554 0552 58050000 		.4byte	0x558
 5555 0556 0C       		.byte	0xc
 5556 0557 00       		.byte	0
 5557 0558 06       		.uleb128 0x6
 5558 0559 04       		.byte	0x4
 5559 055a 27050000 		.4byte	0x527
 5560 055e 02       		.uleb128 0x2
 5561 055f FC1D0000 		.4byte	.LASF76
 5562 0563 1E       		.byte	0x1e
 5563 0564 33       		.byte	0x33
 5564 0565 27050000 		.4byte	0x527
 5565 0569 02       		.uleb128 0x2
 5566 056a 70330000 		.4byte	.LASF80
 5567 056e 1F       		.byte	0x1f
 5568 056f 2C       		.byte	0x2c
 5569 0570 74050000 		.4byte	0x574
 5570 0574 09       		.uleb128 0x9
 5571 0575 70330000 		.4byte	.LASF80
 5572 0579 10       		.byte	0x10
 5573 057a 1F       		.byte	0x1f
 5574 057b 31       		.byte	0x31
 5575 057c B1050000 		.4byte	0x5b1
 5576 0580 0C       		.uleb128 0xc
 5577 0581 5A070000 		.4byte	.LASF81
 5578 0585 1F       		.byte	0x1f
 5579 0586 32       		.byte	0x32
 5580 0587 B1050000 		.4byte	0x5b1
 5581 058b 00       		.byte	0
 5582 058c 0C       		.uleb128 0xc
 5583 058d D84F0000 		.4byte	.LASF82
 5584 0591 1F       		.byte	0x1f
 5585 0592 35       		.byte	0x35
 5586 0593 05030000 		.4byte	0x305
 5587 0597 04       		.byte	0x4
 5588 0598 0C       		.uleb128 0xc
 5589 0599 8A0D0000 		.4byte	.LASF83
 5590 059d 1F       		.byte	0x1f
 5591 059e 37       		.byte	0x37
 5592 059f 76010000 		.4byte	0x176
 5593 05a3 08       		.byte	0x8
 5594 05a4 0C       		.uleb128 0xc
 5595 05a5 B4540000 		.4byte	.LASF84
 5596 05a9 1F       		.byte	0x1f
ARM GAS  /tmp/ccypRU8x.s 			page 102


 5597 05aa 3A       		.byte	0x3a
 5598 05ab 81010000 		.4byte	0x181
 5599 05af 0C       		.byte	0xc
 5600 05b0 00       		.byte	0
 5601 05b1 06       		.uleb128 0x6
 5602 05b2 04       		.byte	0x4
 5603 05b3 74050000 		.4byte	0x574
 5604 05b7 09       		.uleb128 0x9
 5605 05b8 A1240000 		.4byte	.LASF85
 5606 05bc 04       		.byte	0x4
 5607 05bd 1F       		.byte	0x1f
 5608 05be 41       		.byte	0x41
 5609 05bf D0050000 		.4byte	0x5d0
 5610 05c3 0C       		.uleb128 0xc
 5611 05c4 B3520000 		.4byte	.LASF86
 5612 05c8 1F       		.byte	0x1f
 5613 05c9 42       		.byte	0x42
 5614 05ca D0050000 		.4byte	0x5d0
 5615 05ce 00       		.byte	0
 5616 05cf 00       		.byte	0
 5617 05d0 06       		.uleb128 0x6
 5618 05d1 04       		.byte	0x4
 5619 05d2 69050000 		.4byte	0x569
 5620 05d6 02       		.uleb128 0x2
 5621 05d7 A1240000 		.4byte	.LASF85
 5622 05db 1F       		.byte	0x1f
 5623 05dc 45       		.byte	0x45
 5624 05dd B7050000 		.4byte	0x5b7
 5625 05e1 02       		.uleb128 0x2
 5626 05e2 BF030000 		.4byte	.LASF87
 5627 05e6 20       		.byte	0x20
 5628 05e7 2C       		.byte	0x2c
 5629 05e8 EC050000 		.4byte	0x5ec
 5630 05ec 06       		.uleb128 0x6
 5631 05ed 04       		.byte	0x4
 5632 05ee F2050000 		.4byte	0x5f2
 5633 05f2 12       		.uleb128 0x12
 5634 05f3 BF000000 		.4byte	0xbf
 5635 05f7 01060000 		.4byte	0x601
 5636 05fb 13       		.uleb128 0x13
 5637 05fc 25000000 		.4byte	0x25
 5638 0600 00       		.byte	0
 5639 0601 09       		.uleb128 0x9
 5640 0602 6F190000 		.4byte	.LASF88
 5641 0606 04       		.byte	0x4
 5642 0607 21       		.byte	0x21
 5643 0608 2C       		.byte	0x2c
 5644 0609 1A060000 		.4byte	0x61a
 5645 060d 0C       		.uleb128 0xc
 5646 060e 8A2E0000 		.4byte	.LASF89
 5647 0612 21       		.byte	0x21
 5648 0613 2D       		.byte	0x2d
 5649 0614 1A060000 		.4byte	0x61a
 5650 0618 00       		.byte	0
 5651 0619 00       		.byte	0
 5652 061a 06       		.uleb128 0x6
 5653 061b 04       		.byte	0x4
ARM GAS  /tmp/ccypRU8x.s 			page 103


 5654 061c 01060000 		.4byte	0x601
 5655 0620 0E       		.uleb128 0xe
 5656 0621 0C       		.byte	0xc
 5657 0622 21       		.byte	0x21
 5658 0623 34       		.byte	0x34
 5659 0624 A6510000 		.4byte	.LASF90
 5660 0628 51060000 		.4byte	0x651
 5661 062c 0C       		.uleb128 0xc
 5662 062d A73A0000 		.4byte	.LASF91
 5663 0631 21       		.byte	0x21
 5664 0632 35       		.byte	0x35
 5665 0633 1A060000 		.4byte	0x61a
 5666 0637 00       		.byte	0
 5667 0638 0C       		.uleb128 0xc
 5668 0639 46130000 		.4byte	.LASF92
 5669 063d 21       		.byte	0x21
 5670 063e 36       		.byte	0x36
 5671 063f 25000000 		.4byte	0x25
 5672 0643 04       		.byte	0x4
 5673 0644 0C       		.uleb128 0xc
 5674 0645 E93A0000 		.4byte	.LASF93
 5675 0649 21       		.byte	0x21
 5676 064a 38       		.byte	0x38
 5677 064b E1050000 		.4byte	0x5e1
 5678 064f 08       		.byte	0x8
 5679 0650 00       		.byte	0
 5680 0651 02       		.uleb128 0x2
 5681 0652 16140000 		.4byte	.LASF94
 5682 0656 21       		.byte	0x21
 5683 0657 3A       		.byte	0x3a
 5684 0658 20060000 		.4byte	0x620
 5685 065c 06       		.uleb128 0x6
 5686 065d 04       		.byte	0x4
 5687 065e A2010000 		.4byte	0x1a2
 5688 0662 06       		.uleb128 0x6
 5689 0663 04       		.byte	0x4
 5690 0664 45030000 		.4byte	0x345
 5691 0668 06       		.uleb128 0x6
 5692 0669 04       		.byte	0x4
 5693 066a 5E050000 		.4byte	0x55e
 5694 066e 02       		.uleb128 0x2
 5695 066f CC140000 		.4byte	.LASF95
 5696 0673 1B       		.byte	0x1b
 5697 0674 E5       		.byte	0xe5
 5698 0675 79060000 		.4byte	0x679
 5699 0679 06       		.uleb128 0x6
 5700 067a 04       		.byte	0x4
 5701 067b 7F060000 		.4byte	0x67f
 5702 067f 12       		.uleb128 0x12
 5703 0680 6B010000 		.4byte	0x16b
 5704 0684 8E060000 		.4byte	0x68e
 5705 0688 13       		.uleb128 0x13
 5706 0689 BF000000 		.4byte	0xbf
 5707 068d 00       		.byte	0
 5708 068e 02       		.uleb128 0x2
 5709 068f 655B0000 		.4byte	.LASF96
 5710 0693 22       		.byte	0x22
ARM GAS  /tmp/ccypRU8x.s 			page 104


 5711 0694 37       		.byte	0x37
 5712 0695 99060000 		.4byte	0x699
 5713 0699 09       		.uleb128 0x9
 5714 069a 655B0000 		.4byte	.LASF96
 5715 069e 24       		.byte	0x24
 5716 069f 22       		.byte	0x22
 5717 06a0 45       		.byte	0x45
 5718 06a1 06070000 		.4byte	0x706
 5719 06a5 0C       		.uleb128 0xc
 5720 06a6 DF110000 		.4byte	.LASF97
 5721 06aa 22       		.byte	0x22
 5722 06ab 46       		.byte	0x46
 5723 06ac 0B030000 		.4byte	0x30b
 5724 06b0 00       		.byte	0
 5725 06b1 0C       		.uleb128 0xc
 5726 06b2 C34D0000 		.4byte	.LASF98
 5727 06b6 22       		.byte	0x22
 5728 06b7 47       		.byte	0x47
 5729 06b8 25000000 		.4byte	0x25
 5730 06bc 08       		.byte	0x8
 5731 06bd 0C       		.uleb128 0xc
 5732 06be 3D2A0000 		.4byte	.LASF99
 5733 06c2 22       		.byte	0x22
 5734 06c3 48       		.byte	0x48
 5735 06c4 28070000 		.4byte	0x728
 5736 06c8 0C       		.byte	0xc
 5737 06c9 0C       		.uleb128 0xc
 5738 06ca AE0F0000 		.4byte	.LASF100
 5739 06ce 22       		.byte	0x22
 5740 06cf 49       		.byte	0x49
 5741 06d0 28070000 		.4byte	0x728
 5742 06d4 10       		.byte	0x10
 5743 06d5 0C       		.uleb128 0xc
 5744 06d6 F75F0000 		.4byte	.LASF101
 5745 06da 22       		.byte	0x22
 5746 06db 4B       		.byte	0x4b
 5747 06dc 28070000 		.4byte	0x728
 5748 06e0 14       		.byte	0x14
 5749 06e1 0C       		.uleb128 0xc
 5750 06e2 933D0000 		.4byte	.LASF102
 5751 06e6 22       		.byte	0x22
 5752 06e7 4C       		.byte	0x4c
 5753 06e8 28070000 		.4byte	0x728
 5754 06ec 18       		.byte	0x18
 5755 06ed 0C       		.uleb128 0xc
 5756 06ee 924A0000 		.4byte	.LASF103
 5757 06f2 22       		.byte	0x22
 5758 06f3 4D       		.byte	0x4d
 5759 06f4 06070000 		.4byte	0x706
 5760 06f8 1C       		.byte	0x1c
 5761 06f9 0C       		.uleb128 0xc
 5762 06fa 29430000 		.4byte	.LASF104
 5763 06fe 22       		.byte	0x22
 5764 06ff 4E       		.byte	0x4e
 5765 0700 BF000000 		.4byte	0xbf
 5766 0704 20       		.byte	0x20
 5767 0705 00       		.byte	0
ARM GAS  /tmp/ccypRU8x.s 			page 105


 5768 0706 02       		.uleb128 0x2
 5769 0707 D40E0000 		.4byte	.LASF105
 5770 070b 22       		.byte	0x22
 5771 070c 3A       		.byte	0x3a
 5772 070d 11070000 		.4byte	0x711
 5773 0711 06       		.uleb128 0x6
 5774 0712 04       		.byte	0x4
 5775 0713 17070000 		.4byte	0x717
 5776 0717 14       		.uleb128 0x14
 5777 0718 22070000 		.4byte	0x722
 5778 071c 13       		.uleb128 0x13
 5779 071d 22070000 		.4byte	0x722
 5780 0721 00       		.byte	0
 5781 0722 06       		.uleb128 0x6
 5782 0723 04       		.byte	0x4
 5783 0724 8E060000 		.4byte	0x68e
 5784 0728 06       		.uleb128 0x6
 5785 0729 04       		.byte	0x4
 5786 072a E0000000 		.4byte	0xe0
 5787 072e 02       		.uleb128 0x2
 5788 072f 6A390000 		.4byte	.LASF106
 5789 0733 22       		.byte	0x22
 5790 0734 82       		.byte	0x82
 5791 0735 8E060000 		.4byte	0x68e
 5792 0739 02       		.uleb128 0x2
 5793 073a F75D0000 		.4byte	.LASF107
 5794 073e 22       		.byte	0x22
 5795 073f F5       		.byte	0xf5
 5796 0740 8E060000 		.4byte	0x68e
 5797 0744 09       		.uleb128 0x9
 5798 0745 DE5E0000 		.4byte	.LASF108
 5799 0749 10       		.byte	0x10
 5800 074a 23       		.byte	0x23
 5801 074b 48       		.byte	0x48
 5802 074c 81070000 		.4byte	0x781
 5803 0750 0C       		.uleb128 0xc
 5804 0751 A33D0000 		.4byte	.LASF109
 5805 0755 23       		.byte	0x23
 5806 0756 49       		.byte	0x49
 5807 0757 A5070000 		.4byte	0x7a5
 5808 075b 00       		.byte	0
 5809 075c 0C       		.uleb128 0xc
 5810 075d 86050000 		.4byte	.LASF110
 5811 0761 23       		.byte	0x23
 5812 0762 49       		.byte	0x49
 5813 0763 C4070000 		.4byte	0x7c4
 5814 0767 04       		.byte	0x4
 5815 0768 0D       		.uleb128 0xd
 5816 0769 70757400 		.ascii	"put\000"
 5817 076d 23       		.byte	0x23
 5818 076e 49       		.byte	0x49
 5819 076f DE070000 		.4byte	0x7de
 5820 0773 08       		.byte	0x8
 5821 0774 0D       		.uleb128 0xd
 5822 0775 67657400 		.ascii	"get\000"
 5823 0779 23       		.byte	0x23
 5824 077a 49       		.byte	0x49
ARM GAS  /tmp/ccypRU8x.s 			page 106


 5825 077b 79060000 		.4byte	0x679
 5826 077f 0C       		.byte	0xc
 5827 0780 00       		.byte	0
 5828 0781 12       		.uleb128 0x12
 5829 0782 25000000 		.4byte	0x25
 5830 0786 9A070000 		.4byte	0x79a
 5831 078a 13       		.uleb128 0x13
 5832 078b BF000000 		.4byte	0xbf
 5833 078f 13       		.uleb128 0x13
 5834 0790 9A070000 		.4byte	0x79a
 5835 0794 13       		.uleb128 0x13
 5836 0795 25000000 		.4byte	0x25
 5837 0799 00       		.byte	0
 5838 079a 06       		.uleb128 0x6
 5839 079b 04       		.byte	0x4
 5840 079c A0070000 		.4byte	0x7a0
 5841 07a0 07       		.uleb128 0x7
 5842 07a1 E0000000 		.4byte	0xe0
 5843 07a5 06       		.uleb128 0x6
 5844 07a6 04       		.byte	0x4
 5845 07a7 81070000 		.4byte	0x781
 5846 07ab 12       		.uleb128 0x12
 5847 07ac 25000000 		.4byte	0x25
 5848 07b0 C4070000 		.4byte	0x7c4
 5849 07b4 13       		.uleb128 0x13
 5850 07b5 BF000000 		.4byte	0xbf
 5851 07b9 13       		.uleb128 0x13
 5852 07ba 28070000 		.4byte	0x728
 5853 07be 13       		.uleb128 0x13
 5854 07bf 25000000 		.4byte	0x25
 5855 07c3 00       		.byte	0
 5856 07c4 06       		.uleb128 0x6
 5857 07c5 04       		.byte	0x4
 5858 07c6 AB070000 		.4byte	0x7ab
 5859 07ca 12       		.uleb128 0x12
 5860 07cb 6B010000 		.4byte	0x16b
 5861 07cf DE070000 		.4byte	0x7de
 5862 07d3 13       		.uleb128 0x13
 5863 07d4 BF000000 		.4byte	0xbf
 5864 07d8 13       		.uleb128 0x13
 5865 07d9 E0000000 		.4byte	0xe0
 5866 07dd 00       		.byte	0
 5867 07de 06       		.uleb128 0x6
 5868 07df 04       		.byte	0x4
 5869 07e0 CA070000 		.4byte	0x7ca
 5870 07e4 0E       		.uleb128 0xe
 5871 07e5 04       		.byte	0x4
 5872 07e6 23       		.byte	0x23
 5873 07e7 51       		.byte	0x51
 5874 07e8 232D0000 		.4byte	.LASF111
 5875 07ec FD070000 		.4byte	0x7fd
 5876 07f0 0D       		.uleb128 0xd
 5877 07f1 766D7400 		.ascii	"vmt\000"
 5878 07f5 23       		.byte	0x23
 5879 07f6 53       		.byte	0x53
 5880 07f7 FD070000 		.4byte	0x7fd
 5881 07fb 00       		.byte	0
ARM GAS  /tmp/ccypRU8x.s 			page 107


 5882 07fc 00       		.byte	0
 5883 07fd 06       		.uleb128 0x6
 5884 07fe 04       		.byte	0x4
 5885 07ff 03080000 		.4byte	0x803
 5886 0803 07       		.uleb128 0x7
 5887 0804 44070000 		.4byte	0x744
 5888 0808 02       		.uleb128 0x2
 5889 0809 F4080000 		.4byte	.LASF112
 5890 080d 23       		.byte	0x23
 5891 080e 55       		.byte	0x55
 5892 080f E4070000 		.4byte	0x7e4
 5893 0813 11       		.uleb128 0x11
 5894 0814 01010000 		.4byte	0x101
 5895 0818 12       		.uleb128 0x12
 5896 0819 6B010000 		.4byte	0x16b
 5897 081d 31080000 		.4byte	0x831
 5898 0821 13       		.uleb128 0x13
 5899 0822 BF000000 		.4byte	0xbf
 5900 0826 13       		.uleb128 0x13
 5901 0827 E0000000 		.4byte	0xe0
 5902 082b 13       		.uleb128 0x13
 5903 082c 8C010000 		.4byte	0x18c
 5904 0830 00       		.byte	0
 5905 0831 06       		.uleb128 0x6
 5906 0832 04       		.byte	0x4
 5907 0833 18080000 		.4byte	0x818
 5908 0837 12       		.uleb128 0x12
 5909 0838 6B010000 		.4byte	0x16b
 5910 083c 4B080000 		.4byte	0x84b
 5911 0840 13       		.uleb128 0x13
 5912 0841 BF000000 		.4byte	0xbf
 5913 0845 13       		.uleb128 0x13
 5914 0846 8C010000 		.4byte	0x18c
 5915 084a 00       		.byte	0
 5916 084b 06       		.uleb128 0x6
 5917 084c 04       		.byte	0x4
 5918 084d 37080000 		.4byte	0x837
 5919 0851 12       		.uleb128 0x12
 5920 0852 25000000 		.4byte	0x25
 5921 0856 6F080000 		.4byte	0x86f
 5922 085a 13       		.uleb128 0x13
 5923 085b BF000000 		.4byte	0xbf
 5924 085f 13       		.uleb128 0x13
 5925 0860 9A070000 		.4byte	0x79a
 5926 0864 13       		.uleb128 0x13
 5927 0865 25000000 		.4byte	0x25
 5928 0869 13       		.uleb128 0x13
 5929 086a 8C010000 		.4byte	0x18c
 5930 086e 00       		.byte	0
 5931 086f 06       		.uleb128 0x6
 5932 0870 04       		.byte	0x4
 5933 0871 51080000 		.4byte	0x851
 5934 0875 12       		.uleb128 0x12
 5935 0876 25000000 		.4byte	0x25
 5936 087a 93080000 		.4byte	0x893
 5937 087e 13       		.uleb128 0x13
 5938 087f BF000000 		.4byte	0xbf
ARM GAS  /tmp/ccypRU8x.s 			page 108


 5939 0883 13       		.uleb128 0x13
 5940 0884 28070000 		.4byte	0x728
 5941 0888 13       		.uleb128 0x13
 5942 0889 25000000 		.4byte	0x25
 5943 088d 13       		.uleb128 0x13
 5944 088e 8C010000 		.4byte	0x18c
 5945 0892 00       		.byte	0
 5946 0893 06       		.uleb128 0x6
 5947 0894 04       		.byte	0x4
 5948 0895 75080000 		.4byte	0x875
 5949 0899 0E       		.uleb128 0xe
 5950 089a 28       		.byte	0x28
 5951 089b 24       		.byte	0x24
 5952 089c 8C       		.byte	0x8c
 5953 089d CB100000 		.4byte	.LASF113
 5954 08a1 5F090000 		.4byte	0x95f
 5955 08a5 0A       		.uleb128 0xa
 5956 08a6 04       		.byte	0x4
 5957 08a7 24       		.byte	0x24
 5958 08a8 94       		.byte	0x94
 5959 08a9 E1080000 		.4byte	0x8e1
 5960 08ad 15       		.uleb128 0x15
 5961 08ae 04       		.byte	0x4
 5962 08af 24       		.byte	0x24
 5963 08b0 96       		.byte	0x96
 5964 08b1 CE080000 		.4byte	0x8ce
 5965 08b5 0D       		.uleb128 0xd
 5966 08b6 73657400 		.ascii	"set\000"
 5967 08ba 24       		.byte	0x24
 5968 08bb 97       		.byte	0x97
 5969 08bc F6000000 		.4byte	0xf6
 5970 08c0 00       		.byte	0
 5971 08c1 0C       		.uleb128 0xc
 5972 08c2 2C210000 		.4byte	.LASF114
 5973 08c6 24       		.byte	0x24
 5974 08c7 98       		.byte	0x98
 5975 08c8 F6000000 		.4byte	0xf6
 5976 08cc 02       		.byte	0x2
 5977 08cd 00       		.byte	0
 5978 08ce 16       		.uleb128 0x16
 5979 08cf 5700     		.ascii	"W\000"
 5980 08d1 24       		.byte	0x24
 5981 08d2 95       		.byte	0x95
 5982 08d3 0C010000 		.4byte	0x10c
 5983 08d7 16       		.uleb128 0x16
 5984 08d8 4800     		.ascii	"H\000"
 5985 08da 24       		.byte	0x24
 5986 08db 99       		.byte	0x99
 5987 08dc AD080000 		.4byte	0x8ad
 5988 08e0 00       		.byte	0
 5989 08e1 0C       		.uleb128 0xc
 5990 08e2 DD4E0000 		.4byte	.LASF115
 5991 08e6 24       		.byte	0x24
 5992 08e7 8E       		.byte	0x8e
 5993 08e8 BD040000 		.4byte	0x4bd
 5994 08ec 00       		.byte	0
 5995 08ed 0C       		.uleb128 0xc
ARM GAS  /tmp/ccypRU8x.s 			page 109


 5996 08ee CF0B0000 		.4byte	.LASF116
 5997 08f2 24       		.byte	0x24
 5998 08f3 8F       		.byte	0x8f
 5999 08f4 BD040000 		.4byte	0x4bd
 6000 08f8 04       		.byte	0x4
 6001 08f9 0C       		.uleb128 0xc
 6002 08fa 1A250000 		.4byte	.LASF117
 6003 08fe 24       		.byte	0x24
 6004 08ff 90       		.byte	0x90
 6005 0900 BD040000 		.4byte	0x4bd
 6006 0904 08       		.byte	0x8
 6007 0905 0C       		.uleb128 0xc
 6008 0906 BA4C0000 		.4byte	.LASF118
 6009 090a 24       		.byte	0x24
 6010 090b 91       		.byte	0x91
 6011 090c BD040000 		.4byte	0x4bd
 6012 0910 0C       		.byte	0xc
 6013 0911 0D       		.uleb128 0xd
 6014 0912 49445200 		.ascii	"IDR\000"
 6015 0916 24       		.byte	0x24
 6016 0917 92       		.byte	0x92
 6017 0918 BD040000 		.4byte	0x4bd
 6018 091c 10       		.byte	0x10
 6019 091d 0D       		.uleb128 0xd
 6020 091e 4F445200 		.ascii	"ODR\000"
 6021 0922 24       		.byte	0x24
 6022 0923 93       		.byte	0x93
 6023 0924 BD040000 		.4byte	0x4bd
 6024 0928 14       		.byte	0x14
 6025 0929 0C       		.uleb128 0xc
 6026 092a CA2E0000 		.4byte	.LASF119
 6027 092e 24       		.byte	0x24
 6028 092f 9A       		.byte	0x9a
 6029 0930 35090000 		.4byte	0x935
 6030 0934 18       		.byte	0x18
 6031 0935 11       		.uleb128 0x11
 6032 0936 A5080000 		.4byte	0x8a5
 6033 093a 0C       		.uleb128 0xc
 6034 093b F13D0000 		.4byte	.LASF120
 6035 093f 24       		.byte	0x24
 6036 0940 9B       		.byte	0x9b
 6037 0941 BD040000 		.4byte	0x4bd
 6038 0945 1C       		.byte	0x1c
 6039 0946 0C       		.uleb128 0xc
 6040 0947 27480000 		.4byte	.LASF121
 6041 094b 24       		.byte	0x24
 6042 094c 9C       		.byte	0x9c
 6043 094d BD040000 		.4byte	0x4bd
 6044 0951 20       		.byte	0x20
 6045 0952 0C       		.uleb128 0xc
 6046 0953 1D480000 		.4byte	.LASF122
 6047 0957 24       		.byte	0x24
 6048 0958 9D       		.byte	0x9d
 6049 0959 BD040000 		.4byte	0x4bd
 6050 095d 24       		.byte	0x24
 6051 095e 00       		.byte	0
 6052 095f 02       		.uleb128 0x2
ARM GAS  /tmp/ccypRU8x.s 			page 110


 6053 0960 11170000 		.4byte	.LASF123
 6054 0964 24       		.byte	0x24
 6055 0965 9E       		.byte	0x9e
 6056 0966 99080000 		.4byte	0x899
 6057 096a 02       		.uleb128 0x2
 6058 096b 41330000 		.4byte	.LASF124
 6059 096f 24       		.byte	0x24
 6060 0970 F0       		.byte	0xf0
 6061 0971 0C010000 		.4byte	0x10c
 6062 0975 17       		.uleb128 0x17
 6063 0976 50000000 		.4byte	0x50
 6064 097a 85090000 		.4byte	0x985
 6065 097e 18       		.uleb128 0x18
 6066 097f B8000000 		.4byte	0xb8
 6067 0983 FF       		.byte	0xff
 6068 0984 00       		.byte	0
 6069 0985 02       		.uleb128 0x2
 6070 0986 0C2B0000 		.4byte	.LASF125
 6071 098a 25       		.byte	0x25
 6072 098b E9       		.byte	0xe9
 6073 098c 90090000 		.4byte	0x990
 6074 0990 0F       		.uleb128 0xf
 6075 0991 0C2B0000 		.4byte	.LASF125
 6076 0995 84       		.byte	0x84
 6077 0996 26       		.byte	0x26
 6078 0997 1B01     		.2byte	0x11b
 6079 0999 6E0A0000 		.4byte	0xa6e
 6080 099d 19       		.uleb128 0x19
 6081 099e 3C370000 		.4byte	.LASF126
 6082 09a2 26       		.byte	0x26
 6083 09a3 1F01     		.2byte	0x11f
 6084 09a5 A40A0000 		.4byte	0xaa4
 6085 09a9 00       		.byte	0
 6086 09aa 19       		.uleb128 0x19
 6087 09ab F8480000 		.4byte	.LASF127
 6088 09af 26       		.byte	0x26
 6089 09b0 2301     		.2byte	0x123
 6090 09b2 4C0E0000 		.4byte	0xe4c
 6091 09b6 04       		.byte	0x4
 6092 09b7 19       		.uleb128 0x19
 6093 09b8 C5550000 		.4byte	.LASF128
 6094 09bc 26       		.byte	0x26
 6095 09bd 2701     		.2byte	0x127
 6096 09bf F6000000 		.4byte	0xf6
 6097 09c3 08       		.byte	0x8
 6098 09c4 19       		.uleb128 0x19
 6099 09c5 535F0000 		.4byte	.LASF129
 6100 09c9 26       		.byte	0x26
 6101 09ca 2B01     		.2byte	0x12b
 6102 09cc F6000000 		.4byte	0xf6
 6103 09d0 0A       		.byte	0xa
 6104 09d1 10       		.uleb128 0x10
 6105 09d2 65706300 		.ascii	"epc\000"
 6106 09d6 26       		.byte	0x26
 6107 09d7 2F01     		.2byte	0x12f
 6108 09d9 570E0000 		.4byte	0xe57
 6109 09dd 0C       		.byte	0xc
ARM GAS  /tmp/ccypRU8x.s 			page 111


 6110 09de 19       		.uleb128 0x19
 6111 09df 62070000 		.4byte	.LASF130
 6112 09e3 26       		.byte	0x26
 6113 09e4 3601     		.2byte	0x136
 6114 09e6 720E0000 		.4byte	0xe72
 6115 09ea 2C       		.byte	0x2c
 6116 09eb 19       		.uleb128 0x19
 6117 09ec D31E0000 		.4byte	.LASF131
 6118 09f0 26       		.byte	0x26
 6119 09f1 3D01     		.2byte	0x13d
 6120 09f3 720E0000 		.4byte	0xe72
 6121 09f7 48       		.byte	0x48
 6122 09f8 19       		.uleb128 0x19
 6123 09f9 0B270000 		.4byte	.LASF132
 6124 09fd 26       		.byte	0x26
 6125 09fe 4101     		.2byte	0x141
 6126 0a00 E70A0000 		.4byte	0xae7
 6127 0a04 64       		.byte	0x64
 6128 0a05 19       		.uleb128 0x19
 6129 0a06 4D470000 		.4byte	.LASF133
 6130 0a0a 26       		.byte	0x26
 6131 0a0b 4501     		.2byte	0x145
 6132 0a0d 28070000 		.4byte	0x728
 6133 0a11 68       		.byte	0x68
 6134 0a12 19       		.uleb128 0x19
 6135 0a13 DB3B0000 		.4byte	.LASF134
 6136 0a17 26       		.byte	0x26
 6137 0a18 4901     		.2byte	0x149
 6138 0a1a 25000000 		.4byte	0x25
 6139 0a1e 6C       		.byte	0x6c
 6140 0a1f 19       		.uleb128 0x19
 6141 0a20 DF0F0000 		.4byte	.LASF135
 6142 0a24 26       		.byte	0x26
 6143 0a25 4D01     		.2byte	0x14d
 6144 0a27 650B0000 		.4byte	0xb65
 6145 0a2b 70       		.byte	0x70
 6146 0a2c 19       		.uleb128 0x19
 6147 0a2d 21140000 		.4byte	.LASF136
 6148 0a31 26       		.byte	0x26
 6149 0a32 5101     		.2byte	0x151
 6150 0a34 820E0000 		.4byte	0xe82
 6151 0a38 74       		.byte	0x74
 6152 0a39 19       		.uleb128 0x19
 6153 0a3a 6C340000 		.4byte	.LASF137
 6154 0a3e 26       		.byte	0x26
 6155 0a3f 5501     		.2byte	0x155
 6156 0a41 F6000000 		.4byte	0xf6
 6157 0a45 7C       		.byte	0x7c
 6158 0a46 19       		.uleb128 0x19
 6159 0a47 E0290000 		.4byte	.LASF138
 6160 0a4b 26       		.byte	0x26
 6161 0a4c 5901     		.2byte	0x159
 6162 0a4e E0000000 		.4byte	0xe0
 6163 0a52 7E       		.byte	0x7e
 6164 0a53 19       		.uleb128 0x19
 6165 0a54 A2440000 		.4byte	.LASF139
 6166 0a58 26       		.byte	0x26
ARM GAS  /tmp/ccypRU8x.s 			page 112


 6167 0a59 5D01     		.2byte	0x15d
 6168 0a5b E0000000 		.4byte	0xe0
 6169 0a5f 7F       		.byte	0x7f
 6170 0a60 19       		.uleb128 0x19
 6171 0a61 37510000 		.4byte	.LASF140
 6172 0a65 26       		.byte	0x26
 6173 0a66 6501     		.2byte	0x165
 6174 0a68 0C010000 		.4byte	0x10c
 6175 0a6c 80       		.byte	0x80
 6176 0a6d 00       		.byte	0
 6177 0a6e 02       		.uleb128 0x2
 6178 0a6f 815F0000 		.4byte	.LASF141
 6179 0a73 25       		.byte	0x25
 6180 0a74 EE       		.byte	0xee
 6181 0a75 E0000000 		.4byte	0xe0
 6182 0a79 1A       		.uleb128 0x1a
 6183 0a7a 01       		.byte	0x1
 6184 0a7b 25       		.byte	0x25
 6185 0a7c F3       		.byte	0xf3
 6186 0a7d B0320000 		.4byte	.LASF210
 6187 0a81 A40A0000 		.4byte	0xaa4
 6188 0a85 1B       		.uleb128 0x1b
 6189 0a86 60620000 		.4byte	.LASF142
 6190 0a8a 00       		.sleb128 0
 6191 0a8b 1B       		.uleb128 0x1b
 6192 0a8c 00000000 		.4byte	.LASF143
 6193 0a90 01       		.sleb128 1
 6194 0a91 1B       		.uleb128 0x1b
 6195 0a92 2E310000 		.4byte	.LASF144
 6196 0a96 02       		.sleb128 2
 6197 0a97 1B       		.uleb128 0x1b
 6198 0a98 7F3F0000 		.4byte	.LASF145
 6199 0a9c 03       		.sleb128 3
 6200 0a9d 1B       		.uleb128 0x1b
 6201 0a9e 1C160000 		.4byte	.LASF146
 6202 0aa2 04       		.sleb128 4
 6203 0aa3 00       		.byte	0
 6204 0aa4 02       		.uleb128 0x2
 6205 0aa5 50560000 		.4byte	.LASF147
 6206 0aa9 25       		.byte	0x25
 6207 0aaa F9       		.byte	0xf9
 6208 0aab 790A0000 		.4byte	0xa79
 6209 0aaf 1C       		.uleb128 0x1c
 6210 0ab0 01       		.byte	0x1
 6211 0ab1 25       		.byte	0x25
 6212 0ab2 0701     		.2byte	0x107
 6213 0ab4 4C270000 		.4byte	.LASF156
 6214 0ab8 E70A0000 		.4byte	0xae7
 6215 0abc 1B       		.uleb128 0x1b
 6216 0abd CD4D0000 		.4byte	.LASF148
 6217 0ac1 00       		.sleb128 0
 6218 0ac2 1B       		.uleb128 0x1b
 6219 0ac3 B2260000 		.4byte	.LASF149
 6220 0ac7 01       		.sleb128 1
 6221 0ac8 1B       		.uleb128 0x1b
 6222 0ac9 17470000 		.4byte	.LASF150
 6223 0acd 02       		.sleb128 2
ARM GAS  /tmp/ccypRU8x.s 			page 113


 6224 0ace 1B       		.uleb128 0x1b
 6225 0acf A4370000 		.4byte	.LASF151
 6226 0ad3 03       		.sleb128 3
 6227 0ad4 1B       		.uleb128 0x1b
 6228 0ad5 C4230000 		.4byte	.LASF152
 6229 0ad9 04       		.sleb128 4
 6230 0ada 1B       		.uleb128 0x1b
 6231 0adb 78290000 		.4byte	.LASF153
 6232 0adf 05       		.sleb128 5
 6233 0ae0 1B       		.uleb128 0x1b
 6234 0ae1 94250000 		.4byte	.LASF154
 6235 0ae5 06       		.sleb128 6
 6236 0ae6 00       		.byte	0
 6237 0ae7 1D       		.uleb128 0x1d
 6238 0ae8 2A2A0000 		.4byte	.LASF155
 6239 0aec 25       		.byte	0x25
 6240 0aed 0F01     		.2byte	0x10f
 6241 0aef AF0A0000 		.4byte	0xaaf
 6242 0af3 1C       		.uleb128 0x1c
 6243 0af4 01       		.byte	0x1
 6244 0af5 25       		.byte	0x25
 6245 0af6 1401     		.2byte	0x114
 6246 0af8 001F0000 		.4byte	.LASF157
 6247 0afc 250B0000 		.4byte	0xb25
 6248 0b00 1B       		.uleb128 0x1b
 6249 0b01 103F0000 		.4byte	.LASF158
 6250 0b05 00       		.sleb128 0
 6251 0b06 1B       		.uleb128 0x1b
 6252 0b07 EB400000 		.4byte	.LASF159
 6253 0b0b 01       		.sleb128 1
 6254 0b0c 1B       		.uleb128 0x1b
 6255 0b0d 3B320000 		.4byte	.LASF160
 6256 0b11 02       		.sleb128 2
 6257 0b12 1B       		.uleb128 0x1b
 6258 0b13 4E330000 		.4byte	.LASF161
 6259 0b17 03       		.sleb128 3
 6260 0b18 1B       		.uleb128 0x1b
 6261 0b19 485D0000 		.4byte	.LASF162
 6262 0b1d 04       		.sleb128 4
 6263 0b1e 1B       		.uleb128 0x1b
 6264 0b1f 22320000 		.4byte	.LASF163
 6265 0b23 05       		.sleb128 5
 6266 0b24 00       		.byte	0
 6267 0b25 1D       		.uleb128 0x1d
 6268 0b26 42420000 		.4byte	.LASF164
 6269 0b2a 25       		.byte	0x25
 6270 0b2b 1B01     		.2byte	0x11b
 6271 0b2d F30A0000 		.4byte	0xaf3
 6272 0b31 1E       		.uleb128 0x1e
 6273 0b32 08       		.byte	0x8
 6274 0b33 25       		.byte	0x25
 6275 0b34 2001     		.2byte	0x120
 6276 0b36 16330000 		.4byte	.LASF203
 6277 0b3a 590B0000 		.4byte	0xb59
 6278 0b3e 19       		.uleb128 0x19
 6279 0b3f 6B630000 		.4byte	.LASF165
 6280 0b43 25       		.byte	0x25
ARM GAS  /tmp/ccypRU8x.s 			page 114


 6281 0b44 2401     		.2byte	0x124
 6282 0b46 25000000 		.4byte	0x25
 6283 0b4a 00       		.byte	0
 6284 0b4b 19       		.uleb128 0x19
 6285 0b4c B40F0000 		.4byte	.LASF166
 6286 0b50 25       		.byte	0x25
 6287 0b51 2801     		.2byte	0x128
 6288 0b53 9A070000 		.4byte	0x79a
 6289 0b57 04       		.byte	0x4
 6290 0b58 00       		.byte	0
 6291 0b59 1D       		.uleb128 0x1d
 6292 0b5a D1340000 		.4byte	.LASF167
 6293 0b5e 25       		.byte	0x25
 6294 0b5f 2901     		.2byte	0x129
 6295 0b61 310B0000 		.4byte	0xb31
 6296 0b65 1D       		.uleb128 0x1d
 6297 0b66 E1620000 		.4byte	.LASF168
 6298 0b6a 25       		.byte	0x25
 6299 0b6b 3101     		.2byte	0x131
 6300 0b6d 710B0000 		.4byte	0xb71
 6301 0b71 06       		.uleb128 0x6
 6302 0b72 04       		.byte	0x4
 6303 0b73 770B0000 		.4byte	0xb77
 6304 0b77 14       		.uleb128 0x14
 6305 0b78 820B0000 		.4byte	0xb82
 6306 0b7c 13       		.uleb128 0x13
 6307 0b7d 820B0000 		.4byte	0xb82
 6308 0b81 00       		.byte	0
 6309 0b82 06       		.uleb128 0x6
 6310 0b83 04       		.byte	0x4
 6311 0b84 85090000 		.4byte	0x985
 6312 0b88 1D       		.uleb128 0x1d
 6313 0b89 DA100000 		.4byte	.LASF169
 6314 0b8d 25       		.byte	0x25
 6315 0b8e 3A01     		.2byte	0x13a
 6316 0b90 940B0000 		.4byte	0xb94
 6317 0b94 06       		.uleb128 0x6
 6318 0b95 04       		.byte	0x4
 6319 0b96 9A0B0000 		.4byte	0xb9a
 6320 0b9a 14       		.uleb128 0x14
 6321 0b9b AA0B0000 		.4byte	0xbaa
 6322 0b9f 13       		.uleb128 0x13
 6323 0ba0 820B0000 		.4byte	0xb82
 6324 0ba4 13       		.uleb128 0x13
 6325 0ba5 6E0A0000 		.4byte	0xa6e
 6326 0ba9 00       		.byte	0
 6327 0baa 1D       		.uleb128 0x1d
 6328 0bab 7B1B0000 		.4byte	.LASF170
 6329 0baf 25       		.byte	0x25
 6330 0bb0 4301     		.2byte	0x143
 6331 0bb2 B60B0000 		.4byte	0xbb6
 6332 0bb6 06       		.uleb128 0x6
 6333 0bb7 04       		.byte	0x4
 6334 0bb8 BC0B0000 		.4byte	0xbbc
 6335 0bbc 14       		.uleb128 0x14
 6336 0bbd CC0B0000 		.4byte	0xbcc
 6337 0bc1 13       		.uleb128 0x13
ARM GAS  /tmp/ccypRU8x.s 			page 115


 6338 0bc2 820B0000 		.4byte	0xb82
 6339 0bc6 13       		.uleb128 0x13
 6340 0bc7 250B0000 		.4byte	0xb25
 6341 0bcb 00       		.byte	0
 6342 0bcc 1D       		.uleb128 0x1d
 6343 0bcd 193E0000 		.4byte	.LASF171
 6344 0bd1 25       		.byte	0x25
 6345 0bd2 4F01     		.2byte	0x14f
 6346 0bd4 D80B0000 		.4byte	0xbd8
 6347 0bd8 06       		.uleb128 0x6
 6348 0bd9 04       		.byte	0x4
 6349 0bda DE0B0000 		.4byte	0xbde
 6350 0bde 12       		.uleb128 0x12
 6351 0bdf 22010000 		.4byte	0x122
 6352 0be3 ED0B0000 		.4byte	0xbed
 6353 0be7 13       		.uleb128 0x13
 6354 0be8 820B0000 		.4byte	0xb82
 6355 0bec 00       		.byte	0
 6356 0bed 1D       		.uleb128 0x1d
 6357 0bee 93150000 		.4byte	.LASF172
 6358 0bf2 25       		.byte	0x25
 6359 0bf3 5401     		.2byte	0x154
 6360 0bf5 F90B0000 		.4byte	0xbf9
 6361 0bf9 06       		.uleb128 0x6
 6362 0bfa 04       		.byte	0x4
 6363 0bfb FF0B0000 		.4byte	0xbff
 6364 0bff 12       		.uleb128 0x12
 6365 0c00 1D0C0000 		.4byte	0xc1d
 6366 0c04 1D0C0000 		.4byte	0xc1d
 6367 0c08 13       		.uleb128 0x13
 6368 0c09 820B0000 		.4byte	0xb82
 6369 0c0d 13       		.uleb128 0x13
 6370 0c0e E0000000 		.4byte	0xe0
 6371 0c12 13       		.uleb128 0x13
 6372 0c13 E0000000 		.4byte	0xe0
 6373 0c17 13       		.uleb128 0x13
 6374 0c18 F6000000 		.4byte	0xf6
 6375 0c1c 00       		.byte	0
 6376 0c1d 06       		.uleb128 0x6
 6377 0c1e 04       		.byte	0x4
 6378 0c1f 230C0000 		.4byte	0xc23
 6379 0c23 07       		.uleb128 0x7
 6380 0c24 590B0000 		.4byte	0xb59
 6381 0c28 0E       		.uleb128 0xe
 6382 0c29 10       		.byte	0x10
 6383 0c2a 26       		.byte	0x26
 6384 0c2b 76       		.byte	0x76
 6385 0c2c B8570000 		.4byte	.LASF173
 6386 0c30 AE0C0000 		.4byte	0xcae
 6387 0c34 0A       		.uleb128 0xa
 6388 0c35 04       		.byte	0x4
 6389 0c36 26       		.byte	0x26
 6390 0c37 83       		.byte	0x83
 6391 0c38 7D0C0000 		.4byte	0xc7d
 6392 0c3c 15       		.uleb128 0x15
 6393 0c3d 04       		.byte	0x4
 6394 0c3e 26       		.byte	0x26
ARM GAS  /tmp/ccypRU8x.s 			page 116


 6395 0c3f 84       		.byte	0x84
 6396 0c40 510C0000 		.4byte	0xc51
 6397 0c44 0C       		.uleb128 0xc
 6398 0c45 055D0000 		.4byte	.LASF174
 6399 0c49 26       		.byte	0x26
 6400 0c4a 88       		.byte	0x88
 6401 0c4b 9A070000 		.4byte	0x79a
 6402 0c4f 00       		.byte	0
 6403 0c50 00       		.byte	0
 6404 0c51 15       		.uleb128 0x15
 6405 0c52 04       		.byte	0x4
 6406 0c53 26       		.byte	0x26
 6407 0c54 8A       		.byte	0x8a
 6408 0c55 660C0000 		.4byte	0xc66
 6409 0c59 0C       		.uleb128 0xc
 6410 0c5a B9170000 		.4byte	.LASF175
 6411 0c5e 26       		.byte	0x26
 6412 0c5f 8E       		.byte	0x8e
 6413 0c60 AE0C0000 		.4byte	0xcae
 6414 0c64 00       		.byte	0
 6415 0c65 00       		.byte	0
 6416 0c66 0B       		.uleb128 0xb
 6417 0c67 E44F0000 		.4byte	.LASF176
 6418 0c6b 26       		.byte	0x26
 6419 0c6c 89       		.byte	0x89
 6420 0c6d 3C0C0000 		.4byte	0xc3c
 6421 0c71 0B       		.uleb128 0xb
 6422 0c72 004E0000 		.4byte	.LASF177
 6423 0c76 26       		.byte	0x26
 6424 0c77 8F       		.byte	0x8f
 6425 0c78 510C0000 		.4byte	0xc51
 6426 0c7c 00       		.byte	0
 6427 0c7d 0C       		.uleb128 0xc
 6428 0c7e 06150000 		.4byte	.LASF178
 6429 0c82 26       		.byte	0x26
 6430 0c83 7A       		.byte	0x7a
 6431 0c84 22010000 		.4byte	0x122
 6432 0c88 00       		.byte	0
 6433 0c89 0C       		.uleb128 0xc
 6434 0c8a 3C2F0000 		.4byte	.LASF179
 6435 0c8e 26       		.byte	0x26
 6436 0c8f 7E       		.byte	0x7e
 6437 0c90 25000000 		.4byte	0x25
 6438 0c94 04       		.byte	0x4
 6439 0c95 0C       		.uleb128 0xc
 6440 0c96 751B0000 		.4byte	.LASF180
 6441 0c9a 26       		.byte	0x26
 6442 0c9b 82       		.byte	0x82
 6443 0c9c 25000000 		.4byte	0x25
 6444 0ca0 08       		.byte	0x8
 6445 0ca1 0C       		.uleb128 0xc
 6446 0ca2 7D160000 		.4byte	.LASF181
 6447 0ca6 26       		.byte	0x26
 6448 0ca7 91       		.byte	0x91
 6449 0ca8 340C0000 		.4byte	0xc34
 6450 0cac 0C       		.byte	0xc
 6451 0cad 00       		.byte	0
ARM GAS  /tmp/ccypRU8x.s 			page 117


 6452 0cae 06       		.uleb128 0x6
 6453 0caf 04       		.byte	0x4
 6454 0cb0 39070000 		.4byte	0x739
 6455 0cb4 02       		.uleb128 0x2
 6456 0cb5 0C280000 		.4byte	.LASF182
 6457 0cb9 26       		.byte	0x26
 6458 0cba 92       		.byte	0x92
 6459 0cbb 280C0000 		.4byte	0xc28
 6460 0cbf 0E       		.uleb128 0xe
 6461 0cc0 14       		.byte	0x14
 6462 0cc1 26       		.byte	0x26
 6463 0cc2 97       		.byte	0x97
 6464 0cc3 284F0000 		.4byte	.LASF183
 6465 0cc7 510D0000 		.4byte	0xd51
 6466 0ccb 0A       		.uleb128 0xa
 6467 0ccc 04       		.byte	0x4
 6468 0ccd 26       		.byte	0x26
 6469 0cce A4       		.byte	0xa4
 6470 0ccf 140D0000 		.4byte	0xd14
 6471 0cd3 15       		.uleb128 0x15
 6472 0cd4 04       		.byte	0x4
 6473 0cd5 26       		.byte	0x26
 6474 0cd6 A5       		.byte	0xa5
 6475 0cd7 E80C0000 		.4byte	0xce8
 6476 0cdb 0C       		.uleb128 0xc
 6477 0cdc 801C0000 		.4byte	.LASF184
 6478 0ce0 26       		.byte	0x26
 6479 0ce1 A9       		.byte	0xa9
 6480 0ce2 28070000 		.4byte	0x728
 6481 0ce6 00       		.byte	0
 6482 0ce7 00       		.byte	0
 6483 0ce8 15       		.uleb128 0x15
 6484 0ce9 04       		.byte	0x4
 6485 0cea 26       		.byte	0x26
 6486 0ceb AB       		.byte	0xab
 6487 0cec FD0C0000 		.4byte	0xcfd
 6488 0cf0 0C       		.uleb128 0xc
 6489 0cf1 7A4F0000 		.4byte	.LASF185
 6490 0cf5 26       		.byte	0x26
 6491 0cf6 AF       		.byte	0xaf
 6492 0cf7 510D0000 		.4byte	0xd51
 6493 0cfb 00       		.byte	0
 6494 0cfc 00       		.byte	0
 6495 0cfd 0B       		.uleb128 0xb
 6496 0cfe E44F0000 		.4byte	.LASF176
 6497 0d02 26       		.byte	0x26
 6498 0d03 AA       		.byte	0xaa
 6499 0d04 D30C0000 		.4byte	0xcd3
 6500 0d08 0B       		.uleb128 0xb
 6501 0d09 004E0000 		.4byte	.LASF177
 6502 0d0d 26       		.byte	0x26
 6503 0d0e B0       		.byte	0xb0
 6504 0d0f E80C0000 		.4byte	0xce8
 6505 0d13 00       		.byte	0
 6506 0d14 0C       		.uleb128 0xc
 6507 0d15 29120000 		.4byte	.LASF186
 6508 0d19 26       		.byte	0x26
ARM GAS  /tmp/ccypRU8x.s 			page 118


 6509 0d1a 9B       		.byte	0x9b
 6510 0d1b 22010000 		.4byte	0x122
 6511 0d1f 00       		.byte	0
 6512 0d20 0C       		.uleb128 0xc
 6513 0d21 34320000 		.4byte	.LASF187
 6514 0d25 26       		.byte	0x26
 6515 0d26 9F       		.byte	0x9f
 6516 0d27 25000000 		.4byte	0x25
 6517 0d2b 04       		.byte	0x4
 6518 0d2c 0C       		.uleb128 0xc
 6519 0d2d 411B0000 		.4byte	.LASF188
 6520 0d31 26       		.byte	0x26
 6521 0d32 A3       		.byte	0xa3
 6522 0d33 25000000 		.4byte	0x25
 6523 0d37 08       		.byte	0x8
 6524 0d38 0C       		.uleb128 0xc
 6525 0d39 7D160000 		.4byte	.LASF181
 6526 0d3d 26       		.byte	0x26
 6527 0d3e B1       		.byte	0xb1
 6528 0d3f CB0C0000 		.4byte	0xccb
 6529 0d43 0C       		.byte	0xc
 6530 0d44 0C       		.uleb128 0xc
 6531 0d45 22120000 		.4byte	.LASF189
 6532 0d49 26       		.byte	0x26
 6533 0d4a B6       		.byte	0xb6
 6534 0d4b F6000000 		.4byte	0xf6
 6535 0d4f 10       		.byte	0x10
 6536 0d50 00       		.byte	0
 6537 0d51 06       		.uleb128 0x6
 6538 0d52 04       		.byte	0x4
 6539 0d53 2E070000 		.4byte	0x72e
 6540 0d57 02       		.uleb128 0x2
 6541 0d58 E84A0000 		.4byte	.LASF190
 6542 0d5c 26       		.byte	0x26
 6543 0d5d B7       		.byte	0xb7
 6544 0d5e BF0C0000 		.4byte	0xcbf
 6545 0d62 0E       		.uleb128 0xe
 6546 0d63 24       		.byte	0x24
 6547 0d64 26       		.byte	0x26
 6548 0d65 BD       		.byte	0xbd
 6549 0d66 911D0000 		.4byte	.LASF191
 6550 0d6a E70D0000 		.4byte	0xde7
 6551 0d6e 0C       		.uleb128 0xc
 6552 0d6f 483B0000 		.4byte	.LASF192
 6553 0d73 26       		.byte	0x26
 6554 0d74 C1       		.byte	0xc1
 6555 0d75 0C010000 		.4byte	0x10c
 6556 0d79 00       		.byte	0
 6557 0d7a 0C       		.uleb128 0xc
 6558 0d7b A2170000 		.4byte	.LASF193
 6559 0d7f 26       		.byte	0x26
 6560 0d80 CC       		.byte	0xcc
 6561 0d81 880B0000 		.4byte	0xb88
 6562 0d85 04       		.byte	0x4
 6563 0d86 0C       		.uleb128 0xc
 6564 0d87 B03D0000 		.4byte	.LASF194
 6565 0d8b 26       		.byte	0x26
ARM GAS  /tmp/ccypRU8x.s 			page 119


 6566 0d8c D2       		.byte	0xd2
 6567 0d8d 880B0000 		.4byte	0xb88
 6568 0d91 08       		.byte	0x8
 6569 0d92 0C       		.uleb128 0xc
 6570 0d93 C11E0000 		.4byte	.LASF195
 6571 0d97 26       		.byte	0x26
 6572 0d98 D8       		.byte	0xd8
 6573 0d99 880B0000 		.4byte	0xb88
 6574 0d9d 0C       		.byte	0xc
 6575 0d9e 0C       		.uleb128 0xc
 6576 0d9f AC630000 		.4byte	.LASF196
 6577 0da3 26       		.byte	0x26
 6578 0da4 DE       		.byte	0xde
 6579 0da5 F6000000 		.4byte	0xf6
 6580 0da9 10       		.byte	0x10
 6581 0daa 0C       		.uleb128 0xc
 6582 0dab 38270000 		.4byte	.LASF197
 6583 0daf 26       		.byte	0x26
 6584 0db0 E4       		.byte	0xe4
 6585 0db1 F6000000 		.4byte	0xf6
 6586 0db5 12       		.byte	0x12
 6587 0db6 0C       		.uleb128 0xc
 6588 0db7 FF5F0000 		.4byte	.LASF198
 6589 0dbb 26       		.byte	0x26
 6590 0dbc E9       		.byte	0xe9
 6591 0dbd E70D0000 		.4byte	0xde7
 6592 0dc1 14       		.byte	0x14
 6593 0dc2 0C       		.uleb128 0xc
 6594 0dc3 18230000 		.4byte	.LASF199
 6595 0dc7 26       		.byte	0x26
 6596 0dc8 EE       		.byte	0xee
 6597 0dc9 ED0D0000 		.4byte	0xded
 6598 0dcd 18       		.byte	0x18
 6599 0dce 0C       		.uleb128 0xc
 6600 0dcf A8520000 		.4byte	.LASF200
 6601 0dd3 26       		.byte	0x26
 6602 0dd4 F4       		.byte	0xf4
 6603 0dd5 F6000000 		.4byte	0xf6
 6604 0dd9 1C       		.byte	0x1c
 6605 0dda 0C       		.uleb128 0xc
 6606 0ddb 165E0000 		.4byte	.LASF201
 6607 0ddf 26       		.byte	0x26
 6608 0de0 FA       		.byte	0xfa
 6609 0de1 28070000 		.4byte	0x728
 6610 0de5 20       		.byte	0x20
 6611 0de6 00       		.byte	0
 6612 0de7 06       		.uleb128 0x6
 6613 0de8 04       		.byte	0x4
 6614 0de9 B40C0000 		.4byte	0xcb4
 6615 0ded 06       		.uleb128 0x6
 6616 0dee 04       		.byte	0x4
 6617 0def 570D0000 		.4byte	0xd57
 6618 0df3 02       		.uleb128 0x2
 6619 0df4 164F0000 		.4byte	.LASF202
 6620 0df8 26       		.byte	0x26
 6621 0df9 FB       		.byte	0xfb
 6622 0dfa 620D0000 		.4byte	0xd62
ARM GAS  /tmp/ccypRU8x.s 			page 120


 6623 0dfe 1E       		.uleb128 0x1e
 6624 0dff 10       		.byte	0x10
 6625 0e00 26       		.byte	0x26
 6626 0e01 0001     		.2byte	0x100
 6627 0e03 5E1B0000 		.4byte	.LASF204
 6628 0e07 400E0000 		.4byte	0xe40
 6629 0e0b 19       		.uleb128 0x19
 6630 0e0c B81E0000 		.4byte	.LASF205
 6631 0e10 26       		.byte	0x26
 6632 0e11 0501     		.2byte	0x105
 6633 0e13 AA0B0000 		.4byte	0xbaa
 6634 0e17 00       		.byte	0
 6635 0e18 19       		.uleb128 0x19
 6636 0e19 535B0000 		.4byte	.LASF206
 6637 0e1d 26       		.byte	0x26
 6638 0e1e 0A01     		.2byte	0x10a
 6639 0e20 ED0B0000 		.4byte	0xbed
 6640 0e24 04       		.byte	0x4
 6641 0e25 19       		.uleb128 0x19
 6642 0e26 2B2F0000 		.4byte	.LASF207
 6643 0e2a 26       		.byte	0x26
 6644 0e2b 1001     		.2byte	0x110
 6645 0e2d CC0B0000 		.4byte	0xbcc
 6646 0e31 08       		.byte	0x8
 6647 0e32 19       		.uleb128 0x19
 6648 0e33 72060000 		.4byte	.LASF208
 6649 0e37 26       		.byte	0x26
 6650 0e38 1401     		.2byte	0x114
 6651 0e3a 650B0000 		.4byte	0xb65
 6652 0e3e 0C       		.byte	0xc
 6653 0e3f 00       		.byte	0
 6654 0e40 1D       		.uleb128 0x1d
 6655 0e41 492B0000 		.4byte	.LASF209
 6656 0e45 26       		.byte	0x26
 6657 0e46 1601     		.2byte	0x116
 6658 0e48 FE0D0000 		.4byte	0xdfe
 6659 0e4c 06       		.uleb128 0x6
 6660 0e4d 04       		.byte	0x4
 6661 0e4e 520E0000 		.4byte	0xe52
 6662 0e52 07       		.uleb128 0x7
 6663 0e53 400E0000 		.4byte	0xe40
 6664 0e57 17       		.uleb128 0x17
 6665 0e58 670E0000 		.4byte	0xe67
 6666 0e5c 670E0000 		.4byte	0xe67
 6667 0e60 18       		.uleb128 0x18
 6668 0e61 B8000000 		.4byte	0xb8
 6669 0e65 07       		.byte	0x7
 6670 0e66 00       		.byte	0
 6671 0e67 06       		.uleb128 0x6
 6672 0e68 04       		.byte	0x4
 6673 0e69 6D0E0000 		.4byte	0xe6d
 6674 0e6d 07       		.uleb128 0x7
 6675 0e6e F30D0000 		.4byte	0xdf3
 6676 0e72 17       		.uleb128 0x17
 6677 0e73 BF000000 		.4byte	0xbf
 6678 0e77 820E0000 		.4byte	0xe82
 6679 0e7b 18       		.uleb128 0x18
ARM GAS  /tmp/ccypRU8x.s 			page 121


 6680 0e7c B8000000 		.4byte	0xb8
 6681 0e80 06       		.byte	0x6
 6682 0e81 00       		.byte	0
 6683 0e82 17       		.uleb128 0x17
 6684 0e83 50000000 		.4byte	0x50
 6685 0e87 920E0000 		.4byte	0xe92
 6686 0e8b 18       		.uleb128 0x18
 6687 0e8c B8000000 		.4byte	0xb8
 6688 0e90 07       		.byte	0x7
 6689 0e91 00       		.byte	0
 6690 0e92 1A       		.uleb128 0x1a
 6691 0e93 01       		.byte	0x1
 6692 0e94 27       		.byte	0x27
 6693 0e95 83       		.byte	0x83
 6694 0e96 BD540000 		.4byte	.LASF211
 6695 0e9a B10E0000 		.4byte	0xeb1
 6696 0e9e 1B       		.uleb128 0x1b
 6697 0e9f 421D0000 		.4byte	.LASF212
 6698 0ea3 00       		.sleb128 0
 6699 0ea4 1B       		.uleb128 0x1b
 6700 0ea5 3C410000 		.4byte	.LASF213
 6701 0ea9 01       		.sleb128 1
 6702 0eaa 1B       		.uleb128 0x1b
 6703 0eab 82140000 		.4byte	.LASF214
 6704 0eaf 02       		.sleb128 2
 6705 0eb0 00       		.byte	0
 6706 0eb1 02       		.uleb128 0x2
 6707 0eb2 88150000 		.4byte	.LASF215
 6708 0eb6 27       		.byte	0x27
 6709 0eb7 87       		.byte	0x87
 6710 0eb8 920E0000 		.4byte	0xe92
 6711 0ebc 02       		.uleb128 0x2
 6712 0ebd 72140000 		.4byte	.LASF216
 6713 0ec1 27       		.byte	0x27
 6714 0ec2 8C       		.byte	0x8c
 6715 0ec3 C70E0000 		.4byte	0xec7
 6716 0ec7 1F       		.uleb128 0x1f
 6717 0ec8 72140000 		.4byte	.LASF216
 6718 0ecc 5802     		.2byte	0x258
 6719 0ece 27       		.byte	0x27
 6720 0ecf CF       		.byte	0xcf
 6721 0ed0 350F0000 		.4byte	0xf35
 6722 0ed4 0D       		.uleb128 0xd
 6723 0ed5 766D7400 		.ascii	"vmt\000"
 6724 0ed9 27       		.byte	0x27
 6725 0eda D1       		.byte	0xd1
 6726 0edb EA0F0000 		.4byte	0xfea
 6727 0edf 00       		.byte	0
 6728 0ee0 0C       		.uleb128 0xc
 6729 0ee1 6D000000 		.4byte	.LASF217
 6730 0ee5 27       		.byte	0x27
 6731 0ee6 D2       		.byte	0xd2
 6732 0ee7 D6050000 		.4byte	0x5d6
 6733 0eeb 04       		.byte	0x4
 6734 0eec 0C       		.uleb128 0xc
 6735 0eed 3C370000 		.4byte	.LASF126
 6736 0ef1 27       		.byte	0x27
ARM GAS  /tmp/ccypRU8x.s 			page 122


 6737 0ef2 D2       		.byte	0xd2
 6738 0ef3 B10E0000 		.4byte	0xeb1
 6739 0ef7 08       		.byte	0x8
 6740 0ef8 0C       		.uleb128 0xc
 6741 0ef9 A93D0000 		.4byte	.LASF218
 6742 0efd 27       		.byte	0x27
 6743 0efe D2       		.byte	0xd2
 6744 0eff 2E070000 		.4byte	0x72e
 6745 0f03 0C       		.byte	0xc
 6746 0f04 0C       		.uleb128 0xc
 6747 0f05 0C2D0000 		.4byte	.LASF219
 6748 0f09 27       		.byte	0x27
 6749 0f0a D2       		.byte	0xd2
 6750 0f0b 39070000 		.4byte	0x739
 6751 0f0f 30       		.byte	0x30
 6752 0f10 0D       		.uleb128 0xd
 6753 0f11 696200   		.ascii	"ib\000"
 6754 0f14 27       		.byte	0x27
 6755 0f15 D2       		.byte	0xd2
 6756 0f16 75090000 		.4byte	0x975
 6757 0f1a 54       		.byte	0x54
 6758 0f1b 20       		.uleb128 0x20
 6759 0f1c 6F6200   		.ascii	"ob\000"
 6760 0f1f 27       		.byte	0x27
 6761 0f20 D2       		.byte	0xd2
 6762 0f21 75090000 		.4byte	0x975
 6763 0f25 5401     		.2byte	0x154
 6764 0f27 21       		.uleb128 0x21
 6765 0f28 F8480000 		.4byte	.LASF127
 6766 0f2c 27       		.byte	0x27
 6767 0f2d D2       		.byte	0xd2
 6768 0f2e F50F0000 		.4byte	0xff5
 6769 0f32 5402     		.2byte	0x254
 6770 0f34 00       		.byte	0
 6771 0f35 0E       		.uleb128 0xe
 6772 0f36 08       		.byte	0x8
 6773 0f37 27       		.byte	0x27
 6774 0f38 93       		.byte	0x93
 6775 0f39 08320000 		.4byte	.LASF220
 6776 0f3d 720F0000 		.4byte	0xf72
 6777 0f41 0C       		.uleb128 0xc
 6778 0f42 4B560000 		.4byte	.LASF221
 6779 0f46 27       		.byte	0x27
 6780 0f47 97       		.byte	0x97
 6781 0f48 820B0000 		.4byte	0xb82
 6782 0f4c 00       		.byte	0
 6783 0f4d 0C       		.uleb128 0xc
 6784 0f4e 44270000 		.4byte	.LASF222
 6785 0f52 27       		.byte	0x27
 6786 0f53 9B       		.byte	0x9b
 6787 0f54 6E0A0000 		.4byte	0xa6e
 6788 0f58 04       		.byte	0x4
 6789 0f59 0C       		.uleb128 0xc
 6790 0f5a C2100000 		.4byte	.LASF223
 6791 0f5e 27       		.byte	0x27
 6792 0f5f 9F       		.byte	0x9f
 6793 0f60 6E0A0000 		.4byte	0xa6e
ARM GAS  /tmp/ccypRU8x.s 			page 123


 6794 0f64 05       		.byte	0x5
 6795 0f65 0C       		.uleb128 0xc
 6796 0f66 D9290000 		.4byte	.LASF224
 6797 0f6a 27       		.byte	0x27
 6798 0f6b A3       		.byte	0xa3
 6799 0f6c 6E0A0000 		.4byte	0xa6e
 6800 0f70 06       		.byte	0x6
 6801 0f71 00       		.byte	0
 6802 0f72 02       		.uleb128 0x2
 6803 0f73 714A0000 		.4byte	.LASF225
 6804 0f77 27       		.byte	0x27
 6805 0f78 A4       		.byte	0xa4
 6806 0f79 350F0000 		.4byte	0xf35
 6807 0f7d 09       		.uleb128 0x9
 6808 0f7e 763C0000 		.4byte	.LASF226
 6809 0f82 20       		.byte	0x20
 6810 0f83 27       		.byte	0x27
 6811 0f84 C4       		.byte	0xc4
 6812 0f85 EA0F0000 		.4byte	0xfea
 6813 0f89 0C       		.uleb128 0xc
 6814 0f8a A33D0000 		.4byte	.LASF109
 6815 0f8e 27       		.byte	0x27
 6816 0f8f C5       		.byte	0xc5
 6817 0f90 A5070000 		.4byte	0x7a5
 6818 0f94 00       		.byte	0
 6819 0f95 0C       		.uleb128 0xc
 6820 0f96 86050000 		.4byte	.LASF110
 6821 0f9a 27       		.byte	0x27
 6822 0f9b C5       		.byte	0xc5
 6823 0f9c C4070000 		.4byte	0x7c4
 6824 0fa0 04       		.byte	0x4
 6825 0fa1 0D       		.uleb128 0xd
 6826 0fa2 70757400 		.ascii	"put\000"
 6827 0fa6 27       		.byte	0x27
 6828 0fa7 C5       		.byte	0xc5
 6829 0fa8 DE070000 		.4byte	0x7de
 6830 0fac 08       		.byte	0x8
 6831 0fad 0D       		.uleb128 0xd
 6832 0fae 67657400 		.ascii	"get\000"
 6833 0fb2 27       		.byte	0x27
 6834 0fb3 C5       		.byte	0xc5
 6835 0fb4 79060000 		.4byte	0x679
 6836 0fb8 0C       		.byte	0xc
 6837 0fb9 0C       		.uleb128 0xc
 6838 0fba A1320000 		.4byte	.LASF227
 6839 0fbe 27       		.byte	0x27
 6840 0fbf C5       		.byte	0xc5
 6841 0fc0 31080000 		.4byte	0x831
 6842 0fc4 10       		.byte	0x10
 6843 0fc5 0C       		.uleb128 0xc
 6844 0fc6 703D0000 		.4byte	.LASF228
 6845 0fca 27       		.byte	0x27
 6846 0fcb C5       		.byte	0xc5
 6847 0fcc 4B080000 		.4byte	0x84b
 6848 0fd0 14       		.byte	0x14
 6849 0fd1 0C       		.uleb128 0xc
 6850 0fd2 2C590000 		.4byte	.LASF229
ARM GAS  /tmp/ccypRU8x.s 			page 124


 6851 0fd6 27       		.byte	0x27
 6852 0fd7 C5       		.byte	0xc5
 6853 0fd8 6F080000 		.4byte	0x86f
 6854 0fdc 18       		.byte	0x18
 6855 0fdd 0C       		.uleb128 0xc
 6856 0fde 9B4A0000 		.4byte	.LASF230
 6857 0fe2 27       		.byte	0x27
 6858 0fe3 C5       		.byte	0xc5
 6859 0fe4 93080000 		.4byte	0x893
 6860 0fe8 1C       		.byte	0x1c
 6861 0fe9 00       		.byte	0
 6862 0fea 06       		.uleb128 0x6
 6863 0feb 04       		.byte	0x4
 6864 0fec F00F0000 		.4byte	0xff0
 6865 0ff0 07       		.uleb128 0x7
 6866 0ff1 7D0F0000 		.4byte	0xf7d
 6867 0ff5 06       		.uleb128 0x6
 6868 0ff6 04       		.byte	0x4
 6869 0ff7 FB0F0000 		.4byte	0xffb
 6870 0ffb 07       		.uleb128 0x7
 6871 0ffc 720F0000 		.4byte	0xf72
 6872 1000 02       		.uleb128 0x2
 6873 1001 B4160000 		.4byte	.LASF231
 6874 1005 28       		.byte	0x28
 6875 1006 28       		.byte	0x28
 6876 1007 0B100000 		.4byte	0x100b
 6877 100b 09       		.uleb128 0x9
 6878 100c B7630000 		.4byte	.LASF232
 6879 1010 04       		.byte	0x4
 6880 1011 29       		.byte	0x29
 6881 1012 00       		.byte	0
 6882 1013 22100000 		.4byte	0x1022
 6883 1017 22       		.uleb128 0x22
 6884 1018 5B560000 		.4byte	.LASF233
 6885 101c BF000000 		.4byte	0xbf
 6886 1020 00       		.byte	0
 6887 1021 00       		.byte	0
 6888 1022 02       		.uleb128 0x2
 6889 1023 EF1E0000 		.4byte	.LASF234
 6890 1027 28       		.byte	0x28
 6891 1028 62       		.byte	0x62
 6892 1029 00100000 		.4byte	0x1000
 6893 102d 02       		.uleb128 0x2
 6894 102e E52C0000 		.4byte	.LASF235
 6895 1032 2A       		.byte	0x2a
 6896 1033 2D       		.byte	0x2d
 6897 1034 38100000 		.4byte	0x1038
 6898 1038 06       		.uleb128 0x6
 6899 1039 04       		.byte	0x4
 6900 103a 3E100000 		.4byte	0x103e
 6901 103e 14       		.uleb128 0x14
 6902 103f 53100000 		.4byte	0x1053
 6903 1043 13       		.uleb128 0x13
 6904 1044 53100000 		.4byte	0x1053
 6905 1048 13       		.uleb128 0x13
 6906 1049 37000000 		.4byte	0x37
 6907 104d 13       		.uleb128 0x13
ARM GAS  /tmp/ccypRU8x.s 			page 125


 6908 104e 59100000 		.4byte	0x1059
 6909 1052 00       		.byte	0
 6910 1053 06       		.uleb128 0x6
 6911 1054 04       		.byte	0x4
 6912 1055 08080000 		.4byte	0x808
 6913 1059 06       		.uleb128 0x6
 6914 105a 04       		.byte	0x4
 6915 105b C1000000 		.4byte	0xc1
 6916 105f 0E       		.uleb128 0xe
 6917 1060 08       		.byte	0x8
 6918 1061 2A       		.byte	0x2a
 6919 1062 32       		.byte	0x32
 6920 1063 C5530000 		.4byte	.LASF236
 6921 1067 84100000 		.4byte	0x1084
 6922 106b 0C       		.uleb128 0xc
 6923 106c 7C480000 		.4byte	.LASF237
 6924 1070 2A       		.byte	0x2a
 6925 1071 33       		.byte	0x33
 6926 1072 CE000000 		.4byte	0xce
 6927 1076 00       		.byte	0
 6928 1077 0C       		.uleb128 0xc
 6929 1078 BA4B0000 		.4byte	.LASF238
 6930 107c 2A       		.byte	0x2a
 6931 107d 34       		.byte	0x34
 6932 107e 2D100000 		.4byte	0x102d
 6933 1082 04       		.byte	0x4
 6934 1083 00       		.byte	0
 6935 1084 02       		.uleb128 0x2
 6936 1085 305F0000 		.4byte	.LASF239
 6937 1089 2A       		.byte	0x2a
 6938 108a 35       		.byte	0x35
 6939 108b 5F100000 		.4byte	0x105f
 6940 108f 0E       		.uleb128 0xe
 6941 1090 08       		.byte	0x8
 6942 1091 2A       		.byte	0x2a
 6943 1092 3A       		.byte	0x3a
 6944 1093 615C0000 		.4byte	.LASF240
 6945 1097 B4100000 		.4byte	0x10b4
 6946 109b 0C       		.uleb128 0xc
 6947 109c 8B050000 		.4byte	.LASF241
 6948 10a0 2A       		.byte	0x2a
 6949 10a1 3B       		.byte	0x3b
 6950 10a2 53100000 		.4byte	0x1053
 6951 10a6 00       		.byte	0
 6952 10a7 0C       		.uleb128 0xc
 6953 10a8 DA1A0000 		.4byte	.LASF242
 6954 10ac 2A       		.byte	0x2a
 6955 10ad 3D       		.byte	0x3d
 6956 10ae B4100000 		.4byte	0x10b4
 6957 10b2 04       		.byte	0x4
 6958 10b3 00       		.byte	0
 6959 10b4 06       		.uleb128 0x6
 6960 10b5 04       		.byte	0x4
 6961 10b6 BA100000 		.4byte	0x10ba
 6962 10ba 07       		.uleb128 0x7
 6963 10bb 84100000 		.4byte	0x1084
 6964 10bf 02       		.uleb128 0x2
ARM GAS  /tmp/ccypRU8x.s 			page 126


 6965 10c0 824F0000 		.4byte	.LASF243
 6966 10c4 2A       		.byte	0x2a
 6967 10c5 3F       		.byte	0x3f
 6968 10c6 8F100000 		.4byte	0x108f
 6969 10ca 23       		.uleb128 0x23
 6970 10cb 73746400 		.ascii	"std\000"
 6971 10cf 29       		.byte	0x29
 6972 10d0 00       		.byte	0
 6973 10d1 F2100000 		.4byte	0x10f2
 6974 10d5 24       		.uleb128 0x24
 6975 10d6 2B       		.byte	0x2b
 6976 10d7 52       		.byte	0x52
 6977 10d8 F2100000 		.4byte	0x10f2
 6978 10dc 24       		.uleb128 0x24
 6979 10dd 2B       		.byte	0x2b
 6980 10de 55       		.byte	0x55
 6981 10df 0C110000 		.4byte	0x110c
 6982 10e3 24       		.uleb128 0x24
 6983 10e4 2B       		.byte	0x2b
 6984 10e5 5B       		.byte	0x5b
 6985 10e6 21110000 		.4byte	0x1121
 6986 10ea 24       		.uleb128 0x24
 6987 10eb 2B       		.byte	0x2b
 6988 10ec 5C       		.byte	0x5c
 6989 10ed 3B110000 		.4byte	0x113b
 6990 10f1 00       		.byte	0
 6991 10f2 25       		.uleb128 0x25
 6992 10f3 0F0C0000 		.4byte	.LASF244
 6993 10f7 2C       		.byte	0x2c
 6994 10f8 1D       		.byte	0x1d
 6995 10f9 37000000 		.4byte	0x37
 6996 10fd 0C110000 		.4byte	0x110c
 6997 1101 13       		.uleb128 0x13
 6998 1102 CE000000 		.4byte	0xce
 6999 1106 13       		.uleb128 0x13
 7000 1107 CE000000 		.4byte	0xce
 7001 110b 00       		.byte	0
 7002 110c 25       		.uleb128 0x25
 7003 110d 952C0000 		.4byte	.LASF245
 7004 1111 2C       		.byte	0x2c
 7005 1112 20       		.byte	0x20
 7006 1113 C1000000 		.4byte	0xc1
 7007 1117 21110000 		.4byte	0x1121
 7008 111b 13       		.uleb128 0x13
 7009 111c 37000000 		.4byte	0x37
 7010 1120 00       		.byte	0
 7011 1121 25       		.uleb128 0x25
 7012 1122 BE3E0000 		.4byte	.LASF246
 7013 1126 2C       		.byte	0x2c
 7014 1127 2A       		.byte	0x2a
 7015 1128 C1000000 		.4byte	0xc1
 7016 112c 3B110000 		.4byte	0x113b
 7017 1130 13       		.uleb128 0x13
 7018 1131 C1000000 		.4byte	0xc1
 7019 1135 13       		.uleb128 0x13
 7020 1136 CE000000 		.4byte	0xce
 7021 113a 00       		.byte	0
ARM GAS  /tmp/ccypRU8x.s 			page 127


 7022 113b 25       		.uleb128 0x25
 7023 113c 132D0000 		.4byte	.LASF247
 7024 1140 2C       		.byte	0x2c
 7025 1141 2C       		.byte	0x2c
 7026 1142 25000000 		.4byte	0x25
 7027 1146 5A110000 		.4byte	0x115a
 7028 114a 13       		.uleb128 0x13
 7029 114b C1000000 		.4byte	0xc1
 7030 114f 13       		.uleb128 0x13
 7031 1150 CE000000 		.4byte	0xce
 7032 1154 13       		.uleb128 0x13
 7033 1155 25000000 		.4byte	0x25
 7034 1159 00       		.byte	0
 7035 115a 23       		.uleb128 0x23
 7036 115b 72327000 		.ascii	"r2p\000"
 7037 115f 2D       		.byte	0x2d
 7038 1160 03       		.byte	0x3
 7039 1161 33500000 		.4byte	0x5033
 7040 1165 26       		.uleb128 0x26
 7041 1166 B92E0000 		.4byte	.LASF248
 7042 116a 01       		.byte	0x1
 7043 116b 2D       		.byte	0x2d
 7044 116c 06       		.byte	0x6
 7045 116d C5110000 		.4byte	0x11c5
 7046 1171 27       		.uleb128 0x27
 7047 1172 B92E0000 		.4byte	.LASF248
 7048 1176 2D       		.byte	0x2d
 7049 1177 09       		.byte	0x9
 7050 1178 33500000 		.4byte	0x5033
 7051 117c 84110000 		.4byte	0x1184
 7052 1180 8F110000 		.4byte	0x118f
 7053 1184 28       		.uleb128 0x28
 7054 1185 33500000 		.4byte	0x5033
 7055 1189 13       		.uleb128 0x13
 7056 118a 39500000 		.4byte	0x5039
 7057 118e 00       		.byte	0
 7058 118f 29       		.uleb128 0x29
 7059 1190 B92E0000 		.4byte	.LASF248
 7060 1194 2D       		.byte	0x2d
 7061 1195 14       		.byte	0x14
 7062 1196 33500000 		.4byte	0x5033
 7063 119a 02       		.byte	0x2
 7064 119b A3110000 		.4byte	0x11a3
 7065 119f A9110000 		.4byte	0x11a9
 7066 11a3 28       		.uleb128 0x28
 7067 11a4 33500000 		.4byte	0x5033
 7068 11a8 00       		.byte	0
 7069 11a9 2A       		.uleb128 0x2a
 7070 11aa 54620000 		.4byte	.LASF249
 7071 11ae 2D       		.byte	0x2d
 7072 11af 15       		.byte	0x15
 7073 11b0 BF000000 		.4byte	0xbf
 7074 11b4 02       		.byte	0x2
 7075 11b5 B9110000 		.4byte	0x11b9
 7076 11b9 28       		.uleb128 0x28
 7077 11ba 33500000 		.4byte	0x5033
 7078 11be 28       		.uleb128 0x28
ARM GAS  /tmp/ccypRU8x.s 			page 128


 7079 11bf 37000000 		.4byte	0x37
 7080 11c3 00       		.byte	0
 7081 11c4 00       		.byte	0
 7082 11c5 07       		.uleb128 0x7
 7083 11c6 65110000 		.4byte	0x1165
 7084 11ca 26       		.uleb128 0x26
 7085 11cb 5B420000 		.4byte	.LASF250
 7086 11cf 01       		.byte	0x1
 7087 11d0 02       		.byte	0x2
 7088 11d1 09       		.byte	0x9
 7089 11d2 0E120000 		.4byte	0x120e
 7090 11d6 2B       		.uleb128 0x2b
 7091 11d7 65110000 		.4byte	0x1165
 7092 11db 00       		.byte	0
 7093 11dc 27       		.uleb128 0x27
 7094 11dd 5B420000 		.4byte	.LASF250
 7095 11e1 02       		.byte	0x2
 7096 11e2 0B       		.byte	0xb
 7097 11e3 3F500000 		.4byte	0x503f
 7098 11e7 EF110000 		.4byte	0x11ef
 7099 11eb F5110000 		.4byte	0x11f5
 7100 11ef 28       		.uleb128 0x28
 7101 11f0 3F500000 		.4byte	0x503f
 7102 11f4 00       		.byte	0
 7103 11f5 2C       		.uleb128 0x2c
 7104 11f6 6E200000 		.4byte	.LASF251
 7105 11fa 02       		.byte	0x2
 7106 11fb 0E       		.byte	0xe
 7107 11fc B1140000 		.4byte	.LASF253
 7108 1200 01       		.byte	0x1
 7109 1201 2C       		.uleb128 0x2c
 7110 1202 A14A0000 		.4byte	.LASF252
 7111 1206 02       		.byte	0x2
 7112 1207 0F       		.byte	0xf
 7113 1208 71180000 		.4byte	.LASF254
 7114 120c 01       		.byte	0x1
 7115 120d 00       		.byte	0
 7116 120e 26       		.uleb128 0x26
 7117 120f CE520000 		.4byte	.LASF255
 7118 1213 01       		.byte	0x1
 7119 1214 03       		.byte	0x3
 7120 1215 09       		.byte	0x9
 7121 1216 52120000 		.4byte	0x1252
 7122 121a 2B       		.uleb128 0x2b
 7123 121b 65110000 		.4byte	0x1165
 7124 121f 00       		.byte	0
 7125 1220 27       		.uleb128 0x27
 7126 1221 CE520000 		.4byte	.LASF255
 7127 1225 03       		.byte	0x3
 7128 1226 12       		.byte	0x12
 7129 1227 45500000 		.4byte	0x5045
 7130 122b 33120000 		.4byte	0x1233
 7131 122f 39120000 		.4byte	0x1239
 7132 1233 28       		.uleb128 0x28
 7133 1234 45500000 		.4byte	0x5045
 7134 1238 00       		.byte	0
 7135 1239 2C       		.uleb128 0x2c
ARM GAS  /tmp/ccypRU8x.s 			page 129


 7136 123a 6E200000 		.4byte	.LASF251
 7137 123e 03       		.byte	0x3
 7138 123f 15       		.byte	0x15
 7139 1240 C2460000 		.4byte	.LASF256
 7140 1244 01       		.byte	0x1
 7141 1245 2C       		.uleb128 0x2c
 7142 1246 A14A0000 		.4byte	.LASF252
 7143 124a 03       		.byte	0x3
 7144 124b 16       		.byte	0x16
 7145 124c 454B0000 		.4byte	.LASF257
 7146 1250 01       		.byte	0x1
 7147 1251 00       		.byte	0
 7148 1252 26       		.uleb128 0x26
 7149 1253 3D590000 		.4byte	.LASF258
 7150 1257 0C       		.byte	0xc
 7151 1258 04       		.byte	0x4
 7152 1259 09       		.byte	0x9
 7153 125a 0B140000 		.4byte	0x140b
 7154 125e 2B       		.uleb128 0x2b
 7155 125f 65110000 		.4byte	0x1165
 7156 1263 00       		.byte	0
 7157 1264 0C       		.uleb128 0xc
 7158 1265 691C0000 		.4byte	.LASF259
 7159 1269 04       		.byte	0x4
 7160 126a 0E       		.byte	0xe
 7161 126b 51060000 		.4byte	0x651
 7162 126f 00       		.byte	0
 7163 1270 2D       		.uleb128 0x2d
 7164 1271 43000000 		.4byte	.LASF277
 7165 1275 04       		.byte	0x4
 7166 1276 0B       		.byte	0xb
 7167 1277 E1050000 		.4byte	0x5e1
 7168 127b 01       		.byte	0x1
 7169 127c 2E       		.uleb128 0x2e
 7170 127d CA450000 		.4byte	.LASF260
 7171 1281 04       		.byte	0x4
 7172 1282 11       		.byte	0x11
 7173 1283 F9490000 		.4byte	.LASF262
 7174 1287 25000000 		.4byte	0x25
 7175 128b 01       		.byte	0x1
 7176 128c 94120000 		.4byte	0x1294
 7177 1290 9A120000 		.4byte	0x129a
 7178 1294 28       		.uleb128 0x28
 7179 1295 4B500000 		.4byte	0x504b
 7180 1299 00       		.byte	0
 7181 129a 2E       		.uleb128 0x2e
 7182 129b 52290000 		.4byte	.LASF261
 7183 129f 04       		.byte	0x4
 7184 12a0 12       		.byte	0x12
 7185 12a1 8B1C0000 		.4byte	.LASF263
 7186 12a5 70120000 		.4byte	0x1270
 7187 12a9 01       		.byte	0x1
 7188 12aa B2120000 		.4byte	0x12b2
 7189 12ae B8120000 		.4byte	0x12b8
 7190 12b2 28       		.uleb128 0x28
 7191 12b3 4B500000 		.4byte	0x504b
 7192 12b7 00       		.byte	0
ARM GAS  /tmp/ccypRU8x.s 			page 130


 7193 12b8 2E       		.uleb128 0x2e
 7194 12b9 97370000 		.4byte	.LASF264
 7195 12bd 04       		.byte	0x4
 7196 12be 14       		.byte	0x14
 7197 12bf DB380000 		.4byte	.LASF265
 7198 12c3 BF000000 		.4byte	0xbf
 7199 12c7 01       		.byte	0x1
 7200 12c8 D0120000 		.4byte	0x12d0
 7201 12cc D6120000 		.4byte	0x12d6
 7202 12d0 28       		.uleb128 0x28
 7203 12d1 51500000 		.4byte	0x5051
 7204 12d5 00       		.byte	0
 7205 12d6 2F       		.uleb128 0x2f
 7206 12d7 FA160000 		.4byte	.LASF266
 7207 12db 04       		.byte	0x4
 7208 12dc 15       		.byte	0x15
 7209 12dd B3120000 		.4byte	.LASF270
 7210 12e1 01       		.byte	0x1
 7211 12e2 EA120000 		.4byte	0x12ea
 7212 12e6 F5120000 		.4byte	0x12f5
 7213 12ea 28       		.uleb128 0x28
 7214 12eb 51500000 		.4byte	0x5051
 7215 12ef 13       		.uleb128 0x13
 7216 12f0 BF000000 		.4byte	0xbf
 7217 12f4 00       		.byte	0
 7218 12f5 2E       		.uleb128 0x2e
 7219 12f6 4A340000 		.4byte	.LASF267
 7220 12fa 04       		.byte	0x4
 7221 12fb 17       		.byte	0x17
 7222 12fc DF1D0000 		.4byte	.LASF268
 7223 1300 BF000000 		.4byte	0xbf
 7224 1304 01       		.byte	0x1
 7225 1305 0D130000 		.4byte	0x130d
 7226 1309 13130000 		.4byte	0x1313
 7227 130d 28       		.uleb128 0x28
 7228 130e 51500000 		.4byte	0x5051
 7229 1312 00       		.byte	0
 7230 1313 2F       		.uleb128 0x2f
 7231 1314 26110000 		.4byte	.LASF269
 7232 1318 04       		.byte	0x4
 7233 1319 18       		.byte	0x18
 7234 131a 29260000 		.4byte	.LASF271
 7235 131e 01       		.byte	0x1
 7236 131f 27130000 		.4byte	0x1327
 7237 1323 32130000 		.4byte	0x1332
 7238 1327 28       		.uleb128 0x28
 7239 1328 51500000 		.4byte	0x5051
 7240 132c 13       		.uleb128 0x13
 7241 132d BF000000 		.4byte	0xbf
 7242 1331 00       		.byte	0
 7243 1332 2F       		.uleb128 0x2f
 7244 1333 C7520000 		.4byte	.LASF272
 7245 1337 04       		.byte	0x4
 7246 1338 19       		.byte	0x19
 7247 1339 32400000 		.4byte	.LASF273
 7248 133d 01       		.byte	0x1
 7249 133e 46130000 		.4byte	0x1346
ARM GAS  /tmp/ccypRU8x.s 			page 131


 7250 1342 56130000 		.4byte	0x1356
 7251 1346 28       		.uleb128 0x28
 7252 1347 51500000 		.4byte	0x5051
 7253 134b 13       		.uleb128 0x13
 7254 134c BF000000 		.4byte	0xbf
 7255 1350 13       		.uleb128 0x13
 7256 1351 25000000 		.4byte	0x25
 7257 1355 00       		.byte	0
 7258 1356 2E       		.uleb128 0x2e
 7259 1357 BD250000 		.4byte	.LASF274
 7260 135b 04       		.byte	0x4
 7261 135c 1B       		.byte	0x1b
 7262 135d C1170000 		.4byte	.LASF275
 7263 1361 57500000 		.4byte	0x5057
 7264 1365 01       		.byte	0x1
 7265 1366 6E130000 		.4byte	0x136e
 7266 136a 74130000 		.4byte	0x1374
 7267 136e 28       		.uleb128 0x28
 7268 136f 51500000 		.4byte	0x5051
 7269 1373 00       		.byte	0
 7270 1374 29       		.uleb128 0x29
 7271 1375 3D590000 		.4byte	.LASF258
 7272 1379 04       		.byte	0x4
 7273 137a 1E       		.byte	0x1e
 7274 137b 51500000 		.4byte	0x5051
 7275 137f 01       		.byte	0x1
 7276 1380 88130000 		.4byte	0x1388
 7277 1384 93130000 		.4byte	0x1393
 7278 1388 28       		.uleb128 0x28
 7279 1389 51500000 		.4byte	0x5051
 7280 138d 13       		.uleb128 0x13
 7281 138e 25000000 		.4byte	0x25
 7282 1392 00       		.byte	0
 7283 1393 29       		.uleb128 0x29
 7284 1394 3D590000 		.4byte	.LASF258
 7285 1398 04       		.byte	0x4
 7286 1399 1F       		.byte	0x1f
 7287 139a 51500000 		.4byte	0x5051
 7288 139e 01       		.byte	0x1
 7289 139f A7130000 		.4byte	0x13a7
 7290 13a3 BC130000 		.4byte	0x13bc
 7291 13a7 28       		.uleb128 0x28
 7292 13a8 51500000 		.4byte	0x5051
 7293 13ac 13       		.uleb128 0x13
 7294 13ad BF000000 		.4byte	0xbf
 7295 13b1 13       		.uleb128 0x13
 7296 13b2 25000000 		.4byte	0x25
 7297 13b6 13       		.uleb128 0x13
 7298 13b7 25000000 		.4byte	0x25
 7299 13bb 00       		.byte	0
 7300 13bc 29       		.uleb128 0x29
 7301 13bd 3D590000 		.4byte	.LASF258
 7302 13c1 04       		.byte	0x4
 7303 13c2 20       		.byte	0x20
 7304 13c3 51500000 		.4byte	0x5051
 7305 13c7 01       		.byte	0x1
 7306 13c8 D0130000 		.4byte	0x13d0
ARM GAS  /tmp/ccypRU8x.s 			page 132


 7307 13cc E0130000 		.4byte	0x13e0
 7308 13d0 28       		.uleb128 0x28
 7309 13d1 51500000 		.4byte	0x5051
 7310 13d5 13       		.uleb128 0x13
 7311 13d6 25000000 		.4byte	0x25
 7312 13da 13       		.uleb128 0x13
 7313 13db 70120000 		.4byte	0x1270
 7314 13df 00       		.byte	0
 7315 13e0 2A       		.uleb128 0x2a
 7316 13e1 3D590000 		.4byte	.LASF258
 7317 13e5 04       		.byte	0x4
 7318 13e6 21       		.byte	0x21
 7319 13e7 51500000 		.4byte	0x5051
 7320 13eb 01       		.byte	0x1
 7321 13ec F0130000 		.4byte	0x13f0
 7322 13f0 28       		.uleb128 0x28
 7323 13f1 51500000 		.4byte	0x5051
 7324 13f5 13       		.uleb128 0x13
 7325 13f6 BF000000 		.4byte	0xbf
 7326 13fa 13       		.uleb128 0x13
 7327 13fb 25000000 		.4byte	0x25
 7328 13ff 13       		.uleb128 0x13
 7329 1400 25000000 		.4byte	0x25
 7330 1404 13       		.uleb128 0x13
 7331 1405 70120000 		.4byte	0x1270
 7332 1409 00       		.byte	0
 7333 140a 00       		.byte	0
 7334 140b 07       		.uleb128 0x7
 7335 140c 52120000 		.4byte	0x1252
 7336 1410 26       		.uleb128 0x26
 7337 1411 E2470000 		.4byte	.LASF276
 7338 1415 04       		.byte	0x4
 7339 1416 05       		.byte	0x5
 7340 1417 08       		.byte	0x8
 7341 1418 BD160000 		.4byte	0x16bd
 7342 141c 2D       		.uleb128 0x2d
 7343 141d C11F0000 		.4byte	.LASF278
 7344 1421 05       		.byte	0x5
 7345 1422 0A       		.byte	0xa
 7346 1423 01010000 		.4byte	0x101
 7347 1427 01       		.byte	0x1
 7348 1428 30       		.uleb128 0x30
 7349 1429 72617700 		.ascii	"raw\000"
 7350 142d 05       		.byte	0x5
 7351 142e 1B       		.byte	0x1b
 7352 142f 1C140000 		.4byte	0x141c
 7353 1433 00       		.byte	0
 7354 1434 01       		.byte	0x1
 7355 1435 31       		.uleb128 0x31
 7356 1436 C7210000 		.4byte	.LASF279
 7357 143a 05       		.byte	0x5
 7358 143b 3B       		.byte	0x3b
 7359 143c BD160000 		.4byte	0x16bd
 7360 1440 01       		.byte	0x1
 7361 1441 31       		.uleb128 0x31
 7362 1442 F71E0000 		.4byte	.LASF280
 7363 1446 05       		.byte	0x5
ARM GAS  /tmp/ccypRU8x.s 			page 133


 7364 1447 3C       		.byte	0x3c
 7365 1448 BD160000 		.4byte	0x16bd
 7366 144c 01       		.byte	0x1
 7367 144d 31       		.uleb128 0x31
 7368 144e 73630000 		.4byte	.LASF281
 7369 1452 05       		.byte	0x5
 7370 1453 3D       		.byte	0x3d
 7371 1454 BD160000 		.4byte	0x16bd
 7372 1458 01       		.byte	0x1
 7373 1459 2E       		.uleb128 0x2e
 7374 145a 5C270000 		.4byte	.LASF282
 7375 145e 05       		.byte	0x5
 7376 145f 1E       		.byte	0x1e
 7377 1460 5D5F0000 		.4byte	.LASF283
 7378 1464 1C140000 		.4byte	0x141c
 7379 1468 01       		.byte	0x1
 7380 1469 71140000 		.4byte	0x1471
 7381 146d 77140000 		.4byte	0x1477
 7382 1471 28       		.uleb128 0x28
 7383 1472 5D500000 		.4byte	0x505d
 7384 1476 00       		.byte	0
 7385 1477 2E       		.uleb128 0x2e
 7386 1478 4C3F0000 		.4byte	.LASF284
 7387 147c 05       		.byte	0x5
 7388 147d 1F       		.byte	0x1f
 7389 147e A6560000 		.4byte	.LASF285
 7390 1482 1C140000 		.4byte	0x141c
 7391 1486 01       		.byte	0x1
 7392 1487 8F140000 		.4byte	0x148f
 7393 148b 95140000 		.4byte	0x1495
 7394 148f 28       		.uleb128 0x28
 7395 1490 5D500000 		.4byte	0x505d
 7396 1494 00       		.byte	0
 7397 1495 2E       		.uleb128 0x2e
 7398 1496 96050000 		.4byte	.LASF286
 7399 149a 05       		.byte	0x5
 7400 149b 20       		.byte	0x20
 7401 149c F2560000 		.4byte	.LASF287
 7402 14a0 1C140000 		.4byte	0x141c
 7403 14a4 01       		.byte	0x1
 7404 14a5 AD140000 		.4byte	0x14ad
 7405 14a9 B3140000 		.4byte	0x14b3
 7406 14ad 28       		.uleb128 0x28
 7407 14ae 5D500000 		.4byte	0x505d
 7408 14b2 00       		.byte	0
 7409 14b3 2E       		.uleb128 0x2e
 7410 14b4 F7120000 		.4byte	.LASF288
 7411 14b8 05       		.byte	0x5
 7412 14b9 21       		.byte	0x21
 7413 14ba FB540000 		.4byte	.LASF289
 7414 14be 1C140000 		.4byte	0x141c
 7415 14c2 01       		.byte	0x1
 7416 14c3 CB140000 		.4byte	0x14cb
 7417 14c7 D1140000 		.4byte	0x14d1
 7418 14cb 28       		.uleb128 0x28
 7419 14cc 5D500000 		.4byte	0x505d
 7420 14d0 00       		.byte	0
ARM GAS  /tmp/ccypRU8x.s 			page 134


 7421 14d1 2E       		.uleb128 0x2e
 7422 14d2 631C0000 		.4byte	.LASF290
 7423 14d6 05       		.byte	0x5
 7424 14d7 23       		.byte	0x23
 7425 14d8 2B110000 		.4byte	.LASF291
 7426 14dc 63500000 		.4byte	0x5063
 7427 14e0 01       		.byte	0x1
 7428 14e1 E9140000 		.4byte	0x14e9
 7429 14e5 EF140000 		.4byte	0x14ef
 7430 14e9 28       		.uleb128 0x28
 7431 14ea 5D500000 		.4byte	0x505d
 7432 14ee 00       		.byte	0
 7433 14ef 2E       		.uleb128 0x2e
 7434 14f0 B32E0000 		.4byte	.LASF292
 7435 14f4 05       		.byte	0x5
 7436 14f5 24       		.byte	0x24
 7437 14f6 CB080000 		.4byte	.LASF293
 7438 14fa 63500000 		.4byte	0x5063
 7439 14fe 01       		.byte	0x1
 7440 14ff 07150000 		.4byte	0x1507
 7441 1503 0D150000 		.4byte	0x150d
 7442 1507 28       		.uleb128 0x28
 7443 1508 5D500000 		.4byte	0x505d
 7444 150c 00       		.byte	0
 7445 150d 2E       		.uleb128 0x2e
 7446 150e F6600000 		.4byte	.LASF294
 7447 1512 05       		.byte	0x5
 7448 1513 25       		.byte	0x25
 7449 1514 2E160000 		.4byte	.LASF295
 7450 1518 63500000 		.4byte	0x5063
 7451 151c 01       		.byte	0x1
 7452 151d 25150000 		.4byte	0x1525
 7453 1521 2B150000 		.4byte	0x152b
 7454 1525 28       		.uleb128 0x28
 7455 1526 5D500000 		.4byte	0x505d
 7456 152a 00       		.byte	0
 7457 152b 2E       		.uleb128 0x2e
 7458 152c CC600000 		.4byte	.LASF296
 7459 1530 05       		.byte	0x5
 7460 1531 26       		.byte	0x26
 7461 1532 E61A0000 		.4byte	.LASF297
 7462 1536 63500000 		.4byte	0x5063
 7463 153a 01       		.byte	0x1
 7464 153b 43150000 		.4byte	0x1543
 7465 153f 49150000 		.4byte	0x1549
 7466 1543 28       		.uleb128 0x28
 7467 1544 5D500000 		.4byte	0x505d
 7468 1548 00       		.byte	0
 7469 1549 2E       		.uleb128 0x2e
 7470 154a E6140000 		.4byte	.LASF298
 7471 154e 05       		.byte	0x5
 7472 154f 28       		.byte	0x28
 7473 1550 7E390000 		.4byte	.LASF299
 7474 1554 6A500000 		.4byte	0x506a
 7475 1558 01       		.byte	0x1
 7476 1559 61150000 		.4byte	0x1561
 7477 155d 6C150000 		.4byte	0x156c
ARM GAS  /tmp/ccypRU8x.s 			page 135


 7478 1561 28       		.uleb128 0x28
 7479 1562 70500000 		.4byte	0x5070
 7480 1566 13       		.uleb128 0x13
 7481 1567 76500000 		.4byte	0x5076
 7482 156b 00       		.byte	0
 7483 156c 2E       		.uleb128 0x2e
 7484 156d 52400000 		.4byte	.LASF300
 7485 1571 05       		.byte	0x5
 7486 1572 29       		.byte	0x29
 7487 1573 89550000 		.4byte	.LASF301
 7488 1577 6A500000 		.4byte	0x506a
 7489 157b 01       		.byte	0x1
 7490 157c 84150000 		.4byte	0x1584
 7491 1580 8F150000 		.4byte	0x158f
 7492 1584 28       		.uleb128 0x28
 7493 1585 70500000 		.4byte	0x5070
 7494 1589 13       		.uleb128 0x13
 7495 158a 76500000 		.4byte	0x5076
 7496 158e 00       		.byte	0
 7497 158f 2E       		.uleb128 0x2e
 7498 1590 B9430000 		.4byte	.LASF302
 7499 1594 05       		.byte	0x5
 7500 1595 2A       		.byte	0x2a
 7501 1596 05120000 		.4byte	.LASF303
 7502 159a 6A500000 		.4byte	0x506a
 7503 159e 01       		.byte	0x1
 7504 159f A7150000 		.4byte	0x15a7
 7505 15a3 B2150000 		.4byte	0x15b2
 7506 15a7 28       		.uleb128 0x28
 7507 15a8 70500000 		.4byte	0x5070
 7508 15ac 13       		.uleb128 0x13
 7509 15ad 76500000 		.4byte	0x5076
 7510 15b1 00       		.byte	0
 7511 15b2 29       		.uleb128 0x29
 7512 15b3 E2470000 		.4byte	.LASF276
 7513 15b7 05       		.byte	0x5
 7514 15b8 2D       		.byte	0x2d
 7515 15b9 70500000 		.4byte	0x5070
 7516 15bd 01       		.byte	0x1
 7517 15be C6150000 		.4byte	0x15c6
 7518 15c2 CC150000 		.4byte	0x15cc
 7519 15c6 28       		.uleb128 0x28
 7520 15c7 70500000 		.4byte	0x5070
 7521 15cb 00       		.byte	0
 7522 15cc 32       		.uleb128 0x32
 7523 15cd E2470000 		.4byte	.LASF276
 7524 15d1 05       		.byte	0x5
 7525 15d2 2F       		.byte	0x2f
 7526 15d3 70500000 		.4byte	0x5070
 7527 15d7 01       		.byte	0x1
 7528 15d8 E0150000 		.4byte	0x15e0
 7529 15dc EB150000 		.4byte	0x15eb
 7530 15e0 28       		.uleb128 0x28
 7531 15e1 70500000 		.4byte	0x5070
 7532 15e5 13       		.uleb128 0x13
 7533 15e6 63500000 		.4byte	0x5063
 7534 15ea 00       		.byte	0
ARM GAS  /tmp/ccypRU8x.s 			page 136


 7535 15eb 29       		.uleb128 0x29
 7536 15ec E2470000 		.4byte	.LASF276
 7537 15f0 05       		.byte	0x5
 7538 15f1 30       		.byte	0x30
 7539 15f2 70500000 		.4byte	0x5070
 7540 15f6 01       		.byte	0x1
 7541 15f7 FF150000 		.4byte	0x15ff
 7542 15fb 0A160000 		.4byte	0x160a
 7543 15ff 28       		.uleb128 0x28
 7544 1600 70500000 		.4byte	0x5070
 7545 1604 13       		.uleb128 0x13
 7546 1605 76500000 		.4byte	0x5076
 7547 1609 00       		.byte	0
 7548 160a 33       		.uleb128 0x33
 7549 160b 757300   		.ascii	"us\000"
 7550 160e 05       		.byte	0x5
 7551 160f 33       		.byte	0x33
 7552 1610 2F330000 		.4byte	.LASF304
 7553 1614 10140000 		.4byte	0x1410
 7554 1618 01       		.byte	0x1
 7555 1619 23160000 		.4byte	0x1623
 7556 161d 13       		.uleb128 0x13
 7557 161e 1C140000 		.4byte	0x141c
 7558 1622 00       		.byte	0
 7559 1623 33       		.uleb128 0x33
 7560 1624 6D7300   		.ascii	"ms\000"
 7561 1627 05       		.byte	0x5
 7562 1628 34       		.byte	0x34
 7563 1629 2A410000 		.4byte	.LASF305
 7564 162d 10140000 		.4byte	0x1410
 7565 1631 01       		.byte	0x1
 7566 1632 3C160000 		.4byte	0x163c
 7567 1636 13       		.uleb128 0x13
 7568 1637 1C140000 		.4byte	0x141c
 7569 163b 00       		.byte	0
 7570 163c 33       		.uleb128 0x33
 7571 163d 7300     		.ascii	"s\000"
 7572 163f 05       		.byte	0x5
 7573 1640 35       		.byte	0x35
 7574 1641 814A0000 		.4byte	.LASF306
 7575 1645 10140000 		.4byte	0x1410
 7576 1649 01       		.byte	0x1
 7577 164a 54160000 		.4byte	0x1654
 7578 164e 13       		.uleb128 0x13
 7579 164f 1C140000 		.4byte	0x141c
 7580 1653 00       		.byte	0
 7581 1654 33       		.uleb128 0x33
 7582 1655 6D00     		.ascii	"m\000"
 7583 1657 05       		.byte	0x5
 7584 1658 36       		.byte	0x36
 7585 1659 CA3B0000 		.4byte	.LASF307
 7586 165d 10140000 		.4byte	0x1410
 7587 1661 01       		.byte	0x1
 7588 1662 6C160000 		.4byte	0x166c
 7589 1666 13       		.uleb128 0x13
 7590 1667 1C140000 		.4byte	0x141c
 7591 166b 00       		.byte	0
ARM GAS  /tmp/ccypRU8x.s 			page 137


 7592 166c 33       		.uleb128 0x33
 7593 166d 687A00   		.ascii	"hz\000"
 7594 1670 05       		.byte	0x5
 7595 1671 37       		.byte	0x37
 7596 1672 4F5E0000 		.4byte	.LASF308
 7597 1676 10140000 		.4byte	0x1410
 7598 167a 01       		.byte	0x1
 7599 167b 85160000 		.4byte	0x1685
 7600 167f 13       		.uleb128 0x13
 7601 1680 63500000 		.4byte	0x5063
 7602 1684 00       		.byte	0
 7603 1685 34       		.uleb128 0x34
 7604 1686 6E6F7700 		.ascii	"now\000"
 7605 168a 05       		.byte	0x5
 7606 168b 38       		.byte	0x38
 7607 168c 035E0000 		.4byte	.LASF934
 7608 1690 10140000 		.4byte	0x1410
 7609 1694 01       		.byte	0x1
 7610 1695 07       		.uleb128 0x7
 7611 1696 1C140000 		.4byte	0x141c
 7612 169a 2A       		.uleb128 0x2a
 7613 169b AA070000 		.4byte	.LASF309
 7614 169f 05       		.byte	0x5
 7615 16a0 9F       		.byte	0x9f
 7616 16a1 70500000 		.4byte	0x5070
 7617 16a5 01       		.byte	0x1
 7618 16a6 B1160000 		.4byte	0x16b1
 7619 16aa 35       		.uleb128 0x35
 7620 16ab 5400     		.ascii	"T\000"
 7621 16ad 86000000 		.4byte	0x86
 7622 16b1 28       		.uleb128 0x28
 7623 16b2 70500000 		.4byte	0x5070
 7624 16b6 13       		.uleb128 0x13
 7625 16b7 86000000 		.4byte	0x86
 7626 16bb 00       		.byte	0
 7627 16bc 00       		.byte	0
 7628 16bd 07       		.uleb128 0x7
 7629 16be 10140000 		.4byte	0x1410
 7630 16c2 26       		.uleb128 0x26
 7631 16c3 922E0000 		.4byte	.LASF310
 7632 16c7 04       		.byte	0x4
 7633 16c8 2E       		.byte	0x2e
 7634 16c9 0F       		.byte	0xf
 7635 16ca 041D0000 		.4byte	0x1d04
 7636 16ce 2B       		.uleb128 0x2b
 7637 16cf 65110000 		.4byte	0x1165
 7638 16d3 00       		.byte	0
 7639 16d4 36       		.uleb128 0x36
 7640 16d5 A5580000 		.4byte	.LASF313
 7641 16d9 08       		.byte	0x8
 7642 16da 2E       		.byte	0x2e
 7643 16db 11       		.byte	0x11
 7644 16dc 01       		.byte	0x1
 7645 16dd 14170000 		.4byte	0x1714
 7646 16e1 0C       		.uleb128 0xc
 7647 16e2 C42E0000 		.4byte	.LASF311
 7648 16e6 2E       		.byte	0x2e
ARM GAS  /tmp/ccypRU8x.s 			page 138


 7649 16e7 12       		.byte	0x12
 7650 16e8 7C500000 		.4byte	0x507c
 7651 16ec 00       		.byte	0
 7652 16ed 0C       		.uleb128 0xc
 7653 16ee 8E1A0000 		.4byte	.LASF312
 7654 16f2 2E       		.byte	0x2e
 7655 16f3 13       		.byte	0x13
 7656 16f4 A9520000 		.4byte	0x52a9
 7657 16f8 04       		.byte	0x4
 7658 16f9 37       		.uleb128 0x37
 7659 16fa A5580000 		.4byte	.LASF313
 7660 16fe 2E       		.byte	0x2e
 7661 16ff 15       		.byte	0x15
 7662 1700 7C500000 		.4byte	0x507c
 7663 1704 08170000 		.4byte	0x1708
 7664 1708 28       		.uleb128 0x28
 7665 1709 7C500000 		.4byte	0x507c
 7666 170d 13       		.uleb128 0x13
 7667 170e 03520000 		.4byte	0x5203
 7668 1712 00       		.byte	0
 7669 1713 00       		.byte	0
 7670 1714 19       		.uleb128 0x19
 7671 1715 27140000 		.4byte	.LASF314
 7672 1719 2E       		.byte	0x2e
 7673 171a 8A01     		.2byte	0x18a
 7674 171c 7C500000 		.4byte	0x507c
 7675 1720 00       		.byte	0
 7676 1721 38       		.uleb128 0x38
 7677 1722 6E290000 		.4byte	.LASF561
 7678 1726 39       		.uleb128 0x39
 7679 1727 11200000 		.4byte	.LASF315
 7680 172b 39       		.uleb128 0x39
 7681 172c 0E300000 		.4byte	.LASF316
 7682 1730 39       		.uleb128 0x39
 7683 1731 7F510000 		.4byte	.LASF317
 7684 1735 3A       		.uleb128 0x3a
 7685 1736 FF3D0000 		.4byte	.LASF319
 7686 173a 04       		.byte	0x4
 7687 173b 2E       		.byte	0x2e
 7688 173c C0       		.byte	0xc0
 7689 173d 01       		.byte	0x1
 7690 173e A5180000 		.4byte	0x18a5
 7691 1742 0C       		.uleb128 0xc
 7692 1743 6C150000 		.4byte	.LASF318
 7693 1747 2E       		.byte	0x2e
 7694 1748 C4       		.byte	0xc4
 7695 1749 C5530000 		.4byte	0x53c5
 7696 174d 00       		.byte	0
 7697 174e 29       		.uleb128 0x29
 7698 174f FF3D0000 		.4byte	.LASF319
 7699 1753 2E       		.byte	0x2e
 7700 1754 C7       		.byte	0xc7
 7701 1755 CB530000 		.4byte	0x53cb
 7702 1759 01       		.byte	0x1
 7703 175a 62170000 		.4byte	0x1762
 7704 175e 68170000 		.4byte	0x1768
 7705 1762 28       		.uleb128 0x28
ARM GAS  /tmp/ccypRU8x.s 			page 139


 7706 1763 CB530000 		.4byte	0x53cb
 7707 1767 00       		.byte	0
 7708 1768 29       		.uleb128 0x29
 7709 1769 FF3D0000 		.4byte	.LASF319
 7710 176d 2E       		.byte	0x2e
 7711 176e C8       		.byte	0xc8
 7712 176f CB530000 		.4byte	0x53cb
 7713 1773 01       		.byte	0x1
 7714 1774 7C170000 		.4byte	0x177c
 7715 1778 87170000 		.4byte	0x1787
 7716 177c 28       		.uleb128 0x28
 7717 177d CB530000 		.4byte	0x53cb
 7718 1781 13       		.uleb128 0x13
 7719 1782 D1530000 		.4byte	0x53d1
 7720 1786 00       		.byte	0
 7721 1787 27       		.uleb128 0x27
 7722 1788 FF3D0000 		.4byte	.LASF319
 7723 178c 2E       		.byte	0x2e
 7724 178d CB       		.byte	0xcb
 7725 178e CB530000 		.4byte	0x53cb
 7726 1792 9A170000 		.4byte	0x179a
 7727 1796 A5170000 		.4byte	0x17a5
 7728 179a 28       		.uleb128 0x28
 7729 179b CB530000 		.4byte	0x53cb
 7730 179f 13       		.uleb128 0x13
 7731 17a0 C5530000 		.4byte	0x53c5
 7732 17a4 00       		.byte	0
 7733 17a5 3B       		.uleb128 0x3b
 7734 17a6 E6140000 		.4byte	.LASF298
 7735 17aa 2E       		.byte	0x2e
 7736 17ab CE       		.byte	0xce
 7737 17ac 70260000 		.4byte	.LASF320
 7738 17b0 E7500000 		.4byte	0x50e7
 7739 17b4 BC170000 		.4byte	0x17bc
 7740 17b8 C7170000 		.4byte	0x17c7
 7741 17bc 28       		.uleb128 0x28
 7742 17bd CB530000 		.4byte	0x53cb
 7743 17c1 13       		.uleb128 0x13
 7744 17c2 D1530000 		.4byte	0x53d1
 7745 17c6 00       		.byte	0
 7746 17c7 2E       		.uleb128 0x2e
 7747 17c8 C4430000 		.4byte	.LASF321
 7748 17cc 2E       		.byte	0x2e
 7749 17cd D4       		.byte	0xd4
 7750 17ce 21540000 		.4byte	.LASF322
 7751 17d2 D7530000 		.4byte	0x53d7
 7752 17d6 01       		.byte	0x1
 7753 17d7 DF170000 		.4byte	0x17df
 7754 17db E5170000 		.4byte	0x17e5
 7755 17df 28       		.uleb128 0x28
 7756 17e0 DD530000 		.4byte	0x53dd
 7757 17e4 00       		.byte	0
 7758 17e5 2E       		.uleb128 0x2e
 7759 17e6 93140000 		.4byte	.LASF323
 7760 17ea 2E       		.byte	0x2e
 7761 17eb D8       		.byte	0xd8
 7762 17ec 373C0000 		.4byte	.LASF324
ARM GAS  /tmp/ccypRU8x.s 			page 140


 7763 17f0 97500000 		.4byte	0x5097
 7764 17f4 01       		.byte	0x1
 7765 17f5 FD170000 		.4byte	0x17fd
 7766 17f9 03180000 		.4byte	0x1803
 7767 17fd 28       		.uleb128 0x28
 7768 17fe DD530000 		.4byte	0x53dd
 7769 1802 00       		.byte	0
 7770 1803 2E       		.uleb128 0x2e
 7771 1804 96410000 		.4byte	.LASF325
 7772 1808 2E       		.byte	0x2e
 7773 1809 DC       		.byte	0xdc
 7774 180a D8450000 		.4byte	.LASF326
 7775 180e E7500000 		.4byte	0x50e7
 7776 1812 01       		.byte	0x1
 7777 1813 1B180000 		.4byte	0x181b
 7778 1817 21180000 		.4byte	0x1821
 7779 181b 28       		.uleb128 0x28
 7780 181c CB530000 		.4byte	0x53cb
 7781 1820 00       		.byte	0
 7782 1821 2E       		.uleb128 0x2e
 7783 1822 96410000 		.4byte	.LASF325
 7784 1826 2E       		.byte	0x2e
 7785 1827 E3       		.byte	0xe3
 7786 1828 CA440000 		.4byte	.LASF327
 7787 182c 961C0000 		.4byte	0x1c96
 7788 1830 01       		.byte	0x1
 7789 1831 39180000 		.4byte	0x1839
 7790 1835 44180000 		.4byte	0x1844
 7791 1839 28       		.uleb128 0x28
 7792 183a CB530000 		.4byte	0x53cb
 7793 183e 13       		.uleb128 0x13
 7794 183f 37000000 		.4byte	0x37
 7795 1843 00       		.byte	0
 7796 1844 2E       		.uleb128 0x2e
 7797 1845 FB600000 		.4byte	.LASF328
 7798 1849 2E       		.byte	0x2e
 7799 184a EB       		.byte	0xeb
 7800 184b 415A0000 		.4byte	.LASF329
 7801 184f 2D010000 		.4byte	0x12d
 7802 1853 01       		.byte	0x1
 7803 1854 5C180000 		.4byte	0x185c
 7804 1858 67180000 		.4byte	0x1867
 7805 185c 28       		.uleb128 0x28
 7806 185d DD530000 		.4byte	0x53dd
 7807 1861 13       		.uleb128 0x13
 7808 1862 D1530000 		.4byte	0x53d1
 7809 1866 00       		.byte	0
 7810 1867 2E       		.uleb128 0x2e
 7811 1868 7C310000 		.4byte	.LASF330
 7812 186c 2E       		.byte	0x2e
 7813 186d EF       		.byte	0xef
 7814 186e DF340000 		.4byte	.LASF331
 7815 1872 2D010000 		.4byte	0x12d
 7816 1876 01       		.byte	0x1
 7817 1877 7F180000 		.4byte	0x187f
 7818 187b 8A180000 		.4byte	0x188a
 7819 187f 28       		.uleb128 0x28
ARM GAS  /tmp/ccypRU8x.s 			page 141


 7820 1880 DD530000 		.4byte	0x53dd
 7821 1884 13       		.uleb128 0x13
 7822 1885 D1530000 		.4byte	0x53d1
 7823 1889 00       		.byte	0
 7824 188a 3C       		.uleb128 0x3c
 7825 188b 4D420000 		.4byte	.LASF332
 7826 188f 2E       		.byte	0x2e
 7827 1890 F3       		.byte	0xf3
 7828 1891 7C100000 		.4byte	.LASF333
 7829 1895 2D010000 		.4byte	0x12d
 7830 1899 01       		.byte	0x1
 7831 189a 9E180000 		.4byte	0x189e
 7832 189e 28       		.uleb128 0x28
 7833 189f DD530000 		.4byte	0x53dd
 7834 18a3 00       		.byte	0
 7835 18a4 00       		.byte	0
 7836 18a5 1D       		.uleb128 0x1d
 7837 18a6 941A0000 		.4byte	.LASF334
 7838 18aa 2E       		.byte	0x2e
 7839 18ab 8601     		.2byte	0x186
 7840 18ad 82500000 		.4byte	0x5082
 7841 18b1 1D       		.uleb128 0x1d
 7842 18b2 55130000 		.4byte	.LASF335
 7843 18b6 2E       		.byte	0x2e
 7844 18b7 8701     		.2byte	0x187
 7845 18b9 9D500000 		.4byte	0x509d
 7846 18bd 3D       		.uleb128 0x3d
 7847 18be 5B630000 		.4byte	.LASF336
 7848 18c2 2E       		.byte	0x2e
 7849 18c3 8D01     		.2byte	0x18d
 7850 18c5 293E0000 		.4byte	.LASF338
 7851 18c9 B7500000 		.4byte	0x50b7
 7852 18cd 01       		.byte	0x1
 7853 18ce D6180000 		.4byte	0x18d6
 7854 18d2 DC180000 		.4byte	0x18dc
 7855 18d6 28       		.uleb128 0x28
 7856 18d7 BD500000 		.4byte	0x50bd
 7857 18db 00       		.byte	0
 7858 18dc 07       		.uleb128 0x7
 7859 18dd D4160000 		.4byte	0x16d4
 7860 18e1 3D       		.uleb128 0x3d
 7861 18e2 615E0000 		.4byte	.LASF337
 7862 18e6 2E       		.byte	0x2e
 7863 18e7 9101     		.2byte	0x191
 7864 18e9 B05D0000 		.4byte	.LASF339
 7865 18ed 2D010000 		.4byte	0x12d
 7866 18f1 01       		.byte	0x1
 7867 18f2 FA180000 		.4byte	0x18fa
 7868 18f6 00190000 		.4byte	0x1900
 7869 18fa 28       		.uleb128 0x28
 7870 18fb BD500000 		.4byte	0x50bd
 7871 18ff 00       		.byte	0
 7872 1900 3D       		.uleb128 0x3d
 7873 1901 4E1F0000 		.4byte	.LASF340
 7874 1905 2E       		.byte	0x2e
 7875 1906 0302     		.2byte	0x203
 7876 1908 3E4F0000 		.4byte	.LASF341
ARM GAS  /tmp/ccypRU8x.s 			page 142


 7877 190c 25000000 		.4byte	0x25
 7878 1910 01       		.byte	0x1
 7879 1911 19190000 		.4byte	0x1919
 7880 1915 1F190000 		.4byte	0x191f
 7881 1919 28       		.uleb128 0x28
 7882 191a BD500000 		.4byte	0x50bd
 7883 191e 00       		.byte	0
 7884 191f 3E       		.uleb128 0x3e
 7885 1920 11480000 		.4byte	.LASF342
 7886 1924 2E       		.byte	0x2e
 7887 1925 9701     		.2byte	0x197
 7888 1927 4D1D0000 		.4byte	.LASF344
 7889 192b 01       		.byte	0x1
 7890 192c 34190000 		.4byte	0x1934
 7891 1930 3F190000 		.4byte	0x193f
 7892 1934 28       		.uleb128 0x28
 7893 1935 C3500000 		.4byte	0x50c3
 7894 1939 13       		.uleb128 0x13
 7895 193a C9500000 		.4byte	0x50c9
 7896 193e 00       		.byte	0
 7897 193f 3E       		.uleb128 0x3e
 7898 1940 9E500000 		.4byte	.LASF343
 7899 1944 2E       		.byte	0x2e
 7900 1945 9F01     		.2byte	0x19f
 7901 1947 C1130000 		.4byte	.LASF345
 7902 194b 01       		.byte	0x1
 7903 194c 54190000 		.4byte	0x1954
 7904 1950 5F190000 		.4byte	0x195f
 7905 1954 28       		.uleb128 0x28
 7906 1955 C3500000 		.4byte	0x50c3
 7907 1959 13       		.uleb128 0x13
 7908 195a C9500000 		.4byte	0x50c9
 7909 195e 00       		.byte	0
 7910 195f 3D       		.uleb128 0x3d
 7911 1960 CB290000 		.4byte	.LASF346
 7912 1964 2E       		.byte	0x2e
 7913 1965 0E02     		.2byte	0x20e
 7914 1967 55470000 		.4byte	.LASF347
 7915 196b 2D010000 		.4byte	0x12d
 7916 196f 01       		.byte	0x1
 7917 1970 78190000 		.4byte	0x1978
 7918 1974 83190000 		.4byte	0x1983
 7919 1978 28       		.uleb128 0x28
 7920 1979 C3500000 		.4byte	0x50c3
 7921 197d 13       		.uleb128 0x13
 7922 197e C9500000 		.4byte	0x50c9
 7923 1982 00       		.byte	0
 7924 1983 3D       		.uleb128 0x3d
 7925 1984 2C370000 		.4byte	.LASF348
 7926 1988 2E       		.byte	0x2e
 7927 1989 1F02     		.2byte	0x21f
 7928 198b 5D400000 		.4byte	.LASF349
 7929 198f 37000000 		.4byte	0x37
 7930 1993 01       		.byte	0x1
 7931 1994 9C190000 		.4byte	0x199c
 7932 1998 A7190000 		.4byte	0x19a7
 7933 199c 28       		.uleb128 0x28
ARM GAS  /tmp/ccypRU8x.s 			page 143


 7934 199d BD500000 		.4byte	0x50bd
 7935 19a1 13       		.uleb128 0x13
 7936 19a2 97500000 		.4byte	0x5097
 7937 19a6 00       		.byte	0
 7938 19a7 3D       		.uleb128 0x3d
 7939 19a8 E34D0000 		.4byte	.LASF350
 7940 19ac 2E       		.byte	0x2e
 7941 19ad 2C02     		.2byte	0x22c
 7942 19af 69430000 		.4byte	.LASF351
 7943 19b3 2D010000 		.4byte	0x12d
 7944 19b7 01       		.byte	0x1
 7945 19b8 C0190000 		.4byte	0x19c0
 7946 19bc CB190000 		.4byte	0x19cb
 7947 19c0 28       		.uleb128 0x28
 7948 19c1 BD500000 		.4byte	0x50bd
 7949 19c5 13       		.uleb128 0x13
 7950 19c6 97500000 		.4byte	0x5097
 7951 19ca 00       		.byte	0
 7952 19cb 3D       		.uleb128 0x3d
 7953 19cc 5A340000 		.4byte	.LASF352
 7954 19d0 2E       		.byte	0x2e
 7955 19d1 3802     		.2byte	0x238
 7956 19d3 03010000 		.4byte	.LASF353
 7957 19d7 CF500000 		.4byte	0x50cf
 7958 19db 01       		.byte	0x1
 7959 19dc E4190000 		.4byte	0x19e4
 7960 19e0 EF190000 		.4byte	0x19ef
 7961 19e4 28       		.uleb128 0x28
 7962 19e5 BD500000 		.4byte	0x50bd
 7963 19e9 13       		.uleb128 0x13
 7964 19ea A5180000 		.4byte	0x18a5
 7965 19ee 00       		.byte	0
 7966 19ef 3D       		.uleb128 0x3d
 7967 19f0 5A340000 		.4byte	.LASF352
 7968 19f4 2E       		.byte	0x2e
 7969 19f5 4402     		.2byte	0x244
 7970 19f7 710E0000 		.4byte	.LASF354
 7971 19fb CF500000 		.4byte	0x50cf
 7972 19ff 01       		.byte	0x1
 7973 1a00 081A0000 		.4byte	0x1a08
 7974 1a04 181A0000 		.4byte	0x1a18
 7975 1a08 28       		.uleb128 0x28
 7976 1a09 BD500000 		.4byte	0x50bd
 7977 1a0d 13       		.uleb128 0x13
 7978 1a0e B1180000 		.4byte	0x18b1
 7979 1a12 13       		.uleb128 0x13
 7980 1a13 D9000000 		.4byte	0xd9
 7981 1a17 00       		.byte	0
 7982 1a18 3D       		.uleb128 0x3d
 7983 1a19 EA100000 		.4byte	.LASF355
 7984 1a1d 2E       		.byte	0x2e
 7985 1a1e B301     		.2byte	0x1b3
 7986 1a20 2F390000 		.4byte	.LASF356
 7987 1a24 371A0000 		.4byte	0x1a37
 7988 1a28 01       		.byte	0x1
 7989 1a29 311A0000 		.4byte	0x1a31
 7990 1a2d 371A0000 		.4byte	0x1a37
ARM GAS  /tmp/ccypRU8x.s 			page 144


 7991 1a31 28       		.uleb128 0x28
 7992 1a32 C3500000 		.4byte	0x50c3
 7993 1a36 00       		.byte	0
 7994 1a37 07       		.uleb128 0x7
 7995 1a38 26170000 		.4byte	0x1726
 7996 1a3c 3D       		.uleb128 0x3d
 7997 1a3d 87310000 		.4byte	.LASF357
 7998 1a41 2E       		.byte	0x2e
 7999 1a42 B701     		.2byte	0x1b7
 8000 1a44 38310000 		.4byte	.LASF358
 8001 1a48 371A0000 		.4byte	0x1a37
 8002 1a4c 01       		.byte	0x1
 8003 1a4d 551A0000 		.4byte	0x1a55
 8004 1a51 5B1A0000 		.4byte	0x1a5b
 8005 1a55 28       		.uleb128 0x28
 8006 1a56 C3500000 		.4byte	0x50c3
 8007 1a5a 00       		.byte	0
 8008 1a5b 3E       		.uleb128 0x3e
 8009 1a5c C1630000 		.4byte	.LASF359
 8010 1a60 2E       		.byte	0x2e
 8011 1a61 BB01     		.2byte	0x1bb
 8012 1a63 4D2A0000 		.4byte	.LASF360
 8013 1a67 01       		.byte	0x1
 8014 1a68 701A0000 		.4byte	0x1a70
 8015 1a6c 7B1A0000 		.4byte	0x1a7b
 8016 1a70 28       		.uleb128 0x28
 8017 1a71 C3500000 		.4byte	0x50c3
 8018 1a75 13       		.uleb128 0x13
 8019 1a76 D5500000 		.4byte	0x50d5
 8020 1a7a 00       		.byte	0
 8021 1a7b 3D       		.uleb128 0x3d
 8022 1a7c EA100000 		.4byte	.LASF355
 8023 1a80 2E       		.byte	0x2e
 8024 1a81 BF01     		.2byte	0x1bf
 8025 1a83 083D0000 		.4byte	.LASF361
 8026 1a87 9A1A0000 		.4byte	0x1a9a
 8027 1a8b 01       		.byte	0x1
 8028 1a8c 941A0000 		.4byte	0x1a94
 8029 1a90 9A1A0000 		.4byte	0x1a9a
 8030 1a94 28       		.uleb128 0x28
 8031 1a95 BD500000 		.4byte	0x50bd
 8032 1a99 00       		.byte	0
 8033 1a9a 07       		.uleb128 0x7
 8034 1a9b 2B170000 		.4byte	0x172b
 8035 1a9f 3D       		.uleb128 0x3d
 8036 1aa0 87310000 		.4byte	.LASF357
 8037 1aa4 2E       		.byte	0x2e
 8038 1aa5 C301     		.2byte	0x1c3
 8039 1aa7 772F0000 		.4byte	.LASF362
 8040 1aab 9A1A0000 		.4byte	0x1a9a
 8041 1aaf 01       		.byte	0x1
 8042 1ab0 B81A0000 		.4byte	0x1ab8
 8043 1ab4 BE1A0000 		.4byte	0x1abe
 8044 1ab8 28       		.uleb128 0x28
 8045 1ab9 BD500000 		.4byte	0x50bd
 8046 1abd 00       		.byte	0
 8047 1abe 3E       		.uleb128 0x3e
ARM GAS  /tmp/ccypRU8x.s 			page 145


 8048 1abf C1630000 		.4byte	.LASF359
 8049 1ac3 2E       		.byte	0x2e
 8050 1ac4 C701     		.2byte	0x1c7
 8051 1ac6 501E0000 		.4byte	.LASF363
 8052 1aca 01       		.byte	0x1
 8053 1acb D31A0000 		.4byte	0x1ad3
 8054 1acf DE1A0000 		.4byte	0x1ade
 8055 1ad3 28       		.uleb128 0x28
 8056 1ad4 BD500000 		.4byte	0x50bd
 8057 1ad8 13       		.uleb128 0x13
 8058 1ad9 DB500000 		.4byte	0x50db
 8059 1add 00       		.byte	0
 8060 1ade 3D       		.uleb128 0x3d
 8061 1adf 13590000 		.4byte	.LASF364
 8062 1ae3 2E       		.byte	0x2e
 8063 1ae4 5302     		.2byte	0x253
 8064 1ae6 C05F0000 		.4byte	.LASF365
 8065 1aea B7500000 		.4byte	0x50b7
 8066 1aee 01       		.byte	0x1
 8067 1aef F71A0000 		.4byte	0x1af7
 8068 1af3 FD1A0000 		.4byte	0x1afd
 8069 1af7 28       		.uleb128 0x28
 8070 1af8 BD500000 		.4byte	0x50bd
 8071 1afc 00       		.byte	0
 8072 1afd 3D       		.uleb128 0x3d
 8073 1afe 1B5C0000 		.4byte	.LASF366
 8074 1b02 2E       		.byte	0x2e
 8075 1b03 5D02     		.2byte	0x25d
 8076 1b05 0A1B0000 		.4byte	.LASF367
 8077 1b09 2D010000 		.4byte	0x12d
 8078 1b0d 01       		.byte	0x1
 8079 1b0e 161B0000 		.4byte	0x1b16
 8080 1b12 1C1B0000 		.4byte	0x1b1c
 8081 1b16 28       		.uleb128 0x28
 8082 1b17 BD500000 		.4byte	0x50bd
 8083 1b1b 00       		.byte	0
 8084 1b1c 3D       		.uleb128 0x3d
 8085 1b1d CB340000 		.4byte	.LASF368
 8086 1b21 2E       		.byte	0x2e
 8087 1b22 6702     		.2byte	0x267
 8088 1b24 AE000000 		.4byte	.LASF369
 8089 1b28 25000000 		.4byte	0x25
 8090 1b2c 01       		.byte	0x1
 8091 1b2d 351B0000 		.4byte	0x1b35
 8092 1b31 3B1B0000 		.4byte	0x1b3b
 8093 1b35 28       		.uleb128 0x28
 8094 1b36 BD500000 		.4byte	0x50bd
 8095 1b3a 00       		.byte	0
 8096 1b3b 3E       		.uleb128 0x3e
 8097 1b3c 5B1F0000 		.4byte	.LASF370
 8098 1b40 2E       		.byte	0x2e
 8099 1b41 7602     		.2byte	0x276
 8100 1b43 65320000 		.4byte	.LASF371
 8101 1b47 01       		.byte	0x1
 8102 1b48 501B0000 		.4byte	0x1b50
 8103 1b4c 5B1B0000 		.4byte	0x1b5b
 8104 1b50 28       		.uleb128 0x28
ARM GAS  /tmp/ccypRU8x.s 			page 146


 8105 1b51 C3500000 		.4byte	0x50c3
 8106 1b55 13       		.uleb128 0x13
 8107 1b56 C9500000 		.4byte	0x50c9
 8108 1b5a 00       		.byte	0
 8109 1b5b 3D       		.uleb128 0x3d
 8110 1b5c 8C140000 		.4byte	.LASF372
 8111 1b60 2E       		.byte	0x2e
 8112 1b61 8002     		.2byte	0x280
 8113 1b63 893C0000 		.4byte	.LASF373
 8114 1b67 2D010000 		.4byte	0x12d
 8115 1b6b 01       		.byte	0x1
 8116 1b6c 741B0000 		.4byte	0x1b74
 8117 1b70 7F1B0000 		.4byte	0x1b7f
 8118 1b74 28       		.uleb128 0x28
 8119 1b75 C3500000 		.4byte	0x50c3
 8120 1b79 13       		.uleb128 0x13
 8121 1b7a C9500000 		.4byte	0x50c9
 8122 1b7e 00       		.byte	0
 8123 1b7f 3D       		.uleb128 0x3d
 8124 1b80 75390000 		.4byte	.LASF374
 8125 1b84 2E       		.byte	0x2e
 8126 1b85 8A02     		.2byte	0x28a
 8127 1b87 71220000 		.4byte	.LASF375
 8128 1b8b 37000000 		.4byte	0x37
 8129 1b8f 01       		.byte	0x1
 8130 1b90 981B0000 		.4byte	0x1b98
 8131 1b94 A31B0000 		.4byte	0x1ba3
 8132 1b98 28       		.uleb128 0x28
 8133 1b99 BD500000 		.4byte	0x50bd
 8134 1b9d 13       		.uleb128 0x13
 8135 1b9e 97500000 		.4byte	0x5097
 8136 1ba2 00       		.byte	0
 8137 1ba3 3D       		.uleb128 0x3d
 8138 1ba4 8B250000 		.4byte	.LASF376
 8139 1ba8 2E       		.byte	0x2e
 8140 1ba9 9B02     		.2byte	0x29b
 8141 1bab B63D0000 		.4byte	.LASF377
 8142 1baf 2D010000 		.4byte	0x12d
 8143 1bb3 01       		.byte	0x1
 8144 1bb4 BC1B0000 		.4byte	0x1bbc
 8145 1bb8 C71B0000 		.4byte	0x1bc7
 8146 1bbc 28       		.uleb128 0x28
 8147 1bbd BD500000 		.4byte	0x50bd
 8148 1bc1 13       		.uleb128 0x13
 8149 1bc2 97500000 		.4byte	0x5097
 8150 1bc6 00       		.byte	0
 8151 1bc7 3D       		.uleb128 0x3d
 8152 1bc8 C73C0000 		.4byte	.LASF378
 8153 1bcc 2E       		.byte	0x2e
 8154 1bcd AC02     		.2byte	0x2ac
 8155 1bcf 57520000 		.4byte	.LASF379
 8156 1bd3 CF500000 		.4byte	0x50cf
 8157 1bd7 01       		.byte	0x1
 8158 1bd8 E01B0000 		.4byte	0x1be0
 8159 1bdc EB1B0000 		.4byte	0x1beb
 8160 1be0 28       		.uleb128 0x28
 8161 1be1 BD500000 		.4byte	0x50bd
ARM GAS  /tmp/ccypRU8x.s 			page 147


 8162 1be5 13       		.uleb128 0x13
 8163 1be6 A5180000 		.4byte	0x18a5
 8164 1bea 00       		.byte	0
 8165 1beb 3D       		.uleb128 0x3d
 8166 1bec C73C0000 		.4byte	.LASF378
 8167 1bf0 2E       		.byte	0x2e
 8168 1bf1 BC02     		.2byte	0x2bc
 8169 1bf3 5A170000 		.4byte	.LASF380
 8170 1bf7 CF500000 		.4byte	0x50cf
 8171 1bfb 01       		.byte	0x1
 8172 1bfc 041C0000 		.4byte	0x1c04
 8173 1c00 141C0000 		.4byte	0x1c14
 8174 1c04 28       		.uleb128 0x28
 8175 1c05 BD500000 		.4byte	0x50bd
 8176 1c09 13       		.uleb128 0x13
 8177 1c0a B1180000 		.4byte	0x18b1
 8178 1c0e 13       		.uleb128 0x13
 8179 1c0f D9000000 		.4byte	0xd9
 8180 1c13 00       		.byte	0
 8181 1c14 3D       		.uleb128 0x3d
 8182 1c15 DB620000 		.4byte	.LASF381
 8183 1c19 2E       		.byte	0x2e
 8184 1c1a E001     		.2byte	0x1e0
 8185 1c1c 162B0000 		.4byte	.LASF382
 8186 1c20 331C0000 		.4byte	0x1c33
 8187 1c24 01       		.byte	0x1
 8188 1c25 2D1C0000 		.4byte	0x1c2d
 8189 1c29 331C0000 		.4byte	0x1c33
 8190 1c2d 28       		.uleb128 0x28
 8191 1c2e C3500000 		.4byte	0x50c3
 8192 1c32 00       		.byte	0
 8193 1c33 07       		.uleb128 0x7
 8194 1c34 30170000 		.4byte	0x1730
 8195 1c38 3F       		.uleb128 0x3f
 8196 1c39 656E6400 		.ascii	"end\000"
 8197 1c3d 2E       		.byte	0x2e
 8198 1c3e E401     		.2byte	0x1e4
 8199 1c40 26280000 		.4byte	.LASF386
 8200 1c44 331C0000 		.4byte	0x1c33
 8201 1c48 01       		.byte	0x1
 8202 1c49 511C0000 		.4byte	0x1c51
 8203 1c4d 571C0000 		.4byte	0x1c57
 8204 1c51 28       		.uleb128 0x28
 8205 1c52 C3500000 		.4byte	0x50c3
 8206 1c56 00       		.byte	0
 8207 1c57 3E       		.uleb128 0x3e
 8208 1c58 EF120000 		.4byte	.LASF383
 8209 1c5c 2E       		.byte	0x2e
 8210 1c5d E801     		.2byte	0x1e8
 8211 1c5f 92310000 		.4byte	.LASF384
 8212 1c63 01       		.byte	0x1
 8213 1c64 6C1C0000 		.4byte	0x1c6c
 8214 1c68 771C0000 		.4byte	0x1c77
 8215 1c6c 28       		.uleb128 0x28
 8216 1c6d C3500000 		.4byte	0x50c3
 8217 1c71 13       		.uleb128 0x13
 8218 1c72 E1500000 		.4byte	0x50e1
ARM GAS  /tmp/ccypRU8x.s 			page 148


 8219 1c76 00       		.byte	0
 8220 1c77 3D       		.uleb128 0x3d
 8221 1c78 DB620000 		.4byte	.LASF381
 8222 1c7c 2E       		.byte	0x2e
 8223 1c7d EC01     		.2byte	0x1ec
 8224 1c7f AE180000 		.4byte	.LASF385
 8225 1c83 961C0000 		.4byte	0x1c96
 8226 1c87 01       		.byte	0x1
 8227 1c88 901C0000 		.4byte	0x1c90
 8228 1c8c 961C0000 		.4byte	0x1c96
 8229 1c90 28       		.uleb128 0x28
 8230 1c91 BD500000 		.4byte	0x50bd
 8231 1c95 00       		.byte	0
 8232 1c96 07       		.uleb128 0x7
 8233 1c97 35170000 		.4byte	0x1735
 8234 1c9b 3F       		.uleb128 0x3f
 8235 1c9c 656E6400 		.ascii	"end\000"
 8236 1ca0 2E       		.byte	0x2e
 8237 1ca1 F201     		.2byte	0x1f2
 8238 1ca3 97620000 		.4byte	.LASF387
 8239 1ca7 961C0000 		.4byte	0x1c96
 8240 1cab 01       		.byte	0x1
 8241 1cac B41C0000 		.4byte	0x1cb4
 8242 1cb0 BA1C0000 		.4byte	0x1cba
 8243 1cb4 28       		.uleb128 0x28
 8244 1cb5 BD500000 		.4byte	0x50bd
 8245 1cb9 00       		.byte	0
 8246 1cba 3E       		.uleb128 0x3e
 8247 1cbb EF120000 		.4byte	.LASF383
 8248 1cbf 2E       		.byte	0x2e
 8249 1cc0 F601     		.2byte	0x1f6
 8250 1cc2 392E0000 		.4byte	.LASF388
 8251 1cc6 01       		.byte	0x1
 8252 1cc7 CF1C0000 		.4byte	0x1ccf
 8253 1ccb DA1C0000 		.4byte	0x1cda
 8254 1ccf 28       		.uleb128 0x28
 8255 1cd0 BD500000 		.4byte	0x50bd
 8256 1cd4 13       		.uleb128 0x13
 8257 1cd5 E7500000 		.4byte	0x50e7
 8258 1cd9 00       		.byte	0
 8259 1cda 40       		.uleb128 0x40
 8260 1cdb 41110000 		.4byte	.LASF389
 8261 1cdf 2E       		.byte	0x2e
 8262 1ce0 FA01     		.2byte	0x1fa
 8263 1ce2 C3500000 		.4byte	0x50c3
 8264 1ce6 01       		.byte	0x1
 8265 1ce7 EF1C0000 		.4byte	0x1cef
 8266 1ceb F51C0000 		.4byte	0x1cf5
 8267 1cef 28       		.uleb128 0x28
 8268 1cf0 C3500000 		.4byte	0x50c3
 8269 1cf4 00       		.byte	0
 8270 1cf5 07       		.uleb128 0x7
 8271 1cf6 21170000 		.4byte	0x1721
 8272 1cfa 41       		.uleb128 0x41
 8273 1cfb 391C0000 		.4byte	.LASF390
 8274 1cff 091D0000 		.4byte	0x1d09
 8275 1d03 00       		.byte	0
ARM GAS  /tmp/ccypRU8x.s 			page 149


 8276 1d04 07       		.uleb128 0x7
 8277 1d05 091D0000 		.4byte	0x1d09
 8278 1d09 42       		.uleb128 0x42
 8279 1d0a DB600000 		.4byte	.LASF935
 8280 1d0e 951D0000 		.4byte	0x1d95
 8281 1d12 43       		.uleb128 0x43
 8282 1d13 DE1E0000 		.4byte	.LASF391
 8283 1d17 0D       		.byte	0xd
 8284 1d18 40       		.byte	0x40
 8285 1d19 B9220000 		.4byte	.LASF393
 8286 1d1d 25000000 		.4byte	0x25
 8287 1d21 01       		.byte	0x1
 8288 1d22 02       		.uleb128 0x2
 8289 1d23 10       		.byte	0x10
 8290 1d24 00       		.uleb128 0
 8291 1d25 091D0000 		.4byte	0x1d09
 8292 1d29 01       		.byte	0x1
 8293 1d2a 321D0000 		.4byte	0x1d32
 8294 1d2e 381D0000 		.4byte	0x1d38
 8295 1d32 28       		.uleb128 0x28
 8296 1d33 D7530000 		.4byte	0x53d7
 8297 1d37 00       		.byte	0
 8298 1d38 43       		.uleb128 0x43
 8299 1d39 6B360000 		.4byte	.LASF392
 8300 1d3d 0D       		.byte	0xd
 8301 1d3e 47       		.byte	0x47
 8302 1d3f D7050000 		.4byte	.LASF394
 8303 1d43 2D010000 		.4byte	0x12d
 8304 1d47 01       		.byte	0x1
 8305 1d48 02       		.uleb128 0x2
 8306 1d49 10       		.byte	0x10
 8307 1d4a 02       		.uleb128 0x2
 8308 1d4b 091D0000 		.4byte	0x1d09
 8309 1d4f 01       		.byte	0x1
 8310 1d50 581D0000 		.4byte	0x1d58
 8311 1d54 681D0000 		.4byte	0x1d68
 8312 1d58 28       		.uleb128 0x28
 8313 1d59 CF500000 		.4byte	0x50cf
 8314 1d5d 13       		.uleb128 0x13
 8315 1d5e 9D520000 		.4byte	0x529d
 8316 1d62 13       		.uleb128 0x13
 8317 1d63 6A500000 		.4byte	0x506a
 8318 1d67 00       		.byte	0
 8319 1d68 44       		.uleb128 0x44
 8320 1d69 A2250000 		.4byte	.LASF735
 8321 1d6d 0D       		.byte	0xd
 8322 1d6e 52       		.byte	0x52
 8323 1d6f 9F2A0000 		.4byte	.LASF936
 8324 1d73 2D010000 		.4byte	0x12d
 8325 1d77 01       		.byte	0x1
 8326 1d78 02       		.uleb128 0x2
 8327 1d79 10       		.byte	0x10
 8328 1d7a 01       		.uleb128 0x1
 8329 1d7b 091D0000 		.4byte	0x1d09
 8330 1d7f 01       		.byte	0x1
 8331 1d80 841D0000 		.4byte	0x1d84
 8332 1d84 28       		.uleb128 0x28
ARM GAS  /tmp/ccypRU8x.s 			page 150


 8333 1d85 CF500000 		.4byte	0x50cf
 8334 1d89 13       		.uleb128 0x13
 8335 1d8a EB510000 		.4byte	0x51eb
 8336 1d8e 13       		.uleb128 0x13
 8337 1d8f 76500000 		.4byte	0x5076
 8338 1d93 00       		.byte	0
 8339 1d94 00       		.byte	0
 8340 1d95 07       		.uleb128 0x7
 8341 1d96 C2160000 		.4byte	0x16c2
 8342 1d9a 26       		.uleb128 0x26
 8343 1d9b 34500000 		.4byte	.LASF395
 8344 1d9f 04       		.byte	0x4
 8345 1da0 2E       		.byte	0x2e
 8346 1da1 0F       		.byte	0xf
 8347 1da2 67220000 		.4byte	0x2267
 8348 1da6 2B       		.uleb128 0x2b
 8349 1da7 65110000 		.4byte	0x1165
 8350 1dab 00       		.byte	0
 8351 1dac 36       		.uleb128 0x36
 8352 1dad A5580000 		.4byte	.LASF313
 8353 1db1 08       		.byte	0x8
 8354 1db2 2E       		.byte	0x2e
 8355 1db3 11       		.byte	0x11
 8356 1db4 01       		.byte	0x1
 8357 1db5 EC1D0000 		.4byte	0x1dec
 8358 1db9 0C       		.uleb128 0xc
 8359 1dba C42E0000 		.4byte	.LASF311
 8360 1dbe 2E       		.byte	0x2e
 8361 1dbf 12       		.byte	0x12
 8362 1dc0 ED500000 		.4byte	0x50ed
 8363 1dc4 00       		.byte	0
 8364 1dc5 0C       		.uleb128 0xc
 8365 1dc6 8E1A0000 		.4byte	.LASF312
 8366 1dca 2E       		.byte	0x2e
 8367 1dcb 13       		.byte	0x13
 8368 1dcc 84530000 		.4byte	0x5384
 8369 1dd0 04       		.byte	0x4
 8370 1dd1 37       		.uleb128 0x37
 8371 1dd2 A5580000 		.4byte	.LASF313
 8372 1dd6 2E       		.byte	0x2e
 8373 1dd7 15       		.byte	0x15
 8374 1dd8 ED500000 		.4byte	0x50ed
 8375 1ddc E01D0000 		.4byte	0x1de0
 8376 1de0 28       		.uleb128 0x28
 8377 1de1 ED500000 		.4byte	0x50ed
 8378 1de5 13       		.uleb128 0x13
 8379 1de6 09520000 		.4byte	0x5209
 8380 1dea 00       		.byte	0
 8381 1deb 00       		.byte	0
 8382 1dec 19       		.uleb128 0x19
 8383 1ded 27140000 		.4byte	.LASF314
 8384 1df1 2E       		.byte	0x2e
 8385 1df2 8A01     		.2byte	0x18a
 8386 1df4 ED500000 		.4byte	0x50ed
 8387 1df8 00       		.byte	0
 8388 1df9 39       		.uleb128 0x39
 8389 1dfa 11200000 		.4byte	.LASF315
ARM GAS  /tmp/ccypRU8x.s 			page 151


 8390 1dfe 39       		.uleb128 0x39
 8391 1dff 0E300000 		.4byte	.LASF316
 8392 1e03 39       		.uleb128 0x39
 8393 1e04 7F510000 		.4byte	.LASF317
 8394 1e08 39       		.uleb128 0x39
 8395 1e09 FF3D0000 		.4byte	.LASF319
 8396 1e0d 1D       		.uleb128 0x1d
 8397 1e0e 941A0000 		.4byte	.LASF334
 8398 1e12 2E       		.byte	0x2e
 8399 1e13 8601     		.2byte	0x186
 8400 1e15 F3500000 		.4byte	0x50f3
 8401 1e19 1D       		.uleb128 0x1d
 8402 1e1a 55130000 		.4byte	.LASF335
 8403 1e1e 2E       		.byte	0x2e
 8404 1e1f 8701     		.2byte	0x187
 8405 1e21 0E510000 		.4byte	0x510e
 8406 1e25 3D       		.uleb128 0x3d
 8407 1e26 5B630000 		.4byte	.LASF336
 8408 1e2a 2E       		.byte	0x2e
 8409 1e2b 8D01     		.2byte	0x18d
 8410 1e2d C61F0000 		.4byte	.LASF396
 8411 1e31 28510000 		.4byte	0x5128
 8412 1e35 01       		.byte	0x1
 8413 1e36 3E1E0000 		.4byte	0x1e3e
 8414 1e3a 441E0000 		.4byte	0x1e44
 8415 1e3e 28       		.uleb128 0x28
 8416 1e3f 2E510000 		.4byte	0x512e
 8417 1e43 00       		.byte	0
 8418 1e44 07       		.uleb128 0x7
 8419 1e45 AC1D0000 		.4byte	0x1dac
 8420 1e49 3D       		.uleb128 0x3d
 8421 1e4a 615E0000 		.4byte	.LASF337
 8422 1e4e 2E       		.byte	0x2e
 8423 1e4f 9101     		.2byte	0x191
 8424 1e51 F73B0000 		.4byte	.LASF397
 8425 1e55 2D010000 		.4byte	0x12d
 8426 1e59 01       		.byte	0x1
 8427 1e5a 621E0000 		.4byte	0x1e62
 8428 1e5e 681E0000 		.4byte	0x1e68
 8429 1e62 28       		.uleb128 0x28
 8430 1e63 2E510000 		.4byte	0x512e
 8431 1e67 00       		.byte	0
 8432 1e68 3D       		.uleb128 0x3d
 8433 1e69 4E1F0000 		.4byte	.LASF340
 8434 1e6d 2E       		.byte	0x2e
 8435 1e6e 0302     		.2byte	0x203
 8436 1e70 9B470000 		.4byte	.LASF398
 8437 1e74 25000000 		.4byte	0x25
 8438 1e78 01       		.byte	0x1
 8439 1e79 811E0000 		.4byte	0x1e81
 8440 1e7d 871E0000 		.4byte	0x1e87
 8441 1e81 28       		.uleb128 0x28
 8442 1e82 2E510000 		.4byte	0x512e
 8443 1e86 00       		.byte	0
 8444 1e87 3E       		.uleb128 0x3e
 8445 1e88 11480000 		.4byte	.LASF342
 8446 1e8c 2E       		.byte	0x2e
ARM GAS  /tmp/ccypRU8x.s 			page 152


 8447 1e8d 9701     		.2byte	0x197
 8448 1e8f C8590000 		.4byte	.LASF399
 8449 1e93 01       		.byte	0x1
 8450 1e94 9C1E0000 		.4byte	0x1e9c
 8451 1e98 A71E0000 		.4byte	0x1ea7
 8452 1e9c 28       		.uleb128 0x28
 8453 1e9d 34510000 		.4byte	0x5134
 8454 1ea1 13       		.uleb128 0x13
 8455 1ea2 3A510000 		.4byte	0x513a
 8456 1ea6 00       		.byte	0
 8457 1ea7 3E       		.uleb128 0x3e
 8458 1ea8 9E500000 		.4byte	.LASF343
 8459 1eac 2E       		.byte	0x2e
 8460 1ead 9F01     		.2byte	0x19f
 8461 1eaf 87090000 		.4byte	.LASF400
 8462 1eb3 01       		.byte	0x1
 8463 1eb4 BC1E0000 		.4byte	0x1ebc
 8464 1eb8 C71E0000 		.4byte	0x1ec7
 8465 1ebc 28       		.uleb128 0x28
 8466 1ebd 34510000 		.4byte	0x5134
 8467 1ec1 13       		.uleb128 0x13
 8468 1ec2 3A510000 		.4byte	0x513a
 8469 1ec6 00       		.byte	0
 8470 1ec7 3D       		.uleb128 0x3d
 8471 1ec8 CB290000 		.4byte	.LASF346
 8472 1ecc 2E       		.byte	0x2e
 8473 1ecd 0E02     		.2byte	0x20e
 8474 1ecf 9E2C0000 		.4byte	.LASF401
 8475 1ed3 2D010000 		.4byte	0x12d
 8476 1ed7 01       		.byte	0x1
 8477 1ed8 E01E0000 		.4byte	0x1ee0
 8478 1edc EB1E0000 		.4byte	0x1eeb
 8479 1ee0 28       		.uleb128 0x28
 8480 1ee1 34510000 		.4byte	0x5134
 8481 1ee5 13       		.uleb128 0x13
 8482 1ee6 3A510000 		.4byte	0x513a
 8483 1eea 00       		.byte	0
 8484 1eeb 3D       		.uleb128 0x3d
 8485 1eec 2C370000 		.4byte	.LASF348
 8486 1ef0 2E       		.byte	0x2e
 8487 1ef1 1F02     		.2byte	0x21f
 8488 1ef3 F1350000 		.4byte	.LASF402
 8489 1ef7 37000000 		.4byte	0x37
 8490 1efb 01       		.byte	0x1
 8491 1efc 041F0000 		.4byte	0x1f04
 8492 1f00 0F1F0000 		.4byte	0x1f0f
 8493 1f04 28       		.uleb128 0x28
 8494 1f05 2E510000 		.4byte	0x512e
 8495 1f09 13       		.uleb128 0x13
 8496 1f0a 08510000 		.4byte	0x5108
 8497 1f0e 00       		.byte	0
 8498 1f0f 3D       		.uleb128 0x3d
 8499 1f10 E34D0000 		.4byte	.LASF350
 8500 1f14 2E       		.byte	0x2e
 8501 1f15 2C02     		.2byte	0x22c
 8502 1f17 D7390000 		.4byte	.LASF403
 8503 1f1b 2D010000 		.4byte	0x12d
ARM GAS  /tmp/ccypRU8x.s 			page 153


 8504 1f1f 01       		.byte	0x1
 8505 1f20 281F0000 		.4byte	0x1f28
 8506 1f24 331F0000 		.4byte	0x1f33
 8507 1f28 28       		.uleb128 0x28
 8508 1f29 2E510000 		.4byte	0x512e
 8509 1f2d 13       		.uleb128 0x13
 8510 1f2e 08510000 		.4byte	0x5108
 8511 1f32 00       		.byte	0
 8512 1f33 3D       		.uleb128 0x3d
 8513 1f34 5A340000 		.4byte	.LASF352
 8514 1f38 2E       		.byte	0x2e
 8515 1f39 3802     		.2byte	0x238
 8516 1f3b CE060000 		.4byte	.LASF404
 8517 1f3f 40510000 		.4byte	0x5140
 8518 1f43 01       		.byte	0x1
 8519 1f44 4C1F0000 		.4byte	0x1f4c
 8520 1f48 571F0000 		.4byte	0x1f57
 8521 1f4c 28       		.uleb128 0x28
 8522 1f4d 2E510000 		.4byte	0x512e
 8523 1f51 13       		.uleb128 0x13
 8524 1f52 0D1E0000 		.4byte	0x1e0d
 8525 1f56 00       		.byte	0
 8526 1f57 3D       		.uleb128 0x3d
 8527 1f58 5A340000 		.4byte	.LASF352
 8528 1f5c 2E       		.byte	0x2e
 8529 1f5d 4402     		.2byte	0x244
 8530 1f5f 2C480000 		.4byte	.LASF405
 8531 1f63 40510000 		.4byte	0x5140
 8532 1f67 01       		.byte	0x1
 8533 1f68 701F0000 		.4byte	0x1f70
 8534 1f6c 801F0000 		.4byte	0x1f80
 8535 1f70 28       		.uleb128 0x28
 8536 1f71 2E510000 		.4byte	0x512e
 8537 1f75 13       		.uleb128 0x13
 8538 1f76 191E0000 		.4byte	0x1e19
 8539 1f7a 13       		.uleb128 0x13
 8540 1f7b D9000000 		.4byte	0xd9
 8541 1f7f 00       		.byte	0
 8542 1f80 3D       		.uleb128 0x3d
 8543 1f81 EA100000 		.4byte	.LASF355
 8544 1f85 2E       		.byte	0x2e
 8545 1f86 B301     		.2byte	0x1b3
 8546 1f88 89530000 		.4byte	.LASF406
 8547 1f8c 9F1F0000 		.4byte	0x1f9f
 8548 1f90 01       		.byte	0x1
 8549 1f91 991F0000 		.4byte	0x1f99
 8550 1f95 9F1F0000 		.4byte	0x1f9f
 8551 1f99 28       		.uleb128 0x28
 8552 1f9a 34510000 		.4byte	0x5134
 8553 1f9e 00       		.byte	0
 8554 1f9f 07       		.uleb128 0x7
 8555 1fa0 F91D0000 		.4byte	0x1df9
 8556 1fa4 3D       		.uleb128 0x3d
 8557 1fa5 87310000 		.4byte	.LASF357
 8558 1fa9 2E       		.byte	0x2e
 8559 1faa B701     		.2byte	0x1b7
 8560 1fac 8A080000 		.4byte	.LASF407
ARM GAS  /tmp/ccypRU8x.s 			page 154


 8561 1fb0 9F1F0000 		.4byte	0x1f9f
 8562 1fb4 01       		.byte	0x1
 8563 1fb5 BD1F0000 		.4byte	0x1fbd
 8564 1fb9 C31F0000 		.4byte	0x1fc3
 8565 1fbd 28       		.uleb128 0x28
 8566 1fbe 34510000 		.4byte	0x5134
 8567 1fc2 00       		.byte	0
 8568 1fc3 3E       		.uleb128 0x3e
 8569 1fc4 C1630000 		.4byte	.LASF359
 8570 1fc8 2E       		.byte	0x2e
 8571 1fc9 BB01     		.2byte	0x1bb
 8572 1fcb C3320000 		.4byte	.LASF408
 8573 1fcf 01       		.byte	0x1
 8574 1fd0 D81F0000 		.4byte	0x1fd8
 8575 1fd4 E31F0000 		.4byte	0x1fe3
 8576 1fd8 28       		.uleb128 0x28
 8577 1fd9 34510000 		.4byte	0x5134
 8578 1fdd 13       		.uleb128 0x13
 8579 1fde 46510000 		.4byte	0x5146
 8580 1fe2 00       		.byte	0
 8581 1fe3 3D       		.uleb128 0x3d
 8582 1fe4 EA100000 		.4byte	.LASF355
 8583 1fe8 2E       		.byte	0x2e
 8584 1fe9 BF01     		.2byte	0x1bf
 8585 1feb 4A090000 		.4byte	.LASF409
 8586 1fef 02200000 		.4byte	0x2002
 8587 1ff3 01       		.byte	0x1
 8588 1ff4 FC1F0000 		.4byte	0x1ffc
 8589 1ff8 02200000 		.4byte	0x2002
 8590 1ffc 28       		.uleb128 0x28
 8591 1ffd 2E510000 		.4byte	0x512e
 8592 2001 00       		.byte	0
 8593 2002 07       		.uleb128 0x7
 8594 2003 FE1D0000 		.4byte	0x1dfe
 8595 2007 3D       		.uleb128 0x3d
 8596 2008 87310000 		.4byte	.LASF357
 8597 200c 2E       		.byte	0x2e
 8598 200d C301     		.2byte	0x1c3
 8599 200f 131F0000 		.4byte	.LASF410
 8600 2013 02200000 		.4byte	0x2002
 8601 2017 01       		.byte	0x1
 8602 2018 20200000 		.4byte	0x2020
 8603 201c 26200000 		.4byte	0x2026
 8604 2020 28       		.uleb128 0x28
 8605 2021 2E510000 		.4byte	0x512e
 8606 2025 00       		.byte	0
 8607 2026 3E       		.uleb128 0x3e
 8608 2027 C1630000 		.4byte	.LASF359
 8609 202b 2E       		.byte	0x2e
 8610 202c C701     		.2byte	0x1c7
 8611 202e 32490000 		.4byte	.LASF411
 8612 2032 01       		.byte	0x1
 8613 2033 3B200000 		.4byte	0x203b
 8614 2037 46200000 		.4byte	0x2046
 8615 203b 28       		.uleb128 0x28
 8616 203c 2E510000 		.4byte	0x512e
 8617 2040 13       		.uleb128 0x13
ARM GAS  /tmp/ccypRU8x.s 			page 155


 8618 2041 4C510000 		.4byte	0x514c
 8619 2045 00       		.byte	0
 8620 2046 3D       		.uleb128 0x3d
 8621 2047 13590000 		.4byte	.LASF364
 8622 204b 2E       		.byte	0x2e
 8623 204c 5302     		.2byte	0x253
 8624 204e AD240000 		.4byte	.LASF412
 8625 2052 28510000 		.4byte	0x5128
 8626 2056 01       		.byte	0x1
 8627 2057 5F200000 		.4byte	0x205f
 8628 205b 65200000 		.4byte	0x2065
 8629 205f 28       		.uleb128 0x28
 8630 2060 2E510000 		.4byte	0x512e
 8631 2064 00       		.byte	0
 8632 2065 3D       		.uleb128 0x3d
 8633 2066 1B5C0000 		.4byte	.LASF366
 8634 206a 2E       		.byte	0x2e
 8635 206b 5D02     		.2byte	0x25d
 8636 206d 40460000 		.4byte	.LASF413
 8637 2071 2D010000 		.4byte	0x12d
 8638 2075 01       		.byte	0x1
 8639 2076 7E200000 		.4byte	0x207e
 8640 207a 84200000 		.4byte	0x2084
 8641 207e 28       		.uleb128 0x28
 8642 207f 2E510000 		.4byte	0x512e
 8643 2083 00       		.byte	0
 8644 2084 3D       		.uleb128 0x3d
 8645 2085 CB340000 		.4byte	.LASF368
 8646 2089 2E       		.byte	0x2e
 8647 208a 6702     		.2byte	0x267
 8648 208c E1520000 		.4byte	.LASF414
 8649 2090 25000000 		.4byte	0x25
 8650 2094 01       		.byte	0x1
 8651 2095 9D200000 		.4byte	0x209d
 8652 2099 A3200000 		.4byte	0x20a3
 8653 209d 28       		.uleb128 0x28
 8654 209e 2E510000 		.4byte	0x512e
 8655 20a2 00       		.byte	0
 8656 20a3 3E       		.uleb128 0x3e
 8657 20a4 5B1F0000 		.4byte	.LASF370
 8658 20a8 2E       		.byte	0x2e
 8659 20a9 7602     		.2byte	0x276
 8660 20ab 54570000 		.4byte	.LASF415
 8661 20af 01       		.byte	0x1
 8662 20b0 B8200000 		.4byte	0x20b8
 8663 20b4 C3200000 		.4byte	0x20c3
 8664 20b8 28       		.uleb128 0x28
 8665 20b9 34510000 		.4byte	0x5134
 8666 20bd 13       		.uleb128 0x13
 8667 20be 3A510000 		.4byte	0x513a
 8668 20c2 00       		.byte	0
 8669 20c3 3D       		.uleb128 0x3d
 8670 20c4 8C140000 		.4byte	.LASF372
 8671 20c8 2E       		.byte	0x2e
 8672 20c9 8002     		.2byte	0x280
 8673 20cb 8C290000 		.4byte	.LASF416
 8674 20cf 2D010000 		.4byte	0x12d
ARM GAS  /tmp/ccypRU8x.s 			page 156


 8675 20d3 01       		.byte	0x1
 8676 20d4 DC200000 		.4byte	0x20dc
 8677 20d8 E7200000 		.4byte	0x20e7
 8678 20dc 28       		.uleb128 0x28
 8679 20dd 34510000 		.4byte	0x5134
 8680 20e1 13       		.uleb128 0x13
 8681 20e2 3A510000 		.4byte	0x513a
 8682 20e6 00       		.byte	0
 8683 20e7 3D       		.uleb128 0x3d
 8684 20e8 75390000 		.4byte	.LASF374
 8685 20ec 2E       		.byte	0x2e
 8686 20ed 8A02     		.2byte	0x28a
 8687 20ef 16530000 		.4byte	.LASF417
 8688 20f3 37000000 		.4byte	0x37
 8689 20f7 01       		.byte	0x1
 8690 20f8 00210000 		.4byte	0x2100
 8691 20fc 0B210000 		.4byte	0x210b
 8692 2100 28       		.uleb128 0x28
 8693 2101 2E510000 		.4byte	0x512e
 8694 2105 13       		.uleb128 0x13
 8695 2106 08510000 		.4byte	0x5108
 8696 210a 00       		.byte	0
 8697 210b 3D       		.uleb128 0x3d
 8698 210c 8B250000 		.4byte	.LASF376
 8699 2110 2E       		.byte	0x2e
 8700 2111 9B02     		.2byte	0x29b
 8701 2113 DF5B0000 		.4byte	.LASF418
 8702 2117 2D010000 		.4byte	0x12d
 8703 211b 01       		.byte	0x1
 8704 211c 24210000 		.4byte	0x2124
 8705 2120 2F210000 		.4byte	0x212f
 8706 2124 28       		.uleb128 0x28
 8707 2125 2E510000 		.4byte	0x512e
 8708 2129 13       		.uleb128 0x13
 8709 212a 08510000 		.4byte	0x5108
 8710 212e 00       		.byte	0
 8711 212f 3D       		.uleb128 0x3d
 8712 2130 C73C0000 		.4byte	.LASF378
 8713 2134 2E       		.byte	0x2e
 8714 2135 AC02     		.2byte	0x2ac
 8715 2137 62580000 		.4byte	.LASF419
 8716 213b 40510000 		.4byte	0x5140
 8717 213f 01       		.byte	0x1
 8718 2140 48210000 		.4byte	0x2148
 8719 2144 53210000 		.4byte	0x2153
 8720 2148 28       		.uleb128 0x28
 8721 2149 2E510000 		.4byte	0x512e
 8722 214d 13       		.uleb128 0x13
 8723 214e 0D1E0000 		.4byte	0x1e0d
 8724 2152 00       		.byte	0
 8725 2153 3D       		.uleb128 0x3d
 8726 2154 C73C0000 		.4byte	.LASF378
 8727 2158 2E       		.byte	0x2e
 8728 2159 BC02     		.2byte	0x2bc
 8729 215b FC4A0000 		.4byte	.LASF420
 8730 215f 40510000 		.4byte	0x5140
 8731 2163 01       		.byte	0x1
ARM GAS  /tmp/ccypRU8x.s 			page 157


 8732 2164 6C210000 		.4byte	0x216c
 8733 2168 7C210000 		.4byte	0x217c
 8734 216c 28       		.uleb128 0x28
 8735 216d 2E510000 		.4byte	0x512e
 8736 2171 13       		.uleb128 0x13
 8737 2172 191E0000 		.4byte	0x1e19
 8738 2176 13       		.uleb128 0x13
 8739 2177 D9000000 		.4byte	0xd9
 8740 217b 00       		.byte	0
 8741 217c 3D       		.uleb128 0x3d
 8742 217d DB620000 		.4byte	.LASF381
 8743 2181 2E       		.byte	0x2e
 8744 2182 E001     		.2byte	0x1e0
 8745 2184 E8150000 		.4byte	.LASF421
 8746 2188 9B210000 		.4byte	0x219b
 8747 218c 01       		.byte	0x1
 8748 218d 95210000 		.4byte	0x2195
 8749 2191 9B210000 		.4byte	0x219b
 8750 2195 28       		.uleb128 0x28
 8751 2196 34510000 		.4byte	0x5134
 8752 219a 00       		.byte	0
 8753 219b 07       		.uleb128 0x7
 8754 219c 031E0000 		.4byte	0x1e03
 8755 21a0 3F       		.uleb128 0x3f
 8756 21a1 656E6400 		.ascii	"end\000"
 8757 21a5 2E       		.byte	0x2e
 8758 21a6 E401     		.2byte	0x1e4
 8759 21a8 43160000 		.4byte	.LASF422
 8760 21ac 9B210000 		.4byte	0x219b
 8761 21b0 01       		.byte	0x1
 8762 21b1 B9210000 		.4byte	0x21b9
 8763 21b5 BF210000 		.4byte	0x21bf
 8764 21b9 28       		.uleb128 0x28
 8765 21ba 34510000 		.4byte	0x5134
 8766 21be 00       		.byte	0
 8767 21bf 3E       		.uleb128 0x3e
 8768 21c0 EF120000 		.4byte	.LASF383
 8769 21c4 2E       		.byte	0x2e
 8770 21c5 E801     		.2byte	0x1e8
 8771 21c7 15190000 		.4byte	.LASF423
 8772 21cb 01       		.byte	0x1
 8773 21cc D4210000 		.4byte	0x21d4
 8774 21d0 DF210000 		.4byte	0x21df
 8775 21d4 28       		.uleb128 0x28
 8776 21d5 34510000 		.4byte	0x5134
 8777 21d9 13       		.uleb128 0x13
 8778 21da 52510000 		.4byte	0x5152
 8779 21de 00       		.byte	0
 8780 21df 3D       		.uleb128 0x3d
 8781 21e0 DB620000 		.4byte	.LASF381
 8782 21e4 2E       		.byte	0x2e
 8783 21e5 EC01     		.2byte	0x1ec
 8784 21e7 8C3F0000 		.4byte	.LASF424
 8785 21eb FE210000 		.4byte	0x21fe
 8786 21ef 01       		.byte	0x1
 8787 21f0 F8210000 		.4byte	0x21f8
 8788 21f4 FE210000 		.4byte	0x21fe
ARM GAS  /tmp/ccypRU8x.s 			page 158


 8789 21f8 28       		.uleb128 0x28
 8790 21f9 2E510000 		.4byte	0x512e
 8791 21fd 00       		.byte	0
 8792 21fe 07       		.uleb128 0x7
 8793 21ff 081E0000 		.4byte	0x1e08
 8794 2203 3F       		.uleb128 0x3f
 8795 2204 656E6400 		.ascii	"end\000"
 8796 2208 2E       		.byte	0x2e
 8797 2209 F201     		.2byte	0x1f2
 8798 220b 45380000 		.4byte	.LASF425
 8799 220f FE210000 		.4byte	0x21fe
 8800 2213 01       		.byte	0x1
 8801 2214 1C220000 		.4byte	0x221c
 8802 2218 22220000 		.4byte	0x2222
 8803 221c 28       		.uleb128 0x28
 8804 221d 2E510000 		.4byte	0x512e
 8805 2221 00       		.byte	0
 8806 2222 3E       		.uleb128 0x3e
 8807 2223 EF120000 		.4byte	.LASF383
 8808 2227 2E       		.byte	0x2e
 8809 2228 F601     		.2byte	0x1f6
 8810 222a C1300000 		.4byte	.LASF426
 8811 222e 01       		.byte	0x1
 8812 222f 37220000 		.4byte	0x2237
 8813 2233 42220000 		.4byte	0x2242
 8814 2237 28       		.uleb128 0x28
 8815 2238 2E510000 		.4byte	0x512e
 8816 223c 13       		.uleb128 0x13
 8817 223d 58510000 		.4byte	0x5158
 8818 2241 00       		.byte	0
 8819 2242 40       		.uleb128 0x40
 8820 2243 41110000 		.4byte	.LASF389
 8821 2247 2E       		.byte	0x2e
 8822 2248 FA01     		.2byte	0x1fa
 8823 224a 34510000 		.4byte	0x5134
 8824 224e 01       		.byte	0x1
 8825 224f 57220000 		.4byte	0x2257
 8826 2253 5D220000 		.4byte	0x225d
 8827 2257 28       		.uleb128 0x28
 8828 2258 34510000 		.4byte	0x5134
 8829 225c 00       		.byte	0
 8830 225d 41       		.uleb128 0x41
 8831 225e 391C0000 		.4byte	.LASF390
 8832 2262 6C220000 		.4byte	0x226c
 8833 2266 00       		.byte	0
 8834 2267 07       		.uleb128 0x7
 8835 2268 6C220000 		.4byte	0x226c
 8836 226c 39       		.uleb128 0x39
 8837 226d 56500000 		.4byte	.LASF427
 8838 2271 07       		.uleb128 0x7
 8839 2272 9A1D0000 		.4byte	0x1d9a
 8840 2276 26       		.uleb128 0x26
 8841 2277 40520000 		.4byte	.LASF428
 8842 227b 04       		.byte	0x4
 8843 227c 2E       		.byte	0x2e
 8844 227d 0F       		.byte	0xf
 8845 227e 43270000 		.4byte	0x2743
ARM GAS  /tmp/ccypRU8x.s 			page 159


 8846 2282 2B       		.uleb128 0x2b
 8847 2283 65110000 		.4byte	0x1165
 8848 2287 00       		.byte	0
 8849 2288 36       		.uleb128 0x36
 8850 2289 A5580000 		.4byte	.LASF313
 8851 228d 08       		.byte	0x8
 8852 228e 2E       		.byte	0x2e
 8853 228f 11       		.byte	0x11
 8854 2290 01       		.byte	0x1
 8855 2291 C8220000 		.4byte	0x22c8
 8856 2295 0C       		.uleb128 0xc
 8857 2296 C42E0000 		.4byte	.LASF311
 8858 229a 2E       		.byte	0x2e
 8859 229b 12       		.byte	0x12
 8860 229c 5E510000 		.4byte	0x515e
 8861 22a0 00       		.byte	0
 8862 22a1 0C       		.uleb128 0xc
 8863 22a2 8E1A0000 		.4byte	.LASF312
 8864 22a6 2E       		.byte	0x2e
 8865 22a7 13       		.byte	0x13
 8866 22a8 CF510000 		.4byte	0x51cf
 8867 22ac 04       		.byte	0x4
 8868 22ad 37       		.uleb128 0x37
 8869 22ae A5580000 		.4byte	.LASF313
 8870 22b2 2E       		.byte	0x2e
 8871 22b3 15       		.byte	0x15
 8872 22b4 5E510000 		.4byte	0x515e
 8873 22b8 BC220000 		.4byte	0x22bc
 8874 22bc 28       		.uleb128 0x28
 8875 22bd 5E510000 		.4byte	0x515e
 8876 22c1 13       		.uleb128 0x13
 8877 22c2 D4510000 		.4byte	0x51d4
 8878 22c6 00       		.byte	0
 8879 22c7 00       		.byte	0
 8880 22c8 19       		.uleb128 0x19
 8881 22c9 27140000 		.4byte	.LASF314
 8882 22cd 2E       		.byte	0x2e
 8883 22ce 8A01     		.2byte	0x18a
 8884 22d0 5E510000 		.4byte	0x515e
 8885 22d4 00       		.byte	0
 8886 22d5 39       		.uleb128 0x39
 8887 22d6 11200000 		.4byte	.LASF315
 8888 22da 39       		.uleb128 0x39
 8889 22db 0E300000 		.4byte	.LASF316
 8890 22df 39       		.uleb128 0x39
 8891 22e0 7F510000 		.4byte	.LASF317
 8892 22e4 39       		.uleb128 0x39
 8893 22e5 FF3D0000 		.4byte	.LASF319
 8894 22e9 1D       		.uleb128 0x1d
 8895 22ea 941A0000 		.4byte	.LASF334
 8896 22ee 2E       		.byte	0x2e
 8897 22ef 8601     		.2byte	0x186
 8898 22f1 64510000 		.4byte	0x5164
 8899 22f5 1D       		.uleb128 0x1d
 8900 22f6 55130000 		.4byte	.LASF335
 8901 22fa 2E       		.byte	0x2e
 8902 22fb 8701     		.2byte	0x187
ARM GAS  /tmp/ccypRU8x.s 			page 160


 8903 22fd 7F510000 		.4byte	0x517f
 8904 2301 3D       		.uleb128 0x3d
 8905 2302 5B630000 		.4byte	.LASF336
 8906 2306 2E       		.byte	0x2e
 8907 2307 8D01     		.2byte	0x18d
 8908 2309 DF330000 		.4byte	.LASF429
 8909 230d 99510000 		.4byte	0x5199
 8910 2311 01       		.byte	0x1
 8911 2312 1A230000 		.4byte	0x231a
 8912 2316 20230000 		.4byte	0x2320
 8913 231a 28       		.uleb128 0x28
 8914 231b 9F510000 		.4byte	0x519f
 8915 231f 00       		.byte	0
 8916 2320 07       		.uleb128 0x7
 8917 2321 88220000 		.4byte	0x2288
 8918 2325 3D       		.uleb128 0x3d
 8919 2326 615E0000 		.4byte	.LASF337
 8920 232a 2E       		.byte	0x2e
 8921 232b 9101     		.2byte	0x191
 8922 232d 432F0000 		.4byte	.LASF430
 8923 2331 2D010000 		.4byte	0x12d
 8924 2335 01       		.byte	0x1
 8925 2336 3E230000 		.4byte	0x233e
 8926 233a 44230000 		.4byte	0x2344
 8927 233e 28       		.uleb128 0x28
 8928 233f 9F510000 		.4byte	0x519f
 8929 2343 00       		.byte	0
 8930 2344 3D       		.uleb128 0x3d
 8931 2345 4E1F0000 		.4byte	.LASF340
 8932 2349 2E       		.byte	0x2e
 8933 234a 0302     		.2byte	0x203
 8934 234c 5A120000 		.4byte	.LASF431
 8935 2350 25000000 		.4byte	0x25
 8936 2354 01       		.byte	0x1
 8937 2355 5D230000 		.4byte	0x235d
 8938 2359 63230000 		.4byte	0x2363
 8939 235d 28       		.uleb128 0x28
 8940 235e 9F510000 		.4byte	0x519f
 8941 2362 00       		.byte	0
 8942 2363 3E       		.uleb128 0x3e
 8943 2364 11480000 		.4byte	.LASF342
 8944 2368 2E       		.byte	0x2e
 8945 2369 9701     		.2byte	0x197
 8946 236b 564D0000 		.4byte	.LASF432
 8947 236f 01       		.byte	0x1
 8948 2370 78230000 		.4byte	0x2378
 8949 2374 83230000 		.4byte	0x2383
 8950 2378 28       		.uleb128 0x28
 8951 2379 A5510000 		.4byte	0x51a5
 8952 237d 13       		.uleb128 0x13
 8953 237e AB510000 		.4byte	0x51ab
 8954 2382 00       		.byte	0
 8955 2383 3E       		.uleb128 0x3e
 8956 2384 9E500000 		.4byte	.LASF343
 8957 2388 2E       		.byte	0x2e
 8958 2389 9F01     		.2byte	0x19f
 8959 238b 2B2C0000 		.4byte	.LASF433
ARM GAS  /tmp/ccypRU8x.s 			page 161


 8960 238f 01       		.byte	0x1
 8961 2390 98230000 		.4byte	0x2398
 8962 2394 A3230000 		.4byte	0x23a3
 8963 2398 28       		.uleb128 0x28
 8964 2399 A5510000 		.4byte	0x51a5
 8965 239d 13       		.uleb128 0x13
 8966 239e AB510000 		.4byte	0x51ab
 8967 23a2 00       		.byte	0
 8968 23a3 3D       		.uleb128 0x3d
 8969 23a4 CB290000 		.4byte	.LASF346
 8970 23a8 2E       		.byte	0x2e
 8971 23a9 0E02     		.2byte	0x20e
 8972 23ab 8C210000 		.4byte	.LASF434
 8973 23af 2D010000 		.4byte	0x12d
 8974 23b3 01       		.byte	0x1
 8975 23b4 BC230000 		.4byte	0x23bc
 8976 23b8 C7230000 		.4byte	0x23c7
 8977 23bc 28       		.uleb128 0x28
 8978 23bd A5510000 		.4byte	0x51a5
 8979 23c1 13       		.uleb128 0x13
 8980 23c2 AB510000 		.4byte	0x51ab
 8981 23c6 00       		.byte	0
 8982 23c7 3D       		.uleb128 0x3d
 8983 23c8 2C370000 		.4byte	.LASF348
 8984 23cc 2E       		.byte	0x2e
 8985 23cd 1F02     		.2byte	0x21f
 8986 23cf CA500000 		.4byte	.LASF435
 8987 23d3 37000000 		.4byte	0x37
 8988 23d7 01       		.byte	0x1
 8989 23d8 E0230000 		.4byte	0x23e0
 8990 23dc EB230000 		.4byte	0x23eb
 8991 23e0 28       		.uleb128 0x28
 8992 23e1 9F510000 		.4byte	0x519f
 8993 23e5 13       		.uleb128 0x13
 8994 23e6 79510000 		.4byte	0x5179
 8995 23ea 00       		.byte	0
 8996 23eb 3D       		.uleb128 0x3d
 8997 23ec E34D0000 		.4byte	.LASF350
 8998 23f0 2E       		.byte	0x2e
 8999 23f1 2C02     		.2byte	0x22c
 9000 23f3 DC530000 		.4byte	.LASF436
 9001 23f7 2D010000 		.4byte	0x12d
 9002 23fb 01       		.byte	0x1
 9003 23fc 04240000 		.4byte	0x2404
 9004 2400 0F240000 		.4byte	0x240f
 9005 2404 28       		.uleb128 0x28
 9006 2405 9F510000 		.4byte	0x519f
 9007 2409 13       		.uleb128 0x13
 9008 240a 79510000 		.4byte	0x5179
 9009 240e 00       		.byte	0
 9010 240f 3D       		.uleb128 0x3d
 9011 2410 5A340000 		.4byte	.LASF352
 9012 2414 2E       		.byte	0x2e
 9013 2415 3802     		.2byte	0x238
 9014 2417 C8360000 		.4byte	.LASF437
 9015 241b B1510000 		.4byte	0x51b1
 9016 241f 01       		.byte	0x1
ARM GAS  /tmp/ccypRU8x.s 			page 162


 9017 2420 28240000 		.4byte	0x2428
 9018 2424 33240000 		.4byte	0x2433
 9019 2428 28       		.uleb128 0x28
 9020 2429 9F510000 		.4byte	0x519f
 9021 242d 13       		.uleb128 0x13
 9022 242e E9220000 		.4byte	0x22e9
 9023 2432 00       		.byte	0
 9024 2433 3D       		.uleb128 0x3d
 9025 2434 5A340000 		.4byte	.LASF352
 9026 2438 2E       		.byte	0x2e
 9027 2439 4402     		.2byte	0x244
 9028 243b 532B0000 		.4byte	.LASF438
 9029 243f B1510000 		.4byte	0x51b1
 9030 2443 01       		.byte	0x1
 9031 2444 4C240000 		.4byte	0x244c
 9032 2448 5C240000 		.4byte	0x245c
 9033 244c 28       		.uleb128 0x28
 9034 244d 9F510000 		.4byte	0x519f
 9035 2451 13       		.uleb128 0x13
 9036 2452 F5220000 		.4byte	0x22f5
 9037 2456 13       		.uleb128 0x13
 9038 2457 D9000000 		.4byte	0xd9
 9039 245b 00       		.byte	0
 9040 245c 3D       		.uleb128 0x3d
 9041 245d EA100000 		.4byte	.LASF355
 9042 2461 2E       		.byte	0x2e
 9043 2462 B301     		.2byte	0x1b3
 9044 2464 AD040000 		.4byte	.LASF439
 9045 2468 7B240000 		.4byte	0x247b
 9046 246c 01       		.byte	0x1
 9047 246d 75240000 		.4byte	0x2475
 9048 2471 7B240000 		.4byte	0x247b
 9049 2475 28       		.uleb128 0x28
 9050 2476 A5510000 		.4byte	0x51a5
 9051 247a 00       		.byte	0
 9052 247b 07       		.uleb128 0x7
 9053 247c D5220000 		.4byte	0x22d5
 9054 2480 3D       		.uleb128 0x3d
 9055 2481 87310000 		.4byte	.LASF357
 9056 2485 2E       		.byte	0x2e
 9057 2486 B701     		.2byte	0x1b7
 9058 2488 C72B0000 		.4byte	.LASF440
 9059 248c 7B240000 		.4byte	0x247b
 9060 2490 01       		.byte	0x1
 9061 2491 99240000 		.4byte	0x2499
 9062 2495 9F240000 		.4byte	0x249f
 9063 2499 28       		.uleb128 0x28
 9064 249a A5510000 		.4byte	0x51a5
 9065 249e 00       		.byte	0
 9066 249f 3E       		.uleb128 0x3e
 9067 24a0 C1630000 		.4byte	.LASF359
 9068 24a4 2E       		.byte	0x2e
 9069 24a5 BB01     		.2byte	0x1bb
 9070 24a7 25150000 		.4byte	.LASF441
 9071 24ab 01       		.byte	0x1
 9072 24ac B4240000 		.4byte	0x24b4
 9073 24b0 BF240000 		.4byte	0x24bf
ARM GAS  /tmp/ccypRU8x.s 			page 163


 9074 24b4 28       		.uleb128 0x28
 9075 24b5 A5510000 		.4byte	0x51a5
 9076 24b9 13       		.uleb128 0x13
 9077 24ba B7510000 		.4byte	0x51b7
 9078 24be 00       		.byte	0
 9079 24bf 3D       		.uleb128 0x3d
 9080 24c0 EA100000 		.4byte	.LASF355
 9081 24c4 2E       		.byte	0x2e
 9082 24c5 BF01     		.2byte	0x1bf
 9083 24c7 051A0000 		.4byte	.LASF442
 9084 24cb DE240000 		.4byte	0x24de
 9085 24cf 01       		.byte	0x1
 9086 24d0 D8240000 		.4byte	0x24d8
 9087 24d4 DE240000 		.4byte	0x24de
 9088 24d8 28       		.uleb128 0x28
 9089 24d9 9F510000 		.4byte	0x519f
 9090 24dd 00       		.byte	0
 9091 24de 07       		.uleb128 0x7
 9092 24df DA220000 		.4byte	0x22da
 9093 24e3 3D       		.uleb128 0x3d
 9094 24e4 87310000 		.4byte	.LASF357
 9095 24e8 2E       		.byte	0x2e
 9096 24e9 C301     		.2byte	0x1c3
 9097 24eb 064E0000 		.4byte	.LASF443
 9098 24ef DE240000 		.4byte	0x24de
 9099 24f3 01       		.byte	0x1
 9100 24f4 FC240000 		.4byte	0x24fc
 9101 24f8 02250000 		.4byte	0x2502
 9102 24fc 28       		.uleb128 0x28
 9103 24fd 9F510000 		.4byte	0x519f
 9104 2501 00       		.byte	0
 9105 2502 3E       		.uleb128 0x3e
 9106 2503 C1630000 		.4byte	.LASF359
 9107 2507 2E       		.byte	0x2e
 9108 2508 C701     		.2byte	0x1c7
 9109 250a 7B590000 		.4byte	.LASF444
 9110 250e 01       		.byte	0x1
 9111 250f 17250000 		.4byte	0x2517
 9112 2513 22250000 		.4byte	0x2522
 9113 2517 28       		.uleb128 0x28
 9114 2518 9F510000 		.4byte	0x519f
 9115 251c 13       		.uleb128 0x13
 9116 251d BD510000 		.4byte	0x51bd
 9117 2521 00       		.byte	0
 9118 2522 3D       		.uleb128 0x3d
 9119 2523 13590000 		.4byte	.LASF364
 9120 2527 2E       		.byte	0x2e
 9121 2528 5302     		.2byte	0x253
 9122 252a 6B620000 		.4byte	.LASF445
 9123 252e 99510000 		.4byte	0x5199
 9124 2532 01       		.byte	0x1
 9125 2533 3B250000 		.4byte	0x253b
 9126 2537 41250000 		.4byte	0x2541
 9127 253b 28       		.uleb128 0x28
 9128 253c 9F510000 		.4byte	0x519f
 9129 2540 00       		.byte	0
 9130 2541 3D       		.uleb128 0x3d
ARM GAS  /tmp/ccypRU8x.s 			page 164


 9131 2542 1B5C0000 		.4byte	.LASF366
 9132 2546 2E       		.byte	0x2e
 9133 2547 5D02     		.2byte	0x25d
 9134 2549 08040000 		.4byte	.LASF446
 9135 254d 2D010000 		.4byte	0x12d
 9136 2551 01       		.byte	0x1
 9137 2552 5A250000 		.4byte	0x255a
 9138 2556 60250000 		.4byte	0x2560
 9139 255a 28       		.uleb128 0x28
 9140 255b 9F510000 		.4byte	0x519f
 9141 255f 00       		.byte	0
 9142 2560 3D       		.uleb128 0x3d
 9143 2561 CB340000 		.4byte	.LASF368
 9144 2565 2E       		.byte	0x2e
 9145 2566 6702     		.2byte	0x267
 9146 2568 7A000000 		.4byte	.LASF447
 9147 256c 25000000 		.4byte	0x25
 9148 2570 01       		.byte	0x1
 9149 2571 79250000 		.4byte	0x2579
 9150 2575 7F250000 		.4byte	0x257f
 9151 2579 28       		.uleb128 0x28
 9152 257a 9F510000 		.4byte	0x519f
 9153 257e 00       		.byte	0
 9154 257f 3E       		.uleb128 0x3e
 9155 2580 5B1F0000 		.4byte	.LASF370
 9156 2584 2E       		.byte	0x2e
 9157 2585 7602     		.2byte	0x276
 9158 2587 FB200000 		.4byte	.LASF448
 9159 258b 01       		.byte	0x1
 9160 258c 94250000 		.4byte	0x2594
 9161 2590 9F250000 		.4byte	0x259f
 9162 2594 28       		.uleb128 0x28
 9163 2595 A5510000 		.4byte	0x51a5
 9164 2599 13       		.uleb128 0x13
 9165 259a AB510000 		.4byte	0x51ab
 9166 259e 00       		.byte	0
 9167 259f 3D       		.uleb128 0x3d
 9168 25a0 8C140000 		.4byte	.LASF372
 9169 25a4 2E       		.byte	0x2e
 9170 25a5 8002     		.2byte	0x280
 9171 25a7 B21C0000 		.4byte	.LASF449
 9172 25ab 2D010000 		.4byte	0x12d
 9173 25af 01       		.byte	0x1
 9174 25b0 B8250000 		.4byte	0x25b8
 9175 25b4 C3250000 		.4byte	0x25c3
 9176 25b8 28       		.uleb128 0x28
 9177 25b9 A5510000 		.4byte	0x51a5
 9178 25bd 13       		.uleb128 0x13
 9179 25be AB510000 		.4byte	0x51ab
 9180 25c2 00       		.byte	0
 9181 25c3 3D       		.uleb128 0x3d
 9182 25c4 75390000 		.4byte	.LASF374
 9183 25c8 2E       		.byte	0x2e
 9184 25c9 8A02     		.2byte	0x28a
 9185 25cb 18070000 		.4byte	.LASF450
 9186 25cf 37000000 		.4byte	0x37
 9187 25d3 01       		.byte	0x1
ARM GAS  /tmp/ccypRU8x.s 			page 165


 9188 25d4 DC250000 		.4byte	0x25dc
 9189 25d8 E7250000 		.4byte	0x25e7
 9190 25dc 28       		.uleb128 0x28
 9191 25dd 9F510000 		.4byte	0x519f
 9192 25e1 13       		.uleb128 0x13
 9193 25e2 79510000 		.4byte	0x5179
 9194 25e6 00       		.byte	0
 9195 25e7 3D       		.uleb128 0x3d
 9196 25e8 8B250000 		.4byte	.LASF376
 9197 25ec 2E       		.byte	0x2e
 9198 25ed 9B02     		.2byte	0x29b
 9199 25ef 7E0F0000 		.4byte	.LASF451
 9200 25f3 2D010000 		.4byte	0x12d
 9201 25f7 01       		.byte	0x1
 9202 25f8 00260000 		.4byte	0x2600
 9203 25fc 0B260000 		.4byte	0x260b
 9204 2600 28       		.uleb128 0x28
 9205 2601 9F510000 		.4byte	0x519f
 9206 2605 13       		.uleb128 0x13
 9207 2606 79510000 		.4byte	0x5179
 9208 260a 00       		.byte	0
 9209 260b 3D       		.uleb128 0x3d
 9210 260c C73C0000 		.4byte	.LASF378
 9211 2610 2E       		.byte	0x2e
 9212 2611 AC02     		.2byte	0x2ac
 9213 2613 F42E0000 		.4byte	.LASF452
 9214 2617 B1510000 		.4byte	0x51b1
 9215 261b 01       		.byte	0x1
 9216 261c 24260000 		.4byte	0x2624
 9217 2620 2F260000 		.4byte	0x262f
 9218 2624 28       		.uleb128 0x28
 9219 2625 9F510000 		.4byte	0x519f
 9220 2629 13       		.uleb128 0x13
 9221 262a E9220000 		.4byte	0x22e9
 9222 262e 00       		.byte	0
 9223 262f 3D       		.uleb128 0x3d
 9224 2630 C73C0000 		.4byte	.LASF378
 9225 2634 2E       		.byte	0x2e
 9226 2635 BC02     		.2byte	0x2bc
 9227 2637 245C0000 		.4byte	.LASF453
 9228 263b B1510000 		.4byte	0x51b1
 9229 263f 01       		.byte	0x1
 9230 2640 48260000 		.4byte	0x2648
 9231 2644 58260000 		.4byte	0x2658
 9232 2648 28       		.uleb128 0x28
 9233 2649 9F510000 		.4byte	0x519f
 9234 264d 13       		.uleb128 0x13
 9235 264e F5220000 		.4byte	0x22f5
 9236 2652 13       		.uleb128 0x13
 9237 2653 D9000000 		.4byte	0xd9
 9238 2657 00       		.byte	0
 9239 2658 3D       		.uleb128 0x3d
 9240 2659 DB620000 		.4byte	.LASF381
 9241 265d 2E       		.byte	0x2e
 9242 265e E001     		.2byte	0x1e0
 9243 2660 C9350000 		.4byte	.LASF454
 9244 2664 77260000 		.4byte	0x2677
ARM GAS  /tmp/ccypRU8x.s 			page 166


 9245 2668 01       		.byte	0x1
 9246 2669 71260000 		.4byte	0x2671
 9247 266d 77260000 		.4byte	0x2677
 9248 2671 28       		.uleb128 0x28
 9249 2672 A5510000 		.4byte	0x51a5
 9250 2676 00       		.byte	0
 9251 2677 07       		.uleb128 0x7
 9252 2678 DF220000 		.4byte	0x22df
 9253 267c 3F       		.uleb128 0x3f
 9254 267d 656E6400 		.ascii	"end\000"
 9255 2681 2E       		.byte	0x2e
 9256 2682 E401     		.2byte	0x1e4
 9257 2684 67240000 		.4byte	.LASF455
 9258 2688 77260000 		.4byte	0x2677
 9259 268c 01       		.byte	0x1
 9260 268d 95260000 		.4byte	0x2695
 9261 2691 9B260000 		.4byte	0x269b
 9262 2695 28       		.uleb128 0x28
 9263 2696 A5510000 		.4byte	0x51a5
 9264 269a 00       		.byte	0
 9265 269b 3E       		.uleb128 0x3e
 9266 269c EF120000 		.4byte	.LASF383
 9267 26a0 2E       		.byte	0x2e
 9268 26a1 E801     		.2byte	0x1e8
 9269 26a3 0A0E0000 		.4byte	.LASF456
 9270 26a7 01       		.byte	0x1
 9271 26a8 B0260000 		.4byte	0x26b0
 9272 26ac BB260000 		.4byte	0x26bb
 9273 26b0 28       		.uleb128 0x28
 9274 26b1 A5510000 		.4byte	0x51a5
 9275 26b5 13       		.uleb128 0x13
 9276 26b6 C3510000 		.4byte	0x51c3
 9277 26ba 00       		.byte	0
 9278 26bb 3D       		.uleb128 0x3d
 9279 26bc DB620000 		.4byte	.LASF381
 9280 26c0 2E       		.byte	0x2e
 9281 26c1 EC01     		.2byte	0x1ec
 9282 26c3 7E3A0000 		.4byte	.LASF457
 9283 26c7 DA260000 		.4byte	0x26da
 9284 26cb 01       		.byte	0x1
 9285 26cc D4260000 		.4byte	0x26d4
 9286 26d0 DA260000 		.4byte	0x26da
 9287 26d4 28       		.uleb128 0x28
 9288 26d5 9F510000 		.4byte	0x519f
 9289 26d9 00       		.byte	0
 9290 26da 07       		.uleb128 0x7
 9291 26db E4220000 		.4byte	0x22e4
 9292 26df 3F       		.uleb128 0x3f
 9293 26e0 656E6400 		.ascii	"end\000"
 9294 26e4 2E       		.byte	0x2e
 9295 26e5 F201     		.2byte	0x1f2
 9296 26e7 EC580000 		.4byte	.LASF458
 9297 26eb DA260000 		.4byte	0x26da
 9298 26ef 01       		.byte	0x1
 9299 26f0 F8260000 		.4byte	0x26f8
 9300 26f4 FE260000 		.4byte	0x26fe
 9301 26f8 28       		.uleb128 0x28
ARM GAS  /tmp/ccypRU8x.s 			page 167


 9302 26f9 9F510000 		.4byte	0x519f
 9303 26fd 00       		.byte	0
 9304 26fe 3E       		.uleb128 0x3e
 9305 26ff EF120000 		.4byte	.LASF383
 9306 2703 2E       		.byte	0x2e
 9307 2704 F601     		.2byte	0x1f6
 9308 2706 01520000 		.4byte	.LASF459
 9309 270a 01       		.byte	0x1
 9310 270b 13270000 		.4byte	0x2713
 9311 270f 1E270000 		.4byte	0x271e
 9312 2713 28       		.uleb128 0x28
 9313 2714 9F510000 		.4byte	0x519f
 9314 2718 13       		.uleb128 0x13
 9315 2719 C9510000 		.4byte	0x51c9
 9316 271d 00       		.byte	0
 9317 271e 40       		.uleb128 0x40
 9318 271f 41110000 		.4byte	.LASF389
 9319 2723 2E       		.byte	0x2e
 9320 2724 FA01     		.2byte	0x1fa
 9321 2726 A5510000 		.4byte	0x51a5
 9322 272a 01       		.byte	0x1
 9323 272b 33270000 		.4byte	0x2733
 9324 272f 39270000 		.4byte	0x2739
 9325 2733 28       		.uleb128 0x28
 9326 2734 A5510000 		.4byte	0x51a5
 9327 2738 00       		.byte	0
 9328 2739 41       		.uleb128 0x41
 9329 273a 391C0000 		.4byte	.LASF390
 9330 273e 48270000 		.4byte	0x2748
 9331 2742 00       		.byte	0
 9332 2743 07       		.uleb128 0x7
 9333 2744 48270000 		.4byte	0x2748
 9334 2748 26       		.uleb128 0x26
 9335 2749 CD1A0000 		.4byte	.LASF460
 9336 274d 30       		.byte	0x30
 9337 274e 0E       		.byte	0xe
 9338 274f 17       		.byte	0x17
 9339 2750 B82C0000 		.4byte	0x2cb8
 9340 2754 2B       		.uleb128 0x2b
 9341 2755 65110000 		.4byte	0x1165
 9342 2759 00       		.byte	0
 9343 275a 0C       		.uleb128 0xc
 9344 275b 0D1F0000 		.4byte	.LASF461
 9345 275f 0E       		.byte	0xe
 9346 2760 1B       		.byte	0x1b
 9347 2761 DA510000 		.4byte	0x51da
 9348 2765 00       		.byte	0
 9349 2766 0C       		.uleb128 0xc
 9350 2767 76610000 		.4byte	.LASF462
 9351 276b 0E       		.byte	0xe
 9352 276c 1C       		.byte	0x1c
 9353 276d 10140000 		.4byte	0x1410
 9354 2771 04       		.byte	0x4
 9355 2772 0C       		.uleb128 0xc
 9356 2773 11250000 		.4byte	.LASF463
 9357 2777 0E       		.byte	0xe
 9358 2778 1D       		.byte	0x1d
ARM GAS  /tmp/ccypRU8x.s 			page 168


 9359 2779 52120000 		.4byte	0x1252
 9360 277d 08       		.byte	0x8
 9361 277e 0C       		.uleb128 0xc
 9362 277f 245B0000 		.4byte	.LASF464
 9363 2783 0E       		.byte	0xe
 9364 2784 1E       		.byte	0x1e
 9365 2785 25000000 		.4byte	0x25
 9366 2789 14       		.byte	0x14
 9367 278a 0C       		.uleb128 0xc
 9368 278b 11100000 		.4byte	.LASF465
 9369 278f 0E       		.byte	0xe
 9370 2790 1F       		.byte	0x1f
 9371 2791 25000000 		.4byte	0x25
 9372 2795 18       		.byte	0x18
 9373 2796 0C       		.uleb128 0xc
 9374 2797 E02A0000 		.4byte	.LASF466
 9375 279b 0E       		.byte	0xe
 9376 279c 20       		.byte	0x20
 9377 279d C2160000 		.4byte	0x16c2
 9378 27a1 1C       		.byte	0x1c
 9379 27a2 0C       		.uleb128 0xc
 9380 27a3 B1010000 		.4byte	.LASF467
 9381 27a7 0E       		.byte	0xe
 9382 27a8 21       		.byte	0x21
 9383 27a9 9A1D0000 		.4byte	0x1d9a
 9384 27ad 20       		.byte	0x20
 9385 27ae 0C       		.uleb128 0xc
 9386 27af A0420000 		.4byte	.LASF468
 9387 27b3 0E       		.byte	0xe
 9388 27b4 22       		.byte	0x22
 9389 27b5 25000000 		.4byte	0x25
 9390 27b9 24       		.byte	0x24
 9391 27ba 0C       		.uleb128 0xc
 9392 27bb E3540000 		.4byte	.LASF469
 9393 27bf 0E       		.byte	0xe
 9394 27c0 27       		.byte	0x27
 9395 27c1 88220000 		.4byte	0x2288
 9396 27c5 28       		.byte	0x28
 9397 27c6 2E       		.uleb128 0x2e
 9398 27c7 DB3A0000 		.4byte	.LASF470
 9399 27cb 0E       		.byte	0xe
 9400 27cc 2A       		.byte	0x2a
 9401 27cd 1B3A0000 		.4byte	.LASF471
 9402 27d1 CE000000 		.4byte	0xce
 9403 27d5 01       		.byte	0x1
 9404 27d6 DE270000 		.4byte	0x27de
 9405 27da E4270000 		.4byte	0x27e4
 9406 27de 28       		.uleb128 0x28
 9407 27df DF510000 		.4byte	0x51df
 9408 27e3 00       		.byte	0
 9409 27e4 2E       		.uleb128 0x2e
 9410 27e5 61590000 		.4byte	.LASF472
 9411 27e9 0E       		.byte	0xe
 9412 27ea 2B       		.byte	0x2b
 9413 27eb C0560000 		.4byte	.LASF473
 9414 27ef 76500000 		.4byte	0x5076
 9415 27f3 01       		.byte	0x1
ARM GAS  /tmp/ccypRU8x.s 			page 169


 9416 27f4 FC270000 		.4byte	0x27fc
 9417 27f8 02280000 		.4byte	0x2802
 9418 27fc 28       		.uleb128 0x28
 9419 27fd DF510000 		.4byte	0x51df
 9420 2801 00       		.byte	0
 9421 2802 2E       		.uleb128 0x2e
 9422 2803 D4190000 		.4byte	.LASF474
 9423 2807 0E       		.byte	0xe
 9424 2808 2C       		.byte	0x2c
 9425 2809 4C110000 		.4byte	.LASF475
 9426 280d 25000000 		.4byte	0x25
 9427 2811 01       		.byte	0x1
 9428 2812 1A280000 		.4byte	0x281a
 9429 2816 20280000 		.4byte	0x2820
 9430 281a 28       		.uleb128 0x28
 9431 281b DF510000 		.4byte	0x51df
 9432 281f 00       		.byte	0
 9433 2820 2E       		.uleb128 0x2e
 9434 2821 192A0000 		.4byte	.LASF476
 9435 2825 0E       		.byte	0xe
 9436 2826 2D       		.byte	0x2d
 9437 2827 9A490000 		.4byte	.LASF477
 9438 282b 25000000 		.4byte	0x25
 9439 282f 01       		.byte	0x1
 9440 2830 38280000 		.4byte	0x2838
 9441 2834 3E280000 		.4byte	0x283e
 9442 2838 28       		.uleb128 0x28
 9443 2839 DF510000 		.4byte	0x51df
 9444 283d 00       		.byte	0
 9445 283e 2E       		.uleb128 0x2e
 9446 283f B81A0000 		.4byte	.LASF478
 9447 2843 0E       		.byte	0xe
 9448 2844 2E       		.byte	0x2e
 9449 2845 9E550000 		.4byte	.LASF479
 9450 2849 25000000 		.4byte	0x25
 9451 284d 01       		.byte	0x1
 9452 284e 56280000 		.4byte	0x2856
 9453 2852 5C280000 		.4byte	0x285c
 9454 2856 28       		.uleb128 0x28
 9455 2857 DF510000 		.4byte	0x51df
 9456 285b 00       		.byte	0
 9457 285c 2E       		.uleb128 0x2e
 9458 285d B0230000 		.4byte	.LASF480
 9459 2861 0E       		.byte	0xe
 9460 2862 2F       		.byte	0x2f
 9461 2863 4D000000 		.4byte	.LASF481
 9462 2867 2D010000 		.4byte	0x12d
 9463 286b 01       		.byte	0x1
 9464 286c 74280000 		.4byte	0x2874
 9465 2870 7A280000 		.4byte	0x287a
 9466 2874 28       		.uleb128 0x28
 9467 2875 DF510000 		.4byte	0x51df
 9468 2879 00       		.byte	0
 9469 287a 2E       		.uleb128 0x2e
 9470 287b 50320000 		.4byte	.LASF482
 9471 287f 0E       		.byte	0xe
 9472 2880 31       		.byte	0x31
ARM GAS  /tmp/ccypRU8x.s 			page 170


 9473 2881 91570000 		.4byte	.LASF483
 9474 2885 2D010000 		.4byte	0x12d
 9475 2889 01       		.byte	0x1
 9476 288a 92280000 		.4byte	0x2892
 9477 288e 98280000 		.4byte	0x2898
 9478 2892 28       		.uleb128 0x28
 9479 2893 DF510000 		.4byte	0x51df
 9480 2897 00       		.byte	0
 9481 2898 2E       		.uleb128 0x2e
 9482 2899 F8070000 		.4byte	.LASF484
 9483 289d 0E       		.byte	0xe
 9484 289e 32       		.byte	0x32
 9485 289f 4C0F0000 		.4byte	.LASF485
 9486 28a3 2D010000 		.4byte	0x12d
 9487 28a7 01       		.byte	0x1
 9488 28a8 B0280000 		.4byte	0x28b0
 9489 28ac B6280000 		.4byte	0x28b6
 9490 28b0 28       		.uleb128 0x28
 9491 28b1 DF510000 		.4byte	0x51df
 9492 28b5 00       		.byte	0
 9493 28b6 2E       		.uleb128 0x2e
 9494 28b7 8B5B0000 		.4byte	.LASF486
 9495 28bb 0E       		.byte	0xe
 9496 28bc 33       		.byte	0x33
 9497 28bd 3D440000 		.4byte	.LASF487
 9498 28c1 2D010000 		.4byte	0x12d
 9499 28c5 01       		.byte	0x1
 9500 28c6 CE280000 		.4byte	0x28ce
 9501 28ca D4280000 		.4byte	0x28d4
 9502 28ce 28       		.uleb128 0x28
 9503 28cf DF510000 		.4byte	0x51df
 9504 28d3 00       		.byte	0
 9505 28d4 2E       		.uleb128 0x2e
 9506 28d5 753D0000 		.4byte	.LASF488
 9507 28d9 0E       		.byte	0xe
 9508 28da 34       		.byte	0x34
 9509 28db 193B0000 		.4byte	.LASF489
 9510 28df 2D010000 		.4byte	0x12d
 9511 28e3 01       		.byte	0x1
 9512 28e4 EC280000 		.4byte	0x28ec
 9513 28e8 F2280000 		.4byte	0x28f2
 9514 28ec 28       		.uleb128 0x28
 9515 28ed DF510000 		.4byte	0x51df
 9516 28f1 00       		.byte	0
 9517 28f2 2E       		.uleb128 0x2e
 9518 28f3 05180000 		.4byte	.LASF490
 9519 28f7 0E       		.byte	0xe
 9520 28f8 35       		.byte	0x35
 9521 28f9 E80F0000 		.4byte	.LASF491
 9522 28fd 2D010000 		.4byte	0x12d
 9523 2901 01       		.byte	0x1
 9524 2902 0A290000 		.4byte	0x290a
 9525 2906 10290000 		.4byte	0x2910
 9526 290a 28       		.uleb128 0x28
 9527 290b DF510000 		.4byte	0x51df
 9528 290f 00       		.byte	0
 9529 2910 2E       		.uleb128 0x2e
ARM GAS  /tmp/ccypRU8x.s 			page 171


 9530 2911 1C590000 		.4byte	.LASF492
 9531 2915 0E       		.byte	0xe
 9532 2916 36       		.byte	0x36
 9533 2917 04110000 		.4byte	.LASF493
 9534 291b 2D010000 		.4byte	0x12d
 9535 291f 01       		.byte	0x1
 9536 2920 28290000 		.4byte	0x2928
 9537 2924 2E290000 		.4byte	0x292e
 9538 2928 28       		.uleb128 0x28
 9539 2929 DF510000 		.4byte	0x51df
 9540 292d 00       		.byte	0
 9541 292e 2E       		.uleb128 0x2e
 9542 292f 134C0000 		.4byte	.LASF494
 9543 2933 0E       		.byte	0xe
 9544 2934 37       		.byte	0x37
 9545 2935 27570000 		.4byte	.LASF495
 9546 2939 2D010000 		.4byte	0x12d
 9547 293d 01       		.byte	0x1
 9548 293e 46290000 		.4byte	0x2946
 9549 2942 4C290000 		.4byte	0x294c
 9550 2946 28       		.uleb128 0x28
 9551 2947 DF510000 		.4byte	0x51df
 9552 294b 00       		.byte	0
 9553 294c 2E       		.uleb128 0x2e
 9554 294d 0C310000 		.4byte	.LASF496
 9555 2951 0E       		.byte	0xe
 9556 2952 38       		.byte	0x38
 9557 2953 D94C0000 		.4byte	.LASF497
 9558 2957 2D010000 		.4byte	0x12d
 9559 295b 01       		.byte	0x1
 9560 295c 64290000 		.4byte	0x2964
 9561 2960 6A290000 		.4byte	0x296a
 9562 2964 28       		.uleb128 0x28
 9563 2965 DF510000 		.4byte	0x51df
 9564 2969 00       		.byte	0
 9565 296a 2E       		.uleb128 0x2e
 9566 296b C7420000 		.4byte	.LASF498
 9567 296f 0E       		.byte	0xe
 9568 2970 3A       		.byte	0x3a
 9569 2971 2E580000 		.4byte	.LASF499
 9570 2975 BD160000 		.4byte	0x16bd
 9571 2979 01       		.byte	0x1
 9572 297a 82290000 		.4byte	0x2982
 9573 297e 8D290000 		.4byte	0x298d
 9574 2982 28       		.uleb128 0x28
 9575 2983 DF510000 		.4byte	0x51df
 9576 2987 13       		.uleb128 0x13
 9577 2988 76500000 		.4byte	0x5076
 9578 298c 00       		.byte	0
 9579 298d 2E       		.uleb128 0x2e
 9580 298e C7420000 		.4byte	.LASF498
 9581 2992 0E       		.byte	0xe
 9582 2993 3B       		.byte	0x3b
 9583 2994 543A0000 		.4byte	.LASF500
 9584 2998 BD160000 		.4byte	0x16bd
 9585 299c 01       		.byte	0x1
 9586 299d A5290000 		.4byte	0x29a5
ARM GAS  /tmp/ccypRU8x.s 			page 172


 9587 29a1 AB290000 		.4byte	0x29ab
 9588 29a5 28       		.uleb128 0x28
 9589 29a6 DF510000 		.4byte	0x51df
 9590 29aa 00       		.byte	0
 9591 29ab 2E       		.uleb128 0x2e
 9592 29ac 97370000 		.4byte	.LASF264
 9593 29b0 0E       		.byte	0xe
 9594 29b1 3C       		.byte	0x3c
 9595 29b2 E52D0000 		.4byte	.LASF501
 9596 29b6 E5510000 		.4byte	0x51e5
 9597 29ba 01       		.byte	0x1
 9598 29bb C3290000 		.4byte	0x29c3
 9599 29bf C9290000 		.4byte	0x29c9
 9600 29c3 28       		.uleb128 0x28
 9601 29c4 B1510000 		.4byte	0x51b1
 9602 29c8 00       		.byte	0
 9603 29c9 2E       		.uleb128 0x2e
 9604 29ca A4280000 		.4byte	.LASF502
 9605 29ce 0E       		.byte	0xe
 9606 29cf 3E       		.byte	0x3e
 9607 29d0 76110000 		.4byte	.LASF503
 9608 29d4 2D010000 		.4byte	0x12d
 9609 29d8 01       		.byte	0x1
 9610 29d9 E1290000 		.4byte	0x29e1
 9611 29dd EC290000 		.4byte	0x29ec
 9612 29e1 28       		.uleb128 0x28
 9613 29e2 B1510000 		.4byte	0x51b1
 9614 29e6 13       		.uleb128 0x13
 9615 29e7 EB510000 		.4byte	0x51eb
 9616 29eb 00       		.byte	0
 9617 29ec 2F       		.uleb128 0x2f
 9618 29ed FA160000 		.4byte	.LASF266
 9619 29f1 0E       		.byte	0xe
 9620 29f2 3F       		.byte	0x3f
 9621 29f3 563F0000 		.4byte	.LASF504
 9622 29f7 01       		.byte	0x1
 9623 29f8 002A0000 		.4byte	0x2a00
 9624 29fc 0B2A0000 		.4byte	0x2a0b
 9625 2a00 28       		.uleb128 0x28
 9626 2a01 B1510000 		.4byte	0x51b1
 9627 2a05 13       		.uleb128 0x13
 9628 2a06 EB510000 		.4byte	0x51eb
 9629 2a0a 00       		.byte	0
 9630 2a0b 2E       		.uleb128 0x2e
 9631 2a0c AD460000 		.4byte	.LASF505
 9632 2a10 0E       		.byte	0xe
 9633 2a11 40       		.byte	0x40
 9634 2a12 22350000 		.4byte	.LASF506
 9635 2a16 2D010000 		.4byte	0x12d
 9636 2a1a 01       		.byte	0x1
 9637 2a1b 232A0000 		.4byte	0x2a23
 9638 2a1f 332A0000 		.4byte	0x2a33
 9639 2a23 28       		.uleb128 0x28
 9640 2a24 B1510000 		.4byte	0x51b1
 9641 2a28 13       		.uleb128 0x13
 9642 2a29 EB510000 		.4byte	0x51eb
 9643 2a2d 13       		.uleb128 0x13
ARM GAS  /tmp/ccypRU8x.s 			page 173


 9644 2a2e 76500000 		.4byte	0x5076
 9645 2a32 00       		.byte	0
 9646 2a33 2E       		.uleb128 0x2e
 9647 2a34 3D5F0000 		.4byte	.LASF507
 9648 2a38 0E       		.byte	0xe
 9649 2a39 41       		.byte	0x41
 9650 2a3a A0400000 		.4byte	.LASF508
 9651 2a3e 2D010000 		.4byte	0x12d
 9652 2a42 01       		.byte	0x1
 9653 2a43 4B2A0000 		.4byte	0x2a4b
 9654 2a47 5B2A0000 		.4byte	0x2a5b
 9655 2a4b 28       		.uleb128 0x28
 9656 2a4c B1510000 		.4byte	0x51b1
 9657 2a50 13       		.uleb128 0x13
 9658 2a51 EB510000 		.4byte	0x51eb
 9659 2a55 13       		.uleb128 0x13
 9660 2a56 76500000 		.4byte	0x5076
 9661 2a5a 00       		.byte	0
 9662 2a5b 2E       		.uleb128 0x2e
 9663 2a5c C90C0000 		.4byte	.LASF509
 9664 2a60 0E       		.byte	0xe
 9665 2a61 42       		.byte	0x42
 9666 2a62 0B5D0000 		.4byte	.LASF510
 9667 2a66 2D010000 		.4byte	0x12d
 9668 2a6a 01       		.byte	0x1
 9669 2a6b 732A0000 		.4byte	0x2a73
 9670 2a6f 832A0000 		.4byte	0x2a83
 9671 2a73 28       		.uleb128 0x28
 9672 2a74 B1510000 		.4byte	0x51b1
 9673 2a78 13       		.uleb128 0x13
 9674 2a79 F1510000 		.4byte	0x51f1
 9675 2a7d 13       		.uleb128 0x13
 9676 2a7e 76500000 		.4byte	0x5076
 9677 2a82 00       		.byte	0
 9678 2a83 2E       		.uleb128 0x2e
 9679 2a84 EB280000 		.4byte	.LASF511
 9680 2a88 0E       		.byte	0xe
 9681 2a89 45       		.byte	0x45
 9682 2a8a E94E0000 		.4byte	.LASF512
 9683 2a8e BD160000 		.4byte	0x16bd
 9684 2a92 01       		.byte	0x1
 9685 2a93 9B2A0000 		.4byte	0x2a9b
 9686 2a97 A62A0000 		.4byte	0x2aa6
 9687 2a9b 28       		.uleb128 0x28
 9688 2a9c DF510000 		.4byte	0x51df
 9689 2aa0 13       		.uleb128 0x13
 9690 2aa1 76500000 		.4byte	0x5076
 9691 2aa5 00       		.byte	0
 9692 2aa6 2E       		.uleb128 0x2e
 9693 2aa7 EB280000 		.4byte	.LASF511
 9694 2aab 0E       		.byte	0xe
 9695 2aac 46       		.byte	0x46
 9696 2aad 57280000 		.4byte	.LASF513
 9697 2ab1 BD160000 		.4byte	0x16bd
 9698 2ab5 01       		.byte	0x1
 9699 2ab6 BE2A0000 		.4byte	0x2abe
 9700 2aba C42A0000 		.4byte	0x2ac4
ARM GAS  /tmp/ccypRU8x.s 			page 174


 9701 2abe 28       		.uleb128 0x28
 9702 2abf DF510000 		.4byte	0x51df
 9703 2ac3 00       		.byte	0
 9704 2ac4 2E       		.uleb128 0x2e
 9705 2ac5 4A340000 		.4byte	.LASF267
 9706 2ac9 0E       		.byte	0xe
 9707 2aca 47       		.byte	0x47
 9708 2acb EF110000 		.4byte	.LASF514
 9709 2acf E5510000 		.4byte	0x51e5
 9710 2ad3 01       		.byte	0x1
 9711 2ad4 DC2A0000 		.4byte	0x2adc
 9712 2ad8 E22A0000 		.4byte	0x2ae2
 9713 2adc 28       		.uleb128 0x28
 9714 2add B1510000 		.4byte	0x51b1
 9715 2ae1 00       		.byte	0
 9716 2ae2 2E       		.uleb128 0x2e
 9717 2ae3 A14A0000 		.4byte	.LASF252
 9718 2ae7 0E       		.byte	0xe
 9719 2ae8 49       		.byte	0x49
 9720 2ae9 A32B0000 		.4byte	.LASF515
 9721 2aed 2D010000 		.4byte	0x12d
 9722 2af1 01       		.byte	0x1
 9723 2af2 FA2A0000 		.4byte	0x2afa
 9724 2af6 052B0000 		.4byte	0x2b05
 9725 2afa 28       		.uleb128 0x28
 9726 2afb B1510000 		.4byte	0x51b1
 9727 2aff 13       		.uleb128 0x13
 9728 2b00 EB510000 		.4byte	0x51eb
 9729 2b04 00       		.byte	0
 9730 2b05 2F       		.uleb128 0x2f
 9731 2b06 26110000 		.4byte	.LASF269
 9732 2b0a 0E       		.byte	0xe
 9733 2b0b 4A       		.byte	0x4a
 9734 2b0c 9D3E0000 		.4byte	.LASF516
 9735 2b10 01       		.byte	0x1
 9736 2b11 192B0000 		.4byte	0x2b19
 9737 2b15 242B0000 		.4byte	0x2b24
 9738 2b19 28       		.uleb128 0x28
 9739 2b1a B1510000 		.4byte	0x51b1
 9740 2b1e 13       		.uleb128 0x13
 9741 2b1f EB510000 		.4byte	0x51eb
 9742 2b23 00       		.byte	0
 9743 2b24 2E       		.uleb128 0x2e
 9744 2b25 455B0000 		.4byte	.LASF517
 9745 2b29 0E       		.byte	0xe
 9746 2b2a 4B       		.byte	0x4b
 9747 2b2b 8A350000 		.4byte	.LASF518
 9748 2b2f 2D010000 		.4byte	0x12d
 9749 2b33 01       		.byte	0x1
 9750 2b34 3C2B0000 		.4byte	0x2b3c
 9751 2b38 4C2B0000 		.4byte	0x2b4c
 9752 2b3c 28       		.uleb128 0x28
 9753 2b3d B1510000 		.4byte	0x51b1
 9754 2b41 13       		.uleb128 0x13
 9755 2b42 EB510000 		.4byte	0x51eb
 9756 2b46 13       		.uleb128 0x13
 9757 2b47 76500000 		.4byte	0x5076
ARM GAS  /tmp/ccypRU8x.s 			page 175


 9758 2b4b 00       		.byte	0
 9759 2b4c 2E       		.uleb128 0x2e
 9760 2b4d FB1A0000 		.4byte	.LASF519
 9761 2b51 0E       		.byte	0xe
 9762 2b52 4C       		.byte	0x4c
 9763 2b53 2B240000 		.4byte	.LASF520
 9764 2b57 2D010000 		.4byte	0x12d
 9765 2b5b 01       		.byte	0x1
 9766 2b5c 642B0000 		.4byte	0x2b64
 9767 2b60 742B0000 		.4byte	0x2b74
 9768 2b64 28       		.uleb128 0x28
 9769 2b65 B1510000 		.4byte	0x51b1
 9770 2b69 13       		.uleb128 0x13
 9771 2b6a EB510000 		.4byte	0x51eb
 9772 2b6e 13       		.uleb128 0x13
 9773 2b6f 76500000 		.4byte	0x5076
 9774 2b73 00       		.byte	0
 9775 2b74 2E       		.uleb128 0x2e
 9776 2b75 DD040000 		.4byte	.LASF521
 9777 2b79 0E       		.byte	0xe
 9778 2b7a 4D       		.byte	0x4d
 9779 2b7b 6F5C0000 		.4byte	.LASF522
 9780 2b7f 2D010000 		.4byte	0x12d
 9781 2b83 01       		.byte	0x1
 9782 2b84 8C2B0000 		.4byte	0x2b8c
 9783 2b88 9C2B0000 		.4byte	0x2b9c
 9784 2b8c 28       		.uleb128 0x28
 9785 2b8d B1510000 		.4byte	0x51b1
 9786 2b91 13       		.uleb128 0x13
 9787 2b92 F1510000 		.4byte	0x51f1
 9788 2b96 13       		.uleb128 0x13
 9789 2b97 76500000 		.4byte	0x5076
 9790 2b9b 00       		.byte	0
 9791 2b9c 2F       		.uleb128 0x2f
 9792 2b9d 0A140000 		.4byte	.LASF523
 9793 2ba1 0E       		.byte	0xe
 9794 2ba2 4E       		.byte	0x4e
 9795 2ba3 E7470000 		.4byte	.LASF524
 9796 2ba7 01       		.byte	0x1
 9797 2ba8 B02B0000 		.4byte	0x2bb0
 9798 2bac C02B0000 		.4byte	0x2bc0
 9799 2bb0 28       		.uleb128 0x28
 9800 2bb1 B1510000 		.4byte	0x51b1
 9801 2bb5 13       		.uleb128 0x13
 9802 2bb6 E5510000 		.4byte	0x51e5
 9803 2bba 13       		.uleb128 0x13
 9804 2bbb 25000000 		.4byte	0x25
 9805 2bbf 00       		.byte	0
 9806 2bc0 2F       		.uleb128 0x2f
 9807 2bc1 D8470000 		.4byte	.LASF525
 9808 2bc5 0E       		.byte	0xe
 9809 2bc6 50       		.byte	0x50
 9810 2bc7 D60B0000 		.4byte	.LASF526
 9811 2bcb 01       		.byte	0x1
 9812 2bcc D42B0000 		.4byte	0x2bd4
 9813 2bd0 E42B0000 		.4byte	0x2be4
 9814 2bd4 28       		.uleb128 0x28
ARM GAS  /tmp/ccypRU8x.s 			page 176


 9815 2bd5 B1510000 		.4byte	0x51b1
 9816 2bd9 13       		.uleb128 0x13
 9817 2bda F7510000 		.4byte	0x51f7
 9818 2bde 13       		.uleb128 0x13
 9819 2bdf 76500000 		.4byte	0x5076
 9820 2be3 00       		.byte	0
 9821 2be4 2F       		.uleb128 0x2f
 9822 2be5 D8470000 		.4byte	.LASF525
 9823 2be9 0E       		.byte	0xe
 9824 2bea 51       		.byte	0x51
 9825 2beb 15020000 		.4byte	.LASF527
 9826 2bef 01       		.byte	0x1
 9827 2bf0 F82B0000 		.4byte	0x2bf8
 9828 2bf4 082C0000 		.4byte	0x2c08
 9829 2bf8 28       		.uleb128 0x28
 9830 2bf9 B1510000 		.4byte	0x51b1
 9831 2bfd 13       		.uleb128 0x13
 9832 2bfe FD510000 		.4byte	0x51fd
 9833 2c02 13       		.uleb128 0x13
 9834 2c03 76500000 		.4byte	0x5076
 9835 2c07 00       		.byte	0
 9836 2c08 2F       		.uleb128 0x2f
 9837 2c09 775F0000 		.4byte	.LASF528
 9838 2c0d 0E       		.byte	0xe
 9839 2c0e 52       		.byte	0x52
 9840 2c0f 7D460000 		.4byte	.LASF529
 9841 2c13 01       		.byte	0x1
 9842 2c14 1C2C0000 		.4byte	0x2c1c
 9843 2c18 2C2C0000 		.4byte	0x2c2c
 9844 2c1c 28       		.uleb128 0x28
 9845 2c1d B1510000 		.4byte	0x51b1
 9846 2c21 13       		.uleb128 0x13
 9847 2c22 03520000 		.4byte	0x5203
 9848 2c26 13       		.uleb128 0x13
 9849 2c27 25000000 		.4byte	0x25
 9850 2c2b 00       		.byte	0
 9851 2c2c 2F       		.uleb128 0x2f
 9852 2c2d 775F0000 		.4byte	.LASF528
 9853 2c31 0E       		.byte	0xe
 9854 2c32 53       		.byte	0x53
 9855 2c33 84480000 		.4byte	.LASF530
 9856 2c37 01       		.byte	0x1
 9857 2c38 402C0000 		.4byte	0x2c40
 9858 2c3c 502C0000 		.4byte	0x2c50
 9859 2c40 28       		.uleb128 0x28
 9860 2c41 B1510000 		.4byte	0x51b1
 9861 2c45 13       		.uleb128 0x13
 9862 2c46 09520000 		.4byte	0x5209
 9863 2c4a 13       		.uleb128 0x13
 9864 2c4b 25000000 		.4byte	0x25
 9865 2c4f 00       		.byte	0
 9866 2c50 45       		.uleb128 0x45
 9867 2c51 AF3A0000 		.4byte	.LASF531
 9868 2c55 0E       		.byte	0xe
 9869 2c56 56       		.byte	0x56
 9870 2c57 354E0000 		.4byte	.LASF533
 9871 2c5b 632C0000 		.4byte	0x2c63
ARM GAS  /tmp/ccypRU8x.s 			page 177


 9872 2c5f 732C0000 		.4byte	0x2c73
 9873 2c63 28       		.uleb128 0x28
 9874 2c64 DF510000 		.4byte	0x51df
 9875 2c68 13       		.uleb128 0x13
 9876 2c69 EB510000 		.4byte	0x51eb
 9877 2c6d 13       		.uleb128 0x13
 9878 2c6e 0F520000 		.4byte	0x520f
 9879 2c72 00       		.byte	0
 9880 2c73 29       		.uleb128 0x29
 9881 2c74 CD1A0000 		.4byte	.LASF460
 9882 2c78 0E       		.byte	0xe
 9883 2c79 59       		.byte	0x59
 9884 2c7a B1510000 		.4byte	0x51b1
 9885 2c7e 01       		.byte	0x1
 9886 2c7f 872C0000 		.4byte	0x2c87
 9887 2c83 9C2C0000 		.4byte	0x2c9c
 9888 2c87 28       		.uleb128 0x28
 9889 2c88 B1510000 		.4byte	0x51b1
 9890 2c8c 13       		.uleb128 0x13
 9891 2c8d CE000000 		.4byte	0xce
 9892 2c91 13       		.uleb128 0x13
 9893 2c92 25000000 		.4byte	0x25
 9894 2c96 13       		.uleb128 0x13
 9895 2c97 2D010000 		.4byte	0x12d
 9896 2c9b 00       		.byte	0
 9897 2c9c 46       		.uleb128 0x46
 9898 2c9d B14C0000 		.4byte	.LASF532
 9899 2ca1 0E       		.byte	0xe
 9900 2ca2 5D       		.byte	0x5d
 9901 2ca3 F5210000 		.4byte	.LASF534
 9902 2ca7 2D010000 		.4byte	0x12d
 9903 2cab 01       		.byte	0x1
 9904 2cac 13       		.uleb128 0x13
 9905 2cad 79510000 		.4byte	0x5179
 9906 2cb1 13       		.uleb128 0x13
 9907 2cb2 CE000000 		.4byte	0xce
 9908 2cb6 00       		.byte	0
 9909 2cb7 00       		.byte	0
 9910 2cb8 07       		.uleb128 0x7
 9911 2cb9 76220000 		.4byte	0x2276
 9912 2cbd 26       		.uleb128 0x26
 9913 2cbe 8B490000 		.4byte	.LASF535
 9914 2cc2 02       		.byte	0x2
 9915 2cc3 06       		.byte	0x6
 9916 2cc4 14       		.byte	0x14
 9917 2cc5 282E0000 		.4byte	0x2e28
 9918 2cc9 2D       		.uleb128 0x2d
 9919 2cca 3D090000 		.4byte	.LASF536
 9920 2cce 06       		.byte	0x6
 9921 2ccf 16       		.byte	0x16
 9922 2cd0 F6000000 		.4byte	0xf6
 9923 2cd4 01       		.byte	0x1
 9924 2cd5 0C       		.uleb128 0xc
 9925 2cd6 FC280000 		.4byte	.LASF537
 9926 2cda 06       		.byte	0x6
 9927 2cdb 1D       		.byte	0x1d
 9928 2cdc C92C0000 		.4byte	0x2cc9
ARM GAS  /tmp/ccypRU8x.s 			page 178


 9929 2ce0 00       		.byte	0
 9930 2ce1 2E       		.uleb128 0x2e
 9931 2ce2 63040000 		.4byte	.LASF538
 9932 2ce6 06       		.byte	0x6
 9933 2ce7 20       		.byte	0x20
 9934 2ce8 BE0F0000 		.4byte	.LASF539
 9935 2cec 9A070000 		.4byte	0x79a
 9936 2cf0 01       		.byte	0x1
 9937 2cf1 F92C0000 		.4byte	0x2cf9
 9938 2cf5 FF2C0000 		.4byte	0x2cff
 9939 2cf9 28       		.uleb128 0x28
 9940 2cfa 15520000 		.4byte	0x5215
 9941 2cfe 00       		.byte	0
 9942 2cff 2F       		.uleb128 0x2f
 9943 2d00 CA4C0000 		.4byte	.LASF540
 9944 2d04 06       		.byte	0x6
 9945 2d05 26       		.byte	0x26
 9946 2d06 8C180000 		.4byte	.LASF541
 9947 2d0a 01       		.byte	0x1
 9948 2d0b 132D0000 		.4byte	0x2d13
 9949 2d0f 192D0000 		.4byte	0x2d19
 9950 2d13 28       		.uleb128 0x28
 9951 2d14 E5510000 		.4byte	0x51e5
 9952 2d18 00       		.byte	0
 9953 2d19 2E       		.uleb128 0x2e
 9954 2d1a A4280000 		.4byte	.LASF502
 9955 2d1e 06       		.byte	0x6
 9956 2d1f 27       		.byte	0x27
 9957 2d20 35360000 		.4byte	.LASF542
 9958 2d24 2D010000 		.4byte	0x12d
 9959 2d28 01       		.byte	0x1
 9960 2d29 312D0000 		.4byte	0x2d31
 9961 2d2d 372D0000 		.4byte	0x2d37
 9962 2d31 28       		.uleb128 0x28
 9963 2d32 E5510000 		.4byte	0x51e5
 9964 2d36 00       		.byte	0
 9965 2d37 2F       		.uleb128 0x2f
 9966 2d38 A6120000 		.4byte	.LASF543
 9967 2d3c 06       		.byte	0x6
 9968 2d3d 28       		.byte	0x28
 9969 2d3e 7A020000 		.4byte	.LASF544
 9970 2d42 01       		.byte	0x1
 9971 2d43 4B2D0000 		.4byte	0x2d4b
 9972 2d47 512D0000 		.4byte	0x2d51
 9973 2d4b 28       		.uleb128 0x28
 9974 2d4c E5510000 		.4byte	0x51e5
 9975 2d50 00       		.byte	0
 9976 2d51 2F       		.uleb128 0x2f
 9977 2d52 6E200000 		.4byte	.LASF251
 9978 2d56 06       		.byte	0x6
 9979 2d57 2A       		.byte	0x2a
 9980 2d58 3F300000 		.4byte	.LASF545
 9981 2d5c 01       		.byte	0x1
 9982 2d5d 652D0000 		.4byte	0x2d65
 9983 2d61 6B2D0000 		.4byte	0x2d6b
 9984 2d65 28       		.uleb128 0x28
 9985 2d66 E5510000 		.4byte	0x51e5
ARM GAS  /tmp/ccypRU8x.s 			page 179


 9986 2d6a 00       		.byte	0
 9987 2d6b 2E       		.uleb128 0x2e
 9988 2d6c A14A0000 		.4byte	.LASF252
 9989 2d70 06       		.byte	0x6
 9990 2d71 2B       		.byte	0x2b
 9991 2d72 280A0000 		.4byte	.LASF546
 9992 2d76 2D010000 		.4byte	0x12d
 9993 2d7a 01       		.byte	0x1
 9994 2d7b 832D0000 		.4byte	0x2d83
 9995 2d7f 892D0000 		.4byte	0x2d89
 9996 2d83 28       		.uleb128 0x28
 9997 2d84 E5510000 		.4byte	0x51e5
 9998 2d88 00       		.byte	0
 9999 2d89 2F       		.uleb128 0x2f
 10000 2d8a BD320000 		.4byte	.LASF547
 10001 2d8e 06       		.byte	0x6
 10002 2d8f 2C       		.byte	0x2c
 10003 2d90 7E330000 		.4byte	.LASF548
 10004 2d94 01       		.byte	0x1
 10005 2d95 9D2D0000 		.4byte	0x2d9d
 10006 2d99 A32D0000 		.4byte	0x2da3
 10007 2d9d 28       		.uleb128 0x28
 10008 2d9e E5510000 		.4byte	0x51e5
 10009 2da2 00       		.byte	0
 10010 2da3 29       		.uleb128 0x29
 10011 2da4 8B490000 		.4byte	.LASF535
 10012 2da8 06       		.byte	0x6
 10013 2da9 2F       		.byte	0x2f
 10014 2daa E5510000 		.4byte	0x51e5
 10015 2dae 02       		.byte	0x2
 10016 2daf B72D0000 		.4byte	0x2db7
 10017 2db3 BD2D0000 		.4byte	0x2dbd
 10018 2db7 28       		.uleb128 0x28
 10019 2db8 E5510000 		.4byte	0x51e5
 10020 2dbc 00       		.byte	0
 10021 2dbd 47       		.uleb128 0x47
 10022 2dbe E43A0000 		.4byte	.LASF549
 10023 2dc2 06       		.byte	0x6
 10024 2dc3 32       		.byte	0x32
 10025 2dc4 A8360000 		.4byte	.LASF550
 10026 2dc8 01       		.byte	0x1
 10027 2dc9 DD2D0000 		.4byte	0x2ddd
 10028 2dcd 13       		.uleb128 0x13
 10029 2dce EB510000 		.4byte	0x51eb
 10030 2dd2 13       		.uleb128 0x13
 10031 2dd3 F1510000 		.4byte	0x51f1
 10032 2dd7 13       		.uleb128 0x13
 10033 2dd8 25000000 		.4byte	0x25
 10034 2ddc 00       		.byte	0
 10035 2ddd 48       		.uleb128 0x48
 10036 2dde B8060000 		.4byte	.LASF551
 10037 2de2 06       		.byte	0x6
 10038 2de3 33       		.byte	0x33
 10039 2de4 39210000 		.4byte	.LASF552
 10040 2de8 F1510000 		.4byte	0x51f1
 10041 2dec 01       		.byte	0x1
 10042 2ded F72D0000 		.4byte	0x2df7
ARM GAS  /tmp/ccypRU8x.s 			page 180


 10043 2df1 13       		.uleb128 0x13
 10044 2df2 9A070000 		.4byte	0x79a
 10045 2df6 00       		.byte	0
 10046 2df7 48       		.uleb128 0x48
 10047 2df8 192A0000 		.4byte	.LASF476
 10048 2dfc 06       		.byte	0x6
 10049 2dfd 34       		.byte	0x34
 10050 2dfe 8D010000 		.4byte	.LASF553
 10051 2e02 25000000 		.4byte	0x25
 10052 2e06 01       		.byte	0x1
 10053 2e07 112E0000 		.4byte	0x2e11
 10054 2e0b 13       		.uleb128 0x13
 10055 2e0c 25000000 		.4byte	0x25
 10056 2e10 00       		.byte	0
 10057 2e11 46       		.uleb128 0x46
 10058 2e12 D4190000 		.4byte	.LASF474
 10059 2e16 06       		.byte	0x6
 10060 2e17 35       		.byte	0x35
 10061 2e18 6B210000 		.4byte	.LASF554
 10062 2e1c 25000000 		.4byte	0x25
 10063 2e20 01       		.byte	0x1
 10064 2e21 13       		.uleb128 0x13
 10065 2e22 25000000 		.4byte	0x25
 10066 2e26 00       		.byte	0
 10067 2e27 00       		.byte	0
 10068 2e28 07       		.uleb128 0x7
 10069 2e29 BD2C0000 		.4byte	0x2cbd
 10070 2e2d 49       		.uleb128 0x49
 10071 2e2e 4B120000 		.4byte	.LASF555
 10072 2e32 10       		.byte	0x10
 10073 2e33 2F       		.byte	0x2f
 10074 2e34 0A       		.byte	0xa
 10075 2e35 C74C0000 		.4byte	0x4cc7
 10076 2e39 A82E0000 		.4byte	0x2ea8
 10077 2e3d 4A       		.uleb128 0x4a
 10078 2e3e C74C0000 		.4byte	0x4cc7
 10079 2e42 00       		.byte	0
 10080 2e43 01       		.byte	0x1
 10081 2e44 0C       		.uleb128 0xc
 10082 2e45 8B3D0000 		.4byte	.LASF556
 10083 2e49 2F       		.byte	0x2f
 10084 2e4a 0E       		.byte	0xe
 10085 2e4b C42E0000 		.4byte	0x2ec4
 10086 2e4f 08       		.byte	0x8
 10087 2e50 4B       		.uleb128 0x4b
 10088 2e51 4B120000 		.4byte	.LASF555
 10089 2e55 6E520000 		.4byte	0x526e
 10090 2e59 01       		.byte	0x1
 10091 2e5a 622E0000 		.4byte	0x2e62
 10092 2e5e 6D2E0000 		.4byte	0x2e6d
 10093 2e62 28       		.uleb128 0x28
 10094 2e63 6E520000 		.4byte	0x526e
 10095 2e67 13       		.uleb128 0x13
 10096 2e68 36520000 		.4byte	0x5236
 10097 2e6c 00       		.byte	0
 10098 2e6d 29       		.uleb128 0x29
 10099 2e6e 4B120000 		.4byte	.LASF555
ARM GAS  /tmp/ccypRU8x.s 			page 181


 10100 2e72 2F       		.byte	0x2f
 10101 2e73 11       		.byte	0x11
 10102 2e74 6E520000 		.4byte	0x526e
 10103 2e78 02       		.byte	0x2
 10104 2e79 812E0000 		.4byte	0x2e81
 10105 2e7d 872E0000 		.4byte	0x2e87
 10106 2e81 28       		.uleb128 0x28
 10107 2e82 6E520000 		.4byte	0x526e
 10108 2e86 00       		.byte	0
 10109 2e87 4C       		.uleb128 0x4c
 10110 2e88 15150000 		.4byte	.LASF557
 10111 2e8c 2F       		.byte	0x2f
 10112 2e8d 12       		.byte	0x12
 10113 2e8e BF000000 		.4byte	0xbf
 10114 2e92 01       		.byte	0x1
 10115 2e93 2D2E0000 		.4byte	0x2e2d
 10116 2e97 02       		.byte	0x2
 10117 2e98 9C2E0000 		.4byte	0x2e9c
 10118 2e9c 28       		.uleb128 0x28
 10119 2e9d 6E520000 		.4byte	0x526e
 10120 2ea1 28       		.uleb128 0x28
 10121 2ea2 37000000 		.4byte	0x37
 10122 2ea6 00       		.byte	0
 10123 2ea7 00       		.byte	0
 10124 2ea8 39       		.uleb128 0x39
 10125 2ea9 C4010000 		.4byte	.LASF558
 10126 2ead 39       		.uleb128 0x39
 10127 2eae A1410000 		.4byte	.LASF559
 10128 2eb2 26       		.uleb128 0x26
 10129 2eb3 4C010000 		.4byte	.LASF560
 10130 2eb7 04       		.byte	0x4
 10131 2eb8 2E       		.byte	0x2e
 10132 2eb9 0F       		.byte	0xf
 10133 2eba F4340000 		.4byte	0x34f4
 10134 2ebe 2B       		.uleb128 0x2b
 10135 2ebf 65110000 		.4byte	0x1165
 10136 2ec3 00       		.byte	0
 10137 2ec4 36       		.uleb128 0x36
 10138 2ec5 A5580000 		.4byte	.LASF313
 10139 2ec9 08       		.byte	0x8
 10140 2eca 2E       		.byte	0x2e
 10141 2ecb 11       		.byte	0x11
 10142 2ecc 01       		.byte	0x1
 10143 2ecd 042F0000 		.4byte	0x2f04
 10144 2ed1 0C       		.uleb128 0xc
 10145 2ed2 C42E0000 		.4byte	.LASF311
 10146 2ed6 2E       		.byte	0x2e
 10147 2ed7 12       		.byte	0x12
 10148 2ed8 1B520000 		.4byte	0x521b
 10149 2edc 00       		.byte	0
 10150 2edd 0C       		.uleb128 0xc
 10151 2ede 8E1A0000 		.4byte	.LASF312
 10152 2ee2 2E       		.byte	0x2e
 10153 2ee3 13       		.byte	0x13
 10154 2ee4 8C520000 		.4byte	0x528c
 10155 2ee8 04       		.byte	0x4
 10156 2ee9 37       		.uleb128 0x37
ARM GAS  /tmp/ccypRU8x.s 			page 182


 10157 2eea A5580000 		.4byte	.LASF313
 10158 2eee 2E       		.byte	0x2e
 10159 2eef 15       		.byte	0x15
 10160 2ef0 1B520000 		.4byte	0x521b
 10161 2ef4 F82E0000 		.4byte	0x2ef8
 10162 2ef8 28       		.uleb128 0x28
 10163 2ef9 1B520000 		.4byte	0x521b
 10164 2efd 13       		.uleb128 0x13
 10165 2efe F7510000 		.4byte	0x51f7
 10166 2f02 00       		.byte	0
 10167 2f03 00       		.byte	0
 10168 2f04 19       		.uleb128 0x19
 10169 2f05 27140000 		.4byte	.LASF314
 10170 2f09 2E       		.byte	0x2e
 10171 2f0a 8A01     		.2byte	0x18a
 10172 2f0c 1B520000 		.4byte	0x521b
 10173 2f10 00       		.byte	0
 10174 2f11 38       		.uleb128 0x38
 10175 2f12 6E290000 		.4byte	.LASF561
 10176 2f16 39       		.uleb128 0x39
 10177 2f17 11200000 		.4byte	.LASF315
 10178 2f1b 39       		.uleb128 0x39
 10179 2f1c 0E300000 		.4byte	.LASF316
 10180 2f20 39       		.uleb128 0x39
 10181 2f21 7F510000 		.4byte	.LASF317
 10182 2f25 3A       		.uleb128 0x3a
 10183 2f26 FF3D0000 		.4byte	.LASF319
 10184 2f2a 04       		.byte	0x4
 10185 2f2b 2E       		.byte	0x2e
 10186 2f2c C0       		.byte	0xc0
 10187 2f2d 01       		.byte	0x1
 10188 2f2e 95300000 		.4byte	0x3095
 10189 2f32 0C       		.uleb128 0xc
 10190 2f33 6C150000 		.4byte	.LASF318
 10191 2f37 2E       		.byte	0x2e
 10192 2f38 C4       		.byte	0xc4
 10193 2f39 A7530000 		.4byte	0x53a7
 10194 2f3d 00       		.byte	0
 10195 2f3e 29       		.uleb128 0x29
 10196 2f3f FF3D0000 		.4byte	.LASF319
 10197 2f43 2E       		.byte	0x2e
 10198 2f44 C7       		.byte	0xc7
 10199 2f45 AD530000 		.4byte	0x53ad
 10200 2f49 01       		.byte	0x1
 10201 2f4a 522F0000 		.4byte	0x2f52
 10202 2f4e 582F0000 		.4byte	0x2f58
 10203 2f52 28       		.uleb128 0x28
 10204 2f53 AD530000 		.4byte	0x53ad
 10205 2f57 00       		.byte	0
 10206 2f58 29       		.uleb128 0x29
 10207 2f59 FF3D0000 		.4byte	.LASF319
 10208 2f5d 2E       		.byte	0x2e
 10209 2f5e C8       		.byte	0xc8
 10210 2f5f AD530000 		.4byte	0x53ad
 10211 2f63 01       		.byte	0x1
 10212 2f64 6C2F0000 		.4byte	0x2f6c
 10213 2f68 772F0000 		.4byte	0x2f77
ARM GAS  /tmp/ccypRU8x.s 			page 183


 10214 2f6c 28       		.uleb128 0x28
 10215 2f6d AD530000 		.4byte	0x53ad
 10216 2f71 13       		.uleb128 0x13
 10217 2f72 B3530000 		.4byte	0x53b3
 10218 2f76 00       		.byte	0
 10219 2f77 27       		.uleb128 0x27
 10220 2f78 FF3D0000 		.4byte	.LASF319
 10221 2f7c 2E       		.byte	0x2e
 10222 2f7d CB       		.byte	0xcb
 10223 2f7e AD530000 		.4byte	0x53ad
 10224 2f82 8A2F0000 		.4byte	0x2f8a
 10225 2f86 952F0000 		.4byte	0x2f95
 10226 2f8a 28       		.uleb128 0x28
 10227 2f8b AD530000 		.4byte	0x53ad
 10228 2f8f 13       		.uleb128 0x13
 10229 2f90 A7530000 		.4byte	0x53a7
 10230 2f94 00       		.byte	0
 10231 2f95 3B       		.uleb128 0x3b
 10232 2f96 E6140000 		.4byte	.LASF298
 10233 2f9a 2E       		.byte	0x2e
 10234 2f9b CE       		.byte	0xce
 10235 2f9c D4010000 		.4byte	.LASF562
 10236 2fa0 86520000 		.4byte	0x5286
 10237 2fa4 AC2F0000 		.4byte	0x2fac
 10238 2fa8 B72F0000 		.4byte	0x2fb7
 10239 2fac 28       		.uleb128 0x28
 10240 2fad AD530000 		.4byte	0x53ad
 10241 2fb1 13       		.uleb128 0x13
 10242 2fb2 B3530000 		.4byte	0x53b3
 10243 2fb6 00       		.byte	0
 10244 2fb7 2E       		.uleb128 0x2e
 10245 2fb8 C4430000 		.4byte	.LASF321
 10246 2fbc 2E       		.byte	0x2e
 10247 2fbd D4       		.byte	0xd4
 10248 2fbe 184D0000 		.4byte	.LASF563
 10249 2fc2 B9530000 		.4byte	0x53b9
 10250 2fc6 01       		.byte	0x1
 10251 2fc7 CF2F0000 		.4byte	0x2fcf
 10252 2fcb D52F0000 		.4byte	0x2fd5
 10253 2fcf 28       		.uleb128 0x28
 10254 2fd0 BF530000 		.4byte	0x53bf
 10255 2fd4 00       		.byte	0
 10256 2fd5 2E       		.uleb128 0x2e
 10257 2fd6 93140000 		.4byte	.LASF323
 10258 2fda 2E       		.byte	0x2e
 10259 2fdb D8       		.byte	0xd8
 10260 2fdc 73340000 		.4byte	.LASF564
 10261 2fe0 36520000 		.4byte	0x5236
 10262 2fe4 01       		.byte	0x1
 10263 2fe5 ED2F0000 		.4byte	0x2fed
 10264 2fe9 F32F0000 		.4byte	0x2ff3
 10265 2fed 28       		.uleb128 0x28
 10266 2fee BF530000 		.4byte	0x53bf
 10267 2ff2 00       		.byte	0
 10268 2ff3 2E       		.uleb128 0x2e
 10269 2ff4 96410000 		.4byte	.LASF325
 10270 2ff8 2E       		.byte	0x2e
ARM GAS  /tmp/ccypRU8x.s 			page 184


 10271 2ff9 DC       		.byte	0xdc
 10272 2ffa EB4F0000 		.4byte	.LASF565
 10273 2ffe 86520000 		.4byte	0x5286
 10274 3002 01       		.byte	0x1
 10275 3003 0B300000 		.4byte	0x300b
 10276 3007 11300000 		.4byte	0x3011
 10277 300b 28       		.uleb128 0x28
 10278 300c AD530000 		.4byte	0x53ad
 10279 3010 00       		.byte	0
 10280 3011 2E       		.uleb128 0x2e
 10281 3012 96410000 		.4byte	.LASF325
 10282 3016 2E       		.byte	0x2e
 10283 3017 E3       		.byte	0xe3
 10284 3018 3E4C0000 		.4byte	.LASF566
 10285 301c 86340000 		.4byte	0x3486
 10286 3020 01       		.byte	0x1
 10287 3021 29300000 		.4byte	0x3029
 10288 3025 34300000 		.4byte	0x3034
 10289 3029 28       		.uleb128 0x28
 10290 302a AD530000 		.4byte	0x53ad
 10291 302e 13       		.uleb128 0x13
 10292 302f 37000000 		.4byte	0x37
 10293 3033 00       		.byte	0
 10294 3034 2E       		.uleb128 0x2e
 10295 3035 FB600000 		.4byte	.LASF328
 10296 3039 2E       		.byte	0x2e
 10297 303a EB       		.byte	0xeb
 10298 303b D7570000 		.4byte	.LASF567
 10299 303f 2D010000 		.4byte	0x12d
 10300 3043 01       		.byte	0x1
 10301 3044 4C300000 		.4byte	0x304c
 10302 3048 57300000 		.4byte	0x3057
 10303 304c 28       		.uleb128 0x28
 10304 304d BF530000 		.4byte	0x53bf
 10305 3051 13       		.uleb128 0x13
 10306 3052 B3530000 		.4byte	0x53b3
 10307 3056 00       		.byte	0
 10308 3057 2E       		.uleb128 0x2e
 10309 3058 7C310000 		.4byte	.LASF330
 10310 305c 2E       		.byte	0x2e
 10311 305d EF       		.byte	0xef
 10312 305e 881B0000 		.4byte	.LASF568
 10313 3062 2D010000 		.4byte	0x12d
 10314 3066 01       		.byte	0x1
 10315 3067 6F300000 		.4byte	0x306f
 10316 306b 7A300000 		.4byte	0x307a
 10317 306f 28       		.uleb128 0x28
 10318 3070 BF530000 		.4byte	0x53bf
 10319 3074 13       		.uleb128 0x13
 10320 3075 B3530000 		.4byte	0x53b3
 10321 3079 00       		.byte	0
 10322 307a 3C       		.uleb128 0x3c
 10323 307b 4D420000 		.4byte	.LASF332
 10324 307f 2E       		.byte	0x2e
 10325 3080 F3       		.byte	0xf3
 10326 3081 9A5B0000 		.4byte	.LASF569
 10327 3085 2D010000 		.4byte	0x12d
ARM GAS  /tmp/ccypRU8x.s 			page 185


 10328 3089 01       		.byte	0x1
 10329 308a 8E300000 		.4byte	0x308e
 10330 308e 28       		.uleb128 0x28
 10331 308f BF530000 		.4byte	0x53bf
 10332 3093 00       		.byte	0
 10333 3094 00       		.byte	0
 10334 3095 1D       		.uleb128 0x1d
 10335 3096 941A0000 		.4byte	.LASF334
 10336 309a 2E       		.byte	0x2e
 10337 309b 8601     		.2byte	0x186
 10338 309d 21520000 		.4byte	0x5221
 10339 30a1 1D       		.uleb128 0x1d
 10340 30a2 55130000 		.4byte	.LASF335
 10341 30a6 2E       		.byte	0x2e
 10342 30a7 8701     		.2byte	0x187
 10343 30a9 3C520000 		.4byte	0x523c
 10344 30ad 3D       		.uleb128 0x3d
 10345 30ae 5B630000 		.4byte	.LASF336
 10346 30b2 2E       		.byte	0x2e
 10347 30b3 8D01     		.2byte	0x18d
 10348 30b5 B8370000 		.4byte	.LASF570
 10349 30b9 56520000 		.4byte	0x5256
 10350 30bd 01       		.byte	0x1
 10351 30be C6300000 		.4byte	0x30c6
 10352 30c2 CC300000 		.4byte	0x30cc
 10353 30c6 28       		.uleb128 0x28
 10354 30c7 5C520000 		.4byte	0x525c
 10355 30cb 00       		.byte	0
 10356 30cc 07       		.uleb128 0x7
 10357 30cd C42E0000 		.4byte	0x2ec4
 10358 30d1 3D       		.uleb128 0x3d
 10359 30d2 615E0000 		.4byte	.LASF337
 10360 30d6 2E       		.byte	0x2e
 10361 30d7 9101     		.2byte	0x191
 10362 30d9 C64B0000 		.4byte	.LASF571
 10363 30dd 2D010000 		.4byte	0x12d
 10364 30e1 01       		.byte	0x1
 10365 30e2 EA300000 		.4byte	0x30ea
 10366 30e6 F0300000 		.4byte	0x30f0
 10367 30ea 28       		.uleb128 0x28
 10368 30eb 5C520000 		.4byte	0x525c
 10369 30ef 00       		.byte	0
 10370 30f0 3D       		.uleb128 0x3d
 10371 30f1 4E1F0000 		.4byte	.LASF340
 10372 30f5 2E       		.byte	0x2e
 10373 30f6 0302     		.2byte	0x203
 10374 30f8 02440000 		.4byte	.LASF572
 10375 30fc 25000000 		.4byte	0x25
 10376 3100 01       		.byte	0x1
 10377 3101 09310000 		.4byte	0x3109
 10378 3105 0F310000 		.4byte	0x310f
 10379 3109 28       		.uleb128 0x28
 10380 310a 5C520000 		.4byte	0x525c
 10381 310e 00       		.byte	0
 10382 310f 3E       		.uleb128 0x3e
 10383 3110 11480000 		.4byte	.LASF342
 10384 3114 2E       		.byte	0x2e
ARM GAS  /tmp/ccypRU8x.s 			page 186


 10385 3115 9701     		.2byte	0x197
 10386 3117 B5480000 		.4byte	.LASF573
 10387 311b 01       		.byte	0x1
 10388 311c 24310000 		.4byte	0x3124
 10389 3120 2F310000 		.4byte	0x312f
 10390 3124 28       		.uleb128 0x28
 10391 3125 62520000 		.4byte	0x5262
 10392 3129 13       		.uleb128 0x13
 10393 312a 68520000 		.4byte	0x5268
 10394 312e 00       		.byte	0
 10395 312f 3E       		.uleb128 0x3e
 10396 3130 9E500000 		.4byte	.LASF343
 10397 3134 2E       		.byte	0x2e
 10398 3135 9F01     		.2byte	0x19f
 10399 3137 FF0C0000 		.4byte	.LASF574
 10400 313b 01       		.byte	0x1
 10401 313c 44310000 		.4byte	0x3144
 10402 3140 4F310000 		.4byte	0x314f
 10403 3144 28       		.uleb128 0x28
 10404 3145 62520000 		.4byte	0x5262
 10405 3149 13       		.uleb128 0x13
 10406 314a 68520000 		.4byte	0x5268
 10407 314e 00       		.byte	0
 10408 314f 3D       		.uleb128 0x3d
 10409 3150 CB290000 		.4byte	.LASF346
 10410 3154 2E       		.byte	0x2e
 10411 3155 0E02     		.2byte	0x20e
 10412 3157 15220000 		.4byte	.LASF575
 10413 315b 2D010000 		.4byte	0x12d
 10414 315f 01       		.byte	0x1
 10415 3160 68310000 		.4byte	0x3168
 10416 3164 73310000 		.4byte	0x3173
 10417 3168 28       		.uleb128 0x28
 10418 3169 62520000 		.4byte	0x5262
 10419 316d 13       		.uleb128 0x13
 10420 316e 68520000 		.4byte	0x5268
 10421 3172 00       		.byte	0
 10422 3173 3D       		.uleb128 0x3d
 10423 3174 2C370000 		.4byte	.LASF348
 10424 3178 2E       		.byte	0x2e
 10425 3179 1F02     		.2byte	0x21f
 10426 317b AA580000 		.4byte	.LASF576
 10427 317f 37000000 		.4byte	0x37
 10428 3183 01       		.byte	0x1
 10429 3184 8C310000 		.4byte	0x318c
 10430 3188 97310000 		.4byte	0x3197
 10431 318c 28       		.uleb128 0x28
 10432 318d 5C520000 		.4byte	0x525c
 10433 3191 13       		.uleb128 0x13
 10434 3192 36520000 		.4byte	0x5236
 10435 3196 00       		.byte	0
 10436 3197 3D       		.uleb128 0x3d
 10437 3198 E34D0000 		.4byte	.LASF350
 10438 319c 2E       		.byte	0x2e
 10439 319d 2C02     		.2byte	0x22c
 10440 319f A6150000 		.4byte	.LASF577
 10441 31a3 2D010000 		.4byte	0x12d
ARM GAS  /tmp/ccypRU8x.s 			page 187


 10442 31a7 01       		.byte	0x1
 10443 31a8 B0310000 		.4byte	0x31b0
 10444 31ac BB310000 		.4byte	0x31bb
 10445 31b0 28       		.uleb128 0x28
 10446 31b1 5C520000 		.4byte	0x525c
 10447 31b5 13       		.uleb128 0x13
 10448 31b6 36520000 		.4byte	0x5236
 10449 31ba 00       		.byte	0
 10450 31bb 3D       		.uleb128 0x3d
 10451 31bc 5A340000 		.4byte	.LASF352
 10452 31c0 2E       		.byte	0x2e
 10453 31c1 3802     		.2byte	0x238
 10454 31c3 F2410000 		.4byte	.LASF578
 10455 31c7 6E520000 		.4byte	0x526e
 10456 31cb 01       		.byte	0x1
 10457 31cc D4310000 		.4byte	0x31d4
 10458 31d0 DF310000 		.4byte	0x31df
 10459 31d4 28       		.uleb128 0x28
 10460 31d5 5C520000 		.4byte	0x525c
 10461 31d9 13       		.uleb128 0x13
 10462 31da 95300000 		.4byte	0x3095
 10463 31de 00       		.byte	0
 10464 31df 3D       		.uleb128 0x3d
 10465 31e0 5A340000 		.4byte	.LASF352
 10466 31e4 2E       		.byte	0x2e
 10467 31e5 4402     		.2byte	0x244
 10468 31e7 021E0000 		.4byte	.LASF579
 10469 31eb 6E520000 		.4byte	0x526e
 10470 31ef 01       		.byte	0x1
 10471 31f0 F8310000 		.4byte	0x31f8
 10472 31f4 08320000 		.4byte	0x3208
 10473 31f8 28       		.uleb128 0x28
 10474 31f9 5C520000 		.4byte	0x525c
 10475 31fd 13       		.uleb128 0x13
 10476 31fe A1300000 		.4byte	0x30a1
 10477 3202 13       		.uleb128 0x13
 10478 3203 D9000000 		.4byte	0xd9
 10479 3207 00       		.byte	0
 10480 3208 3D       		.uleb128 0x3d
 10481 3209 EA100000 		.4byte	.LASF355
 10482 320d 2E       		.byte	0x2e
 10483 320e B301     		.2byte	0x1b3
 10484 3210 22250000 		.4byte	.LASF580
 10485 3214 27320000 		.4byte	0x3227
 10486 3218 01       		.byte	0x1
 10487 3219 21320000 		.4byte	0x3221
 10488 321d 27320000 		.4byte	0x3227
 10489 3221 28       		.uleb128 0x28
 10490 3222 62520000 		.4byte	0x5262
 10491 3226 00       		.byte	0
 10492 3227 07       		.uleb128 0x7
 10493 3228 162F0000 		.4byte	0x2f16
 10494 322c 3D       		.uleb128 0x3d
 10495 322d 87310000 		.4byte	.LASF357
 10496 3231 2E       		.byte	0x2e
 10497 3232 B701     		.2byte	0x1b7
 10498 3234 44100000 		.4byte	.LASF581
ARM GAS  /tmp/ccypRU8x.s 			page 188


 10499 3238 27320000 		.4byte	0x3227
 10500 323c 01       		.byte	0x1
 10501 323d 45320000 		.4byte	0x3245
 10502 3241 4B320000 		.4byte	0x324b
 10503 3245 28       		.uleb128 0x28
 10504 3246 62520000 		.4byte	0x5262
 10505 324a 00       		.byte	0
 10506 324b 3E       		.uleb128 0x3e
 10507 324c C1630000 		.4byte	.LASF359
 10508 3250 2E       		.byte	0x2e
 10509 3251 BB01     		.2byte	0x1bb
 10510 3253 45410000 		.4byte	.LASF582
 10511 3257 01       		.byte	0x1
 10512 3258 60320000 		.4byte	0x3260
 10513 325c 6B320000 		.4byte	0x326b
 10514 3260 28       		.uleb128 0x28
 10515 3261 62520000 		.4byte	0x5262
 10516 3265 13       		.uleb128 0x13
 10517 3266 74520000 		.4byte	0x5274
 10518 326a 00       		.byte	0
 10519 326b 3D       		.uleb128 0x3d
 10520 326c EA100000 		.4byte	.LASF355
 10521 3270 2E       		.byte	0x2e
 10522 3271 BF01     		.2byte	0x1bf
 10523 3273 C0200000 		.4byte	.LASF583
 10524 3277 8A320000 		.4byte	0x328a
 10525 327b 01       		.byte	0x1
 10526 327c 84320000 		.4byte	0x3284
 10527 3280 8A320000 		.4byte	0x328a
 10528 3284 28       		.uleb128 0x28
 10529 3285 5C520000 		.4byte	0x525c
 10530 3289 00       		.byte	0
 10531 328a 07       		.uleb128 0x7
 10532 328b 1B2F0000 		.4byte	0x2f1b
 10533 328f 3D       		.uleb128 0x3d
 10534 3290 87310000 		.4byte	.LASF357
 10535 3294 2E       		.byte	0x2e
 10536 3295 C301     		.2byte	0x1c3
 10537 3297 61450000 		.4byte	.LASF584
 10538 329b 8A320000 		.4byte	0x328a
 10539 329f 01       		.byte	0x1
 10540 32a0 A8320000 		.4byte	0x32a8
 10541 32a4 AE320000 		.4byte	0x32ae
 10542 32a8 28       		.uleb128 0x28
 10543 32a9 5C520000 		.4byte	0x525c
 10544 32ad 00       		.byte	0
 10545 32ae 3E       		.uleb128 0x3e
 10546 32af C1630000 		.4byte	.LASF359
 10547 32b3 2E       		.byte	0x2e
 10548 32b4 C701     		.2byte	0x1c7
 10549 32b6 CF230000 		.4byte	.LASF585
 10550 32ba 01       		.byte	0x1
 10551 32bb C3320000 		.4byte	0x32c3
 10552 32bf CE320000 		.4byte	0x32ce
 10553 32c3 28       		.uleb128 0x28
 10554 32c4 5C520000 		.4byte	0x525c
 10555 32c8 13       		.uleb128 0x13
ARM GAS  /tmp/ccypRU8x.s 			page 189


 10556 32c9 7A520000 		.4byte	0x527a
 10557 32cd 00       		.byte	0
 10558 32ce 3D       		.uleb128 0x3d
 10559 32cf 13590000 		.4byte	.LASF364
 10560 32d3 2E       		.byte	0x2e
 10561 32d4 5302     		.2byte	0x253
 10562 32d6 7B4C0000 		.4byte	.LASF586
 10563 32da 56520000 		.4byte	0x5256
 10564 32de 01       		.byte	0x1
 10565 32df E7320000 		.4byte	0x32e7
 10566 32e3 ED320000 		.4byte	0x32ed
 10567 32e7 28       		.uleb128 0x28
 10568 32e8 5C520000 		.4byte	0x525c
 10569 32ec 00       		.byte	0
 10570 32ed 3D       		.uleb128 0x3d
 10571 32ee 1B5C0000 		.4byte	.LASF366
 10572 32f2 2E       		.byte	0x2e
 10573 32f3 5D02     		.2byte	0x25d
 10574 32f5 540D0000 		.4byte	.LASF587
 10575 32f9 2D010000 		.4byte	0x12d
 10576 32fd 01       		.byte	0x1
 10577 32fe 06330000 		.4byte	0x3306
 10578 3302 0C330000 		.4byte	0x330c
 10579 3306 28       		.uleb128 0x28
 10580 3307 5C520000 		.4byte	0x525c
 10581 330b 00       		.byte	0
 10582 330c 3D       		.uleb128 0x3d
 10583 330d CB340000 		.4byte	.LASF368
 10584 3311 2E       		.byte	0x2e
 10585 3312 6702     		.2byte	0x267
 10586 3314 CF430000 		.4byte	.LASF588
 10587 3318 25000000 		.4byte	0x25
 10588 331c 01       		.byte	0x1
 10589 331d 25330000 		.4byte	0x3325
 10590 3321 2B330000 		.4byte	0x332b
 10591 3325 28       		.uleb128 0x28
 10592 3326 5C520000 		.4byte	0x525c
 10593 332a 00       		.byte	0
 10594 332b 3E       		.uleb128 0x3e
 10595 332c 5B1F0000 		.4byte	.LASF370
 10596 3330 2E       		.byte	0x2e
 10597 3331 7602     		.2byte	0x276
 10598 3333 23080000 		.4byte	.LASF589
 10599 3337 01       		.byte	0x1
 10600 3338 40330000 		.4byte	0x3340
 10601 333c 4B330000 		.4byte	0x334b
 10602 3340 28       		.uleb128 0x28
 10603 3341 62520000 		.4byte	0x5262
 10604 3345 13       		.uleb128 0x13
 10605 3346 68520000 		.4byte	0x5268
 10606 334a 00       		.byte	0
 10607 334b 3D       		.uleb128 0x3d
 10608 334c 8C140000 		.4byte	.LASF372
 10609 3350 2E       		.byte	0x2e
 10610 3351 8002     		.2byte	0x280
 10611 3353 CA1B0000 		.4byte	.LASF590
 10612 3357 2D010000 		.4byte	0x12d
ARM GAS  /tmp/ccypRU8x.s 			page 190


 10613 335b 01       		.byte	0x1
 10614 335c 64330000 		.4byte	0x3364
 10615 3360 6F330000 		.4byte	0x336f
 10616 3364 28       		.uleb128 0x28
 10617 3365 62520000 		.4byte	0x5262
 10618 3369 13       		.uleb128 0x13
 10619 336a 68520000 		.4byte	0x5268
 10620 336e 00       		.byte	0
 10621 336f 3D       		.uleb128 0x3d
 10622 3370 75390000 		.4byte	.LASF374
 10623 3374 2E       		.byte	0x2e
 10624 3375 8A02     		.2byte	0x28a
 10625 3377 9A020000 		.4byte	.LASF591
 10626 337b 37000000 		.4byte	0x37
 10627 337f 01       		.byte	0x1
 10628 3380 88330000 		.4byte	0x3388
 10629 3384 93330000 		.4byte	0x3393
 10630 3388 28       		.uleb128 0x28
 10631 3389 5C520000 		.4byte	0x525c
 10632 338d 13       		.uleb128 0x13
 10633 338e 36520000 		.4byte	0x5236
 10634 3392 00       		.byte	0
 10635 3393 3D       		.uleb128 0x3d
 10636 3394 8B250000 		.4byte	.LASF376
 10637 3398 2E       		.byte	0x2e
 10638 3399 9B02     		.2byte	0x29b
 10639 339b D1090000 		.4byte	.LASF592
 10640 339f 2D010000 		.4byte	0x12d
 10641 33a3 01       		.byte	0x1
 10642 33a4 AC330000 		.4byte	0x33ac
 10643 33a8 B7330000 		.4byte	0x33b7
 10644 33ac 28       		.uleb128 0x28
 10645 33ad 5C520000 		.4byte	0x525c
 10646 33b1 13       		.uleb128 0x13
 10647 33b2 36520000 		.4byte	0x5236
 10648 33b6 00       		.byte	0
 10649 33b7 3D       		.uleb128 0x3d
 10650 33b8 C73C0000 		.4byte	.LASF378
 10651 33bc 2E       		.byte	0x2e
 10652 33bd AC02     		.2byte	0x2ac
 10653 33bf 3E510000 		.4byte	.LASF593
 10654 33c3 6E520000 		.4byte	0x526e
 10655 33c7 01       		.byte	0x1
 10656 33c8 D0330000 		.4byte	0x33d0
 10657 33cc DB330000 		.4byte	0x33db
 10658 33d0 28       		.uleb128 0x28
 10659 33d1 5C520000 		.4byte	0x525c
 10660 33d5 13       		.uleb128 0x13
 10661 33d6 95300000 		.4byte	0x3095
 10662 33da 00       		.byte	0
 10663 33db 3D       		.uleb128 0x3d
 10664 33dc C73C0000 		.4byte	.LASF378
 10665 33e0 2E       		.byte	0x2e
 10666 33e1 BC02     		.2byte	0x2bc
 10667 33e3 14630000 		.4byte	.LASF594
 10668 33e7 6E520000 		.4byte	0x526e
 10669 33eb 01       		.byte	0x1
ARM GAS  /tmp/ccypRU8x.s 			page 191


 10670 33ec F4330000 		.4byte	0x33f4
 10671 33f0 04340000 		.4byte	0x3404
 10672 33f4 28       		.uleb128 0x28
 10673 33f5 5C520000 		.4byte	0x525c
 10674 33f9 13       		.uleb128 0x13
 10675 33fa A1300000 		.4byte	0x30a1
 10676 33fe 13       		.uleb128 0x13
 10677 33ff D9000000 		.4byte	0xd9
 10678 3403 00       		.byte	0
 10679 3404 3D       		.uleb128 0x3d
 10680 3405 DB620000 		.4byte	.LASF381
 10681 3409 2E       		.byte	0x2e
 10682 340a E001     		.2byte	0x1e0
 10683 340c A9380000 		.4byte	.LASF595
 10684 3410 23340000 		.4byte	0x3423
 10685 3414 01       		.byte	0x1
 10686 3415 1D340000 		.4byte	0x341d
 10687 3419 23340000 		.4byte	0x3423
 10688 341d 28       		.uleb128 0x28
 10689 341e 62520000 		.4byte	0x5262
 10690 3422 00       		.byte	0
 10691 3423 07       		.uleb128 0x7
 10692 3424 202F0000 		.4byte	0x2f20
 10693 3428 3F       		.uleb128 0x3f
 10694 3429 656E6400 		.ascii	"end\000"
 10695 342d 2E       		.byte	0x2e
 10696 342e E401     		.2byte	0x1e4
 10697 3430 6D440000 		.4byte	.LASF596
 10698 3434 23340000 		.4byte	0x3423
 10699 3438 01       		.byte	0x1
 10700 3439 41340000 		.4byte	0x3441
 10701 343d 47340000 		.4byte	0x3447
 10702 3441 28       		.uleb128 0x28
 10703 3442 62520000 		.4byte	0x5262
 10704 3446 00       		.byte	0
 10705 3447 3E       		.uleb128 0x3e
 10706 3448 EF120000 		.4byte	.LASF383
 10707 344c 2E       		.byte	0x2e
 10708 344d E801     		.2byte	0x1e8
 10709 344f 08450000 		.4byte	.LASF597
 10710 3453 01       		.byte	0x1
 10711 3454 5C340000 		.4byte	0x345c
 10712 3458 67340000 		.4byte	0x3467
 10713 345c 28       		.uleb128 0x28
 10714 345d 62520000 		.4byte	0x5262
 10715 3461 13       		.uleb128 0x13
 10716 3462 80520000 		.4byte	0x5280
 10717 3466 00       		.byte	0
 10718 3467 3D       		.uleb128 0x3d
 10719 3468 DB620000 		.4byte	.LASF381
 10720 346c 2E       		.byte	0x2e
 10721 346d EC01     		.2byte	0x1ec
 10722 346f D5310000 		.4byte	.LASF598
 10723 3473 86340000 		.4byte	0x3486
 10724 3477 01       		.byte	0x1
 10725 3478 80340000 		.4byte	0x3480
 10726 347c 86340000 		.4byte	0x3486
ARM GAS  /tmp/ccypRU8x.s 			page 192


 10727 3480 28       		.uleb128 0x28
 10728 3481 5C520000 		.4byte	0x525c
 10729 3485 00       		.byte	0
 10730 3486 07       		.uleb128 0x7
 10731 3487 252F0000 		.4byte	0x2f25
 10732 348b 3F       		.uleb128 0x3f
 10733 348c 656E6400 		.ascii	"end\000"
 10734 3490 2E       		.byte	0x2e
 10735 3491 F201     		.2byte	0x1f2
 10736 3493 7F5D0000 		.4byte	.LASF599
 10737 3497 86340000 		.4byte	0x3486
 10738 349b 01       		.byte	0x1
 10739 349c A4340000 		.4byte	0x34a4
 10740 34a0 AA340000 		.4byte	0x34aa
 10741 34a4 28       		.uleb128 0x28
 10742 34a5 5C520000 		.4byte	0x525c
 10743 34a9 00       		.byte	0
 10744 34aa 3E       		.uleb128 0x3e
 10745 34ab EF120000 		.4byte	.LASF383
 10746 34af 2E       		.byte	0x2e
 10747 34b0 F601     		.2byte	0x1f6
 10748 34b2 4E370000 		.4byte	.LASF600
 10749 34b6 01       		.byte	0x1
 10750 34b7 BF340000 		.4byte	0x34bf
 10751 34bb CA340000 		.4byte	0x34ca
 10752 34bf 28       		.uleb128 0x28
 10753 34c0 5C520000 		.4byte	0x525c
 10754 34c4 13       		.uleb128 0x13
 10755 34c5 86520000 		.4byte	0x5286
 10756 34c9 00       		.byte	0
 10757 34ca 40       		.uleb128 0x40
 10758 34cb 41110000 		.4byte	.LASF389
 10759 34cf 2E       		.byte	0x2e
 10760 34d0 FA01     		.2byte	0x1fa
 10761 34d2 62520000 		.4byte	0x5262
 10762 34d6 01       		.byte	0x1
 10763 34d7 DF340000 		.4byte	0x34df
 10764 34db E5340000 		.4byte	0x34e5
 10765 34df 28       		.uleb128 0x28
 10766 34e0 62520000 		.4byte	0x5262
 10767 34e4 00       		.byte	0
 10768 34e5 07       		.uleb128 0x7
 10769 34e6 112F0000 		.4byte	0x2f11
 10770 34ea 41       		.uleb128 0x41
 10771 34eb 391C0000 		.4byte	.LASF390
 10772 34ef 2D2E0000 		.4byte	0x2e2d
 10773 34f3 00       		.byte	0
 10774 34f4 07       		.uleb128 0x7
 10775 34f5 2D2E0000 		.4byte	0x2e2d
 10776 34f9 07       		.uleb128 0x7
 10777 34fa B22E0000 		.4byte	0x2eb2
 10778 34fe 26       		.uleb128 0x26
 10779 34ff 491C0000 		.4byte	.LASF601
 10780 3503 14       		.byte	0x14
 10781 3504 10       		.byte	0x10
 10782 3505 09       		.byte	0x9
 10783 3506 7E360000 		.4byte	0x367e
ARM GAS  /tmp/ccypRU8x.s 			page 193


 10784 350a 2B       		.uleb128 0x2b
 10785 350b 65110000 		.4byte	0x1165
 10786 350f 00       		.byte	0
 10787 3510 0C       		.uleb128 0xc
 10788 3511 27160000 		.4byte	.LASF602
 10789 3515 10       		.byte	0x10
 10790 3516 0B       		.byte	0xb
 10791 3517 91520000 		.4byte	0x5291
 10792 351b 00       		.byte	0
 10793 351c 0C       		.uleb128 0xc
 10794 351d 48070000 		.4byte	.LASF603
 10795 3521 10       		.byte	0x10
 10796 3522 0C       		.byte	0xc
 10797 3523 25000000 		.4byte	0x25
 10798 3527 04       		.byte	0x4
 10799 3528 0C       		.uleb128 0xc
 10800 3529 CB340000 		.4byte	.LASF368
 10801 352d 10       		.byte	0x10
 10802 352e 0D       		.byte	0xd
 10803 352f 25000000 		.4byte	0x25
 10804 3533 08       		.byte	0x8
 10805 3534 0C       		.uleb128 0xc
 10806 3535 27140000 		.4byte	.LASF314
 10807 3539 10       		.byte	0x10
 10808 353a 0E       		.byte	0xe
 10809 353b 91520000 		.4byte	0x5291
 10810 353f 0C       		.byte	0xc
 10811 3540 0C       		.uleb128 0xc
 10812 3541 BE230000 		.4byte	.LASF604
 10813 3545 10       		.byte	0x10
 10814 3546 0F       		.byte	0xf
 10815 3547 91520000 		.4byte	0x5291
 10816 354b 10       		.byte	0x10
 10817 354c 2E       		.uleb128 0x2e
 10818 354d 28500000 		.4byte	.LASF605
 10819 3551 10       		.byte	0x10
 10820 3552 25       		.byte	0x25
 10821 3553 6C420000 		.4byte	.LASF606
 10822 3557 2D010000 		.4byte	0x12d
 10823 355b 01       		.byte	0x1
 10824 355c 64350000 		.4byte	0x3564
 10825 3560 6F350000 		.4byte	0x356f
 10826 3564 28       		.uleb128 0x28
 10827 3565 97520000 		.4byte	0x5297
 10828 3569 13       		.uleb128 0x13
 10829 356a E5510000 		.4byte	0x51e5
 10830 356e 00       		.byte	0
 10831 356f 2E       		.uleb128 0x2e
 10832 3570 6B360000 		.4byte	.LASF392
 10833 3574 10       		.byte	0x10
 10834 3575 34       		.byte	0x34
 10835 3576 F52B0000 		.4byte	.LASF607
 10836 357a 2D010000 		.4byte	0x12d
 10837 357e 01       		.byte	0x1
 10838 357f 87350000 		.4byte	0x3587
 10839 3583 92350000 		.4byte	0x3592
 10840 3587 28       		.uleb128 0x28
ARM GAS  /tmp/ccypRU8x.s 			page 194


 10841 3588 97520000 		.4byte	0x5297
 10842 358c 13       		.uleb128 0x13
 10843 358d 9D520000 		.4byte	0x529d
 10844 3591 00       		.byte	0
 10845 3592 2E       		.uleb128 0x2e
 10846 3593 C03A0000 		.4byte	.LASF608
 10847 3597 10       		.byte	0x10
 10848 3598 43       		.byte	0x43
 10849 3599 8F130000 		.4byte	.LASF609
 10850 359d 2D010000 		.4byte	0x12d
 10851 35a1 01       		.byte	0x1
 10852 35a2 AA350000 		.4byte	0x35aa
 10853 35a6 B0350000 		.4byte	0x35b0
 10854 35aa 28       		.uleb128 0x28
 10855 35ab 97520000 		.4byte	0x5297
 10856 35af 00       		.byte	0
 10857 35b0 2E       		.uleb128 0x2e
 10858 35b1 4F070000 		.4byte	.LASF610
 10859 35b5 10       		.byte	0x10
 10860 35b6 51       		.byte	0x51
 10861 35b7 071C0000 		.4byte	.LASF611
 10862 35bb 25000000 		.4byte	0x25
 10863 35bf 01       		.byte	0x1
 10864 35c0 C8350000 		.4byte	0x35c8
 10865 35c4 CE350000 		.4byte	0x35ce
 10866 35c8 28       		.uleb128 0x28
 10867 35c9 A3520000 		.4byte	0x52a3
 10868 35cd 00       		.byte	0
 10869 35ce 2E       		.uleb128 0x2e
 10870 35cf 094C0000 		.4byte	.LASF612
 10871 35d3 10       		.byte	0x10
 10872 35d4 58       		.byte	0x58
 10873 35d5 734E0000 		.4byte	.LASF613
 10874 35d9 25000000 		.4byte	0x25
 10875 35dd 01       		.byte	0x1
 10876 35de E6350000 		.4byte	0x35e6
 10877 35e2 EC350000 		.4byte	0x35ec
 10878 35e6 28       		.uleb128 0x28
 10879 35e7 A3520000 		.4byte	0x52a3
 10880 35eb 00       		.byte	0
 10881 35ec 2E       		.uleb128 0x2e
 10882 35ed D84E0000 		.4byte	.LASF614
 10883 35f1 10       		.byte	0x10
 10884 35f2 5F       		.byte	0x5f
 10885 35f3 203F0000 		.4byte	.LASF615
 10886 35f7 2D010000 		.4byte	0x12d
 10887 35fb 01       		.byte	0x1
 10888 35fc 04360000 		.4byte	0x3604
 10889 3600 0F360000 		.4byte	0x360f
 10890 3604 28       		.uleb128 0x28
 10891 3605 97520000 		.4byte	0x5297
 10892 3609 13       		.uleb128 0x13
 10893 360a E5510000 		.4byte	0x51e5
 10894 360e 00       		.byte	0
 10895 360f 2E       		.uleb128 0x2e
 10896 3610 67250000 		.4byte	.LASF616
 10897 3614 10       		.byte	0x10
ARM GAS  /tmp/ccypRU8x.s 			page 195


 10898 3615 69       		.byte	0x69
 10899 3616 60540000 		.4byte	.LASF617
 10900 361a 2D010000 		.4byte	0x12d
 10901 361e 01       		.byte	0x1
 10902 361f 27360000 		.4byte	0x3627
 10903 3623 32360000 		.4byte	0x3632
 10904 3627 28       		.uleb128 0x28
 10905 3628 97520000 		.4byte	0x5297
 10906 362c 13       		.uleb128 0x13
 10907 362d 9D520000 		.4byte	0x529d
 10908 3631 00       		.byte	0
 10909 3632 2E       		.uleb128 0x2e
 10910 3633 22180000 		.4byte	.LASF618
 10911 3637 10       		.byte	0x10
 10912 3638 73       		.byte	0x73
 10913 3639 AE4E0000 		.4byte	.LASF619
 10914 363d 2D010000 		.4byte	0x12d
 10915 3641 01       		.byte	0x1
 10916 3642 4A360000 		.4byte	0x364a
 10917 3646 50360000 		.4byte	0x3650
 10918 364a 28       		.uleb128 0x28
 10919 364b 97520000 		.4byte	0x5297
 10920 364f 00       		.byte	0
 10921 3650 29       		.uleb128 0x29
 10922 3651 D6520000 		.4byte	.LASF620
 10923 3655 10       		.byte	0x10
 10924 3656 7D       		.byte	0x7d
 10925 3657 97520000 		.4byte	0x5297
 10926 365b 01       		.byte	0x1
 10927 365c 64360000 		.4byte	0x3664
 10928 3660 74360000 		.4byte	0x3674
 10929 3664 28       		.uleb128 0x28
 10930 3665 97520000 		.4byte	0x5297
 10931 3669 13       		.uleb128 0x13
 10932 366a 91520000 		.4byte	0x5291
 10933 366e 13       		.uleb128 0x13
 10934 366f 25000000 		.4byte	0x25
 10935 3673 00       		.byte	0
 10936 3674 41       		.uleb128 0x41
 10937 3675 391C0000 		.4byte	.LASF390
 10938 3679 E5510000 		.4byte	0x51e5
 10939 367d 00       		.byte	0
 10940 367e 07       		.uleb128 0x7
 10941 367f FE340000 		.4byte	0x34fe
 10942 3683 26       		.uleb128 0x26
 10943 3684 C9620000 		.4byte	.LASF621
 10944 3688 4C       		.byte	0x4c
 10945 3689 08       		.byte	0x8
 10946 368a 0C       		.byte	0xc
 10947 368b 25380000 		.4byte	0x3825
 10948 368f 0C       		.uleb128 0xc
 10949 3690 691C0000 		.4byte	.LASF259
 10950 3694 08       		.byte	0x8
 10951 3695 0E       		.byte	0xe
 10952 3696 97010000 		.4byte	0x197
 10953 369a 00       		.byte	0
 10954 369b 2D       		.uleb128 0x2d
ARM GAS  /tmp/ccypRU8x.s 			page 196


 10955 369c C13F0000 		.4byte	.LASF622
 10956 36a0 08       		.byte	0x8
 10957 36a1 1C       		.byte	0x1c
 10958 36a2 60010000 		.4byte	0x160
 10959 36a6 01       		.byte	0x1
 10960 36a7 2D       		.uleb128 0x2d
 10961 36a8 C0350000 		.4byte	.LASF623
 10962 36ac 08       		.byte	0x8
 10963 36ad 1D       		.byte	0x1d
 10964 36ae 6E060000 		.4byte	0x66e
 10965 36b2 01       		.byte	0x1
 10966 36b3 2E       		.uleb128 0x2e
 10967 36b4 DB3A0000 		.4byte	.LASF470
 10968 36b8 08       		.byte	0x8
 10969 36b9 22       		.byte	0x22
 10970 36ba A4200000 		.4byte	.LASF624
 10971 36be CE000000 		.4byte	0xce
 10972 36c2 01       		.byte	0x1
 10973 36c3 CB360000 		.4byte	0x36cb
 10974 36c7 D1360000 		.4byte	0x36d1
 10975 36cb 28       		.uleb128 0x28
 10976 36cc AE520000 		.4byte	0x52ae
 10977 36d0 00       		.byte	0
 10978 36d1 2E       		.uleb128 0x2e
 10979 36d2 BD250000 		.4byte	.LASF274
 10980 36d6 08       		.byte	0x8
 10981 36d7 24       		.byte	0x24
 10982 36d8 AF500000 		.4byte	.LASF625
 10983 36dc B4520000 		.4byte	0x52b4
 10984 36e0 01       		.byte	0x1
 10985 36e1 E9360000 		.4byte	0x36e9
 10986 36e5 EF360000 		.4byte	0x36ef
 10987 36e9 28       		.uleb128 0x28
 10988 36ea BA520000 		.4byte	0x52ba
 10989 36ee 00       		.byte	0
 10990 36ef 27       		.uleb128 0x27
 10991 36f0 C9620000 		.4byte	.LASF621
 10992 36f4 08       		.byte	0x8
 10993 36f5 27       		.byte	0x27
 10994 36f6 BA520000 		.4byte	0x52ba
 10995 36fa 02370000 		.4byte	0x3702
 10996 36fe 08370000 		.4byte	0x3708
 10997 3702 28       		.uleb128 0x28
 10998 3703 BA520000 		.4byte	0x52ba
 10999 3707 00       		.byte	0
 11000 3708 48       		.uleb128 0x48
 11001 3709 86190000 		.4byte	.LASF626
 11002 370d 08       		.byte	0x8
 11003 370e 2A       		.byte	0x2a
 11004 370f A6600000 		.4byte	.LASF627
 11005 3713 25000000 		.4byte	0x25
 11006 3717 01       		.byte	0x1
 11007 3718 22370000 		.4byte	0x3722
 11008 371c 13       		.uleb128 0x13
 11009 371d 25000000 		.4byte	0x25
 11010 3721 00       		.byte	0
 11011 3722 48       		.uleb128 0x48
ARM GAS  /tmp/ccypRU8x.s 			page 197


 11012 3723 0B2A0000 		.4byte	.LASF628
 11013 3727 08       		.byte	0x8
 11014 3728 2B       		.byte	0x2b
 11015 3729 AB410000 		.4byte	.LASF629
 11016 372d BA520000 		.4byte	0x52ba
 11017 3731 01       		.byte	0x1
 11018 3732 55370000 		.4byte	0x3755
 11019 3736 13       		.uleb128 0x13
 11020 3737 BF000000 		.4byte	0xbf
 11021 373b 13       		.uleb128 0x13
 11022 373c 25000000 		.4byte	0x25
 11023 3740 13       		.uleb128 0x13
 11024 3741 9B360000 		.4byte	0x369b
 11025 3745 13       		.uleb128 0x13
 11026 3746 A7360000 		.4byte	0x36a7
 11027 374a 13       		.uleb128 0x13
 11028 374b BF000000 		.4byte	0xbf
 11029 374f 13       		.uleb128 0x13
 11030 3750 CE000000 		.4byte	0xce
 11031 3754 00       		.byte	0
 11032 3755 48       		.uleb128 0x48
 11033 3756 0D3E0000 		.4byte	.LASF630
 11034 375a 08       		.byte	0x8
 11035 375b 2F       		.byte	0x2f
 11036 375c 0D5A0000 		.4byte	.LASF631
 11037 3760 BA520000 		.4byte	0x52ba
 11038 3764 01       		.byte	0x1
 11039 3765 88370000 		.4byte	0x3788
 11040 3769 13       		.uleb128 0x13
 11041 376a BF000000 		.4byte	0xbf
 11042 376e 13       		.uleb128 0x13
 11043 376f 25000000 		.4byte	0x25
 11044 3773 13       		.uleb128 0x13
 11045 3774 9B360000 		.4byte	0x369b
 11046 3778 13       		.uleb128 0x13
 11047 3779 A7360000 		.4byte	0x36a7
 11048 377d 13       		.uleb128 0x13
 11049 377e BF000000 		.4byte	0xbf
 11050 3782 13       		.uleb128 0x13
 11051 3783 CE000000 		.4byte	0xce
 11052 3787 00       		.byte	0
 11053 3788 48       		.uleb128 0x48
 11054 3789 0D3B0000 		.4byte	.LASF632
 11055 378d 08       		.byte	0x8
 11056 378e 32       		.byte	0x32
 11057 378f 59300000 		.4byte	.LASF633
 11058 3793 BA520000 		.4byte	0x52ba
 11059 3797 01       		.byte	0x1
 11060 3798 B6370000 		.4byte	0x37b6
 11061 379c 13       		.uleb128 0x13
 11062 379d C0520000 		.4byte	0x52c0
 11063 37a1 13       		.uleb128 0x13
 11064 37a2 9B360000 		.4byte	0x369b
 11065 37a6 13       		.uleb128 0x13
 11066 37a7 A7360000 		.4byte	0x36a7
 11067 37ab 13       		.uleb128 0x13
 11068 37ac BF000000 		.4byte	0xbf
ARM GAS  /tmp/ccypRU8x.s 			page 198


 11069 37b0 13       		.uleb128 0x13
 11070 37b1 CE000000 		.4byte	0xce
 11071 37b5 00       		.byte	0
 11072 37b6 4D       		.uleb128 0x4d
 11073 37b7 78460000 		.4byte	.LASF634
 11074 37bb 08       		.byte	0x8
 11075 37bc 35       		.byte	0x35
 11076 37bd 09090000 		.4byte	.LASF636
 11077 37c1 C6520000 		.4byte	0x52c6
 11078 37c5 01       		.byte	0x1
 11079 37c6 4D       		.uleb128 0x4d
 11080 37c7 AC430000 		.4byte	.LASF635
 11081 37cb 08       		.byte	0x8
 11082 37cc 36       		.byte	0x36
 11083 37cd DF420000 		.4byte	.LASF637
 11084 37d1 9B360000 		.4byte	0x369b
 11085 37d5 01       		.byte	0x1
 11086 37d6 47       		.uleb128 0x47
 11087 37d7 470D0000 		.4byte	.LASF638
 11088 37db 08       		.byte	0x8
 11089 37dc 37       		.byte	0x37
 11090 37dd E5240000 		.4byte	.LASF639
 11091 37e1 01       		.byte	0x1
 11092 37e2 EC370000 		.4byte	0x37ec
 11093 37e6 13       		.uleb128 0x13
 11094 37e7 9B360000 		.4byte	0x369b
 11095 37eb 00       		.byte	0
 11096 37ec 2C       		.uleb128 0x2c
 11097 37ed C6250000 		.4byte	.LASF640
 11098 37f1 08       		.byte	0x8
 11099 37f2 38       		.byte	0x38
 11100 37f3 78380000 		.4byte	.LASF641
 11101 37f7 01       		.byte	0x1
 11102 37f8 47       		.uleb128 0x47
 11103 37f9 14540000 		.4byte	.LASF642
 11104 37fd 08       		.byte	0x8
 11105 37fe 39       		.byte	0x39
 11106 37ff 2B470000 		.4byte	.LASF643
 11107 3803 01       		.byte	0x1
 11108 3804 0E380000 		.4byte	0x380e
 11109 3808 13       		.uleb128 0x13
 11110 3809 76500000 		.4byte	0x5076
 11111 380d 00       		.byte	0
 11112 380e 46       		.uleb128 0x46
 11113 380f D3540000 		.4byte	.LASF644
 11114 3813 08       		.byte	0x8
 11115 3814 3A       		.byte	0x3a
 11116 3815 B1340000 		.4byte	.LASF645
 11117 3819 2D010000 		.4byte	0x12d
 11118 381d 01       		.byte	0x1
 11119 381e 13       		.uleb128 0x13
 11120 381f C6520000 		.4byte	0x52c6
 11121 3823 00       		.byte	0
 11122 3824 00       		.byte	0
 11123 3825 07       		.uleb128 0x7
 11124 3826 83360000 		.4byte	0x3683
 11125 382a 26       		.uleb128 0x26
ARM GAS  /tmp/ccypRU8x.s 			page 199


 11126 382b D31A0000 		.4byte	.LASF35
 11127 382f 4C       		.byte	0x4c
 11128 3830 09       		.byte	0x9
 11129 3831 0C       		.byte	0xc
 11130 3832 BB390000 		.4byte	0x39bb
 11131 3836 4E       		.uleb128 0x4e
 11132 3837 62190000 		.4byte	.LASF937
 11133 383b 01       		.byte	0x1
 11134 383c 09       		.byte	0x9
 11135 383d 0E       		.byte	0xe
 11136 383e 01       		.byte	0x1
 11137 383f 6B380000 		.4byte	0x386b
 11138 3843 1B       		.uleb128 0x1b
 11139 3844 E1170000 		.4byte	.LASF646
 11140 3848 00       		.sleb128 0
 11141 3849 1B       		.uleb128 0x1b
 11142 384a 861C0000 		.4byte	.LASF647
 11143 384e 01       		.sleb128 1
 11144 384f 1B       		.uleb128 0x1b
 11145 3850 32210000 		.4byte	.LASF648
 11146 3854 02       		.sleb128 2
 11147 3855 1B       		.uleb128 0x1b
 11148 3856 8D240000 		.4byte	.LASF649
 11149 385a C000     		.sleb128 64
 11150 385c 1B       		.uleb128 0x1b
 11151 385d 1A120000 		.4byte	.LASF650
 11152 3861 FE00     		.sleb128 126
 11153 3863 1B       		.uleb128 0x1b
 11154 3864 57590000 		.4byte	.LASF651
 11155 3868 FF00     		.sleb128 127
 11156 386a 00       		.byte	0
 11157 386b 2B       		.uleb128 0x2b
 11158 386c 65110000 		.4byte	0x1165
 11159 3870 00       		.byte	0
 11160 3871 0C       		.uleb128 0xc
 11161 3872 691C0000 		.4byte	.LASF259
 11162 3876 09       		.byte	0x9
 11163 3877 1F       		.byte	0x1f
 11164 3878 83360000 		.4byte	0x3683
 11165 387c 00       		.byte	0
 11166 387d 2D       		.uleb128 0x2d
 11167 387e C13F0000 		.4byte	.LASF622
 11168 3882 09       		.byte	0x9
 11169 3883 19       		.byte	0x19
 11170 3884 9B360000 		.4byte	0x369b
 11171 3888 01       		.byte	0x1
 11172 3889 2D       		.uleb128 0x2d
 11173 388a C0350000 		.4byte	.LASF623
 11174 388e 09       		.byte	0x9
 11175 388f 1A       		.byte	0x1a
 11176 3890 A7360000 		.4byte	0x36a7
 11177 3894 01       		.byte	0x1
 11178 3895 2E       		.uleb128 0x2e
 11179 3896 DB3A0000 		.4byte	.LASF470
 11180 389a 09       		.byte	0x9
 11181 389b 23       		.byte	0x23
 11182 389c E2000000 		.4byte	.LASF652
ARM GAS  /tmp/ccypRU8x.s 			page 200


 11183 38a0 CE000000 		.4byte	0xce
 11184 38a4 01       		.byte	0x1
 11185 38a5 AD380000 		.4byte	0x38ad
 11186 38a9 B3380000 		.4byte	0x38b3
 11187 38ad 28       		.uleb128 0x28
 11188 38ae CC520000 		.4byte	0x52cc
 11189 38b2 00       		.byte	0
 11190 38b3 27       		.uleb128 0x27
 11191 38b4 D31A0000 		.4byte	.LASF35
 11192 38b8 09       		.byte	0x9
 11193 38b9 26       		.byte	0x26
 11194 38ba D2520000 		.4byte	0x52d2
 11195 38be C6380000 		.4byte	0x38c6
 11196 38c2 CC380000 		.4byte	0x38cc
 11197 38c6 28       		.uleb128 0x28
 11198 38c7 D2520000 		.4byte	0x52d2
 11199 38cb 00       		.byte	0
 11200 38cc 48       		.uleb128 0x48
 11201 38cd 86190000 		.4byte	.LASF626
 11202 38d1 09       		.byte	0x9
 11203 38d2 29       		.byte	0x29
 11204 38d3 20380000 		.4byte	.LASF653
 11205 38d7 25000000 		.4byte	0x25
 11206 38db 01       		.byte	0x1
 11207 38dc E6380000 		.4byte	0x38e6
 11208 38e0 13       		.uleb128 0x13
 11209 38e1 25000000 		.4byte	0x25
 11210 38e5 00       		.byte	0
 11211 38e6 48       		.uleb128 0x48
 11212 38e7 0B2A0000 		.4byte	.LASF628
 11213 38eb 09       		.byte	0x9
 11214 38ec 2A       		.byte	0x2a
 11215 38ed 39430000 		.4byte	.LASF654
 11216 38f1 D2520000 		.4byte	0x52d2
 11217 38f5 01       		.byte	0x1
 11218 38f6 19390000 		.4byte	0x3919
 11219 38fa 13       		.uleb128 0x13
 11220 38fb BF000000 		.4byte	0xbf
 11221 38ff 13       		.uleb128 0x13
 11222 3900 25000000 		.4byte	0x25
 11223 3904 13       		.uleb128 0x13
 11224 3905 7D380000 		.4byte	0x387d
 11225 3909 13       		.uleb128 0x13
 11226 390a 89380000 		.4byte	0x3889
 11227 390e 13       		.uleb128 0x13
 11228 390f BF000000 		.4byte	0xbf
 11229 3913 13       		.uleb128 0x13
 11230 3914 CE000000 		.4byte	0xce
 11231 3918 00       		.byte	0
 11232 3919 48       		.uleb128 0x48
 11233 391a 0D3E0000 		.4byte	.LASF630
 11234 391e 09       		.byte	0x9
 11235 391f 2D       		.byte	0x2d
 11236 3920 E51C0000 		.4byte	.LASF655
 11237 3924 D2520000 		.4byte	0x52d2
 11238 3928 01       		.byte	0x1
 11239 3929 4C390000 		.4byte	0x394c
ARM GAS  /tmp/ccypRU8x.s 			page 201


 11240 392d 13       		.uleb128 0x13
 11241 392e BF000000 		.4byte	0xbf
 11242 3932 13       		.uleb128 0x13
 11243 3933 25000000 		.4byte	0x25
 11244 3937 13       		.uleb128 0x13
 11245 3938 7D380000 		.4byte	0x387d
 11246 393c 13       		.uleb128 0x13
 11247 393d 89380000 		.4byte	0x3889
 11248 3941 13       		.uleb128 0x13
 11249 3942 BF000000 		.4byte	0xbf
 11250 3946 13       		.uleb128 0x13
 11251 3947 CE000000 		.4byte	0xce
 11252 394b 00       		.byte	0
 11253 394c 4D       		.uleb128 0x4d
 11254 394d 78460000 		.4byte	.LASF634
 11255 3951 09       		.byte	0x9
 11256 3952 36       		.byte	0x36
 11257 3953 DC410000 		.4byte	.LASF656
 11258 3957 D8520000 		.4byte	0x52d8
 11259 395b 01       		.byte	0x1
 11260 395c 4D       		.uleb128 0x4d
 11261 395d AC430000 		.4byte	.LASF635
 11262 3961 09       		.byte	0x9
 11263 3962 37       		.byte	0x37
 11264 3963 0A260000 		.4byte	.LASF657
 11265 3967 7D380000 		.4byte	0x387d
 11266 396b 01       		.byte	0x1
 11267 396c 47       		.uleb128 0x47
 11268 396d 470D0000 		.4byte	.LASF638
 11269 3971 09       		.byte	0x9
 11270 3972 38       		.byte	0x38
 11271 3973 E33F0000 		.4byte	.LASF658
 11272 3977 01       		.byte	0x1
 11273 3978 82390000 		.4byte	0x3982
 11274 397c 13       		.uleb128 0x13
 11275 397d 7D380000 		.4byte	0x387d
 11276 3981 00       		.byte	0
 11277 3982 2C       		.uleb128 0x2c
 11278 3983 C6250000 		.4byte	.LASF640
 11279 3987 09       		.byte	0x9
 11280 3988 39       		.byte	0x39
 11281 3989 71150000 		.4byte	.LASF659
 11282 398d 01       		.byte	0x1
 11283 398e 47       		.uleb128 0x47
 11284 398f 14540000 		.4byte	.LASF642
 11285 3993 09       		.byte	0x9
 11286 3994 3A       		.byte	0x3a
 11287 3995 204A0000 		.4byte	.LASF660
 11288 3999 01       		.byte	0x1
 11289 399a A4390000 		.4byte	0x39a4
 11290 399e 13       		.uleb128 0x13
 11291 399f 76500000 		.4byte	0x5076
 11292 39a3 00       		.byte	0
 11293 39a4 46       		.uleb128 0x46
 11294 39a5 D3540000 		.4byte	.LASF644
 11295 39a9 09       		.byte	0x9
 11296 39aa 3B       		.byte	0x3b
ARM GAS  /tmp/ccypRU8x.s 			page 202


 11297 39ab 90380000 		.4byte	.LASF661
 11298 39af 2D010000 		.4byte	0x12d
 11299 39b3 01       		.byte	0x1
 11300 39b4 13       		.uleb128 0x13
 11301 39b5 D8520000 		.4byte	0x52d8
 11302 39b9 00       		.byte	0
 11303 39ba 00       		.byte	0
 11304 39bb 07       		.uleb128 0x7
 11305 39bc 2A380000 		.4byte	0x382a
 11306 39c0 26       		.uleb128 0x26
 11307 39c1 7B190000 		.4byte	.LASF662
 11308 39c5 04       		.byte	0x4
 11309 39c6 0A       		.byte	0xa
 11310 39c7 0B       		.byte	0xb
 11311 39c8 A93A0000 		.4byte	0x3aa9
 11312 39cc 0C       		.uleb128 0xc
 11313 39cd 75160000 		.4byte	.LASF663
 11314 39d1 0A       		.byte	0xa
 11315 39d2 13       		.byte	0x13
 11316 39d3 D2520000 		.4byte	0x52d2
 11317 39d7 00       		.byte	0
 11318 39d8 2D       		.uleb128 0x2d
 11319 39d9 C2420000 		.4byte	.LASF664
 11320 39dd 0A       		.byte	0xa
 11321 39de 0D       		.byte	0xd
 11322 39df 76010000 		.4byte	0x176
 11323 39e3 01       		.byte	0x1
 11324 39e4 02       		.uleb128 0x2
 11325 39e5 58450000 		.4byte	.LASF665
 11326 39e9 0A       		.byte	0xa
 11327 39ea 10       		.byte	0x10
 11328 39eb 97010000 		.4byte	0x197
 11329 39ef 2E       		.uleb128 0x2e
 11330 39f0 6F020000 		.4byte	.LASF666
 11331 39f4 0A       		.byte	0xa
 11332 39f5 16       		.byte	0x16
 11333 39f6 8A040000 		.4byte	.LASF667
 11334 39fa D2520000 		.4byte	0x52d2
 11335 39fe 01       		.byte	0x1
 11336 39ff 073A0000 		.4byte	0x3a07
 11337 3a03 0D3A0000 		.4byte	0x3a0d
 11338 3a07 28       		.uleb128 0x28
 11339 3a08 DE520000 		.4byte	0x52de
 11340 3a0c 00       		.byte	0
 11341 3a0d 2F       		.uleb128 0x2f
 11342 3a0e C81E0000 		.4byte	.LASF668
 11343 3a12 0A       		.byte	0xa
 11344 3a13 17       		.byte	0x17
 11345 3a14 62130000 		.4byte	.LASF669
 11346 3a18 01       		.byte	0x1
 11347 3a19 213A0000 		.4byte	0x3a21
 11348 3a1d 2C3A0000 		.4byte	0x3a2c
 11349 3a21 28       		.uleb128 0x28
 11350 3a22 E4520000 		.4byte	0x52e4
 11351 3a26 13       		.uleb128 0x13
 11352 3a27 D2520000 		.4byte	0x52d2
 11353 3a2b 00       		.byte	0
ARM GAS  /tmp/ccypRU8x.s 			page 203


 11354 3a2c 2F       		.uleb128 0x2f
 11355 3a2d C3160000 		.4byte	.LASF670
 11356 3a31 0A       		.byte	0xa
 11357 3a32 19       		.byte	0x19
 11358 3a33 0D490000 		.4byte	.LASF671
 11359 3a37 01       		.byte	0x1
 11360 3a38 403A0000 		.4byte	0x3a40
 11361 3a3c 4B3A0000 		.4byte	0x3a4b
 11362 3a40 28       		.uleb128 0x28
 11363 3a41 E4520000 		.4byte	0x52e4
 11364 3a45 13       		.uleb128 0x13
 11365 3a46 30000000 		.4byte	0x30
 11366 3a4a 00       		.byte	0
 11367 3a4b 2F       		.uleb128 0x2f
 11368 3a4c E1080000 		.4byte	.LASF672
 11369 3a50 0A       		.byte	0xa
 11370 3a51 1B       		.byte	0x1b
 11371 3a52 22300000 		.4byte	.LASF673
 11372 3a56 01       		.byte	0x1
 11373 3a57 5F3A0000 		.4byte	0x3a5f
 11374 3a5b 6A3A0000 		.4byte	0x3a6a
 11375 3a5f 28       		.uleb128 0x28
 11376 3a60 E4520000 		.4byte	0x52e4
 11377 3a64 13       		.uleb128 0x13
 11378 3a65 30000000 		.4byte	0x30
 11379 3a69 00       		.byte	0
 11380 3a6a 2E       		.uleb128 0x2e
 11381 3a6b 9F050000 		.4byte	.LASF674
 11382 3a6f 0A       		.byte	0xa
 11383 3a70 1C       		.byte	0x1c
 11384 3a71 CF2E0000 		.4byte	.LASF675
 11385 3a75 D8390000 		.4byte	0x39d8
 11386 3a79 01       		.byte	0x1
 11387 3a7a 823A0000 		.4byte	0x3a82
 11388 3a7e 8D3A0000 		.4byte	0x3a8d
 11389 3a82 28       		.uleb128 0x28
 11390 3a83 E4520000 		.4byte	0x52e4
 11391 3a87 13       		.uleb128 0x13
 11392 3a88 76500000 		.4byte	0x5076
 11393 3a8c 00       		.byte	0
 11394 3a8d 2A       		.uleb128 0x2a
 11395 3a8e 7B190000 		.4byte	.LASF662
 11396 3a92 0A       		.byte	0xa
 11397 3a93 1F       		.byte	0x1f
 11398 3a94 E4520000 		.4byte	0x52e4
 11399 3a98 01       		.byte	0x1
 11400 3a99 9D3A0000 		.4byte	0x3a9d
 11401 3a9d 28       		.uleb128 0x28
 11402 3a9e E4520000 		.4byte	0x52e4
 11403 3aa2 13       		.uleb128 0x13
 11404 3aa3 D2520000 		.4byte	0x52d2
 11405 3aa7 00       		.byte	0
 11406 3aa8 00       		.byte	0
 11407 3aa9 07       		.uleb128 0x7
 11408 3aaa C0390000 		.4byte	0x39c0
 11409 3aae 26       		.uleb128 0x26
 11410 3aaf 2E4C0000 		.4byte	.LASF676
ARM GAS  /tmp/ccypRU8x.s 			page 204


 11411 3ab3 04       		.byte	0x4
 11412 3ab4 0B       		.byte	0xb
 11413 3ab5 0B       		.byte	0xb
 11414 3ab6 923B0000 		.4byte	0x3b92
 11415 3aba 2B       		.uleb128 0x2b
 11416 3abb 65110000 		.4byte	0x1165
 11417 3abf 00       		.byte	0
 11418 3ac0 0C       		.uleb128 0xc
 11419 3ac1 691C0000 		.4byte	.LASF259
 11420 3ac5 0B       		.byte	0xb
 11421 3ac6 12       		.byte	0x12
 11422 3ac7 C0390000 		.4byte	0x39c0
 11423 3acb 00       		.byte	0
 11424 3acc 2D       		.uleb128 0x2d
 11425 3acd C2420000 		.4byte	.LASF664
 11426 3ad1 0B       		.byte	0xb
 11427 3ad2 0D       		.byte	0xd
 11428 3ad3 D8390000 		.4byte	0x39d8
 11429 3ad7 01       		.byte	0x1
 11430 3ad8 2E       		.uleb128 0x2e
 11431 3ad9 6F020000 		.4byte	.LASF666
 11432 3add 0B       		.byte	0xb
 11433 3ade 15       		.byte	0x15
 11434 3adf 6C010000 		.4byte	.LASF677
 11435 3ae3 D2520000 		.4byte	0x52d2
 11436 3ae7 01       		.byte	0x1
 11437 3ae8 F03A0000 		.4byte	0x3af0
 11438 3aec F63A0000 		.4byte	0x3af6
 11439 3af0 28       		.uleb128 0x28
 11440 3af1 EA520000 		.4byte	0x52ea
 11441 3af5 00       		.byte	0
 11442 3af6 2F       		.uleb128 0x2f
 11443 3af7 C81E0000 		.4byte	.LASF668
 11444 3afb 0B       		.byte	0xb
 11445 3afc 16       		.byte	0x16
 11446 3afd 96300000 		.4byte	.LASF678
 11447 3b01 01       		.byte	0x1
 11448 3b02 0A3B0000 		.4byte	0x3b0a
 11449 3b06 153B0000 		.4byte	0x3b15
 11450 3b0a 28       		.uleb128 0x28
 11451 3b0b F0520000 		.4byte	0x52f0
 11452 3b0f 13       		.uleb128 0x13
 11453 3b10 D2520000 		.4byte	0x52d2
 11454 3b14 00       		.byte	0
 11455 3b15 2F       		.uleb128 0x2f
 11456 3b16 C3160000 		.4byte	.LASF670
 11457 3b1a 0B       		.byte	0xb
 11458 3b1b 18       		.byte	0x18
 11459 3b1c EB2F0000 		.4byte	.LASF679
 11460 3b20 01       		.byte	0x1
 11461 3b21 293B0000 		.4byte	0x3b29
 11462 3b25 343B0000 		.4byte	0x3b34
 11463 3b29 28       		.uleb128 0x28
 11464 3b2a F0520000 		.4byte	0x52f0
 11465 3b2e 13       		.uleb128 0x13
 11466 3b2f 30000000 		.4byte	0x30
 11467 3b33 00       		.byte	0
ARM GAS  /tmp/ccypRU8x.s 			page 205


 11468 3b34 2F       		.uleb128 0x2f
 11469 3b35 E1080000 		.4byte	.LASF672
 11470 3b39 0B       		.byte	0xb
 11471 3b3a 1A       		.byte	0x1a
 11472 3b3b 57060000 		.4byte	.LASF680
 11473 3b3f 01       		.byte	0x1
 11474 3b40 483B0000 		.4byte	0x3b48
 11475 3b44 533B0000 		.4byte	0x3b53
 11476 3b48 28       		.uleb128 0x28
 11477 3b49 F0520000 		.4byte	0x52f0
 11478 3b4d 13       		.uleb128 0x13
 11479 3b4e 30000000 		.4byte	0x30
 11480 3b52 00       		.byte	0
 11481 3b53 2E       		.uleb128 0x2e
 11482 3b54 9F050000 		.4byte	.LASF674
 11483 3b58 0B       		.byte	0xb
 11484 3b59 1B       		.byte	0x1b
 11485 3b5a 31620000 		.4byte	.LASF681
 11486 3b5e CC3A0000 		.4byte	0x3acc
 11487 3b62 01       		.byte	0x1
 11488 3b63 6B3B0000 		.4byte	0x3b6b
 11489 3b67 763B0000 		.4byte	0x3b76
 11490 3b6b 28       		.uleb128 0x28
 11491 3b6c F0520000 		.4byte	0x52f0
 11492 3b70 13       		.uleb128 0x13
 11493 3b71 76500000 		.4byte	0x5076
 11494 3b75 00       		.byte	0
 11495 3b76 2A       		.uleb128 0x2a
 11496 3b77 2E4C0000 		.4byte	.LASF676
 11497 3b7b 0B       		.byte	0xb
 11498 3b7c 1E       		.byte	0x1e
 11499 3b7d F0520000 		.4byte	0x52f0
 11500 3b81 01       		.byte	0x1
 11501 3b82 863B0000 		.4byte	0x3b86
 11502 3b86 28       		.uleb128 0x28
 11503 3b87 F0520000 		.4byte	0x52f0
 11504 3b8b 13       		.uleb128 0x13
 11505 3b8c D2520000 		.4byte	0x52d2
 11506 3b90 00       		.byte	0
 11507 3b91 00       		.byte	0
 11508 3b92 07       		.uleb128 0x7
 11509 3b93 AE3A0000 		.4byte	0x3aae
 11510 3b97 26       		.uleb128 0x26
 11511 3b98 B75A0000 		.4byte	.LASF682
 11512 3b9c 04       		.byte	0x4
 11513 3b9d 2E       		.byte	0x2e
 11514 3b9e 0F       		.byte	0xf
 11515 3b9f D9410000 		.4byte	0x41d9
 11516 3ba3 2B       		.uleb128 0x2b
 11517 3ba4 65110000 		.4byte	0x1165
 11518 3ba8 00       		.byte	0
 11519 3ba9 36       		.uleb128 0x36
 11520 3baa A5580000 		.4byte	.LASF313
 11521 3bae 08       		.byte	0x8
 11522 3baf 2E       		.byte	0x2e
 11523 3bb0 11       		.byte	0x11
 11524 3bb1 01       		.byte	0x1
ARM GAS  /tmp/ccypRU8x.s 			page 206


 11525 3bb2 E93B0000 		.4byte	0x3be9
 11526 3bb6 0C       		.uleb128 0xc
 11527 3bb7 C42E0000 		.4byte	.LASF311
 11528 3bbb 2E       		.byte	0x2e
 11529 3bbc 12       		.byte	0x12
 11530 3bbd F6520000 		.4byte	0x52f6
 11531 3bc1 00       		.byte	0
 11532 3bc2 0C       		.uleb128 0xc
 11533 3bc3 8E1A0000 		.4byte	.LASF312
 11534 3bc7 2E       		.byte	0x2e
 11535 3bc8 13       		.byte	0x13
 11536 3bc9 67530000 		.4byte	0x5367
 11537 3bcd 04       		.byte	0x4
 11538 3bce 37       		.uleb128 0x37
 11539 3bcf A5580000 		.4byte	.LASF313
 11540 3bd3 2E       		.byte	0x2e
 11541 3bd4 15       		.byte	0x15
 11542 3bd5 F6520000 		.4byte	0x52f6
 11543 3bd9 DD3B0000 		.4byte	0x3bdd
 11544 3bdd 28       		.uleb128 0x28
 11545 3bde F6520000 		.4byte	0x52f6
 11546 3be2 13       		.uleb128 0x13
 11547 3be3 6C530000 		.4byte	0x536c
 11548 3be7 00       		.byte	0
 11549 3be8 00       		.byte	0
 11550 3be9 19       		.uleb128 0x19
 11551 3bea 27140000 		.4byte	.LASF314
 11552 3bee 2E       		.byte	0x2e
 11553 3bef 8A01     		.2byte	0x18a
 11554 3bf1 F6520000 		.4byte	0x52f6
 11555 3bf5 00       		.byte	0
 11556 3bf6 38       		.uleb128 0x38
 11557 3bf7 6E290000 		.4byte	.LASF561
 11558 3bfb 39       		.uleb128 0x39
 11559 3bfc 11200000 		.4byte	.LASF315
 11560 3c00 39       		.uleb128 0x39
 11561 3c01 0E300000 		.4byte	.LASF316
 11562 3c05 39       		.uleb128 0x39
 11563 3c06 7F510000 		.4byte	.LASF317
 11564 3c0a 3A       		.uleb128 0x3a
 11565 3c0b FF3D0000 		.4byte	.LASF319
 11566 3c0f 04       		.byte	0x4
 11567 3c10 2E       		.byte	0x2e
 11568 3c11 C0       		.byte	0xc0
 11569 3c12 01       		.byte	0x1
 11570 3c13 7A3D0000 		.4byte	0x3d7a
 11571 3c17 0C       		.uleb128 0xc
 11572 3c18 6C150000 		.4byte	.LASF318
 11573 3c1c 2E       		.byte	0x2e
 11574 3c1d C4       		.byte	0xc4
 11575 3c1e 8F530000 		.4byte	0x538f
 11576 3c22 00       		.byte	0
 11577 3c23 29       		.uleb128 0x29
 11578 3c24 FF3D0000 		.4byte	.LASF319
 11579 3c28 2E       		.byte	0x2e
 11580 3c29 C7       		.byte	0xc7
 11581 3c2a 95530000 		.4byte	0x5395
ARM GAS  /tmp/ccypRU8x.s 			page 207


 11582 3c2e 01       		.byte	0x1
 11583 3c2f 373C0000 		.4byte	0x3c37
 11584 3c33 3D3C0000 		.4byte	0x3c3d
 11585 3c37 28       		.uleb128 0x28
 11586 3c38 95530000 		.4byte	0x5395
 11587 3c3c 00       		.byte	0
 11588 3c3d 29       		.uleb128 0x29
 11589 3c3e FF3D0000 		.4byte	.LASF319
 11590 3c42 2E       		.byte	0x2e
 11591 3c43 C8       		.byte	0xc8
 11592 3c44 95530000 		.4byte	0x5395
 11593 3c48 01       		.byte	0x1
 11594 3c49 513C0000 		.4byte	0x3c51
 11595 3c4d 5C3C0000 		.4byte	0x3c5c
 11596 3c51 28       		.uleb128 0x28
 11597 3c52 95530000 		.4byte	0x5395
 11598 3c56 13       		.uleb128 0x13
 11599 3c57 9B530000 		.4byte	0x539b
 11600 3c5b 00       		.byte	0
 11601 3c5c 27       		.uleb128 0x27
 11602 3c5d FF3D0000 		.4byte	.LASF319
 11603 3c61 2E       		.byte	0x2e
 11604 3c62 CB       		.byte	0xcb
 11605 3c63 95530000 		.4byte	0x5395
 11606 3c67 6F3C0000 		.4byte	0x3c6f
 11607 3c6b 7A3C0000 		.4byte	0x3c7a
 11608 3c6f 28       		.uleb128 0x28
 11609 3c70 95530000 		.4byte	0x5395
 11610 3c74 13       		.uleb128 0x13
 11611 3c75 8F530000 		.4byte	0x538f
 11612 3c79 00       		.byte	0
 11613 3c7a 3B       		.uleb128 0x3b
 11614 3c7b E6140000 		.4byte	.LASF298
 11615 3c7f 2E       		.byte	0x2e
 11616 3c80 CE       		.byte	0xce
 11617 3c81 14550000 		.4byte	.LASF683
 11618 3c85 61530000 		.4byte	0x5361
 11619 3c89 913C0000 		.4byte	0x3c91
 11620 3c8d 9C3C0000 		.4byte	0x3c9c
 11621 3c91 28       		.uleb128 0x28
 11622 3c92 95530000 		.4byte	0x5395
 11623 3c96 13       		.uleb128 0x13
 11624 3c97 9B530000 		.4byte	0x539b
 11625 3c9b 00       		.byte	0
 11626 3c9c 2E       		.uleb128 0x2e
 11627 3c9d C4430000 		.4byte	.LASF321
 11628 3ca1 2E       		.byte	0x2e
 11629 3ca2 D4       		.byte	0xd4
 11630 3ca3 361A0000 		.4byte	.LASF684
 11631 3ca7 72530000 		.4byte	0x5372
 11632 3cab 01       		.byte	0x1
 11633 3cac B43C0000 		.4byte	0x3cb4
 11634 3cb0 BA3C0000 		.4byte	0x3cba
 11635 3cb4 28       		.uleb128 0x28
 11636 3cb5 A1530000 		.4byte	0x53a1
 11637 3cb9 00       		.byte	0
 11638 3cba 2E       		.uleb128 0x2e
ARM GAS  /tmp/ccypRU8x.s 			page 208


 11639 3cbb 93140000 		.4byte	.LASF323
 11640 3cbf 2E       		.byte	0x2e
 11641 3cc0 D8       		.byte	0xd8
 11642 3cc1 F4020000 		.4byte	.LASF685
 11643 3cc5 11530000 		.4byte	0x5311
 11644 3cc9 01       		.byte	0x1
 11645 3cca D23C0000 		.4byte	0x3cd2
 11646 3cce D83C0000 		.4byte	0x3cd8
 11647 3cd2 28       		.uleb128 0x28
 11648 3cd3 A1530000 		.4byte	0x53a1
 11649 3cd7 00       		.byte	0
 11650 3cd8 2E       		.uleb128 0x2e
 11651 3cd9 96410000 		.4byte	.LASF325
 11652 3cdd 2E       		.byte	0x2e
 11653 3cde DC       		.byte	0xdc
 11654 3cdf F2610000 		.4byte	.LASF686
 11655 3ce3 61530000 		.4byte	0x5361
 11656 3ce7 01       		.byte	0x1
 11657 3ce8 F03C0000 		.4byte	0x3cf0
 11658 3cec F63C0000 		.4byte	0x3cf6
 11659 3cf0 28       		.uleb128 0x28
 11660 3cf1 95530000 		.4byte	0x5395
 11661 3cf5 00       		.byte	0
 11662 3cf6 2E       		.uleb128 0x2e
 11663 3cf7 96410000 		.4byte	.LASF325
 11664 3cfb 2E       		.byte	0x2e
 11665 3cfc E3       		.byte	0xe3
 11666 3cfd 2A610000 		.4byte	.LASF687
 11667 3d01 6B410000 		.4byte	0x416b
 11668 3d05 01       		.byte	0x1
 11669 3d06 0E3D0000 		.4byte	0x3d0e
 11670 3d0a 193D0000 		.4byte	0x3d19
 11671 3d0e 28       		.uleb128 0x28
 11672 3d0f 95530000 		.4byte	0x5395
 11673 3d13 13       		.uleb128 0x13
 11674 3d14 37000000 		.4byte	0x37
 11675 3d18 00       		.byte	0
 11676 3d19 2E       		.uleb128 0x2e
 11677 3d1a FB600000 		.4byte	.LASF328
 11678 3d1e 2E       		.byte	0x2e
 11679 3d1f EB       		.byte	0xeb
 11680 3d20 CA510000 		.4byte	.LASF688
 11681 3d24 2D010000 		.4byte	0x12d
 11682 3d28 01       		.byte	0x1
 11683 3d29 313D0000 		.4byte	0x3d31
 11684 3d2d 3C3D0000 		.4byte	0x3d3c
 11685 3d31 28       		.uleb128 0x28
 11686 3d32 A1530000 		.4byte	0x53a1
 11687 3d36 13       		.uleb128 0x13
 11688 3d37 9B530000 		.4byte	0x539b
 11689 3d3b 00       		.byte	0
 11690 3d3c 2E       		.uleb128 0x2e
 11691 3d3d 7C310000 		.4byte	.LASF330
 11692 3d41 2E       		.byte	0x2e
 11693 3d42 EF       		.byte	0xef
 11694 3d43 67500000 		.4byte	.LASF689
 11695 3d47 2D010000 		.4byte	0x12d
ARM GAS  /tmp/ccypRU8x.s 			page 209


 11696 3d4b 01       		.byte	0x1
 11697 3d4c 543D0000 		.4byte	0x3d54
 11698 3d50 5F3D0000 		.4byte	0x3d5f
 11699 3d54 28       		.uleb128 0x28
 11700 3d55 A1530000 		.4byte	0x53a1
 11701 3d59 13       		.uleb128 0x13
 11702 3d5a 9B530000 		.4byte	0x539b
 11703 3d5e 00       		.byte	0
 11704 3d5f 3C       		.uleb128 0x3c
 11705 3d60 4D420000 		.4byte	.LASF332
 11706 3d64 2E       		.byte	0x2e
 11707 3d65 F3       		.byte	0xf3
 11708 3d66 8F0C0000 		.4byte	.LASF690
 11709 3d6a 2D010000 		.4byte	0x12d
 11710 3d6e 01       		.byte	0x1
 11711 3d6f 733D0000 		.4byte	0x3d73
 11712 3d73 28       		.uleb128 0x28
 11713 3d74 A1530000 		.4byte	0x53a1
 11714 3d78 00       		.byte	0
 11715 3d79 00       		.byte	0
 11716 3d7a 1D       		.uleb128 0x1d
 11717 3d7b 941A0000 		.4byte	.LASF334
 11718 3d7f 2E       		.byte	0x2e
 11719 3d80 8601     		.2byte	0x186
 11720 3d82 FC520000 		.4byte	0x52fc
 11721 3d86 1D       		.uleb128 0x1d
 11722 3d87 55130000 		.4byte	.LASF335
 11723 3d8b 2E       		.byte	0x2e
 11724 3d8c 8701     		.2byte	0x187
 11725 3d8e 17530000 		.4byte	0x5317
 11726 3d92 3D       		.uleb128 0x3d
 11727 3d93 5B630000 		.4byte	.LASF336
 11728 3d97 2E       		.byte	0x2e
 11729 3d98 8D01     		.2byte	0x18d
 11730 3d9a A4050000 		.4byte	.LASF691
 11731 3d9e 31530000 		.4byte	0x5331
 11732 3da2 01       		.byte	0x1
 11733 3da3 AB3D0000 		.4byte	0x3dab
 11734 3da7 B13D0000 		.4byte	0x3db1
 11735 3dab 28       		.uleb128 0x28
 11736 3dac 37530000 		.4byte	0x5337
 11737 3db0 00       		.byte	0
 11738 3db1 07       		.uleb128 0x7
 11739 3db2 A93B0000 		.4byte	0x3ba9
 11740 3db6 3D       		.uleb128 0x3d
 11741 3db7 615E0000 		.4byte	.LASF337
 11742 3dbb 2E       		.byte	0x2e
 11743 3dbc 9101     		.2byte	0x191
 11744 3dbe 845A0000 		.4byte	.LASF692
 11745 3dc2 2D010000 		.4byte	0x12d
 11746 3dc6 01       		.byte	0x1
 11747 3dc7 CF3D0000 		.4byte	0x3dcf
 11748 3dcb D53D0000 		.4byte	0x3dd5
 11749 3dcf 28       		.uleb128 0x28
 11750 3dd0 37530000 		.4byte	0x5337
 11751 3dd4 00       		.byte	0
 11752 3dd5 3D       		.uleb128 0x3d
ARM GAS  /tmp/ccypRU8x.s 			page 210


 11753 3dd6 4E1F0000 		.4byte	.LASF340
 11754 3dda 2E       		.byte	0x2e
 11755 3ddb 0302     		.2byte	0x203
 11756 3ddd 78360000 		.4byte	.LASF693
 11757 3de1 25000000 		.4byte	0x25
 11758 3de5 01       		.byte	0x1
 11759 3de6 EE3D0000 		.4byte	0x3dee
 11760 3dea F43D0000 		.4byte	0x3df4
 11761 3dee 28       		.uleb128 0x28
 11762 3def 37530000 		.4byte	0x5337
 11763 3df3 00       		.byte	0
 11764 3df4 3E       		.uleb128 0x3e
 11765 3df5 11480000 		.4byte	.LASF342
 11766 3df9 2E       		.byte	0x2e
 11767 3dfa 9701     		.2byte	0x197
 11768 3dfc B3280000 		.4byte	.LASF694
 11769 3e00 01       		.byte	0x1
 11770 3e01 093E0000 		.4byte	0x3e09
 11771 3e05 143E0000 		.4byte	0x3e14
 11772 3e09 28       		.uleb128 0x28
 11773 3e0a 3D530000 		.4byte	0x533d
 11774 3e0e 13       		.uleb128 0x13
 11775 3e0f 43530000 		.4byte	0x5343
 11776 3e13 00       		.byte	0
 11777 3e14 3E       		.uleb128 0x3e
 11778 3e15 9E500000 		.4byte	.LASF343
 11779 3e19 2E       		.byte	0x2e
 11780 3e1a 9F01     		.2byte	0x19f
 11781 3e1c 9D270000 		.4byte	.LASF695
 11782 3e20 01       		.byte	0x1
 11783 3e21 293E0000 		.4byte	0x3e29
 11784 3e25 343E0000 		.4byte	0x3e34
 11785 3e29 28       		.uleb128 0x28
 11786 3e2a 3D530000 		.4byte	0x533d
 11787 3e2e 13       		.uleb128 0x13
 11788 3e2f 43530000 		.4byte	0x5343
 11789 3e33 00       		.byte	0
 11790 3e34 3D       		.uleb128 0x3d
 11791 3e35 CB290000 		.4byte	.LASF346
 11792 3e39 2E       		.byte	0x2e
 11793 3e3a 0E02     		.2byte	0x20e
 11794 3e3c B12F0000 		.4byte	.LASF696
 11795 3e40 2D010000 		.4byte	0x12d
 11796 3e44 01       		.byte	0x1
 11797 3e45 4D3E0000 		.4byte	0x3e4d
 11798 3e49 583E0000 		.4byte	0x3e58
 11799 3e4d 28       		.uleb128 0x28
 11800 3e4e 3D530000 		.4byte	0x533d
 11801 3e52 13       		.uleb128 0x13
 11802 3e53 43530000 		.4byte	0x5343
 11803 3e57 00       		.byte	0
 11804 3e58 3D       		.uleb128 0x3d
 11805 3e59 2C370000 		.4byte	.LASF348
 11806 3e5d 2E       		.byte	0x2e
 11807 3e5e 1F02     		.2byte	0x21f
 11808 3e60 27030000 		.4byte	.LASF697
 11809 3e64 37000000 		.4byte	0x37
ARM GAS  /tmp/ccypRU8x.s 			page 211


 11810 3e68 01       		.byte	0x1
 11811 3e69 713E0000 		.4byte	0x3e71
 11812 3e6d 7C3E0000 		.4byte	0x3e7c
 11813 3e71 28       		.uleb128 0x28
 11814 3e72 37530000 		.4byte	0x5337
 11815 3e76 13       		.uleb128 0x13
 11816 3e77 11530000 		.4byte	0x5311
 11817 3e7b 00       		.byte	0
 11818 3e7c 3D       		.uleb128 0x3d
 11819 3e7d E34D0000 		.4byte	.LASF350
 11820 3e81 2E       		.byte	0x2e
 11821 3e82 2C02     		.2byte	0x22c
 11822 3e84 20060000 		.4byte	.LASF698
 11823 3e88 2D010000 		.4byte	0x12d
 11824 3e8c 01       		.byte	0x1
 11825 3e8d 953E0000 		.4byte	0x3e95
 11826 3e91 A03E0000 		.4byte	0x3ea0
 11827 3e95 28       		.uleb128 0x28
 11828 3e96 37530000 		.4byte	0x5337
 11829 3e9a 13       		.uleb128 0x13
 11830 3e9b 11530000 		.4byte	0x5311
 11831 3e9f 00       		.byte	0
 11832 3ea0 3D       		.uleb128 0x3d
 11833 3ea1 5A340000 		.4byte	.LASF352
 11834 3ea5 2E       		.byte	0x2e
 11835 3ea6 3802     		.2byte	0x238
 11836 3ea8 4A0C0000 		.4byte	.LASF699
 11837 3eac 49530000 		.4byte	0x5349
 11838 3eb0 01       		.byte	0x1
 11839 3eb1 B93E0000 		.4byte	0x3eb9
 11840 3eb5 C43E0000 		.4byte	0x3ec4
 11841 3eb9 28       		.uleb128 0x28
 11842 3eba 37530000 		.4byte	0x5337
 11843 3ebe 13       		.uleb128 0x13
 11844 3ebf 7A3D0000 		.4byte	0x3d7a
 11845 3ec3 00       		.byte	0
 11846 3ec4 3D       		.uleb128 0x3d
 11847 3ec5 5A340000 		.4byte	.LASF352
 11848 3ec9 2E       		.byte	0x2e
 11849 3eca 4402     		.2byte	0x244
 11850 3ecc 43050000 		.4byte	.LASF700
 11851 3ed0 49530000 		.4byte	0x5349
 11852 3ed4 01       		.byte	0x1
 11853 3ed5 DD3E0000 		.4byte	0x3edd
 11854 3ed9 ED3E0000 		.4byte	0x3eed
 11855 3edd 28       		.uleb128 0x28
 11856 3ede 37530000 		.4byte	0x5337
 11857 3ee2 13       		.uleb128 0x13
 11858 3ee3 863D0000 		.4byte	0x3d86
 11859 3ee7 13       		.uleb128 0x13
 11860 3ee8 D9000000 		.4byte	0xd9
 11861 3eec 00       		.byte	0
 11862 3eed 3D       		.uleb128 0x3d
 11863 3eee EA100000 		.4byte	.LASF355
 11864 3ef2 2E       		.byte	0x2e
 11865 3ef3 B301     		.2byte	0x1b3
 11866 3ef5 9D0D0000 		.4byte	.LASF701
ARM GAS  /tmp/ccypRU8x.s 			page 212


 11867 3ef9 0C3F0000 		.4byte	0x3f0c
 11868 3efd 01       		.byte	0x1
 11869 3efe 063F0000 		.4byte	0x3f06
 11870 3f02 0C3F0000 		.4byte	0x3f0c
 11871 3f06 28       		.uleb128 0x28
 11872 3f07 3D530000 		.4byte	0x533d
 11873 3f0b 00       		.byte	0
 11874 3f0c 07       		.uleb128 0x7
 11875 3f0d FB3B0000 		.4byte	0x3bfb
 11876 3f11 3D       		.uleb128 0x3d
 11877 3f12 87310000 		.4byte	.LASF357
 11878 3f16 2E       		.byte	0x2e
 11879 3f17 B701     		.2byte	0x1b7
 11880 3f19 20200000 		.4byte	.LASF702
 11881 3f1d 0C3F0000 		.4byte	0x3f0c
 11882 3f21 01       		.byte	0x1
 11883 3f22 2A3F0000 		.4byte	0x3f2a
 11884 3f26 303F0000 		.4byte	0x3f30
 11885 3f2a 28       		.uleb128 0x28
 11886 3f2b 3D530000 		.4byte	0x533d
 11887 3f2f 00       		.byte	0
 11888 3f30 3E       		.uleb128 0x3e
 11889 3f31 C1630000 		.4byte	.LASF359
 11890 3f35 2E       		.byte	0x2e
 11891 3f36 BB01     		.2byte	0x1bb
 11892 3f38 60560000 		.4byte	.LASF703
 11893 3f3c 01       		.byte	0x1
 11894 3f3d 453F0000 		.4byte	0x3f45
 11895 3f41 503F0000 		.4byte	0x3f50
 11896 3f45 28       		.uleb128 0x28
 11897 3f46 3D530000 		.4byte	0x533d
 11898 3f4a 13       		.uleb128 0x13
 11899 3f4b 4F530000 		.4byte	0x534f
 11900 3f4f 00       		.byte	0
 11901 3f50 3D       		.uleb128 0x3d
 11902 3f51 EA100000 		.4byte	.LASF355
 11903 3f55 2E       		.byte	0x2e
 11904 3f56 BF01     		.2byte	0x1bf
 11905 3f58 D55C0000 		.4byte	.LASF704
 11906 3f5c 6F3F0000 		.4byte	0x3f6f
 11907 3f60 01       		.byte	0x1
 11908 3f61 693F0000 		.4byte	0x3f69
 11909 3f65 6F3F0000 		.4byte	0x3f6f
 11910 3f69 28       		.uleb128 0x28
 11911 3f6a 37530000 		.4byte	0x5337
 11912 3f6e 00       		.byte	0
 11913 3f6f 07       		.uleb128 0x7
 11914 3f70 003C0000 		.4byte	0x3c00
 11915 3f74 3D       		.uleb128 0x3d
 11916 3f75 87310000 		.4byte	.LASF357
 11917 3f79 2E       		.byte	0x2e
 11918 3f7a C301     		.2byte	0x1c3
 11919 3f7c 76200000 		.4byte	.LASF705
 11920 3f80 6F3F0000 		.4byte	0x3f6f
 11921 3f84 01       		.byte	0x1
 11922 3f85 8D3F0000 		.4byte	0x3f8d
 11923 3f89 933F0000 		.4byte	0x3f93
ARM GAS  /tmp/ccypRU8x.s 			page 213


 11924 3f8d 28       		.uleb128 0x28
 11925 3f8e 37530000 		.4byte	0x5337
 11926 3f92 00       		.byte	0
 11927 3f93 3E       		.uleb128 0x3e
 11928 3f94 C1630000 		.4byte	.LASF359
 11929 3f98 2E       		.byte	0x2e
 11930 3f99 C701     		.2byte	0x1c7
 11931 3f9b F7040000 		.4byte	.LASF706
 11932 3f9f 01       		.byte	0x1
 11933 3fa0 A83F0000 		.4byte	0x3fa8
 11934 3fa4 B33F0000 		.4byte	0x3fb3
 11935 3fa8 28       		.uleb128 0x28
 11936 3fa9 37530000 		.4byte	0x5337
 11937 3fad 13       		.uleb128 0x13
 11938 3fae 55530000 		.4byte	0x5355
 11939 3fb2 00       		.byte	0
 11940 3fb3 3D       		.uleb128 0x3d
 11941 3fb4 13590000 		.4byte	.LASF364
 11942 3fb8 2E       		.byte	0x2e
 11943 3fb9 5302     		.2byte	0x253
 11944 3fbb 5F350000 		.4byte	.LASF707
 11945 3fbf 31530000 		.4byte	0x5331
 11946 3fc3 01       		.byte	0x1
 11947 3fc4 CC3F0000 		.4byte	0x3fcc
 11948 3fc8 D23F0000 		.4byte	0x3fd2
 11949 3fcc 28       		.uleb128 0x28
 11950 3fcd 37530000 		.4byte	0x5337
 11951 3fd1 00       		.byte	0
 11952 3fd2 3D       		.uleb128 0x3d
 11953 3fd3 1B5C0000 		.4byte	.LASF366
 11954 3fd7 2E       		.byte	0x2e
 11955 3fd8 5D02     		.2byte	0x25d
 11956 3fda 22230000 		.4byte	.LASF708
 11957 3fde 2D010000 		.4byte	0x12d
 11958 3fe2 01       		.byte	0x1
 11959 3fe3 EB3F0000 		.4byte	0x3feb
 11960 3fe7 F13F0000 		.4byte	0x3ff1
 11961 3feb 28       		.uleb128 0x28
 11962 3fec 37530000 		.4byte	0x5337
 11963 3ff0 00       		.byte	0
 11964 3ff1 3D       		.uleb128 0x3d
 11965 3ff2 CB340000 		.4byte	.LASF368
 11966 3ff6 2E       		.byte	0x2e
 11967 3ff7 6702     		.2byte	0x267
 11968 3ff9 E7220000 		.4byte	.LASF709
 11969 3ffd 25000000 		.4byte	0x25
 11970 4001 01       		.byte	0x1
 11971 4002 0A400000 		.4byte	0x400a
 11972 4006 10400000 		.4byte	0x4010
 11973 400a 28       		.uleb128 0x28
 11974 400b 37530000 		.4byte	0x5337
 11975 400f 00       		.byte	0
 11976 4010 3E       		.uleb128 0x3e
 11977 4011 5B1F0000 		.4byte	.LASF370
 11978 4015 2E       		.byte	0x2e
 11979 4016 7602     		.2byte	0x276
 11980 4018 715E0000 		.4byte	.LASF710
ARM GAS  /tmp/ccypRU8x.s 			page 214


 11981 401c 01       		.byte	0x1
 11982 401d 25400000 		.4byte	0x4025
 11983 4021 30400000 		.4byte	0x4030
 11984 4025 28       		.uleb128 0x28
 11985 4026 3D530000 		.4byte	0x533d
 11986 402a 13       		.uleb128 0x13
 11987 402b 43530000 		.4byte	0x5343
 11988 402f 00       		.byte	0
 11989 4030 3D       		.uleb128 0x3d
 11990 4031 8C140000 		.4byte	.LASF372
 11991 4035 2E       		.byte	0x2e
 11992 4036 8002     		.2byte	0x280
 11993 4038 D2550000 		.4byte	.LASF711
 11994 403c 2D010000 		.4byte	0x12d
 11995 4040 01       		.byte	0x1
 11996 4041 49400000 		.4byte	0x4049
 11997 4045 54400000 		.4byte	0x4054
 11998 4049 28       		.uleb128 0x28
 11999 404a 3D530000 		.4byte	0x533d
 12000 404e 13       		.uleb128 0x13
 12001 404f 43530000 		.4byte	0x5343
 12002 4053 00       		.byte	0
 12003 4054 3D       		.uleb128 0x3d
 12004 4055 75390000 		.4byte	.LASF374
 12005 4059 2E       		.byte	0x2e
 12006 405a 8A02     		.2byte	0x28a
 12007 405c 131D0000 		.4byte	.LASF712
 12008 4060 37000000 		.4byte	0x37
 12009 4064 01       		.byte	0x1
 12010 4065 6D400000 		.4byte	0x406d
 12011 4069 78400000 		.4byte	0x4078
 12012 406d 28       		.uleb128 0x28
 12013 406e 37530000 		.4byte	0x5337
 12014 4072 13       		.uleb128 0x13
 12015 4073 11530000 		.4byte	0x5311
 12016 4077 00       		.byte	0
 12017 4078 3D       		.uleb128 0x3d
 12018 4079 8B250000 		.4byte	.LASF376
 12019 407d 2E       		.byte	0x2e
 12020 407e 9B02     		.2byte	0x29b
 12021 4080 81230000 		.4byte	.LASF713
 12022 4084 2D010000 		.4byte	0x12d
 12023 4088 01       		.byte	0x1
 12024 4089 91400000 		.4byte	0x4091
 12025 408d 9C400000 		.4byte	0x409c
 12026 4091 28       		.uleb128 0x28
 12027 4092 37530000 		.4byte	0x5337
 12028 4096 13       		.uleb128 0x13
 12029 4097 11530000 		.4byte	0x5311
 12030 409b 00       		.byte	0
 12031 409c 3D       		.uleb128 0x3d
 12032 409d C73C0000 		.4byte	.LASF378
 12033 40a1 2E       		.byte	0x2e
 12034 40a2 AC02     		.2byte	0x2ac
 12035 40a4 4A550000 		.4byte	.LASF714
 12036 40a8 49530000 		.4byte	0x5349
 12037 40ac 01       		.byte	0x1
ARM GAS  /tmp/ccypRU8x.s 			page 215


 12038 40ad B5400000 		.4byte	0x40b5
 12039 40b1 C0400000 		.4byte	0x40c0
 12040 40b5 28       		.uleb128 0x28
 12041 40b6 37530000 		.4byte	0x5337
 12042 40ba 13       		.uleb128 0x13
 12043 40bb 7A3D0000 		.4byte	0x3d7a
 12044 40bf 00       		.byte	0
 12045 40c0 3D       		.uleb128 0x3d
 12046 40c1 C73C0000 		.4byte	.LASF378
 12047 40c5 2E       		.byte	0x2e
 12048 40c6 BC02     		.2byte	0x2bc
 12049 40c8 CC030000 		.4byte	.LASF715
 12050 40cc 49530000 		.4byte	0x5349
 12051 40d0 01       		.byte	0x1
 12052 40d1 D9400000 		.4byte	0x40d9
 12053 40d5 E9400000 		.4byte	0x40e9
 12054 40d9 28       		.uleb128 0x28
 12055 40da 37530000 		.4byte	0x5337
 12056 40de 13       		.uleb128 0x13
 12057 40df 863D0000 		.4byte	0x3d86
 12058 40e3 13       		.uleb128 0x13
 12059 40e4 D9000000 		.4byte	0xd9
 12060 40e8 00       		.byte	0
 12061 40e9 3D       		.uleb128 0x3d
 12062 40ea DB620000 		.4byte	.LASF381
 12063 40ee 2E       		.byte	0x2e
 12064 40ef E001     		.2byte	0x1e0
 12065 40f1 934B0000 		.4byte	.LASF716
 12066 40f5 08410000 		.4byte	0x4108
 12067 40f9 01       		.byte	0x1
 12068 40fa 02410000 		.4byte	0x4102
 12069 40fe 08410000 		.4byte	0x4108
 12070 4102 28       		.uleb128 0x28
 12071 4103 3D530000 		.4byte	0x533d
 12072 4107 00       		.byte	0
 12073 4108 07       		.uleb128 0x7
 12074 4109 053C0000 		.4byte	0x3c05
 12075 410d 3F       		.uleb128 0x3f
 12076 410e 656E6400 		.ascii	"end\000"
 12077 4112 2E       		.byte	0x2e
 12078 4113 E401     		.2byte	0x1e4
 12079 4115 4C0E0000 		.4byte	.LASF717
 12080 4119 08410000 		.4byte	0x4108
 12081 411d 01       		.byte	0x1
 12082 411e 26410000 		.4byte	0x4126
 12083 4122 2C410000 		.4byte	0x412c
 12084 4126 28       		.uleb128 0x28
 12085 4127 3D530000 		.4byte	0x533d
 12086 412b 00       		.byte	0
 12087 412c 3E       		.uleb128 0x3e
 12088 412d EF120000 		.4byte	.LASF383
 12089 4131 2E       		.byte	0x2e
 12090 4132 E801     		.2byte	0x1e8
 12091 4134 52530000 		.4byte	.LASF718
 12092 4138 01       		.byte	0x1
 12093 4139 41410000 		.4byte	0x4141
 12094 413d 4C410000 		.4byte	0x414c
ARM GAS  /tmp/ccypRU8x.s 			page 216


 12095 4141 28       		.uleb128 0x28
 12096 4142 3D530000 		.4byte	0x533d
 12097 4146 13       		.uleb128 0x13
 12098 4147 5B530000 		.4byte	0x535b
 12099 414b 00       		.byte	0
 12100 414c 3D       		.uleb128 0x3d
 12101 414d DB620000 		.4byte	.LASF381
 12102 4151 2E       		.byte	0x2e
 12103 4152 EC01     		.2byte	0x1ec
 12104 4154 883B0000 		.4byte	.LASF719
 12105 4158 6B410000 		.4byte	0x416b
 12106 415c 01       		.byte	0x1
 12107 415d 65410000 		.4byte	0x4165
 12108 4161 6B410000 		.4byte	0x416b
 12109 4165 28       		.uleb128 0x28
 12110 4166 37530000 		.4byte	0x5337
 12111 416a 00       		.byte	0
 12112 416b 07       		.uleb128 0x7
 12113 416c 0A3C0000 		.4byte	0x3c0a
 12114 4170 3F       		.uleb128 0x3f
 12115 4171 656E6400 		.ascii	"end\000"
 12116 4175 2E       		.byte	0x2e
 12117 4176 F201     		.2byte	0x1f2
 12118 4178 6D270000 		.4byte	.LASF720
 12119 417c 6B410000 		.4byte	0x416b
 12120 4180 01       		.byte	0x1
 12121 4181 89410000 		.4byte	0x4189
 12122 4185 8F410000 		.4byte	0x418f
 12123 4189 28       		.uleb128 0x28
 12124 418a 37530000 		.4byte	0x5337
 12125 418e 00       		.byte	0
 12126 418f 3E       		.uleb128 0x3e
 12127 4190 EF120000 		.4byte	.LASF383
 12128 4194 2E       		.byte	0x2e
 12129 4195 F601     		.2byte	0x1f6
 12130 4197 CC0D0000 		.4byte	.LASF721
 12131 419b 01       		.byte	0x1
 12132 419c A4410000 		.4byte	0x41a4
 12133 41a0 AF410000 		.4byte	0x41af
 12134 41a4 28       		.uleb128 0x28
 12135 41a5 37530000 		.4byte	0x5337
 12136 41a9 13       		.uleb128 0x13
 12137 41aa 61530000 		.4byte	0x5361
 12138 41ae 00       		.byte	0
 12139 41af 40       		.uleb128 0x40
 12140 41b0 41110000 		.4byte	.LASF389
 12141 41b4 2E       		.byte	0x2e
 12142 41b5 FA01     		.2byte	0x1fa
 12143 41b7 3D530000 		.4byte	0x533d
 12144 41bb 01       		.byte	0x1
 12145 41bc C4410000 		.4byte	0x41c4
 12146 41c0 CA410000 		.4byte	0x41ca
 12147 41c4 28       		.uleb128 0x28
 12148 41c5 3D530000 		.4byte	0x533d
 12149 41c9 00       		.byte	0
 12150 41ca 07       		.uleb128 0x7
 12151 41cb F63B0000 		.4byte	0x3bf6
ARM GAS  /tmp/ccypRU8x.s 			page 217


 12152 41cf 41       		.uleb128 0x41
 12153 41d0 391C0000 		.4byte	.LASF390
 12154 41d4 DE410000 		.4byte	0x41de
 12155 41d8 00       		.byte	0
 12156 41d9 07       		.uleb128 0x7
 12157 41da DE410000 		.4byte	0x41de
 12158 41de 26       		.uleb128 0x26
 12159 41df 691A0000 		.4byte	.LASF722
 12160 41e3 1C       		.byte	0x1c
 12161 41e4 0C       		.byte	0xc
 12162 41e5 15       		.byte	0x15
 12163 41e6 01450000 		.4byte	0x4501
 12164 41ea 2B       		.uleb128 0x2b
 12165 41eb 65110000 		.4byte	0x1165
 12166 41ef 00       		.byte	0
 12167 41f0 0C       		.uleb128 0xc
 12168 41f1 0D1F0000 		.4byte	.LASF461
 12169 41f5 0C       		.byte	0xc
 12170 41f6 19       		.byte	0x19
 12171 41f7 DA510000 		.4byte	0x51da
 12172 41fb 00       		.byte	0
 12173 41fc 0C       		.uleb128 0xc
 12174 41fd 71310000 		.4byte	.LASF723
 12175 4201 0C       		.byte	0xc
 12176 4202 1A       		.byte	0x1a
 12177 4203 B22E0000 		.4byte	0x2eb2
 12178 4207 04       		.byte	0x4
 12179 4208 0C       		.uleb128 0xc
 12180 4209 691B0000 		.4byte	.LASF724
 12181 420d 0C       		.byte	0xc
 12182 420e 1B       		.byte	0x1b
 12183 420f C2160000 		.4byte	0x16c2
 12184 4213 08       		.byte	0x8
 12185 4214 0C       		.uleb128 0xc
 12186 4215 6D000000 		.4byte	.LASF217
 12187 4219 0C       		.byte	0xc
 12188 421a 1C       		.byte	0x1c
 12189 421b AE3A0000 		.4byte	0x3aae
 12190 421f 0C       		.byte	0xc
 12191 4220 0C       		.uleb128 0xc
 12192 4221 861A0000 		.4byte	.LASF725
 12193 4225 0C       		.byte	0xc
 12194 4226 1D       		.byte	0x1d
 12195 4227 10140000 		.4byte	0x1410
 12196 422b 10       		.byte	0x10
 12197 422c 0C       		.uleb128 0xc
 12198 422d E3540000 		.4byte	.LASF469
 12199 4231 0C       		.byte	0xc
 12200 4232 1F       		.byte	0x1f
 12201 4233 A93B0000 		.4byte	0x3ba9
 12202 4237 14       		.byte	0x14
 12203 4238 2E       		.uleb128 0x2e
 12204 4239 DB3A0000 		.4byte	.LASF470
 12205 423d 0C       		.byte	0xc
 12206 423e 22       		.byte	0x22
 12207 423f 725B0000 		.4byte	.LASF726
 12208 4243 CE000000 		.4byte	0xce
ARM GAS  /tmp/ccypRU8x.s 			page 218


 12209 4247 01       		.byte	0x1
 12210 4248 50420000 		.4byte	0x4250
 12211 424c 56420000 		.4byte	0x4256
 12212 4250 28       		.uleb128 0x28
 12213 4251 72530000 		.4byte	0x5372
 12214 4255 00       		.byte	0
 12215 4256 2E       		.uleb128 0x2e
 12216 4257 CF5E0000 		.4byte	.LASF727
 12217 425b 0C       		.byte	0xc
 12218 425c 23       		.byte	0x23
 12219 425d 84280000 		.4byte	.LASF728
 12220 4261 78530000 		.4byte	0x5378
 12221 4265 01       		.byte	0x1
 12222 4266 6E420000 		.4byte	0x426e
 12223 426a 74420000 		.4byte	0x4274
 12224 426e 28       		.uleb128 0x28
 12225 426f 72530000 		.4byte	0x5372
 12226 4273 00       		.byte	0
 12227 4274 2E       		.uleb128 0x2e
 12228 4275 60330000 		.4byte	.LASF729
 12229 4279 0C       		.byte	0xc
 12230 427a 24       		.byte	0x24
 12231 427b 11400000 		.4byte	.LASF730
 12232 427f 7E530000 		.4byte	0x537e
 12233 4283 01       		.byte	0x1
 12234 4284 8C420000 		.4byte	0x428c
 12235 4288 92420000 		.4byte	0x4292
 12236 428c 28       		.uleb128 0x28
 12237 428d 72530000 		.4byte	0x5372
 12238 4291 00       		.byte	0
 12239 4292 2E       		.uleb128 0x2e
 12240 4293 0C610000 		.4byte	.LASF731
 12241 4297 0C       		.byte	0xc
 12242 4298 25       		.byte	0x25
 12243 4299 0B0A0000 		.4byte	.LASF732
 12244 429d 2D010000 		.4byte	0x12d
 12245 42a1 01       		.byte	0x1
 12246 42a2 AA420000 		.4byte	0x42aa
 12247 42a6 B0420000 		.4byte	0x42b0
 12248 42aa 28       		.uleb128 0x28
 12249 42ab 72530000 		.4byte	0x5372
 12250 42af 00       		.byte	0
 12251 42b0 2F       		.uleb128 0x2f
 12252 42b1 42370000 		.4byte	.LASF733
 12253 42b5 0C       		.byte	0xc
 12254 42b6 26       		.byte	0x26
 12255 42b7 A51F0000 		.4byte	.LASF734
 12256 42bb 01       		.byte	0x1
 12257 42bc C4420000 		.4byte	0x42c4
 12258 42c0 CF420000 		.4byte	0x42cf
 12259 42c4 28       		.uleb128 0x28
 12260 42c5 49530000 		.4byte	0x5349
 12261 42c9 13       		.uleb128 0x13
 12262 42ca 2D010000 		.4byte	0x12d
 12263 42ce 00       		.byte	0
 12264 42cf 2F       		.uleb128 0x2f
 12265 42d0 A2250000 		.4byte	.LASF735
ARM GAS  /tmp/ccypRU8x.s 			page 219


 12266 42d4 0C       		.byte	0xc
 12267 42d5 32       		.byte	0x32
 12268 42d6 E7170000 		.4byte	.LASF736
 12269 42da 01       		.byte	0x1
 12270 42db E3420000 		.4byte	0x42e3
 12271 42df EE420000 		.4byte	0x42ee
 12272 42e3 28       		.uleb128 0x28
 12273 42e4 49530000 		.4byte	0x5349
 12274 42e8 13       		.uleb128 0x13
 12275 42e9 30000000 		.4byte	0x30
 12276 42ed 00       		.byte	0
 12277 42ee 2F       		.uleb128 0x2f
 12278 42ef 9C030000 		.4byte	.LASF737
 12279 42f3 0C       		.byte	0xc
 12280 42f4 33       		.byte	0x33
 12281 42f5 E2190000 		.4byte	.LASF738
 12282 42f9 01       		.byte	0x1
 12283 42fa 02430000 		.4byte	0x4302
 12284 42fe 08430000 		.4byte	0x4308
 12285 4302 28       		.uleb128 0x28
 12286 4303 49530000 		.4byte	0x5349
 12287 4307 00       		.byte	0
 12288 4308 2F       		.uleb128 0x2f
 12289 4309 832E0000 		.4byte	.LASF739
 12290 430d 0C       		.byte	0xc
 12291 430e 35       		.byte	0x35
 12292 430f 59020000 		.4byte	.LASF740
 12293 4313 01       		.byte	0x1
 12294 4314 1C430000 		.4byte	0x431c
 12295 4318 27430000 		.4byte	0x4327
 12296 431c 28       		.uleb128 0x28
 12297 431d 49530000 		.4byte	0x5349
 12298 4321 13       		.uleb128 0x13
 12299 4322 30000000 		.4byte	0x30
 12300 4326 00       		.byte	0
 12301 4327 2F       		.uleb128 0x2f
 12302 4328 BE190000 		.4byte	.LASF741
 12303 432c 0C       		.byte	0xc
 12304 432d 36       		.byte	0x36
 12305 432e 0B570000 		.4byte	.LASF742
 12306 4332 01       		.byte	0x1
 12307 4333 3B430000 		.4byte	0x433b
 12308 4337 41430000 		.4byte	0x4341
 12309 433b 28       		.uleb128 0x28
 12310 433c 49530000 		.4byte	0x5349
 12311 4340 00       		.byte	0
 12312 4341 2E       		.uleb128 0x2e
 12313 4342 22480000 		.4byte	.LASF743
 12314 4346 0C       		.byte	0xc
 12315 4347 38       		.byte	0x38
 12316 4348 6D250000 		.4byte	.LASF744
 12317 434c 2D010000 		.4byte	0x12d
 12318 4350 01       		.byte	0x1
 12319 4351 59430000 		.4byte	0x4359
 12320 4355 64430000 		.4byte	0x4364
 12321 4359 28       		.uleb128 0x28
 12322 435a 49530000 		.4byte	0x5349
ARM GAS  /tmp/ccypRU8x.s 			page 220


 12323 435e 13       		.uleb128 0x13
 12324 435f 76500000 		.4byte	0x5076
 12325 4363 00       		.byte	0
 12326 4364 3B       		.uleb128 0x3b
 12327 4365 D8470000 		.4byte	.LASF525
 12328 4369 0C       		.byte	0xc
 12329 436a 3B       		.byte	0x3b
 12330 436b 1E170000 		.4byte	.LASF745
 12331 436f 2D010000 		.4byte	0x12d
 12332 4373 7B430000 		.4byte	0x437b
 12333 4377 95430000 		.4byte	0x4395
 12334 437b 28       		.uleb128 0x28
 12335 437c 49530000 		.4byte	0x5349
 12336 4380 13       		.uleb128 0x13
 12337 4381 F7510000 		.4byte	0x51f7
 12338 4385 13       		.uleb128 0x13
 12339 4386 CE000000 		.4byte	0xce
 12340 438a 13       		.uleb128 0x13
 12341 438b 76500000 		.4byte	0x5076
 12342 438f 13       		.uleb128 0x13
 12343 4390 25000000 		.4byte	0x25
 12344 4394 00       		.byte	0
 12345 4395 3B       		.uleb128 0x3b
 12346 4396 775F0000 		.4byte	.LASF528
 12347 439a 0C       		.byte	0xc
 12348 439b 3D       		.byte	0x3d
 12349 439c B3610000 		.4byte	.LASF746
 12350 43a0 2D010000 		.4byte	0x12d
 12351 43a4 AC430000 		.4byte	0x43ac
 12352 43a8 C6430000 		.4byte	0x43c6
 12353 43ac 28       		.uleb128 0x28
 12354 43ad 49530000 		.4byte	0x5349
 12355 43b1 13       		.uleb128 0x13
 12356 43b2 03520000 		.4byte	0x5203
 12357 43b6 13       		.uleb128 0x13
 12358 43b7 CE000000 		.4byte	0xce
 12359 43bb 13       		.uleb128 0x13
 12360 43bc E5510000 		.4byte	0x51e5
 12361 43c0 13       		.uleb128 0x13
 12362 43c1 25000000 		.4byte	0x25
 12363 43c5 00       		.byte	0
 12364 43c6 29       		.uleb128 0x29
 12365 43c7 691A0000 		.4byte	.LASF722
 12366 43cb 0C       		.byte	0xc
 12367 43cc 41       		.byte	0x41
 12368 43cd 49530000 		.4byte	0x5349
 12369 43d1 01       		.byte	0x1
 12370 43d2 DA430000 		.4byte	0x43da
 12371 43d6 EA430000 		.4byte	0x43ea
 12372 43da 28       		.uleb128 0x28
 12373 43db 49530000 		.4byte	0x5349
 12374 43df 13       		.uleb128 0x13
 12375 43e0 CE000000 		.4byte	0xce
 12376 43e4 13       		.uleb128 0x13
 12377 43e5 2D010000 		.4byte	0x12d
 12378 43e9 00       		.byte	0
 12379 43ea 29       		.uleb128 0x29
ARM GAS  /tmp/ccypRU8x.s 			page 221


 12380 43eb 384C0000 		.4byte	.LASF747
 12381 43ef 0C       		.byte	0xc
 12382 43f0 42       		.byte	0x42
 12383 43f1 BF000000 		.4byte	0xbf
 12384 43f5 01       		.byte	0x1
 12385 43f6 FE430000 		.4byte	0x43fe
 12386 43fa 09440000 		.4byte	0x4409
 12387 43fe 28       		.uleb128 0x28
 12388 43ff 49530000 		.4byte	0x5349
 12389 4403 28       		.uleb128 0x28
 12390 4404 37000000 		.4byte	0x37
 12391 4408 00       		.byte	0
 12392 4409 48       		.uleb128 0x48
 12393 440a B14C0000 		.4byte	.LASF532
 12394 440e 0C       		.byte	0xc
 12395 440f 45       		.byte	0x45
 12396 4410 353A0000 		.4byte	.LASF748
 12397 4414 2D010000 		.4byte	0x12d
 12398 4418 01       		.byte	0x1
 12399 4419 28440000 		.4byte	0x4428
 12400 441d 13       		.uleb128 0x13
 12401 441e 11530000 		.4byte	0x5311
 12402 4422 13       		.uleb128 0x13
 12403 4423 CE000000 		.4byte	0xce
 12404 4427 00       		.byte	0
 12405 4428 2E       		.uleb128 0x2e
 12406 4429 9F190000 		.4byte	.LASF749
 12407 442d 0C       		.byte	0xc
 12408 442e 75       		.byte	0x75
 12409 442f CD5A0000 		.4byte	.LASF750
 12410 4433 2D010000 		.4byte	0x12d
 12411 4437 01       		.byte	0x1
 12412 4438 48440000 		.4byte	0x4448
 12413 443c 5D440000 		.4byte	0x445d
 12414 4440 35       		.uleb128 0x35
 12415 4441 4D5400   		.ascii	"MT\000"
 12416 4444 13470000 		.4byte	0x4713
 12417 4448 28       		.uleb128 0x28
 12418 4449 49530000 		.4byte	0x5349
 12419 444d 13       		.uleb128 0x13
 12420 444e 2B630000 		.4byte	0x632b
 12421 4452 13       		.uleb128 0x13
 12422 4453 CE000000 		.4byte	0xce
 12423 4457 13       		.uleb128 0x13
 12424 4458 76500000 		.4byte	0x5076
 12425 445c 00       		.byte	0
 12426 445d 2E       		.uleb128 0x2e
 12427 445e F02C0000 		.4byte	.LASF751
 12428 4462 0C       		.byte	0xc
 12429 4463 85       		.byte	0x85
 12430 4464 9D2D0000 		.4byte	.LASF752
 12431 4468 2D010000 		.4byte	0x12d
 12432 446c 01       		.byte	0x1
 12433 446d 86440000 		.4byte	0x4486
 12434 4471 96440000 		.4byte	0x4496
 12435 4475 35       		.uleb128 0x35
 12436 4476 4D5400   		.ascii	"MT\000"
ARM GAS  /tmp/ccypRU8x.s 			page 222


 12437 4479 67470000 		.4byte	0x4767
 12438 447d 4F       		.uleb128 0x4f
 12439 447e 514C00   		.ascii	"QL\000"
 12440 4481 30000000 		.4byte	0x30
 12441 4485 05       		.byte	0x5
 12442 4486 28       		.uleb128 0x28
 12443 4487 49530000 		.4byte	0x5349
 12444 448b 13       		.uleb128 0x13
 12445 448c 4A640000 		.4byte	0x644a
 12446 4490 13       		.uleb128 0x13
 12447 4491 CE000000 		.4byte	0xce
 12448 4495 00       		.byte	0
 12449 4496 2E       		.uleb128 0x2e
 12450 4497 4D200000 		.4byte	.LASF753
 12451 449b 0C       		.byte	0xc
 12452 449c 85       		.byte	0x85
 12453 449d BD260000 		.4byte	.LASF754
 12454 44a1 2D010000 		.4byte	0x12d
 12455 44a5 01       		.byte	0x1
 12456 44a6 BF440000 		.4byte	0x44bf
 12457 44aa CF440000 		.4byte	0x44cf
 12458 44ae 35       		.uleb128 0x35
 12459 44af 4D5400   		.ascii	"MT\000"
 12460 44b2 E6470000 		.4byte	0x47e6
 12461 44b6 4F       		.uleb128 0x4f
 12462 44b7 514C00   		.ascii	"QL\000"
 12463 44ba 30000000 		.4byte	0x30
 12464 44be 05       		.byte	0x5
 12465 44bf 28       		.uleb128 0x28
 12466 44c0 49530000 		.4byte	0x5349
 12467 44c4 13       		.uleb128 0x13
 12468 44c5 19650000 		.4byte	0x6519
 12469 44c9 13       		.uleb128 0x13
 12470 44ca CE000000 		.4byte	0xce
 12471 44ce 00       		.byte	0
 12472 44cf 3C       		.uleb128 0x3c
 12473 44d0 B0440000 		.4byte	.LASF755
 12474 44d4 0C       		.byte	0xc
 12475 44d5 75       		.byte	0x75
 12476 44d6 27180000 		.4byte	.LASF756
 12477 44da 2D010000 		.4byte	0x12d
 12478 44de 01       		.byte	0x1
 12479 44df EB440000 		.4byte	0x44eb
 12480 44e3 35       		.uleb128 0x35
 12481 44e4 4D5400   		.ascii	"MT\000"
 12482 44e7 34470000 		.4byte	0x4734
 12483 44eb 28       		.uleb128 0x28
 12484 44ec 49530000 		.4byte	0x5349
 12485 44f0 13       		.uleb128 0x13
 12486 44f1 E8650000 		.4byte	0x65e8
 12487 44f5 13       		.uleb128 0x13
 12488 44f6 CE000000 		.4byte	0xce
 12489 44fa 13       		.uleb128 0x13
 12490 44fb 76500000 		.4byte	0x5076
 12491 44ff 00       		.byte	0
 12492 4500 00       		.byte	0
 12493 4501 07       		.uleb128 0x7
ARM GAS  /tmp/ccypRU8x.s 			page 223


 12494 4502 973B0000 		.4byte	0x3b97
 12495 4506 49       		.uleb128 0x49
 12496 4507 CC3A0000 		.4byte	.LASF757
 12497 450b 08       		.byte	0x8
 12498 450c 30       		.byte	0x30
 12499 450d 0F       		.byte	0xf
 12500 450e 06450000 		.4byte	0x4506
 12501 4512 13470000 		.4byte	0x4713
 12502 4516 2B       		.uleb128 0x2b
 12503 4517 65110000 		.4byte	0x1165
 12504 451b 00       		.byte	0
 12505 451c 50       		.uleb128 0x50
 12506 451d F22A0000 		.4byte	.LASF758
 12507 4521 33550000 		.4byte	0x5533
 12508 4525 00       		.byte	0
 12509 4526 01       		.byte	0x1
 12510 4527 0C       		.uleb128 0xc
 12511 4528 99520000 		.4byte	.LASF759
 12512 452c 30       		.byte	0x30
 12513 452d 11       		.byte	0x11
 12514 452e B1510000 		.4byte	0x51b1
 12515 4532 04       		.byte	0x4
 12516 4533 4B       		.uleb128 0x4b
 12517 4534 CC3A0000 		.4byte	.LASF757
 12518 4538 89530000 		.4byte	0x5389
 12519 453c 01       		.byte	0x1
 12520 453d 45450000 		.4byte	0x4545
 12521 4541 50450000 		.4byte	0x4550
 12522 4545 28       		.uleb128 0x28
 12523 4546 89530000 		.4byte	0x5389
 12524 454a 13       		.uleb128 0x13
 12525 454b 43550000 		.4byte	0x5543
 12526 454f 00       		.byte	0
 12527 4550 2E       		.uleb128 0x2e
 12528 4551 420E0000 		.4byte	.LASF760
 12529 4555 30       		.byte	0x30
 12530 4556 2A       		.byte	0x2a
 12531 4557 EF620000 		.4byte	.LASF761
 12532 455b B1510000 		.4byte	0x51b1
 12533 455f 01       		.byte	0x1
 12534 4560 68450000 		.4byte	0x4568
 12535 4564 6E450000 		.4byte	0x456e
 12536 4568 28       		.uleb128 0x28
 12537 4569 49550000 		.4byte	0x5549
 12538 456d 00       		.byte	0
 12539 456e 43       		.uleb128 0x43
 12540 456f DE1E0000 		.4byte	.LASF391
 12541 4573 30       		.byte	0x30
 12542 4574 15       		.byte	0x15
 12543 4575 86610000 		.4byte	.LASF762
 12544 4579 25000000 		.4byte	0x25
 12545 457d 01       		.byte	0x1
 12546 457e 02       		.uleb128 0x2
 12547 457f 10       		.byte	0x10
 12548 4580 00       		.uleb128 0
 12549 4581 06450000 		.4byte	0x4506
 12550 4585 01       		.byte	0x1
ARM GAS  /tmp/ccypRU8x.s 			page 224


 12551 4586 8E450000 		.4byte	0x458e
 12552 458a 94450000 		.4byte	0x4594
 12553 458e 28       		.uleb128 0x28
 12554 458f 49550000 		.4byte	0x5549
 12555 4593 00       		.byte	0
 12556 4594 2F       		.uleb128 0x2f
 12557 4595 6E1C0000 		.4byte	.LASF763
 12558 4599 30       		.byte	0x30
 12559 459a 31       		.byte	0x31
 12560 459b 895F0000 		.4byte	.LASF764
 12561 459f 01       		.byte	0x1
 12562 45a0 A8450000 		.4byte	0x45a8
 12563 45a4 B3450000 		.4byte	0x45b3
 12564 45a8 28       		.uleb128 0x28
 12565 45a9 89530000 		.4byte	0x5389
 12566 45ad 13       		.uleb128 0x13
 12567 45ae D4510000 		.4byte	0x51d4
 12568 45b2 00       		.byte	0
 12569 45b3 43       		.uleb128 0x43
 12570 45b4 A2250000 		.4byte	.LASF735
 12571 45b8 30       		.byte	0x30
 12572 45b9 18       		.byte	0x18
 12573 45ba 0C0F0000 		.4byte	.LASF765
 12574 45be 2D010000 		.4byte	0x12d
 12575 45c2 01       		.byte	0x1
 12576 45c3 02       		.uleb128 0x2
 12577 45c4 10       		.byte	0x10
 12578 45c5 01       		.uleb128 0x1
 12579 45c6 06450000 		.4byte	0x4506
 12580 45ca 01       		.byte	0x1
 12581 45cb D3450000 		.4byte	0x45d3
 12582 45cf E3450000 		.4byte	0x45e3
 12583 45d3 28       		.uleb128 0x28
 12584 45d4 89530000 		.4byte	0x5389
 12585 45d8 13       		.uleb128 0x13
 12586 45d9 EB510000 		.4byte	0x51eb
 12587 45dd 13       		.uleb128 0x13
 12588 45de 76500000 		.4byte	0x5076
 12589 45e2 00       		.byte	0
 12590 45e3 43       		.uleb128 0x43
 12591 45e4 6B360000 		.4byte	.LASF392
 12592 45e8 30       		.byte	0x30
 12593 45e9 19       		.byte	0x19
 12594 45ea 661F0000 		.4byte	.LASF766
 12595 45ee 2D010000 		.4byte	0x12d
 12596 45f2 01       		.byte	0x1
 12597 45f3 02       		.uleb128 0x2
 12598 45f4 10       		.byte	0x10
 12599 45f5 02       		.uleb128 0x2
 12600 45f6 06450000 		.4byte	0x4506
 12601 45fa 01       		.byte	0x1
 12602 45fb 03460000 		.4byte	0x4603
 12603 45ff 13460000 		.4byte	0x4613
 12604 4603 28       		.uleb128 0x28
 12605 4604 89530000 		.4byte	0x5389
 12606 4608 13       		.uleb128 0x13
 12607 4609 9D520000 		.4byte	0x529d
ARM GAS  /tmp/ccypRU8x.s 			page 225


 12608 460d 13       		.uleb128 0x13
 12609 460e 6A500000 		.4byte	0x506a
 12610 4612 00       		.byte	0
 12611 4613 2E       		.uleb128 0x2e
 12612 4614 A4280000 		.4byte	.LASF502
 12613 4618 30       		.byte	0x30
 12614 4619 1A       		.byte	0x1a
 12615 461a D23C0000 		.4byte	.LASF767
 12616 461e 2D010000 		.4byte	0x12d
 12617 4622 01       		.byte	0x1
 12618 4623 2B460000 		.4byte	0x462b
 12619 4627 36460000 		.4byte	0x4636
 12620 462b 28       		.uleb128 0x28
 12621 462c 89530000 		.4byte	0x5389
 12622 4630 13       		.uleb128 0x13
 12623 4631 EB510000 		.4byte	0x51eb
 12624 4635 00       		.byte	0
 12625 4636 43       		.uleb128 0x43
 12626 4637 832E0000 		.4byte	.LASF739
 12627 463b 30       		.byte	0x30
 12628 463c 1C       		.byte	0x1c
 12629 463d A94A0000 		.4byte	.LASF768
 12630 4641 2D010000 		.4byte	0x12d
 12631 4645 01       		.byte	0x1
 12632 4646 02       		.uleb128 0x2
 12633 4647 10       		.byte	0x10
 12634 4648 03       		.uleb128 0x3
 12635 4649 06450000 		.4byte	0x4506
 12636 464d 01       		.byte	0x1
 12637 464e 56460000 		.4byte	0x4656
 12638 4652 66460000 		.4byte	0x4666
 12639 4656 28       		.uleb128 0x28
 12640 4657 89530000 		.4byte	0x5389
 12641 465b 13       		.uleb128 0x13
 12642 465c EB510000 		.4byte	0x51eb
 12643 4660 13       		.uleb128 0x13
 12644 4661 76500000 		.4byte	0x5076
 12645 4665 00       		.byte	0
 12646 4666 43       		.uleb128 0x43
 12647 4667 67250000 		.4byte	.LASF616
 12648 466b 30       		.byte	0x30
 12649 466c 1D       		.byte	0x1d
 12650 466d 662D0000 		.4byte	.LASF769
 12651 4671 2D010000 		.4byte	0x12d
 12652 4675 01       		.byte	0x1
 12653 4676 02       		.uleb128 0x2
 12654 4677 10       		.byte	0x10
 12655 4678 04       		.uleb128 0x4
 12656 4679 06450000 		.4byte	0x4506
 12657 467d 01       		.byte	0x1
 12658 467e 86460000 		.4byte	0x4686
 12659 4682 96460000 		.4byte	0x4696
 12660 4686 28       		.uleb128 0x28
 12661 4687 89530000 		.4byte	0x5389
 12662 468b 13       		.uleb128 0x13
 12663 468c 9D520000 		.4byte	0x529d
 12664 4690 13       		.uleb128 0x13
ARM GAS  /tmp/ccypRU8x.s 			page 226


 12665 4691 6A500000 		.4byte	0x506a
 12666 4695 00       		.byte	0
 12667 4696 2E       		.uleb128 0x2e
 12668 4697 A14A0000 		.4byte	.LASF252
 12669 469b 30       		.byte	0x30
 12670 469c 1E       		.byte	0x1e
 12671 469d A15E0000 		.4byte	.LASF770
 12672 46a1 2D010000 		.4byte	0x12d
 12673 46a5 01       		.byte	0x1
 12674 46a6 AE460000 		.4byte	0x46ae
 12675 46aa B9460000 		.4byte	0x46b9
 12676 46ae 28       		.uleb128 0x28
 12677 46af 89530000 		.4byte	0x5389
 12678 46b3 13       		.uleb128 0x13
 12679 46b4 EB510000 		.4byte	0x51eb
 12680 46b8 00       		.byte	0
 12681 46b9 29       		.uleb128 0x29
 12682 46ba CC3A0000 		.4byte	.LASF757
 12683 46be 30       		.byte	0x30
 12684 46bf 21       		.byte	0x21
 12685 46c0 89530000 		.4byte	0x5389
 12686 46c4 02       		.byte	0x2
 12687 46c5 CD460000 		.4byte	0x46cd
 12688 46c9 D3460000 		.4byte	0x46d3
 12689 46cd 28       		.uleb128 0x28
 12690 46ce 89530000 		.4byte	0x5389
 12691 46d2 00       		.byte	0
 12692 46d3 51       		.uleb128 0x51
 12693 46d4 8C030000 		.4byte	.LASF788
 12694 46d8 30       		.byte	0x30
 12695 46d9 22       		.byte	0x22
 12696 46da BF000000 		.4byte	0xbf
 12697 46de 01       		.byte	0x1
 12698 46df 06450000 		.4byte	0x4506
 12699 46e3 02       		.byte	0x2
 12700 46e4 EC460000 		.4byte	0x46ec
 12701 46e8 F7460000 		.4byte	0x46f7
 12702 46ec 28       		.uleb128 0x28
 12703 46ed 89530000 		.4byte	0x5389
 12704 46f1 28       		.uleb128 0x28
 12705 46f2 37000000 		.4byte	0x37
 12706 46f6 00       		.byte	0
 12707 46f7 46       		.uleb128 0x46
 12708 46f8 50340000 		.4byte	.LASF771
 12709 46fc 30       		.byte	0x30
 12710 46fd 25       		.byte	0x25
 12711 46fe 683E0000 		.4byte	.LASF772
 12712 4702 2D010000 		.4byte	0x12d
 12713 4706 01       		.byte	0x1
 12714 4707 13       		.uleb128 0x13
 12715 4708 43550000 		.4byte	0x5543
 12716 470c 13       		.uleb128 0x13
 12717 470d CE000000 		.4byte	0xce
 12718 4711 00       		.byte	0
 12719 4712 00       		.byte	0
 12720 4713 26       		.uleb128 0x26
 12721 4714 33590000 		.4byte	.LASF773
ARM GAS  /tmp/ccypRU8x.s 			page 227


 12722 4718 0E       		.byte	0xe
 12723 4719 31       		.byte	0x31
 12724 471a 23       		.byte	0x23
 12725 471b 34470000 		.4byte	0x4734
 12726 471f 4A       		.uleb128 0x4a
 12727 4720 BD2C0000 		.4byte	0x2cbd
 12728 4724 00       		.byte	0
 12729 4725 01       		.byte	0x1
 12730 4726 52       		.uleb128 0x52
 12731 4727 A81E0000 		.4byte	.LASF774
 12732 472b 31       		.byte	0x31
 12733 472c 25       		.byte	0x25
 12734 472d EA530000 		.4byte	0x53ea
 12735 4731 02       		.byte	0x2
 12736 4732 01       		.byte	0x1
 12737 4733 00       		.byte	0
 12738 4734 09       		.uleb128 0x9
 12739 4735 AE1E0000 		.4byte	.LASF775
 12740 4739 0E       		.byte	0xe
 12741 473a 31       		.byte	0x31
 12742 473b 5F       		.byte	0x5f
 12743 473c 67470000 		.4byte	0x4767
 12744 4740 2B       		.uleb128 0x2b
 12745 4741 BD2C0000 		.4byte	0x2cbd
 12746 4745 00       		.byte	0
 12747 4746 0D       		.uleb128 0xd
 12748 4747 6B00     		.ascii	"k\000"
 12749 4749 31       		.byte	0x31
 12750 474a 60       		.byte	0x60
 12751 474b E3530000 		.4byte	0x53e3
 12752 474f 02       		.byte	0x2
 12753 4750 0D       		.uleb128 0xd
 12754 4751 746900   		.ascii	"ti\000"
 12755 4754 31       		.byte	0x31
 12756 4755 61       		.byte	0x61
 12757 4756 E3530000 		.4byte	0x53e3
 12758 475a 06       		.byte	0x6
 12759 475b 0D       		.uleb128 0xd
 12760 475c 746400   		.ascii	"td\000"
 12761 475f 31       		.byte	0x31
 12762 4760 62       		.byte	0x62
 12763 4761 E3530000 		.4byte	0x53e3
 12764 4765 0A       		.byte	0xa
 12765 4766 00       		.byte	0
 12766 4767 26       		.uleb128 0x26
 12767 4768 26310000 		.4byte	.LASF776
 12768 476c 10       		.byte	0x10
 12769 476d 12       		.byte	0x12
 12770 476e 04       		.byte	0x4
 12771 476f E6470000 		.4byte	0x47e6
 12772 4773 4A       		.uleb128 0x4a
 12773 4774 BD2C0000 		.4byte	0x2cbd
 12774 4778 00       		.byte	0
 12775 4779 01       		.byte	0x1
 12776 477a 52       		.uleb128 0x52
 12777 477b CA540000 		.4byte	.LASF777
 12778 477f 12       		.byte	0x12
ARM GAS  /tmp/ccypRU8x.s 			page 228


 12779 4780 06       		.byte	0x6
 12780 4781 F6000000 		.4byte	0xf6
 12781 4785 02       		.byte	0x2
 12782 4786 01       		.byte	0x1
 12783 4787 52       		.uleb128 0x52
 12784 4788 2A090000 		.4byte	.LASF778
 12785 478c 12       		.byte	0x12
 12786 478d 07       		.byte	0x7
 12787 478e F6000000 		.4byte	0xf6
 12788 4792 04       		.byte	0x4
 12789 4793 01       		.byte	0x1
 12790 4794 30       		.uleb128 0x30
 12791 4795 7800     		.ascii	"x\000"
 12792 4797 12       		.byte	0x12
 12793 4798 08       		.byte	0x8
 12794 4799 F6000000 		.4byte	0xf6
 12795 479d 06       		.byte	0x6
 12796 479e 01       		.byte	0x1
 12797 479f 30       		.uleb128 0x30
 12798 47a0 7900     		.ascii	"y\000"
 12799 47a2 12       		.byte	0x12
 12800 47a3 09       		.byte	0x9
 12801 47a4 F6000000 		.4byte	0xf6
 12802 47a8 08       		.byte	0x8
 12803 47a9 01       		.byte	0x1
 12804 47aa 52       		.uleb128 0x52
 12805 47ab E34E0000 		.4byte	.LASF779
 12806 47af 12       		.byte	0x12
 12807 47b0 0A       		.byte	0xa
 12808 47b1 F6000000 		.4byte	0xf6
 12809 47b5 0A       		.byte	0xa
 12810 47b6 01       		.byte	0x1
 12811 47b7 52       		.uleb128 0x52
 12812 47b8 C4080000 		.4byte	.LASF780
 12813 47bc 12       		.byte	0x12
 12814 47bd 0B       		.byte	0xb
 12815 47be F6000000 		.4byte	0xf6
 12816 47c2 0C       		.byte	0xc
 12817 47c3 01       		.byte	0x1
 12818 47c4 52       		.uleb128 0x52
 12819 47c5 EA040000 		.4byte	.LASF781
 12820 47c9 12       		.byte	0x12
 12821 47ca 0C       		.byte	0xc
 12822 47cb F6000000 		.4byte	0xf6
 12823 47cf 0E       		.byte	0xe
 12824 47d0 01       		.byte	0x1
 12825 47d1 53       		.uleb128 0x53
 12826 47d2 26310000 		.4byte	.LASF776
 12827 47d6 9B540000 		.4byte	0x549b
 12828 47da 01       		.byte	0x1
 12829 47db DF470000 		.4byte	0x47df
 12830 47df 28       		.uleb128 0x28
 12831 47e0 9B540000 		.4byte	0x549b
 12832 47e4 00       		.byte	0
 12833 47e5 00       		.byte	0
 12834 47e6 26       		.uleb128 0x26
 12835 47e7 6E1A0000 		.4byte	.LASF782
ARM GAS  /tmp/ccypRU8x.s 			page 229


 12836 47eb 12       		.byte	0x12
 12837 47ec 14       		.byte	0x14
 12838 47ed 07       		.byte	0x7
 12839 47ee 1B480000 		.4byte	0x481b
 12840 47f2 4A       		.uleb128 0x4a
 12841 47f3 BD2C0000 		.4byte	0x2cbd
 12842 47f7 00       		.byte	0
 12843 47f8 01       		.byte	0x1
 12844 47f9 52       		.uleb128 0x52
 12845 47fa A81E0000 		.4byte	.LASF774
 12846 47fe 14       		.byte	0x14
 12847 47ff 09       		.byte	0x9
 12848 4800 FA530000 		.4byte	0x53fa
 12849 4804 02       		.byte	0x2
 12850 4805 01       		.byte	0x1
 12851 4806 53       		.uleb128 0x53
 12852 4807 6E1A0000 		.4byte	.LASF782
 12853 480b 2A540000 		.4byte	0x542a
 12854 480f 01       		.byte	0x1
 12855 4810 14480000 		.4byte	0x4814
 12856 4814 28       		.uleb128 0x28
 12857 4815 2A540000 		.4byte	0x542a
 12858 4819 00       		.byte	0
 12859 481a 00       		.byte	0
 12860 481b 49       		.uleb128 0x49
 12861 481c D1160000 		.4byte	.LASF783
 12862 4820 A8       		.byte	0xa8
 12863 4821 13       		.byte	0x13
 12864 4822 0E       		.byte	0xe
 12865 4823 06450000 		.4byte	0x4506
 12866 4827 CA480000 		.4byte	0x48ca
 12867 482b 4A       		.uleb128 0x4a
 12868 482c CA480000 		.4byte	0x48ca
 12869 4830 00       		.byte	0
 12870 4831 01       		.byte	0x1
 12871 4832 0C       		.uleb128 0xc
 12872 4833 66140000 		.4byte	.LASF784
 12873 4837 13       		.byte	0x13
 12874 4838 15       		.byte	0x15
 12875 4839 0A540000 		.4byte	0x540a
 12876 483d 38       		.byte	0x38
 12877 483e 0C       		.uleb128 0xc
 12878 483f 933E0000 		.4byte	.LASF785
 12879 4843 13       		.byte	0x13
 12880 4844 16       		.byte	0x16
 12881 4845 1A540000 		.4byte	0x541a
 12882 4849 94       		.byte	0x94
 12883 484a 2D       		.uleb128 0x2d
 12884 484b F60C0000 		.4byte	.LASF786
 12885 484f 13       		.byte	0x13
 12886 4850 12       		.byte	0x12
 12887 4851 DA480000 		.4byte	0x48da
 12888 4855 01       		.byte	0x1
 12889 4856 4B       		.uleb128 0x4b
 12890 4857 EB600000 		.4byte	.LASF787
 12891 485b 4B540000 		.4byte	0x544b
 12892 485f 01       		.byte	0x1
ARM GAS  /tmp/ccypRU8x.s 			page 230


 12893 4860 68480000 		.4byte	0x4868
 12894 4864 73480000 		.4byte	0x4873
 12895 4868 28       		.uleb128 0x28
 12896 4869 4B540000 		.4byte	0x544b
 12897 486d 13       		.uleb128 0x13
 12898 486e 51540000 		.4byte	0x5451
 12899 4872 00       		.byte	0
 12900 4873 29       		.uleb128 0x29
 12901 4874 EB600000 		.4byte	.LASF787
 12902 4878 13       		.byte	0x13
 12903 4879 1F       		.byte	0x1f
 12904 487a 4B540000 		.4byte	0x544b
 12905 487e 01       		.byte	0x1
 12906 487f 87480000 		.4byte	0x4887
 12907 4883 92480000 		.4byte	0x4892
 12908 4887 28       		.uleb128 0x28
 12909 4888 4B540000 		.4byte	0x544b
 12910 488c 13       		.uleb128 0x13
 12911 488d 4A480000 		.4byte	0x484a
 12912 4891 00       		.byte	0
 12913 4892 51       		.uleb128 0x51
 12914 4893 E8080000 		.4byte	.LASF789
 12915 4897 13       		.byte	0x13
 12916 4898 26       		.byte	0x26
 12917 4899 BF000000 		.4byte	0xbf
 12918 489d 01       		.byte	0x1
 12919 489e 1B480000 		.4byte	0x481b
 12920 48a2 01       		.byte	0x1
 12921 48a3 AB480000 		.4byte	0x48ab
 12922 48a7 B6480000 		.4byte	0x48b6
 12923 48ab 28       		.uleb128 0x28
 12924 48ac 4B540000 		.4byte	0x544b
 12925 48b0 28       		.uleb128 0x28
 12926 48b1 37000000 		.4byte	0x37
 12927 48b5 00       		.byte	0
 12928 48b6 41       		.uleb128 0x41
 12929 48b7 9A120000 		.4byte	.LASF790
 12930 48bb E6470000 		.4byte	0x47e6
 12931 48bf 54       		.uleb128 0x54
 12932 48c0 175B0000 		.4byte	.LASF791
 12933 48c4 30000000 		.4byte	0x30
 12934 48c8 05       		.byte	0x5
 12935 48c9 00       		.byte	0
 12936 48ca 49       		.uleb128 0x49
 12937 48cb 422D0000 		.4byte	.LASF792
 12938 48cf 38       		.byte	0x38
 12939 48d0 15       		.byte	0x15
 12940 48d1 0D       		.byte	0xd
 12941 48d2 06450000 		.4byte	0x4506
 12942 48d6 ED490000 		.4byte	0x49ed
 12943 48da 2D       		.uleb128 0x2d
 12944 48db F60C0000 		.4byte	.LASF786
 12945 48df 15       		.byte	0x15
 12946 48e0 0F       		.byte	0xf
 12947 48e1 30540000 		.4byte	0x5430
 12948 48e5 01       		.byte	0x1
 12949 48e6 4A       		.uleb128 0x4a
ARM GAS  /tmp/ccypRU8x.s 			page 231


 12950 48e7 091D0000 		.4byte	0x1d09
 12951 48eb 00       		.byte	0
 12952 48ec 01       		.byte	0x1
 12953 48ed 4B       		.uleb128 0x4b
 12954 48ee D0630000 		.4byte	.LASF793
 12955 48f2 57540000 		.4byte	0x5457
 12956 48f6 01       		.byte	0x1
 12957 48f7 FF480000 		.4byte	0x48ff
 12958 48fb 0A490000 		.4byte	0x490a
 12959 48ff 28       		.uleb128 0x28
 12960 4900 57540000 		.4byte	0x5457
 12961 4904 13       		.uleb128 0x13
 12962 4905 5D540000 		.4byte	0x545d
 12963 4909 00       		.byte	0
 12964 490a 2E       		.uleb128 0x2e
 12965 490b F7100000 		.4byte	.LASF794
 12966 490f 15       		.byte	0x15
 12967 4910 32       		.byte	0x32
 12968 4911 79060000 		.4byte	.LASF795
 12969 4915 DA480000 		.4byte	0x48da
 12970 4919 01       		.byte	0x1
 12971 491a 22490000 		.4byte	0x4922
 12972 491e 28490000 		.4byte	0x4928
 12973 4922 28       		.uleb128 0x28
 12974 4923 63540000 		.4byte	0x5463
 12975 4927 00       		.byte	0
 12976 4928 2E       		.uleb128 0x2e
 12977 4929 67250000 		.4byte	.LASF616
 12978 492d 15       		.byte	0x15
 12979 492e 1F       		.byte	0x1f
 12980 492f 09000000 		.4byte	.LASF796
 12981 4933 2D010000 		.4byte	0x12d
 12982 4937 01       		.byte	0x1
 12983 4938 40490000 		.4byte	0x4940
 12984 493c 4B490000 		.4byte	0x494b
 12985 4940 28       		.uleb128 0x28
 12986 4941 57540000 		.4byte	0x5457
 12987 4945 13       		.uleb128 0x13
 12988 4946 69540000 		.4byte	0x5469
 12989 494a 00       		.byte	0
 12990 494b 2E       		.uleb128 0x2e
 12991 494c 67250000 		.4byte	.LASF616
 12992 4950 15       		.byte	0x15
 12993 4951 27       		.byte	0x27
 12994 4952 93390000 		.4byte	.LASF797
 12995 4956 2D010000 		.4byte	0x12d
 12996 495a 01       		.byte	0x1
 12997 495b 63490000 		.4byte	0x4963
 12998 495f 73490000 		.4byte	0x4973
 12999 4963 28       		.uleb128 0x28
 13000 4964 57540000 		.4byte	0x5457
 13001 4968 13       		.uleb128 0x13
 13002 4969 69540000 		.4byte	0x5469
 13003 496d 13       		.uleb128 0x13
 13004 496e 6A500000 		.4byte	0x506a
 13005 4972 00       		.byte	0
 13006 4973 2E       		.uleb128 0x2e
ARM GAS  /tmp/ccypRU8x.s 			page 232


 13007 4974 A14A0000 		.4byte	.LASF252
 13008 4978 15       		.byte	0x15
 13009 4979 39       		.byte	0x39
 13010 497a 940B0000 		.4byte	.LASF798
 13011 497e 2D010000 		.4byte	0x12d
 13012 4982 01       		.byte	0x1
 13013 4983 8B490000 		.4byte	0x498b
 13014 4987 96490000 		.4byte	0x4996
 13015 498b 28       		.uleb128 0x28
 13016 498c 57540000 		.4byte	0x5457
 13017 4990 13       		.uleb128 0x13
 13018 4991 6F540000 		.4byte	0x546f
 13019 4995 00       		.byte	0
 13020 4996 29       		.uleb128 0x29
 13021 4997 D0630000 		.4byte	.LASF793
 13022 499b 15       		.byte	0x15
 13023 499c 41       		.byte	0x41
 13024 499d 57540000 		.4byte	0x5457
 13025 49a1 01       		.byte	0x1
 13026 49a2 AA490000 		.4byte	0x49aa
 13027 49a6 BF490000 		.4byte	0x49bf
 13028 49aa 28       		.uleb128 0x28
 13029 49ab 57540000 		.4byte	0x5457
 13030 49af 13       		.uleb128 0x13
 13031 49b0 75540000 		.4byte	0x5475
 13032 49b4 13       		.uleb128 0x13
 13033 49b5 25000000 		.4byte	0x25
 13034 49b9 13       		.uleb128 0x13
 13035 49ba DA480000 		.4byte	0x48da
 13036 49be 00       		.byte	0
 13037 49bf 51       		.uleb128 0x51
 13038 49c0 18610000 		.4byte	.LASF799
 13039 49c4 15       		.byte	0x15
 13040 49c5 4C       		.byte	0x4c
 13041 49c6 BF000000 		.4byte	0xbf
 13042 49ca 01       		.byte	0x1
 13043 49cb CA480000 		.4byte	0x48ca
 13044 49cf 01       		.byte	0x1
 13045 49d0 D8490000 		.4byte	0x49d8
 13046 49d4 E3490000 		.4byte	0x49e3
 13047 49d8 28       		.uleb128 0x28
 13048 49d9 57540000 		.4byte	0x5457
 13049 49dd 28       		.uleb128 0x28
 13050 49de 37000000 		.4byte	0x37
 13051 49e2 00       		.byte	0
 13052 49e3 41       		.uleb128 0x41
 13053 49e4 9A120000 		.4byte	.LASF790
 13054 49e8 E6470000 		.4byte	0x47e6
 13055 49ec 00       		.byte	0
 13056 49ed 07       		.uleb128 0x7
 13057 49ee E6470000 		.4byte	0x47e6
 13058 49f2 07       		.uleb128 0x7
 13059 49f3 1B480000 		.4byte	0x481b
 13060 49f7 07       		.uleb128 0x7
 13061 49f8 CA480000 		.4byte	0x48ca
 13062 49fc 49       		.uleb128 0x49
 13063 49fd 27100000 		.4byte	.LASF800
ARM GAS  /tmp/ccypRU8x.s 			page 233


 13064 4a01 9C       		.byte	0x9c
 13065 4a02 13       		.byte	0x13
 13066 4a03 0E       		.byte	0xe
 13067 4a04 06450000 		.4byte	0x4506
 13068 4a08 AB4A0000 		.4byte	0x4aab
 13069 4a0c 4A       		.uleb128 0x4a
 13070 4a0d AB4A0000 		.4byte	0x4aab
 13071 4a11 00       		.byte	0
 13072 4a12 01       		.byte	0x1
 13073 4a13 0C       		.uleb128 0xc
 13074 4a14 66140000 		.4byte	.LASF784
 13075 4a18 13       		.byte	0x13
 13076 4a19 15       		.byte	0x15
 13077 4a1a 7B540000 		.4byte	0x547b
 13078 4a1e 38       		.byte	0x38
 13079 4a1f 0C       		.uleb128 0xc
 13080 4a20 933E0000 		.4byte	.LASF785
 13081 4a24 13       		.byte	0x13
 13082 4a25 16       		.byte	0x16
 13083 4a26 8B540000 		.4byte	0x548b
 13084 4a2a 88       		.byte	0x88
 13085 4a2b 2D       		.uleb128 0x2d
 13086 4a2c F60C0000 		.4byte	.LASF786
 13087 4a30 13       		.byte	0x13
 13088 4a31 12       		.byte	0x12
 13089 4a32 BB4A0000 		.4byte	0x4abb
 13090 4a36 01       		.byte	0x1
 13091 4a37 4B       		.uleb128 0x4b
 13092 4a38 EB600000 		.4byte	.LASF787
 13093 4a3c BC540000 		.4byte	0x54bc
 13094 4a40 01       		.byte	0x1
 13095 4a41 494A0000 		.4byte	0x4a49
 13096 4a45 544A0000 		.4byte	0x4a54
 13097 4a49 28       		.uleb128 0x28
 13098 4a4a BC540000 		.4byte	0x54bc
 13099 4a4e 13       		.uleb128 0x13
 13100 4a4f C2540000 		.4byte	0x54c2
 13101 4a53 00       		.byte	0
 13102 4a54 29       		.uleb128 0x29
 13103 4a55 EB600000 		.4byte	.LASF787
 13104 4a59 13       		.byte	0x13
 13105 4a5a 1F       		.byte	0x1f
 13106 4a5b BC540000 		.4byte	0x54bc
 13107 4a5f 01       		.byte	0x1
 13108 4a60 684A0000 		.4byte	0x4a68
 13109 4a64 734A0000 		.4byte	0x4a73
 13110 4a68 28       		.uleb128 0x28
 13111 4a69 BC540000 		.4byte	0x54bc
 13112 4a6d 13       		.uleb128 0x13
 13113 4a6e 2B4A0000 		.4byte	0x4a2b
 13114 4a72 00       		.byte	0
 13115 4a73 51       		.uleb128 0x51
 13116 4a74 E8080000 		.4byte	.LASF789
 13117 4a78 13       		.byte	0x13
 13118 4a79 26       		.byte	0x26
 13119 4a7a BF000000 		.4byte	0xbf
 13120 4a7e 01       		.byte	0x1
ARM GAS  /tmp/ccypRU8x.s 			page 234


 13121 4a7f FC490000 		.4byte	0x49fc
 13122 4a83 01       		.byte	0x1
 13123 4a84 8C4A0000 		.4byte	0x4a8c
 13124 4a88 974A0000 		.4byte	0x4a97
 13125 4a8c 28       		.uleb128 0x28
 13126 4a8d BC540000 		.4byte	0x54bc
 13127 4a91 28       		.uleb128 0x28
 13128 4a92 37000000 		.4byte	0x37
 13129 4a96 00       		.byte	0
 13130 4a97 41       		.uleb128 0x41
 13131 4a98 9A120000 		.4byte	.LASF790
 13132 4a9c 67470000 		.4byte	0x4767
 13133 4aa0 54       		.uleb128 0x54
 13134 4aa1 175B0000 		.4byte	.LASF791
 13135 4aa5 30000000 		.4byte	0x30
 13136 4aa9 05       		.byte	0x5
 13137 4aaa 00       		.byte	0
 13138 4aab 49       		.uleb128 0x49
 13139 4aac A51D0000 		.4byte	.LASF801
 13140 4ab0 38       		.byte	0x38
 13141 4ab1 15       		.byte	0x15
 13142 4ab2 0D       		.byte	0xd
 13143 4ab3 06450000 		.4byte	0x4506
 13144 4ab7 CE4B0000 		.4byte	0x4bce
 13145 4abb 2D       		.uleb128 0x2d
 13146 4abc F60C0000 		.4byte	.LASF786
 13147 4ac0 15       		.byte	0x15
 13148 4ac1 0F       		.byte	0xf
 13149 4ac2 A1540000 		.4byte	0x54a1
 13150 4ac6 01       		.byte	0x1
 13151 4ac7 4A       		.uleb128 0x4a
 13152 4ac8 091D0000 		.4byte	0x1d09
 13153 4acc 00       		.byte	0
 13154 4acd 01       		.byte	0x1
 13155 4ace 4B       		.uleb128 0x4b
 13156 4acf D0630000 		.4byte	.LASF793
 13157 4ad3 C8540000 		.4byte	0x54c8
 13158 4ad7 01       		.byte	0x1
 13159 4ad8 E04A0000 		.4byte	0x4ae0
 13160 4adc EB4A0000 		.4byte	0x4aeb
 13161 4ae0 28       		.uleb128 0x28
 13162 4ae1 C8540000 		.4byte	0x54c8
 13163 4ae5 13       		.uleb128 0x13
 13164 4ae6 CE540000 		.4byte	0x54ce
 13165 4aea 00       		.byte	0
 13166 4aeb 2E       		.uleb128 0x2e
 13167 4aec F7100000 		.4byte	.LASF794
 13168 4af0 15       		.byte	0x15
 13169 4af1 32       		.byte	0x32
 13170 4af2 2D140000 		.4byte	.LASF802
 13171 4af6 BB4A0000 		.4byte	0x4abb
 13172 4afa 01       		.byte	0x1
 13173 4afb 034B0000 		.4byte	0x4b03
 13174 4aff 094B0000 		.4byte	0x4b09
 13175 4b03 28       		.uleb128 0x28
 13176 4b04 D4540000 		.4byte	0x54d4
 13177 4b08 00       		.byte	0
ARM GAS  /tmp/ccypRU8x.s 			page 235


 13178 4b09 2E       		.uleb128 0x2e
 13179 4b0a 67250000 		.4byte	.LASF616
 13180 4b0e 15       		.byte	0x15
 13181 4b0f 1F       		.byte	0x1f
 13182 4b10 4D230000 		.4byte	.LASF803
 13183 4b14 2D010000 		.4byte	0x12d
 13184 4b18 01       		.byte	0x1
 13185 4b19 214B0000 		.4byte	0x4b21
 13186 4b1d 2C4B0000 		.4byte	0x4b2c
 13187 4b21 28       		.uleb128 0x28
 13188 4b22 C8540000 		.4byte	0x54c8
 13189 4b26 13       		.uleb128 0x13
 13190 4b27 DA540000 		.4byte	0x54da
 13191 4b2b 00       		.byte	0
 13192 4b2c 2E       		.uleb128 0x2e
 13193 4b2d 67250000 		.4byte	.LASF616
 13194 4b31 15       		.byte	0x15
 13195 4b32 27       		.byte	0x27
 13196 4b33 CC250000 		.4byte	.LASF804
 13197 4b37 2D010000 		.4byte	0x12d
 13198 4b3b 01       		.byte	0x1
 13199 4b3c 444B0000 		.4byte	0x4b44
 13200 4b40 544B0000 		.4byte	0x4b54
 13201 4b44 28       		.uleb128 0x28
 13202 4b45 C8540000 		.4byte	0x54c8
 13203 4b49 13       		.uleb128 0x13
 13204 4b4a DA540000 		.4byte	0x54da
 13205 4b4e 13       		.uleb128 0x13
 13206 4b4f 6A500000 		.4byte	0x506a
 13207 4b53 00       		.byte	0
 13208 4b54 2E       		.uleb128 0x2e
 13209 4b55 A14A0000 		.4byte	.LASF252
 13210 4b59 15       		.byte	0x15
 13211 4b5a 39       		.byte	0x39
 13212 4b5b 2E600000 		.4byte	.LASF805
 13213 4b5f 2D010000 		.4byte	0x12d
 13214 4b63 01       		.byte	0x1
 13215 4b64 6C4B0000 		.4byte	0x4b6c
 13216 4b68 774B0000 		.4byte	0x4b77
 13217 4b6c 28       		.uleb128 0x28
 13218 4b6d C8540000 		.4byte	0x54c8
 13219 4b71 13       		.uleb128 0x13
 13220 4b72 E0540000 		.4byte	0x54e0
 13221 4b76 00       		.byte	0
 13222 4b77 29       		.uleb128 0x29
 13223 4b78 D0630000 		.4byte	.LASF793
 13224 4b7c 15       		.byte	0x15
 13225 4b7d 41       		.byte	0x41
 13226 4b7e C8540000 		.4byte	0x54c8
 13227 4b82 01       		.byte	0x1
 13228 4b83 8B4B0000 		.4byte	0x4b8b
 13229 4b87 A04B0000 		.4byte	0x4ba0
 13230 4b8b 28       		.uleb128 0x28
 13231 4b8c C8540000 		.4byte	0x54c8
 13232 4b90 13       		.uleb128 0x13
 13233 4b91 E6540000 		.4byte	0x54e6
 13234 4b95 13       		.uleb128 0x13
ARM GAS  /tmp/ccypRU8x.s 			page 236


 13235 4b96 25000000 		.4byte	0x25
 13236 4b9a 13       		.uleb128 0x13
 13237 4b9b BB4A0000 		.4byte	0x4abb
 13238 4b9f 00       		.byte	0
 13239 4ba0 51       		.uleb128 0x51
 13240 4ba1 18610000 		.4byte	.LASF799
 13241 4ba5 15       		.byte	0x15
 13242 4ba6 4C       		.byte	0x4c
 13243 4ba7 BF000000 		.4byte	0xbf
 13244 4bab 01       		.byte	0x1
 13245 4bac AB4A0000 		.4byte	0x4aab
 13246 4bb0 01       		.byte	0x1
 13247 4bb1 B94B0000 		.4byte	0x4bb9
 13248 4bb5 C44B0000 		.4byte	0x4bc4
 13249 4bb9 28       		.uleb128 0x28
 13250 4bba C8540000 		.4byte	0x54c8
 13251 4bbe 28       		.uleb128 0x28
 13252 4bbf 37000000 		.4byte	0x37
 13253 4bc3 00       		.byte	0
 13254 4bc4 41       		.uleb128 0x41
 13255 4bc5 9A120000 		.4byte	.LASF790
 13256 4bc9 67470000 		.4byte	0x4767
 13257 4bcd 00       		.byte	0
 13258 4bce 07       		.uleb128 0x7
 13259 4bcf 67470000 		.4byte	0x4767
 13260 4bd3 07       		.uleb128 0x7
 13261 4bd4 FC490000 		.4byte	0x49fc
 13262 4bd8 07       		.uleb128 0x7
 13263 4bd9 AB4A0000 		.4byte	0x4aab
 13264 4bdd 49       		.uleb128 0x49
 13265 4bde 56260000 		.4byte	.LASF806
 13266 4be2 10       		.byte	0x10
 13267 4be3 11       		.byte	0x11
 13268 4be4 0C       		.byte	0xc
 13269 4be5 C74C0000 		.4byte	0x4cc7
 13270 4be9 C24C0000 		.4byte	0x4cc2
 13271 4bed 4A       		.uleb128 0x4a
 13272 4bee 2D2E0000 		.4byte	0x2e2d
 13273 4bf2 00       		.byte	0
 13274 4bf3 01       		.byte	0x1
 13275 4bf4 4B       		.uleb128 0x4b
 13276 4bf5 D1600000 		.4byte	.LASF807
 13277 4bf9 EC540000 		.4byte	0x54ec
 13278 4bfd 01       		.byte	0x1
 13279 4bfe 064C0000 		.4byte	0x4c06
 13280 4c02 114C0000 		.4byte	0x4c11
 13281 4c06 28       		.uleb128 0x28
 13282 4c07 EC540000 		.4byte	0x54ec
 13283 4c0b 13       		.uleb128 0x13
 13284 4c0c F2540000 		.4byte	0x54f2
 13285 4c10 00       		.byte	0
 13286 4c11 2E       		.uleb128 0x2e
 13287 4c12 4A340000 		.4byte	.LASF267
 13288 4c16 11       		.byte	0x11
 13289 4c17 19       		.byte	0x19
 13290 4c18 DE0E0000 		.4byte	.LASF808
 13291 4c1c 2D010000 		.4byte	0x12d
ARM GAS  /tmp/ccypRU8x.s 			page 237


 13292 4c20 01       		.byte	0x1
 13293 4c21 294C0000 		.4byte	0x4c29
 13294 4c25 344C0000 		.4byte	0x4c34
 13295 4c29 28       		.uleb128 0x28
 13296 4c2a EC540000 		.4byte	0x54ec
 13297 4c2e 13       		.uleb128 0x13
 13298 4c2f F8540000 		.4byte	0x54f8
 13299 4c33 00       		.byte	0
 13300 4c34 2E       		.uleb128 0x2e
 13301 4c35 A0520000 		.4byte	.LASF809
 13302 4c39 11       		.byte	0x11
 13303 4c3a 21       		.byte	0x21
 13304 4c3b 63600000 		.4byte	.LASF810
 13305 4c3f 2D010000 		.4byte	0x12d
 13306 4c43 01       		.byte	0x1
 13307 4c44 4C4C0000 		.4byte	0x4c4c
 13308 4c48 574C0000 		.4byte	0x4c57
 13309 4c4c 28       		.uleb128 0x28
 13310 4c4d EC540000 		.4byte	0x54ec
 13311 4c51 13       		.uleb128 0x13
 13312 4c52 04550000 		.4byte	0x5504
 13313 4c56 00       		.byte	0
 13314 4c57 2E       		.uleb128 0x2e
 13315 4c58 A0520000 		.4byte	.LASF809
 13316 4c5c 11       		.byte	0x11
 13317 4c5d 28       		.byte	0x28
 13318 4c5e 7D630000 		.4byte	.LASF811
 13319 4c62 2D010000 		.4byte	0x12d
 13320 4c66 01       		.byte	0x1
 13321 4c67 6F4C0000 		.4byte	0x4c6f
 13322 4c6b 7A4C0000 		.4byte	0x4c7a
 13323 4c6f 28       		.uleb128 0x28
 13324 4c70 EC540000 		.4byte	0x54ec
 13325 4c74 13       		.uleb128 0x13
 13326 4c75 FE540000 		.4byte	0x54fe
 13327 4c79 00       		.byte	0
 13328 4c7a 29       		.uleb128 0x29
 13329 4c7b D1600000 		.4byte	.LASF807
 13330 4c7f 11       		.byte	0x11
 13331 4c80 2F       		.byte	0x2f
 13332 4c81 EC540000 		.4byte	0x54ec
 13333 4c85 01       		.byte	0x1
 13334 4c86 8E4C0000 		.4byte	0x4c8e
 13335 4c8a 944C0000 		.4byte	0x4c94
 13336 4c8e 28       		.uleb128 0x28
 13337 4c8f EC540000 		.4byte	0x54ec
 13338 4c93 00       		.byte	0
 13339 4c94 51       		.uleb128 0x51
 13340 4c95 D8540000 		.4byte	.LASF812
 13341 4c99 11       		.byte	0x11
 13342 4c9a 36       		.byte	0x36
 13343 4c9b BF000000 		.4byte	0xbf
 13344 4c9f 01       		.byte	0x1
 13345 4ca0 DD4B0000 		.4byte	0x4bdd
 13346 4ca4 01       		.byte	0x1
 13347 4ca5 AD4C0000 		.4byte	0x4cad
 13348 4ca9 B84C0000 		.4byte	0x4cb8
ARM GAS  /tmp/ccypRU8x.s 			page 238


 13349 4cad 28       		.uleb128 0x28
 13350 4cae EC540000 		.4byte	0x54ec
 13351 4cb2 28       		.uleb128 0x28
 13352 4cb3 37000000 		.4byte	0x37
 13353 4cb7 00       		.byte	0
 13354 4cb8 41       		.uleb128 0x41
 13355 4cb9 9A120000 		.4byte	.LASF790
 13356 4cbd 34470000 		.4byte	0x4734
 13357 4cc1 00       		.byte	0
 13358 4cc2 07       		.uleb128 0x7
 13359 4cc3 DD4B0000 		.4byte	0x4bdd
 13360 4cc7 49       		.uleb128 0x49
 13361 4cc8 60290000 		.4byte	.LASF813
 13362 4ccc 08       		.byte	0x8
 13363 4ccd 07       		.byte	0x7
 13364 4cce 0C       		.byte	0xc
 13365 4ccf C74C0000 		.4byte	0x4cc7
 13366 4cd3 C04E0000 		.4byte	0x4ec0
 13367 4cd7 2B       		.uleb128 0x2b
 13368 4cd8 65110000 		.4byte	0x1165
 13369 4cdc 00       		.byte	0
 13370 4cdd 50       		.uleb128 0x50
 13371 4cde 9D140000 		.4byte	.LASF814
 13372 4ce2 33550000 		.4byte	0x5533
 13373 4ce6 00       		.byte	0
 13374 4ce7 01       		.byte	0x1
 13375 4ce8 0C       		.uleb128 0xc
 13376 4ce9 99520000 		.4byte	.LASF759
 13377 4ced 07       		.byte	0x7
 13378 4cee 0E       		.byte	0xe
 13379 4cef B1510000 		.4byte	0x51b1
 13380 4cf3 04       		.byte	0x4
 13381 4cf4 4B       		.uleb128 0x4b
 13382 4cf5 60290000 		.4byte	.LASF813
 13383 4cf9 4F550000 		.4byte	0x554f
 13384 4cfd 01       		.byte	0x1
 13385 4cfe 064D0000 		.4byte	0x4d06
 13386 4d02 114D0000 		.4byte	0x4d11
 13387 4d06 28       		.uleb128 0x28
 13388 4d07 4F550000 		.4byte	0x554f
 13389 4d0b 13       		.uleb128 0x13
 13390 4d0c 55550000 		.4byte	0x5555
 13391 4d10 00       		.byte	0
 13392 4d11 2E       		.uleb128 0x2e
 13393 4d12 420E0000 		.4byte	.LASF760
 13394 4d16 07       		.byte	0x7
 13395 4d17 30       		.byte	0x30
 13396 4d18 14270000 		.4byte	.LASF815
 13397 4d1c B1510000 		.4byte	0x51b1
 13398 4d20 01       		.byte	0x1
 13399 4d21 294D0000 		.4byte	0x4d29
 13400 4d25 2F4D0000 		.4byte	0x4d2f
 13401 4d29 28       		.uleb128 0x28
 13402 4d2a 5B550000 		.4byte	0x555b
 13403 4d2e 00       		.byte	0
 13404 4d2f 2F       		.uleb128 0x2f
 13405 4d30 D4020000 		.4byte	.LASF816
ARM GAS  /tmp/ccypRU8x.s 			page 239


 13406 4d34 07       		.byte	0x7
 13407 4d35 37       		.byte	0x37
 13408 4d36 8E4F0000 		.4byte	.LASF817
 13409 4d3a 01       		.byte	0x1
 13410 4d3b 434D0000 		.4byte	0x4d43
 13411 4d3f 4E4D0000 		.4byte	0x4d4e
 13412 4d43 28       		.uleb128 0x28
 13413 4d44 4F550000 		.4byte	0x554f
 13414 4d48 13       		.uleb128 0x13
 13415 4d49 D4510000 		.4byte	0x51d4
 13416 4d4d 00       		.byte	0
 13417 4d4e 2E       		.uleb128 0x2e
 13418 4d4f 97370000 		.4byte	.LASF264
 13419 4d53 07       		.byte	0x7
 13420 4d54 40       		.byte	0x40
 13421 4d55 8F4D0000 		.4byte	.LASF818
 13422 4d59 2D010000 		.4byte	0x12d
 13423 4d5d 01       		.byte	0x1
 13424 4d5e 664D0000 		.4byte	0x4d66
 13425 4d62 714D0000 		.4byte	0x4d71
 13426 4d66 28       		.uleb128 0x28
 13427 4d67 4F550000 		.4byte	0x554f
 13428 4d6b 13       		.uleb128 0x13
 13429 4d6c 9D520000 		.4byte	0x529d
 13430 4d70 00       		.byte	0
 13431 4d71 2E       		.uleb128 0x2e
 13432 4d72 02400000 		.4byte	.LASF819
 13433 4d76 07       		.byte	0x7
 13434 4d77 16       		.byte	0x16
 13435 4d78 00130000 		.4byte	.LASF820
 13436 4d7c 2D010000 		.4byte	0x12d
 13437 4d80 01       		.byte	0x1
 13438 4d81 894D0000 		.4byte	0x4d89
 13439 4d85 944D0000 		.4byte	0x4d94
 13440 4d89 28       		.uleb128 0x28
 13441 4d8a 4F550000 		.4byte	0x554f
 13442 4d8e 13       		.uleb128 0x13
 13443 4d8f EB510000 		.4byte	0x51eb
 13444 4d93 00       		.byte	0
 13445 4d94 2E       		.uleb128 0x2e
 13446 4d95 D8120000 		.4byte	.LASF821
 13447 4d99 07       		.byte	0x7
 13448 4d9a 17       		.byte	0x17
 13449 4d9b A2110000 		.4byte	.LASF822
 13450 4d9f 2D010000 		.4byte	0x12d
 13451 4da3 01       		.byte	0x1
 13452 4da4 AC4D0000 		.4byte	0x4dac
 13453 4da8 B74D0000 		.4byte	0x4db7
 13454 4dac 28       		.uleb128 0x28
 13455 4dad 4F550000 		.4byte	0x554f
 13456 4db1 13       		.uleb128 0x13
 13457 4db2 EB510000 		.4byte	0x51eb
 13458 4db6 00       		.byte	0
 13459 4db7 2E       		.uleb128 0x2e
 13460 4db8 3A290000 		.4byte	.LASF823
 13461 4dbc 07       		.byte	0x7
 13462 4dbd 18       		.byte	0x18
ARM GAS  /tmp/ccypRU8x.s 			page 240


 13463 4dbe 6C070000 		.4byte	.LASF824
 13464 4dc2 2D010000 		.4byte	0x12d
 13465 4dc6 01       		.byte	0x1
 13466 4dc7 CF4D0000 		.4byte	0x4dcf
 13467 4dcb DA4D0000 		.4byte	0x4dda
 13468 4dcf 28       		.uleb128 0x28
 13469 4dd0 4F550000 		.4byte	0x554f
 13470 4dd4 13       		.uleb128 0x13
 13471 4dd5 EB510000 		.4byte	0x51eb
 13472 4dd9 00       		.byte	0
 13473 4dda 2E       		.uleb128 0x2e
 13474 4ddb 4A340000 		.4byte	.LASF267
 13475 4ddf 07       		.byte	0x7
 13476 4de0 4A       		.byte	0x4a
 13477 4de1 692C0000 		.4byte	.LASF825
 13478 4de5 2D010000 		.4byte	0x12d
 13479 4de9 01       		.byte	0x1
 13480 4dea F24D0000 		.4byte	0x4df2
 13481 4dee FD4D0000 		.4byte	0x4dfd
 13482 4df2 28       		.uleb128 0x28
 13483 4df3 4F550000 		.4byte	0x554f
 13484 4df7 13       		.uleb128 0x13
 13485 4df8 9D520000 		.4byte	0x529d
 13486 4dfc 00       		.byte	0
 13487 4dfd 2E       		.uleb128 0x2e
 13488 4dfe A0520000 		.4byte	.LASF809
 13489 4e02 07       		.byte	0x7
 13490 4e03 1B       		.byte	0x1b
 13491 4e04 FD400000 		.4byte	.LASF826
 13492 4e08 2D010000 		.4byte	0x12d
 13493 4e0c 01       		.byte	0x1
 13494 4e0d 154E0000 		.4byte	0x4e15
 13495 4e11 204E0000 		.4byte	0x4e20
 13496 4e15 28       		.uleb128 0x28
 13497 4e16 4F550000 		.4byte	0x554f
 13498 4e1a 13       		.uleb128 0x13
 13499 4e1b EB510000 		.4byte	0x51eb
 13500 4e1f 00       		.byte	0
 13501 4e20 2E       		.uleb128 0x2e
 13502 4e21 3A0C0000 		.4byte	.LASF827
 13503 4e25 07       		.byte	0x7
 13504 4e26 54       		.byte	0x54
 13505 4e27 C53E0000 		.4byte	.LASF828
 13506 4e2b 2D010000 		.4byte	0x12d
 13507 4e2f 01       		.byte	0x1
 13508 4e30 384E0000 		.4byte	0x4e38
 13509 4e34 434E0000 		.4byte	0x4e43
 13510 4e38 28       		.uleb128 0x28
 13511 4e39 4F550000 		.4byte	0x554f
 13512 4e3d 13       		.uleb128 0x13
 13513 4e3e EB510000 		.4byte	0x51eb
 13514 4e42 00       		.byte	0
 13515 4e43 2E       		.uleb128 0x2e
 13516 4e44 B93B0000 		.4byte	.LASF829
 13517 4e48 07       		.byte	0x7
 13518 4e49 5D       		.byte	0x5d
 13519 4e4a B9070000 		.4byte	.LASF830
ARM GAS  /tmp/ccypRU8x.s 			page 241


 13520 4e4e 2D010000 		.4byte	0x12d
 13521 4e52 01       		.byte	0x1
 13522 4e53 5B4E0000 		.4byte	0x4e5b
 13523 4e57 664E0000 		.4byte	0x4e66
 13524 4e5b 28       		.uleb128 0x28
 13525 4e5c 4F550000 		.4byte	0x554f
 13526 4e60 13       		.uleb128 0x13
 13527 4e61 EB510000 		.4byte	0x51eb
 13528 4e65 00       		.byte	0
 13529 4e66 29       		.uleb128 0x29
 13530 4e67 60290000 		.4byte	.LASF813
 13531 4e6b 07       		.byte	0x7
 13532 4e6c 20       		.byte	0x20
 13533 4e6d 4F550000 		.4byte	0x554f
 13534 4e71 02       		.byte	0x2
 13535 4e72 7A4E0000 		.4byte	0x4e7a
 13536 4e76 804E0000 		.4byte	0x4e80
 13537 4e7a 28       		.uleb128 0x28
 13538 4e7b 4F550000 		.4byte	0x554f
 13539 4e7f 00       		.byte	0
 13540 4e80 51       		.uleb128 0x51
 13541 4e81 E70C0000 		.4byte	.LASF831
 13542 4e85 07       		.byte	0x7
 13543 4e86 21       		.byte	0x21
 13544 4e87 BF000000 		.4byte	0xbf
 13545 4e8b 01       		.byte	0x1
 13546 4e8c C74C0000 		.4byte	0x4cc7
 13547 4e90 02       		.byte	0x2
 13548 4e91 994E0000 		.4byte	0x4e99
 13549 4e95 A44E0000 		.4byte	0x4ea4
 13550 4e99 28       		.uleb128 0x28
 13551 4e9a 4F550000 		.4byte	0x554f
 13552 4e9e 28       		.uleb128 0x28
 13553 4e9f 37000000 		.4byte	0x37
 13554 4ea3 00       		.byte	0
 13555 4ea4 46       		.uleb128 0x46
 13556 4ea5 50340000 		.4byte	.LASF771
 13557 4ea9 07       		.byte	0x7
 13558 4eaa 66       		.byte	0x66
 13559 4eab 10290000 		.4byte	.LASF832
 13560 4eaf 2D010000 		.4byte	0x12d
 13561 4eb3 01       		.byte	0x1
 13562 4eb4 13       		.uleb128 0x13
 13563 4eb5 55550000 		.4byte	0x5555
 13564 4eb9 13       		.uleb128 0x13
 13565 4eba CE000000 		.4byte	0xce
 13566 4ebe 00       		.byte	0
 13567 4ebf 00       		.byte	0
 13568 4ec0 49       		.uleb128 0x49
 13569 4ec1 5C610000 		.4byte	.LASF833
 13570 4ec5 10       		.byte	0x10
 13571 4ec6 11       		.byte	0x11
 13572 4ec7 0C       		.byte	0xc
 13573 4ec8 C74C0000 		.4byte	0x4cc7
 13574 4ecc A54F0000 		.4byte	0x4fa5
 13575 4ed0 4A       		.uleb128 0x4a
 13576 4ed1 2D2E0000 		.4byte	0x2e2d
ARM GAS  /tmp/ccypRU8x.s 			page 242


 13577 4ed5 00       		.byte	0
 13578 4ed6 01       		.byte	0x1
 13579 4ed7 4B       		.uleb128 0x4b
 13580 4ed8 D1600000 		.4byte	.LASF807
 13581 4edc 0A550000 		.4byte	0x550a
 13582 4ee0 01       		.byte	0x1
 13583 4ee1 E94E0000 		.4byte	0x4ee9
 13584 4ee5 F44E0000 		.4byte	0x4ef4
 13585 4ee9 28       		.uleb128 0x28
 13586 4eea 0A550000 		.4byte	0x550a
 13587 4eee 13       		.uleb128 0x13
 13588 4eef 10550000 		.4byte	0x5510
 13589 4ef3 00       		.byte	0
 13590 4ef4 2E       		.uleb128 0x2e
 13591 4ef5 4A340000 		.4byte	.LASF267
 13592 4ef9 11       		.byte	0x11
 13593 4efa 19       		.byte	0x19
 13594 4efb 02510000 		.4byte	.LASF834
 13595 4eff 2D010000 		.4byte	0x12d
 13596 4f03 01       		.byte	0x1
 13597 4f04 0C4F0000 		.4byte	0x4f0c
 13598 4f08 174F0000 		.4byte	0x4f17
 13599 4f0c 28       		.uleb128 0x28
 13600 4f0d 0A550000 		.4byte	0x550a
 13601 4f11 13       		.uleb128 0x13
 13602 4f12 16550000 		.4byte	0x5516
 13603 4f16 00       		.byte	0
 13604 4f17 2E       		.uleb128 0x2e
 13605 4f18 A0520000 		.4byte	.LASF809
 13606 4f1c 11       		.byte	0x11
 13607 4f1d 21       		.byte	0x21
 13608 4f1e 644B0000 		.4byte	.LASF835
 13609 4f22 2D010000 		.4byte	0x12d
 13610 4f26 01       		.byte	0x1
 13611 4f27 2F4F0000 		.4byte	0x4f2f
 13612 4f2b 3A4F0000 		.4byte	0x4f3a
 13613 4f2f 28       		.uleb128 0x28
 13614 4f30 0A550000 		.4byte	0x550a
 13615 4f34 13       		.uleb128 0x13
 13616 4f35 22550000 		.4byte	0x5522
 13617 4f39 00       		.byte	0
 13618 4f3a 2E       		.uleb128 0x2e
 13619 4f3b A0520000 		.4byte	.LASF809
 13620 4f3f 11       		.byte	0x11
 13621 4f40 28       		.byte	0x28
 13622 4f41 34040000 		.4byte	.LASF836
 13623 4f45 2D010000 		.4byte	0x12d
 13624 4f49 01       		.byte	0x1
 13625 4f4a 524F0000 		.4byte	0x4f52
 13626 4f4e 5D4F0000 		.4byte	0x4f5d
 13627 4f52 28       		.uleb128 0x28
 13628 4f53 0A550000 		.4byte	0x550a
 13629 4f57 13       		.uleb128 0x13
 13630 4f58 1C550000 		.4byte	0x551c
 13631 4f5c 00       		.byte	0
 13632 4f5d 29       		.uleb128 0x29
 13633 4f5e D1600000 		.4byte	.LASF807
ARM GAS  /tmp/ccypRU8x.s 			page 243


 13634 4f62 11       		.byte	0x11
 13635 4f63 2F       		.byte	0x2f
 13636 4f64 0A550000 		.4byte	0x550a
 13637 4f68 01       		.byte	0x1
 13638 4f69 714F0000 		.4byte	0x4f71
 13639 4f6d 774F0000 		.4byte	0x4f77
 13640 4f71 28       		.uleb128 0x28
 13641 4f72 0A550000 		.4byte	0x550a
 13642 4f76 00       		.byte	0
 13643 4f77 51       		.uleb128 0x51
 13644 4f78 D8540000 		.4byte	.LASF812
 13645 4f7c 11       		.byte	0x11
 13646 4f7d 36       		.byte	0x36
 13647 4f7e BF000000 		.4byte	0xbf
 13648 4f82 01       		.byte	0x1
 13649 4f83 C04E0000 		.4byte	0x4ec0
 13650 4f87 01       		.byte	0x1
 13651 4f88 904F0000 		.4byte	0x4f90
 13652 4f8c 9B4F0000 		.4byte	0x4f9b
 13653 4f90 28       		.uleb128 0x28
 13654 4f91 0A550000 		.4byte	0x550a
 13655 4f95 28       		.uleb128 0x28
 13656 4f96 37000000 		.4byte	0x37
 13657 4f9a 00       		.byte	0
 13658 4f9b 41       		.uleb128 0x41
 13659 4f9c 9A120000 		.4byte	.LASF790
 13660 4fa0 13470000 		.4byte	0x4713
 13661 4fa4 00       		.byte	0
 13662 4fa5 07       		.uleb128 0x7
 13663 4fa6 C04E0000 		.4byte	0x4ec0
 13664 4faa 07       		.uleb128 0x7
 13665 4fab 06450000 		.4byte	0x4506
 13666 4faf 07       		.uleb128 0x7
 13667 4fb0 C74C0000 		.4byte	0x4cc7
 13668 4fb4 55       		.uleb128 0x55
 13669 4fb5 414A0000 		.4byte	.LASF839
 13670 4fb9 32       		.byte	0x32
 13671 4fba 1F       		.byte	0x1f
 13672 4fbb D24F0000 		.4byte	0x4fd2
 13673 4fbf 41       		.uleb128 0x41
 13674 4fc0 072B0000 		.4byte	.LASF837
 13675 4fc4 13470000 		.4byte	0x4713
 13676 4fc8 41       		.uleb128 0x41
 13677 4fc9 26240000 		.4byte	.LASF838
 13678 4fcd BD2C0000 		.4byte	0x2cbd
 13679 4fd1 00       		.byte	0
 13680 4fd2 07       		.uleb128 0x7
 13681 4fd3 13470000 		.4byte	0x4713
 13682 4fd7 55       		.uleb128 0x55
 13683 4fd8 9A450000 		.4byte	.LASF840
 13684 4fdc 32       		.byte	0x32
 13685 4fdd 1F       		.byte	0x1f
 13686 4fde F54F0000 		.4byte	0x4ff5
 13687 4fe2 41       		.uleb128 0x41
 13688 4fe3 072B0000 		.4byte	.LASF837
 13689 4fe7 34470000 		.4byte	0x4734
 13690 4feb 41       		.uleb128 0x41
ARM GAS  /tmp/ccypRU8x.s 			page 244


 13691 4fec 26240000 		.4byte	.LASF838
 13692 4ff0 BD2C0000 		.4byte	0x2cbd
 13693 4ff4 00       		.byte	0
 13694 4ff5 07       		.uleb128 0x7
 13695 4ff6 34470000 		.4byte	0x4734
 13696 4ffa 55       		.uleb128 0x55
 13697 4ffb 5E030000 		.4byte	.LASF841
 13698 4fff 32       		.byte	0x32
 13699 5000 1F       		.byte	0x1f
 13700 5001 18500000 		.4byte	0x5018
 13701 5005 41       		.uleb128 0x41
 13702 5006 072B0000 		.4byte	.LASF837
 13703 500a 67470000 		.4byte	0x4767
 13704 500e 41       		.uleb128 0x41
 13705 500f 26240000 		.4byte	.LASF838
 13706 5013 BD2C0000 		.4byte	0x2cbd
 13707 5017 00       		.byte	0
 13708 5018 56       		.uleb128 0x56
 13709 5019 E2180000 		.4byte	.LASF938
 13710 501d 32       		.byte	0x32
 13711 501e 1F       		.byte	0x1f
 13712 501f 41       		.uleb128 0x41
 13713 5020 072B0000 		.4byte	.LASF837
 13714 5024 E6470000 		.4byte	0x47e6
 13715 5028 41       		.uleb128 0x41
 13716 5029 26240000 		.4byte	.LASF838
 13717 502d BD2C0000 		.4byte	0x2cbd
 13718 5031 00       		.byte	0
 13719 5032 00       		.byte	0
 13720 5033 06       		.uleb128 0x6
 13721 5034 04       		.byte	0x4
 13722 5035 65110000 		.4byte	0x1165
 13723 5039 57       		.uleb128 0x57
 13724 503a 04       		.byte	0x4
 13725 503b C5110000 		.4byte	0x11c5
 13726 503f 06       		.uleb128 0x6
 13727 5040 04       		.byte	0x4
 13728 5041 CA110000 		.4byte	0x11ca
 13729 5045 06       		.uleb128 0x6
 13730 5046 04       		.byte	0x4
 13731 5047 0E120000 		.4byte	0x120e
 13732 504b 06       		.uleb128 0x6
 13733 504c 04       		.byte	0x4
 13734 504d 0B140000 		.4byte	0x140b
 13735 5051 06       		.uleb128 0x6
 13736 5052 04       		.byte	0x4
 13737 5053 52120000 		.4byte	0x1252
 13738 5057 57       		.uleb128 0x57
 13739 5058 04       		.byte	0x4
 13740 5059 51060000 		.4byte	0x651
 13741 505d 06       		.uleb128 0x6
 13742 505e 04       		.byte	0x4
 13743 505f BD160000 		.4byte	0x16bd
 13744 5063 03       		.uleb128 0x3
 13745 5064 08       		.byte	0x8
 13746 5065 04       		.byte	0x4
 13747 5066 E14A0000 		.4byte	.LASF842
ARM GAS  /tmp/ccypRU8x.s 			page 245


 13748 506a 57       		.uleb128 0x57
 13749 506b 04       		.byte	0x4
 13750 506c 10140000 		.4byte	0x1410
 13751 5070 06       		.uleb128 0x6
 13752 5071 04       		.byte	0x4
 13753 5072 10140000 		.4byte	0x1410
 13754 5076 57       		.uleb128 0x57
 13755 5077 04       		.byte	0x4
 13756 5078 BD160000 		.4byte	0x16bd
 13757 507c 06       		.uleb128 0x6
 13758 507d 04       		.byte	0x4
 13759 507e D4160000 		.4byte	0x16d4
 13760 5082 06       		.uleb128 0x6
 13761 5083 04       		.byte	0x4
 13762 5084 88500000 		.4byte	0x5088
 13763 5088 12       		.uleb128 0x12
 13764 5089 2D010000 		.4byte	0x12d
 13765 508d 97500000 		.4byte	0x5097
 13766 5091 13       		.uleb128 0x13
 13767 5092 97500000 		.4byte	0x5097
 13768 5096 00       		.byte	0
 13769 5097 57       		.uleb128 0x57
 13770 5098 04       		.byte	0x4
 13771 5099 041D0000 		.4byte	0x1d04
 13772 509d 06       		.uleb128 0x6
 13773 509e 04       		.byte	0x4
 13774 509f A3500000 		.4byte	0x50a3
 13775 50a3 12       		.uleb128 0x12
 13776 50a4 2D010000 		.4byte	0x12d
 13777 50a8 B7500000 		.4byte	0x50b7
 13778 50ac 13       		.uleb128 0x13
 13779 50ad 97500000 		.4byte	0x5097
 13780 50b1 13       		.uleb128 0x13
 13781 50b2 D9000000 		.4byte	0xd9
 13782 50b6 00       		.byte	0
 13783 50b7 06       		.uleb128 0x6
 13784 50b8 04       		.byte	0x4
 13785 50b9 DC180000 		.4byte	0x18dc
 13786 50bd 06       		.uleb128 0x6
 13787 50be 04       		.byte	0x4
 13788 50bf 951D0000 		.4byte	0x1d95
 13789 50c3 06       		.uleb128 0x6
 13790 50c4 04       		.byte	0x4
 13791 50c5 C2160000 		.4byte	0x16c2
 13792 50c9 57       		.uleb128 0x57
 13793 50ca 04       		.byte	0x4
 13794 50cb D4160000 		.4byte	0x16d4
 13795 50cf 06       		.uleb128 0x6
 13796 50d0 04       		.byte	0x4
 13797 50d1 091D0000 		.4byte	0x1d09
 13798 50d5 57       		.uleb128 0x57
 13799 50d6 04       		.byte	0x4
 13800 50d7 26170000 		.4byte	0x1726
 13801 50db 57       		.uleb128 0x57
 13802 50dc 04       		.byte	0x4
 13803 50dd 2B170000 		.4byte	0x172b
 13804 50e1 57       		.uleb128 0x57
ARM GAS  /tmp/ccypRU8x.s 			page 246


 13805 50e2 04       		.byte	0x4
 13806 50e3 30170000 		.4byte	0x1730
 13807 50e7 57       		.uleb128 0x57
 13808 50e8 04       		.byte	0x4
 13809 50e9 35170000 		.4byte	0x1735
 13810 50ed 06       		.uleb128 0x6
 13811 50ee 04       		.byte	0x4
 13812 50ef AC1D0000 		.4byte	0x1dac
 13813 50f3 06       		.uleb128 0x6
 13814 50f4 04       		.byte	0x4
 13815 50f5 F9500000 		.4byte	0x50f9
 13816 50f9 12       		.uleb128 0x12
 13817 50fa 2D010000 		.4byte	0x12d
 13818 50fe 08510000 		.4byte	0x5108
 13819 5102 13       		.uleb128 0x13
 13820 5103 08510000 		.4byte	0x5108
 13821 5107 00       		.byte	0
 13822 5108 57       		.uleb128 0x57
 13823 5109 04       		.byte	0x4
 13824 510a 67220000 		.4byte	0x2267
 13825 510e 06       		.uleb128 0x6
 13826 510f 04       		.byte	0x4
 13827 5110 14510000 		.4byte	0x5114
 13828 5114 12       		.uleb128 0x12
 13829 5115 2D010000 		.4byte	0x12d
 13830 5119 28510000 		.4byte	0x5128
 13831 511d 13       		.uleb128 0x13
 13832 511e 08510000 		.4byte	0x5108
 13833 5122 13       		.uleb128 0x13
 13834 5123 D9000000 		.4byte	0xd9
 13835 5127 00       		.byte	0
 13836 5128 06       		.uleb128 0x6
 13837 5129 04       		.byte	0x4
 13838 512a 441E0000 		.4byte	0x1e44
 13839 512e 06       		.uleb128 0x6
 13840 512f 04       		.byte	0x4
 13841 5130 71220000 		.4byte	0x2271
 13842 5134 06       		.uleb128 0x6
 13843 5135 04       		.byte	0x4
 13844 5136 9A1D0000 		.4byte	0x1d9a
 13845 513a 57       		.uleb128 0x57
 13846 513b 04       		.byte	0x4
 13847 513c AC1D0000 		.4byte	0x1dac
 13848 5140 06       		.uleb128 0x6
 13849 5141 04       		.byte	0x4
 13850 5142 6C220000 		.4byte	0x226c
 13851 5146 57       		.uleb128 0x57
 13852 5147 04       		.byte	0x4
 13853 5148 F91D0000 		.4byte	0x1df9
 13854 514c 57       		.uleb128 0x57
 13855 514d 04       		.byte	0x4
 13856 514e FE1D0000 		.4byte	0x1dfe
 13857 5152 57       		.uleb128 0x57
 13858 5153 04       		.byte	0x4
 13859 5154 031E0000 		.4byte	0x1e03
 13860 5158 57       		.uleb128 0x57
 13861 5159 04       		.byte	0x4
ARM GAS  /tmp/ccypRU8x.s 			page 247


 13862 515a 081E0000 		.4byte	0x1e08
 13863 515e 06       		.uleb128 0x6
 13864 515f 04       		.byte	0x4
 13865 5160 88220000 		.4byte	0x2288
 13866 5164 06       		.uleb128 0x6
 13867 5165 04       		.byte	0x4
 13868 5166 6A510000 		.4byte	0x516a
 13869 516a 12       		.uleb128 0x12
 13870 516b 2D010000 		.4byte	0x12d
 13871 516f 79510000 		.4byte	0x5179
 13872 5173 13       		.uleb128 0x13
 13873 5174 79510000 		.4byte	0x5179
 13874 5178 00       		.byte	0
 13875 5179 57       		.uleb128 0x57
 13876 517a 04       		.byte	0x4
 13877 517b 43270000 		.4byte	0x2743
 13878 517f 06       		.uleb128 0x6
 13879 5180 04       		.byte	0x4
 13880 5181 85510000 		.4byte	0x5185
 13881 5185 12       		.uleb128 0x12
 13882 5186 2D010000 		.4byte	0x12d
 13883 518a 99510000 		.4byte	0x5199
 13884 518e 13       		.uleb128 0x13
 13885 518f 79510000 		.4byte	0x5179
 13886 5193 13       		.uleb128 0x13
 13887 5194 D9000000 		.4byte	0xd9
 13888 5198 00       		.byte	0
 13889 5199 06       		.uleb128 0x6
 13890 519a 04       		.byte	0x4
 13891 519b 20230000 		.4byte	0x2320
 13892 519f 06       		.uleb128 0x6
 13893 51a0 04       		.byte	0x4
 13894 51a1 B82C0000 		.4byte	0x2cb8
 13895 51a5 06       		.uleb128 0x6
 13896 51a6 04       		.byte	0x4
 13897 51a7 76220000 		.4byte	0x2276
 13898 51ab 57       		.uleb128 0x57
 13899 51ac 04       		.byte	0x4
 13900 51ad 88220000 		.4byte	0x2288
 13901 51b1 06       		.uleb128 0x6
 13902 51b2 04       		.byte	0x4
 13903 51b3 48270000 		.4byte	0x2748
 13904 51b7 57       		.uleb128 0x57
 13905 51b8 04       		.byte	0x4
 13906 51b9 D5220000 		.4byte	0x22d5
 13907 51bd 57       		.uleb128 0x57
 13908 51be 04       		.byte	0x4
 13909 51bf DA220000 		.4byte	0x22da
 13910 51c3 57       		.uleb128 0x57
 13911 51c4 04       		.byte	0x4
 13912 51c5 DF220000 		.4byte	0x22df
 13913 51c9 57       		.uleb128 0x57
 13914 51ca 04       		.byte	0x4
 13915 51cb E4220000 		.4byte	0x22e4
 13916 51cf 07       		.uleb128 0x7
 13917 51d0 B1510000 		.4byte	0x51b1
 13918 51d4 57       		.uleb128 0x57
ARM GAS  /tmp/ccypRU8x.s 			page 248


 13919 51d5 04       		.byte	0x4
 13920 51d6 48270000 		.4byte	0x2748
 13921 51da 07       		.uleb128 0x7
 13922 51db CE000000 		.4byte	0xce
 13923 51df 06       		.uleb128 0x6
 13924 51e0 04       		.byte	0x4
 13925 51e1 43270000 		.4byte	0x2743
 13926 51e5 06       		.uleb128 0x6
 13927 51e6 04       		.byte	0x4
 13928 51e7 BD2C0000 		.4byte	0x2cbd
 13929 51eb 57       		.uleb128 0x57
 13930 51ec 04       		.byte	0x4
 13931 51ed BD2C0000 		.4byte	0x2cbd
 13932 51f1 57       		.uleb128 0x57
 13933 51f2 04       		.byte	0x4
 13934 51f3 282E0000 		.4byte	0x2e28
 13935 51f7 57       		.uleb128 0x57
 13936 51f8 04       		.byte	0x4
 13937 51f9 2D2E0000 		.4byte	0x2e2d
 13938 51fd 57       		.uleb128 0x57
 13939 51fe 04       		.byte	0x4
 13940 51ff A82E0000 		.4byte	0x2ea8
 13941 5203 57       		.uleb128 0x57
 13942 5204 04       		.byte	0x4
 13943 5205 091D0000 		.4byte	0x1d09
 13944 5209 57       		.uleb128 0x57
 13945 520a 04       		.byte	0x4
 13946 520b 6C220000 		.4byte	0x226c
 13947 520f 57       		.uleb128 0x57
 13948 5210 04       		.byte	0x4
 13949 5211 AD2E0000 		.4byte	0x2ead
 13950 5215 06       		.uleb128 0x6
 13951 5216 04       		.byte	0x4
 13952 5217 282E0000 		.4byte	0x2e28
 13953 521b 06       		.uleb128 0x6
 13954 521c 04       		.byte	0x4
 13955 521d C42E0000 		.4byte	0x2ec4
 13956 5221 06       		.uleb128 0x6
 13957 5222 04       		.byte	0x4
 13958 5223 27520000 		.4byte	0x5227
 13959 5227 12       		.uleb128 0x12
 13960 5228 2D010000 		.4byte	0x12d
 13961 522c 36520000 		.4byte	0x5236
 13962 5230 13       		.uleb128 0x13
 13963 5231 36520000 		.4byte	0x5236
 13964 5235 00       		.byte	0
 13965 5236 57       		.uleb128 0x57
 13966 5237 04       		.byte	0x4
 13967 5238 F4340000 		.4byte	0x34f4
 13968 523c 06       		.uleb128 0x6
 13969 523d 04       		.byte	0x4
 13970 523e 42520000 		.4byte	0x5242
 13971 5242 12       		.uleb128 0x12
 13972 5243 2D010000 		.4byte	0x12d
 13973 5247 56520000 		.4byte	0x5256
 13974 524b 13       		.uleb128 0x13
 13975 524c 36520000 		.4byte	0x5236
ARM GAS  /tmp/ccypRU8x.s 			page 249


 13976 5250 13       		.uleb128 0x13
 13977 5251 D9000000 		.4byte	0xd9
 13978 5255 00       		.byte	0
 13979 5256 06       		.uleb128 0x6
 13980 5257 04       		.byte	0x4
 13981 5258 CC300000 		.4byte	0x30cc
 13982 525c 06       		.uleb128 0x6
 13983 525d 04       		.byte	0x4
 13984 525e F9340000 		.4byte	0x34f9
 13985 5262 06       		.uleb128 0x6
 13986 5263 04       		.byte	0x4
 13987 5264 B22E0000 		.4byte	0x2eb2
 13988 5268 57       		.uleb128 0x57
 13989 5269 04       		.byte	0x4
 13990 526a C42E0000 		.4byte	0x2ec4
 13991 526e 06       		.uleb128 0x6
 13992 526f 04       		.byte	0x4
 13993 5270 2D2E0000 		.4byte	0x2e2d
 13994 5274 57       		.uleb128 0x57
 13995 5275 04       		.byte	0x4
 13996 5276 162F0000 		.4byte	0x2f16
 13997 527a 57       		.uleb128 0x57
 13998 527b 04       		.byte	0x4
 13999 527c 1B2F0000 		.4byte	0x2f1b
 14000 5280 57       		.uleb128 0x57
 14001 5281 04       		.byte	0x4
 14002 5282 202F0000 		.4byte	0x2f20
 14003 5286 57       		.uleb128 0x57
 14004 5287 04       		.byte	0x4
 14005 5288 252F0000 		.4byte	0x2f25
 14006 528c 07       		.uleb128 0x7
 14007 528d 6E520000 		.4byte	0x526e
 14008 5291 06       		.uleb128 0x6
 14009 5292 04       		.byte	0x4
 14010 5293 E5510000 		.4byte	0x51e5
 14011 5297 06       		.uleb128 0x6
 14012 5298 04       		.byte	0x4
 14013 5299 FE340000 		.4byte	0x34fe
 14014 529d 57       		.uleb128 0x57
 14015 529e 04       		.byte	0x4
 14016 529f E5510000 		.4byte	0x51e5
 14017 52a3 06       		.uleb128 0x6
 14018 52a4 04       		.byte	0x4
 14019 52a5 7E360000 		.4byte	0x367e
 14020 52a9 07       		.uleb128 0x7
 14021 52aa CF500000 		.4byte	0x50cf
 14022 52ae 06       		.uleb128 0x6
 14023 52af 04       		.byte	0x4
 14024 52b0 25380000 		.4byte	0x3825
 14025 52b4 57       		.uleb128 0x57
 14026 52b5 04       		.byte	0x4
 14027 52b6 97010000 		.4byte	0x197
 14028 52ba 06       		.uleb128 0x6
 14029 52bb 04       		.byte	0x4
 14030 52bc 83360000 		.4byte	0x3683
 14031 52c0 57       		.uleb128 0x57
 14032 52c1 04       		.byte	0x4
ARM GAS  /tmp/ccypRU8x.s 			page 250


 14033 52c2 52120000 		.4byte	0x1252
 14034 52c6 57       		.uleb128 0x57
 14035 52c7 04       		.byte	0x4
 14036 52c8 83360000 		.4byte	0x3683
 14037 52cc 06       		.uleb128 0x6
 14038 52cd 04       		.byte	0x4
 14039 52ce BB390000 		.4byte	0x39bb
 14040 52d2 06       		.uleb128 0x6
 14041 52d3 04       		.byte	0x4
 14042 52d4 2A380000 		.4byte	0x382a
 14043 52d8 57       		.uleb128 0x57
 14044 52d9 04       		.byte	0x4
 14045 52da 2A380000 		.4byte	0x382a
 14046 52de 06       		.uleb128 0x6
 14047 52df 04       		.byte	0x4
 14048 52e0 A93A0000 		.4byte	0x3aa9
 14049 52e4 06       		.uleb128 0x6
 14050 52e5 04       		.byte	0x4
 14051 52e6 C0390000 		.4byte	0x39c0
 14052 52ea 06       		.uleb128 0x6
 14053 52eb 04       		.byte	0x4
 14054 52ec 923B0000 		.4byte	0x3b92
 14055 52f0 06       		.uleb128 0x6
 14056 52f1 04       		.byte	0x4
 14057 52f2 AE3A0000 		.4byte	0x3aae
 14058 52f6 06       		.uleb128 0x6
 14059 52f7 04       		.byte	0x4
 14060 52f8 A93B0000 		.4byte	0x3ba9
 14061 52fc 06       		.uleb128 0x6
 14062 52fd 04       		.byte	0x4
 14063 52fe 02530000 		.4byte	0x5302
 14064 5302 12       		.uleb128 0x12
 14065 5303 2D010000 		.4byte	0x12d
 14066 5307 11530000 		.4byte	0x5311
 14067 530b 13       		.uleb128 0x13
 14068 530c 11530000 		.4byte	0x5311
 14069 5310 00       		.byte	0
 14070 5311 57       		.uleb128 0x57
 14071 5312 04       		.byte	0x4
 14072 5313 D9410000 		.4byte	0x41d9
 14073 5317 06       		.uleb128 0x6
 14074 5318 04       		.byte	0x4
 14075 5319 1D530000 		.4byte	0x531d
 14076 531d 12       		.uleb128 0x12
 14077 531e 2D010000 		.4byte	0x12d
 14078 5322 31530000 		.4byte	0x5331
 14079 5326 13       		.uleb128 0x13
 14080 5327 11530000 		.4byte	0x5311
 14081 532b 13       		.uleb128 0x13
 14082 532c D9000000 		.4byte	0xd9
 14083 5330 00       		.byte	0
 14084 5331 06       		.uleb128 0x6
 14085 5332 04       		.byte	0x4
 14086 5333 B13D0000 		.4byte	0x3db1
 14087 5337 06       		.uleb128 0x6
 14088 5338 04       		.byte	0x4
 14089 5339 01450000 		.4byte	0x4501
ARM GAS  /tmp/ccypRU8x.s 			page 251


 14090 533d 06       		.uleb128 0x6
 14091 533e 04       		.byte	0x4
 14092 533f 973B0000 		.4byte	0x3b97
 14093 5343 57       		.uleb128 0x57
 14094 5344 04       		.byte	0x4
 14095 5345 A93B0000 		.4byte	0x3ba9
 14096 5349 06       		.uleb128 0x6
 14097 534a 04       		.byte	0x4
 14098 534b DE410000 		.4byte	0x41de
 14099 534f 57       		.uleb128 0x57
 14100 5350 04       		.byte	0x4
 14101 5351 FB3B0000 		.4byte	0x3bfb
 14102 5355 57       		.uleb128 0x57
 14103 5356 04       		.byte	0x4
 14104 5357 003C0000 		.4byte	0x3c00
 14105 535b 57       		.uleb128 0x57
 14106 535c 04       		.byte	0x4
 14107 535d 053C0000 		.4byte	0x3c05
 14108 5361 57       		.uleb128 0x57
 14109 5362 04       		.byte	0x4
 14110 5363 0A3C0000 		.4byte	0x3c0a
 14111 5367 07       		.uleb128 0x7
 14112 5368 49530000 		.4byte	0x5349
 14113 536c 57       		.uleb128 0x57
 14114 536d 04       		.byte	0x4
 14115 536e DE410000 		.4byte	0x41de
 14116 5372 06       		.uleb128 0x6
 14117 5373 04       		.byte	0x4
 14118 5374 D9410000 		.4byte	0x41d9
 14119 5378 57       		.uleb128 0x57
 14120 5379 04       		.byte	0x4
 14121 537a F9340000 		.4byte	0x34f9
 14122 537e 57       		.uleb128 0x57
 14123 537f 04       		.byte	0x4
 14124 5380 951D0000 		.4byte	0x1d95
 14125 5384 07       		.uleb128 0x7
 14126 5385 40510000 		.4byte	0x5140
 14127 5389 06       		.uleb128 0x6
 14128 538a 04       		.byte	0x4
 14129 538b 06450000 		.4byte	0x4506
 14130 538f 06       		.uleb128 0x6
 14131 5390 04       		.byte	0x4
 14132 5391 CA410000 		.4byte	0x41ca
 14133 5395 06       		.uleb128 0x6
 14134 5396 04       		.byte	0x4
 14135 5397 0A3C0000 		.4byte	0x3c0a
 14136 539b 57       		.uleb128 0x57
 14137 539c 04       		.byte	0x4
 14138 539d 6B410000 		.4byte	0x416b
 14139 53a1 06       		.uleb128 0x6
 14140 53a2 04       		.byte	0x4
 14141 53a3 6B410000 		.4byte	0x416b
 14142 53a7 06       		.uleb128 0x6
 14143 53a8 04       		.byte	0x4
 14144 53a9 E5340000 		.4byte	0x34e5
 14145 53ad 06       		.uleb128 0x6
 14146 53ae 04       		.byte	0x4
ARM GAS  /tmp/ccypRU8x.s 			page 252


 14147 53af 252F0000 		.4byte	0x2f25
 14148 53b3 57       		.uleb128 0x57
 14149 53b4 04       		.byte	0x4
 14150 53b5 86340000 		.4byte	0x3486
 14151 53b9 06       		.uleb128 0x6
 14152 53ba 04       		.byte	0x4
 14153 53bb F4340000 		.4byte	0x34f4
 14154 53bf 06       		.uleb128 0x6
 14155 53c0 04       		.byte	0x4
 14156 53c1 86340000 		.4byte	0x3486
 14157 53c5 06       		.uleb128 0x6
 14158 53c6 04       		.byte	0x4
 14159 53c7 F51C0000 		.4byte	0x1cf5
 14160 53cb 06       		.uleb128 0x6
 14161 53cc 04       		.byte	0x4
 14162 53cd 35170000 		.4byte	0x1735
 14163 53d1 57       		.uleb128 0x57
 14164 53d2 04       		.byte	0x4
 14165 53d3 961C0000 		.4byte	0x1c96
 14166 53d7 06       		.uleb128 0x6
 14167 53d8 04       		.byte	0x4
 14168 53d9 041D0000 		.4byte	0x1d04
 14169 53dd 06       		.uleb128 0x6
 14170 53de 04       		.byte	0x4
 14171 53df 961C0000 		.4byte	0x1c96
 14172 53e3 03       		.uleb128 0x3
 14173 53e4 04       		.byte	0x4
 14174 53e5 04       		.byte	0x4
 14175 53e6 1C180000 		.4byte	.LASF843
 14176 53ea 17       		.uleb128 0x17
 14177 53eb E3530000 		.4byte	0x53e3
 14178 53ef FA530000 		.4byte	0x53fa
 14179 53f3 18       		.uleb128 0x18
 14180 53f4 B8000000 		.4byte	0xb8
 14181 53f8 02       		.byte	0x2
 14182 53f9 00       		.byte	0
 14183 53fa 17       		.uleb128 0x17
 14184 53fb 74000000 		.4byte	0x74
 14185 53ff 0A540000 		.4byte	0x540a
 14186 5403 18       		.uleb128 0x18
 14187 5404 B8000000 		.4byte	0xb8
 14188 5408 07       		.byte	0x7
 14189 5409 00       		.byte	0
 14190 540a 17       		.uleb128 0x17
 14191 540b E6470000 		.4byte	0x47e6
 14192 540f 1A540000 		.4byte	0x541a
 14193 5413 18       		.uleb128 0x18
 14194 5414 B8000000 		.4byte	0xb8
 14195 5418 04       		.byte	0x4
 14196 5419 00       		.byte	0
 14197 541a 17       		.uleb128 0x17
 14198 541b 2A540000 		.4byte	0x542a
 14199 541f 2A540000 		.4byte	0x542a
 14200 5423 18       		.uleb128 0x18
 14201 5424 B8000000 		.4byte	0xb8
 14202 5428 04       		.byte	0x4
 14203 5429 00       		.byte	0
ARM GAS  /tmp/ccypRU8x.s 			page 253


 14204 542a 06       		.uleb128 0x6
 14205 542b 04       		.byte	0x4
 14206 542c E6470000 		.4byte	0x47e6
 14207 5430 06       		.uleb128 0x6
 14208 5431 04       		.byte	0x4
 14209 5432 36540000 		.4byte	0x5436
 14210 5436 12       		.uleb128 0x12
 14211 5437 2D010000 		.4byte	0x12d
 14212 543b 45540000 		.4byte	0x5445
 14213 543f 13       		.uleb128 0x13
 14214 5440 45540000 		.4byte	0x5445
 14215 5444 00       		.byte	0
 14216 5445 57       		.uleb128 0x57
 14217 5446 04       		.byte	0x4
 14218 5447 ED490000 		.4byte	0x49ed
 14219 544b 06       		.uleb128 0x6
 14220 544c 04       		.byte	0x4
 14221 544d 1B480000 		.4byte	0x481b
 14222 5451 57       		.uleb128 0x57
 14223 5452 04       		.byte	0x4
 14224 5453 F2490000 		.4byte	0x49f2
 14225 5457 06       		.uleb128 0x6
 14226 5458 04       		.byte	0x4
 14227 5459 CA480000 		.4byte	0x48ca
 14228 545d 57       		.uleb128 0x57
 14229 545e 04       		.byte	0x4
 14230 545f F7490000 		.4byte	0x49f7
 14231 5463 06       		.uleb128 0x6
 14232 5464 04       		.byte	0x4
 14233 5465 F7490000 		.4byte	0x49f7
 14234 5469 57       		.uleb128 0x57
 14235 546a 04       		.byte	0x4
 14236 546b 2A540000 		.4byte	0x542a
 14237 546f 57       		.uleb128 0x57
 14238 5470 04       		.byte	0x4
 14239 5471 E6470000 		.4byte	0x47e6
 14240 5475 06       		.uleb128 0x6
 14241 5476 04       		.byte	0x4
 14242 5477 2A540000 		.4byte	0x542a
 14243 547b 17       		.uleb128 0x17
 14244 547c 67470000 		.4byte	0x4767
 14245 5480 8B540000 		.4byte	0x548b
 14246 5484 18       		.uleb128 0x18
 14247 5485 B8000000 		.4byte	0xb8
 14248 5489 04       		.byte	0x4
 14249 548a 00       		.byte	0
 14250 548b 17       		.uleb128 0x17
 14251 548c 9B540000 		.4byte	0x549b
 14252 5490 9B540000 		.4byte	0x549b
 14253 5494 18       		.uleb128 0x18
 14254 5495 B8000000 		.4byte	0xb8
 14255 5499 04       		.byte	0x4
 14256 549a 00       		.byte	0
 14257 549b 06       		.uleb128 0x6
 14258 549c 04       		.byte	0x4
 14259 549d 67470000 		.4byte	0x4767
 14260 54a1 06       		.uleb128 0x6
ARM GAS  /tmp/ccypRU8x.s 			page 254


 14261 54a2 04       		.byte	0x4
 14262 54a3 A7540000 		.4byte	0x54a7
 14263 54a7 12       		.uleb128 0x12
 14264 54a8 2D010000 		.4byte	0x12d
 14265 54ac B6540000 		.4byte	0x54b6
 14266 54b0 13       		.uleb128 0x13
 14267 54b1 B6540000 		.4byte	0x54b6
 14268 54b5 00       		.byte	0
 14269 54b6 57       		.uleb128 0x57
 14270 54b7 04       		.byte	0x4
 14271 54b8 CE4B0000 		.4byte	0x4bce
 14272 54bc 06       		.uleb128 0x6
 14273 54bd 04       		.byte	0x4
 14274 54be FC490000 		.4byte	0x49fc
 14275 54c2 57       		.uleb128 0x57
 14276 54c3 04       		.byte	0x4
 14277 54c4 D34B0000 		.4byte	0x4bd3
 14278 54c8 06       		.uleb128 0x6
 14279 54c9 04       		.byte	0x4
 14280 54ca AB4A0000 		.4byte	0x4aab
 14281 54ce 57       		.uleb128 0x57
 14282 54cf 04       		.byte	0x4
 14283 54d0 D84B0000 		.4byte	0x4bd8
 14284 54d4 06       		.uleb128 0x6
 14285 54d5 04       		.byte	0x4
 14286 54d6 D84B0000 		.4byte	0x4bd8
 14287 54da 57       		.uleb128 0x57
 14288 54db 04       		.byte	0x4
 14289 54dc 9B540000 		.4byte	0x549b
 14290 54e0 57       		.uleb128 0x57
 14291 54e1 04       		.byte	0x4
 14292 54e2 67470000 		.4byte	0x4767
 14293 54e6 06       		.uleb128 0x6
 14294 54e7 04       		.byte	0x4
 14295 54e8 9B540000 		.4byte	0x549b
 14296 54ec 06       		.uleb128 0x6
 14297 54ed 04       		.byte	0x4
 14298 54ee DD4B0000 		.4byte	0x4bdd
 14299 54f2 57       		.uleb128 0x57
 14300 54f3 04       		.byte	0x4
 14301 54f4 C24C0000 		.4byte	0x4cc2
 14302 54f8 57       		.uleb128 0x57
 14303 54f9 04       		.byte	0x4
 14304 54fa FE540000 		.4byte	0x54fe
 14305 54fe 06       		.uleb128 0x6
 14306 54ff 04       		.byte	0x4
 14307 5500 34470000 		.4byte	0x4734
 14308 5504 57       		.uleb128 0x57
 14309 5505 04       		.byte	0x4
 14310 5506 34470000 		.4byte	0x4734
 14311 550a 06       		.uleb128 0x6
 14312 550b 04       		.byte	0x4
 14313 550c C04E0000 		.4byte	0x4ec0
 14314 5510 57       		.uleb128 0x57
 14315 5511 04       		.byte	0x4
 14316 5512 A54F0000 		.4byte	0x4fa5
 14317 5516 57       		.uleb128 0x57
ARM GAS  /tmp/ccypRU8x.s 			page 255


 14318 5517 04       		.byte	0x4
 14319 5518 1C550000 		.4byte	0x551c
 14320 551c 06       		.uleb128 0x6
 14321 551d 04       		.byte	0x4
 14322 551e 13470000 		.4byte	0x4713
 14323 5522 57       		.uleb128 0x57
 14324 5523 04       		.byte	0x4
 14325 5524 13470000 		.4byte	0x4713
 14326 5528 12       		.uleb128 0x12
 14327 5529 37000000 		.4byte	0x37
 14328 552d 33550000 		.4byte	0x5533
 14329 5531 58       		.uleb128 0x58
 14330 5532 00       		.byte	0
 14331 5533 06       		.uleb128 0x6
 14332 5534 04       		.byte	0x4
 14333 5535 39550000 		.4byte	0x5539
 14334 5539 59       		.uleb128 0x59
 14335 553a 04       		.byte	0x4
 14336 553b 46260000 		.4byte	.LASF939
 14337 553f 28550000 		.4byte	0x5528
 14338 5543 57       		.uleb128 0x57
 14339 5544 04       		.byte	0x4
 14340 5545 AA4F0000 		.4byte	0x4faa
 14341 5549 06       		.uleb128 0x6
 14342 554a 04       		.byte	0x4
 14343 554b AA4F0000 		.4byte	0x4faa
 14344 554f 06       		.uleb128 0x6
 14345 5550 04       		.byte	0x4
 14346 5551 C74C0000 		.4byte	0x4cc7
 14347 5555 57       		.uleb128 0x57
 14348 5556 04       		.byte	0x4
 14349 5557 AF4F0000 		.4byte	0x4faf
 14350 555b 06       		.uleb128 0x6
 14351 555c 04       		.byte	0x4
 14352 555d AF4F0000 		.4byte	0x4faf
 14353 5561 5A       		.uleb128 0x5a
 14354 5562 B44F0000 		.4byte	0x4fb4
 14355 5566 03       		.byte	0x3
 14356 5567 94550000 		.4byte	0x5594
 14357 556b 41       		.uleb128 0x41
 14358 556c 072B0000 		.4byte	.LASF837
 14359 5570 13470000 		.4byte	0x4713
 14360 5574 41       		.uleb128 0x41
 14361 5575 26240000 		.4byte	.LASF838
 14362 5579 BD2C0000 		.4byte	0x2cbd
 14363 557d 5B       		.uleb128 0x5b
 14364 557e 5C       		.uleb128 0x5c
 14365 557f 706400   		.ascii	"pd\000"
 14366 5582 32       		.byte	0x32
 14367 5583 21       		.byte	0x21
 14368 5584 94550000 		.4byte	0x5594
 14369 5588 5C       		.uleb128 0x5c
 14370 5589 706200   		.ascii	"pb\000"
 14371 558c 32       		.byte	0x32
 14372 558d 22       		.byte	0x22
 14373 558e 9F550000 		.4byte	0x559f
 14374 5592 00       		.byte	0
ARM GAS  /tmp/ccypRU8x.s 			page 256


 14375 5593 00       		.byte	0
 14376 5594 07       		.uleb128 0x7
 14377 5595 99550000 		.4byte	0x5599
 14378 5599 06       		.uleb128 0x6
 14379 559a 04       		.byte	0x4
 14380 559b D24F0000 		.4byte	0x4fd2
 14381 559f 07       		.uleb128 0x7
 14382 55a0 15520000 		.4byte	0x5215
 14383 55a4 5A       		.uleb128 0x5a
 14384 55a5 D74F0000 		.4byte	0x4fd7
 14385 55a9 03       		.byte	0x3
 14386 55aa D7550000 		.4byte	0x55d7
 14387 55ae 41       		.uleb128 0x41
 14388 55af 072B0000 		.4byte	.LASF837
 14389 55b3 34470000 		.4byte	0x4734
 14390 55b7 41       		.uleb128 0x41
 14391 55b8 26240000 		.4byte	.LASF838
 14392 55bc BD2C0000 		.4byte	0x2cbd
 14393 55c0 5B       		.uleb128 0x5b
 14394 55c1 5C       		.uleb128 0x5c
 14395 55c2 706400   		.ascii	"pd\000"
 14396 55c5 32       		.byte	0x32
 14397 55c6 21       		.byte	0x21
 14398 55c7 D7550000 		.4byte	0x55d7
 14399 55cb 5C       		.uleb128 0x5c
 14400 55cc 706200   		.ascii	"pb\000"
 14401 55cf 32       		.byte	0x32
 14402 55d0 22       		.byte	0x22
 14403 55d1 9F550000 		.4byte	0x559f
 14404 55d5 00       		.byte	0
 14405 55d6 00       		.byte	0
 14406 55d7 07       		.uleb128 0x7
 14407 55d8 DC550000 		.4byte	0x55dc
 14408 55dc 06       		.uleb128 0x6
 14409 55dd 04       		.byte	0x4
 14410 55de F54F0000 		.4byte	0x4ff5
 14411 55e2 5A       		.uleb128 0x5a
 14412 55e3 FA4F0000 		.4byte	0x4ffa
 14413 55e7 03       		.byte	0x3
 14414 55e8 15560000 		.4byte	0x5615
 14415 55ec 41       		.uleb128 0x41
 14416 55ed 072B0000 		.4byte	.LASF837
 14417 55f1 67470000 		.4byte	0x4767
 14418 55f5 41       		.uleb128 0x41
 14419 55f6 26240000 		.4byte	.LASF838
 14420 55fa BD2C0000 		.4byte	0x2cbd
 14421 55fe 5B       		.uleb128 0x5b
 14422 55ff 5C       		.uleb128 0x5c
 14423 5600 706400   		.ascii	"pd\000"
 14424 5603 32       		.byte	0x32
 14425 5604 21       		.byte	0x21
 14426 5605 15560000 		.4byte	0x5615
 14427 5609 5C       		.uleb128 0x5c
 14428 560a 706200   		.ascii	"pb\000"
 14429 560d 32       		.byte	0x32
 14430 560e 22       		.byte	0x22
 14431 560f 9F550000 		.4byte	0x559f
ARM GAS  /tmp/ccypRU8x.s 			page 257


 14432 5613 00       		.byte	0
 14433 5614 00       		.byte	0
 14434 5615 07       		.uleb128 0x7
 14435 5616 1A560000 		.4byte	0x561a
 14436 561a 06       		.uleb128 0x6
 14437 561b 04       		.byte	0x4
 14438 561c CE4B0000 		.4byte	0x4bce
 14439 5620 5A       		.uleb128 0x5a
 14440 5621 18500000 		.4byte	0x5018
 14441 5625 03       		.byte	0x3
 14442 5626 53560000 		.4byte	0x5653
 14443 562a 41       		.uleb128 0x41
 14444 562b 072B0000 		.4byte	.LASF837
 14445 562f E6470000 		.4byte	0x47e6
 14446 5633 41       		.uleb128 0x41
 14447 5634 26240000 		.4byte	.LASF838
 14448 5638 BD2C0000 		.4byte	0x2cbd
 14449 563c 5B       		.uleb128 0x5b
 14450 563d 5C       		.uleb128 0x5c
 14451 563e 706400   		.ascii	"pd\000"
 14452 5641 32       		.byte	0x32
 14453 5642 21       		.byte	0x21
 14454 5643 53560000 		.4byte	0x5653
 14455 5647 5C       		.uleb128 0x5c
 14456 5648 706200   		.ascii	"pb\000"
 14457 564b 32       		.byte	0x32
 14458 564c 22       		.byte	0x22
 14459 564d 9F550000 		.4byte	0x559f
 14460 5651 00       		.byte	0
 14461 5652 00       		.byte	0
 14462 5653 07       		.uleb128 0x7
 14463 5654 58560000 		.4byte	0x5658
 14464 5658 06       		.uleb128 0x6
 14465 5659 04       		.byte	0x4
 14466 565a ED490000 		.4byte	0x49ed
 14467 565e 5D       		.uleb128 0x5d
 14468 565f B1420000 		.4byte	.LASF856
 14469 5663 01       		.byte	0x1
 14470 5664 45       		.byte	0x45
 14471 5665 00000000 		.4byte	.LFB118
 14472 5669 20000000 		.4byte	.LFE118-.LFB118
 14473 566d 01       		.uleb128 0x1
 14474 566e 9C       		.byte	0x9c
 14475 566f A8560000 		.4byte	0x56a8
 14476 5673 5E       		.uleb128 0x5e
 14477 5674 63687000 		.ascii	"chp\000"
 14478 5678 01       		.byte	0x1
 14479 5679 45       		.byte	0x45
 14480 567a 53100000 		.4byte	0x1053
 14481 567e 02       		.uleb128 0x2
 14482 567f 91       		.byte	0x91
 14483 5680 64       		.sleb128 -28
 14484 5681 5E       		.uleb128 0x5e
 14485 5682 666D7400 		.ascii	"fmt\000"
 14486 5686 01       		.byte	0x1
 14487 5687 45       		.byte	0x45
 14488 5688 CE000000 		.4byte	0xce
ARM GAS  /tmp/ccypRU8x.s 			page 258


 14489 568c 02       		.uleb128 0x2
 14490 568d 91       		.byte	0x91
 14491 568e 74       		.sleb128 -12
 14492 568f 58       		.uleb128 0x58
 14493 5690 5F       		.uleb128 0x5f
 14494 5691 08000000 		.4byte	.LBB52
 14495 5695 0E000000 		.4byte	.LBE52-.LBB52
 14496 5699 60       		.uleb128 0x60
 14497 569a 617000   		.ascii	"ap\000"
 14498 569d 01       		.byte	0x1
 14499 569e 46       		.byte	0x46
 14500 569f 22100000 		.4byte	0x1022
 14501 56a3 02       		.uleb128 0x2
 14502 56a4 91       		.byte	0x91
 14503 56a5 6C       		.sleb128 -20
 14504 56a6 00       		.byte	0
 14505 56a7 00       		.byte	0
 14506 56a8 61       		.uleb128 0x61
 14507 56a9 F5110000 		.4byte	0x11f5
 14508 56ad 14       		.byte	0x14
 14509 56ae 00000000 		.4byte	.LFB130
 14510 56b2 0E000000 		.4byte	.LFE130-.LFB130
 14511 56b6 01       		.uleb128 0x1
 14512 56b7 9C       		.byte	0x9c
 14513 56b8 D4560000 		.4byte	0x56d4
 14514 56bc 5F       		.uleb128 0x5f
 14515 56bd 02000000 		.4byte	.LBB55
 14516 56c1 06000000 		.4byte	.LBE55-.LBB55
 14517 56c5 60       		.uleb128 0x60
 14518 56c6 746D7000 		.ascii	"tmp\000"
 14519 56ca 02       		.byte	0x2
 14520 56cb 16       		.byte	0x16
 14521 56cc 0C010000 		.4byte	0x10c
 14522 56d0 01       		.uleb128 0x1
 14523 56d1 53       		.byte	0x53
 14524 56d2 00       		.byte	0
 14525 56d3 00       		.byte	0
 14526 56d4 61       		.uleb128 0x61
 14527 56d5 01120000 		.4byte	0x1201
 14528 56d9 1B       		.byte	0x1b
 14529 56da 00000000 		.4byte	.LFB131
 14530 56de 0E000000 		.4byte	.LFE131-.LFB131
 14531 56e2 01       		.uleb128 0x1
 14532 56e3 9C       		.byte	0x9c
 14533 56e4 00570000 		.4byte	0x5700
 14534 56e8 5F       		.uleb128 0x5f
 14535 56e9 06000000 		.4byte	.LBB58
 14536 56ed 06000000 		.4byte	.LBE58-.LBB58
 14537 56f1 60       		.uleb128 0x60
 14538 56f2 746D7000 		.ascii	"tmp\000"
 14539 56f6 02       		.byte	0x2
 14540 56f7 1D       		.byte	0x1d
 14541 56f8 0C010000 		.4byte	0x10c
 14542 56fc 01       		.uleb128 0x1
 14543 56fd 53       		.byte	0x53
 14544 56fe 00       		.byte	0
 14545 56ff 00       		.byte	0
ARM GAS  /tmp/ccypRU8x.s 			page 259


 14546 5700 62       		.uleb128 0x62
 14547 5701 39120000 		.4byte	0x1239
 14548 5705 1B       		.byte	0x1b
 14549 5706 00000000 		.4byte	.LFB138
 14550 570a 08000000 		.4byte	.LFE138-.LFB138
 14551 570e 01       		.uleb128 0x1
 14552 570f 9C       		.byte	0x9c
 14553 5710 62       		.uleb128 0x62
 14554 5711 45120000 		.4byte	0x1245
 14555 5715 22       		.byte	0x22
 14556 5716 00000000 		.4byte	.LFB139
 14557 571a 08000000 		.4byte	.LFE139-.LFB139
 14558 571e 01       		.uleb128 0x1
 14559 571f 9C       		.byte	0x9c
 14560 5720 63       		.uleb128 0x63
 14561 5721 B8120000 		.4byte	0x12b8
 14562 5725 35       		.byte	0x35
 14563 5726 00000000 		.4byte	.LFB237
 14564 572a 18000000 		.4byte	.LFE237-.LFB237
 14565 572e 01       		.uleb128 0x1
 14566 572f 9C       		.byte	0x9c
 14567 5730 38570000 		.4byte	0x5738
 14568 5734 45570000 		.4byte	0x5745
 14569 5738 64       		.uleb128 0x64
 14570 5739 382A0000 		.4byte	.LASF844
 14571 573d 45570000 		.4byte	0x5745
 14572 5741 02       		.uleb128 0x2
 14573 5742 91       		.byte	0x91
 14574 5743 74       		.sleb128 -12
 14575 5744 00       		.byte	0
 14576 5745 07       		.uleb128 0x7
 14577 5746 51500000 		.4byte	0x5051
 14578 574a 65       		.uleb128 0x65
 14579 574b 95140000 		.4byte	0x1495
 14580 574f 59       		.byte	0x59
 14581 5750 00000000 		.4byte	.LFB257
 14582 5754 20000000 		.4byte	.LFE257-.LFB257
 14583 5758 01       		.uleb128 0x1
 14584 5759 9C       		.byte	0x9c
 14585 575a 62570000 		.4byte	0x5762
 14586 575e 6F570000 		.4byte	0x576f
 14587 5762 64       		.uleb128 0x64
 14588 5763 382A0000 		.4byte	.LASF844
 14589 5767 6F570000 		.4byte	0x576f
 14590 576b 02       		.uleb128 0x2
 14591 576c 91       		.byte	0x91
 14592 576d 7C       		.sleb128 -4
 14593 576e 00       		.byte	0
 14594 576f 07       		.uleb128 0x7
 14595 5770 5D500000 		.4byte	0x505d
 14596 5774 65       		.uleb128 0x65
 14597 5775 49150000 		.4byte	0x1549
 14598 5779 83       		.byte	0x83
 14599 577a 00000000 		.4byte	.LFB263
 14600 577e 16000000 		.4byte	.LFE263-.LFB263
 14601 5782 01       		.uleb128 0x1
 14602 5783 9C       		.byte	0x9c
ARM GAS  /tmp/ccypRU8x.s 			page 260


 14603 5784 8C570000 		.4byte	0x578c
 14604 5788 A7570000 		.4byte	0x57a7
 14605 578c 64       		.uleb128 0x64
 14606 578d 382A0000 		.4byte	.LASF844
 14607 5791 A7570000 		.4byte	0x57a7
 14608 5795 02       		.uleb128 0x2
 14609 5796 91       		.byte	0x91
 14610 5797 7C       		.sleb128 -4
 14611 5798 5E       		.uleb128 0x5e
 14612 5799 72687300 		.ascii	"rhs\000"
 14613 579d 05       		.byte	0x5
 14614 579e 83       		.byte	0x83
 14615 579f AC570000 		.4byte	0x57ac
 14616 57a3 02       		.uleb128 0x2
 14617 57a4 91       		.byte	0x91
 14618 57a5 78       		.sleb128 -8
 14619 57a6 00       		.byte	0
 14620 57a7 07       		.uleb128 0x7
 14621 57a8 70500000 		.4byte	0x5070
 14622 57ac 07       		.uleb128 0x7
 14623 57ad 76500000 		.4byte	0x5076
 14624 57b1 61       		.uleb128 0x61
 14625 57b2 23160000 		.4byte	0x1623
 14626 57b6 B8       		.byte	0xb8
 14627 57b7 00000000 		.4byte	.LFB277
 14628 57bb 22000000 		.4byte	.LFE277-.LFB277
 14629 57bf 01       		.uleb128 0x1
 14630 57c0 9C       		.byte	0x9c
 14631 57c1 D4570000 		.4byte	0x57d4
 14632 57c5 66       		.uleb128 0x66
 14633 57c6 B0250000 		.4byte	.LASF845
 14634 57ca 05       		.byte	0x5
 14635 57cb B8       		.byte	0xb8
 14636 57cc 95160000 		.4byte	0x1695
 14637 57d0 02       		.uleb128 0x2
 14638 57d1 91       		.byte	0x91
 14639 57d2 70       		.sleb128 -16
 14640 57d3 00       		.byte	0
 14641 57d4 65       		.uleb128 0x65
 14642 57d5 372D0000 		.4byte	0x2d37
 14643 57d9 7A       		.byte	0x7a
 14644 57da 00000000 		.4byte	.LFB293
 14645 57de 12000000 		.4byte	.LFE293-.LFB293
 14646 57e2 01       		.uleb128 0x1
 14647 57e3 9C       		.byte	0x9c
 14648 57e4 EC570000 		.4byte	0x57ec
 14649 57e8 F9570000 		.4byte	0x57f9
 14650 57ec 64       		.uleb128 0x64
 14651 57ed 382A0000 		.4byte	.LASF844
 14652 57f1 F9570000 		.4byte	0x57f9
 14653 57f5 02       		.uleb128 0x2
 14654 57f6 91       		.byte	0x91
 14655 57f7 7C       		.sleb128 -4
 14656 57f8 00       		.byte	0
 14657 57f9 07       		.uleb128 0x7
 14658 57fa E5510000 		.4byte	0x51e5
 14659 57fe 67       		.uleb128 0x67
ARM GAS  /tmp/ccypRU8x.s 			page 261


 14660 57ff A32D0000 		.4byte	0x2da3
 14661 5803 84       		.byte	0x84
 14662 5804 02       		.byte	0x2
 14663 5805 0D580000 		.4byte	0x580d
 14664 5809 17580000 		.4byte	0x5817
 14665 580d 68       		.uleb128 0x68
 14666 580e 382A0000 		.4byte	.LASF844
 14667 5812 F9570000 		.4byte	0x57f9
 14668 5816 00       		.byte	0
 14669 5817 69       		.uleb128 0x69
 14670 5818 FE570000 		.4byte	0x57fe
 14671 581c C44F0000 		.4byte	.LASF880
 14672 5820 00000000 		.4byte	.LFB295
 14673 5824 16000000 		.4byte	.LFE295-.LFB295
 14674 5828 01       		.uleb128 0x1
 14675 5829 9C       		.byte	0x9c
 14676 582a 32580000 		.4byte	0x5832
 14677 582e 3B580000 		.4byte	0x583b
 14678 5832 6A       		.uleb128 0x6a
 14679 5833 0D580000 		.4byte	0x580d
 14680 5837 02       		.uleb128 0x2
 14681 5838 91       		.byte	0x91
 14682 5839 7C       		.sleb128 -4
 14683 583a 00       		.byte	0
 14684 583b 6B       		.uleb128 0x6b
 14685 583c 4E4D0000 		.4byte	0x4d4e
 14686 5840 00000000 		.4byte	.LFB304
 14687 5844 40000000 		.4byte	.LFE304-.LFB304
 14688 5848 01       		.uleb128 0x1
 14689 5849 9C       		.byte	0x9c
 14690 584a 52580000 		.4byte	0x5852
 14691 584e 6D580000 		.4byte	0x586d
 14692 5852 64       		.uleb128 0x64
 14693 5853 382A0000 		.4byte	.LASF844
 14694 5857 6D580000 		.4byte	0x586d
 14695 585b 02       		.uleb128 0x2
 14696 585c 91       		.byte	0x91
 14697 585d 74       		.sleb128 -12
 14698 585e 66       		.uleb128 0x66
 14699 585f 5D130000 		.4byte	.LASF846
 14700 5863 07       		.byte	0x7
 14701 5864 40       		.byte	0x40
 14702 5865 72580000 		.4byte	0x5872
 14703 5869 02       		.uleb128 0x2
 14704 586a 91       		.byte	0x91
 14705 586b 70       		.sleb128 -16
 14706 586c 00       		.byte	0
 14707 586d 07       		.uleb128 0x7
 14708 586e 4F550000 		.4byte	0x554f
 14709 5872 07       		.uleb128 0x7
 14710 5873 9D520000 		.4byte	0x529d
 14711 5877 6B       		.uleb128 0x6b
 14712 5878 DA4D0000 		.4byte	0x4dda
 14713 587c 00000000 		.4byte	.LFB305
 14714 5880 2A000000 		.4byte	.LFE305-.LFB305
 14715 5884 01       		.uleb128 0x1
 14716 5885 9C       		.byte	0x9c
ARM GAS  /tmp/ccypRU8x.s 			page 262


 14717 5886 8E580000 		.4byte	0x588e
 14718 588a C1580000 		.4byte	0x58c1
 14719 588e 64       		.uleb128 0x64
 14720 588f 382A0000 		.4byte	.LASF844
 14721 5893 6D580000 		.4byte	0x586d
 14722 5897 02       		.uleb128 0x2
 14723 5898 91       		.byte	0x91
 14724 5899 6C       		.sleb128 -20
 14725 589a 66       		.uleb128 0x66
 14726 589b 5D130000 		.4byte	.LASF846
 14727 589f 07       		.byte	0x7
 14728 58a0 4A       		.byte	0x4a
 14729 58a1 C1580000 		.4byte	0x58c1
 14730 58a5 02       		.uleb128 0x2
 14731 58a6 91       		.byte	0x91
 14732 58a7 68       		.sleb128 -24
 14733 58a8 5F       		.uleb128 0x5f
 14734 58a9 08000000 		.4byte	.LBB60
 14735 58ad 1A000000 		.4byte	.LBE60-.LBB60
 14736 58b1 6C       		.uleb128 0x6c
 14737 58b2 BD330000 		.4byte	.LASF847
 14738 58b6 07       		.byte	0x7
 14739 58b7 4D       		.byte	0x4d
 14740 58b8 2D010000 		.4byte	0x12d
 14741 58bc 02       		.uleb128 0x2
 14742 58bd 91       		.byte	0x91
 14743 58be 77       		.sleb128 -9
 14744 58bf 00       		.byte	0
 14745 58c0 00       		.byte	0
 14746 58c1 07       		.uleb128 0x7
 14747 58c2 9D520000 		.4byte	0x529d
 14748 58c6 6D       		.uleb128 0x6d
 14749 58c7 B6370000 		.4byte	0x37b6
 14750 58cb 98       		.byte	0x98
 14751 58cc 00000000 		.4byte	.LFB337
 14752 58d0 0C000000 		.4byte	.LFE337-.LFB337
 14753 58d4 01       		.uleb128 0x1
 14754 58d5 9C       		.byte	0x9c
 14755 58d6 61       		.uleb128 0x61
 14756 58d7 F8370000 		.4byte	0x37f8
 14757 58db B4       		.byte	0xb4
 14758 58dc 00000000 		.4byte	.LFB341
 14759 58e0 64000000 		.4byte	.LFE341-.LFB341
 14760 58e4 01       		.uleb128 0x1
 14761 58e5 9C       		.byte	0x9c
 14762 58e6 F9580000 		.4byte	0x58f9
 14763 58ea 66       		.uleb128 0x66
 14764 58eb 06610000 		.4byte	.LASF848
 14765 58ef 08       		.byte	0x8
 14766 58f0 B4       		.byte	0xb4
 14767 58f1 F9580000 		.4byte	0x58f9
 14768 58f5 02       		.uleb128 0x2
 14769 58f6 91       		.byte	0x91
 14770 58f7 74       		.sleb128 -12
 14771 58f8 00       		.byte	0
 14772 58f9 07       		.uleb128 0x7
 14773 58fa 76500000 		.4byte	0x5076
ARM GAS  /tmp/ccypRU8x.s 			page 263


 14774 58fe 62       		.uleb128 0x62
 14775 58ff 4C390000 		.4byte	0x394c
 14776 5903 70       		.byte	0x70
 14777 5904 00000000 		.4byte	.LFB348
 14778 5908 0C000000 		.4byte	.LFE348-.LFB348
 14779 590c 01       		.uleb128 0x1
 14780 590d 9C       		.byte	0x9c
 14781 590e 61       		.uleb128 0x61
 14782 590f 8E390000 		.4byte	0x398e
 14783 5913 8C       		.byte	0x8c
 14784 5914 00000000 		.4byte	.LFB352
 14785 5918 12000000 		.4byte	.LFE352-.LFB352
 14786 591c 01       		.uleb128 0x1
 14787 591d 9C       		.byte	0x9c
 14788 591e 31590000 		.4byte	0x5931
 14789 5922 66       		.uleb128 0x66
 14790 5923 06610000 		.4byte	.LASF848
 14791 5927 09       		.byte	0x9
 14792 5928 8C       		.byte	0x8c
 14793 5929 31590000 		.4byte	0x5931
 14794 592d 02       		.uleb128 0x2
 14795 592e 91       		.byte	0x91
 14796 592f 74       		.sleb128 -12
 14797 5930 00       		.byte	0
 14798 5931 07       		.uleb128 0x7
 14799 5932 76500000 		.4byte	0x5076
 14800 5936 65       		.uleb128 0x65
 14801 5937 EF390000 		.4byte	0x39ef
 14802 593b 24       		.byte	0x24
 14803 593c 00000000 		.4byte	.LFB354
 14804 5940 0E000000 		.4byte	.LFE354-.LFB354
 14805 5944 01       		.uleb128 0x1
 14806 5945 9C       		.byte	0x9c
 14807 5946 4E590000 		.4byte	0x594e
 14808 594a 5B590000 		.4byte	0x595b
 14809 594e 64       		.uleb128 0x64
 14810 594f 382A0000 		.4byte	.LASF844
 14811 5953 5B590000 		.4byte	0x595b
 14812 5957 02       		.uleb128 0x2
 14813 5958 91       		.byte	0x91
 14814 5959 7C       		.sleb128 -4
 14815 595a 00       		.byte	0
 14816 595b 07       		.uleb128 0x7
 14817 595c DE520000 		.4byte	0x52de
 14818 5960 65       		.uleb128 0x65
 14819 5961 0D3A0000 		.4byte	0x3a0d
 14820 5965 2B       		.byte	0x2b
 14821 5966 00000000 		.4byte	.LFB355
 14822 596a 10000000 		.4byte	.LFE355-.LFB355
 14823 596e 01       		.uleb128 0x1
 14824 596f 9C       		.byte	0x9c
 14825 5970 78590000 		.4byte	0x5978
 14826 5974 93590000 		.4byte	0x5993
 14827 5978 64       		.uleb128 0x64
 14828 5979 382A0000 		.4byte	.LASF844
 14829 597d 93590000 		.4byte	0x5993
 14830 5981 02       		.uleb128 0x2
ARM GAS  /tmp/ccypRU8x.s 			page 264


 14831 5982 91       		.byte	0x91
 14832 5983 7C       		.sleb128 -4
 14833 5984 66       		.uleb128 0x66
 14834 5985 75160000 		.4byte	.LASF663
 14835 5989 0A       		.byte	0xa
 14836 598a 2B       		.byte	0x2b
 14837 598b D2520000 		.4byte	0x52d2
 14838 598f 02       		.uleb128 0x2
 14839 5990 91       		.byte	0x91
 14840 5991 78       		.sleb128 -8
 14841 5992 00       		.byte	0
 14842 5993 07       		.uleb128 0x7
 14843 5994 E4520000 		.4byte	0x52e4
 14844 5998 63       		.uleb128 0x63
 14845 5999 2C3A0000 		.4byte	0x3a2c
 14846 599d 32       		.byte	0x32
 14847 599e 00000000 		.4byte	.LFB356
 14848 59a2 3C000000 		.4byte	.LFE356-.LFB356
 14849 59a6 01       		.uleb128 0x1
 14850 59a7 9C       		.byte	0x9c
 14851 59a8 B0590000 		.4byte	0x59b0
 14852 59ac CB590000 		.4byte	0x59cb
 14853 59b0 64       		.uleb128 0x64
 14854 59b1 382A0000 		.4byte	.LASF844
 14855 59b5 93590000 		.4byte	0x5993
 14856 59b9 02       		.uleb128 0x2
 14857 59ba 91       		.byte	0x91
 14858 59bb 74       		.sleb128 -12
 14859 59bc 66       		.uleb128 0x66
 14860 59bd 05250000 		.4byte	.LASF849
 14861 59c1 0A       		.byte	0xa
 14862 59c2 32       		.byte	0x32
 14863 59c3 30000000 		.4byte	0x30
 14864 59c7 02       		.uleb128 0x2
 14865 59c8 91       		.byte	0x91
 14866 59c9 70       		.sleb128 -16
 14867 59ca 00       		.byte	0
 14868 59cb 63       		.uleb128 0x63
 14869 59cc D83A0000 		.4byte	0x3ad8
 14870 59d0 23       		.byte	0x23
 14871 59d1 00000000 		.4byte	.LFB362
 14872 59d5 18000000 		.4byte	.LFE362-.LFB362
 14873 59d9 01       		.uleb128 0x1
 14874 59da 9C       		.byte	0x9c
 14875 59db E3590000 		.4byte	0x59e3
 14876 59df F0590000 		.4byte	0x59f0
 14877 59e3 64       		.uleb128 0x64
 14878 59e4 382A0000 		.4byte	.LASF844
 14879 59e8 F0590000 		.4byte	0x59f0
 14880 59ec 02       		.uleb128 0x2
 14881 59ed 91       		.byte	0x91
 14882 59ee 74       		.sleb128 -12
 14883 59ef 00       		.byte	0
 14884 59f0 07       		.uleb128 0x7
 14885 59f1 EA520000 		.4byte	0x52ea
 14886 59f5 63       		.uleb128 0x63
 14887 59f6 F63A0000 		.4byte	0x3af6
ARM GAS  /tmp/ccypRU8x.s 			page 265


 14888 59fa 2A       		.byte	0x2a
 14889 59fb 00000000 		.4byte	.LFB363
 14890 59ff 18000000 		.4byte	.LFE363-.LFB363
 14891 5a03 01       		.uleb128 0x1
 14892 5a04 9C       		.byte	0x9c
 14893 5a05 0D5A0000 		.4byte	0x5a0d
 14894 5a09 285A0000 		.4byte	0x5a28
 14895 5a0d 64       		.uleb128 0x64
 14896 5a0e 382A0000 		.4byte	.LASF844
 14897 5a12 285A0000 		.4byte	0x5a28
 14898 5a16 02       		.uleb128 0x2
 14899 5a17 91       		.byte	0x91
 14900 5a18 74       		.sleb128 -12
 14901 5a19 66       		.uleb128 0x66
 14902 5a1a 75160000 		.4byte	.LASF663
 14903 5a1e 0B       		.byte	0xb
 14904 5a1f 2A       		.byte	0x2a
 14905 5a20 D2520000 		.4byte	0x52d2
 14906 5a24 02       		.uleb128 0x2
 14907 5a25 91       		.byte	0x91
 14908 5a26 70       		.sleb128 -16
 14909 5a27 00       		.byte	0
 14910 5a28 07       		.uleb128 0x7
 14911 5a29 F0520000 		.4byte	0x52f0
 14912 5a2d 63       		.uleb128 0x63
 14913 5a2e 153B0000 		.4byte	0x3b15
 14914 5a32 31       		.byte	0x31
 14915 5a33 00000000 		.4byte	.LFB364
 14916 5a37 18000000 		.4byte	.LFE364-.LFB364
 14917 5a3b 01       		.uleb128 0x1
 14918 5a3c 9C       		.byte	0x9c
 14919 5a3d 455A0000 		.4byte	0x5a45
 14920 5a41 605A0000 		.4byte	0x5a60
 14921 5a45 64       		.uleb128 0x64
 14922 5a46 382A0000 		.4byte	.LASF844
 14923 5a4a 285A0000 		.4byte	0x5a28
 14924 5a4e 02       		.uleb128 0x2
 14925 5a4f 91       		.byte	0x91
 14926 5a50 74       		.sleb128 -12
 14927 5a51 66       		.uleb128 0x66
 14928 5a52 05250000 		.4byte	.LASF849
 14929 5a56 0B       		.byte	0xb
 14930 5a57 31       		.byte	0x31
 14931 5a58 30000000 		.4byte	0x30
 14932 5a5c 02       		.uleb128 0x2
 14933 5a5d 91       		.byte	0x91
 14934 5a5e 70       		.sleb128 -16
 14935 5a5f 00       		.byte	0
 14936 5a60 63       		.uleb128 0x63
 14937 5a61 92420000 		.4byte	0x4292
 14938 5a65 67       		.byte	0x67
 14939 5a66 00000000 		.4byte	.LFB381
 14940 5a6a 24000000 		.4byte	.LFE381-.LFB381
 14941 5a6e 01       		.uleb128 0x1
 14942 5a6f 9C       		.byte	0x9c
 14943 5a70 785A0000 		.4byte	0x5a78
 14944 5a74 855A0000 		.4byte	0x5a85
ARM GAS  /tmp/ccypRU8x.s 			page 266


 14945 5a78 64       		.uleb128 0x64
 14946 5a79 382A0000 		.4byte	.LASF844
 14947 5a7d 855A0000 		.4byte	0x5a85
 14948 5a81 02       		.uleb128 0x2
 14949 5a82 91       		.byte	0x91
 14950 5a83 74       		.sleb128 -12
 14951 5a84 00       		.byte	0
 14952 5a85 07       		.uleb128 0x7
 14953 5a86 72530000 		.4byte	0x5372
 14954 5a8a 63       		.uleb128 0x63
 14955 5a8b B0420000 		.4byte	0x42b0
 14956 5a8f 6E       		.byte	0x6e
 14957 5a90 00000000 		.4byte	.LFB382
 14958 5a94 30000000 		.4byte	.LFE382-.LFB382
 14959 5a98 01       		.uleb128 0x1
 14960 5a99 9C       		.byte	0x9c
 14961 5a9a A25A0000 		.4byte	0x5aa2
 14962 5a9e BD5A0000 		.4byte	0x5abd
 14963 5aa2 64       		.uleb128 0x64
 14964 5aa3 382A0000 		.4byte	.LASF844
 14965 5aa7 67530000 		.4byte	0x5367
 14966 5aab 02       		.uleb128 0x2
 14967 5aac 91       		.byte	0x91
 14968 5aad 74       		.sleb128 -12
 14969 5aae 66       		.uleb128 0x66
 14970 5aaf BA420000 		.4byte	.LASF850
 14971 5ab3 0C       		.byte	0xc
 14972 5ab4 6E       		.byte	0x6e
 14973 5ab5 2D010000 		.4byte	0x12d
 14974 5ab9 02       		.uleb128 0x2
 14975 5aba 91       		.byte	0x91
 14976 5abb 73       		.sleb128 -13
 14977 5abc 00       		.byte	0
 14978 5abd 63       		.uleb128 0x63
 14979 5abe CF420000 		.4byte	0x42cf
 14980 5ac2 8C       		.byte	0x8c
 14981 5ac3 00000000 		.4byte	.LFB386
 14982 5ac7 1A000000 		.4byte	.LFE386-.LFB386
 14983 5acb 01       		.uleb128 0x1
 14984 5acc 9C       		.byte	0x9c
 14985 5acd D55A0000 		.4byte	0x5ad5
 14986 5ad1 F05A0000 		.4byte	0x5af0
 14987 5ad5 64       		.uleb128 0x64
 14988 5ad6 382A0000 		.4byte	.LASF844
 14989 5ada 67530000 		.4byte	0x5367
 14990 5ade 02       		.uleb128 0x2
 14991 5adf 91       		.byte	0x91
 14992 5ae0 74       		.sleb128 -12
 14993 5ae1 66       		.uleb128 0x66
 14994 5ae2 05250000 		.4byte	.LASF849
 14995 5ae6 0C       		.byte	0xc
 14996 5ae7 8C       		.byte	0x8c
 14997 5ae8 30000000 		.4byte	0x30
 14998 5aec 02       		.uleb128 0x2
 14999 5aed 91       		.byte	0x91
 15000 5aee 70       		.sleb128 -16
 15001 5aef 00       		.byte	0
ARM GAS  /tmp/ccypRU8x.s 			page 267


 15002 5af0 6B       		.uleb128 0x6b
 15003 5af1 121D0000 		.4byte	0x1d12
 15004 5af5 00000000 		.4byte	.LFB392
 15005 5af9 1A000000 		.4byte	.LFE392-.LFB392
 15006 5afd 01       		.uleb128 0x1
 15007 5afe 9C       		.byte	0x9c
 15008 5aff 075B0000 		.4byte	0x5b07
 15009 5b03 145B0000 		.4byte	0x5b14
 15010 5b07 64       		.uleb128 0x64
 15011 5b08 382A0000 		.4byte	.LASF844
 15012 5b0c 145B0000 		.4byte	0x5b14
 15013 5b10 02       		.uleb128 0x2
 15014 5b11 91       		.byte	0x91
 15015 5b12 74       		.sleb128 -12
 15016 5b13 00       		.byte	0
 15017 5b14 07       		.uleb128 0x7
 15018 5b15 D7530000 		.4byte	0x53d7
 15019 5b19 6B       		.uleb128 0x6b
 15020 5b1a 381D0000 		.4byte	0x1d38
 15021 5b1e 00000000 		.4byte	.LFB393
 15022 5b22 3C000000 		.4byte	.LFE393-.LFB393
 15023 5b26 01       		.uleb128 0x1
 15024 5b27 9C       		.byte	0x9c
 15025 5b28 305B0000 		.4byte	0x5b30
 15026 5b2c 595B0000 		.4byte	0x5b59
 15027 5b30 64       		.uleb128 0x64
 15028 5b31 382A0000 		.4byte	.LASF844
 15029 5b35 A9520000 		.4byte	0x52a9
 15030 5b39 02       		.uleb128 0x2
 15031 5b3a 91       		.byte	0x91
 15032 5b3b 6C       		.sleb128 -20
 15033 5b3c 66       		.uleb128 0x66
 15034 5b3d 5D130000 		.4byte	.LASF846
 15035 5b41 0D       		.byte	0xd
 15036 5b42 47       		.byte	0x47
 15037 5b43 595B0000 		.4byte	0x5b59
 15038 5b47 02       		.uleb128 0x2
 15039 5b48 91       		.byte	0x91
 15040 5b49 68       		.sleb128 -24
 15041 5b4a 66       		.uleb128 0x66
 15042 5b4b 7A280000 		.4byte	.LASF851
 15043 5b4f 0D       		.byte	0xd
 15044 5b50 47       		.byte	0x47
 15045 5b51 5E5B0000 		.4byte	0x5b5e
 15046 5b55 02       		.uleb128 0x2
 15047 5b56 91       		.byte	0x91
 15048 5b57 64       		.sleb128 -28
 15049 5b58 00       		.byte	0
 15050 5b59 07       		.uleb128 0x7
 15051 5b5a 9D520000 		.4byte	0x529d
 15052 5b5e 07       		.uleb128 0x7
 15053 5b5f 6A500000 		.4byte	0x506a
 15054 5b63 6B       		.uleb128 0x6b
 15055 5b64 681D0000 		.4byte	0x1d68
 15056 5b68 00000000 		.4byte	.LFB394
 15057 5b6c 56000000 		.4byte	.LFE394-.LFB394
 15058 5b70 01       		.uleb128 0x1
ARM GAS  /tmp/ccypRU8x.s 			page 268


 15059 5b71 9C       		.byte	0x9c
 15060 5b72 7A5B0000 		.4byte	0x5b7a
 15061 5b76 A35B0000 		.4byte	0x5ba3
 15062 5b7a 64       		.uleb128 0x64
 15063 5b7b 382A0000 		.4byte	.LASF844
 15064 5b7f A9520000 		.4byte	0x52a9
 15065 5b83 02       		.uleb128 0x2
 15066 5b84 91       		.byte	0x91
 15067 5b85 74       		.sleb128 -12
 15068 5b86 5E       		.uleb128 0x5e
 15069 5b87 6D736700 		.ascii	"msg\000"
 15070 5b8b 0D       		.byte	0xd
 15071 5b8c 52       		.byte	0x52
 15072 5b8d A35B0000 		.4byte	0x5ba3
 15073 5b91 02       		.uleb128 0x2
 15074 5b92 91       		.byte	0x91
 15075 5b93 70       		.sleb128 -16
 15076 5b94 66       		.uleb128 0x66
 15077 5b95 7A280000 		.4byte	.LASF851
 15078 5b99 0D       		.byte	0xd
 15079 5b9a 52       		.byte	0x52
 15080 5b9b A85B0000 		.4byte	0x5ba8
 15081 5b9f 02       		.uleb128 0x2
 15082 5ba0 91       		.byte	0x91
 15083 5ba1 6C       		.sleb128 -20
 15084 5ba2 00       		.byte	0
 15085 5ba3 07       		.uleb128 0x7
 15086 5ba4 EB510000 		.4byte	0x51eb
 15087 5ba8 07       		.uleb128 0x7
 15088 5ba9 76500000 		.4byte	0x5076
 15089 5bad 63       		.uleb128 0x63
 15090 5bae AB290000 		.4byte	0x29ab
 15091 5bb2 FA       		.byte	0xfa
 15092 5bb3 00000000 		.4byte	.LFB413
 15093 5bb7 28000000 		.4byte	.LFE413-.LFB413
 15094 5bbb 01       		.uleb128 0x1
 15095 5bbc 9C       		.byte	0x9c
 15096 5bbd C55B0000 		.4byte	0x5bc5
 15097 5bc1 E95B0000 		.4byte	0x5be9
 15098 5bc5 64       		.uleb128 0x64
 15099 5bc6 382A0000 		.4byte	.LASF844
 15100 5bca CF510000 		.4byte	0x51cf
 15101 5bce 02       		.uleb128 0x2
 15102 5bcf 91       		.byte	0x91
 15103 5bd0 74       		.sleb128 -12
 15104 5bd1 5F       		.uleb128 0x5f
 15105 5bd2 06000000 		.4byte	.LBB61
 15106 5bd6 1C000000 		.4byte	.LBE61-.LBB61
 15107 5bda 6C       		.uleb128 0x6c
 15108 5bdb 5D130000 		.4byte	.LASF846
 15109 5bdf 0E       		.byte	0xe
 15110 5be0 FC       		.byte	0xfc
 15111 5be1 E5510000 		.4byte	0x51e5
 15112 5be5 01       		.uleb128 0x1
 15113 5be6 54       		.byte	0x54
 15114 5be7 00       		.byte	0
 15115 5be8 00       		.byte	0
ARM GAS  /tmp/ccypRU8x.s 			page 269


 15116 5be9 6E       		.uleb128 0x6e
 15117 5bea 5A220000 		.4byte	.LASF852
 15118 5bee 0F       		.byte	0xf
 15119 5bef 6B       		.byte	0x6b
 15120 5bf0 595D0000 		.4byte	.LASF853
 15121 5bf4 00000000 		.4byte	.LFB598
 15122 5bf8 32000000 		.4byte	.LFE598-.LFB598
 15123 5bfc 01       		.uleb128 0x1
 15124 5bfd 9C       		.byte	0x9c
 15125 5bfe 115C0000 		.4byte	0x5c11
 15126 5c02 66       		.uleb128 0x66
 15127 5c03 4B560000 		.4byte	.LASF221
 15128 5c07 0F       		.byte	0xf
 15129 5c08 6B       		.byte	0x6b
 15130 5c09 820B0000 		.4byte	0xb82
 15131 5c0d 02       		.uleb128 0x2
 15132 5c0e 91       		.byte	0x91
 15133 5c0f 74       		.sleb128 -12
 15134 5c10 00       		.byte	0
 15135 5c11 6E       		.uleb128 0x6e
 15136 5c12 C00E0000 		.4byte	.LASF854
 15137 5c16 0F       		.byte	0xf
 15138 5c17 73       		.byte	0x73
 15139 5c18 170C0000 		.4byte	.LASF855
 15140 5c1c 00000000 		.4byte	.LFB599
 15141 5c20 36000000 		.4byte	.LFE599-.LFB599
 15142 5c24 01       		.uleb128 0x1
 15143 5c25 9C       		.byte	0x9c
 15144 5c26 395C0000 		.4byte	0x5c39
 15145 5c2a 66       		.uleb128 0x66
 15146 5c2b 4B560000 		.4byte	.LASF221
 15147 5c2f 0F       		.byte	0xf
 15148 5c30 73       		.byte	0x73
 15149 5c31 820B0000 		.4byte	0xb82
 15150 5c35 02       		.uleb128 0x2
 15151 5c36 91       		.byte	0x91
 15152 5c37 74       		.sleb128 -12
 15153 5c38 00       		.byte	0
 15154 5c39 5D       		.uleb128 0x5d
 15155 5c3a 104D0000 		.4byte	.LASF857
 15156 5c3e 0F       		.byte	0xf
 15157 5c3f 81       		.byte	0x81
 15158 5c40 00000000 		.4byte	.LFB600
 15159 5c44 38020000 		.4byte	.LFE600-.LFB600
 15160 5c48 01       		.uleb128 0x1
 15161 5c49 9C       		.byte	0x9c
 15162 5c4a 0C5D0000 		.4byte	0x5d0c
 15163 5c4e 5E       		.uleb128 0x5e
 15164 5c4f 63687000 		.ascii	"chp\000"
 15165 5c53 0F       		.byte	0xf
 15166 5c54 81       		.byte	0x81
 15167 5c55 53100000 		.4byte	0x1053
 15168 5c59 03       		.uleb128 0x3
 15169 5c5a 91       		.byte	0x91
 15170 5c5b BC7F     		.sleb128 -68
 15171 5c5d 66       		.uleb128 0x66
 15172 5c5e 5F4B0000 		.4byte	.LASF858
ARM GAS  /tmp/ccypRU8x.s 			page 270


 15173 5c62 0F       		.byte	0xf
 15174 5c63 81       		.byte	0x81
 15175 5c64 37000000 		.4byte	0x37
 15176 5c68 03       		.uleb128 0x3
 15177 5c69 91       		.byte	0x91
 15178 5c6a B87F     		.sleb128 -72
 15179 5c6c 66       		.uleb128 0x66
 15180 5c6d 044C0000 		.4byte	.LASF859
 15181 5c71 0F       		.byte	0xf
 15182 5c72 81       		.byte	0x81
 15183 5c73 59100000 		.4byte	0x1059
 15184 5c77 03       		.uleb128 0x3
 15185 5c78 91       		.byte	0x91
 15186 5c79 B47F     		.sleb128 -76
 15187 5c7b 5F       		.uleb128 0x5f
 15188 5c7c 0A000000 		.4byte	.LBB62
 15189 5c80 F4010000 		.4byte	.LBE62-.LBB62
 15190 5c84 6C       		.uleb128 0x6c
 15191 5c85 5D130000 		.4byte	.LASF846
 15192 5c89 0F       		.byte	0xf
 15193 5c8a 82       		.byte	0x82
 15194 5c8b 1C550000 		.4byte	0x551c
 15195 5c8f 02       		.uleb128 0x2
 15196 5c90 91       		.byte	0x91
 15197 5c91 40       		.sleb128 -64
 15198 5c92 60       		.uleb128 0x60
 15199 5c93 7800     		.ascii	"x\000"
 15200 5c95 0F       		.byte	0xf
 15201 5c96 92       		.byte	0x92
 15202 5c97 E3530000 		.4byte	0x53e3
 15203 5c9b 02       		.uleb128 0x2
 15204 5c9c 91       		.byte	0x91
 15205 5c9d 64       		.sleb128 -28
 15206 5c9e 60       		.uleb128 0x60
 15207 5c9f 7900     		.ascii	"y\000"
 15208 5ca1 0F       		.byte	0xf
 15209 5ca2 93       		.byte	0x93
 15210 5ca3 E3530000 		.4byte	0x53e3
 15211 5ca7 02       		.uleb128 0x2
 15212 5ca8 91       		.byte	0x91
 15213 5ca9 60       		.sleb128 -32
 15214 5caa 60       		.uleb128 0x60
 15215 5cab 7700     		.ascii	"w\000"
 15216 5cad 0F       		.byte	0xf
 15217 5cae 94       		.byte	0x94
 15218 5caf E3530000 		.4byte	0x53e3
 15219 5cb3 02       		.uleb128 0x2
 15220 5cb4 91       		.byte	0x91
 15221 5cb5 5C       		.sleb128 -36
 15222 5cb6 6C       		.uleb128 0x6c
 15223 5cb7 032E0000 		.4byte	.LASF860
 15224 5cbb 0F       		.byte	0xf
 15225 5cbc 97       		.byte	0x97
 15226 5cbd 0C5D0000 		.4byte	0x5d0c
 15227 5cc1 02       		.uleb128 0x2
 15228 5cc2 91       		.byte	0x91
 15229 5cc3 58       		.sleb128 -40
ARM GAS  /tmp/ccypRU8x.s 			page 271


 15230 5cc4 6C       		.uleb128 0x6c
 15231 5cc5 3C5A0000 		.4byte	.LASF861
 15232 5cc9 0F       		.byte	0xf
 15233 5cca 98       		.byte	0x98
 15234 5ccb 0C5D0000 		.4byte	0x5d0c
 15235 5ccf 02       		.uleb128 0x2
 15236 5cd0 91       		.byte	0x91
 15237 5cd1 54       		.sleb128 -44
 15238 5cd2 6C       		.uleb128 0x6c
 15239 5cd3 13340000 		.4byte	.LASF862
 15240 5cd7 0F       		.byte	0xf
 15241 5cd8 99       		.byte	0x99
 15242 5cd9 0C5D0000 		.4byte	0x5d0c
 15243 5cdd 02       		.uleb128 0x2
 15244 5cde 91       		.byte	0x91
 15245 5cdf 50       		.sleb128 -48
 15246 5ce0 6C       		.uleb128 0x6c
 15247 5ce1 93270000 		.4byte	.LASF863
 15248 5ce5 0F       		.byte	0xf
 15249 5ce6 9B       		.byte	0x9b
 15250 5ce7 E3530000 		.4byte	0x53e3
 15251 5ceb 02       		.uleb128 0x2
 15252 5cec 91       		.byte	0x91
 15253 5ced 4C       		.sleb128 -52
 15254 5cee 6C       		.uleb128 0x6c
 15255 5cef 98270000 		.4byte	.LASF864
 15256 5cf3 0F       		.byte	0xf
 15257 5cf4 9C       		.byte	0x9c
 15258 5cf5 E3530000 		.4byte	0x53e3
 15259 5cf9 02       		.uleb128 0x2
 15260 5cfa 91       		.byte	0x91
 15261 5cfb 48       		.sleb128 -56
 15262 5cfc 6C       		.uleb128 0x6c
 15263 5cfd 62240000 		.4byte	.LASF865
 15264 5d01 0F       		.byte	0xf
 15265 5d02 9D       		.byte	0x9d
 15266 5d03 E3530000 		.4byte	0x53e3
 15267 5d07 02       		.uleb128 0x2
 15268 5d08 91       		.byte	0x91
 15269 5d09 44       		.sleb128 -60
 15270 5d0a 00       		.byte	0
 15271 5d0b 00       		.byte	0
 15272 5d0c 07       		.uleb128 0x7
 15273 5d0d E3530000 		.4byte	0x53e3
 15274 5d11 5D       		.uleb128 0x5d
 15275 5d12 E3490000 		.4byte	.LASF866
 15276 5d16 0F       		.byte	0xf
 15277 5d17 AC       		.byte	0xac
 15278 5d18 00000000 		.4byte	.LFB601
 15279 5d1c CC030000 		.4byte	.LFE601-.LFB601
 15280 5d20 01       		.uleb128 0x1
 15281 5d21 9C       		.byte	0x9c
 15282 5d22 445E0000 		.4byte	0x5e44
 15283 5d26 5E       		.uleb128 0x5e
 15284 5d27 63687000 		.ascii	"chp\000"
 15285 5d2b 0F       		.byte	0xf
 15286 5d2c AC       		.byte	0xac
ARM GAS  /tmp/ccypRU8x.s 			page 272


 15287 5d2d 53100000 		.4byte	0x1053
 15288 5d31 03       		.uleb128 0x3
 15289 5d32 91       		.byte	0x91
 15290 5d33 B47F     		.sleb128 -76
 15291 5d35 66       		.uleb128 0x66
 15292 5d36 5F4B0000 		.4byte	.LASF858
 15293 5d3a 0F       		.byte	0xf
 15294 5d3b AC       		.byte	0xac
 15295 5d3c 37000000 		.4byte	0x37
 15296 5d40 03       		.uleb128 0x3
 15297 5d41 91       		.byte	0x91
 15298 5d42 B07F     		.sleb128 -80
 15299 5d44 66       		.uleb128 0x66
 15300 5d45 044C0000 		.4byte	.LASF859
 15301 5d49 0F       		.byte	0xf
 15302 5d4a AC       		.byte	0xac
 15303 5d4b 59100000 		.4byte	0x1059
 15304 5d4f 03       		.uleb128 0x3
 15305 5d50 91       		.byte	0x91
 15306 5d51 AC7F     		.sleb128 -84
 15307 5d53 5F       		.uleb128 0x5f
 15308 5d54 0A000000 		.4byte	.LBB63
 15309 5d58 C2030000 		.4byte	.LBE63-.LBB63
 15310 5d5c 6C       		.uleb128 0x6c
 15311 5d5d 20090000 		.4byte	.LASF867
 15312 5d61 0F       		.byte	0xf
 15313 5d62 B5       		.byte	0xb5
 15314 5d63 9B540000 		.4byte	0x549b
 15315 5d67 03       		.uleb128 0x3
 15316 5d68 91       		.byte	0x91
 15317 5d69 BC7F     		.sleb128 -68
 15318 5d6b 6C       		.uleb128 0x6c
 15319 5d6c 920D0000 		.4byte	.LASF868
 15320 5d70 0F       		.byte	0xf
 15321 5d71 BD       		.byte	0xbd
 15322 5d72 1C550000 		.4byte	0x551c
 15323 5d76 03       		.uleb128 0x3
 15324 5d77 91       		.byte	0x91
 15325 5d78 B87F     		.sleb128 -72
 15326 5d7a 60       		.uleb128 0x60
 15327 5d7b 7800     		.ascii	"x\000"
 15328 5d7d 0F       		.byte	0xf
 15329 5d7e C5       		.byte	0xc5
 15330 5d7f E3530000 		.4byte	0x53e3
 15331 5d83 02       		.uleb128 0x2
 15332 5d84 91       		.byte	0x91
 15333 5d85 70       		.sleb128 -16
 15334 5d86 60       		.uleb128 0x60
 15335 5d87 7900     		.ascii	"y\000"
 15336 5d89 0F       		.byte	0xf
 15337 5d8a C6       		.byte	0xc6
 15338 5d8b E3530000 		.4byte	0x53e3
 15339 5d8f 02       		.uleb128 0x2
 15340 5d90 91       		.byte	0x91
 15341 5d91 6C       		.sleb128 -20
 15342 5d92 60       		.uleb128 0x60
 15343 5d93 7700     		.ascii	"w\000"
ARM GAS  /tmp/ccypRU8x.s 			page 273


 15344 5d95 0F       		.byte	0xf
 15345 5d96 C7       		.byte	0xc7
 15346 5d97 E3530000 		.4byte	0x53e3
 15347 5d9b 02       		.uleb128 0x2
 15348 5d9c 91       		.byte	0x91
 15349 5d9d 68       		.sleb128 -24
 15350 5d9e 6F       		.uleb128 0x6f
 15351 5d9f 0A000000 		.4byte	.LBB64
 15352 5da3 30000000 		.4byte	.LBE64-.LBB64
 15353 5da7 B85D0000 		.4byte	0x5db8
 15354 5dab 60       		.uleb128 0x60
 15355 5dac 6900     		.ascii	"i\000"
 15356 5dae 0F       		.byte	0xf
 15357 5daf AF       		.byte	0xaf
 15358 5db0 37000000 		.4byte	0x37
 15359 5db4 02       		.uleb128 0x2
 15360 5db5 91       		.byte	0x91
 15361 5db6 74       		.sleb128 -12
 15362 5db7 00       		.byte	0
 15363 5db8 5F       		.uleb128 0x5f
 15364 5db9 96000000 		.4byte	.LBB66
 15365 5dbd 12030000 		.4byte	.LBE66-.LBB66
 15366 5dc1 6C       		.uleb128 0x6c
 15367 5dc2 861A0000 		.4byte	.LASF725
 15368 5dc6 0F       		.byte	0xf
 15369 5dc7 CD       		.byte	0xcd
 15370 5dc8 37000000 		.4byte	0x37
 15371 5dcc 02       		.uleb128 0x2
 15372 5dcd 91       		.byte	0x91
 15373 5dce 64       		.sleb128 -28
 15374 5dcf 70       		.uleb128 0x70
 15375 5dd0 032E0000 		.4byte	.LASF860
 15376 5dd4 0F       		.byte	0xf
 15377 5dd5 0A01     		.2byte	0x10a
 15378 5dd7 0C5D0000 		.4byte	0x5d0c
 15379 5ddb 02       		.uleb128 0x2
 15380 5ddc 91       		.byte	0x91
 15381 5ddd 5C       		.sleb128 -36
 15382 5dde 70       		.uleb128 0x70
 15383 5ddf 3C5A0000 		.4byte	.LASF861
 15384 5de3 0F       		.byte	0xf
 15385 5de4 0B01     		.2byte	0x10b
 15386 5de6 0C5D0000 		.4byte	0x5d0c
 15387 5dea 02       		.uleb128 0x2
 15388 5deb 91       		.byte	0x91
 15389 5dec 58       		.sleb128 -40
 15390 5ded 70       		.uleb128 0x70
 15391 5dee 13340000 		.4byte	.LASF862
 15392 5df2 0F       		.byte	0xf
 15393 5df3 0C01     		.2byte	0x10c
 15394 5df5 0C5D0000 		.4byte	0x5d0c
 15395 5df9 02       		.uleb128 0x2
 15396 5dfa 91       		.byte	0x91
 15397 5dfb 54       		.sleb128 -44
 15398 5dfc 70       		.uleb128 0x70
 15399 5dfd 93270000 		.4byte	.LASF863
 15400 5e01 0F       		.byte	0xf
ARM GAS  /tmp/ccypRU8x.s 			page 274


 15401 5e02 0E01     		.2byte	0x10e
 15402 5e04 E3530000 		.4byte	0x53e3
 15403 5e08 02       		.uleb128 0x2
 15404 5e09 91       		.byte	0x91
 15405 5e0a 50       		.sleb128 -48
 15406 5e0b 70       		.uleb128 0x70
 15407 5e0c 98270000 		.4byte	.LASF864
 15408 5e10 0F       		.byte	0xf
 15409 5e11 0F01     		.2byte	0x10f
 15410 5e13 E3530000 		.4byte	0x53e3
 15411 5e17 02       		.uleb128 0x2
 15412 5e18 91       		.byte	0x91
 15413 5e19 4C       		.sleb128 -52
 15414 5e1a 70       		.uleb128 0x70
 15415 5e1b 62240000 		.4byte	.LASF865
 15416 5e1f 0F       		.byte	0xf
 15417 5e20 1001     		.2byte	0x110
 15418 5e22 E3530000 		.4byte	0x53e3
 15419 5e26 02       		.uleb128 0x2
 15420 5e27 91       		.byte	0x91
 15421 5e28 48       		.sleb128 -56
 15422 5e29 5F       		.uleb128 0x5f
 15423 5e2a F8000000 		.4byte	.LBB69
 15424 5e2e 26000000 		.4byte	.LBE69-.LBB69
 15425 5e32 6C       		.uleb128 0x6c
 15426 5e33 75590000 		.4byte	.LASF869
 15427 5e37 0F       		.byte	0xf
 15428 5e38 D4       		.byte	0xd4
 15429 5e39 37000000 		.4byte	0x37
 15430 5e3d 02       		.uleb128 0x2
 15431 5e3e 91       		.byte	0x91
 15432 5e3f 60       		.sleb128 -32
 15433 5e40 00       		.byte	0
 15434 5e41 00       		.byte	0
 15435 5e42 00       		.byte	0
 15436 5e43 00       		.byte	0
 15437 5e44 71       		.uleb128 0x71
 15438 5e45 E6020000 		.4byte	.LASF870
 15439 5e49 0F       		.byte	0xf
 15440 5e4a 2101     		.2byte	0x121
 15441 5e4c 00000000 		.4byte	.LFB602
 15442 5e50 E4000000 		.4byte	.LFE602-.LFB602
 15443 5e54 01       		.uleb128 0x1
 15444 5e55 9C       		.byte	0x9c
 15445 5e56 C75E0000 		.4byte	0x5ec7
 15446 5e5a 72       		.uleb128 0x72
 15447 5e5b 63687000 		.ascii	"chp\000"
 15448 5e5f 0F       		.byte	0xf
 15449 5e60 2101     		.2byte	0x121
 15450 5e62 53100000 		.4byte	0x1053
 15451 5e66 02       		.uleb128 0x2
 15452 5e67 91       		.byte	0x91
 15453 5e68 64       		.sleb128 -28
 15454 5e69 73       		.uleb128 0x73
 15455 5e6a 5F4B0000 		.4byte	.LASF858
 15456 5e6e 0F       		.byte	0xf
 15457 5e6f 2101     		.2byte	0x121
ARM GAS  /tmp/ccypRU8x.s 			page 275


 15458 5e71 37000000 		.4byte	0x37
 15459 5e75 02       		.uleb128 0x2
 15460 5e76 91       		.byte	0x91
 15461 5e77 60       		.sleb128 -32
 15462 5e78 73       		.uleb128 0x73
 15463 5e79 044C0000 		.4byte	.LASF859
 15464 5e7d 0F       		.byte	0xf
 15465 5e7e 2101     		.2byte	0x121
 15466 5e80 59100000 		.4byte	0x1059
 15467 5e84 02       		.uleb128 0x2
 15468 5e85 91       		.byte	0x91
 15469 5e86 5C       		.sleb128 -36
 15470 5e87 5F       		.uleb128 0x5f
 15471 5e88 0A000000 		.4byte	.LBB70
 15472 5e8c B8000000 		.4byte	.LBE70-.LBB70
 15473 5e90 70       		.uleb128 0x70
 15474 5e91 5D130000 		.4byte	.LASF846
 15475 5e95 0F       		.byte	0xf
 15476 5e96 2301     		.2byte	0x123
 15477 5e98 2A540000 		.4byte	0x542a
 15478 5e9c 02       		.uleb128 0x2
 15479 5e9d 91       		.byte	0x91
 15480 5e9e 68       		.sleb128 -24
 15481 5e9f 70       		.uleb128 0x70
 15482 5ea0 BB520000 		.4byte	.LASF871
 15483 5ea4 0F       		.byte	0xf
 15484 5ea5 2401     		.2byte	0x124
 15485 5ea7 37000000 		.4byte	0x37
 15486 5eab 02       		.uleb128 0x2
 15487 5eac 91       		.byte	0x91
 15488 5ead 74       		.sleb128 -12
 15489 5eae 5F       		.uleb128 0x5f
 15490 5eaf 80000000 		.4byte	.LBB73
 15491 5eb3 28000000 		.4byte	.LBE73-.LBB73
 15492 5eb7 74       		.uleb128 0x74
 15493 5eb8 6900     		.ascii	"i\000"
 15494 5eba 0F       		.byte	0xf
 15495 5ebb 3501     		.2byte	0x135
 15496 5ebd 37000000 		.4byte	0x37
 15497 5ec1 02       		.uleb128 0x2
 15498 5ec2 91       		.byte	0x91
 15499 5ec3 70       		.sleb128 -16
 15500 5ec4 00       		.byte	0
 15501 5ec5 00       		.byte	0
 15502 5ec6 00       		.byte	0
 15503 5ec7 71       		.uleb128 0x71
 15504 5ec8 35130000 		.4byte	.LASF872
 15505 5ecc 0F       		.byte	0xf
 15506 5ecd 4101     		.2byte	0x141
 15507 5ecf 00000000 		.4byte	.LFB603
 15508 5ed3 20010000 		.4byte	.LFE603-.LFB603
 15509 5ed7 01       		.uleb128 0x1
 15510 5ed8 9C       		.byte	0x9c
 15511 5ed9 335F0000 		.4byte	0x5f33
 15512 5edd 72       		.uleb128 0x72
 15513 5ede 63687000 		.ascii	"chp\000"
 15514 5ee2 0F       		.byte	0xf
ARM GAS  /tmp/ccypRU8x.s 			page 276


 15515 5ee3 4101     		.2byte	0x141
 15516 5ee5 53100000 		.4byte	0x1053
 15517 5ee9 02       		.uleb128 0x2
 15518 5eea 91       		.byte	0x91
 15519 5eeb 6C       		.sleb128 -20
 15520 5eec 73       		.uleb128 0x73
 15521 5eed 5F4B0000 		.4byte	.LASF858
 15522 5ef1 0F       		.byte	0xf
 15523 5ef2 4101     		.2byte	0x141
 15524 5ef4 37000000 		.4byte	0x37
 15525 5ef8 02       		.uleb128 0x2
 15526 5ef9 91       		.byte	0x91
 15527 5efa 68       		.sleb128 -24
 15528 5efb 73       		.uleb128 0x73
 15529 5efc 044C0000 		.4byte	.LASF859
 15530 5f00 0F       		.byte	0xf
 15531 5f01 4101     		.2byte	0x141
 15532 5f03 59100000 		.4byte	0x1059
 15533 5f07 02       		.uleb128 0x2
 15534 5f08 91       		.byte	0x91
 15535 5f09 64       		.sleb128 -28
 15536 5f0a 5F       		.uleb128 0x5f
 15537 5f0b 0A000000 		.4byte	.LBB74
 15538 5f0f DE000000 		.4byte	.LBE74-.LBB74
 15539 5f13 70       		.uleb128 0x70
 15540 5f14 5D130000 		.4byte	.LASF846
 15541 5f18 0F       		.byte	0xf
 15542 5f19 4301     		.2byte	0x143
 15543 5f1b 9B540000 		.4byte	0x549b
 15544 5f1f 02       		.uleb128 0x2
 15545 5f20 91       		.byte	0x91
 15546 5f21 70       		.sleb128 -16
 15547 5f22 70       		.uleb128 0x70
 15548 5f23 BB520000 		.4byte	.LASF871
 15549 5f27 0F       		.byte	0xf
 15550 5f28 4D01     		.2byte	0x14d
 15551 5f2a 37000000 		.4byte	0x37
 15552 5f2e 02       		.uleb128 0x2
 15553 5f2f 91       		.byte	0x91
 15554 5f30 74       		.sleb128 -12
 15555 5f31 00       		.byte	0
 15556 5f32 00       		.byte	0
 15557 5f33 71       		.uleb128 0x71
 15558 5f34 D6330000 		.4byte	.LASF873
 15559 5f38 0F       		.byte	0xf
 15560 5f39 6701     		.2byte	0x167
 15561 5f3b 00000000 		.4byte	.LFB604
 15562 5f3f 9C000000 		.4byte	.LFE604-.LFB604
 15563 5f43 01       		.uleb128 0x1
 15564 5f44 9C       		.byte	0x9c
 15565 5f45 905F0000 		.4byte	0x5f90
 15566 5f49 72       		.uleb128 0x72
 15567 5f4a 63687000 		.ascii	"chp\000"
 15568 5f4e 0F       		.byte	0xf
 15569 5f4f 6701     		.2byte	0x167
 15570 5f51 53100000 		.4byte	0x1053
 15571 5f55 02       		.uleb128 0x2
ARM GAS  /tmp/ccypRU8x.s 			page 277


 15572 5f56 91       		.byte	0x91
 15573 5f57 6C       		.sleb128 -20
 15574 5f58 73       		.uleb128 0x73
 15575 5f59 5F4B0000 		.4byte	.LASF858
 15576 5f5d 0F       		.byte	0xf
 15577 5f5e 6701     		.2byte	0x167
 15578 5f60 37000000 		.4byte	0x37
 15579 5f64 02       		.uleb128 0x2
 15580 5f65 91       		.byte	0x91
 15581 5f66 68       		.sleb128 -24
 15582 5f67 73       		.uleb128 0x73
 15583 5f68 044C0000 		.4byte	.LASF859
 15584 5f6c 0F       		.byte	0xf
 15585 5f6d 6701     		.2byte	0x167
 15586 5f6f 59100000 		.4byte	0x1059
 15587 5f73 02       		.uleb128 0x2
 15588 5f74 91       		.byte	0x91
 15589 5f75 64       		.sleb128 -28
 15590 5f76 5F       		.uleb128 0x5f
 15591 5f77 0A000000 		.4byte	.LBB75
 15592 5f7b 72000000 		.4byte	.LBE75-.LBB75
 15593 5f7f 70       		.uleb128 0x70
 15594 5f80 5D130000 		.4byte	.LASF846
 15595 5f84 0F       		.byte	0xf
 15596 5f85 6801     		.2byte	0x168
 15597 5f87 1C550000 		.4byte	0x551c
 15598 5f8b 02       		.uleb128 0x2
 15599 5f8c 91       		.byte	0x91
 15600 5f8d 74       		.sleb128 -12
 15601 5f8e 00       		.byte	0
 15602 5f8f 00       		.byte	0
 15603 5f90 71       		.uleb128 0x71
 15604 5f91 F34D0000 		.4byte	.LASF874
 15605 5f95 0F       		.byte	0xf
 15606 5f96 8401     		.2byte	0x184
 15607 5f98 00000000 		.4byte	.LFB605
 15608 5f9c 40000000 		.4byte	.LFE605-.LFB605
 15609 5fa0 01       		.uleb128 0x1
 15610 5fa1 9C       		.byte	0x9c
 15611 5fa2 D45F0000 		.4byte	0x5fd4
 15612 5fa6 72       		.uleb128 0x72
 15613 5fa7 63687000 		.ascii	"chp\000"
 15614 5fab 0F       		.byte	0xf
 15615 5fac 8401     		.2byte	0x184
 15616 5fae 53100000 		.4byte	0x1053
 15617 5fb2 02       		.uleb128 0x2
 15618 5fb3 91       		.byte	0x91
 15619 5fb4 74       		.sleb128 -12
 15620 5fb5 73       		.uleb128 0x73
 15621 5fb6 5F4B0000 		.4byte	.LASF858
 15622 5fba 0F       		.byte	0xf
 15623 5fbb 8401     		.2byte	0x184
 15624 5fbd 37000000 		.4byte	0x37
 15625 5fc1 02       		.uleb128 0x2
 15626 5fc2 91       		.byte	0x91
 15627 5fc3 70       		.sleb128 -16
 15628 5fc4 73       		.uleb128 0x73
ARM GAS  /tmp/ccypRU8x.s 			page 278


 15629 5fc5 044C0000 		.4byte	.LASF859
 15630 5fc9 0F       		.byte	0xf
 15631 5fca 8401     		.2byte	0x184
 15632 5fcc 59100000 		.4byte	0x1059
 15633 5fd0 02       		.uleb128 0x2
 15634 5fd1 91       		.byte	0x91
 15635 5fd2 6C       		.sleb128 -20
 15636 5fd3 00       		.byte	0
 15637 5fd4 71       		.uleb128 0x71
 15638 5fd5 40120000 		.4byte	.LASF875
 15639 5fd9 0F       		.byte	0xf
 15640 5fda 9201     		.2byte	0x192
 15641 5fdc 00000000 		.4byte	.LFB606
 15642 5fe0 DC000000 		.4byte	.LFE606-.LFB606
 15643 5fe4 01       		.uleb128 0x1
 15644 5fe5 9C       		.byte	0x9c
 15645 5fe6 31600000 		.4byte	0x6031
 15646 5fea 72       		.uleb128 0x72
 15647 5feb 63687000 		.ascii	"chp\000"
 15648 5fef 0F       		.byte	0xf
 15649 5ff0 9201     		.2byte	0x192
 15650 5ff2 53100000 		.4byte	0x1053
 15651 5ff6 02       		.uleb128 0x2
 15652 5ff7 91       		.byte	0x91
 15653 5ff8 6C       		.sleb128 -20
 15654 5ff9 73       		.uleb128 0x73
 15655 5ffa 5F4B0000 		.4byte	.LASF858
 15656 5ffe 0F       		.byte	0xf
 15657 5fff 9201     		.2byte	0x192
 15658 6001 37000000 		.4byte	0x37
 15659 6005 02       		.uleb128 0x2
 15660 6006 91       		.byte	0x91
 15661 6007 68       		.sleb128 -24
 15662 6008 73       		.uleb128 0x73
 15663 6009 044C0000 		.4byte	.LASF859
 15664 600d 0F       		.byte	0xf
 15665 600e 9201     		.2byte	0x192
 15666 6010 59100000 		.4byte	0x1059
 15667 6014 02       		.uleb128 0x2
 15668 6015 91       		.byte	0x91
 15669 6016 64       		.sleb128 -28
 15670 6017 5F       		.uleb128 0x5f
 15671 6018 0A000000 		.4byte	.LBB76
 15672 601c B4000000 		.4byte	.LBE76-.LBB76
 15673 6020 70       		.uleb128 0x70
 15674 6021 5D130000 		.4byte	.LASF846
 15675 6025 0F       		.byte	0xf
 15676 6026 9301     		.2byte	0x193
 15677 6028 FE540000 		.4byte	0x54fe
 15678 602c 02       		.uleb128 0x2
 15679 602d 91       		.byte	0x91
 15680 602e 74       		.sleb128 -12
 15681 602f 00       		.byte	0
 15682 6030 00       		.byte	0
 15683 6031 75       		.uleb128 0x75
 15684 6032 A3000000 		.4byte	.LASF876
 15685 6036 0F       		.byte	0xf
ARM GAS  /tmp/ccypRU8x.s 			page 279


 15686 6037 B401     		.2byte	0x1b4
 15687 6039 FA290000 		.4byte	.LASF940
 15688 603d 6B010000 		.4byte	0x16b
 15689 6041 00000000 		.4byte	.LFB607
 15690 6045 C0000000 		.4byte	.LFE607-.LFB607
 15691 6049 01       		.uleb128 0x1
 15692 604a 9C       		.byte	0x9c
 15693 604b 87600000 		.4byte	0x6087
 15694 604f 72       		.uleb128 0x72
 15695 6050 61726700 		.ascii	"arg\000"
 15696 6054 0F       		.byte	0xf
 15697 6055 B401     		.2byte	0x1b4
 15698 6057 BF000000 		.4byte	0xbf
 15699 605b 02       		.uleb128 0x2
 15700 605c 91       		.byte	0x91
 15701 605d 4C       		.sleb128 -52
 15702 605e 5F       		.uleb128 0x5f
 15703 605f 06000000 		.4byte	.LBB77
 15704 6063 BA000000 		.4byte	.LBE77-.LBB77
 15705 6067 70       		.uleb128 0x70
 15706 6068 9D440000 		.4byte	.LASF877
 15707 606c 0F       		.byte	0xf
 15708 606d B501     		.2byte	0x1b5
 15709 606f DE410000 		.4byte	0x41de
 15710 6073 02       		.uleb128 0x2
 15711 6074 91       		.byte	0x91
 15712 6075 54       		.sleb128 -44
 15713 6076 70       		.uleb128 0x70
 15714 6077 E6560000 		.4byte	.LASF878
 15715 607b 0F       		.byte	0xf
 15716 607c B601     		.2byte	0x1b6
 15717 607e 05030000 		.4byte	0x305
 15718 6082 02       		.uleb128 0x2
 15719 6083 91       		.byte	0x91
 15720 6084 74       		.sleb128 -12
 15721 6085 00       		.byte	0
 15722 6086 00       		.byte	0
 15723 6087 76       		.uleb128 0x76
 15724 6088 9A160000 		.4byte	0x169a
 15725 608c 02       		.byte	0x2
 15726 608d 9C600000 		.4byte	0x609c
 15727 6091 B1600000 		.4byte	0x60b1
 15728 6095 35       		.uleb128 0x35
 15729 6096 5400     		.ascii	"T\000"
 15730 6098 86000000 		.4byte	0x86
 15731 609c 68       		.uleb128 0x68
 15732 609d 382A0000 		.4byte	.LASF844
 15733 60a1 A7570000 		.4byte	0x57a7
 15734 60a5 77       		.uleb128 0x77
 15735 60a6 AC220000 		.4byte	.LASF879
 15736 60aa 05       		.byte	0x5
 15737 60ab 9F       		.byte	0x9f
 15738 60ac 86000000 		.4byte	0x86
 15739 60b0 00       		.byte	0
 15740 60b1 69       		.uleb128 0x69
 15741 60b2 87600000 		.4byte	0x6087
 15742 60b6 0E080000 		.4byte	.LASF881
ARM GAS  /tmp/ccypRU8x.s 			page 280


 15743 60ba 00000000 		.4byte	.LFB609
 15744 60be 14000000 		.4byte	.LFE609-.LFB609
 15745 60c2 01       		.uleb128 0x1
 15746 60c3 9C       		.byte	0x9c
 15747 60c4 D3600000 		.4byte	0x60d3
 15748 60c8 E4600000 		.4byte	0x60e4
 15749 60cc 35       		.uleb128 0x35
 15750 60cd 5400     		.ascii	"T\000"
 15751 60cf 86000000 		.4byte	0x86
 15752 60d3 6A       		.uleb128 0x6a
 15753 60d4 9C600000 		.4byte	0x609c
 15754 60d8 02       		.uleb128 0x2
 15755 60d9 91       		.byte	0x91
 15756 60da 7C       		.sleb128 -4
 15757 60db 6A       		.uleb128 0x6a
 15758 60dc A5600000 		.4byte	0x60a5
 15759 60e0 02       		.uleb128 0x2
 15760 60e1 91       		.byte	0x91
 15761 60e2 78       		.sleb128 -8
 15762 60e3 00       		.byte	0
 15763 60e4 78       		.uleb128 0x78
 15764 60e5 B0350000 		.4byte	0x35b0
 15765 60e9 00000000 		.4byte	.LFB617
 15766 60ed 0E000000 		.4byte	.LFE617-.LFB617
 15767 60f1 01       		.uleb128 0x1
 15768 60f2 9C       		.byte	0x9c
 15769 60f3 FB600000 		.4byte	0x60fb
 15770 60f7 08610000 		.4byte	0x6108
 15771 60fb 64       		.uleb128 0x64
 15772 60fc 382A0000 		.4byte	.LASF844
 15773 6100 08610000 		.4byte	0x6108
 15774 6104 02       		.uleb128 0x2
 15775 6105 91       		.byte	0x91
 15776 6106 7C       		.sleb128 -4
 15777 6107 00       		.byte	0
 15778 6108 07       		.uleb128 0x7
 15779 6109 A3520000 		.4byte	0x52a3
 15780 610d 78       		.uleb128 0x78
 15781 610e 6F350000 		.4byte	0x356f
 15782 6112 00000000 		.4byte	.LFB618
 15783 6116 5E000000 		.4byte	.LFE618-.LFB618
 15784 611a 01       		.uleb128 0x1
 15785 611b 9C       		.byte	0x9c
 15786 611c 24610000 		.4byte	0x6124
 15787 6120 3F610000 		.4byte	0x613f
 15788 6124 64       		.uleb128 0x64
 15789 6125 382A0000 		.4byte	.LASF844
 15790 6129 3F610000 		.4byte	0x613f
 15791 612d 02       		.uleb128 0x2
 15792 612e 91       		.byte	0x91
 15793 612f 7C       		.sleb128 -4
 15794 6130 66       		.uleb128 0x66
 15795 6131 FB4D0000 		.4byte	.LASF882
 15796 6135 10       		.byte	0x10
 15797 6136 34       		.byte	0x34
 15798 6137 44610000 		.4byte	0x6144
 15799 613b 02       		.uleb128 0x2
ARM GAS  /tmp/ccypRU8x.s 			page 281


 15800 613c 91       		.byte	0x91
 15801 613d 78       		.sleb128 -8
 15802 613e 00       		.byte	0
 15803 613f 07       		.uleb128 0x7
 15804 6140 97520000 		.4byte	0x5297
 15805 6144 07       		.uleb128 0x7
 15806 6145 9D520000 		.4byte	0x529d
 15807 6149 78       		.uleb128 0x78
 15808 614a 4C350000 		.4byte	0x354c
 15809 614e 00000000 		.4byte	.LFB619
 15810 6152 60000000 		.4byte	.LFE619-.LFB619
 15811 6156 01       		.uleb128 0x1
 15812 6157 9C       		.byte	0x9c
 15813 6158 60610000 		.4byte	0x6160
 15814 615c 7B610000 		.4byte	0x617b
 15815 6160 64       		.uleb128 0x64
 15816 6161 382A0000 		.4byte	.LASF844
 15817 6165 3F610000 		.4byte	0x613f
 15818 6169 02       		.uleb128 0x2
 15819 616a 91       		.byte	0x91
 15820 616b 7C       		.sleb128 -4
 15821 616c 66       		.uleb128 0x66
 15822 616d FB4D0000 		.4byte	.LASF882
 15823 6171 10       		.byte	0x10
 15824 6172 25       		.byte	0x25
 15825 6173 E5510000 		.4byte	0x51e5
 15826 6177 02       		.uleb128 0x2
 15827 6178 91       		.byte	0x91
 15828 6179 78       		.sleb128 -8
 15829 617a 00       		.byte	0
 15830 617b 76       		.uleb128 0x76
 15831 617c 5D4F0000 		.4byte	0x4f5d
 15832 6180 02       		.byte	0x2
 15833 6181 89610000 		.4byte	0x6189
 15834 6185 93610000 		.4byte	0x6193
 15835 6189 68       		.uleb128 0x68
 15836 618a 382A0000 		.4byte	.LASF844
 15837 618e 93610000 		.4byte	0x6193
 15838 6192 00       		.byte	0
 15839 6193 07       		.uleb128 0x7
 15840 6194 0A550000 		.4byte	0x550a
 15841 6198 79       		.uleb128 0x79
 15842 6199 7B610000 		.4byte	0x617b
 15843 619d 06370000 		.4byte	.LASF883
 15844 61a1 00000000 		.4byte	.LFB630
 15845 61a5 24000000 		.4byte	.LFE630-.LFB630
 15846 61a9 01       		.uleb128 0x1
 15847 61aa 9C       		.byte	0x9c
 15848 61ab B3610000 		.4byte	0x61b3
 15849 61af BC610000 		.4byte	0x61bc
 15850 61b3 6A       		.uleb128 0x6a
 15851 61b4 89610000 		.4byte	0x6189
 15852 61b8 02       		.uleb128 0x2
 15853 61b9 91       		.byte	0x91
 15854 61ba 74       		.sleb128 -12
 15855 61bb 00       		.byte	0
 15856 61bc 76       		.uleb128 0x76
ARM GAS  /tmp/ccypRU8x.s 			page 282


 15857 61bd 7A4C0000 		.4byte	0x4c7a
 15858 61c1 02       		.byte	0x2
 15859 61c2 CA610000 		.4byte	0x61ca
 15860 61c6 D4610000 		.4byte	0x61d4
 15861 61ca 68       		.uleb128 0x68
 15862 61cb 382A0000 		.4byte	.LASF844
 15863 61cf D4610000 		.4byte	0x61d4
 15864 61d3 00       		.byte	0
 15865 61d4 07       		.uleb128 0x7
 15866 61d5 EC540000 		.4byte	0x54ec
 15867 61d9 79       		.uleb128 0x79
 15868 61da BC610000 		.4byte	0x61bc
 15869 61de 132E0000 		.4byte	.LASF884
 15870 61e2 00000000 		.4byte	.LFB633
 15871 61e6 24000000 		.4byte	.LFE633-.LFB633
 15872 61ea 01       		.uleb128 0x1
 15873 61eb 9C       		.byte	0x9c
 15874 61ec F4610000 		.4byte	0x61f4
 15875 61f0 FD610000 		.4byte	0x61fd
 15876 61f4 6A       		.uleb128 0x6a
 15877 61f5 CA610000 		.4byte	0x61ca
 15878 61f9 02       		.uleb128 0x2
 15879 61fa 91       		.byte	0x91
 15880 61fb 74       		.sleb128 -12
 15881 61fc 00       		.byte	0
 15882 61fd 7A       		.uleb128 0x7a
 15883 61fe D1470000 		.4byte	0x47d1
 15884 6202 12       		.byte	0x12
 15885 6203 04       		.byte	0x4
 15886 6204 02       		.byte	0x2
 15887 6205 0D620000 		.4byte	0x620d
 15888 6209 17620000 		.4byte	0x6217
 15889 620d 68       		.uleb128 0x68
 15890 620e 382A0000 		.4byte	.LASF844
 15891 6212 17620000 		.4byte	0x6217
 15892 6216 00       		.byte	0
 15893 6217 07       		.uleb128 0x7
 15894 6218 9B540000 		.4byte	0x549b
 15895 621c 79       		.uleb128 0x79
 15896 621d FD610000 		.4byte	0x61fd
 15897 6221 92600000 		.4byte	.LASF885
 15898 6225 00000000 		.4byte	.LFB637
 15899 6229 18000000 		.4byte	.LFE637-.LFB637
 15900 622d 01       		.uleb128 0x1
 15901 622e 9C       		.byte	0x9c
 15902 622f 37620000 		.4byte	0x6237
 15903 6233 40620000 		.4byte	0x6240
 15904 6237 6A       		.uleb128 0x6a
 15905 6238 0D620000 		.4byte	0x620d
 15906 623c 02       		.uleb128 0x2
 15907 623d 91       		.byte	0x91
 15908 623e 74       		.sleb128 -12
 15909 623f 00       		.byte	0
 15910 6240 76       		.uleb128 0x76
 15911 6241 544A0000 		.4byte	0x4a54
 15912 6245 02       		.byte	0x2
 15913 6246 4E620000 		.4byte	0x624e
ARM GAS  /tmp/ccypRU8x.s 			page 283


 15914 624a 63620000 		.4byte	0x6263
 15915 624e 68       		.uleb128 0x68
 15916 624f 382A0000 		.4byte	.LASF844
 15917 6253 63620000 		.4byte	0x6263
 15918 6257 77       		.uleb128 0x77
 15919 6258 26390000 		.4byte	.LASF886
 15920 625c 13       		.byte	0x13
 15921 625d 1F       		.byte	0x1f
 15922 625e 2B4A0000 		.4byte	0x4a2b
 15923 6262 00       		.byte	0
 15924 6263 07       		.uleb128 0x7
 15925 6264 BC540000 		.4byte	0x54bc
 15926 6268 79       		.uleb128 0x79
 15927 6269 40620000 		.4byte	0x6240
 15928 626d 18340000 		.4byte	.LASF887
 15929 6271 00000000 		.4byte	.LFB639
 15930 6275 48000000 		.4byte	.LFE639-.LFB639
 15931 6279 01       		.uleb128 0x1
 15932 627a 9C       		.byte	0x9c
 15933 627b 83620000 		.4byte	0x6283
 15934 627f 94620000 		.4byte	0x6294
 15935 6283 6A       		.uleb128 0x6a
 15936 6284 4E620000 		.4byte	0x624e
 15937 6288 02       		.uleb128 0x2
 15938 6289 91       		.byte	0x91
 15939 628a 6C       		.sleb128 -20
 15940 628b 6A       		.uleb128 0x6a
 15941 628c 57620000 		.4byte	0x6257
 15942 6290 02       		.uleb128 0x2
 15943 6291 91       		.byte	0x91
 15944 6292 68       		.sleb128 -24
 15945 6293 00       		.byte	0
 15946 6294 7A       		.uleb128 0x7a
 15947 6295 06480000 		.4byte	0x4806
 15948 6299 14       		.byte	0x14
 15949 629a 07       		.byte	0x7
 15950 629b 02       		.byte	0x2
 15951 629c A4620000 		.4byte	0x62a4
 15952 62a0 AE620000 		.4byte	0x62ae
 15953 62a4 68       		.uleb128 0x68
 15954 62a5 382A0000 		.4byte	.LASF844
 15955 62a9 AE620000 		.4byte	0x62ae
 15956 62ad 00       		.byte	0
 15957 62ae 07       		.uleb128 0x7
 15958 62af 2A540000 		.4byte	0x542a
 15959 62b3 79       		.uleb128 0x79
 15960 62b4 94620000 		.4byte	0x6294
 15961 62b8 70040000 		.4byte	.LASF888
 15962 62bc 00000000 		.4byte	.LFB643
 15963 62c0 18000000 		.4byte	.LFE643-.LFB643
 15964 62c4 01       		.uleb128 0x1
 15965 62c5 9C       		.byte	0x9c
 15966 62c6 CE620000 		.4byte	0x62ce
 15967 62ca D7620000 		.4byte	0x62d7
 15968 62ce 6A       		.uleb128 0x6a
 15969 62cf A4620000 		.4byte	0x62a4
 15970 62d3 02       		.uleb128 0x2
ARM GAS  /tmp/ccypRU8x.s 			page 284


 15971 62d4 91       		.byte	0x91
 15972 62d5 74       		.sleb128 -12
 15973 62d6 00       		.byte	0
 15974 62d7 76       		.uleb128 0x76
 15975 62d8 73480000 		.4byte	0x4873
 15976 62dc 02       		.byte	0x2
 15977 62dd E5620000 		.4byte	0x62e5
 15978 62e1 FA620000 		.4byte	0x62fa
 15979 62e5 68       		.uleb128 0x68
 15980 62e6 382A0000 		.4byte	.LASF844
 15981 62ea FA620000 		.4byte	0x62fa
 15982 62ee 77       		.uleb128 0x77
 15983 62ef 26390000 		.4byte	.LASF886
 15984 62f3 13       		.byte	0x13
 15985 62f4 1F       		.byte	0x1f
 15986 62f5 4A480000 		.4byte	0x484a
 15987 62f9 00       		.byte	0
 15988 62fa 07       		.uleb128 0x7
 15989 62fb 4B540000 		.4byte	0x544b
 15990 62ff 79       		.uleb128 0x79
 15991 6300 D7620000 		.4byte	0x62d7
 15992 6304 503B0000 		.4byte	.LASF889
 15993 6308 00000000 		.4byte	.LFB645
 15994 630c 48000000 		.4byte	.LFE645-.LFB645
 15995 6310 01       		.uleb128 0x1
 15996 6311 9C       		.byte	0x9c
 15997 6312 1A630000 		.4byte	0x631a
 15998 6316 2B630000 		.4byte	0x632b
 15999 631a 6A       		.uleb128 0x6a
 16000 631b E5620000 		.4byte	0x62e5
 16001 631f 02       		.uleb128 0x2
 16002 6320 91       		.byte	0x91
 16003 6321 6C       		.sleb128 -20
 16004 6322 6A       		.uleb128 0x6a
 16005 6323 EE620000 		.4byte	0x62ee
 16006 6327 02       		.uleb128 0x2
 16007 6328 91       		.byte	0x91
 16008 6329 68       		.sleb128 -24
 16009 632a 00       		.byte	0
 16010 632b 57       		.uleb128 0x57
 16011 632c 04       		.byte	0x4
 16012 632d C04E0000 		.4byte	0x4ec0
 16013 6331 6B       		.uleb128 0x6b
 16014 6332 28440000 		.4byte	0x4428
 16015 6336 00000000 		.4byte	.LFB647
 16016 633a 28000000 		.4byte	.LFE647-.LFB647
 16017 633e 01       		.uleb128 0x1
 16018 633f 9C       		.byte	0x9c
 16019 6340 50630000 		.4byte	0x6350
 16020 6344 87630000 		.4byte	0x6387
 16021 6348 35       		.uleb128 0x35
 16022 6349 4D5400   		.ascii	"MT\000"
 16023 634c 13470000 		.4byte	0x4713
 16024 6350 64       		.uleb128 0x64
 16025 6351 382A0000 		.4byte	.LASF844
 16026 6355 67530000 		.4byte	0x5367
 16027 6359 02       		.uleb128 0x2
ARM GAS  /tmp/ccypRU8x.s 			page 285


 16028 635a 91       		.byte	0x91
 16029 635b 74       		.sleb128 -12
 16030 635c 5E       		.uleb128 0x5e
 16031 635d 70756200 		.ascii	"pub\000"
 16032 6361 0C       		.byte	0xc
 16033 6362 75       		.byte	0x75
 16034 6363 87630000 		.4byte	0x6387
 16035 6367 02       		.uleb128 0x2
 16036 6368 91       		.byte	0x91
 16037 6369 70       		.sleb128 -16
 16038 636a 66       		.uleb128 0x66
 16039 636b 0D1F0000 		.4byte	.LASF461
 16040 636f 0C       		.byte	0xc
 16041 6370 75       		.byte	0x75
 16042 6371 CE000000 		.4byte	0xce
 16043 6375 02       		.uleb128 0x2
 16044 6376 91       		.byte	0x91
 16045 6377 6C       		.sleb128 -20
 16046 6378 66       		.uleb128 0x66
 16047 6379 76610000 		.4byte	.LASF462
 16048 637d 0C       		.byte	0xc
 16049 637e 76       		.byte	0x76
 16050 637f 8C630000 		.4byte	0x638c
 16051 6383 02       		.uleb128 0x2
 16052 6384 91       		.byte	0x91
 16053 6385 68       		.sleb128 -24
 16054 6386 00       		.byte	0
 16055 6387 07       		.uleb128 0x7
 16056 6388 2B630000 		.4byte	0x632b
 16057 638c 07       		.uleb128 0x7
 16058 638d 76500000 		.4byte	0x5076
 16059 6391 6B       		.uleb128 0x6b
 16060 6392 F44E0000 		.4byte	0x4ef4
 16061 6396 00000000 		.4byte	.LFB648
 16062 639a 1C000000 		.4byte	.LFE648-.LFB648
 16063 639e 01       		.uleb128 0x1
 16064 639f 9C       		.byte	0x9c
 16065 63a0 A8630000 		.4byte	0x63a8
 16066 63a4 C3630000 		.4byte	0x63c3
 16067 63a8 64       		.uleb128 0x64
 16068 63a9 382A0000 		.4byte	.LASF844
 16069 63ad 93610000 		.4byte	0x6193
 16070 63b1 02       		.uleb128 0x2
 16071 63b2 91       		.byte	0x91
 16072 63b3 74       		.sleb128 -12
 16073 63b4 66       		.uleb128 0x66
 16074 63b5 5D130000 		.4byte	.LASF846
 16075 63b9 11       		.byte	0x11
 16076 63ba 19       		.byte	0x19
 16077 63bb C3630000 		.4byte	0x63c3
 16078 63bf 02       		.uleb128 0x2
 16079 63c0 91       		.byte	0x91
 16080 63c1 70       		.sleb128 -16
 16081 63c2 00       		.byte	0
 16082 63c3 07       		.uleb128 0x7
 16083 63c4 16550000 		.4byte	0x5516
 16084 63c8 7B       		.uleb128 0x7b
ARM GAS  /tmp/ccypRU8x.s 			page 286


 16085 63c9 DE400000 		.4byte	.LASF941
 16086 63cd 0F       		.byte	0xf
 16087 63ce 35       		.byte	0x35
 16088 63cf E3530000 		.4byte	0x53e3
 16089 63d3 00000000 		.4byte	.LFB649
 16090 63d7 48000000 		.4byte	.LFE649-.LFB649
 16091 63db 01       		.uleb128 0x1
 16092 63dc 9C       		.byte	0x9c
 16093 63dd 13640000 		.4byte	0x6413
 16094 63e1 35       		.uleb128 0x35
 16095 63e2 5400     		.ascii	"T\000"
 16096 63e4 E3530000 		.4byte	0x53e3
 16097 63e8 5E       		.uleb128 0x5e
 16098 63e9 6D696E00 		.ascii	"min\000"
 16099 63ed 0F       		.byte	0xf
 16100 63ee 35       		.byte	0x35
 16101 63ef E3530000 		.4byte	0x53e3
 16102 63f3 02       		.uleb128 0x2
 16103 63f4 91       		.byte	0x91
 16104 63f5 7C       		.sleb128 -4
 16105 63f6 66       		.uleb128 0x66
 16106 63f7 A81E0000 		.4byte	.LASF774
 16107 63fb 0F       		.byte	0xf
 16108 63fc 35       		.byte	0x35
 16109 63fd E3530000 		.4byte	0x53e3
 16110 6401 02       		.uleb128 0x2
 16111 6402 91       		.byte	0x91
 16112 6403 78       		.sleb128 -8
 16113 6404 5E       		.uleb128 0x5e
 16114 6405 6D617800 		.ascii	"max\000"
 16115 6409 0F       		.byte	0xf
 16116 640a 35       		.byte	0x35
 16117 640b E3530000 		.4byte	0x53e3
 16118 640f 02       		.uleb128 0x2
 16119 6410 91       		.byte	0x91
 16120 6411 74       		.sleb128 -12
 16121 6412 00       		.byte	0
 16122 6413 6B       		.uleb128 0x6b
 16123 6414 174F0000 		.4byte	0x4f17
 16124 6418 00000000 		.4byte	.LFB650
 16125 641c 1E000000 		.4byte	.LFE650-.LFB650
 16126 6420 01       		.uleb128 0x1
 16127 6421 9C       		.byte	0x9c
 16128 6422 2A640000 		.4byte	0x642a
 16129 6426 45640000 		.4byte	0x6445
 16130 642a 64       		.uleb128 0x64
 16131 642b 382A0000 		.4byte	.LASF844
 16132 642f 93610000 		.4byte	0x6193
 16133 6433 02       		.uleb128 0x2
 16134 6434 91       		.byte	0x91
 16135 6435 74       		.sleb128 -12
 16136 6436 5E       		.uleb128 0x5e
 16137 6437 6D736700 		.ascii	"msg\000"
 16138 643b 11       		.byte	0x11
 16139 643c 21       		.byte	0x21
 16140 643d 45640000 		.4byte	0x6445
 16141 6441 02       		.uleb128 0x2
ARM GAS  /tmp/ccypRU8x.s 			page 287


 16142 6442 91       		.byte	0x91
 16143 6443 70       		.sleb128 -16
 16144 6444 00       		.byte	0
 16145 6445 07       		.uleb128 0x7
 16146 6446 22550000 		.4byte	0x5522
 16147 644a 57       		.uleb128 0x57
 16148 644b 04       		.byte	0x4
 16149 644c FC490000 		.4byte	0x49fc
 16150 6450 6B       		.uleb128 0x6b
 16151 6451 5D440000 		.4byte	0x445d
 16152 6455 00000000 		.4byte	.LFB651
 16153 6459 2A000000 		.4byte	.LFE651-.LFB651
 16154 645d 01       		.uleb128 0x1
 16155 645e 9C       		.byte	0x9c
 16156 645f 78640000 		.4byte	0x6478
 16157 6463 A1640000 		.4byte	0x64a1
 16158 6467 35       		.uleb128 0x35
 16159 6468 4D5400   		.ascii	"MT\000"
 16160 646b 67470000 		.4byte	0x4767
 16161 646f 4F       		.uleb128 0x4f
 16162 6470 514C00   		.ascii	"QL\000"
 16163 6473 30000000 		.4byte	0x30
 16164 6477 05       		.byte	0x5
 16165 6478 64       		.uleb128 0x64
 16166 6479 382A0000 		.4byte	.LASF844
 16167 647d 67530000 		.4byte	0x5367
 16168 6481 02       		.uleb128 0x2
 16169 6482 91       		.byte	0x91
 16170 6483 74       		.sleb128 -12
 16171 6484 5E       		.uleb128 0x5e
 16172 6485 73756200 		.ascii	"sub\000"
 16173 6489 0C       		.byte	0xc
 16174 648a 85       		.byte	0x85
 16175 648b A1640000 		.4byte	0x64a1
 16176 648f 02       		.uleb128 0x2
 16177 6490 91       		.byte	0x91
 16178 6491 70       		.sleb128 -16
 16179 6492 66       		.uleb128 0x66
 16180 6493 0D1F0000 		.4byte	.LASF461
 16181 6497 0C       		.byte	0xc
 16182 6498 85       		.byte	0x85
 16183 6499 CE000000 		.4byte	0xce
 16184 649d 02       		.uleb128 0x2
 16185 649e 91       		.byte	0x91
 16186 649f 6C       		.sleb128 -20
 16187 64a0 00       		.byte	0
 16188 64a1 07       		.uleb128 0x7
 16189 64a2 4A640000 		.4byte	0x644a
 16190 64a6 6B       		.uleb128 0x6b
 16191 64a7 094B0000 		.4byte	0x4b09
 16192 64ab 00000000 		.4byte	.LFB652
 16193 64af 1C000000 		.4byte	.LFE652-.LFB652
 16194 64b3 01       		.uleb128 0x1
 16195 64b4 9C       		.byte	0x9c
 16196 64b5 BD640000 		.4byte	0x64bd
 16197 64b9 D8640000 		.4byte	0x64d8
 16198 64bd 64       		.uleb128 0x64
ARM GAS  /tmp/ccypRU8x.s 			page 288


 16199 64be 382A0000 		.4byte	.LASF844
 16200 64c2 D8640000 		.4byte	0x64d8
 16201 64c6 02       		.uleb128 0x2
 16202 64c7 91       		.byte	0x91
 16203 64c8 74       		.sleb128 -12
 16204 64c9 66       		.uleb128 0x66
 16205 64ca 5D130000 		.4byte	.LASF846
 16206 64ce 15       		.byte	0x15
 16207 64cf 1F       		.byte	0x1f
 16208 64d0 DD640000 		.4byte	0x64dd
 16209 64d4 02       		.uleb128 0x2
 16210 64d5 91       		.byte	0x91
 16211 64d6 70       		.sleb128 -16
 16212 64d7 00       		.byte	0
 16213 64d8 07       		.uleb128 0x7
 16214 64d9 C8540000 		.4byte	0x54c8
 16215 64dd 07       		.uleb128 0x7
 16216 64de DA540000 		.4byte	0x54da
 16217 64e2 6B       		.uleb128 0x6b
 16218 64e3 544B0000 		.4byte	0x4b54
 16219 64e7 00000000 		.4byte	.LFB653
 16220 64eb 1E000000 		.4byte	.LFE653-.LFB653
 16221 64ef 01       		.uleb128 0x1
 16222 64f0 9C       		.byte	0x9c
 16223 64f1 F9640000 		.4byte	0x64f9
 16224 64f5 14650000 		.4byte	0x6514
 16225 64f9 64       		.uleb128 0x64
 16226 64fa 382A0000 		.4byte	.LASF844
 16227 64fe D8640000 		.4byte	0x64d8
 16228 6502 02       		.uleb128 0x2
 16229 6503 91       		.byte	0x91
 16230 6504 74       		.sleb128 -12
 16231 6505 5E       		.uleb128 0x5e
 16232 6506 6D736700 		.ascii	"msg\000"
 16233 650a 15       		.byte	0x15
 16234 650b 39       		.byte	0x39
 16235 650c 14650000 		.4byte	0x6514
 16236 6510 02       		.uleb128 0x2
 16237 6511 91       		.byte	0x91
 16238 6512 70       		.sleb128 -16
 16239 6513 00       		.byte	0
 16240 6514 07       		.uleb128 0x7
 16241 6515 E0540000 		.4byte	0x54e0
 16242 6519 57       		.uleb128 0x57
 16243 651a 04       		.byte	0x4
 16244 651b 1B480000 		.4byte	0x481b
 16245 651f 6B       		.uleb128 0x6b
 16246 6520 96440000 		.4byte	0x4496
 16247 6524 00000000 		.4byte	.LFB654
 16248 6528 2A000000 		.4byte	.LFE654-.LFB654
 16249 652c 01       		.uleb128 0x1
 16250 652d 9C       		.byte	0x9c
 16251 652e 47650000 		.4byte	0x6547
 16252 6532 70650000 		.4byte	0x6570
 16253 6536 35       		.uleb128 0x35
 16254 6537 4D5400   		.ascii	"MT\000"
 16255 653a E6470000 		.4byte	0x47e6
ARM GAS  /tmp/ccypRU8x.s 			page 289


 16256 653e 4F       		.uleb128 0x4f
 16257 653f 514C00   		.ascii	"QL\000"
 16258 6542 30000000 		.4byte	0x30
 16259 6546 05       		.byte	0x5
 16260 6547 64       		.uleb128 0x64
 16261 6548 382A0000 		.4byte	.LASF844
 16262 654c 67530000 		.4byte	0x5367
 16263 6550 02       		.uleb128 0x2
 16264 6551 91       		.byte	0x91
 16265 6552 74       		.sleb128 -12
 16266 6553 5E       		.uleb128 0x5e
 16267 6554 73756200 		.ascii	"sub\000"
 16268 6558 0C       		.byte	0xc
 16269 6559 85       		.byte	0x85
 16270 655a 70650000 		.4byte	0x6570
 16271 655e 02       		.uleb128 0x2
 16272 655f 91       		.byte	0x91
 16273 6560 70       		.sleb128 -16
 16274 6561 66       		.uleb128 0x66
 16275 6562 0D1F0000 		.4byte	.LASF461
 16276 6566 0C       		.byte	0xc
 16277 6567 85       		.byte	0x85
 16278 6568 CE000000 		.4byte	0xce
 16279 656c 02       		.uleb128 0x2
 16280 656d 91       		.byte	0x91
 16281 656e 6C       		.sleb128 -20
 16282 656f 00       		.byte	0
 16283 6570 07       		.uleb128 0x7
 16284 6571 19650000 		.4byte	0x6519
 16285 6575 6B       		.uleb128 0x6b
 16286 6576 28490000 		.4byte	0x4928
 16287 657a 00000000 		.4byte	.LFB655
 16288 657e 1C000000 		.4byte	.LFE655-.LFB655
 16289 6582 01       		.uleb128 0x1
 16290 6583 9C       		.byte	0x9c
 16291 6584 8C650000 		.4byte	0x658c
 16292 6588 A7650000 		.4byte	0x65a7
 16293 658c 64       		.uleb128 0x64
 16294 658d 382A0000 		.4byte	.LASF844
 16295 6591 A7650000 		.4byte	0x65a7
 16296 6595 02       		.uleb128 0x2
 16297 6596 91       		.byte	0x91
 16298 6597 74       		.sleb128 -12
 16299 6598 66       		.uleb128 0x66
 16300 6599 5D130000 		.4byte	.LASF846
 16301 659d 15       		.byte	0x15
 16302 659e 1F       		.byte	0x1f
 16303 659f AC650000 		.4byte	0x65ac
 16304 65a3 02       		.uleb128 0x2
 16305 65a4 91       		.byte	0x91
 16306 65a5 70       		.sleb128 -16
 16307 65a6 00       		.byte	0
 16308 65a7 07       		.uleb128 0x7
 16309 65a8 57540000 		.4byte	0x5457
 16310 65ac 07       		.uleb128 0x7
 16311 65ad 69540000 		.4byte	0x5469
 16312 65b1 6B       		.uleb128 0x6b
ARM GAS  /tmp/ccypRU8x.s 			page 290


 16313 65b2 73490000 		.4byte	0x4973
 16314 65b6 00000000 		.4byte	.LFB656
 16315 65ba 1E000000 		.4byte	.LFE656-.LFB656
 16316 65be 01       		.uleb128 0x1
 16317 65bf 9C       		.byte	0x9c
 16318 65c0 C8650000 		.4byte	0x65c8
 16319 65c4 E3650000 		.4byte	0x65e3
 16320 65c8 64       		.uleb128 0x64
 16321 65c9 382A0000 		.4byte	.LASF844
 16322 65cd A7650000 		.4byte	0x65a7
 16323 65d1 02       		.uleb128 0x2
 16324 65d2 91       		.byte	0x91
 16325 65d3 74       		.sleb128 -12
 16326 65d4 5E       		.uleb128 0x5e
 16327 65d5 6D736700 		.ascii	"msg\000"
 16328 65d9 15       		.byte	0x15
 16329 65da 39       		.byte	0x39
 16330 65db E3650000 		.4byte	0x65e3
 16331 65df 02       		.uleb128 0x2
 16332 65e0 91       		.byte	0x91
 16333 65e1 70       		.sleb128 -16
 16334 65e2 00       		.byte	0
 16335 65e3 07       		.uleb128 0x7
 16336 65e4 6F540000 		.4byte	0x546f
 16337 65e8 57       		.uleb128 0x57
 16338 65e9 04       		.byte	0x4
 16339 65ea DD4B0000 		.4byte	0x4bdd
 16340 65ee 6B       		.uleb128 0x6b
 16341 65ef CF440000 		.4byte	0x44cf
 16342 65f3 00000000 		.4byte	.LFB657
 16343 65f7 28000000 		.4byte	.LFE657-.LFB657
 16344 65fb 01       		.uleb128 0x1
 16345 65fc 9C       		.byte	0x9c
 16346 65fd 0D660000 		.4byte	0x660d
 16347 6601 44660000 		.4byte	0x6644
 16348 6605 35       		.uleb128 0x35
 16349 6606 4D5400   		.ascii	"MT\000"
 16350 6609 34470000 		.4byte	0x4734
 16351 660d 64       		.uleb128 0x64
 16352 660e 382A0000 		.4byte	.LASF844
 16353 6612 67530000 		.4byte	0x5367
 16354 6616 02       		.uleb128 0x2
 16355 6617 91       		.byte	0x91
 16356 6618 74       		.sleb128 -12
 16357 6619 5E       		.uleb128 0x5e
 16358 661a 70756200 		.ascii	"pub\000"
 16359 661e 0C       		.byte	0xc
 16360 661f 75       		.byte	0x75
 16361 6620 44660000 		.4byte	0x6644
 16362 6624 02       		.uleb128 0x2
 16363 6625 91       		.byte	0x91
 16364 6626 70       		.sleb128 -16
 16365 6627 66       		.uleb128 0x66
 16366 6628 0D1F0000 		.4byte	.LASF461
 16367 662c 0C       		.byte	0xc
 16368 662d 75       		.byte	0x75
 16369 662e CE000000 		.4byte	0xce
ARM GAS  /tmp/ccypRU8x.s 			page 291


 16370 6632 02       		.uleb128 0x2
 16371 6633 91       		.byte	0x91
 16372 6634 6C       		.sleb128 -20
 16373 6635 66       		.uleb128 0x66
 16374 6636 76610000 		.4byte	.LASF462
 16375 663a 0C       		.byte	0xc
 16376 663b 76       		.byte	0x76
 16377 663c 49660000 		.4byte	0x6649
 16378 6640 02       		.uleb128 0x2
 16379 6641 91       		.byte	0x91
 16380 6642 68       		.sleb128 -24
 16381 6643 00       		.byte	0
 16382 6644 07       		.uleb128 0x7
 16383 6645 E8650000 		.4byte	0x65e8
 16384 6649 07       		.uleb128 0x7
 16385 664a 76500000 		.4byte	0x5076
 16386 664e 6B       		.uleb128 0x6b
 16387 664f 114C0000 		.4byte	0x4c11
 16388 6653 00000000 		.4byte	.LFB658
 16389 6657 1C000000 		.4byte	.LFE658-.LFB658
 16390 665b 01       		.uleb128 0x1
 16391 665c 9C       		.byte	0x9c
 16392 665d 65660000 		.4byte	0x6665
 16393 6661 80660000 		.4byte	0x6680
 16394 6665 64       		.uleb128 0x64
 16395 6666 382A0000 		.4byte	.LASF844
 16396 666a D4610000 		.4byte	0x61d4
 16397 666e 02       		.uleb128 0x2
 16398 666f 91       		.byte	0x91
 16399 6670 74       		.sleb128 -12
 16400 6671 66       		.uleb128 0x66
 16401 6672 5D130000 		.4byte	.LASF846
 16402 6676 11       		.byte	0x11
 16403 6677 19       		.byte	0x19
 16404 6678 80660000 		.4byte	0x6680
 16405 667c 02       		.uleb128 0x2
 16406 667d 91       		.byte	0x91
 16407 667e 70       		.sleb128 -16
 16408 667f 00       		.byte	0
 16409 6680 07       		.uleb128 0x7
 16410 6681 F8540000 		.4byte	0x54f8
 16411 6685 6B       		.uleb128 0x6b
 16412 6686 344C0000 		.4byte	0x4c34
 16413 668a 00000000 		.4byte	.LFB659
 16414 668e 1E000000 		.4byte	.LFE659-.LFB659
 16415 6692 01       		.uleb128 0x1
 16416 6693 9C       		.byte	0x9c
 16417 6694 9C660000 		.4byte	0x669c
 16418 6698 B7660000 		.4byte	0x66b7
 16419 669c 64       		.uleb128 0x64
 16420 669d 382A0000 		.4byte	.LASF844
 16421 66a1 D4610000 		.4byte	0x61d4
 16422 66a5 02       		.uleb128 0x2
 16423 66a6 91       		.byte	0x91
 16424 66a7 74       		.sleb128 -12
 16425 66a8 5E       		.uleb128 0x5e
 16426 66a9 6D736700 		.ascii	"msg\000"
ARM GAS  /tmp/ccypRU8x.s 			page 292


 16427 66ad 11       		.byte	0x11
 16428 66ae 21       		.byte	0x21
 16429 66af B7660000 		.4byte	0x66b7
 16430 66b3 02       		.uleb128 0x2
 16431 66b4 91       		.byte	0x91
 16432 66b5 70       		.sleb128 -16
 16433 66b6 00       		.byte	0
 16434 66b7 07       		.uleb128 0x7
 16435 66b8 04550000 		.4byte	0x5504
 16436 66bc 76       		.uleb128 0x76
 16437 66bd 774B0000 		.4byte	0x4b77
 16438 66c1 02       		.byte	0x2
 16439 66c2 CA660000 		.4byte	0x66ca
 16440 66c6 F5660000 		.4byte	0x66f5
 16441 66ca 68       		.uleb128 0x68
 16442 66cb 382A0000 		.4byte	.LASF844
 16443 66cf D8640000 		.4byte	0x64d8
 16444 66d3 77       		.uleb128 0x77
 16445 66d4 933E0000 		.4byte	.LASF785
 16446 66d8 15       		.byte	0x15
 16447 66d9 41       		.byte	0x41
 16448 66da E6540000 		.4byte	0x54e6
 16449 66de 77       		.uleb128 0x77
 16450 66df 511B0000 		.4byte	.LASF890
 16451 66e3 15       		.byte	0x15
 16452 66e4 41       		.byte	0x41
 16453 66e5 25000000 		.4byte	0x25
 16454 66e9 77       		.uleb128 0x77
 16455 66ea 26390000 		.4byte	.LASF886
 16456 66ee 15       		.byte	0x15
 16457 66ef 42       		.byte	0x42
 16458 66f0 BB4A0000 		.4byte	0x4abb
 16459 66f4 00       		.byte	0
 16460 66f5 79       		.uleb128 0x79
 16461 66f6 BC660000 		.4byte	0x66bc
 16462 66fa F65E0000 		.4byte	.LASF891
 16463 66fe 00000000 		.4byte	.LFB663
 16464 6702 30000000 		.4byte	.LFE663-.LFB663
 16465 6706 01       		.uleb128 0x1
 16466 6707 9C       		.byte	0x9c
 16467 6708 10670000 		.4byte	0x6710
 16468 670c 31670000 		.4byte	0x6731
 16469 6710 6A       		.uleb128 0x6a
 16470 6711 CA660000 		.4byte	0x66ca
 16471 6715 02       		.uleb128 0x2
 16472 6716 91       		.byte	0x91
 16473 6717 74       		.sleb128 -12
 16474 6718 6A       		.uleb128 0x6a
 16475 6719 D3660000 		.4byte	0x66d3
 16476 671d 02       		.uleb128 0x2
 16477 671e 91       		.byte	0x91
 16478 671f 70       		.sleb128 -16
 16479 6720 6A       		.uleb128 0x6a
 16480 6721 DE660000 		.4byte	0x66de
 16481 6725 02       		.uleb128 0x2
 16482 6726 91       		.byte	0x91
 16483 6727 6C       		.sleb128 -20
ARM GAS  /tmp/ccypRU8x.s 			page 293


 16484 6728 6A       		.uleb128 0x6a
 16485 6729 E9660000 		.4byte	0x66e9
 16486 672d 02       		.uleb128 0x2
 16487 672e 91       		.byte	0x91
 16488 672f 68       		.sleb128 -24
 16489 6730 00       		.byte	0
 16490 6731 76       		.uleb128 0x76
 16491 6732 A04B0000 		.4byte	0x4ba0
 16492 6736 02       		.byte	0x2
 16493 6737 3F670000 		.4byte	0x673f
 16494 673b 52670000 		.4byte	0x6752
 16495 673f 68       		.uleb128 0x68
 16496 6740 382A0000 		.4byte	.LASF844
 16497 6744 D8640000 		.4byte	0x64d8
 16498 6748 68       		.uleb128 0x68
 16499 6749 CD570000 		.4byte	.LASF892
 16500 674d 52670000 		.4byte	0x6752
 16501 6751 00       		.byte	0
 16502 6752 07       		.uleb128 0x7
 16503 6753 37000000 		.4byte	0x37
 16504 6757 79       		.uleb128 0x79
 16505 6758 31670000 		.4byte	0x6731
 16506 675c 5E080000 		.4byte	.LASF893
 16507 6760 00000000 		.4byte	.LFB666
 16508 6764 30000000 		.4byte	.LFE666-.LFB666
 16509 6768 01       		.uleb128 0x1
 16510 6769 9C       		.byte	0x9c
 16511 676a 72670000 		.4byte	0x6772
 16512 676e 7B670000 		.4byte	0x677b
 16513 6772 6A       		.uleb128 0x6a
 16514 6773 3F670000 		.4byte	0x673f
 16515 6777 02       		.uleb128 0x2
 16516 6778 91       		.byte	0x91
 16517 6779 74       		.sleb128 -12
 16518 677a 00       		.byte	0
 16519 677b 79       		.uleb128 0x79
 16520 677c 31670000 		.4byte	0x6731
 16521 6780 443D0000 		.4byte	.LASF894
 16522 6784 00000000 		.4byte	.LFB668
 16523 6788 1C000000 		.4byte	.LFE668-.LFB668
 16524 678c 01       		.uleb128 0x1
 16525 678d 9C       		.byte	0x9c
 16526 678e 96670000 		.4byte	0x6796
 16527 6792 9F670000 		.4byte	0x679f
 16528 6796 6A       		.uleb128 0x6a
 16529 6797 3F670000 		.4byte	0x673f
 16530 679b 02       		.uleb128 0x2
 16531 679c 91       		.byte	0x91
 16532 679d 74       		.sleb128 -12
 16533 679e 00       		.byte	0
 16534 679f 76       		.uleb128 0x76
 16535 67a0 96490000 		.4byte	0x4996
 16536 67a4 02       		.byte	0x2
 16537 67a5 AD670000 		.4byte	0x67ad
 16538 67a9 D8670000 		.4byte	0x67d8
 16539 67ad 68       		.uleb128 0x68
 16540 67ae 382A0000 		.4byte	.LASF844
ARM GAS  /tmp/ccypRU8x.s 			page 294


 16541 67b2 A7650000 		.4byte	0x65a7
 16542 67b6 77       		.uleb128 0x77
 16543 67b7 933E0000 		.4byte	.LASF785
 16544 67bb 15       		.byte	0x15
 16545 67bc 41       		.byte	0x41
 16546 67bd 75540000 		.4byte	0x5475
 16547 67c1 77       		.uleb128 0x77
 16548 67c2 511B0000 		.4byte	.LASF890
 16549 67c6 15       		.byte	0x15
 16550 67c7 41       		.byte	0x41
 16551 67c8 25000000 		.4byte	0x25
 16552 67cc 77       		.uleb128 0x77
 16553 67cd 26390000 		.4byte	.LASF886
 16554 67d1 15       		.byte	0x15
 16555 67d2 42       		.byte	0x42
 16556 67d3 DA480000 		.4byte	0x48da
 16557 67d7 00       		.byte	0
 16558 67d8 79       		.uleb128 0x79
 16559 67d9 9F670000 		.4byte	0x679f
 16560 67dd 04560000 		.4byte	.LASF895
 16561 67e1 00000000 		.4byte	.LFB670
 16562 67e5 30000000 		.4byte	.LFE670-.LFB670
 16563 67e9 01       		.uleb128 0x1
 16564 67ea 9C       		.byte	0x9c
 16565 67eb F3670000 		.4byte	0x67f3
 16566 67ef 14680000 		.4byte	0x6814
 16567 67f3 6A       		.uleb128 0x6a
 16568 67f4 AD670000 		.4byte	0x67ad
 16569 67f8 02       		.uleb128 0x2
 16570 67f9 91       		.byte	0x91
 16571 67fa 74       		.sleb128 -12
 16572 67fb 6A       		.uleb128 0x6a
 16573 67fc B6670000 		.4byte	0x67b6
 16574 6800 02       		.uleb128 0x2
 16575 6801 91       		.byte	0x91
 16576 6802 70       		.sleb128 -16
 16577 6803 6A       		.uleb128 0x6a
 16578 6804 C1670000 		.4byte	0x67c1
 16579 6808 02       		.uleb128 0x2
 16580 6809 91       		.byte	0x91
 16581 680a 6C       		.sleb128 -20
 16582 680b 6A       		.uleb128 0x6a
 16583 680c CC670000 		.4byte	0x67cc
 16584 6810 02       		.uleb128 0x2
 16585 6811 91       		.byte	0x91
 16586 6812 68       		.sleb128 -24
 16587 6813 00       		.byte	0
 16588 6814 76       		.uleb128 0x76
 16589 6815 BF490000 		.4byte	0x49bf
 16590 6819 02       		.byte	0x2
 16591 681a 22680000 		.4byte	0x6822
 16592 681e 35680000 		.4byte	0x6835
 16593 6822 68       		.uleb128 0x68
 16594 6823 382A0000 		.4byte	.LASF844
 16595 6827 A7650000 		.4byte	0x65a7
 16596 682b 68       		.uleb128 0x68
 16597 682c CD570000 		.4byte	.LASF892
ARM GAS  /tmp/ccypRU8x.s 			page 295


 16598 6830 35680000 		.4byte	0x6835
 16599 6834 00       		.byte	0
 16600 6835 07       		.uleb128 0x7
 16601 6836 37000000 		.4byte	0x37
 16602 683a 79       		.uleb128 0x79
 16603 683b 14680000 		.4byte	0x6814
 16604 683f DA270000 		.4byte	.LASF896
 16605 6843 00000000 		.4byte	.LFB673
 16606 6847 30000000 		.4byte	.LFE673-.LFB673
 16607 684b 01       		.uleb128 0x1
 16608 684c 9C       		.byte	0x9c
 16609 684d 55680000 		.4byte	0x6855
 16610 6851 5E680000 		.4byte	0x685e
 16611 6855 6A       		.uleb128 0x6a
 16612 6856 22680000 		.4byte	0x6822
 16613 685a 02       		.uleb128 0x2
 16614 685b 91       		.byte	0x91
 16615 685c 74       		.sleb128 -12
 16616 685d 00       		.byte	0
 16617 685e 79       		.uleb128 0x79
 16618 685f 14680000 		.4byte	0x6814
 16619 6863 82160000 		.4byte	.LASF897
 16620 6867 00000000 		.4byte	.LFB675
 16621 686b 1C000000 		.4byte	.LFE675-.LFB675
 16622 686f 01       		.uleb128 0x1
 16623 6870 9C       		.byte	0x9c
 16624 6871 79680000 		.4byte	0x6879
 16625 6875 82680000 		.4byte	0x6882
 16626 6879 6A       		.uleb128 0x6a
 16627 687a 22680000 		.4byte	0x6822
 16628 687e 02       		.uleb128 0x2
 16629 687f 91       		.byte	0x91
 16630 6880 74       		.sleb128 -12
 16631 6881 00       		.byte	0
 16632 6882 7C       		.uleb128 0x7c
 16633 6883 FF420000 		.4byte	.LASF942
 16634 6887 00000000 		.4byte	.LFB678
 16635 688b FC000000 		.4byte	.LFE678-.LFB678
 16636 688f 01       		.uleb128 0x1
 16637 6890 9C       		.byte	0x9c
 16638 6891 B4680000 		.4byte	0x68b4
 16639 6895 73       		.uleb128 0x73
 16640 6896 8B120000 		.4byte	.LASF898
 16641 689a 0F       		.byte	0xf
 16642 689b D901     		.2byte	0x1d9
 16643 689d 37000000 		.4byte	0x37
 16644 68a1 02       		.uleb128 0x2
 16645 68a2 91       		.byte	0x91
 16646 68a3 74       		.sleb128 -12
 16647 68a4 73       		.uleb128 0x73
 16648 68a5 7B1A0000 		.4byte	.LASF899
 16649 68a9 0F       		.byte	0xf
 16650 68aa D901     		.2byte	0x1d9
 16651 68ac 37000000 		.4byte	0x37
 16652 68b0 02       		.uleb128 0x2
 16653 68b1 91       		.byte	0x91
 16654 68b2 70       		.sleb128 -16
ARM GAS  /tmp/ccypRU8x.s 			page 296


 16655 68b3 00       		.byte	0
 16656 68b4 76       		.uleb128 0x76
 16657 68b5 92480000 		.4byte	0x4892
 16658 68b9 02       		.byte	0x2
 16659 68ba C2680000 		.4byte	0x68c2
 16660 68be D5680000 		.4byte	0x68d5
 16661 68c2 68       		.uleb128 0x68
 16662 68c3 382A0000 		.4byte	.LASF844
 16663 68c7 FA620000 		.4byte	0x62fa
 16664 68cb 68       		.uleb128 0x68
 16665 68cc CD570000 		.4byte	.LASF892
 16666 68d0 D5680000 		.4byte	0x68d5
 16667 68d4 00       		.byte	0
 16668 68d5 07       		.uleb128 0x7
 16669 68d6 37000000 		.4byte	0x37
 16670 68da 79       		.uleb128 0x79
 16671 68db B4680000 		.4byte	0x68b4
 16672 68df A55C0000 		.4byte	.LASF900
 16673 68e3 00000000 		.4byte	.LFB680
 16674 68e7 30000000 		.4byte	.LFE680-.LFB680
 16675 68eb 01       		.uleb128 0x1
 16676 68ec 9C       		.byte	0x9c
 16677 68ed F5680000 		.4byte	0x68f5
 16678 68f1 FE680000 		.4byte	0x68fe
 16679 68f5 6A       		.uleb128 0x6a
 16680 68f6 C2680000 		.4byte	0x68c2
 16681 68fa 02       		.uleb128 0x2
 16682 68fb 91       		.byte	0x91
 16683 68fc 74       		.sleb128 -12
 16684 68fd 00       		.byte	0
 16685 68fe 79       		.uleb128 0x79
 16686 68ff B4680000 		.4byte	0x68b4
 16687 6903 E7460000 		.4byte	.LASF901
 16688 6907 00000000 		.4byte	.LFB682
 16689 690b 1C000000 		.4byte	.LFE682-.LFB682
 16690 690f 01       		.uleb128 0x1
 16691 6910 9C       		.byte	0x9c
 16692 6911 19690000 		.4byte	0x6919
 16693 6915 22690000 		.4byte	0x6922
 16694 6919 6A       		.uleb128 0x6a
 16695 691a C2680000 		.4byte	0x68c2
 16696 691e 02       		.uleb128 0x2
 16697 691f 91       		.byte	0x91
 16698 6920 74       		.sleb128 -12
 16699 6921 00       		.byte	0
 16700 6922 76       		.uleb128 0x76
 16701 6923 734A0000 		.4byte	0x4a73
 16702 6927 02       		.byte	0x2
 16703 6928 30690000 		.4byte	0x6930
 16704 692c 43690000 		.4byte	0x6943
 16705 6930 68       		.uleb128 0x68
 16706 6931 382A0000 		.4byte	.LASF844
 16707 6935 63620000 		.4byte	0x6263
 16708 6939 68       		.uleb128 0x68
 16709 693a CD570000 		.4byte	.LASF892
 16710 693e 43690000 		.4byte	0x6943
 16711 6942 00       		.byte	0
ARM GAS  /tmp/ccypRU8x.s 			page 297


 16712 6943 07       		.uleb128 0x7
 16713 6944 37000000 		.4byte	0x37
 16714 6948 79       		.uleb128 0x79
 16715 6949 22690000 		.4byte	0x6922
 16716 694d F6370000 		.4byte	.LASF902
 16717 6951 00000000 		.4byte	.LFB684
 16718 6955 30000000 		.4byte	.LFE684-.LFB684
 16719 6959 01       		.uleb128 0x1
 16720 695a 9C       		.byte	0x9c
 16721 695b 63690000 		.4byte	0x6963
 16722 695f 6C690000 		.4byte	0x696c
 16723 6963 6A       		.uleb128 0x6a
 16724 6964 30690000 		.4byte	0x6930
 16725 6968 02       		.uleb128 0x2
 16726 6969 91       		.byte	0x91
 16727 696a 74       		.sleb128 -12
 16728 696b 00       		.byte	0
 16729 696c 79       		.uleb128 0x79
 16730 696d 22690000 		.4byte	0x6922
 16731 6971 16460000 		.4byte	.LASF903
 16732 6975 00000000 		.4byte	.LFB686
 16733 6979 1C000000 		.4byte	.LFE686-.LFB686
 16734 697d 01       		.uleb128 0x1
 16735 697e 9C       		.byte	0x9c
 16736 697f 87690000 		.4byte	0x6987
 16737 6983 90690000 		.4byte	0x6990
 16738 6987 6A       		.uleb128 0x6a
 16739 6988 30690000 		.4byte	0x6930
 16740 698c 02       		.uleb128 0x2
 16741 698d 91       		.byte	0x91
 16742 698e 74       		.sleb128 -12
 16743 698f 00       		.byte	0
 16744 6990 76       		.uleb128 0x76
 16745 6991 944C0000 		.4byte	0x4c94
 16746 6995 02       		.byte	0x2
 16747 6996 9E690000 		.4byte	0x699e
 16748 699a B1690000 		.4byte	0x69b1
 16749 699e 68       		.uleb128 0x68
 16750 699f 382A0000 		.4byte	.LASF844
 16751 69a3 D4610000 		.4byte	0x61d4
 16752 69a7 68       		.uleb128 0x68
 16753 69a8 CD570000 		.4byte	.LASF892
 16754 69ac B1690000 		.4byte	0x69b1
 16755 69b0 00       		.byte	0
 16756 69b1 07       		.uleb128 0x7
 16757 69b2 37000000 		.4byte	0x37
 16758 69b6 79       		.uleb128 0x79
 16759 69b7 90690000 		.4byte	0x6990
 16760 69bb 08600000 		.4byte	.LASF904
 16761 69bf 00000000 		.4byte	.LFB688
 16762 69c3 30000000 		.4byte	.LFE688-.LFB688
 16763 69c7 01       		.uleb128 0x1
 16764 69c8 9C       		.byte	0x9c
 16765 69c9 D1690000 		.4byte	0x69d1
 16766 69cd DA690000 		.4byte	0x69da
 16767 69d1 6A       		.uleb128 0x6a
 16768 69d2 9E690000 		.4byte	0x699e
ARM GAS  /tmp/ccypRU8x.s 			page 298


 16769 69d6 02       		.uleb128 0x2
 16770 69d7 91       		.byte	0x91
 16771 69d8 74       		.sleb128 -12
 16772 69d9 00       		.byte	0
 16773 69da 79       		.uleb128 0x79
 16774 69db 90690000 		.4byte	0x6990
 16775 69df BD490000 		.4byte	.LASF905
 16776 69e3 00000000 		.4byte	.LFB690
 16777 69e7 1C000000 		.4byte	.LFE690-.LFB690
 16778 69eb 01       		.uleb128 0x1
 16779 69ec 9C       		.byte	0x9c
 16780 69ed F5690000 		.4byte	0x69f5
 16781 69f1 FE690000 		.4byte	0x69fe
 16782 69f5 6A       		.uleb128 0x6a
 16783 69f6 9E690000 		.4byte	0x699e
 16784 69fa 02       		.uleb128 0x2
 16785 69fb 91       		.byte	0x91
 16786 69fc 74       		.sleb128 -12
 16787 69fd 00       		.byte	0
 16788 69fe 76       		.uleb128 0x76
 16789 69ff 774F0000 		.4byte	0x4f77
 16790 6a03 02       		.byte	0x2
 16791 6a04 0C6A0000 		.4byte	0x6a0c
 16792 6a08 1F6A0000 		.4byte	0x6a1f
 16793 6a0c 68       		.uleb128 0x68
 16794 6a0d 382A0000 		.4byte	.LASF844
 16795 6a11 93610000 		.4byte	0x6193
 16796 6a15 68       		.uleb128 0x68
 16797 6a16 CD570000 		.4byte	.LASF892
 16798 6a1a 1F6A0000 		.4byte	0x6a1f
 16799 6a1e 00       		.byte	0
 16800 6a1f 07       		.uleb128 0x7
 16801 6a20 37000000 		.4byte	0x37
 16802 6a24 79       		.uleb128 0x79
 16803 6a25 FE690000 		.4byte	0x69fe
 16804 6a29 00390000 		.4byte	.LASF906
 16805 6a2d 00000000 		.4byte	.LFB692
 16806 6a31 30000000 		.4byte	.LFE692-.LFB692
 16807 6a35 01       		.uleb128 0x1
 16808 6a36 9C       		.byte	0x9c
 16809 6a37 3F6A0000 		.4byte	0x6a3f
 16810 6a3b 486A0000 		.4byte	0x6a48
 16811 6a3f 6A       		.uleb128 0x6a
 16812 6a40 0C6A0000 		.4byte	0x6a0c
 16813 6a44 02       		.uleb128 0x2
 16814 6a45 91       		.byte	0x91
 16815 6a46 74       		.sleb128 -12
 16816 6a47 00       		.byte	0
 16817 6a48 79       		.uleb128 0x79
 16818 6a49 FE690000 		.4byte	0x69fe
 16819 6a4d 8E540000 		.4byte	.LASF907
 16820 6a51 00000000 		.4byte	.LFB694
 16821 6a55 1C000000 		.4byte	.LFE694-.LFB694
 16822 6a59 01       		.uleb128 0x1
 16823 6a5a 9C       		.byte	0x9c
 16824 6a5b 636A0000 		.4byte	0x6a63
 16825 6a5f 6C6A0000 		.4byte	0x6a6c
ARM GAS  /tmp/ccypRU8x.s 			page 299


 16826 6a63 6A       		.uleb128 0x6a
 16827 6a64 0C6A0000 		.4byte	0x6a0c
 16828 6a68 02       		.uleb128 0x2
 16829 6a69 91       		.byte	0x91
 16830 6a6a 74       		.sleb128 -12
 16831 6a6b 00       		.byte	0
 16832 6a6c 7D       		.uleb128 0x7d
 16833 6a6d F53A0000 		.4byte	.LASF943
 16834 6a71 00000000 		.4byte	.LFB695
 16835 6a75 0E000000 		.4byte	.LFE695-.LFB695
 16836 6a79 01       		.uleb128 0x1
 16837 6a7a 9C       		.byte	0x9c
 16838 6a7b 7E       		.uleb128 0x7e
 16839 6a7c E9110000 		.4byte	.LASF908
 16840 6a80 1D       		.byte	0x1d
 16841 6a81 6F       		.byte	0x6f
 16842 6a82 1C050000 		.4byte	0x51c
 16843 6a86 7F       		.uleb128 0x7f
 16844 6a87 99510000 		.4byte	.LASF909
 16845 6a8b 33       		.byte	0x33
 16846 6a8c 9806     		.2byte	0x698
 16847 6a8e 13080000 		.4byte	0x813
 16848 6a92 7E       		.uleb128 0x7e
 16849 6a93 B9190000 		.4byte	.LASF910
 16850 6a97 34       		.byte	0x34
 16851 6a98 14       		.byte	0x14
 16852 6a99 BC0E0000 		.4byte	0xebc
 16853 6a9d 7E       		.uleb128 0x7e
 16854 6a9e F3160000 		.4byte	.LASF911
 16855 6aa2 34       		.byte	0x34
 16856 6aa3 15       		.byte	0x15
 16857 6aa4 520E0000 		.4byte	0xe52
 16858 6aa8 7E       		.uleb128 0x7e
 16859 6aa9 C41D0000 		.4byte	.LASF912
 16860 6aad 34       		.byte	0x34
 16861 6aae 16       		.byte	0x16
 16862 6aaf 720F0000 		.4byte	0xf72
 16863 6ab3 8001     		.uleb128 0x80
 16864 6ab5 59190000 		.4byte	.LASF913
 16865 6ab9 0F       		.byte	0xf
 16866 6aba 0F       		.byte	0xf
 16867 6abb DE410000 		.4byte	0x41de
 16868 6abf 05       		.uleb128 0x5
 16869 6ac0 03       		.byte	0x3
 16870 6ac1 00000000 		.4byte	vel_node
 16871 6ac5 8001     		.uleb128 0x80
 16872 6ac7 D4140000 		.4byte	.LASF914
 16873 6acb 0F       		.byte	0xf
 16874 6acc 10       		.byte	0x10
 16875 6acd C04E0000 		.4byte	0x4ec0
 16876 6ad1 05       		.uleb128 0x5
 16877 6ad2 03       		.byte	0x3
 16878 6ad3 00000000 		.4byte	vel_pub
 16879 6ad7 8001     		.uleb128 0x80
 16880 6ad9 A71A0000 		.4byte	.LASF915
 16881 6add 0F       		.byte	0xf
 16882 6ade 11       		.byte	0x11
ARM GAS  /tmp/ccypRU8x.s 			page 300


 16883 6adf 2D010000 		.4byte	0x12d
 16884 6ae3 05       		.uleb128 0x5
 16885 6ae4 03       		.byte	0x3
 16886 6ae5 00000000 		.4byte	speed_first_time
 16887 6ae9 8001     		.uleb128 0x80
 16888 6aeb 972B0000 		.4byte	.LASF916
 16889 6aef 0F       		.byte	0xf
 16890 6af0 13       		.byte	0x13
 16891 6af1 DE410000 		.4byte	0x41de
 16892 6af5 05       		.uleb128 0x5
 16893 6af6 03       		.byte	0x3
 16894 6af7 00000000 		.4byte	pidcfg_node
 16895 6afb 8001     		.uleb128 0x80
 16896 6afd FB140000 		.4byte	.LASF917
 16897 6b01 0F       		.byte	0xf
 16898 6b02 14       		.byte	0x14
 16899 6b03 DD4B0000 		.4byte	0x4bdd
 16900 6b07 05       		.uleb128 0x5
 16901 6b08 03       		.byte	0x3
 16902 6b09 00000000 		.4byte	pidcfg_pub
 16903 6b0d 8001     		.uleb128 0x80
 16904 6b0f E8290000 		.4byte	.LASF918
 16905 6b13 0F       		.byte	0xf
 16906 6b14 15       		.byte	0x15
 16907 6b15 2D010000 		.4byte	0x12d
 16908 6b19 05       		.uleb128 0x5
 16909 6b1a 03       		.byte	0x3
 16910 6b1b 00000000 		.4byte	pidcfg_first_time
 16911 6b1f 8001     		.uleb128 0x80
 16912 6b21 740F0000 		.4byte	.LASF919
 16913 6b25 0F       		.byte	0xf
 16914 6b26 17       		.byte	0x17
 16915 6b27 DE410000 		.4byte	0x41de
 16916 6b2b 05       		.uleb128 0x5
 16917 6b2c 03       		.byte	0x3
 16918 6b2d 00000000 		.4byte	pixy_node
 16919 6b31 8001     		.uleb128 0x80
 16920 6b33 30430000 		.4byte	.LASF920
 16921 6b37 0F       		.byte	0xf
 16922 6b38 18       		.byte	0x18
 16923 6b39 FC490000 		.4byte	0x49fc
 16924 6b3d 05       		.uleb128 0x5
 16925 6b3e 03       		.byte	0x3
 16926 6b3f 00000000 		.4byte	pixy_sub
 16927 6b43 8001     		.uleb128 0x80
 16928 6b45 AF030000 		.4byte	.LASF921
 16929 6b49 0F       		.byte	0xf
 16930 6b4a 19       		.byte	0x19
 16931 6b4b 2D010000 		.4byte	0x12d
 16932 6b4f 05       		.uleb128 0x5
 16933 6b50 03       		.byte	0x3
 16934 6b51 00000000 		.4byte	pixy_first_time
 16935 6b55 17       		.uleb128 0x17
 16936 6b56 37000000 		.4byte	0x37
 16937 6b5a 656B0000 		.4byte	0x6b65
 16938 6b5e 18       		.uleb128 0x18
 16939 6b5f B8000000 		.4byte	0xb8
ARM GAS  /tmp/ccypRU8x.s 			page 301


 16940 6b63 07       		.byte	0x7
 16941 6b64 00       		.byte	0
 16942 6b65 8001     		.uleb128 0x80
 16943 6b67 88510000 		.4byte	.LASF922
 16944 6b6b 0F       		.byte	0xf
 16945 6b6c 1E       		.byte	0x1e
 16946 6b6d 556B0000 		.4byte	0x6b55
 16947 6b71 05       		.uleb128 0x5
 16948 6b72 03       		.byte	0x3
 16949 6b73 00000000 		.4byte	proximity_values
 16950 6b77 8001     		.uleb128 0x80
 16951 6b79 E83B0000 		.4byte	.LASF923
 16952 6b7d 0F       		.byte	0xf
 16953 6b7e 29       		.byte	0x29
 16954 6b7f DE410000 		.4byte	0x41de
 16955 6b83 05       		.uleb128 0x5
 16956 6b84 03       		.byte	0x3
 16957 6b85 00000000 		.4byte	proximity_node
 16958 6b89 8001     		.uleb128 0x80
 16959 6b8b 4A450000 		.4byte	.LASF924
 16960 6b8f 0F       		.byte	0xf
 16961 6b90 2B       		.byte	0x2b
 16962 6b91 1B480000 		.4byte	0x481b
 16963 6b95 05       		.uleb128 0x5
 16964 6b96 03       		.byte	0x3
 16965 6b97 00000000 		.4byte	proximity_sub
 16966 6b9b 8001     		.uleb128 0x80
 16967 6b9d CE1D0000 		.4byte	.LASF925
 16968 6ba1 0F       		.byte	0xf
 16969 6ba2 2C       		.byte	0x2c
 16970 6ba3 2D010000 		.4byte	0x12d
 16971 6ba7 05       		.uleb128 0x5
 16972 6ba8 03       		.byte	0x3
 16973 6ba9 00000000 		.4byte	proxy_first_time
 16974 6bad 8001     		.uleb128 0x80
 16975 6baf 3A420000 		.4byte	.LASF926
 16976 6bb3 0F       		.byte	0xf
 16977 6bb4 2E       		.byte	0x2e
 16978 6bb5 53100000 		.4byte	0x1053
 16979 6bb9 05       		.uleb128 0x5
 16980 6bba 03       		.byte	0x3
 16981 6bbb 00000000 		.4byte	serialp
 16982 6bbf 8001     		.uleb128 0x80
 16983 6bc1 3E1C0000 		.4byte	.LASF927
 16984 6bc5 0F       		.byte	0xf
 16985 6bc6 2F       		.byte	0x2f
 16986 6bc7 2D010000 		.4byte	0x12d
 16987 6bcb 05       		.uleb128 0x5
 16988 6bcc 03       		.byte	0x3
 16989 6bcd 00000000 		.4byte	stream_enc
 16990 6bd1 17       		.uleb128 0x17
 16991 6bd2 84100000 		.4byte	0x1084
 16992 6bd6 E16B0000 		.4byte	0x6be1
 16993 6bda 18       		.uleb128 0x18
 16994 6bdb B8000000 		.4byte	0xb8
 16995 6bdf 07       		.byte	0x7
 16996 6be0 00       		.byte	0
ARM GAS  /tmp/ccypRU8x.s 			page 302


 16997 6be1 70       		.uleb128 0x70
 16998 6be2 34090000 		.4byte	.LASF928
 16999 6be6 0F       		.byte	0xf
 17000 6be7 AD01     		.2byte	0x1ad
 17001 6be9 F36B0000 		.4byte	0x6bf3
 17002 6bed 05       		.uleb128 0x5
 17003 6bee 03       		.byte	0x3
 17004 6bef 00000000 		.4byte	_ZL8commands
 17005 6bf3 07       		.uleb128 0x7
 17006 6bf4 D16B0000 		.4byte	0x6bd1
 17007 6bf8 70       		.uleb128 0x70
 17008 6bf9 FF480000 		.4byte	.LASF929
 17009 6bfd 0F       		.byte	0xf
 17010 6bfe B101     		.2byte	0x1b1
 17011 6c00 0A6C0000 		.4byte	0x6c0a
 17012 6c04 05       		.uleb128 0x5
 17013 6c05 03       		.byte	0x3
 17014 6c06 00000000 		.4byte	_ZL13usb_shell_cfg
 17015 6c0a 07       		.uleb128 0x7
 17016 6c0b BF100000 		.4byte	0x10bf
 17017 6c0f 8101     		.uleb128 0x81
 17018 6c11 94240000 		.4byte	.LASF930
 17019 6c15 BF000000 		.4byte	0xbf
 17020 6c19 00       		.byte	0
 17021              		.section	.debug_abbrev,"",%progbits
 17022              	.Ldebug_abbrev0:
 17023 0000 01       		.uleb128 0x1
 17024 0001 11       		.uleb128 0x11
 17025 0002 01       		.byte	0x1
 17026 0003 25       		.uleb128 0x25
 17027 0004 0E       		.uleb128 0xe
 17028 0005 13       		.uleb128 0x13
 17029 0006 0B       		.uleb128 0xb
 17030 0007 03       		.uleb128 0x3
 17031 0008 0E       		.uleb128 0xe
 17032 0009 1B       		.uleb128 0x1b
 17033 000a 0E       		.uleb128 0xe
 17034 000b 55       		.uleb128 0x55
 17035 000c 17       		.uleb128 0x17
 17036 000d 11       		.uleb128 0x11
 17037 000e 01       		.uleb128 0x1
 17038 000f 10       		.uleb128 0x10
 17039 0010 17       		.uleb128 0x17
 17040 0011 00       		.byte	0
 17041 0012 00       		.byte	0
 17042 0013 02       		.uleb128 0x2
 17043 0014 16       		.uleb128 0x16
 17044 0015 00       		.byte	0
 17045 0016 03       		.uleb128 0x3
 17046 0017 0E       		.uleb128 0xe
 17047 0018 3A       		.uleb128 0x3a
 17048 0019 0B       		.uleb128 0xb
 17049 001a 3B       		.uleb128 0x3b
 17050 001b 0B       		.uleb128 0xb
 17051 001c 49       		.uleb128 0x49
 17052 001d 13       		.uleb128 0x13
 17053 001e 00       		.byte	0
ARM GAS  /tmp/ccypRU8x.s 			page 303


 17054 001f 00       		.byte	0
 17055 0020 03       		.uleb128 0x3
 17056 0021 24       		.uleb128 0x24
 17057 0022 00       		.byte	0
 17058 0023 0B       		.uleb128 0xb
 17059 0024 0B       		.uleb128 0xb
 17060 0025 3E       		.uleb128 0x3e
 17061 0026 0B       		.uleb128 0xb
 17062 0027 03       		.uleb128 0x3
 17063 0028 0E       		.uleb128 0xe
 17064 0029 00       		.byte	0
 17065 002a 00       		.byte	0
 17066 002b 04       		.uleb128 0x4
 17067 002c 24       		.uleb128 0x24
 17068 002d 00       		.byte	0
 17069 002e 0B       		.uleb128 0xb
 17070 002f 0B       		.uleb128 0xb
 17071 0030 3E       		.uleb128 0x3e
 17072 0031 0B       		.uleb128 0xb
 17073 0032 03       		.uleb128 0x3
 17074 0033 08       		.uleb128 0x8
 17075 0034 00       		.byte	0
 17076 0035 00       		.byte	0
 17077 0036 05       		.uleb128 0x5
 17078 0037 0F       		.uleb128 0xf
 17079 0038 00       		.byte	0
 17080 0039 0B       		.uleb128 0xb
 17081 003a 0B       		.uleb128 0xb
 17082 003b 00       		.byte	0
 17083 003c 00       		.byte	0
 17084 003d 06       		.uleb128 0x6
 17085 003e 0F       		.uleb128 0xf
 17086 003f 00       		.byte	0
 17087 0040 0B       		.uleb128 0xb
 17088 0041 0B       		.uleb128 0xb
 17089 0042 49       		.uleb128 0x49
 17090 0043 13       		.uleb128 0x13
 17091 0044 00       		.byte	0
 17092 0045 00       		.byte	0
 17093 0046 07       		.uleb128 0x7
 17094 0047 26       		.uleb128 0x26
 17095 0048 00       		.byte	0
 17096 0049 49       		.uleb128 0x49
 17097 004a 13       		.uleb128 0x13
 17098 004b 00       		.byte	0
 17099 004c 00       		.byte	0
 17100 004d 08       		.uleb128 0x8
 17101 004e 26       		.uleb128 0x26
 17102 004f 00       		.byte	0
 17103 0050 00       		.byte	0
 17104 0051 00       		.byte	0
 17105 0052 09       		.uleb128 0x9
 17106 0053 13       		.uleb128 0x13
 17107 0054 01       		.byte	0x1
 17108 0055 03       		.uleb128 0x3
 17109 0056 0E       		.uleb128 0xe
 17110 0057 0B       		.uleb128 0xb
ARM GAS  /tmp/ccypRU8x.s 			page 304


 17111 0058 0B       		.uleb128 0xb
 17112 0059 3A       		.uleb128 0x3a
 17113 005a 0B       		.uleb128 0xb
 17114 005b 3B       		.uleb128 0x3b
 17115 005c 0B       		.uleb128 0xb
 17116 005d 01       		.uleb128 0x1
 17117 005e 13       		.uleb128 0x13
 17118 005f 00       		.byte	0
 17119 0060 00       		.byte	0
 17120 0061 0A       		.uleb128 0xa
 17121 0062 17       		.uleb128 0x17
 17122 0063 01       		.byte	0x1
 17123 0064 0B       		.uleb128 0xb
 17124 0065 0B       		.uleb128 0xb
 17125 0066 3A       		.uleb128 0x3a
 17126 0067 0B       		.uleb128 0xb
 17127 0068 3B       		.uleb128 0x3b
 17128 0069 0B       		.uleb128 0xb
 17129 006a 01       		.uleb128 0x1
 17130 006b 13       		.uleb128 0x13
 17131 006c 00       		.byte	0
 17132 006d 00       		.byte	0
 17133 006e 0B       		.uleb128 0xb
 17134 006f 0D       		.uleb128 0xd
 17135 0070 00       		.byte	0
 17136 0071 03       		.uleb128 0x3
 17137 0072 0E       		.uleb128 0xe
 17138 0073 3A       		.uleb128 0x3a
 17139 0074 0B       		.uleb128 0xb
 17140 0075 3B       		.uleb128 0x3b
 17141 0076 0B       		.uleb128 0xb
 17142 0077 49       		.uleb128 0x49
 17143 0078 13       		.uleb128 0x13
 17144 0079 00       		.byte	0
 17145 007a 00       		.byte	0
 17146 007b 0C       		.uleb128 0xc
 17147 007c 0D       		.uleb128 0xd
 17148 007d 00       		.byte	0
 17149 007e 03       		.uleb128 0x3
 17150 007f 0E       		.uleb128 0xe
 17151 0080 3A       		.uleb128 0x3a
 17152 0081 0B       		.uleb128 0xb
 17153 0082 3B       		.uleb128 0x3b
 17154 0083 0B       		.uleb128 0xb
 17155 0084 49       		.uleb128 0x49
 17156 0085 13       		.uleb128 0x13
 17157 0086 38       		.uleb128 0x38
 17158 0087 0B       		.uleb128 0xb
 17159 0088 00       		.byte	0
 17160 0089 00       		.byte	0
 17161 008a 0D       		.uleb128 0xd
 17162 008b 0D       		.uleb128 0xd
 17163 008c 00       		.byte	0
 17164 008d 03       		.uleb128 0x3
 17165 008e 08       		.uleb128 0x8
 17166 008f 3A       		.uleb128 0x3a
 17167 0090 0B       		.uleb128 0xb
ARM GAS  /tmp/ccypRU8x.s 			page 305


 17168 0091 3B       		.uleb128 0x3b
 17169 0092 0B       		.uleb128 0xb
 17170 0093 49       		.uleb128 0x49
 17171 0094 13       		.uleb128 0x13
 17172 0095 38       		.uleb128 0x38
 17173 0096 0B       		.uleb128 0xb
 17174 0097 00       		.byte	0
 17175 0098 00       		.byte	0
 17176 0099 0E       		.uleb128 0xe
 17177 009a 13       		.uleb128 0x13
 17178 009b 01       		.byte	0x1
 17179 009c 0B       		.uleb128 0xb
 17180 009d 0B       		.uleb128 0xb
 17181 009e 3A       		.uleb128 0x3a
 17182 009f 0B       		.uleb128 0xb
 17183 00a0 3B       		.uleb128 0x3b
 17184 00a1 0B       		.uleb128 0xb
 17185 00a2 6E       		.uleb128 0x6e
 17186 00a3 0E       		.uleb128 0xe
 17187 00a4 01       		.uleb128 0x1
 17188 00a5 13       		.uleb128 0x13
 17189 00a6 00       		.byte	0
 17190 00a7 00       		.byte	0
 17191 00a8 0F       		.uleb128 0xf
 17192 00a9 13       		.uleb128 0x13
 17193 00aa 01       		.byte	0x1
 17194 00ab 03       		.uleb128 0x3
 17195 00ac 0E       		.uleb128 0xe
 17196 00ad 0B       		.uleb128 0xb
 17197 00ae 0B       		.uleb128 0xb
 17198 00af 3A       		.uleb128 0x3a
 17199 00b0 0B       		.uleb128 0xb
 17200 00b1 3B       		.uleb128 0x3b
 17201 00b2 05       		.uleb128 0x5
 17202 00b3 01       		.uleb128 0x1
 17203 00b4 13       		.uleb128 0x13
 17204 00b5 00       		.byte	0
 17205 00b6 00       		.byte	0
 17206 00b7 10       		.uleb128 0x10
 17207 00b8 0D       		.uleb128 0xd
 17208 00b9 00       		.byte	0
 17209 00ba 03       		.uleb128 0x3
 17210 00bb 08       		.uleb128 0x8
 17211 00bc 3A       		.uleb128 0x3a
 17212 00bd 0B       		.uleb128 0xb
 17213 00be 3B       		.uleb128 0x3b
 17214 00bf 05       		.uleb128 0x5
 17215 00c0 49       		.uleb128 0x49
 17216 00c1 13       		.uleb128 0x13
 17217 00c2 38       		.uleb128 0x38
 17218 00c3 0B       		.uleb128 0xb
 17219 00c4 00       		.byte	0
 17220 00c5 00       		.byte	0
 17221 00c6 11       		.uleb128 0x11
 17222 00c7 35       		.uleb128 0x35
 17223 00c8 00       		.byte	0
 17224 00c9 49       		.uleb128 0x49
ARM GAS  /tmp/ccypRU8x.s 			page 306


 17225 00ca 13       		.uleb128 0x13
 17226 00cb 00       		.byte	0
 17227 00cc 00       		.byte	0
 17228 00cd 12       		.uleb128 0x12
 17229 00ce 15       		.uleb128 0x15
 17230 00cf 01       		.byte	0x1
 17231 00d0 49       		.uleb128 0x49
 17232 00d1 13       		.uleb128 0x13
 17233 00d2 01       		.uleb128 0x1
 17234 00d3 13       		.uleb128 0x13
 17235 00d4 00       		.byte	0
 17236 00d5 00       		.byte	0
 17237 00d6 13       		.uleb128 0x13
 17238 00d7 05       		.uleb128 0x5
 17239 00d8 00       		.byte	0
 17240 00d9 49       		.uleb128 0x49
 17241 00da 13       		.uleb128 0x13
 17242 00db 00       		.byte	0
 17243 00dc 00       		.byte	0
 17244 00dd 14       		.uleb128 0x14
 17245 00de 15       		.uleb128 0x15
 17246 00df 01       		.byte	0x1
 17247 00e0 01       		.uleb128 0x1
 17248 00e1 13       		.uleb128 0x13
 17249 00e2 00       		.byte	0
 17250 00e3 00       		.byte	0
 17251 00e4 15       		.uleb128 0x15
 17252 00e5 13       		.uleb128 0x13
 17253 00e6 01       		.byte	0x1
 17254 00e7 0B       		.uleb128 0xb
 17255 00e8 0B       		.uleb128 0xb
 17256 00e9 3A       		.uleb128 0x3a
 17257 00ea 0B       		.uleb128 0xb
 17258 00eb 3B       		.uleb128 0x3b
 17259 00ec 0B       		.uleb128 0xb
 17260 00ed 01       		.uleb128 0x1
 17261 00ee 13       		.uleb128 0x13
 17262 00ef 00       		.byte	0
 17263 00f0 00       		.byte	0
 17264 00f1 16       		.uleb128 0x16
 17265 00f2 0D       		.uleb128 0xd
 17266 00f3 00       		.byte	0
 17267 00f4 03       		.uleb128 0x3
 17268 00f5 08       		.uleb128 0x8
 17269 00f6 3A       		.uleb128 0x3a
 17270 00f7 0B       		.uleb128 0xb
 17271 00f8 3B       		.uleb128 0x3b
 17272 00f9 0B       		.uleb128 0xb
 17273 00fa 49       		.uleb128 0x49
 17274 00fb 13       		.uleb128 0x13
 17275 00fc 00       		.byte	0
 17276 00fd 00       		.byte	0
 17277 00fe 17       		.uleb128 0x17
 17278 00ff 01       		.uleb128 0x1
 17279 0100 01       		.byte	0x1
 17280 0101 49       		.uleb128 0x49
 17281 0102 13       		.uleb128 0x13
ARM GAS  /tmp/ccypRU8x.s 			page 307


 17282 0103 01       		.uleb128 0x1
 17283 0104 13       		.uleb128 0x13
 17284 0105 00       		.byte	0
 17285 0106 00       		.byte	0
 17286 0107 18       		.uleb128 0x18
 17287 0108 21       		.uleb128 0x21
 17288 0109 00       		.byte	0
 17289 010a 49       		.uleb128 0x49
 17290 010b 13       		.uleb128 0x13
 17291 010c 2F       		.uleb128 0x2f
 17292 010d 0B       		.uleb128 0xb
 17293 010e 00       		.byte	0
 17294 010f 00       		.byte	0
 17295 0110 19       		.uleb128 0x19
 17296 0111 0D       		.uleb128 0xd
 17297 0112 00       		.byte	0
 17298 0113 03       		.uleb128 0x3
 17299 0114 0E       		.uleb128 0xe
 17300 0115 3A       		.uleb128 0x3a
 17301 0116 0B       		.uleb128 0xb
 17302 0117 3B       		.uleb128 0x3b
 17303 0118 05       		.uleb128 0x5
 17304 0119 49       		.uleb128 0x49
 17305 011a 13       		.uleb128 0x13
 17306 011b 38       		.uleb128 0x38
 17307 011c 0B       		.uleb128 0xb
 17308 011d 00       		.byte	0
 17309 011e 00       		.byte	0
 17310 011f 1A       		.uleb128 0x1a
 17311 0120 04       		.uleb128 0x4
 17312 0121 01       		.byte	0x1
 17313 0122 0B       		.uleb128 0xb
 17314 0123 0B       		.uleb128 0xb
 17315 0124 3A       		.uleb128 0x3a
 17316 0125 0B       		.uleb128 0xb
 17317 0126 3B       		.uleb128 0x3b
 17318 0127 0B       		.uleb128 0xb
 17319 0128 6E       		.uleb128 0x6e
 17320 0129 0E       		.uleb128 0xe
 17321 012a 01       		.uleb128 0x1
 17322 012b 13       		.uleb128 0x13
 17323 012c 00       		.byte	0
 17324 012d 00       		.byte	0
 17325 012e 1B       		.uleb128 0x1b
 17326 012f 28       		.uleb128 0x28
 17327 0130 00       		.byte	0
 17328 0131 03       		.uleb128 0x3
 17329 0132 0E       		.uleb128 0xe
 17330 0133 1C       		.uleb128 0x1c
 17331 0134 0D       		.uleb128 0xd
 17332 0135 00       		.byte	0
 17333 0136 00       		.byte	0
 17334 0137 1C       		.uleb128 0x1c
 17335 0138 04       		.uleb128 0x4
 17336 0139 01       		.byte	0x1
 17337 013a 0B       		.uleb128 0xb
 17338 013b 0B       		.uleb128 0xb
ARM GAS  /tmp/ccypRU8x.s 			page 308


 17339 013c 3A       		.uleb128 0x3a
 17340 013d 0B       		.uleb128 0xb
 17341 013e 3B       		.uleb128 0x3b
 17342 013f 05       		.uleb128 0x5
 17343 0140 6E       		.uleb128 0x6e
 17344 0141 0E       		.uleb128 0xe
 17345 0142 01       		.uleb128 0x1
 17346 0143 13       		.uleb128 0x13
 17347 0144 00       		.byte	0
 17348 0145 00       		.byte	0
 17349 0146 1D       		.uleb128 0x1d
 17350 0147 16       		.uleb128 0x16
 17351 0148 00       		.byte	0
 17352 0149 03       		.uleb128 0x3
 17353 014a 0E       		.uleb128 0xe
 17354 014b 3A       		.uleb128 0x3a
 17355 014c 0B       		.uleb128 0xb
 17356 014d 3B       		.uleb128 0x3b
 17357 014e 05       		.uleb128 0x5
 17358 014f 49       		.uleb128 0x49
 17359 0150 13       		.uleb128 0x13
 17360 0151 00       		.byte	0
 17361 0152 00       		.byte	0
 17362 0153 1E       		.uleb128 0x1e
 17363 0154 13       		.uleb128 0x13
 17364 0155 01       		.byte	0x1
 17365 0156 0B       		.uleb128 0xb
 17366 0157 0B       		.uleb128 0xb
 17367 0158 3A       		.uleb128 0x3a
 17368 0159 0B       		.uleb128 0xb
 17369 015a 3B       		.uleb128 0x3b
 17370 015b 05       		.uleb128 0x5
 17371 015c 6E       		.uleb128 0x6e
 17372 015d 0E       		.uleb128 0xe
 17373 015e 01       		.uleb128 0x1
 17374 015f 13       		.uleb128 0x13
 17375 0160 00       		.byte	0
 17376 0161 00       		.byte	0
 17377 0162 1F       		.uleb128 0x1f
 17378 0163 13       		.uleb128 0x13
 17379 0164 01       		.byte	0x1
 17380 0165 03       		.uleb128 0x3
 17381 0166 0E       		.uleb128 0xe
 17382 0167 0B       		.uleb128 0xb
 17383 0168 05       		.uleb128 0x5
 17384 0169 3A       		.uleb128 0x3a
 17385 016a 0B       		.uleb128 0xb
 17386 016b 3B       		.uleb128 0x3b
 17387 016c 0B       		.uleb128 0xb
 17388 016d 01       		.uleb128 0x1
 17389 016e 13       		.uleb128 0x13
 17390 016f 00       		.byte	0
 17391 0170 00       		.byte	0
 17392 0171 20       		.uleb128 0x20
 17393 0172 0D       		.uleb128 0xd
 17394 0173 00       		.byte	0
 17395 0174 03       		.uleb128 0x3
ARM GAS  /tmp/ccypRU8x.s 			page 309


 17396 0175 08       		.uleb128 0x8
 17397 0176 3A       		.uleb128 0x3a
 17398 0177 0B       		.uleb128 0xb
 17399 0178 3B       		.uleb128 0x3b
 17400 0179 0B       		.uleb128 0xb
 17401 017a 49       		.uleb128 0x49
 17402 017b 13       		.uleb128 0x13
 17403 017c 38       		.uleb128 0x38
 17404 017d 05       		.uleb128 0x5
 17405 017e 00       		.byte	0
 17406 017f 00       		.byte	0
 17407 0180 21       		.uleb128 0x21
 17408 0181 0D       		.uleb128 0xd
 17409 0182 00       		.byte	0
 17410 0183 03       		.uleb128 0x3
 17411 0184 0E       		.uleb128 0xe
 17412 0185 3A       		.uleb128 0x3a
 17413 0186 0B       		.uleb128 0xb
 17414 0187 3B       		.uleb128 0x3b
 17415 0188 0B       		.uleb128 0xb
 17416 0189 49       		.uleb128 0x49
 17417 018a 13       		.uleb128 0x13
 17418 018b 38       		.uleb128 0x38
 17419 018c 05       		.uleb128 0x5
 17420 018d 00       		.byte	0
 17421 018e 00       		.byte	0
 17422 018f 22       		.uleb128 0x22
 17423 0190 0D       		.uleb128 0xd
 17424 0191 00       		.byte	0
 17425 0192 03       		.uleb128 0x3
 17426 0193 0E       		.uleb128 0xe
 17427 0194 49       		.uleb128 0x49
 17428 0195 13       		.uleb128 0x13
 17429 0196 38       		.uleb128 0x38
 17430 0197 0B       		.uleb128 0xb
 17431 0198 34       		.uleb128 0x34
 17432 0199 19       		.uleb128 0x19
 17433 019a 00       		.byte	0
 17434 019b 00       		.byte	0
 17435 019c 23       		.uleb128 0x23
 17436 019d 39       		.uleb128 0x39
 17437 019e 01       		.byte	0x1
 17438 019f 03       		.uleb128 0x3
 17439 01a0 08       		.uleb128 0x8
 17440 01a1 3A       		.uleb128 0x3a
 17441 01a2 0B       		.uleb128 0xb
 17442 01a3 3B       		.uleb128 0x3b
 17443 01a4 0B       		.uleb128 0xb
 17444 01a5 01       		.uleb128 0x1
 17445 01a6 13       		.uleb128 0x13
 17446 01a7 00       		.byte	0
 17447 01a8 00       		.byte	0
 17448 01a9 24       		.uleb128 0x24
 17449 01aa 08       		.uleb128 0x8
 17450 01ab 00       		.byte	0
 17451 01ac 3A       		.uleb128 0x3a
 17452 01ad 0B       		.uleb128 0xb
ARM GAS  /tmp/ccypRU8x.s 			page 310


 17453 01ae 3B       		.uleb128 0x3b
 17454 01af 0B       		.uleb128 0xb
 17455 01b0 18       		.uleb128 0x18
 17456 01b1 13       		.uleb128 0x13
 17457 01b2 00       		.byte	0
 17458 01b3 00       		.byte	0
 17459 01b4 25       		.uleb128 0x25
 17460 01b5 2E       		.uleb128 0x2e
 17461 01b6 01       		.byte	0x1
 17462 01b7 3F       		.uleb128 0x3f
 17463 01b8 19       		.uleb128 0x19
 17464 01b9 03       		.uleb128 0x3
 17465 01ba 0E       		.uleb128 0xe
 17466 01bb 3A       		.uleb128 0x3a
 17467 01bc 0B       		.uleb128 0xb
 17468 01bd 3B       		.uleb128 0x3b
 17469 01be 0B       		.uleb128 0xb
 17470 01bf 49       		.uleb128 0x49
 17471 01c0 13       		.uleb128 0x13
 17472 01c1 3C       		.uleb128 0x3c
 17473 01c2 19       		.uleb128 0x19
 17474 01c3 01       		.uleb128 0x1
 17475 01c4 13       		.uleb128 0x13
 17476 01c5 00       		.byte	0
 17477 01c6 00       		.byte	0
 17478 01c7 26       		.uleb128 0x26
 17479 01c8 02       		.uleb128 0x2
 17480 01c9 01       		.byte	0x1
 17481 01ca 03       		.uleb128 0x3
 17482 01cb 0E       		.uleb128 0xe
 17483 01cc 0B       		.uleb128 0xb
 17484 01cd 0B       		.uleb128 0xb
 17485 01ce 3A       		.uleb128 0x3a
 17486 01cf 0B       		.uleb128 0xb
 17487 01d0 3B       		.uleb128 0x3b
 17488 01d1 0B       		.uleb128 0xb
 17489 01d2 01       		.uleb128 0x1
 17490 01d3 13       		.uleb128 0x13
 17491 01d4 00       		.byte	0
 17492 01d5 00       		.byte	0
 17493 01d6 27       		.uleb128 0x27
 17494 01d7 2E       		.uleb128 0x2e
 17495 01d8 01       		.byte	0x1
 17496 01d9 3F       		.uleb128 0x3f
 17497 01da 19       		.uleb128 0x19
 17498 01db 03       		.uleb128 0x3
 17499 01dc 0E       		.uleb128 0xe
 17500 01dd 3A       		.uleb128 0x3a
 17501 01de 0B       		.uleb128 0xb
 17502 01df 3B       		.uleb128 0x3b
 17503 01e0 0B       		.uleb128 0xb
 17504 01e1 49       		.uleb128 0x49
 17505 01e2 13       		.uleb128 0x13
 17506 01e3 3C       		.uleb128 0x3c
 17507 01e4 19       		.uleb128 0x19
 17508 01e5 64       		.uleb128 0x64
 17509 01e6 13       		.uleb128 0x13
ARM GAS  /tmp/ccypRU8x.s 			page 311


 17510 01e7 01       		.uleb128 0x1
 17511 01e8 13       		.uleb128 0x13
 17512 01e9 00       		.byte	0
 17513 01ea 00       		.byte	0
 17514 01eb 28       		.uleb128 0x28
 17515 01ec 05       		.uleb128 0x5
 17516 01ed 00       		.byte	0
 17517 01ee 49       		.uleb128 0x49
 17518 01ef 13       		.uleb128 0x13
 17519 01f0 34       		.uleb128 0x34
 17520 01f1 19       		.uleb128 0x19
 17521 01f2 00       		.byte	0
 17522 01f3 00       		.byte	0
 17523 01f4 29       		.uleb128 0x29
 17524 01f5 2E       		.uleb128 0x2e
 17525 01f6 01       		.byte	0x1
 17526 01f7 3F       		.uleb128 0x3f
 17527 01f8 19       		.uleb128 0x19
 17528 01f9 03       		.uleb128 0x3
 17529 01fa 0E       		.uleb128 0xe
 17530 01fb 3A       		.uleb128 0x3a
 17531 01fc 0B       		.uleb128 0xb
 17532 01fd 3B       		.uleb128 0x3b
 17533 01fe 0B       		.uleb128 0xb
 17534 01ff 49       		.uleb128 0x49
 17535 0200 13       		.uleb128 0x13
 17536 0201 32       		.uleb128 0x32
 17537 0202 0B       		.uleb128 0xb
 17538 0203 3C       		.uleb128 0x3c
 17539 0204 19       		.uleb128 0x19
 17540 0205 64       		.uleb128 0x64
 17541 0206 13       		.uleb128 0x13
 17542 0207 01       		.uleb128 0x1
 17543 0208 13       		.uleb128 0x13
 17544 0209 00       		.byte	0
 17545 020a 00       		.byte	0
 17546 020b 2A       		.uleb128 0x2a
 17547 020c 2E       		.uleb128 0x2e
 17548 020d 01       		.byte	0x1
 17549 020e 3F       		.uleb128 0x3f
 17550 020f 19       		.uleb128 0x19
 17551 0210 03       		.uleb128 0x3
 17552 0211 0E       		.uleb128 0xe
 17553 0212 3A       		.uleb128 0x3a
 17554 0213 0B       		.uleb128 0xb
 17555 0214 3B       		.uleb128 0x3b
 17556 0215 0B       		.uleb128 0xb
 17557 0216 49       		.uleb128 0x49
 17558 0217 13       		.uleb128 0x13
 17559 0218 32       		.uleb128 0x32
 17560 0219 0B       		.uleb128 0xb
 17561 021a 3C       		.uleb128 0x3c
 17562 021b 19       		.uleb128 0x19
 17563 021c 64       		.uleb128 0x64
 17564 021d 13       		.uleb128 0x13
 17565 021e 00       		.byte	0
 17566 021f 00       		.byte	0
ARM GAS  /tmp/ccypRU8x.s 			page 312


 17567 0220 2B       		.uleb128 0x2b
 17568 0221 1C       		.uleb128 0x1c
 17569 0222 00       		.byte	0
 17570 0223 49       		.uleb128 0x49
 17571 0224 13       		.uleb128 0x13
 17572 0225 38       		.uleb128 0x38
 17573 0226 0B       		.uleb128 0xb
 17574 0227 00       		.byte	0
 17575 0228 00       		.byte	0
 17576 0229 2C       		.uleb128 0x2c
 17577 022a 2E       		.uleb128 0x2e
 17578 022b 00       		.byte	0
 17579 022c 3F       		.uleb128 0x3f
 17580 022d 19       		.uleb128 0x19
 17581 022e 03       		.uleb128 0x3
 17582 022f 0E       		.uleb128 0xe
 17583 0230 3A       		.uleb128 0x3a
 17584 0231 0B       		.uleb128 0xb
 17585 0232 3B       		.uleb128 0x3b
 17586 0233 0B       		.uleb128 0xb
 17587 0234 6E       		.uleb128 0x6e
 17588 0235 0E       		.uleb128 0xe
 17589 0236 32       		.uleb128 0x32
 17590 0237 0B       		.uleb128 0xb
 17591 0238 3C       		.uleb128 0x3c
 17592 0239 19       		.uleb128 0x19
 17593 023a 00       		.byte	0
 17594 023b 00       		.byte	0
 17595 023c 2D       		.uleb128 0x2d
 17596 023d 16       		.uleb128 0x16
 17597 023e 00       		.byte	0
 17598 023f 03       		.uleb128 0x3
 17599 0240 0E       		.uleb128 0xe
 17600 0241 3A       		.uleb128 0x3a
 17601 0242 0B       		.uleb128 0xb
 17602 0243 3B       		.uleb128 0x3b
 17603 0244 0B       		.uleb128 0xb
 17604 0245 49       		.uleb128 0x49
 17605 0246 13       		.uleb128 0x13
 17606 0247 32       		.uleb128 0x32
 17607 0248 0B       		.uleb128 0xb
 17608 0249 00       		.byte	0
 17609 024a 00       		.byte	0
 17610 024b 2E       		.uleb128 0x2e
 17611 024c 2E       		.uleb128 0x2e
 17612 024d 01       		.byte	0x1
 17613 024e 3F       		.uleb128 0x3f
 17614 024f 19       		.uleb128 0x19
 17615 0250 03       		.uleb128 0x3
 17616 0251 0E       		.uleb128 0xe
 17617 0252 3A       		.uleb128 0x3a
 17618 0253 0B       		.uleb128 0xb
 17619 0254 3B       		.uleb128 0x3b
 17620 0255 0B       		.uleb128 0xb
 17621 0256 6E       		.uleb128 0x6e
 17622 0257 0E       		.uleb128 0xe
 17623 0258 49       		.uleb128 0x49
ARM GAS  /tmp/ccypRU8x.s 			page 313


 17624 0259 13       		.uleb128 0x13
 17625 025a 32       		.uleb128 0x32
 17626 025b 0B       		.uleb128 0xb
 17627 025c 3C       		.uleb128 0x3c
 17628 025d 19       		.uleb128 0x19
 17629 025e 64       		.uleb128 0x64
 17630 025f 13       		.uleb128 0x13
 17631 0260 01       		.uleb128 0x1
 17632 0261 13       		.uleb128 0x13
 17633 0262 00       		.byte	0
 17634 0263 00       		.byte	0
 17635 0264 2F       		.uleb128 0x2f
 17636 0265 2E       		.uleb128 0x2e
 17637 0266 01       		.byte	0x1
 17638 0267 3F       		.uleb128 0x3f
 17639 0268 19       		.uleb128 0x19
 17640 0269 03       		.uleb128 0x3
 17641 026a 0E       		.uleb128 0xe
 17642 026b 3A       		.uleb128 0x3a
 17643 026c 0B       		.uleb128 0xb
 17644 026d 3B       		.uleb128 0x3b
 17645 026e 0B       		.uleb128 0xb
 17646 026f 6E       		.uleb128 0x6e
 17647 0270 0E       		.uleb128 0xe
 17648 0271 32       		.uleb128 0x32
 17649 0272 0B       		.uleb128 0xb
 17650 0273 3C       		.uleb128 0x3c
 17651 0274 19       		.uleb128 0x19
 17652 0275 64       		.uleb128 0x64
 17653 0276 13       		.uleb128 0x13
 17654 0277 01       		.uleb128 0x1
 17655 0278 13       		.uleb128 0x13
 17656 0279 00       		.byte	0
 17657 027a 00       		.byte	0
 17658 027b 30       		.uleb128 0x30
 17659 027c 0D       		.uleb128 0xd
 17660 027d 00       		.byte	0
 17661 027e 03       		.uleb128 0x3
 17662 027f 08       		.uleb128 0x8
 17663 0280 3A       		.uleb128 0x3a
 17664 0281 0B       		.uleb128 0xb
 17665 0282 3B       		.uleb128 0x3b
 17666 0283 0B       		.uleb128 0xb
 17667 0284 49       		.uleb128 0x49
 17668 0285 13       		.uleb128 0x13
 17669 0286 38       		.uleb128 0x38
 17670 0287 0B       		.uleb128 0xb
 17671 0288 32       		.uleb128 0x32
 17672 0289 0B       		.uleb128 0xb
 17673 028a 00       		.byte	0
 17674 028b 00       		.byte	0
 17675 028c 31       		.uleb128 0x31
 17676 028d 0D       		.uleb128 0xd
 17677 028e 00       		.byte	0
 17678 028f 03       		.uleb128 0x3
 17679 0290 0E       		.uleb128 0xe
 17680 0291 3A       		.uleb128 0x3a
ARM GAS  /tmp/ccypRU8x.s 			page 314


 17681 0292 0B       		.uleb128 0xb
 17682 0293 3B       		.uleb128 0x3b
 17683 0294 0B       		.uleb128 0xb
 17684 0295 49       		.uleb128 0x49
 17685 0296 13       		.uleb128 0x13
 17686 0297 3F       		.uleb128 0x3f
 17687 0298 19       		.uleb128 0x19
 17688 0299 32       		.uleb128 0x32
 17689 029a 0B       		.uleb128 0xb
 17690 029b 3C       		.uleb128 0x3c
 17691 029c 19       		.uleb128 0x19
 17692 029d 00       		.byte	0
 17693 029e 00       		.byte	0
 17694 029f 32       		.uleb128 0x32
 17695 02a0 2E       		.uleb128 0x2e
 17696 02a1 01       		.byte	0x1
 17697 02a2 3F       		.uleb128 0x3f
 17698 02a3 19       		.uleb128 0x19
 17699 02a4 03       		.uleb128 0x3
 17700 02a5 0E       		.uleb128 0xe
 17701 02a6 3A       		.uleb128 0x3a
 17702 02a7 0B       		.uleb128 0xb
 17703 02a8 3B       		.uleb128 0x3b
 17704 02a9 0B       		.uleb128 0xb
 17705 02aa 49       		.uleb128 0x49
 17706 02ab 13       		.uleb128 0x13
 17707 02ac 32       		.uleb128 0x32
 17708 02ad 0B       		.uleb128 0xb
 17709 02ae 3C       		.uleb128 0x3c
 17710 02af 19       		.uleb128 0x19
 17711 02b0 63       		.uleb128 0x63
 17712 02b1 19       		.uleb128 0x19
 17713 02b2 64       		.uleb128 0x64
 17714 02b3 13       		.uleb128 0x13
 17715 02b4 01       		.uleb128 0x1
 17716 02b5 13       		.uleb128 0x13
 17717 02b6 00       		.byte	0
 17718 02b7 00       		.byte	0
 17719 02b8 33       		.uleb128 0x33
 17720 02b9 2E       		.uleb128 0x2e
 17721 02ba 01       		.byte	0x1
 17722 02bb 3F       		.uleb128 0x3f
 17723 02bc 19       		.uleb128 0x19
 17724 02bd 03       		.uleb128 0x3
 17725 02be 08       		.uleb128 0x8
 17726 02bf 3A       		.uleb128 0x3a
 17727 02c0 0B       		.uleb128 0xb
 17728 02c1 3B       		.uleb128 0x3b
 17729 02c2 0B       		.uleb128 0xb
 17730 02c3 6E       		.uleb128 0x6e
 17731 02c4 0E       		.uleb128 0xe
 17732 02c5 49       		.uleb128 0x49
 17733 02c6 13       		.uleb128 0x13
 17734 02c7 32       		.uleb128 0x32
 17735 02c8 0B       		.uleb128 0xb
 17736 02c9 3C       		.uleb128 0x3c
 17737 02ca 19       		.uleb128 0x19
ARM GAS  /tmp/ccypRU8x.s 			page 315


 17738 02cb 01       		.uleb128 0x1
 17739 02cc 13       		.uleb128 0x13
 17740 02cd 00       		.byte	0
 17741 02ce 00       		.byte	0
 17742 02cf 34       		.uleb128 0x34
 17743 02d0 2E       		.uleb128 0x2e
 17744 02d1 00       		.byte	0
 17745 02d2 3F       		.uleb128 0x3f
 17746 02d3 19       		.uleb128 0x19
 17747 02d4 03       		.uleb128 0x3
 17748 02d5 08       		.uleb128 0x8
 17749 02d6 3A       		.uleb128 0x3a
 17750 02d7 0B       		.uleb128 0xb
 17751 02d8 3B       		.uleb128 0x3b
 17752 02d9 0B       		.uleb128 0xb
 17753 02da 6E       		.uleb128 0x6e
 17754 02db 0E       		.uleb128 0xe
 17755 02dc 49       		.uleb128 0x49
 17756 02dd 13       		.uleb128 0x13
 17757 02de 32       		.uleb128 0x32
 17758 02df 0B       		.uleb128 0xb
 17759 02e0 3C       		.uleb128 0x3c
 17760 02e1 19       		.uleb128 0x19
 17761 02e2 00       		.byte	0
 17762 02e3 00       		.byte	0
 17763 02e4 35       		.uleb128 0x35
 17764 02e5 2F       		.uleb128 0x2f
 17765 02e6 00       		.byte	0
 17766 02e7 03       		.uleb128 0x3
 17767 02e8 08       		.uleb128 0x8
 17768 02e9 49       		.uleb128 0x49
 17769 02ea 13       		.uleb128 0x13
 17770 02eb 00       		.byte	0
 17771 02ec 00       		.byte	0
 17772 02ed 36       		.uleb128 0x36
 17773 02ee 13       		.uleb128 0x13
 17774 02ef 01       		.byte	0x1
 17775 02f0 03       		.uleb128 0x3
 17776 02f1 0E       		.uleb128 0xe
 17777 02f2 0B       		.uleb128 0xb
 17778 02f3 0B       		.uleb128 0xb
 17779 02f4 3A       		.uleb128 0x3a
 17780 02f5 0B       		.uleb128 0xb
 17781 02f6 3B       		.uleb128 0x3b
 17782 02f7 0B       		.uleb128 0xb
 17783 02f8 32       		.uleb128 0x32
 17784 02f9 0B       		.uleb128 0xb
 17785 02fa 01       		.uleb128 0x1
 17786 02fb 13       		.uleb128 0x13
 17787 02fc 00       		.byte	0
 17788 02fd 00       		.byte	0
 17789 02fe 37       		.uleb128 0x37
 17790 02ff 2E       		.uleb128 0x2e
 17791 0300 01       		.byte	0x1
 17792 0301 3F       		.uleb128 0x3f
 17793 0302 19       		.uleb128 0x19
 17794 0303 03       		.uleb128 0x3
ARM GAS  /tmp/ccypRU8x.s 			page 316


 17795 0304 0E       		.uleb128 0xe
 17796 0305 3A       		.uleb128 0x3a
 17797 0306 0B       		.uleb128 0xb
 17798 0307 3B       		.uleb128 0x3b
 17799 0308 0B       		.uleb128 0xb
 17800 0309 49       		.uleb128 0x49
 17801 030a 13       		.uleb128 0x13
 17802 030b 3C       		.uleb128 0x3c
 17803 030c 19       		.uleb128 0x19
 17804 030d 64       		.uleb128 0x64
 17805 030e 13       		.uleb128 0x13
 17806 030f 00       		.byte	0
 17807 0310 00       		.byte	0
 17808 0311 38       		.uleb128 0x38
 17809 0312 13       		.uleb128 0x13
 17810 0313 00       		.byte	0
 17811 0314 03       		.uleb128 0x3
 17812 0315 0E       		.uleb128 0xe
 17813 0316 3C       		.uleb128 0x3c
 17814 0317 19       		.uleb128 0x19
 17815 0318 00       		.byte	0
 17816 0319 00       		.byte	0
 17817 031a 39       		.uleb128 0x39
 17818 031b 02       		.uleb128 0x2
 17819 031c 00       		.byte	0
 17820 031d 03       		.uleb128 0x3
 17821 031e 0E       		.uleb128 0xe
 17822 031f 3C       		.uleb128 0x3c
 17823 0320 19       		.uleb128 0x19
 17824 0321 00       		.byte	0
 17825 0322 00       		.byte	0
 17826 0323 3A       		.uleb128 0x3a
 17827 0324 02       		.uleb128 0x2
 17828 0325 01       		.byte	0x1
 17829 0326 03       		.uleb128 0x3
 17830 0327 0E       		.uleb128 0xe
 17831 0328 0B       		.uleb128 0xb
 17832 0329 0B       		.uleb128 0xb
 17833 032a 3A       		.uleb128 0x3a
 17834 032b 0B       		.uleb128 0xb
 17835 032c 3B       		.uleb128 0x3b
 17836 032d 0B       		.uleb128 0xb
 17837 032e 32       		.uleb128 0x32
 17838 032f 0B       		.uleb128 0xb
 17839 0330 01       		.uleb128 0x1
 17840 0331 13       		.uleb128 0x13
 17841 0332 00       		.byte	0
 17842 0333 00       		.byte	0
 17843 0334 3B       		.uleb128 0x3b
 17844 0335 2E       		.uleb128 0x2e
 17845 0336 01       		.byte	0x1
 17846 0337 3F       		.uleb128 0x3f
 17847 0338 19       		.uleb128 0x19
 17848 0339 03       		.uleb128 0x3
 17849 033a 0E       		.uleb128 0xe
 17850 033b 3A       		.uleb128 0x3a
 17851 033c 0B       		.uleb128 0xb
ARM GAS  /tmp/ccypRU8x.s 			page 317


 17852 033d 3B       		.uleb128 0x3b
 17853 033e 0B       		.uleb128 0xb
 17854 033f 6E       		.uleb128 0x6e
 17855 0340 0E       		.uleb128 0xe
 17856 0341 49       		.uleb128 0x49
 17857 0342 13       		.uleb128 0x13
 17858 0343 3C       		.uleb128 0x3c
 17859 0344 19       		.uleb128 0x19
 17860 0345 64       		.uleb128 0x64
 17861 0346 13       		.uleb128 0x13
 17862 0347 01       		.uleb128 0x1
 17863 0348 13       		.uleb128 0x13
 17864 0349 00       		.byte	0
 17865 034a 00       		.byte	0
 17866 034b 3C       		.uleb128 0x3c
 17867 034c 2E       		.uleb128 0x2e
 17868 034d 01       		.byte	0x1
 17869 034e 3F       		.uleb128 0x3f
 17870 034f 19       		.uleb128 0x19
 17871 0350 03       		.uleb128 0x3
 17872 0351 0E       		.uleb128 0xe
 17873 0352 3A       		.uleb128 0x3a
 17874 0353 0B       		.uleb128 0xb
 17875 0354 3B       		.uleb128 0x3b
 17876 0355 0B       		.uleb128 0xb
 17877 0356 6E       		.uleb128 0x6e
 17878 0357 0E       		.uleb128 0xe
 17879 0358 49       		.uleb128 0x49
 17880 0359 13       		.uleb128 0x13
 17881 035a 32       		.uleb128 0x32
 17882 035b 0B       		.uleb128 0xb
 17883 035c 3C       		.uleb128 0x3c
 17884 035d 19       		.uleb128 0x19
 17885 035e 64       		.uleb128 0x64
 17886 035f 13       		.uleb128 0x13
 17887 0360 00       		.byte	0
 17888 0361 00       		.byte	0
 17889 0362 3D       		.uleb128 0x3d
 17890 0363 2E       		.uleb128 0x2e
 17891 0364 01       		.byte	0x1
 17892 0365 3F       		.uleb128 0x3f
 17893 0366 19       		.uleb128 0x19
 17894 0367 03       		.uleb128 0x3
 17895 0368 0E       		.uleb128 0xe
 17896 0369 3A       		.uleb128 0x3a
 17897 036a 0B       		.uleb128 0xb
 17898 036b 3B       		.uleb128 0x3b
 17899 036c 05       		.uleb128 0x5
 17900 036d 6E       		.uleb128 0x6e
 17901 036e 0E       		.uleb128 0xe
 17902 036f 49       		.uleb128 0x49
 17903 0370 13       		.uleb128 0x13
 17904 0371 32       		.uleb128 0x32
 17905 0372 0B       		.uleb128 0xb
 17906 0373 3C       		.uleb128 0x3c
 17907 0374 19       		.uleb128 0x19
 17908 0375 64       		.uleb128 0x64
ARM GAS  /tmp/ccypRU8x.s 			page 318


 17909 0376 13       		.uleb128 0x13
 17910 0377 01       		.uleb128 0x1
 17911 0378 13       		.uleb128 0x13
 17912 0379 00       		.byte	0
 17913 037a 00       		.byte	0
 17914 037b 3E       		.uleb128 0x3e
 17915 037c 2E       		.uleb128 0x2e
 17916 037d 01       		.byte	0x1
 17917 037e 3F       		.uleb128 0x3f
 17918 037f 19       		.uleb128 0x19
 17919 0380 03       		.uleb128 0x3
 17920 0381 0E       		.uleb128 0xe
 17921 0382 3A       		.uleb128 0x3a
 17922 0383 0B       		.uleb128 0xb
 17923 0384 3B       		.uleb128 0x3b
 17924 0385 05       		.uleb128 0x5
 17925 0386 6E       		.uleb128 0x6e
 17926 0387 0E       		.uleb128 0xe
 17927 0388 32       		.uleb128 0x32
 17928 0389 0B       		.uleb128 0xb
 17929 038a 3C       		.uleb128 0x3c
 17930 038b 19       		.uleb128 0x19
 17931 038c 64       		.uleb128 0x64
 17932 038d 13       		.uleb128 0x13
 17933 038e 01       		.uleb128 0x1
 17934 038f 13       		.uleb128 0x13
 17935 0390 00       		.byte	0
 17936 0391 00       		.byte	0
 17937 0392 3F       		.uleb128 0x3f
 17938 0393 2E       		.uleb128 0x2e
 17939 0394 01       		.byte	0x1
 17940 0395 3F       		.uleb128 0x3f
 17941 0396 19       		.uleb128 0x19
 17942 0397 03       		.uleb128 0x3
 17943 0398 08       		.uleb128 0x8
 17944 0399 3A       		.uleb128 0x3a
 17945 039a 0B       		.uleb128 0xb
 17946 039b 3B       		.uleb128 0x3b
 17947 039c 05       		.uleb128 0x5
 17948 039d 6E       		.uleb128 0x6e
 17949 039e 0E       		.uleb128 0xe
 17950 039f 49       		.uleb128 0x49
 17951 03a0 13       		.uleb128 0x13
 17952 03a1 32       		.uleb128 0x32
 17953 03a2 0B       		.uleb128 0xb
 17954 03a3 3C       		.uleb128 0x3c
 17955 03a4 19       		.uleb128 0x19
 17956 03a5 64       		.uleb128 0x64
 17957 03a6 13       		.uleb128 0x13
 17958 03a7 01       		.uleb128 0x1
 17959 03a8 13       		.uleb128 0x13
 17960 03a9 00       		.byte	0
 17961 03aa 00       		.byte	0
 17962 03ab 40       		.uleb128 0x40
 17963 03ac 2E       		.uleb128 0x2e
 17964 03ad 01       		.byte	0x1
 17965 03ae 3F       		.uleb128 0x3f
ARM GAS  /tmp/ccypRU8x.s 			page 319


 17966 03af 19       		.uleb128 0x19
 17967 03b0 03       		.uleb128 0x3
 17968 03b1 0E       		.uleb128 0xe
 17969 03b2 3A       		.uleb128 0x3a
 17970 03b3 0B       		.uleb128 0xb
 17971 03b4 3B       		.uleb128 0x3b
 17972 03b5 05       		.uleb128 0x5
 17973 03b6 49       		.uleb128 0x49
 17974 03b7 13       		.uleb128 0x13
 17975 03b8 32       		.uleb128 0x32
 17976 03b9 0B       		.uleb128 0xb
 17977 03ba 3C       		.uleb128 0x3c
 17978 03bb 19       		.uleb128 0x19
 17979 03bc 64       		.uleb128 0x64
 17980 03bd 13       		.uleb128 0x13
 17981 03be 01       		.uleb128 0x1
 17982 03bf 13       		.uleb128 0x13
 17983 03c0 00       		.byte	0
 17984 03c1 00       		.byte	0
 17985 03c2 41       		.uleb128 0x41
 17986 03c3 2F       		.uleb128 0x2f
 17987 03c4 00       		.byte	0
 17988 03c5 03       		.uleb128 0x3
 17989 03c6 0E       		.uleb128 0xe
 17990 03c7 49       		.uleb128 0x49
 17991 03c8 13       		.uleb128 0x13
 17992 03c9 00       		.byte	0
 17993 03ca 00       		.byte	0
 17994 03cb 42       		.uleb128 0x42
 17995 03cc 02       		.uleb128 0x2
 17996 03cd 01       		.byte	0x1
 17997 03ce 03       		.uleb128 0x3
 17998 03cf 0E       		.uleb128 0xe
 17999 03d0 3C       		.uleb128 0x3c
 18000 03d1 19       		.uleb128 0x19
 18001 03d2 01       		.uleb128 0x1
 18002 03d3 13       		.uleb128 0x13
 18003 03d4 00       		.byte	0
 18004 03d5 00       		.byte	0
 18005 03d6 43       		.uleb128 0x43
 18006 03d7 2E       		.uleb128 0x2e
 18007 03d8 01       		.byte	0x1
 18008 03d9 3F       		.uleb128 0x3f
 18009 03da 19       		.uleb128 0x19
 18010 03db 03       		.uleb128 0x3
 18011 03dc 0E       		.uleb128 0xe
 18012 03dd 3A       		.uleb128 0x3a
 18013 03de 0B       		.uleb128 0xb
 18014 03df 3B       		.uleb128 0x3b
 18015 03e0 0B       		.uleb128 0xb
 18016 03e1 6E       		.uleb128 0x6e
 18017 03e2 0E       		.uleb128 0xe
 18018 03e3 49       		.uleb128 0x49
 18019 03e4 13       		.uleb128 0x13
 18020 03e5 4C       		.uleb128 0x4c
 18021 03e6 0B       		.uleb128 0xb
 18022 03e7 4D       		.uleb128 0x4d
ARM GAS  /tmp/ccypRU8x.s 			page 320


 18023 03e8 18       		.uleb128 0x18
 18024 03e9 1D       		.uleb128 0x1d
 18025 03ea 13       		.uleb128 0x13
 18026 03eb 32       		.uleb128 0x32
 18027 03ec 0B       		.uleb128 0xb
 18028 03ed 3C       		.uleb128 0x3c
 18029 03ee 19       		.uleb128 0x19
 18030 03ef 64       		.uleb128 0x64
 18031 03f0 13       		.uleb128 0x13
 18032 03f1 01       		.uleb128 0x1
 18033 03f2 13       		.uleb128 0x13
 18034 03f3 00       		.byte	0
 18035 03f4 00       		.byte	0
 18036 03f5 44       		.uleb128 0x44
 18037 03f6 2E       		.uleb128 0x2e
 18038 03f7 01       		.byte	0x1
 18039 03f8 3F       		.uleb128 0x3f
 18040 03f9 19       		.uleb128 0x19
 18041 03fa 03       		.uleb128 0x3
 18042 03fb 0E       		.uleb128 0xe
 18043 03fc 3A       		.uleb128 0x3a
 18044 03fd 0B       		.uleb128 0xb
 18045 03fe 3B       		.uleb128 0x3b
 18046 03ff 0B       		.uleb128 0xb
 18047 0400 6E       		.uleb128 0x6e
 18048 0401 0E       		.uleb128 0xe
 18049 0402 49       		.uleb128 0x49
 18050 0403 13       		.uleb128 0x13
 18051 0404 4C       		.uleb128 0x4c
 18052 0405 0B       		.uleb128 0xb
 18053 0406 4D       		.uleb128 0x4d
 18054 0407 18       		.uleb128 0x18
 18055 0408 1D       		.uleb128 0x1d
 18056 0409 13       		.uleb128 0x13
 18057 040a 32       		.uleb128 0x32
 18058 040b 0B       		.uleb128 0xb
 18059 040c 3C       		.uleb128 0x3c
 18060 040d 19       		.uleb128 0x19
 18061 040e 64       		.uleb128 0x64
 18062 040f 13       		.uleb128 0x13
 18063 0410 00       		.byte	0
 18064 0411 00       		.byte	0
 18065 0412 45       		.uleb128 0x45
 18066 0413 2E       		.uleb128 0x2e
 18067 0414 01       		.byte	0x1
 18068 0415 3F       		.uleb128 0x3f
 18069 0416 19       		.uleb128 0x19
 18070 0417 03       		.uleb128 0x3
 18071 0418 0E       		.uleb128 0xe
 18072 0419 3A       		.uleb128 0x3a
 18073 041a 0B       		.uleb128 0xb
 18074 041b 3B       		.uleb128 0x3b
 18075 041c 0B       		.uleb128 0xb
 18076 041d 6E       		.uleb128 0x6e
 18077 041e 0E       		.uleb128 0xe
 18078 041f 3C       		.uleb128 0x3c
 18079 0420 19       		.uleb128 0x19
ARM GAS  /tmp/ccypRU8x.s 			page 321


 18080 0421 64       		.uleb128 0x64
 18081 0422 13       		.uleb128 0x13
 18082 0423 01       		.uleb128 0x1
 18083 0424 13       		.uleb128 0x13
 18084 0425 00       		.byte	0
 18085 0426 00       		.byte	0
 18086 0427 46       		.uleb128 0x46
 18087 0428 2E       		.uleb128 0x2e
 18088 0429 01       		.byte	0x1
 18089 042a 3F       		.uleb128 0x3f
 18090 042b 19       		.uleb128 0x19
 18091 042c 03       		.uleb128 0x3
 18092 042d 0E       		.uleb128 0xe
 18093 042e 3A       		.uleb128 0x3a
 18094 042f 0B       		.uleb128 0xb
 18095 0430 3B       		.uleb128 0x3b
 18096 0431 0B       		.uleb128 0xb
 18097 0432 6E       		.uleb128 0x6e
 18098 0433 0E       		.uleb128 0xe
 18099 0434 49       		.uleb128 0x49
 18100 0435 13       		.uleb128 0x13
 18101 0436 32       		.uleb128 0x32
 18102 0437 0B       		.uleb128 0xb
 18103 0438 3C       		.uleb128 0x3c
 18104 0439 19       		.uleb128 0x19
 18105 043a 00       		.byte	0
 18106 043b 00       		.byte	0
 18107 043c 47       		.uleb128 0x47
 18108 043d 2E       		.uleb128 0x2e
 18109 043e 01       		.byte	0x1
 18110 043f 3F       		.uleb128 0x3f
 18111 0440 19       		.uleb128 0x19
 18112 0441 03       		.uleb128 0x3
 18113 0442 0E       		.uleb128 0xe
 18114 0443 3A       		.uleb128 0x3a
 18115 0444 0B       		.uleb128 0xb
 18116 0445 3B       		.uleb128 0x3b
 18117 0446 0B       		.uleb128 0xb
 18118 0447 6E       		.uleb128 0x6e
 18119 0448 0E       		.uleb128 0xe
 18120 0449 32       		.uleb128 0x32
 18121 044a 0B       		.uleb128 0xb
 18122 044b 3C       		.uleb128 0x3c
 18123 044c 19       		.uleb128 0x19
 18124 044d 01       		.uleb128 0x1
 18125 044e 13       		.uleb128 0x13
 18126 044f 00       		.byte	0
 18127 0450 00       		.byte	0
 18128 0451 48       		.uleb128 0x48
 18129 0452 2E       		.uleb128 0x2e
 18130 0453 01       		.byte	0x1
 18131 0454 3F       		.uleb128 0x3f
 18132 0455 19       		.uleb128 0x19
 18133 0456 03       		.uleb128 0x3
 18134 0457 0E       		.uleb128 0xe
 18135 0458 3A       		.uleb128 0x3a
 18136 0459 0B       		.uleb128 0xb
ARM GAS  /tmp/ccypRU8x.s 			page 322


 18137 045a 3B       		.uleb128 0x3b
 18138 045b 0B       		.uleb128 0xb
 18139 045c 6E       		.uleb128 0x6e
 18140 045d 0E       		.uleb128 0xe
 18141 045e 49       		.uleb128 0x49
 18142 045f 13       		.uleb128 0x13
 18143 0460 32       		.uleb128 0x32
 18144 0461 0B       		.uleb128 0xb
 18145 0462 3C       		.uleb128 0x3c
 18146 0463 19       		.uleb128 0x19
 18147 0464 01       		.uleb128 0x1
 18148 0465 13       		.uleb128 0x13
 18149 0466 00       		.byte	0
 18150 0467 00       		.byte	0
 18151 0468 49       		.uleb128 0x49
 18152 0469 02       		.uleb128 0x2
 18153 046a 01       		.byte	0x1
 18154 046b 03       		.uleb128 0x3
 18155 046c 0E       		.uleb128 0xe
 18156 046d 0B       		.uleb128 0xb
 18157 046e 0B       		.uleb128 0xb
 18158 046f 3A       		.uleb128 0x3a
 18159 0470 0B       		.uleb128 0xb
 18160 0471 3B       		.uleb128 0x3b
 18161 0472 0B       		.uleb128 0xb
 18162 0473 1D       		.uleb128 0x1d
 18163 0474 13       		.uleb128 0x13
 18164 0475 01       		.uleb128 0x1
 18165 0476 13       		.uleb128 0x13
 18166 0477 00       		.byte	0
 18167 0478 00       		.byte	0
 18168 0479 4A       		.uleb128 0x4a
 18169 047a 1C       		.uleb128 0x1c
 18170 047b 00       		.byte	0
 18171 047c 49       		.uleb128 0x49
 18172 047d 13       		.uleb128 0x13
 18173 047e 38       		.uleb128 0x38
 18174 047f 0B       		.uleb128 0xb
 18175 0480 32       		.uleb128 0x32
 18176 0481 0B       		.uleb128 0xb
 18177 0482 00       		.byte	0
 18178 0483 00       		.byte	0
 18179 0484 4B       		.uleb128 0x4b
 18180 0485 2E       		.uleb128 0x2e
 18181 0486 01       		.byte	0x1
 18182 0487 3F       		.uleb128 0x3f
 18183 0488 19       		.uleb128 0x19
 18184 0489 03       		.uleb128 0x3
 18185 048a 0E       		.uleb128 0xe
 18186 048b 49       		.uleb128 0x49
 18187 048c 13       		.uleb128 0x13
 18188 048d 34       		.uleb128 0x34
 18189 048e 19       		.uleb128 0x19
 18190 048f 32       		.uleb128 0x32
 18191 0490 0B       		.uleb128 0xb
 18192 0491 3C       		.uleb128 0x3c
 18193 0492 19       		.uleb128 0x19
ARM GAS  /tmp/ccypRU8x.s 			page 323


 18194 0493 64       		.uleb128 0x64
 18195 0494 13       		.uleb128 0x13
 18196 0495 01       		.uleb128 0x1
 18197 0496 13       		.uleb128 0x13
 18198 0497 00       		.byte	0
 18199 0498 00       		.byte	0
 18200 0499 4C       		.uleb128 0x4c
 18201 049a 2E       		.uleb128 0x2e
 18202 049b 01       		.byte	0x1
 18203 049c 3F       		.uleb128 0x3f
 18204 049d 19       		.uleb128 0x19
 18205 049e 03       		.uleb128 0x3
 18206 049f 0E       		.uleb128 0xe
 18207 04a0 3A       		.uleb128 0x3a
 18208 04a1 0B       		.uleb128 0xb
 18209 04a2 3B       		.uleb128 0x3b
 18210 04a3 0B       		.uleb128 0xb
 18211 04a4 49       		.uleb128 0x49
 18212 04a5 13       		.uleb128 0x13
 18213 04a6 4C       		.uleb128 0x4c
 18214 04a7 0B       		.uleb128 0xb
 18215 04a8 1D       		.uleb128 0x1d
 18216 04a9 13       		.uleb128 0x13
 18217 04aa 32       		.uleb128 0x32
 18218 04ab 0B       		.uleb128 0xb
 18219 04ac 3C       		.uleb128 0x3c
 18220 04ad 19       		.uleb128 0x19
 18221 04ae 64       		.uleb128 0x64
 18222 04af 13       		.uleb128 0x13
 18223 04b0 00       		.byte	0
 18224 04b1 00       		.byte	0
 18225 04b2 4D       		.uleb128 0x4d
 18226 04b3 2E       		.uleb128 0x2e
 18227 04b4 00       		.byte	0
 18228 04b5 3F       		.uleb128 0x3f
 18229 04b6 19       		.uleb128 0x19
 18230 04b7 03       		.uleb128 0x3
 18231 04b8 0E       		.uleb128 0xe
 18232 04b9 3A       		.uleb128 0x3a
 18233 04ba 0B       		.uleb128 0xb
 18234 04bb 3B       		.uleb128 0x3b
 18235 04bc 0B       		.uleb128 0xb
 18236 04bd 6E       		.uleb128 0x6e
 18237 04be 0E       		.uleb128 0xe
 18238 04bf 49       		.uleb128 0x49
 18239 04c0 13       		.uleb128 0x13
 18240 04c1 32       		.uleb128 0x32
 18241 04c2 0B       		.uleb128 0xb
 18242 04c3 3C       		.uleb128 0x3c
 18243 04c4 19       		.uleb128 0x19
 18244 04c5 00       		.byte	0
 18245 04c6 00       		.byte	0
 18246 04c7 4E       		.uleb128 0x4e
 18247 04c8 04       		.uleb128 0x4
 18248 04c9 01       		.byte	0x1
 18249 04ca 03       		.uleb128 0x3
 18250 04cb 0E       		.uleb128 0xe
ARM GAS  /tmp/ccypRU8x.s 			page 324


 18251 04cc 0B       		.uleb128 0xb
 18252 04cd 0B       		.uleb128 0xb
 18253 04ce 3A       		.uleb128 0x3a
 18254 04cf 0B       		.uleb128 0xb
 18255 04d0 3B       		.uleb128 0x3b
 18256 04d1 0B       		.uleb128 0xb
 18257 04d2 32       		.uleb128 0x32
 18258 04d3 0B       		.uleb128 0xb
 18259 04d4 01       		.uleb128 0x1
 18260 04d5 13       		.uleb128 0x13
 18261 04d6 00       		.byte	0
 18262 04d7 00       		.byte	0
 18263 04d8 4F       		.uleb128 0x4f
 18264 04d9 30       		.uleb128 0x30
 18265 04da 00       		.byte	0
 18266 04db 03       		.uleb128 0x3
 18267 04dc 08       		.uleb128 0x8
 18268 04dd 49       		.uleb128 0x49
 18269 04de 13       		.uleb128 0x13
 18270 04df 1C       		.uleb128 0x1c
 18271 04e0 0B       		.uleb128 0xb
 18272 04e1 00       		.byte	0
 18273 04e2 00       		.byte	0
 18274 04e3 50       		.uleb128 0x50
 18275 04e4 0D       		.uleb128 0xd
 18276 04e5 00       		.byte	0
 18277 04e6 03       		.uleb128 0x3
 18278 04e7 0E       		.uleb128 0xe
 18279 04e8 49       		.uleb128 0x49
 18280 04e9 13       		.uleb128 0x13
 18281 04ea 38       		.uleb128 0x38
 18282 04eb 0B       		.uleb128 0xb
 18283 04ec 34       		.uleb128 0x34
 18284 04ed 19       		.uleb128 0x19
 18285 04ee 32       		.uleb128 0x32
 18286 04ef 0B       		.uleb128 0xb
 18287 04f0 00       		.byte	0
 18288 04f1 00       		.byte	0
 18289 04f2 51       		.uleb128 0x51
 18290 04f3 2E       		.uleb128 0x2e
 18291 04f4 01       		.byte	0x1
 18292 04f5 3F       		.uleb128 0x3f
 18293 04f6 19       		.uleb128 0x19
 18294 04f7 03       		.uleb128 0x3
 18295 04f8 0E       		.uleb128 0xe
 18296 04f9 3A       		.uleb128 0x3a
 18297 04fa 0B       		.uleb128 0xb
 18298 04fb 3B       		.uleb128 0x3b
 18299 04fc 0B       		.uleb128 0xb
 18300 04fd 49       		.uleb128 0x49
 18301 04fe 13       		.uleb128 0x13
 18302 04ff 4C       		.uleb128 0x4c
 18303 0500 0B       		.uleb128 0xb
 18304 0501 1D       		.uleb128 0x1d
 18305 0502 13       		.uleb128 0x13
 18306 0503 32       		.uleb128 0x32
 18307 0504 0B       		.uleb128 0xb
ARM GAS  /tmp/ccypRU8x.s 			page 325


 18308 0505 3C       		.uleb128 0x3c
 18309 0506 19       		.uleb128 0x19
 18310 0507 64       		.uleb128 0x64
 18311 0508 13       		.uleb128 0x13
 18312 0509 01       		.uleb128 0x1
 18313 050a 13       		.uleb128 0x13
 18314 050b 00       		.byte	0
 18315 050c 00       		.byte	0
 18316 050d 52       		.uleb128 0x52
 18317 050e 0D       		.uleb128 0xd
 18318 050f 00       		.byte	0
 18319 0510 03       		.uleb128 0x3
 18320 0511 0E       		.uleb128 0xe
 18321 0512 3A       		.uleb128 0x3a
 18322 0513 0B       		.uleb128 0xb
 18323 0514 3B       		.uleb128 0x3b
 18324 0515 0B       		.uleb128 0xb
 18325 0516 49       		.uleb128 0x49
 18326 0517 13       		.uleb128 0x13
 18327 0518 38       		.uleb128 0x38
 18328 0519 0B       		.uleb128 0xb
 18329 051a 32       		.uleb128 0x32
 18330 051b 0B       		.uleb128 0xb
 18331 051c 00       		.byte	0
 18332 051d 00       		.byte	0
 18333 051e 53       		.uleb128 0x53
 18334 051f 2E       		.uleb128 0x2e
 18335 0520 01       		.byte	0x1
 18336 0521 3F       		.uleb128 0x3f
 18337 0522 19       		.uleb128 0x19
 18338 0523 03       		.uleb128 0x3
 18339 0524 0E       		.uleb128 0xe
 18340 0525 49       		.uleb128 0x49
 18341 0526 13       		.uleb128 0x13
 18342 0527 34       		.uleb128 0x34
 18343 0528 19       		.uleb128 0x19
 18344 0529 32       		.uleb128 0x32
 18345 052a 0B       		.uleb128 0xb
 18346 052b 3C       		.uleb128 0x3c
 18347 052c 19       		.uleb128 0x19
 18348 052d 64       		.uleb128 0x64
 18349 052e 13       		.uleb128 0x13
 18350 052f 00       		.byte	0
 18351 0530 00       		.byte	0
 18352 0531 54       		.uleb128 0x54
 18353 0532 30       		.uleb128 0x30
 18354 0533 00       		.byte	0
 18355 0534 03       		.uleb128 0x3
 18356 0535 0E       		.uleb128 0xe
 18357 0536 49       		.uleb128 0x49
 18358 0537 13       		.uleb128 0x13
 18359 0538 1C       		.uleb128 0x1c
 18360 0539 0B       		.uleb128 0xb
 18361 053a 00       		.byte	0
 18362 053b 00       		.byte	0
 18363 053c 55       		.uleb128 0x55
 18364 053d 2E       		.uleb128 0x2e
ARM GAS  /tmp/ccypRU8x.s 			page 326


 18365 053e 01       		.byte	0x1
 18366 053f 3F       		.uleb128 0x3f
 18367 0540 19       		.uleb128 0x19
 18368 0541 03       		.uleb128 0x3
 18369 0542 0E       		.uleb128 0xe
 18370 0543 3A       		.uleb128 0x3a
 18371 0544 0B       		.uleb128 0xb
 18372 0545 3B       		.uleb128 0x3b
 18373 0546 0B       		.uleb128 0xb
 18374 0547 3C       		.uleb128 0x3c
 18375 0548 19       		.uleb128 0x19
 18376 0549 01       		.uleb128 0x1
 18377 054a 13       		.uleb128 0x13
 18378 054b 00       		.byte	0
 18379 054c 00       		.byte	0
 18380 054d 56       		.uleb128 0x56
 18381 054e 2E       		.uleb128 0x2e
 18382 054f 01       		.byte	0x1
 18383 0550 3F       		.uleb128 0x3f
 18384 0551 19       		.uleb128 0x19
 18385 0552 03       		.uleb128 0x3
 18386 0553 0E       		.uleb128 0xe
 18387 0554 3A       		.uleb128 0x3a
 18388 0555 0B       		.uleb128 0xb
 18389 0556 3B       		.uleb128 0x3b
 18390 0557 0B       		.uleb128 0xb
 18391 0558 3C       		.uleb128 0x3c
 18392 0559 19       		.uleb128 0x19
 18393 055a 00       		.byte	0
 18394 055b 00       		.byte	0
 18395 055c 57       		.uleb128 0x57
 18396 055d 10       		.uleb128 0x10
 18397 055e 00       		.byte	0
 18398 055f 0B       		.uleb128 0xb
 18399 0560 0B       		.uleb128 0xb
 18400 0561 49       		.uleb128 0x49
 18401 0562 13       		.uleb128 0x13
 18402 0563 00       		.byte	0
 18403 0564 00       		.byte	0
 18404 0565 58       		.uleb128 0x58
 18405 0566 18       		.uleb128 0x18
 18406 0567 00       		.byte	0
 18407 0568 00       		.byte	0
 18408 0569 00       		.byte	0
 18409 056a 59       		.uleb128 0x59
 18410 056b 0F       		.uleb128 0xf
 18411 056c 00       		.byte	0
 18412 056d 0B       		.uleb128 0xb
 18413 056e 0B       		.uleb128 0xb
 18414 056f 03       		.uleb128 0x3
 18415 0570 0E       		.uleb128 0xe
 18416 0571 49       		.uleb128 0x49
 18417 0572 13       		.uleb128 0x13
 18418 0573 00       		.byte	0
 18419 0574 00       		.byte	0
 18420 0575 5A       		.uleb128 0x5a
 18421 0576 2E       		.uleb128 0x2e
ARM GAS  /tmp/ccypRU8x.s 			page 327


 18422 0577 01       		.byte	0x1
 18423 0578 47       		.uleb128 0x47
 18424 0579 13       		.uleb128 0x13
 18425 057a 20       		.uleb128 0x20
 18426 057b 0B       		.uleb128 0xb
 18427 057c 01       		.uleb128 0x1
 18428 057d 13       		.uleb128 0x13
 18429 057e 00       		.byte	0
 18430 057f 00       		.byte	0
 18431 0580 5B       		.uleb128 0x5b
 18432 0581 0B       		.uleb128 0xb
 18433 0582 01       		.byte	0x1
 18434 0583 00       		.byte	0
 18435 0584 00       		.byte	0
 18436 0585 5C       		.uleb128 0x5c
 18437 0586 34       		.uleb128 0x34
 18438 0587 00       		.byte	0
 18439 0588 03       		.uleb128 0x3
 18440 0589 08       		.uleb128 0x8
 18441 058a 3A       		.uleb128 0x3a
 18442 058b 0B       		.uleb128 0xb
 18443 058c 3B       		.uleb128 0x3b
 18444 058d 0B       		.uleb128 0xb
 18445 058e 49       		.uleb128 0x49
 18446 058f 13       		.uleb128 0x13
 18447 0590 00       		.byte	0
 18448 0591 00       		.byte	0
 18449 0592 5D       		.uleb128 0x5d
 18450 0593 2E       		.uleb128 0x2e
 18451 0594 01       		.byte	0x1
 18452 0595 03       		.uleb128 0x3
 18453 0596 0E       		.uleb128 0xe
 18454 0597 3A       		.uleb128 0x3a
 18455 0598 0B       		.uleb128 0xb
 18456 0599 3B       		.uleb128 0x3b
 18457 059a 0B       		.uleb128 0xb
 18458 059b 11       		.uleb128 0x11
 18459 059c 01       		.uleb128 0x1
 18460 059d 12       		.uleb128 0x12
 18461 059e 06       		.uleb128 0x6
 18462 059f 40       		.uleb128 0x40
 18463 05a0 18       		.uleb128 0x18
 18464 05a1 9642     		.uleb128 0x2116
 18465 05a3 19       		.uleb128 0x19
 18466 05a4 01       		.uleb128 0x1
 18467 05a5 13       		.uleb128 0x13
 18468 05a6 00       		.byte	0
 18469 05a7 00       		.byte	0
 18470 05a8 5E       		.uleb128 0x5e
 18471 05a9 05       		.uleb128 0x5
 18472 05aa 00       		.byte	0
 18473 05ab 03       		.uleb128 0x3
 18474 05ac 08       		.uleb128 0x8
 18475 05ad 3A       		.uleb128 0x3a
 18476 05ae 0B       		.uleb128 0xb
 18477 05af 3B       		.uleb128 0x3b
 18478 05b0 0B       		.uleb128 0xb
ARM GAS  /tmp/ccypRU8x.s 			page 328


 18479 05b1 49       		.uleb128 0x49
 18480 05b2 13       		.uleb128 0x13
 18481 05b3 02       		.uleb128 0x2
 18482 05b4 18       		.uleb128 0x18
 18483 05b5 00       		.byte	0
 18484 05b6 00       		.byte	0
 18485 05b7 5F       		.uleb128 0x5f
 18486 05b8 0B       		.uleb128 0xb
 18487 05b9 01       		.byte	0x1
 18488 05ba 11       		.uleb128 0x11
 18489 05bb 01       		.uleb128 0x1
 18490 05bc 12       		.uleb128 0x12
 18491 05bd 06       		.uleb128 0x6
 18492 05be 00       		.byte	0
 18493 05bf 00       		.byte	0
 18494 05c0 60       		.uleb128 0x60
 18495 05c1 34       		.uleb128 0x34
 18496 05c2 00       		.byte	0
 18497 05c3 03       		.uleb128 0x3
 18498 05c4 08       		.uleb128 0x8
 18499 05c5 3A       		.uleb128 0x3a
 18500 05c6 0B       		.uleb128 0xb
 18501 05c7 3B       		.uleb128 0x3b
 18502 05c8 0B       		.uleb128 0xb
 18503 05c9 49       		.uleb128 0x49
 18504 05ca 13       		.uleb128 0x13
 18505 05cb 02       		.uleb128 0x2
 18506 05cc 18       		.uleb128 0x18
 18507 05cd 00       		.byte	0
 18508 05ce 00       		.byte	0
 18509 05cf 61       		.uleb128 0x61
 18510 05d0 2E       		.uleb128 0x2e
 18511 05d1 01       		.byte	0x1
 18512 05d2 47       		.uleb128 0x47
 18513 05d3 13       		.uleb128 0x13
 18514 05d4 3B       		.uleb128 0x3b
 18515 05d5 0B       		.uleb128 0xb
 18516 05d6 11       		.uleb128 0x11
 18517 05d7 01       		.uleb128 0x1
 18518 05d8 12       		.uleb128 0x12
 18519 05d9 06       		.uleb128 0x6
 18520 05da 40       		.uleb128 0x40
 18521 05db 18       		.uleb128 0x18
 18522 05dc 9642     		.uleb128 0x2116
 18523 05de 19       		.uleb128 0x19
 18524 05df 01       		.uleb128 0x1
 18525 05e0 13       		.uleb128 0x13
 18526 05e1 00       		.byte	0
 18527 05e2 00       		.byte	0
 18528 05e3 62       		.uleb128 0x62
 18529 05e4 2E       		.uleb128 0x2e
 18530 05e5 00       		.byte	0
 18531 05e6 47       		.uleb128 0x47
 18532 05e7 13       		.uleb128 0x13
 18533 05e8 3B       		.uleb128 0x3b
 18534 05e9 0B       		.uleb128 0xb
 18535 05ea 11       		.uleb128 0x11
ARM GAS  /tmp/ccypRU8x.s 			page 329


 18536 05eb 01       		.uleb128 0x1
 18537 05ec 12       		.uleb128 0x12
 18538 05ed 06       		.uleb128 0x6
 18539 05ee 40       		.uleb128 0x40
 18540 05ef 18       		.uleb128 0x18
 18541 05f0 9642     		.uleb128 0x2116
 18542 05f2 19       		.uleb128 0x19
 18543 05f3 00       		.byte	0
 18544 05f4 00       		.byte	0
 18545 05f5 63       		.uleb128 0x63
 18546 05f6 2E       		.uleb128 0x2e
 18547 05f7 01       		.byte	0x1
 18548 05f8 47       		.uleb128 0x47
 18549 05f9 13       		.uleb128 0x13
 18550 05fa 3B       		.uleb128 0x3b
 18551 05fb 0B       		.uleb128 0xb
 18552 05fc 11       		.uleb128 0x11
 18553 05fd 01       		.uleb128 0x1
 18554 05fe 12       		.uleb128 0x12
 18555 05ff 06       		.uleb128 0x6
 18556 0600 40       		.uleb128 0x40
 18557 0601 18       		.uleb128 0x18
 18558 0602 64       		.uleb128 0x64
 18559 0603 13       		.uleb128 0x13
 18560 0604 9642     		.uleb128 0x2116
 18561 0606 19       		.uleb128 0x19
 18562 0607 01       		.uleb128 0x1
 18563 0608 13       		.uleb128 0x13
 18564 0609 00       		.byte	0
 18565 060a 00       		.byte	0
 18566 060b 64       		.uleb128 0x64
 18567 060c 05       		.uleb128 0x5
 18568 060d 00       		.byte	0
 18569 060e 03       		.uleb128 0x3
 18570 060f 0E       		.uleb128 0xe
 18571 0610 49       		.uleb128 0x49
 18572 0611 13       		.uleb128 0x13
 18573 0612 34       		.uleb128 0x34
 18574 0613 19       		.uleb128 0x19
 18575 0614 02       		.uleb128 0x2
 18576 0615 18       		.uleb128 0x18
 18577 0616 00       		.byte	0
 18578 0617 00       		.byte	0
 18579 0618 65       		.uleb128 0x65
 18580 0619 2E       		.uleb128 0x2e
 18581 061a 01       		.byte	0x1
 18582 061b 47       		.uleb128 0x47
 18583 061c 13       		.uleb128 0x13
 18584 061d 3B       		.uleb128 0x3b
 18585 061e 0B       		.uleb128 0xb
 18586 061f 11       		.uleb128 0x11
 18587 0620 01       		.uleb128 0x1
 18588 0621 12       		.uleb128 0x12
 18589 0622 06       		.uleb128 0x6
 18590 0623 40       		.uleb128 0x40
 18591 0624 18       		.uleb128 0x18
 18592 0625 64       		.uleb128 0x64
ARM GAS  /tmp/ccypRU8x.s 			page 330


 18593 0626 13       		.uleb128 0x13
 18594 0627 9742     		.uleb128 0x2117
 18595 0629 19       		.uleb128 0x19
 18596 062a 01       		.uleb128 0x1
 18597 062b 13       		.uleb128 0x13
 18598 062c 00       		.byte	0
 18599 062d 00       		.byte	0
 18600 062e 66       		.uleb128 0x66
 18601 062f 05       		.uleb128 0x5
 18602 0630 00       		.byte	0
 18603 0631 03       		.uleb128 0x3
 18604 0632 0E       		.uleb128 0xe
 18605 0633 3A       		.uleb128 0x3a
 18606 0634 0B       		.uleb128 0xb
 18607 0635 3B       		.uleb128 0x3b
 18608 0636 0B       		.uleb128 0xb
 18609 0637 49       		.uleb128 0x49
 18610 0638 13       		.uleb128 0x13
 18611 0639 02       		.uleb128 0x2
 18612 063a 18       		.uleb128 0x18
 18613 063b 00       		.byte	0
 18614 063c 00       		.byte	0
 18615 063d 67       		.uleb128 0x67
 18616 063e 2E       		.uleb128 0x2e
 18617 063f 01       		.byte	0x1
 18618 0640 47       		.uleb128 0x47
 18619 0641 13       		.uleb128 0x13
 18620 0642 3B       		.uleb128 0x3b
 18621 0643 0B       		.uleb128 0xb
 18622 0644 20       		.uleb128 0x20
 18623 0645 0B       		.uleb128 0xb
 18624 0646 64       		.uleb128 0x64
 18625 0647 13       		.uleb128 0x13
 18626 0648 01       		.uleb128 0x1
 18627 0649 13       		.uleb128 0x13
 18628 064a 00       		.byte	0
 18629 064b 00       		.byte	0
 18630 064c 68       		.uleb128 0x68
 18631 064d 05       		.uleb128 0x5
 18632 064e 00       		.byte	0
 18633 064f 03       		.uleb128 0x3
 18634 0650 0E       		.uleb128 0xe
 18635 0651 49       		.uleb128 0x49
 18636 0652 13       		.uleb128 0x13
 18637 0653 34       		.uleb128 0x34
 18638 0654 19       		.uleb128 0x19
 18639 0655 00       		.byte	0
 18640 0656 00       		.byte	0
 18641 0657 69       		.uleb128 0x69
 18642 0658 2E       		.uleb128 0x2e
 18643 0659 01       		.byte	0x1
 18644 065a 31       		.uleb128 0x31
 18645 065b 13       		.uleb128 0x13
 18646 065c 6E       		.uleb128 0x6e
 18647 065d 0E       		.uleb128 0xe
 18648 065e 11       		.uleb128 0x11
 18649 065f 01       		.uleb128 0x1
ARM GAS  /tmp/ccypRU8x.s 			page 331


 18650 0660 12       		.uleb128 0x12
 18651 0661 06       		.uleb128 0x6
 18652 0662 40       		.uleb128 0x40
 18653 0663 18       		.uleb128 0x18
 18654 0664 64       		.uleb128 0x64
 18655 0665 13       		.uleb128 0x13
 18656 0666 9742     		.uleb128 0x2117
 18657 0668 19       		.uleb128 0x19
 18658 0669 01       		.uleb128 0x1
 18659 066a 13       		.uleb128 0x13
 18660 066b 00       		.byte	0
 18661 066c 00       		.byte	0
 18662 066d 6A       		.uleb128 0x6a
 18663 066e 05       		.uleb128 0x5
 18664 066f 00       		.byte	0
 18665 0670 31       		.uleb128 0x31
 18666 0671 13       		.uleb128 0x13
 18667 0672 02       		.uleb128 0x2
 18668 0673 18       		.uleb128 0x18
 18669 0674 00       		.byte	0
 18670 0675 00       		.byte	0
 18671 0676 6B       		.uleb128 0x6b
 18672 0677 2E       		.uleb128 0x2e
 18673 0678 01       		.byte	0x1
 18674 0679 47       		.uleb128 0x47
 18675 067a 13       		.uleb128 0x13
 18676 067b 11       		.uleb128 0x11
 18677 067c 01       		.uleb128 0x1
 18678 067d 12       		.uleb128 0x12
 18679 067e 06       		.uleb128 0x6
 18680 067f 40       		.uleb128 0x40
 18681 0680 18       		.uleb128 0x18
 18682 0681 64       		.uleb128 0x64
 18683 0682 13       		.uleb128 0x13
 18684 0683 9642     		.uleb128 0x2116
 18685 0685 19       		.uleb128 0x19
 18686 0686 01       		.uleb128 0x1
 18687 0687 13       		.uleb128 0x13
 18688 0688 00       		.byte	0
 18689 0689 00       		.byte	0
 18690 068a 6C       		.uleb128 0x6c
 18691 068b 34       		.uleb128 0x34
 18692 068c 00       		.byte	0
 18693 068d 03       		.uleb128 0x3
 18694 068e 0E       		.uleb128 0xe
 18695 068f 3A       		.uleb128 0x3a
 18696 0690 0B       		.uleb128 0xb
 18697 0691 3B       		.uleb128 0x3b
 18698 0692 0B       		.uleb128 0xb
 18699 0693 49       		.uleb128 0x49
 18700 0694 13       		.uleb128 0x13
 18701 0695 02       		.uleb128 0x2
 18702 0696 18       		.uleb128 0x18
 18703 0697 00       		.byte	0
 18704 0698 00       		.byte	0
 18705 0699 6D       		.uleb128 0x6d
 18706 069a 2E       		.uleb128 0x2e
ARM GAS  /tmp/ccypRU8x.s 			page 332


 18707 069b 00       		.byte	0
 18708 069c 47       		.uleb128 0x47
 18709 069d 13       		.uleb128 0x13
 18710 069e 3B       		.uleb128 0x3b
 18711 069f 0B       		.uleb128 0xb
 18712 06a0 11       		.uleb128 0x11
 18713 06a1 01       		.uleb128 0x1
 18714 06a2 12       		.uleb128 0x12
 18715 06a3 06       		.uleb128 0x6
 18716 06a4 40       		.uleb128 0x40
 18717 06a5 18       		.uleb128 0x18
 18718 06a6 9742     		.uleb128 0x2117
 18719 06a8 19       		.uleb128 0x19
 18720 06a9 00       		.byte	0
 18721 06aa 00       		.byte	0
 18722 06ab 6E       		.uleb128 0x6e
 18723 06ac 2E       		.uleb128 0x2e
 18724 06ad 01       		.byte	0x1
 18725 06ae 3F       		.uleb128 0x3f
 18726 06af 19       		.uleb128 0x19
 18727 06b0 03       		.uleb128 0x3
 18728 06b1 0E       		.uleb128 0xe
 18729 06b2 3A       		.uleb128 0x3a
 18730 06b3 0B       		.uleb128 0xb
 18731 06b4 3B       		.uleb128 0x3b
 18732 06b5 0B       		.uleb128 0xb
 18733 06b6 6E       		.uleb128 0x6e
 18734 06b7 0E       		.uleb128 0xe
 18735 06b8 11       		.uleb128 0x11
 18736 06b9 01       		.uleb128 0x1
 18737 06ba 12       		.uleb128 0x12
 18738 06bb 06       		.uleb128 0x6
 18739 06bc 40       		.uleb128 0x40
 18740 06bd 18       		.uleb128 0x18
 18741 06be 9642     		.uleb128 0x2116
 18742 06c0 19       		.uleb128 0x19
 18743 06c1 01       		.uleb128 0x1
 18744 06c2 13       		.uleb128 0x13
 18745 06c3 00       		.byte	0
 18746 06c4 00       		.byte	0
 18747 06c5 6F       		.uleb128 0x6f
 18748 06c6 0B       		.uleb128 0xb
 18749 06c7 01       		.byte	0x1
 18750 06c8 11       		.uleb128 0x11
 18751 06c9 01       		.uleb128 0x1
 18752 06ca 12       		.uleb128 0x12
 18753 06cb 06       		.uleb128 0x6
 18754 06cc 01       		.uleb128 0x1
 18755 06cd 13       		.uleb128 0x13
 18756 06ce 00       		.byte	0
 18757 06cf 00       		.byte	0
 18758 06d0 70       		.uleb128 0x70
 18759 06d1 34       		.uleb128 0x34
 18760 06d2 00       		.byte	0
 18761 06d3 03       		.uleb128 0x3
 18762 06d4 0E       		.uleb128 0xe
 18763 06d5 3A       		.uleb128 0x3a
ARM GAS  /tmp/ccypRU8x.s 			page 333


 18764 06d6 0B       		.uleb128 0xb
 18765 06d7 3B       		.uleb128 0x3b
 18766 06d8 05       		.uleb128 0x5
 18767 06d9 49       		.uleb128 0x49
 18768 06da 13       		.uleb128 0x13
 18769 06db 02       		.uleb128 0x2
 18770 06dc 18       		.uleb128 0x18
 18771 06dd 00       		.byte	0
 18772 06de 00       		.byte	0
 18773 06df 71       		.uleb128 0x71
 18774 06e0 2E       		.uleb128 0x2e
 18775 06e1 01       		.byte	0x1
 18776 06e2 03       		.uleb128 0x3
 18777 06e3 0E       		.uleb128 0xe
 18778 06e4 3A       		.uleb128 0x3a
 18779 06e5 0B       		.uleb128 0xb
 18780 06e6 3B       		.uleb128 0x3b
 18781 06e7 05       		.uleb128 0x5
 18782 06e8 11       		.uleb128 0x11
 18783 06e9 01       		.uleb128 0x1
 18784 06ea 12       		.uleb128 0x12
 18785 06eb 06       		.uleb128 0x6
 18786 06ec 40       		.uleb128 0x40
 18787 06ed 18       		.uleb128 0x18
 18788 06ee 9642     		.uleb128 0x2116
 18789 06f0 19       		.uleb128 0x19
 18790 06f1 01       		.uleb128 0x1
 18791 06f2 13       		.uleb128 0x13
 18792 06f3 00       		.byte	0
 18793 06f4 00       		.byte	0
 18794 06f5 72       		.uleb128 0x72
 18795 06f6 05       		.uleb128 0x5
 18796 06f7 00       		.byte	0
 18797 06f8 03       		.uleb128 0x3
 18798 06f9 08       		.uleb128 0x8
 18799 06fa 3A       		.uleb128 0x3a
 18800 06fb 0B       		.uleb128 0xb
 18801 06fc 3B       		.uleb128 0x3b
 18802 06fd 05       		.uleb128 0x5
 18803 06fe 49       		.uleb128 0x49
 18804 06ff 13       		.uleb128 0x13
 18805 0700 02       		.uleb128 0x2
 18806 0701 18       		.uleb128 0x18
 18807 0702 00       		.byte	0
 18808 0703 00       		.byte	0
 18809 0704 73       		.uleb128 0x73
 18810 0705 05       		.uleb128 0x5
 18811 0706 00       		.byte	0
 18812 0707 03       		.uleb128 0x3
 18813 0708 0E       		.uleb128 0xe
 18814 0709 3A       		.uleb128 0x3a
 18815 070a 0B       		.uleb128 0xb
 18816 070b 3B       		.uleb128 0x3b
 18817 070c 05       		.uleb128 0x5
 18818 070d 49       		.uleb128 0x49
 18819 070e 13       		.uleb128 0x13
 18820 070f 02       		.uleb128 0x2
ARM GAS  /tmp/ccypRU8x.s 			page 334


 18821 0710 18       		.uleb128 0x18
 18822 0711 00       		.byte	0
 18823 0712 00       		.byte	0
 18824 0713 74       		.uleb128 0x74
 18825 0714 34       		.uleb128 0x34
 18826 0715 00       		.byte	0
 18827 0716 03       		.uleb128 0x3
 18828 0717 08       		.uleb128 0x8
 18829 0718 3A       		.uleb128 0x3a
 18830 0719 0B       		.uleb128 0xb
 18831 071a 3B       		.uleb128 0x3b
 18832 071b 05       		.uleb128 0x5
 18833 071c 49       		.uleb128 0x49
 18834 071d 13       		.uleb128 0x13
 18835 071e 02       		.uleb128 0x2
 18836 071f 18       		.uleb128 0x18
 18837 0720 00       		.byte	0
 18838 0721 00       		.byte	0
 18839 0722 75       		.uleb128 0x75
 18840 0723 2E       		.uleb128 0x2e
 18841 0724 01       		.byte	0x1
 18842 0725 3F       		.uleb128 0x3f
 18843 0726 19       		.uleb128 0x19
 18844 0727 03       		.uleb128 0x3
 18845 0728 0E       		.uleb128 0xe
 18846 0729 3A       		.uleb128 0x3a
 18847 072a 0B       		.uleb128 0xb
 18848 072b 3B       		.uleb128 0x3b
 18849 072c 05       		.uleb128 0x5
 18850 072d 6E       		.uleb128 0x6e
 18851 072e 0E       		.uleb128 0xe
 18852 072f 49       		.uleb128 0x49
 18853 0730 13       		.uleb128 0x13
 18854 0731 11       		.uleb128 0x11
 18855 0732 01       		.uleb128 0x1
 18856 0733 12       		.uleb128 0x12
 18857 0734 06       		.uleb128 0x6
 18858 0735 40       		.uleb128 0x40
 18859 0736 18       		.uleb128 0x18
 18860 0737 9642     		.uleb128 0x2116
 18861 0739 19       		.uleb128 0x19
 18862 073a 01       		.uleb128 0x1
 18863 073b 13       		.uleb128 0x13
 18864 073c 00       		.byte	0
 18865 073d 00       		.byte	0
 18866 073e 76       		.uleb128 0x76
 18867 073f 2E       		.uleb128 0x2e
 18868 0740 01       		.byte	0x1
 18869 0741 47       		.uleb128 0x47
 18870 0742 13       		.uleb128 0x13
 18871 0743 20       		.uleb128 0x20
 18872 0744 0B       		.uleb128 0xb
 18873 0745 64       		.uleb128 0x64
 18874 0746 13       		.uleb128 0x13
 18875 0747 01       		.uleb128 0x1
 18876 0748 13       		.uleb128 0x13
 18877 0749 00       		.byte	0
ARM GAS  /tmp/ccypRU8x.s 			page 335


 18878 074a 00       		.byte	0
 18879 074b 77       		.uleb128 0x77
 18880 074c 05       		.uleb128 0x5
 18881 074d 00       		.byte	0
 18882 074e 03       		.uleb128 0x3
 18883 074f 0E       		.uleb128 0xe
 18884 0750 3A       		.uleb128 0x3a
 18885 0751 0B       		.uleb128 0xb
 18886 0752 3B       		.uleb128 0x3b
 18887 0753 0B       		.uleb128 0xb
 18888 0754 49       		.uleb128 0x49
 18889 0755 13       		.uleb128 0x13
 18890 0756 00       		.byte	0
 18891 0757 00       		.byte	0
 18892 0758 78       		.uleb128 0x78
 18893 0759 2E       		.uleb128 0x2e
 18894 075a 01       		.byte	0x1
 18895 075b 47       		.uleb128 0x47
 18896 075c 13       		.uleb128 0x13
 18897 075d 11       		.uleb128 0x11
 18898 075e 01       		.uleb128 0x1
 18899 075f 12       		.uleb128 0x12
 18900 0760 06       		.uleb128 0x6
 18901 0761 40       		.uleb128 0x40
 18902 0762 18       		.uleb128 0x18
 18903 0763 64       		.uleb128 0x64
 18904 0764 13       		.uleb128 0x13
 18905 0765 9742     		.uleb128 0x2117
 18906 0767 19       		.uleb128 0x19
 18907 0768 01       		.uleb128 0x1
 18908 0769 13       		.uleb128 0x13
 18909 076a 00       		.byte	0
 18910 076b 00       		.byte	0
 18911 076c 79       		.uleb128 0x79
 18912 076d 2E       		.uleb128 0x2e
 18913 076e 01       		.byte	0x1
 18914 076f 31       		.uleb128 0x31
 18915 0770 13       		.uleb128 0x13
 18916 0771 6E       		.uleb128 0x6e
 18917 0772 0E       		.uleb128 0xe
 18918 0773 11       		.uleb128 0x11
 18919 0774 01       		.uleb128 0x1
 18920 0775 12       		.uleb128 0x12
 18921 0776 06       		.uleb128 0x6
 18922 0777 40       		.uleb128 0x40
 18923 0778 18       		.uleb128 0x18
 18924 0779 64       		.uleb128 0x64
 18925 077a 13       		.uleb128 0x13
 18926 077b 9642     		.uleb128 0x2116
 18927 077d 19       		.uleb128 0x19
 18928 077e 01       		.uleb128 0x1
 18929 077f 13       		.uleb128 0x13
 18930 0780 00       		.byte	0
 18931 0781 00       		.byte	0
 18932 0782 7A       		.uleb128 0x7a
 18933 0783 2E       		.uleb128 0x2e
 18934 0784 01       		.byte	0x1
ARM GAS  /tmp/ccypRU8x.s 			page 336


 18935 0785 47       		.uleb128 0x47
 18936 0786 13       		.uleb128 0x13
 18937 0787 3A       		.uleb128 0x3a
 18938 0788 0B       		.uleb128 0xb
 18939 0789 3B       		.uleb128 0x3b
 18940 078a 0B       		.uleb128 0xb
 18941 078b 20       		.uleb128 0x20
 18942 078c 0B       		.uleb128 0xb
 18943 078d 64       		.uleb128 0x64
 18944 078e 13       		.uleb128 0x13
 18945 078f 01       		.uleb128 0x1
 18946 0790 13       		.uleb128 0x13
 18947 0791 00       		.byte	0
 18948 0792 00       		.byte	0
 18949 0793 7B       		.uleb128 0x7b
 18950 0794 2E       		.uleb128 0x2e
 18951 0795 01       		.byte	0x1
 18952 0796 03       		.uleb128 0x3
 18953 0797 0E       		.uleb128 0xe
 18954 0798 3A       		.uleb128 0x3a
 18955 0799 0B       		.uleb128 0xb
 18956 079a 3B       		.uleb128 0x3b
 18957 079b 0B       		.uleb128 0xb
 18958 079c 49       		.uleb128 0x49
 18959 079d 13       		.uleb128 0x13
 18960 079e 11       		.uleb128 0x11
 18961 079f 01       		.uleb128 0x1
 18962 07a0 12       		.uleb128 0x12
 18963 07a1 06       		.uleb128 0x6
 18964 07a2 40       		.uleb128 0x40
 18965 07a3 18       		.uleb128 0x18
 18966 07a4 9742     		.uleb128 0x2117
 18967 07a6 19       		.uleb128 0x19
 18968 07a7 01       		.uleb128 0x1
 18969 07a8 13       		.uleb128 0x13
 18970 07a9 00       		.byte	0
 18971 07aa 00       		.byte	0
 18972 07ab 7C       		.uleb128 0x7c
 18973 07ac 2E       		.uleb128 0x2e
 18974 07ad 01       		.byte	0x1
 18975 07ae 03       		.uleb128 0x3
 18976 07af 0E       		.uleb128 0xe
 18977 07b0 34       		.uleb128 0x34
 18978 07b1 19       		.uleb128 0x19
 18979 07b2 11       		.uleb128 0x11
 18980 07b3 01       		.uleb128 0x1
 18981 07b4 12       		.uleb128 0x12
 18982 07b5 06       		.uleb128 0x6
 18983 07b6 40       		.uleb128 0x40
 18984 07b7 18       		.uleb128 0x18
 18985 07b8 9642     		.uleb128 0x2116
 18986 07ba 19       		.uleb128 0x19
 18987 07bb 01       		.uleb128 0x1
 18988 07bc 13       		.uleb128 0x13
 18989 07bd 00       		.byte	0
 18990 07be 00       		.byte	0
 18991 07bf 7D       		.uleb128 0x7d
ARM GAS  /tmp/ccypRU8x.s 			page 337


 18992 07c0 2E       		.uleb128 0x2e
 18993 07c1 00       		.byte	0
 18994 07c2 03       		.uleb128 0x3
 18995 07c3 0E       		.uleb128 0xe
 18996 07c4 34       		.uleb128 0x34
 18997 07c5 19       		.uleb128 0x19
 18998 07c6 11       		.uleb128 0x11
 18999 07c7 01       		.uleb128 0x1
 19000 07c8 12       		.uleb128 0x12
 19001 07c9 06       		.uleb128 0x6
 19002 07ca 40       		.uleb128 0x40
 19003 07cb 18       		.uleb128 0x18
 19004 07cc 9642     		.uleb128 0x2116
 19005 07ce 19       		.uleb128 0x19
 19006 07cf 00       		.byte	0
 19007 07d0 00       		.byte	0
 19008 07d1 7E       		.uleb128 0x7e
 19009 07d2 34       		.uleb128 0x34
 19010 07d3 00       		.byte	0
 19011 07d4 03       		.uleb128 0x3
 19012 07d5 0E       		.uleb128 0xe
 19013 07d6 3A       		.uleb128 0x3a
 19014 07d7 0B       		.uleb128 0xb
 19015 07d8 3B       		.uleb128 0x3b
 19016 07d9 0B       		.uleb128 0xb
 19017 07da 49       		.uleb128 0x49
 19018 07db 13       		.uleb128 0x13
 19019 07dc 3F       		.uleb128 0x3f
 19020 07dd 19       		.uleb128 0x19
 19021 07de 3C       		.uleb128 0x3c
 19022 07df 19       		.uleb128 0x19
 19023 07e0 00       		.byte	0
 19024 07e1 00       		.byte	0
 19025 07e2 7F       		.uleb128 0x7f
 19026 07e3 34       		.uleb128 0x34
 19027 07e4 00       		.byte	0
 19028 07e5 03       		.uleb128 0x3
 19029 07e6 0E       		.uleb128 0xe
 19030 07e7 3A       		.uleb128 0x3a
 19031 07e8 0B       		.uleb128 0xb
 19032 07e9 3B       		.uleb128 0x3b
 19033 07ea 05       		.uleb128 0x5
 19034 07eb 49       		.uleb128 0x49
 19035 07ec 13       		.uleb128 0x13
 19036 07ed 3F       		.uleb128 0x3f
 19037 07ee 19       		.uleb128 0x19
 19038 07ef 3C       		.uleb128 0x3c
 19039 07f0 19       		.uleb128 0x19
 19040 07f1 00       		.byte	0
 19041 07f2 00       		.byte	0
 19042 07f3 8001     		.uleb128 0x80
 19043 07f5 34       		.uleb128 0x34
 19044 07f6 00       		.byte	0
 19045 07f7 03       		.uleb128 0x3
 19046 07f8 0E       		.uleb128 0xe
 19047 07f9 3A       		.uleb128 0x3a
 19048 07fa 0B       		.uleb128 0xb
ARM GAS  /tmp/ccypRU8x.s 			page 338


 19049 07fb 3B       		.uleb128 0x3b
 19050 07fc 0B       		.uleb128 0xb
 19051 07fd 49       		.uleb128 0x49
 19052 07fe 13       		.uleb128 0x13
 19053 07ff 3F       		.uleb128 0x3f
 19054 0800 19       		.uleb128 0x19
 19055 0801 02       		.uleb128 0x2
 19056 0802 18       		.uleb128 0x18
 19057 0803 00       		.byte	0
 19058 0804 00       		.byte	0
 19059 0805 8101     		.uleb128 0x81
 19060 0807 34       		.uleb128 0x34
 19061 0808 00       		.byte	0
 19062 0809 03       		.uleb128 0x3
 19063 080a 0E       		.uleb128 0xe
 19064 080b 49       		.uleb128 0x49
 19065 080c 13       		.uleb128 0x13
 19066 080d 3F       		.uleb128 0x3f
 19067 080e 19       		.uleb128 0x19
 19068 080f 34       		.uleb128 0x34
 19069 0810 19       		.uleb128 0x19
 19070 0811 3C       		.uleb128 0x3c
 19071 0812 19       		.uleb128 0x19
 19072 0813 00       		.byte	0
 19073 0814 00       		.byte	0
 19074 0815 00       		.byte	0
 19075              		.section	.debug_aranges,"",%progbits
 19076 0000 8C020000 		.4byte	0x28c
 19077 0004 0200     		.2byte	0x2
 19078 0006 00000000 		.4byte	.Ldebug_info0
 19079 000a 04       		.byte	0x4
 19080 000b 00       		.byte	0
 19081 000c 0000     		.2byte	0
 19082 000e 0000     		.2byte	0
 19083 0010 00000000 		.4byte	.LFB118
 19084 0014 20000000 		.4byte	.LFE118-.LFB118
 19085 0018 00000000 		.4byte	.LFB130
 19086 001c 0E000000 		.4byte	.LFE130-.LFB130
 19087 0020 00000000 		.4byte	.LFB131
 19088 0024 0E000000 		.4byte	.LFE131-.LFB131
 19089 0028 00000000 		.4byte	.LFB138
 19090 002c 08000000 		.4byte	.LFE138-.LFB138
 19091 0030 00000000 		.4byte	.LFB139
 19092 0034 08000000 		.4byte	.LFE139-.LFB139
 19093 0038 00000000 		.4byte	.LFB237
 19094 003c 18000000 		.4byte	.LFE237-.LFB237
 19095 0040 00000000 		.4byte	.LFB257
 19096 0044 20000000 		.4byte	.LFE257-.LFB257
 19097 0048 00000000 		.4byte	.LFB263
 19098 004c 16000000 		.4byte	.LFE263-.LFB263
 19099 0050 00000000 		.4byte	.LFB277
 19100 0054 22000000 		.4byte	.LFE277-.LFB277
 19101 0058 00000000 		.4byte	.LFB293
 19102 005c 12000000 		.4byte	.LFE293-.LFB293
 19103 0060 00000000 		.4byte	.LFB295
 19104 0064 16000000 		.4byte	.LFE295-.LFB295
 19105 0068 00000000 		.4byte	.LFB304
ARM GAS  /tmp/ccypRU8x.s 			page 339


 19106 006c 40000000 		.4byte	.LFE304-.LFB304
 19107 0070 00000000 		.4byte	.LFB305
 19108 0074 2A000000 		.4byte	.LFE305-.LFB305
 19109 0078 00000000 		.4byte	.LFB337
 19110 007c 0C000000 		.4byte	.LFE337-.LFB337
 19111 0080 00000000 		.4byte	.LFB341
 19112 0084 64000000 		.4byte	.LFE341-.LFB341
 19113 0088 00000000 		.4byte	.LFB348
 19114 008c 0C000000 		.4byte	.LFE348-.LFB348
 19115 0090 00000000 		.4byte	.LFB352
 19116 0094 12000000 		.4byte	.LFE352-.LFB352
 19117 0098 00000000 		.4byte	.LFB354
 19118 009c 0E000000 		.4byte	.LFE354-.LFB354
 19119 00a0 00000000 		.4byte	.LFB355
 19120 00a4 10000000 		.4byte	.LFE355-.LFB355
 19121 00a8 00000000 		.4byte	.LFB356
 19122 00ac 3C000000 		.4byte	.LFE356-.LFB356
 19123 00b0 00000000 		.4byte	.LFB362
 19124 00b4 18000000 		.4byte	.LFE362-.LFB362
 19125 00b8 00000000 		.4byte	.LFB363
 19126 00bc 18000000 		.4byte	.LFE363-.LFB363
 19127 00c0 00000000 		.4byte	.LFB364
 19128 00c4 18000000 		.4byte	.LFE364-.LFB364
 19129 00c8 00000000 		.4byte	.LFB381
 19130 00cc 24000000 		.4byte	.LFE381-.LFB381
 19131 00d0 00000000 		.4byte	.LFB382
 19132 00d4 30000000 		.4byte	.LFE382-.LFB382
 19133 00d8 00000000 		.4byte	.LFB386
 19134 00dc 1A000000 		.4byte	.LFE386-.LFB386
 19135 00e0 00000000 		.4byte	.LFB392
 19136 00e4 1A000000 		.4byte	.LFE392-.LFB392
 19137 00e8 00000000 		.4byte	.LFB393
 19138 00ec 3C000000 		.4byte	.LFE393-.LFB393
 19139 00f0 00000000 		.4byte	.LFB394
 19140 00f4 56000000 		.4byte	.LFE394-.LFB394
 19141 00f8 00000000 		.4byte	.LFB413
 19142 00fc 28000000 		.4byte	.LFE413-.LFB413
 19143 0100 00000000 		.4byte	.LFB598
 19144 0104 32000000 		.4byte	.LFE598-.LFB598
 19145 0108 00000000 		.4byte	.LFB599
 19146 010c 36000000 		.4byte	.LFE599-.LFB599
 19147 0110 00000000 		.4byte	.LFB600
 19148 0114 38020000 		.4byte	.LFE600-.LFB600
 19149 0118 00000000 		.4byte	.LFB601
 19150 011c CC030000 		.4byte	.LFE601-.LFB601
 19151 0120 00000000 		.4byte	.LFB602
 19152 0124 E4000000 		.4byte	.LFE602-.LFB602
 19153 0128 00000000 		.4byte	.LFB603
 19154 012c 20010000 		.4byte	.LFE603-.LFB603
 19155 0130 00000000 		.4byte	.LFB604
 19156 0134 9C000000 		.4byte	.LFE604-.LFB604
 19157 0138 00000000 		.4byte	.LFB605
 19158 013c 40000000 		.4byte	.LFE605-.LFB605
 19159 0140 00000000 		.4byte	.LFB606
 19160 0144 DC000000 		.4byte	.LFE606-.LFB606
 19161 0148 00000000 		.4byte	.LFB607
 19162 014c C0000000 		.4byte	.LFE607-.LFB607
ARM GAS  /tmp/ccypRU8x.s 			page 340


 19163 0150 00000000 		.4byte	.LFB609
 19164 0154 14000000 		.4byte	.LFE609-.LFB609
 19165 0158 00000000 		.4byte	.LFB617
 19166 015c 0E000000 		.4byte	.LFE617-.LFB617
 19167 0160 00000000 		.4byte	.LFB618
 19168 0164 5E000000 		.4byte	.LFE618-.LFB618
 19169 0168 00000000 		.4byte	.LFB619
 19170 016c 60000000 		.4byte	.LFE619-.LFB619
 19171 0170 00000000 		.4byte	.LFB630
 19172 0174 24000000 		.4byte	.LFE630-.LFB630
 19173 0178 00000000 		.4byte	.LFB633
 19174 017c 24000000 		.4byte	.LFE633-.LFB633
 19175 0180 00000000 		.4byte	.LFB637
 19176 0184 18000000 		.4byte	.LFE637-.LFB637
 19177 0188 00000000 		.4byte	.LFB639
 19178 018c 48000000 		.4byte	.LFE639-.LFB639
 19179 0190 00000000 		.4byte	.LFB643
 19180 0194 18000000 		.4byte	.LFE643-.LFB643
 19181 0198 00000000 		.4byte	.LFB645
 19182 019c 48000000 		.4byte	.LFE645-.LFB645
 19183 01a0 00000000 		.4byte	.LFB647
 19184 01a4 28000000 		.4byte	.LFE647-.LFB647
 19185 01a8 00000000 		.4byte	.LFB648
 19186 01ac 1C000000 		.4byte	.LFE648-.LFB648
 19187 01b0 00000000 		.4byte	.LFB649
 19188 01b4 48000000 		.4byte	.LFE649-.LFB649
 19189 01b8 00000000 		.4byte	.LFB650
 19190 01bc 1E000000 		.4byte	.LFE650-.LFB650
 19191 01c0 00000000 		.4byte	.LFB651
 19192 01c4 2A000000 		.4byte	.LFE651-.LFB651
 19193 01c8 00000000 		.4byte	.LFB652
 19194 01cc 1C000000 		.4byte	.LFE652-.LFB652
 19195 01d0 00000000 		.4byte	.LFB653
 19196 01d4 1E000000 		.4byte	.LFE653-.LFB653
 19197 01d8 00000000 		.4byte	.LFB654
 19198 01dc 2A000000 		.4byte	.LFE654-.LFB654
 19199 01e0 00000000 		.4byte	.LFB655
 19200 01e4 1C000000 		.4byte	.LFE655-.LFB655
 19201 01e8 00000000 		.4byte	.LFB656
 19202 01ec 1E000000 		.4byte	.LFE656-.LFB656
 19203 01f0 00000000 		.4byte	.LFB657
 19204 01f4 28000000 		.4byte	.LFE657-.LFB657
 19205 01f8 00000000 		.4byte	.LFB658
 19206 01fc 1C000000 		.4byte	.LFE658-.LFB658
 19207 0200 00000000 		.4byte	.LFB659
 19208 0204 1E000000 		.4byte	.LFE659-.LFB659
 19209 0208 00000000 		.4byte	.LFB663
 19210 020c 30000000 		.4byte	.LFE663-.LFB663
 19211 0210 00000000 		.4byte	.LFB666
 19212 0214 30000000 		.4byte	.LFE666-.LFB666
 19213 0218 00000000 		.4byte	.LFB668
 19214 021c 1C000000 		.4byte	.LFE668-.LFB668
 19215 0220 00000000 		.4byte	.LFB670
 19216 0224 30000000 		.4byte	.LFE670-.LFB670
 19217 0228 00000000 		.4byte	.LFB673
 19218 022c 30000000 		.4byte	.LFE673-.LFB673
 19219 0230 00000000 		.4byte	.LFB675
ARM GAS  /tmp/ccypRU8x.s 			page 341


 19220 0234 1C000000 		.4byte	.LFE675-.LFB675
 19221 0238 00000000 		.4byte	.LFB678
 19222 023c FC000000 		.4byte	.LFE678-.LFB678
 19223 0240 00000000 		.4byte	.LFB680
 19224 0244 30000000 		.4byte	.LFE680-.LFB680
 19225 0248 00000000 		.4byte	.LFB682
 19226 024c 1C000000 		.4byte	.LFE682-.LFB682
 19227 0250 00000000 		.4byte	.LFB684
 19228 0254 30000000 		.4byte	.LFE684-.LFB684
 19229 0258 00000000 		.4byte	.LFB686
 19230 025c 1C000000 		.4byte	.LFE686-.LFB686
 19231 0260 00000000 		.4byte	.LFB688
 19232 0264 30000000 		.4byte	.LFE688-.LFB688
 19233 0268 00000000 		.4byte	.LFB690
 19234 026c 1C000000 		.4byte	.LFE690-.LFB690
 19235 0270 00000000 		.4byte	.LFB692
 19236 0274 30000000 		.4byte	.LFE692-.LFB692
 19237 0278 00000000 		.4byte	.LFB694
 19238 027c 1C000000 		.4byte	.LFE694-.LFB694
 19239 0280 00000000 		.4byte	.LFB695
 19240 0284 0E000000 		.4byte	.LFE695-.LFB695
 19241 0288 00000000 		.4byte	0
 19242 028c 00000000 		.4byte	0
 19243              		.section	.debug_ranges,"",%progbits
 19244              	.Ldebug_ranges0:
 19245 0000 00000000 		.4byte	.LFB118
 19246 0004 20000000 		.4byte	.LFE118
 19247 0008 00000000 		.4byte	.LFB130
 19248 000c 0E000000 		.4byte	.LFE130
 19249 0010 00000000 		.4byte	.LFB131
 19250 0014 0E000000 		.4byte	.LFE131
 19251 0018 00000000 		.4byte	.LFB138
 19252 001c 08000000 		.4byte	.LFE138
 19253 0020 00000000 		.4byte	.LFB139
 19254 0024 08000000 		.4byte	.LFE139
 19255 0028 00000000 		.4byte	.LFB237
 19256 002c 18000000 		.4byte	.LFE237
 19257 0030 00000000 		.4byte	.LFB257
 19258 0034 20000000 		.4byte	.LFE257
 19259 0038 00000000 		.4byte	.LFB263
 19260 003c 16000000 		.4byte	.LFE263
 19261 0040 00000000 		.4byte	.LFB277
 19262 0044 22000000 		.4byte	.LFE277
 19263 0048 00000000 		.4byte	.LFB293
 19264 004c 12000000 		.4byte	.LFE293
 19265 0050 00000000 		.4byte	.LFB295
 19266 0054 16000000 		.4byte	.LFE295
 19267 0058 00000000 		.4byte	.LFB304
 19268 005c 40000000 		.4byte	.LFE304
 19269 0060 00000000 		.4byte	.LFB305
 19270 0064 2A000000 		.4byte	.LFE305
 19271 0068 00000000 		.4byte	.LFB337
 19272 006c 0C000000 		.4byte	.LFE337
 19273 0070 00000000 		.4byte	.LFB341
 19274 0074 64000000 		.4byte	.LFE341
 19275 0078 00000000 		.4byte	.LFB348
 19276 007c 0C000000 		.4byte	.LFE348
ARM GAS  /tmp/ccypRU8x.s 			page 342


 19277 0080 00000000 		.4byte	.LFB352
 19278 0084 12000000 		.4byte	.LFE352
 19279 0088 00000000 		.4byte	.LFB354
 19280 008c 0E000000 		.4byte	.LFE354
 19281 0090 00000000 		.4byte	.LFB355
 19282 0094 10000000 		.4byte	.LFE355
 19283 0098 00000000 		.4byte	.LFB356
 19284 009c 3C000000 		.4byte	.LFE356
 19285 00a0 00000000 		.4byte	.LFB362
 19286 00a4 18000000 		.4byte	.LFE362
 19287 00a8 00000000 		.4byte	.LFB363
 19288 00ac 18000000 		.4byte	.LFE363
 19289 00b0 00000000 		.4byte	.LFB364
 19290 00b4 18000000 		.4byte	.LFE364
 19291 00b8 00000000 		.4byte	.LFB381
 19292 00bc 24000000 		.4byte	.LFE381
 19293 00c0 00000000 		.4byte	.LFB382
 19294 00c4 30000000 		.4byte	.LFE382
 19295 00c8 00000000 		.4byte	.LFB386
 19296 00cc 1A000000 		.4byte	.LFE386
 19297 00d0 00000000 		.4byte	.LFB392
 19298 00d4 1A000000 		.4byte	.LFE392
 19299 00d8 00000000 		.4byte	.LFB393
 19300 00dc 3C000000 		.4byte	.LFE393
 19301 00e0 00000000 		.4byte	.LFB394
 19302 00e4 56000000 		.4byte	.LFE394
 19303 00e8 00000000 		.4byte	.LFB413
 19304 00ec 28000000 		.4byte	.LFE413
 19305 00f0 00000000 		.4byte	.LFB598
 19306 00f4 32000000 		.4byte	.LFE598
 19307 00f8 00000000 		.4byte	.LFB599
 19308 00fc 36000000 		.4byte	.LFE599
 19309 0100 00000000 		.4byte	.LFB600
 19310 0104 38020000 		.4byte	.LFE600
 19311 0108 00000000 		.4byte	.LFB601
 19312 010c CC030000 		.4byte	.LFE601
 19313 0110 00000000 		.4byte	.LFB602
 19314 0114 E4000000 		.4byte	.LFE602
 19315 0118 00000000 		.4byte	.LFB603
 19316 011c 20010000 		.4byte	.LFE603
 19317 0120 00000000 		.4byte	.LFB604
 19318 0124 9C000000 		.4byte	.LFE604
 19319 0128 00000000 		.4byte	.LFB605
 19320 012c 40000000 		.4byte	.LFE605
 19321 0130 00000000 		.4byte	.LFB606
 19322 0134 DC000000 		.4byte	.LFE606
 19323 0138 00000000 		.4byte	.LFB607
 19324 013c C0000000 		.4byte	.LFE607
 19325 0140 00000000 		.4byte	.LFB609
 19326 0144 14000000 		.4byte	.LFE609
 19327 0148 00000000 		.4byte	.LFB617
 19328 014c 0E000000 		.4byte	.LFE617
 19329 0150 00000000 		.4byte	.LFB618
 19330 0154 5E000000 		.4byte	.LFE618
 19331 0158 00000000 		.4byte	.LFB619
 19332 015c 60000000 		.4byte	.LFE619
 19333 0160 00000000 		.4byte	.LFB630
ARM GAS  /tmp/ccypRU8x.s 			page 343


 19334 0164 24000000 		.4byte	.LFE630
 19335 0168 00000000 		.4byte	.LFB633
 19336 016c 24000000 		.4byte	.LFE633
 19337 0170 00000000 		.4byte	.LFB637
 19338 0174 18000000 		.4byte	.LFE637
 19339 0178 00000000 		.4byte	.LFB639
 19340 017c 48000000 		.4byte	.LFE639
 19341 0180 00000000 		.4byte	.LFB643
 19342 0184 18000000 		.4byte	.LFE643
 19343 0188 00000000 		.4byte	.LFB645
 19344 018c 48000000 		.4byte	.LFE645
 19345 0190 00000000 		.4byte	.LFB647
 19346 0194 28000000 		.4byte	.LFE647
 19347 0198 00000000 		.4byte	.LFB648
 19348 019c 1C000000 		.4byte	.LFE648
 19349 01a0 00000000 		.4byte	.LFB649
 19350 01a4 48000000 		.4byte	.LFE649
 19351 01a8 00000000 		.4byte	.LFB650
 19352 01ac 1E000000 		.4byte	.LFE650
 19353 01b0 00000000 		.4byte	.LFB651
 19354 01b4 2A000000 		.4byte	.LFE651
 19355 01b8 00000000 		.4byte	.LFB652
 19356 01bc 1C000000 		.4byte	.LFE652
 19357 01c0 00000000 		.4byte	.LFB653
 19358 01c4 1E000000 		.4byte	.LFE653
 19359 01c8 00000000 		.4byte	.LFB654
 19360 01cc 2A000000 		.4byte	.LFE654
 19361 01d0 00000000 		.4byte	.LFB655
 19362 01d4 1C000000 		.4byte	.LFE655
 19363 01d8 00000000 		.4byte	.LFB656
 19364 01dc 1E000000 		.4byte	.LFE656
 19365 01e0 00000000 		.4byte	.LFB657
 19366 01e4 28000000 		.4byte	.LFE657
 19367 01e8 00000000 		.4byte	.LFB658
 19368 01ec 1C000000 		.4byte	.LFE658
 19369 01f0 00000000 		.4byte	.LFB659
 19370 01f4 1E000000 		.4byte	.LFE659
 19371 01f8 00000000 		.4byte	.LFB663
 19372 01fc 30000000 		.4byte	.LFE663
 19373 0200 00000000 		.4byte	.LFB666
 19374 0204 30000000 		.4byte	.LFE666
 19375 0208 00000000 		.4byte	.LFB668
 19376 020c 1C000000 		.4byte	.LFE668
 19377 0210 00000000 		.4byte	.LFB670
 19378 0214 30000000 		.4byte	.LFE670
 19379 0218 00000000 		.4byte	.LFB673
 19380 021c 30000000 		.4byte	.LFE673
 19381 0220 00000000 		.4byte	.LFB675
 19382 0224 1C000000 		.4byte	.LFE675
 19383 0228 00000000 		.4byte	.LFB678
 19384 022c FC000000 		.4byte	.LFE678
 19385 0230 00000000 		.4byte	.LFB680
 19386 0234 30000000 		.4byte	.LFE680
 19387 0238 00000000 		.4byte	.LFB682
 19388 023c 1C000000 		.4byte	.LFE682
 19389 0240 00000000 		.4byte	.LFB684
 19390 0244 30000000 		.4byte	.LFE684
ARM GAS  /tmp/ccypRU8x.s 			page 344


 19391 0248 00000000 		.4byte	.LFB686
 19392 024c 1C000000 		.4byte	.LFE686
 19393 0250 00000000 		.4byte	.LFB688
 19394 0254 30000000 		.4byte	.LFE688
 19395 0258 00000000 		.4byte	.LFB690
 19396 025c 1C000000 		.4byte	.LFE690
 19397 0260 00000000 		.4byte	.LFB692
 19398 0264 30000000 		.4byte	.LFE692
 19399 0268 00000000 		.4byte	.LFB694
 19400 026c 1C000000 		.4byte	.LFE694
 19401 0270 00000000 		.4byte	.LFB695
 19402 0274 0E000000 		.4byte	.LFE695
 19403 0278 00000000 		.4byte	0
 19404 027c 00000000 		.4byte	0
 19405              		.section	.debug_line,"",%progbits
 19406              	.Ldebug_line0:
 19407 0000 FC0E0000 		.section	.debug_str,"MS",%progbits,1
 19407      0200D706 
 19407      00000201 
 19407      FB0E0D00 
 19407      01010101 
 19408              	.LASF143:
 19409 0000 5553425F 		.ascii	"USB_STOP\000"
 19409      53544F50 
 19409      00
 19410              	.LASF796:
 19411 0009 5F5A4E33 		.ascii	"_ZN3r2p16SubscriberExtBufINS_12ProximityMsgEE5fetch"
 19411      72327031 
 19411      36537562 
 19411      73637269 
 19411      62657245 
 19412 003c 45525053 		.ascii	"ERPS1_\000"
 19412      315F00
 19413              	.LASF277:
 19414 0043 416C6C6F 		.ascii	"Allocator\000"
 19414      6361746F 
 19414      7200
 19415              	.LASF481:
 19416 004d 5F5A4E4B 		.ascii	"_ZNK3r2p5Topic13is_forwardingEv\000"
 19416      33723270 
 19416      35546F70 
 19416      69633133 
 19416      69735F66 
 19417              	.LASF217:
 19418 006d 6576656E 		.ascii	"event\000"
 19418      7400
 19419              	.LASF66:
 19420 0073 696E7463 		.ascii	"intctx\000"
 19420      747800
 19421              	.LASF447:
 19422 007a 5F5A4E4B 		.ascii	"_ZNK3r2p10StaticListINS_5TopicEE5countEv\000"
 19422      33723270 
 19422      31305374 
 19422      61746963 
 19422      4C697374 
 19423              	.LASF876:
 19424 00a3 7368656C 		.ascii	"shell_node\000"
ARM GAS  /tmp/ccypRU8x.s 			page 345


 19424      6C5F6E6F 
 19424      646500
 19425              	.LASF369:
 19426 00ae 5F5A4E4B 		.ascii	"_ZNK3r2p10StaticListINS_15LocalSubscriberEE5countEv"
 19426      33723270 
 19426      31305374 
 19426      61746963 
 19426      4C697374 
 19427 00e1 00       		.ascii	"\000"
 19428              	.LASF652:
 19429 00e2 5F5A4E4B 		.ascii	"_ZNK3r2p6Thread8get_nameEv\000"
 19429      33723270 
 19429      36546872 
 19429      65616438 
 19429      6765745F 
 19430              	.LASF31:
 19431 00fd 6D73675F 		.ascii	"msg_t\000"
 19431      7400
 19432              	.LASF353:
 19433 0103 5F5A4E4B 		.ascii	"_ZNK3r2p10StaticListINS_15LocalSubscriberEE17find_f"
 19433      33723270 
 19433      31305374 
 19433      61746963 
 19433      4C697374 
 19434 0136 69727374 		.ascii	"irst_unsafeEPFbRKS1_E\000"
 19434      5F756E73 
 19434      61666545 
 19434      50466252 
 19434      4B53315F 
 19435              	.LASF560:
 19436 014c 53746174 		.ascii	"StaticList<r2p::LocalPublisher>\000"
 19436      69634C69 
 19436      73743C72 
 19436      32703A3A 
 19436      4C6F6361 
 19437              	.LASF677:
 19438 016c 5F5A4E4B 		.ascii	"_ZNK3r2p9SpinEvent10get_threadEv\000"
 19438      33723270 
 19438      39537069 
 19438      6E457665 
 19438      6E743130 
 19439              	.LASF553:
 19440 018d 5F5A4E33 		.ascii	"_ZN3r2p7Message16get_payload_sizeEj\000"
 19440      72327037 
 19440      4D657373 
 19440      61676531 
 19440      36676574 
 19441              	.LASF467:
 19442 01b1 72656D6F 		.ascii	"remote_subscribers\000"
 19442      74655F73 
 19442      75627363 
 19442      72696265 
 19442      727300
 19443              	.LASF558:
 19444 01c4 52656D6F 		.ascii	"RemotePublisher\000"
 19444      74655075 
 19444      626C6973 
ARM GAS  /tmp/ccypRU8x.s 			page 346


 19444      68657200 
 19445              	.LASF562:
 19446 01d4 5F5A4E33 		.ascii	"_ZN3r2p10StaticListINS_14LocalPublisherEE13ConstIte"
 19446      72327031 
 19446      30537461 
 19446      7469634C 
 19446      69737449 
 19447 0207 7261746F 		.ascii	"ratoraSERKS3_\000"
 19447      72615345 
 19447      524B5333 
 19447      5F00
 19448              	.LASF527:
 19449 0215 5F5A4E33 		.ascii	"_ZN3r2p5Topic9advertiseERNS_15RemotePublisherERKNS_"
 19449      72327035 
 19449      546F7069 
 19449      63396164 
 19449      76657274 
 19450 0248 3454696D 		.ascii	"4TimeE\000"
 19450      654500
 19451              	.LASF3:
 19452 024f 5F5F7569 		.ascii	"__uint8_t\000"
 19452      6E74385F 
 19452      7400
 19453              	.LASF740:
 19454 0259 5F5A4E33 		.ascii	"_ZN3r2p4Node6notifyEj\000"
 19454      72327034 
 19454      4E6F6465 
 19454      366E6F74 
 19454      69667945 
 19455              	.LASF666:
 19456 026f 6765745F 		.ascii	"get_thread\000"
 19456      74687265 
 19456      616400
 19457              	.LASF544:
 19458 027a 5F5A4E33 		.ascii	"_ZN3r2p7Message12reset_unsafeEv\000"
 19458      72327037 
 19458      4D657373 
 19458      61676531 
 19458      32726573 
 19459              	.LASF591:
 19460 029a 5F5A4E4B 		.ascii	"_ZNK3r2p10StaticListINS_14LocalPublisherEE8index_of"
 19460      33723270 
 19460      31305374 
 19460      61746963 
 19460      4C697374 
 19461 02cd 45524B53 		.ascii	"ERKS1_\000"
 19461      315F00
 19462              	.LASF816:
 19463 02d4 6E6F7469 		.ascii	"notify_advertised\000"
 19463      66795F61 
 19463      64766572 
 19463      74697365 
 19463      6400
 19464              	.LASF870:
 19465 02e6 636D645F 		.ascii	"cmd_proximity\000"
 19465      70726F78 
 19465      696D6974 
ARM GAS  /tmp/ccypRU8x.s 			page 347


 19465      7900
 19466              	.LASF685:
 19467 02f4 5F5A4E4B 		.ascii	"_ZNK3r2p10StaticListINS_4NodeEE13ConstIteratordeEv\000"
 19467      33723270 
 19467      31305374 
 19467      61746963 
 19467      4C697374 
 19468              	.LASF697:
 19469 0327 5F5A4E4B 		.ascii	"_ZNK3r2p10StaticListINS_4NodeEE15index_of_unsafeERK"
 19469      33723270 
 19469      31305374 
 19469      61746963 
 19469      4C697374 
 19470 035a 53315F00 		.ascii	"S1_\000"
 19471              	.LASF841:
 19472 035e 73746174 		.ascii	"static_cast_check<r2p::PixyMsg, r2p::Message>\000"
 19472      69635F63 
 19472      6173745F 
 19472      63686563 
 19472      6B3C7232 
 19473              	.LASF788:
 19474 038c 7E426173 		.ascii	"~BaseSubscriber\000"
 19474      65537562 
 19474      73637269 
 19474      62657200 
 19475              	.LASF737:
 19476 039c 6E6F7469 		.ascii	"notify_stop_unsafe\000"
 19476      66795F73 
 19476      746F705F 
 19476      756E7361 
 19476      666500
 19477              	.LASF921:
 19478 03af 70697879 		.ascii	"pixy_first_time\000"
 19478      5F666972 
 19478      73745F74 
 19478      696D6500 
 19479              	.LASF87:
 19480 03bf 6D656D67 		.ascii	"memgetfunc_t\000"
 19480      65746675 
 19480      6E635F74 
 19480      00
 19481              	.LASF715:
 19482 03cc 5F5A4E4B 		.ascii	"_ZNK3r2p10StaticListINS_4NodeEE10find_firstEPFbRKS1"
 19482      33723270 
 19482      31305374 
 19482      61746963 
 19482      4C697374 
 19483 03ff 5F504B76 		.ascii	"_PKvES6_\000"
 19483      4553365F 
 19483      00
 19484              	.LASF446:
 19485 0408 5F5A4E4B 		.ascii	"_ZNK3r2p10StaticListINS_5TopicEE8is_emptyEv\000"
 19485      33723270 
 19485      31305374 
 19485      61746963 
 19485      4C697374 
 19486              	.LASF836:
ARM GAS  /tmp/ccypRU8x.s 			page 348


 19487 0434 5F5A4E33 		.ascii	"_ZN3r2p9PublisherINS_9Speed3MsgEE7publishEPS1_\000"
 19487      72327039 
 19487      5075626C 
 19487      69736865 
 19487      72494E53 
 19488              	.LASF538:
 19489 0463 6765745F 		.ascii	"get_raw_data\000"
 19489      7261775F 
 19489      64617461 
 19489      00
 19490              	.LASF888:
 19491 0470 5F5A4E33 		.ascii	"_ZN3r2p12ProximityMsgC2Ev\000"
 19491      72327031 
 19491      3250726F 
 19491      78696D69 
 19491      74794D73 
 19492              	.LASF667:
 19493 048a 5F5A4E4B 		.ascii	"_ZNK3r2p10SpinEvent_10get_threadEv\000"
 19493      33723270 
 19493      31305370 
 19493      696E4576 
 19493      656E745F 
 19494              	.LASF439:
 19495 04ad 5F5A4E33 		.ascii	"_ZN3r2p10StaticListINS_5TopicEE12begin_unsafeEv\000"
 19495      72327031 
 19495      30537461 
 19495      7469634C 
 19495      69737449 
 19496              	.LASF521:
 19497 04dd 666F7277 		.ascii	"forward_copy\000"
 19497      6172645F 
 19497      636F7079 
 19497      00
 19498              	.LASF781:
 19499 04ea 616E676C 		.ascii	"angle\000"
 19499      6500
 19500              	.LASF79:
 19501 04f0 6D5F6E65 		.ascii	"m_next\000"
 19501      787400
 19502              	.LASF706:
 19503 04f7 5F5A4E4B 		.ascii	"_ZNK3r2p10StaticListINS_4NodeEE14restart_unsafeERNS"
 19503      33723270 
 19503      31305374 
 19503      61746963 
 19503      4C697374 
 19504 052a 325F3139 		.ascii	"2_19ConstIteratorUnsafeE\000"
 19504      436F6E73 
 19504      74497465 
 19504      7261746F 
 19504      72556E73 
 19505              	.LASF700:
 19506 0543 5F5A4E4B 		.ascii	"_ZNK3r2p10StaticListINS_4NodeEE17find_first_unsafeE"
 19506      33723270 
 19506      31305374 
 19506      61746963 
 19506      4C697374 
 19507 0576 50466252 		.ascii	"PFbRKS1_PKvES6_\000"
ARM GAS  /tmp/ccypRU8x.s 			page 349


 19507      4B53315F 
 19507      504B7645 
 19507      53365F00 
 19508              	.LASF110:
 19509 0586 72656164 		.ascii	"read\000"
 19509      00
 19510              	.LASF241:
 19511 058b 73635F63 		.ascii	"sc_channel\000"
 19511      68616E6E 
 19511      656C00
 19512              	.LASF286:
 19513 0596 746F5F73 		.ascii	"to_s_raw\000"
 19513      5F726177 
 19513      00
 19514              	.LASF674:
 19515 059f 77616974 		.ascii	"wait\000"
 19515      00
 19516              	.LASF691:
 19517 05a4 5F5A4E4B 		.ascii	"_ZNK3r2p10StaticListINS_4NodeEE15get_head_unsafeEv\000"
 19517      33723270 
 19517      31305374 
 19517      61746963 
 19517      4C697374 
 19518              	.LASF394:
 19519 05d7 5F5A4E33 		.ascii	"_ZN3r2p15LocalSubscriber12fetch_unsafeERPNS_7Messag"
 19519      72327031 
 19519      354C6F63 
 19519      616C5375 
 19519      62736372 
 19520 060a 6545524E 		.ascii	"eERNS_4TimeE\000"
 19520      535F3454 
 19520      696D6545 
 19520      00
 19521              	.LASF20:
 19522 0617 75696E74 		.ascii	"uint16_t\000"
 19522      31365F74 
 19522      00
 19523              	.LASF698:
 19524 0620 5F5A4E4B 		.ascii	"_ZNK3r2p10StaticListINS_4NodeEE15contains_unsafeERK"
 19524      33723270 
 19524      31305374 
 19524      61746963 
 19524      4C697374 
 19525 0653 53315F00 		.ascii	"S1_\000"
 19526              	.LASF680:
 19527 0657 5F5A4E33 		.ascii	"_ZN3r2p9SpinEvent6signalEj\000"
 19527      72327039 
 19527      5370696E 
 19527      4576656E 
 19527      74367369 
 19528              	.LASF208:
 19529 0672 736F665F 		.ascii	"sof_cb\000"
 19529      636200
 19530              	.LASF795:
 19531 0679 5F5A4E4B 		.ascii	"_ZNK3r2p16SubscriberExtBufINS_12ProximityMsgEE12get"
 19531      33723270 
 19531      31365375 
ARM GAS  /tmp/ccypRU8x.s 			page 350


 19531      62736372 
 19531      69626572 
 19532 06ac 5F63616C 		.ascii	"_callbackEv\000"
 19532      6C626163 
 19532      6B457600 
 19533              	.LASF551:
 19534 06b8 6765745F 		.ascii	"get_msg_from_raw_data\000"
 19534      6D73675F 
 19534      66726F6D 
 19534      5F726177 
 19534      5F646174 
 19535              	.LASF404:
 19536 06ce 5F5A4E4B 		.ascii	"_ZNK3r2p10StaticListINS_16RemoteSubscriberEE17find_"
 19536      33723270 
 19536      31305374 
 19536      61746963 
 19536      4C697374 
 19537 0701 66697273 		.ascii	"first_unsafeEPFbRKS1_E\000"
 19537      745F756E 
 19537      73616665 
 19537      45504662 
 19537      524B5331 
 19538              	.LASF450:
 19539 0718 5F5A4E4B 		.ascii	"_ZNK3r2p10StaticListINS_5TopicEE8index_ofERKS1_\000"
 19539      33723270 
 19539      31305374 
 19539      61746963 
 19539      4C697374 
 19540              	.LASF603:
 19541 0748 6C656E67 		.ascii	"length\000"
 19541      746800
 19542              	.LASF610:
 19543 074f 6765745F 		.ascii	"get_length\000"
 19543      6C656E67 
 19543      746800
 19544              	.LASF81:
 19545 075a 656C5F6E 		.ascii	"el_next\000"
 19545      65787400 
 19546              	.LASF130:
 19547 0762 696E5F70 		.ascii	"in_params\000"
 19547      6172616D 
 19547      7300
 19548              	.LASF824:
 19549 076c 5F5A4E33 		.ascii	"_ZN3r2p13BasePublisher23publish_remotely_unsafeERNS"
 19549      72327031 
 19549      33426173 
 19549      65507562 
 19549      6C697368 
 19550 079f 5F374D65 		.ascii	"_7MessageE\000"
 19550      73736167 
 19550      654500
 19551              	.LASF309:
 19552 07aa 54696D65 		.ascii	"Time<long int>\000"
 19552      3C6C6F6E 
 19552      6720696E 
 19552      743E00
 19553              	.LASF830:
ARM GAS  /tmp/ccypRU8x.s 			page 351


 19554 07b9 5F5A4E33 		.ascii	"_ZN3r2p13BasePublisher16publish_remotelyERNS_7Messa"
 19554      72327031 
 19554      33426173 
 19554      65507562 
 19554      6C697368 
 19555 07ec 67654500 		.ascii	"geE\000"
 19556              	.LASF44:
 19557 07f0 705F6E65 		.ascii	"p_newer\000"
 19557      77657200 
 19558              	.LASF484:
 19559 07f8 6861735F 		.ascii	"has_remote_publishers\000"
 19559      72656D6F 
 19559      74655F70 
 19559      75626C69 
 19559      73686572 
 19560              	.LASF881:
 19561 080e 5F5A4E33 		.ascii	"_ZN3r2p4TimeC2IlEET_\000"
 19561      72327034 
 19561      54696D65 
 19561      4332496C 
 19561      4545545F 
 19562              	.LASF589:
 19563 0823 5F5A4E33 		.ascii	"_ZN3r2p10StaticListINS_14LocalPublisherEE4linkERNS2"
 19563      72327031 
 19563      30537461 
 19563      7469634C 
 19563      69737449 
 19564 0856 5F344C69 		.ascii	"_4LinkE\000"
 19564      6E6B4500 
 19565              	.LASF893:
 19566 085e 5F5A4E33 		.ascii	"_ZN3r2p16SubscriberExtBufINS_7PixyMsgEED2Ev\000"
 19566      72327031 
 19566      36537562 
 19566      73637269 
 19566      62657245 
 19567              	.LASF407:
 19568 088a 5F5A4E33 		.ascii	"_ZN3r2p10StaticListINS_16RemoteSubscriberEE10end_un"
 19568      72327031 
 19568      30537461 
 19568      7469634C 
 19568      69737449 
 19569 08bd 73616665 		.ascii	"safeEv\000"
 19569      457600
 19570              	.LASF780:
 19571 08c4 68656967 		.ascii	"height\000"
 19571      687400
 19572              	.LASF293:
 19573 08cb 5F5A4E4B 		.ascii	"_ZNK3r2p4Time5to_msEv\000"
 19573      33723270 
 19573      3454696D 
 19573      6535746F 
 19573      5F6D7345 
 19574              	.LASF672:
 19575 08e1 7369676E 		.ascii	"signal\000"
 19575      616C00
 19576              	.LASF789:
 19577 08e8 7E537562 		.ascii	"~Subscriber\000"
ARM GAS  /tmp/ccypRU8x.s 			page 352


 19577      73637269 
 19577      62657200 
 19578              	.LASF112:
 19579 08f4 42617365 		.ascii	"BaseSequentialStream\000"
 19579      53657175 
 19579      656E7469 
 19579      616C5374 
 19579      7265616D 
 19580              	.LASF636:
 19581 0909 5F5A4E33 		.ascii	"_ZN3r2p7Thread_4selfEv\000"
 19581      72327037 
 19581      54687265 
 19581      61645F34 
 19581      73656C66 
 19582              	.LASF867:
 19583 0920 70697879 		.ascii	"pixy_msgp\000"
 19583      5F6D7367 
 19583      7000
 19584              	.LASF778:
 19585 092a 7369676E 		.ascii	"signature\000"
 19585      61747572 
 19585      6500
 19586              	.LASF928:
 19587 0934 636F6D6D 		.ascii	"commands\000"
 19587      616E6473 
 19587      00
 19588              	.LASF536:
 19589 093d 52656663 		.ascii	"RefcountType\000"
 19589      6F756E74 
 19589      54797065 
 19589      00
 19590              	.LASF409:
 19591 094a 5F5A4E4B 		.ascii	"_ZNK3r2p10StaticListINS_16RemoteSubscriberEE12begin"
 19591      33723270 
 19591      31305374 
 19591      61746963 
 19591      4C697374 
 19592 097d 5F756E73 		.ascii	"_unsafeEv\000"
 19592      61666545 
 19592      7600
 19593              	.LASF400:
 19594 0987 5F5A4E33 		.ascii	"_ZN3r2p10StaticListINS_16RemoteSubscriberEE16link_t"
 19594      72327031 
 19594      30537461 
 19594      7469634C 
 19594      69737449 
 19595 09ba 61696C5F 		.ascii	"ail_unsafeERNS2_4LinkE\000"
 19595      756E7361 
 19595      66654552 
 19595      4E53325F 
 19595      344C696E 
 19596              	.LASF592:
 19597 09d1 5F5A4E4B 		.ascii	"_ZNK3r2p10StaticListINS_14LocalPublisherEE8contains"
 19597      33723270 
 19597      31305374 
 19597      61746963 
 19597      4C697374 
ARM GAS  /tmp/ccypRU8x.s 			page 353


 19598 0a04 45524B53 		.ascii	"ERKS1_\000"
 19598      315F00
 19599              	.LASF732:
 19600 0a0b 5F5A4E4B 		.ascii	"_ZNK3r2p4Node11get_enabledEv\000"
 19600      33723270 
 19600      344E6F64 
 19600      65313167 
 19600      65745F65 
 19601              	.LASF546:
 19602 0a28 5F5A4E33 		.ascii	"_ZN3r2p7Message7releaseEv\000"
 19602      72327037 
 19602      4D657373 
 19602      61676537 
 19602      72656C65 
 19603              	.LASF25:
 19604 0a42 626F6F6C 		.ascii	"bool\000"
 19604      00
 19605              	.LASF931:
 19606 0a47 474E5520 		.ascii	"GNU C++ 4.9.3 20141119 (release) [ARM/embedded-4_9-"
 19606      432B2B20 
 19606      342E392E 
 19606      33203230 
 19606      31343131 
 19607 0a7a 6272616E 		.ascii	"branch revision 218278] -mcpu=cortex-m4 -mfloat-abi"
 19607      63682072 
 19607      65766973 
 19607      696F6E20 
 19607      32313832 
 19608 0aad 3D686172 		.ascii	"=hard -mfpu=fpv4-sp-d16 -mno-thumb-interwork -mthum"
 19608      64202D6D 
 19608      6670753D 
 19608      66707634 
 19608      2D73702D 
 19609 0ae0 62202D67 		.ascii	"b -ggdb -O0 -fomit-frame-pointer -falign-functions="
 19609      67646220 
 19609      2D4F3020 
 19609      2D666F6D 
 19609      69742D66 
 19610 0b13 3136202D 		.ascii	"16 -ffunction-sections -fdata-sections -fno-common "
 19610      6666756E 
 19610      6374696F 
 19610      6E2D7365 
 19610      6374696F 
 19611 0b46 2D667369 		.ascii	"-fsingle-precision-constant -fno-rtti -fno-exceptio"
 19611      6E676C65 
 19611      2D707265 
 19611      63697369 
 19611      6F6E2D63 
 19612 0b79 6E73202D 		.ascii	"ns -fno-threadsafe-statics\000"
 19612      666E6F2D 
 19612      74687265 
 19612      61647361 
 19612      66652D73 
 19613              	.LASF798:
 19614 0b94 5F5A4E33 		.ascii	"_ZN3r2p16SubscriberExtBufINS_12ProximityMsgEE7relea"
 19614      72327031 
 19614      36537562 
ARM GAS  /tmp/ccypRU8x.s 			page 354


 19614      73637269 
 19614      62657245 
 19615 0bc7 73654552 		.ascii	"seERS1_\000"
 19615      53315F00 
 19616              	.LASF116:
 19617 0bcf 4F545950 		.ascii	"OTYPER\000"
 19617      455200
 19618              	.LASF526:
 19619 0bd6 5F5A4E33 		.ascii	"_ZN3r2p5Topic9advertiseERNS_14LocalPublisherERKNS_4"
 19619      72327035 
 19619      546F7069 
 19619      63396164 
 19619      76657274 
 19620 0c09 54696D65 		.ascii	"TimeE\000"
 19620      4500
 19621              	.LASF244:
 19622 0c0f 73747263 		.ascii	"strcoll\000"
 19622      6F6C6C00 
 19623              	.LASF855:
 19624 0c17 5F5A3139 		.ascii	"_Z19usb_lld_connect_busP9USBDriver\000"
 19624      7573625F 
 19624      6C6C645F 
 19624      636F6E6E 
 19624      6563745F 
 19625              	.LASF827:
 19626 0c3a 7075626C 		.ascii	"publish_locally\000"
 19626      6973685F 
 19626      6C6F6361 
 19626      6C6C7900 
 19627              	.LASF699:
 19628 0c4a 5F5A4E4B 		.ascii	"_ZNK3r2p10StaticListINS_4NodeEE17find_first_unsafeE"
 19628      33723270 
 19628      31305374 
 19628      61746963 
 19628      4C697374 
 19629 0c7d 50466252 		.ascii	"PFbRKS1_E\000"
 19629      4B53315F 
 19629      4500
 19630              	.LASF21:
 19631 0c87 696E7433 		.ascii	"int32_t\000"
 19631      325F7400 
 19632              	.LASF690:
 19633 0c8f 5F5A4E4B 		.ascii	"_ZNK3r2p10StaticListINS_4NodeEE13ConstIterator8is_v"
 19633      33723270 
 19633      31305374 
 19633      61746963 
 19633      4C697374 
 19634 0cc2 616C6964 		.ascii	"alidEv\000"
 19634      457600
 19635              	.LASF509:
 19636 0cc9 666F7277 		.ascii	"forward_copy_unsafe\000"
 19636      6172645F 
 19636      636F7079 
 19636      5F756E73 
 19636      61666500 
 19637              	.LASF34:
 19638 0cdd 73797374 		.ascii	"systime_t\000"
ARM GAS  /tmp/ccypRU8x.s 			page 355


 19638      696D655F 
 19638      7400
 19639              	.LASF831:
 19640 0ce7 7E426173 		.ascii	"~BasePublisher\000"
 19640      65507562 
 19640      6C697368 
 19640      657200
 19641              	.LASF786:
 19642 0cf6 43616C6C 		.ascii	"Callback\000"
 19642      6261636B 
 19642      00
 19643              	.LASF574:
 19644 0cff 5F5A4E33 		.ascii	"_ZN3r2p10StaticListINS_14LocalPublisherEE16link_tai"
 19644      72327031 
 19644      30537461 
 19644      7469634C 
 19644      69737449 
 19645 0d32 6C5F756E 		.ascii	"l_unsafeERNS2_4LinkE\000"
 19645      73616665 
 19645      45524E53 
 19645      325F344C 
 19645      696E6B45 
 19646              	.LASF638:
 19647 0d47 7365745F 		.ascii	"set_priority\000"
 19647      7072696F 
 19647      72697479 
 19647      00
 19648              	.LASF587:
 19649 0d54 5F5A4E4B 		.ascii	"_ZNK3r2p10StaticListINS_14LocalPublisherEE8is_empty"
 19649      33723270 
 19649      31305374 
 19649      61746963 
 19649      4C697374 
 19650 0d87 457600   		.ascii	"Ev\000"
 19651              	.LASF83:
 19652 0d8a 656C5F6D 		.ascii	"el_mask\000"
 19652      61736B00 
 19653              	.LASF868:
 19654 0d92 73706565 		.ascii	"speed_msgp\000"
 19654      645F6D73 
 19654      677000
 19655              	.LASF701:
 19656 0d9d 5F5A4E33 		.ascii	"_ZN3r2p10StaticListINS_4NodeEE12begin_unsafeEv\000"
 19656      72327031 
 19656      30537461 
 19656      7469634C 
 19656      69737449 
 19657              	.LASF721:
 19658 0dcc 5F5A4E4B 		.ascii	"_ZNK3r2p10StaticListINS_4NodeEE7restartERNS2_13Cons"
 19658      33723270 
 19658      31305374 
 19658      61746963 
 19658      4C697374 
 19659 0dff 74497465 		.ascii	"tIteratorE\000"
 19659      7261746F 
 19659      724500
 19660              	.LASF456:
ARM GAS  /tmp/ccypRU8x.s 			page 356


 19661 0e0a 5F5A4E33 		.ascii	"_ZN3r2p10StaticListINS_5TopicEE7restartERNS2_8Itera"
 19661      72327031 
 19661      30537461 
 19661      7469634C 
 19661      69737449 
 19662 0e3d 746F7245 		.ascii	"torE\000"
 19662      00
 19663              	.LASF760:
 19664 0e42 6765745F 		.ascii	"get_topic\000"
 19664      746F7069 
 19664      6300
 19665              	.LASF717:
 19666 0e4c 5F5A4E33 		.ascii	"_ZN3r2p10StaticListINS_4NodeEE3endEv\000"
 19666      72327031 
 19666      30537461 
 19666      7469634C 
 19666      69737449 
 19667              	.LASF354:
 19668 0e71 5F5A4E4B 		.ascii	"_ZNK3r2p10StaticListINS_15LocalSubscriberEE17find_f"
 19668      33723270 
 19668      31305374 
 19668      61746963 
 19668      4C697374 
 19669 0ea4 69727374 		.ascii	"irst_unsafeEPFbRKS1_PKvES6_\000"
 19669      5F756E73 
 19669      61666545 
 19669      50466252 
 19669      4B53315F 
 19670              	.LASF854:
 19671 0ec0 7573625F 		.ascii	"usb_lld_connect_bus\000"
 19671      6C6C645F 
 19671      636F6E6E 
 19671      6563745F 
 19671      62757300 
 19672              	.LASF105:
 19673 0ed4 716E6F74 		.ascii	"qnotify_t\000"
 19673      6966795F 
 19673      7400
 19674              	.LASF808:
 19675 0ede 5F5A4E33 		.ascii	"_ZN3r2p9PublisherINS_9PIDCfgMsgEE5allocERPS1_\000"
 19675      72327039 
 19675      5075626C 
 19675      69736865 
 19675      72494E53 
 19676              	.LASF765:
 19677 0f0c 5F5A4E33 		.ascii	"_ZN3r2p14BaseSubscriber13notify_unsafeERNS_7Message"
 19677      72327031 
 19677      34426173 
 19677      65537562 
 19677      73637269 
 19678 0f3f 45524B4E 		.ascii	"ERKNS_4TimeE\000"
 19678      535F3454 
 19678      696D6545 
 19678      00
 19679              	.LASF485:
 19680 0f4c 5F5A4E4B 		.ascii	"_ZNK3r2p5Topic21has_remote_publishersEv\000"
 19680      33723270 
ARM GAS  /tmp/ccypRU8x.s 			page 357


 19680      35546F70 
 19680      69633231 
 19680      6861735F 
 19681              	.LASF919:
 19682 0f74 70697879 		.ascii	"pixy_node\000"
 19682      5F6E6F64 
 19682      6500
 19683              	.LASF451:
 19684 0f7e 5F5A4E4B 		.ascii	"_ZNK3r2p10StaticListINS_5TopicEE8containsERKS1_\000"
 19684      33723270 
 19684      31305374 
 19684      61746963 
 19684      4C697374 
 19685              	.LASF100:
 19686 0fae 715F746F 		.ascii	"q_top\000"
 19686      7000
 19687              	.LASF166:
 19688 0fb4 75645F73 		.ascii	"ud_string\000"
 19688      7472696E 
 19688      6700
 19689              	.LASF539:
 19690 0fbe 5F5A4E4B 		.ascii	"_ZNK3r2p7Message12get_raw_dataEv\000"
 19690      33723270 
 19690      374D6573 
 19690      73616765 
 19690      31326765 
 19691              	.LASF135:
 19692 0fdf 65703065 		.ascii	"ep0endcb\000"
 19692      6E646362 
 19692      00
 19693              	.LASF491:
 19694 0fe8 5F5A4E4B 		.ascii	"_ZNK3r2p5Topic22has_remote_subscribersEv\000"
 19694      33723270 
 19694      35546F70 
 19694      69633232 
 19694      6861735F 
 19695              	.LASF465:
 19696 1011 6E756D5F 		.ascii	"num_remote_publishers\000"
 19696      72656D6F 
 19696      74655F70 
 19696      75626C69 
 19696      73686572 
 19697              	.LASF800:
 19698 1027 53756273 		.ascii	"Subscriber<r2p::PixyMsg, 5u>\000"
 19698      63726962 
 19698      65723C72 
 19698      32703A3A 
 19698      50697879 
 19699              	.LASF581:
 19700 1044 5F5A4E33 		.ascii	"_ZN3r2p10StaticListINS_14LocalPublisherEE10end_unsa"
 19700      72327031 
 19700      30537461 
 19700      7469634C 
 19700      69737449 
 19701 1077 66654576 		.ascii	"feEv\000"
 19701      00
 19702              	.LASF333:
ARM GAS  /tmp/ccypRU8x.s 			page 358


 19703 107c 5F5A4E4B 		.ascii	"_ZNK3r2p10StaticListINS_15LocalSubscriberEE13ConstI"
 19703      33723270 
 19703      31305374 
 19703      61746963 
 19703      4C697374 
 19704 10af 74657261 		.ascii	"terator8is_validEv\000"
 19704      746F7238 
 19704      69735F76 
 19704      616C6964 
 19704      457600
 19705              	.LASF223:
 19706 10c2 62756C6B 		.ascii	"bulk_out\000"
 19706      5F6F7574 
 19706      00
 19707              	.LASF113:
 19708 10cb 31324750 		.ascii	"12GPIO_TypeDef\000"
 19708      494F5F54 
 19708      79706544 
 19708      656600
 19709              	.LASF169:
 19710 10da 75736265 		.ascii	"usbepcallback_t\000"
 19710      7063616C 
 19710      6C626163 
 19710      6B5F7400 
 19711              	.LASF355:
 19712 10ea 62656769 		.ascii	"begin_unsafe\000"
 19712      6E5F756E 
 19712      73616665 
 19712      00
 19713              	.LASF794:
 19714 10f7 6765745F 		.ascii	"get_callback\000"
 19714      63616C6C 
 19714      6261636B 
 19714      00
 19715              	.LASF493:
 19716 1104 5F5A4E4B 		.ascii	"_ZNK3r2p5Topic15has_subscribersEv\000"
 19716      33723270 
 19716      35546F70 
 19716      69633135 
 19716      6861735F 
 19717              	.LASF269:
 19718 1126 66726565 		.ascii	"free\000"
 19718      00
 19719              	.LASF291:
 19720 112b 5F5A4E4B 		.ascii	"_ZNK3r2p4Time5to_usEv\000"
 19720      33723270 
 19720      3454696D 
 19720      6535746F 
 19720      5F757345 
 19721              	.LASF389:
 19722 1141 53746174 		.ascii	"StaticList\000"
 19722      69634C69 
 19722      737400
 19723              	.LASF475:
 19724 114c 5F5A4E4B 		.ascii	"_ZNK3r2p5Topic13get_type_sizeEv\000"
 19724      33723270 
 19724      35546F70 
ARM GAS  /tmp/ccypRU8x.s 			page 359


 19724      69633133 
 19724      6765745F 
 19725              	.LASF53:
 19726 116c 705F7761 		.ascii	"p_waiting\000"
 19726      6974696E 
 19726      6700
 19727              	.LASF503:
 19728 1176 5F5A4E33 		.ascii	"_ZN3r2p5Topic14release_unsafeERNS_7MessageE\000"
 19728      72327035 
 19728      546F7069 
 19728      63313472 
 19728      656C6561 
 19729              	.LASF822:
 19730 11a2 5F5A4E33 		.ascii	"_ZN3r2p13BasePublisher22publish_locally_unsafeERNS_"
 19730      72327031 
 19730      33426173 
 19730      65507562 
 19730      6C697368 
 19731 11d5 374D6573 		.ascii	"7MessageE\000"
 19731      73616765 
 19731      4500
 19732              	.LASF97:
 19733 11df 715F7761 		.ascii	"q_waiting\000"
 19733      6974696E 
 19733      6700
 19734              	.LASF908:
 19735 11e9 726C6973 		.ascii	"rlist\000"
 19735      7400
 19736              	.LASF514:
 19737 11ef 5F5A4E33 		.ascii	"_ZN3r2p5Topic5allocEv\000"
 19737      72327035 
 19737      546F7069 
 19737      6335616C 
 19737      6C6F6345 
 19738              	.LASF303:
 19739 1205 5F5A4E33 		.ascii	"_ZN3r2p4TimemIERKS0_\000"
 19739      72327034 
 19739      54696D65 
 19739      6D494552 
 19739      4B53305F 
 19740              	.LASF650:
 19741 121a 48494748 		.ascii	"HIGHEST\000"
 19741      45535400 
 19742              	.LASF189:
 19743 1222 7278706B 		.ascii	"rxpkts\000"
 19743      747300
 19744              	.LASF186:
 19745 1229 72787175 		.ascii	"rxqueued\000"
 19745      65756564 
 19745      00
 19746              	.LASF62:
 19747 1232 31315468 		.ascii	"11ThreadsList\000"
 19747      72656164 
 19747      734C6973 
 19747      7400
 19748              	.LASF875:
 19749 1240 636D645F 		.ascii	"cmd_pidcfg\000"
ARM GAS  /tmp/ccypRU8x.s 			page 360


 19749      70696463 
 19749      666700
 19750              	.LASF555:
 19751 124b 4C6F6361 		.ascii	"LocalPublisher\000"
 19751      6C507562 
 19751      6C697368 
 19751      657200
 19752              	.LASF431:
 19753 125a 5F5A4E4B 		.ascii	"_ZNK3r2p10StaticListINS_5TopicEE12count_unsafeEv\000"
 19753      33723270 
 19753      31305374 
 19753      61746963 
 19753      4C697374 
 19754              	.LASF898:
 19755 128b 5F5F696E 		.ascii	"__initialize_p\000"
 19755      69746961 
 19755      6C697A65 
 19755      5F7000
 19756              	.LASF790:
 19757 129a 4D657373 		.ascii	"MessageType\000"
 19757      61676554 
 19757      79706500 
 19758              	.LASF543:
 19759 12a6 72657365 		.ascii	"reset_unsafe\000"
 19759      745F756E 
 19759      73616665 
 19759      00
 19760              	.LASF270:
 19761 12b3 5F5A4E33 		.ascii	"_ZN3r2p11MemoryPool_11free_unsafeEPv\000"
 19761      72327031 
 19761      314D656D 
 19761      6F727950 
 19761      6F6F6C5F 
 19762              	.LASF821:
 19763 12d8 7075626C 		.ascii	"publish_locally_unsafe\000"
 19763      6973685F 
 19763      6C6F6361 
 19763      6C6C795F 
 19763      756E7361 
 19764              	.LASF383:
 19765 12ef 72657374 		.ascii	"restart\000"
 19765      61727400 
 19766              	.LASF288:
 19767 12f7 746F5F6D 		.ascii	"to_m_raw\000"
 19767      5F726177 
 19767      00
 19768              	.LASF820:
 19769 1300 5F5A4E33 		.ascii	"_ZN3r2p13BasePublisher14publish_unsafeERNS_7Message"
 19769      72327031 
 19769      33426173 
 19769      65507562 
 19769      6C697368 
 19770 1333 4500     		.ascii	"E\000"
 19771              	.LASF872:
 19772 1335 636D645F 		.ascii	"cmd_pixy\000"
 19772      70697879 
 19772      00
ARM GAS  /tmp/ccypRU8x.s 			page 361


 19773              	.LASF30:
 19774 133e 74707269 		.ascii	"tprio_t\000"
 19774      6F5F7400 
 19775              	.LASF92:
 19776 1346 6D705F6F 		.ascii	"mp_object_size\000"
 19776      626A6563 
 19776      745F7369 
 19776      7A6500
 19777              	.LASF335:
 19778 1355 4D617463 		.ascii	"Matches\000"
 19778      68657300 
 19779              	.LASF846:
 19780 135d 6D736770 		.ascii	"msgp\000"
 19780      00
 19781              	.LASF669:
 19782 1362 5F5A4E33 		.ascii	"_ZN3r2p10SpinEvent_10set_threadEPNS_6ThreadE\000"
 19782      72327031 
 19782      30537069 
 19782      6E457665 
 19782      6E745F31 
 19783              	.LASF609:
 19784 138f 5F5A4E33 		.ascii	"_ZN3r2p10ArrayQueueIPNS_7MessageEE11skip_unsafeEv\000"
 19784      72327031 
 19784      30417272 
 19784      61795175 
 19784      65756549 
 19785              	.LASF345:
 19786 13c1 5F5A4E33 		.ascii	"_ZN3r2p10StaticListINS_15LocalSubscriberEE16link_ta"
 19786      72327031 
 19786      30537461 
 19786      7469634C 
 19786      69737449 
 19787 13f4 696C5F75 		.ascii	"il_unsafeERNS2_4LinkE\000"
 19787      6E736166 
 19787      6545524E 
 19787      53325F34 
 19787      4C696E6B 
 19788              	.LASF523:
 19789 140a 65787465 		.ascii	"extend_pool\000"
 19789      6E645F70 
 19789      6F6F6C00 
 19790              	.LASF94:
 19791 1416 4D656D6F 		.ascii	"MemoryPool\000"
 19791      7279506F 
 19791      6F6C00
 19792              	.LASF136:
 19793 1421 73657475 		.ascii	"setup\000"
 19793      7000
 19794              	.LASF314:
 19795 1427 68656164 		.ascii	"headp\000"
 19795      7000
 19796              	.LASF802:
 19797 142d 5F5A4E4B 		.ascii	"_ZNK3r2p16SubscriberExtBufINS_7PixyMsgEE12get_callb"
 19797      33723270 
 19797      31365375 
 19797      62736372 
 19797      69626572 
ARM GAS  /tmp/ccypRU8x.s 			page 362


 19798 1460 61636B45 		.ascii	"ackEv\000"
 19798      7600
 19799              	.LASF784:
 19800 1466 6D736770 		.ascii	"msgpool_buf\000"
 19800      6F6F6C5F 
 19800      62756600 
 19801              	.LASF216:
 19802 1472 53657269 		.ascii	"SerialUSBDriver\000"
 19802      616C5553 
 19802      42447269 
 19802      76657200 
 19803              	.LASF214:
 19804 1482 5344555F 		.ascii	"SDU_READY\000"
 19804      52454144 
 19804      5900
 19805              	.LASF372:
 19806 148c 756E6C69 		.ascii	"unlink\000"
 19806      6E6B00
 19807              	.LASF323:
 19808 1493 6F706572 		.ascii	"operator*\000"
 19808      61746F72 
 19808      2A00
 19809              	.LASF814:
 19810 149d 5F767074 		.ascii	"_vptr.BasePublisher\000"
 19810      722E4261 
 19810      73655075 
 19810      626C6973 
 19810      68657200 
 19811              	.LASF253:
 19812 14b1 5F5A4E33 		.ascii	"_ZN3r2p8SysLock_7acquireEv\000"
 19812      72327038 
 19812      5379734C 
 19812      6F636B5F 
 19812      37616371 
 19813              	.LASF95:
 19814 14cc 7466756E 		.ascii	"tfunc_t\000"
 19814      635F7400 
 19815              	.LASF914:
 19816 14d4 76656C5F 		.ascii	"vel_pub\000"
 19816      70756200 
 19817              	.LASF5:
 19818 14dc 5F5F696E 		.ascii	"__int16_t\000"
 19818      7431365F 
 19818      7400
 19819              	.LASF298:
 19820 14e6 6F706572 		.ascii	"operator=\000"
 19820      61746F72 
 19820      3D00
 19821              	.LASF7:
 19822 14f0 5F5F7569 		.ascii	"__uint16_t\000"
 19822      6E743136 
 19822      5F7400
 19823              	.LASF917:
 19824 14fb 70696463 		.ascii	"pidcfg_pub\000"
 19824      66675F70 
 19824      756200
 19825              	.LASF178:
ARM GAS  /tmp/ccypRU8x.s 			page 363


 19826 1506 74787175 		.ascii	"txqueued\000"
 19826      65756564 
 19826      00
 19827              	.LASF55:
 19828 150f 705F6D73 		.ascii	"p_msg\000"
 19828      6700
 19829              	.LASF557:
 19830 1515 7E4C6F63 		.ascii	"~LocalPublisher\000"
 19830      616C5075 
 19830      626C6973 
 19830      68657200 
 19831              	.LASF441:
 19832 1525 5F5A4E33 		.ascii	"_ZN3r2p10StaticListINS_5TopicEE14restart_unsafeERNS"
 19832      72327031 
 19832      30537461 
 19832      7469634C 
 19832      69737449 
 19833 1558 325F3134 		.ascii	"2_14IteratorUnsafeE\000"
 19833      49746572 
 19833      61746F72 
 19833      556E7361 
 19833      66654500 
 19834              	.LASF318:
 19835 156c 63757270 		.ascii	"curp\000"
 19835      00
 19836              	.LASF659:
 19837 1571 5F5A4E33 		.ascii	"_ZN3r2p6Thread5yieldEv\000"
 19837      72327036 
 19837      54687265 
 19837      61643579 
 19837      69656C64 
 19838              	.LASF215:
 19839 1588 73647573 		.ascii	"sdustate_t\000"
 19839      74617465 
 19839      5F7400
 19840              	.LASF172:
 19841 1593 75736267 		.ascii	"usbgetdescriptor_t\000"
 19841      65746465 
 19841      73637269 
 19841      70746F72 
 19841      5F7400
 19842              	.LASF577:
 19843 15a6 5F5A4E4B 		.ascii	"_ZNK3r2p10StaticListINS_14LocalPublisherEE15contain"
 19843      33723270 
 19843      31305374 
 19843      61746963 
 19843      4C697374 
 19844 15d9 735F756E 		.ascii	"s_unsafeERKS1_\000"
 19844      73616665 
 19844      45524B53 
 19844      315F00
 19845              	.LASF421:
 19846 15e8 5F5A4E33 		.ascii	"_ZN3r2p10StaticListINS_16RemoteSubscriberEE5beginEv"
 19846      72327031 
 19846      30537461 
 19846      7469634C 
 19846      69737449 
ARM GAS  /tmp/ccypRU8x.s 			page 364


 19847 161b 00       		.ascii	"\000"
 19848              	.LASF146:
 19849 161c 5553425F 		.ascii	"USB_ACTIVE\000"
 19849      41435449 
 19849      564500
 19850              	.LASF602:
 19851 1627 61727261 		.ascii	"arrayp\000"
 19851      797000
 19852              	.LASF295:
 19853 162e 5F5A4E4B 		.ascii	"_ZNK3r2p4Time4to_sEv\000"
 19853      33723270 
 19853      3454696D 
 19853      6534746F 
 19853      5F734576 
 19854              	.LASF422:
 19855 1643 5F5A4E33 		.ascii	"_ZN3r2p10StaticListINS_16RemoteSubscriberEE3endEv\000"
 19855      72327031 
 19855      30537461 
 19855      7469634C 
 19855      69737449 
 19856              	.LASF663:
 19857 1675 74687265 		.ascii	"threadp\000"
 19857      61647000 
 19858              	.LASF181:
 19859 167d 6D6F6465 		.ascii	"mode\000"
 19859      00
 19860              	.LASF897:
 19861 1682 5F5A4E33 		.ascii	"_ZN3r2p16SubscriberExtBufINS_12ProximityMsgEED0Ev\000"
 19861      72327031 
 19861      36537562 
 19861      73637269 
 19861      62657245 
 19862              	.LASF231:
 19863 16b4 5F5F676E 		.ascii	"__gnuc_va_list\000"
 19863      75635F76 
 19863      615F6C69 
 19863      737400
 19864              	.LASF670:
 19865 16c3 7369676E 		.ascii	"signal_unsafe\000"
 19865      616C5F75 
 19865      6E736166 
 19865      6500
 19866              	.LASF783:
 19867 16d1 53756273 		.ascii	"Subscriber<r2p::ProximityMsg, 5u>\000"
 19867      63726962 
 19867      65723C72 
 19867      32703A3A 
 19867      50726F78 
 19868              	.LASF911:
 19869 16f3 75736263 		.ascii	"usbcfg\000"
 19869      666700
 19870              	.LASF266:
 19871 16fa 66726565 		.ascii	"free_unsafe\000"
 19871      5F756E73 
 19871      61666500 
 19872              	.LASF65:
 19873 1706 73746B61 		.ascii	"stkalign_t\000"
ARM GAS  /tmp/ccypRU8x.s 			page 365


 19873      6C69676E 
 19873      5F7400
 19874              	.LASF123:
 19875 1711 4750494F 		.ascii	"GPIO_TypeDef\000"
 19875      5F547970 
 19875      65446566 
 19875      00
 19876              	.LASF745:
 19877 171e 5F5A4E33 		.ascii	"_ZN3r2p4Node9advertiseERNS_14LocalPublisherEPKcRKNS"
 19877      72327034 
 19877      4E6F6465 
 19877      39616476 
 19877      65727469 
 19878 1751 5F345469 		.ascii	"_4TimeEj\000"
 19878      6D65456A 
 19878      00
 19879              	.LASF380:
 19880 175a 5F5A4E4B 		.ascii	"_ZNK3r2p10StaticListINS_15LocalSubscriberEE10find_f"
 19880      33723270 
 19880      31305374 
 19880      61746963 
 19880      4C697374 
 19881 178d 69727374 		.ascii	"irstEPFbRKS1_PKvES6_\000"
 19881      45504662 
 19881      524B5331 
 19881      5F504B76 
 19881      4553365F 
 19882              	.LASF193:
 19883 17a2 73657475 		.ascii	"setup_cb\000"
 19883      705F6362 
 19883      00
 19884              	.LASF4:
 19885 17ab 756E7369 		.ascii	"unsigned char\000"
 19885      676E6564 
 19885      20636861 
 19885      7200
 19886              	.LASF175:
 19887 17b9 74787175 		.ascii	"txqueue\000"
 19887      65756500 
 19888              	.LASF275:
 19889 17c1 5F5A4E33 		.ascii	"_ZN3r2p11MemoryPool_8get_implEv\000"
 19889      72327031 
 19889      314D656D 
 19889      6F727950 
 19889      6F6F6C5F 
 19890              	.LASF646:
 19891 17e1 52454144 		.ascii	"READY\000"
 19891      5900
 19892              	.LASF736:
 19893 17e7 5F5A4E33 		.ascii	"_ZN3r2p4Node13notify_unsafeEj\000"
 19893      72327034 
 19893      4E6F6465 
 19893      31336E6F 
 19893      74696679 
 19894              	.LASF490:
 19895 1805 6861735F 		.ascii	"has_remote_subscribers\000"
 19895      72656D6F 
ARM GAS  /tmp/ccypRU8x.s 			page 366


 19895      74655F73 
 19895      75627363 
 19895      72696265 
 19896              	.LASF843:
 19897 181c 666C6F61 		.ascii	"float\000"
 19897      7400
 19898              	.LASF618:
 19899 1822 736B6970 		.ascii	"skip\000"
 19899      00
 19900              	.LASF756:
 19901 1827 5F5A4E33 		.ascii	"_ZN3r2p4Node9advertiseINS_9PIDCfgMsgEEEbRNS_9Publis"
 19901      72327034 
 19901      4E6F6465 
 19901      39616476 
 19901      65727469 
 19902 185a 68657249 		.ascii	"herIT_EEPKcRKNS_4TimeE\000"
 19902      545F4545 
 19902      504B6352 
 19902      4B4E535F 
 19902      3454696D 
 19903              	.LASF254:
 19904 1871 5F5A4E33 		.ascii	"_ZN3r2p8SysLock_7releaseEv\000"
 19904      72327038 
 19904      5379734C 
 19904      6F636B5F 
 19904      3772656C 
 19905              	.LASF541:
 19906 188c 5F5A4E33 		.ascii	"_ZN3r2p7Message14acquire_unsafeEv\000"
 19906      72327037 
 19906      4D657373 
 19906      61676531 
 19906      34616371 
 19907              	.LASF385:
 19908 18ae 5F5A4E4B 		.ascii	"_ZNK3r2p10StaticListINS_15LocalSubscriberEE5beginEv"
 19908      33723270 
 19908      31305374 
 19908      61746963 
 19908      4C697374 
 19909 18e1 00       		.ascii	"\000"
 19910              	.LASF938:
 19911 18e2 73746174 		.ascii	"static_cast_check<r2p::ProximityMsg, r2p::Message>\000"
 19911      69635F63 
 19911      6173745F 
 19911      63686563 
 19911      6B3C7232 
 19912              	.LASF423:
 19913 1915 5F5A4E33 		.ascii	"_ZN3r2p10StaticListINS_16RemoteSubscriberEE7restart"
 19913      72327031 
 19913      30537461 
 19913      7469634C 
 19913      69737449 
 19914 1948 45524E53 		.ascii	"ERNS2_8IteratorE\000"
 19914      325F3849 
 19914      74657261 
 19914      746F7245 
 19914      00
 19915              	.LASF913:
ARM GAS  /tmp/ccypRU8x.s 			page 367


 19916 1959 76656C5F 		.ascii	"vel_node\000"
 19916      6E6F6465 
 19916      00
 19917              	.LASF937:
 19918 1962 5072696F 		.ascii	"PriorityEnum\000"
 19918      72697479 
 19918      456E756D 
 19918      00
 19919              	.LASF88:
 19920 196f 706F6F6C 		.ascii	"pool_header\000"
 19920      5F686561 
 19920      64657200 
 19921              	.LASF662:
 19922 197b 5370696E 		.ascii	"SpinEvent_\000"
 19922      4576656E 
 19922      745F00
 19923              	.LASF626:
 19924 1986 636F6D70 		.ascii	"compute_stack_size\000"
 19924      7574655F 
 19924      73746163 
 19924      6B5F7369 
 19924      7A6500
 19925              	.LASF43:
 19926 1999 705F6374 		.ascii	"p_ctx\000"
 19926      7800
 19927              	.LASF749:
 19928 199f 61647665 		.ascii	"advertise<r2p::Speed3Msg>\000"
 19928      72746973 
 19928      653C7232 
 19928      703A3A53 
 19928      70656564 
 19929              	.LASF910:
 19930 19b9 53445531 		.ascii	"SDU1\000"
 19930      00
 19931              	.LASF741:
 19932 19be 6E6F7469 		.ascii	"notify_stop\000"
 19932      66795F73 
 19932      746F7000 
 19933              	.LASF74:
 19934 19ca 725F6375 		.ascii	"r_current\000"
 19934      7272656E 
 19934      7400
 19935              	.LASF474:
 19936 19d4 6765745F 		.ascii	"get_type_size\000"
 19936      74797065 
 19936      5F73697A 
 19936      6500
 19937              	.LASF738:
 19938 19e2 5F5A4E33 		.ascii	"_ZN3r2p4Node18notify_stop_unsafeEv\000"
 19938      72327034 
 19938      4E6F6465 
 19938      31386E6F 
 19938      74696679 
 19939              	.LASF442:
 19940 1a05 5F5A4E4B 		.ascii	"_ZNK3r2p10StaticListINS_5TopicEE12begin_unsafeEv\000"
 19940      33723270 
 19940      31305374 
ARM GAS  /tmp/ccypRU8x.s 			page 368


 19940      61746963 
 19940      4C697374 
 19941              	.LASF684:
 19942 1a36 5F5A4E4B 		.ascii	"_ZNK3r2p10StaticListINS_4NodeEE13ConstIteratorptEv\000"
 19942      33723270 
 19942      31305374 
 19942      61746963 
 19942      4C697374 
 19943              	.LASF722:
 19944 1a69 4E6F6465 		.ascii	"Node\000"
 19944      00
 19945              	.LASF782:
 19946 1a6e 50726F78 		.ascii	"ProximityMsg\000"
 19946      696D6974 
 19946      794D7367 
 19946      00
 19947              	.LASF899:
 19948 1a7b 5F5F7072 		.ascii	"__priority\000"
 19948      696F7269 
 19948      747900
 19949              	.LASF725:
 19950 1a86 74696D65 		.ascii	"timeout\000"
 19950      6F757400 
 19951              	.LASF312:
 19952 1a8e 6974656D 		.ascii	"itemp\000"
 19952      7000
 19953              	.LASF334:
 19954 1a94 50726564 		.ascii	"Predicate\000"
 19954      69636174 
 19954      6500
 19955              	.LASF23:
 19956 1a9e 75696E74 		.ascii	"uint64_t\000"
 19956      36345F74 
 19956      00
 19957              	.LASF915:
 19958 1aa7 73706565 		.ascii	"speed_first_time\000"
 19958      645F6669 
 19958      7273745F 
 19958      74696D65 
 19958      00
 19959              	.LASF478:
 19960 1ab8 6765745F 		.ascii	"get_max_queue_length\000"
 19960      6D61785F 
 19960      71756575 
 19960      655F6C65 
 19960      6E677468 
 19961              	.LASF460:
 19962 1acd 546F7069 		.ascii	"Topic\000"
 19962      6300
 19963              	.LASF35:
 19964 1ad3 54687265 		.ascii	"Thread\000"
 19964      616400
 19965              	.LASF242:
 19966 1ada 73635F63 		.ascii	"sc_commands\000"
 19966      6F6D6D61 
 19966      6E647300 
 19967              	.LASF297:
ARM GAS  /tmp/ccypRU8x.s 			page 369


 19968 1ae6 5F5A4E4B 		.ascii	"_ZNK3r2p4Time4to_mEv\000"
 19968      33723270 
 19968      3454696D 
 19968      6534746F 
 19968      5F6D4576 
 19969              	.LASF519:
 19970 1afb 6E6F7469 		.ascii	"notify_remotes\000"
 19970      66795F72 
 19970      656D6F74 
 19970      657300
 19971              	.LASF367:
 19972 1b0a 5F5A4E4B 		.ascii	"_ZNK3r2p10StaticListINS_15LocalSubscriberEE8is_empt"
 19972      33723270 
 19972      31305374 
 19972      61746963 
 19972      4C697374 
 19973 1b3d 79457600 		.ascii	"yEv\000"
 19974              	.LASF188:
 19975 1b41 7278636E 		.ascii	"rxcnt\000"
 19975      7400
 19976              	.LASF75:
 19977 1b47 52656164 		.ascii	"ReadyList\000"
 19977      794C6973 
 19977      7400
 19978              	.LASF890:
 19979 1b51 71756575 		.ascii	"queue_length\000"
 19979      655F6C65 
 19979      6E677468 
 19979      00
 19980              	.LASF204:
 19981 1b5e 39555342 		.ascii	"9USBConfig\000"
 19981      436F6E66 
 19981      696700
 19982              	.LASF724:
 19983 1b69 73756273 		.ascii	"subscribers\000"
 19983      63726962 
 19983      65727300 
 19984              	.LASF180:
 19985 1b75 7478636E 		.ascii	"txcnt\000"
 19985      7400
 19986              	.LASF170:
 19987 1b7b 75736265 		.ascii	"usbeventcb_t\000"
 19987      76656E74 
 19987      63625F74 
 19987      00
 19988              	.LASF568:
 19989 1b88 5F5A4E4B 		.ascii	"_ZNK3r2p10StaticListINS_14LocalPublisherEE13ConstIt"
 19989      33723270 
 19989      31305374 
 19989      61746963 
 19989      4C697374 
 19990 1bbb 65726174 		.ascii	"eratorneERKS3_\000"
 19990      6F726E65 
 19990      45524B53 
 19990      335F00
 19991              	.LASF590:
 19992 1bca 5F5A4E33 		.ascii	"_ZN3r2p10StaticListINS_14LocalPublisherEE6unlinkERN"
ARM GAS  /tmp/ccypRU8x.s 			page 370


 19992      72327031 
 19992      30537461 
 19992      7469634C 
 19992      69737449 
 19993 1bfd 53325F34 		.ascii	"S2_4LinkE\000"
 19993      4C696E6B 
 19993      4500
 19994              	.LASF611:
 19995 1c07 5F5A4E4B 		.ascii	"_ZNK3r2p10ArrayQueueIPNS_7MessageEE10get_lengthEv\000"
 19995      33723270 
 19995      31304172 
 19995      72617951 
 19995      75657565 
 19996              	.LASF390:
 19997 1c39 4974656D 		.ascii	"Item\000"
 19997      00
 19998              	.LASF927:
 19999 1c3e 73747265 		.ascii	"stream_enc\000"
 19999      616D5F65 
 19999      6E6300
 20000              	.LASF601:
 20001 1c49 41727261 		.ascii	"ArrayQueue<r2p::Message*>\000"
 20001      79517565 
 20001      75653C72 
 20001      32703A3A 
 20001      4D657373 
 20002              	.LASF290:
 20003 1c63 746F5F75 		.ascii	"to_us\000"
 20003      7300
 20004              	.LASF259:
 20005 1c69 696D706C 		.ascii	"impl\000"
 20005      00
 20006              	.LASF763:
 20007 1c6e 6E6F7469 		.ascii	"notify_subscribed\000"
 20007      66795F73 
 20007      75627363 
 20007      72696265 
 20007      6400
 20008              	.LASF184:
 20009 1c80 72786275 		.ascii	"rxbuf\000"
 20009      6600
 20010              	.LASF647:
 20011 1c86 49444C45 		.ascii	"IDLE\000"
 20011      00
 20012              	.LASF263:
 20013 1c8b 5F5A4E4B 		.ascii	"_ZNK3r2p11MemoryPool_13get_allocatorEv\000"
 20013      33723270 
 20013      31314D65 
 20013      6D6F7279 
 20013      506F6F6C 
 20014              	.LASF449:
 20015 1cb2 5F5A4E33 		.ascii	"_ZN3r2p10StaticListINS_5TopicEE6unlinkERNS2_4LinkE\000"
 20015      72327031 
 20015      30537461 
 20015      7469634C 
 20015      69737449 
 20016              	.LASF655:
ARM GAS  /tmp/ccypRU8x.s 			page 371


 20017 1ce5 5F5A4E33 		.ascii	"_ZN3r2p6Thread11create_heapEPvjmPFlS1_ES1_PKc\000"
 20017      72327036 
 20017      54687265 
 20017      61643131 
 20017      63726561 
 20018              	.LASF712:
 20019 1d13 5F5A4E4B 		.ascii	"_ZNK3r2p10StaticListINS_4NodeEE8index_ofERKS1_\000"
 20019      33723270 
 20019      31305374 
 20019      61746963 
 20019      4C697374 
 20020              	.LASF212:
 20021 1d42 5344555F 		.ascii	"SDU_UNINIT\000"
 20021      554E494E 
 20021      495400
 20022              	.LASF344:
 20023 1d4d 5F5A4E33 		.ascii	"_ZN3r2p10StaticListINS_15LocalSubscriberEE11link_un"
 20023      72327031 
 20023      30537461 
 20023      7469634C 
 20023      69737449 
 20024 1d80 73616665 		.ascii	"safeERNS2_4LinkE\000"
 20024      45524E53 
 20024      325F344C 
 20024      696E6B45 
 20024      00
 20025              	.LASF191:
 20026 1d91 31375553 		.ascii	"17USBEndpointConfig\000"
 20026      42456E64 
 20026      706F696E 
 20026      74436F6E 
 20026      66696700 
 20027              	.LASF801:
 20028 1da5 53756273 		.ascii	"SubscriberExtBuf<r2p::PixyMsg>\000"
 20028      63726962 
 20028      65724578 
 20028      74427566 
 20028      3C723270 
 20029              	.LASF912:
 20030 1dc4 73657275 		.ascii	"serusbcfg\000"
 20030      73626366 
 20030      6700
 20031              	.LASF925:
 20032 1dce 70726F78 		.ascii	"proxy_first_time\000"
 20032      795F6669 
 20032      7273745F 
 20032      74696D65 
 20032      00
 20033              	.LASF268:
 20034 1ddf 5F5A4E33 		.ascii	"_ZN3r2p11MemoryPool_5allocEv\000"
 20034      72327031 
 20034      314D656D 
 20034      6F727950 
 20034      6F6F6C5F 
 20035              	.LASF76:
 20036 1dfc 4D757465 		.ascii	"Mutex\000"
 20036      7800
ARM GAS  /tmp/ccypRU8x.s 			page 372


 20037              	.LASF579:
 20038 1e02 5F5A4E4B 		.ascii	"_ZNK3r2p10StaticListINS_14LocalPublisherEE17find_fi"
 20038      33723270 
 20038      31305374 
 20038      61746963 
 20038      4C697374 
 20039 1e35 7273745F 		.ascii	"rst_unsafeEPFbRKS1_PKvES6_\000"
 20039      756E7361 
 20039      66654550 
 20039      4662524B 
 20039      53315F50 
 20040              	.LASF363:
 20041 1e50 5F5A4E4B 		.ascii	"_ZNK3r2p10StaticListINS_15LocalSubscriberEE14restar"
 20041      33723270 
 20041      31305374 
 20041      61746963 
 20041      4C697374 
 20042 1e83 745F756E 		.ascii	"t_unsafeERNS2_19ConstIteratorUnsafeE\000"
 20042      73616665 
 20042      45524E53 
 20042      325F3139 
 20042      436F6E73 
 20043              	.LASF774:
 20044 1ea8 76616C75 		.ascii	"value\000"
 20044      6500
 20045              	.LASF775:
 20046 1eae 50494443 		.ascii	"PIDCfgMsg\000"
 20046      66674D73 
 20046      6700
 20047              	.LASF205:
 20048 1eb8 6576656E 		.ascii	"event_cb\000"
 20048      745F6362 
 20048      00
 20049              	.LASF195:
 20050 1ec1 6F75745F 		.ascii	"out_cb\000"
 20050      636200
 20051              	.LASF668:
 20052 1ec8 7365745F 		.ascii	"set_thread\000"
 20052      74687265 
 20052      616400
 20053              	.LASF131:
 20054 1ed3 6F75745F 		.ascii	"out_params\000"
 20054      70617261 
 20054      6D7300
 20055              	.LASF391:
 20056 1ede 6765745F 		.ascii	"get_queue_length\000"
 20056      71756575 
 20056      655F6C65 
 20056      6E677468 
 20056      00
 20057              	.LASF234:
 20058 1eef 76615F6C 		.ascii	"va_list\000"
 20058      69737400 
 20059              	.LASF280:
 20060 1ef7 494E4649 		.ascii	"INFINITE\000"
 20060      4E495445 
 20060      00
ARM GAS  /tmp/ccypRU8x.s 			page 373


 20061              	.LASF157:
 20062 1f00 31307573 		.ascii	"10usbevent_t\000"
 20062      62657665 
 20062      6E745F74 
 20062      00
 20063              	.LASF461:
 20064 1f0d 6E616D65 		.ascii	"namep\000"
 20064      7000
 20065              	.LASF410:
 20066 1f13 5F5A4E4B 		.ascii	"_ZNK3r2p10StaticListINS_16RemoteSubscriberEE10end_u"
 20066      33723270 
 20066      31305374 
 20066      61746963 
 20066      4C697374 
 20067 1f46 6E736166 		.ascii	"nsafeEv\000"
 20067      65457600 
 20068              	.LASF340:
 20069 1f4e 636F756E 		.ascii	"count_unsafe\000"
 20069      745F756E 
 20069      73616665 
 20069      00
 20070              	.LASF370:
 20071 1f5b 6C696E6B 		.ascii	"link\000"
 20071      00
 20072              	.LASF71:
 20073 1f60 725F6374 		.ascii	"r_ctx\000"
 20073      7800
 20074              	.LASF766:
 20075 1f66 5F5A4E33 		.ascii	"_ZN3r2p14BaseSubscriber12fetch_unsafeERPNS_7Message"
 20075      72327031 
 20075      34426173 
 20075      65537562 
 20075      73637269 
 20076 1f99 45524E53 		.ascii	"ERNS_4TimeE\000"
 20076      5F345469 
 20076      6D654500 
 20077              	.LASF734:
 20078 1fa5 5F5A4E33 		.ascii	"_ZN3r2p4Node11set_enabledEb\000"
 20078      72327034 
 20078      4E6F6465 
 20078      31317365 
 20078      745F656E 
 20079              	.LASF278:
 20080 1fc1 54797065 		.ascii	"Type\000"
 20080      00
 20081              	.LASF396:
 20082 1fc6 5F5A4E4B 		.ascii	"_ZNK3r2p10StaticListINS_16RemoteSubscriberEE15get_h"
 20082      33723270 
 20082      31305374 
 20082      61746963 
 20082      4C697374 
 20083 1ff9 6561645F 		.ascii	"ead_unsafeEv\000"
 20083      756E7361 
 20083      66654576 
 20083      00
 20084              	.LASF54:
 20085 2006 705F6D73 		.ascii	"p_msgqueue\000"
ARM GAS  /tmp/ccypRU8x.s 			page 374


 20085      67717565 
 20085      756500
 20086              	.LASF315:
 20087 2011 49746572 		.ascii	"IteratorUnsafe\000"
 20087      61746F72 
 20087      556E7361 
 20087      666500
 20088              	.LASF702:
 20089 2020 5F5A4E33 		.ascii	"_ZN3r2p10StaticListINS_4NodeEE10end_unsafeEv\000"
 20089      72327031 
 20089      30537461 
 20089      7469634C 
 20089      69737449 
 20090              	.LASF753:
 20091 204d 73756273 		.ascii	"subscribe<r2p::ProximityMsg, 5u>\000"
 20091      63726962 
 20091      653C7232 
 20091      703A3A50 
 20091      726F7869 
 20092              	.LASF251:
 20093 206e 61637175 		.ascii	"acquire\000"
 20093      69726500 
 20094              	.LASF705:
 20095 2076 5F5A4E4B 		.ascii	"_ZNK3r2p10StaticListINS_4NodeEE10end_unsafeEv\000"
 20095      33723270 
 20095      31305374 
 20095      61746963 
 20095      4C697374 
 20096              	.LASF624:
 20097 20a4 5F5A4E4B 		.ascii	"_ZNK3r2p7Thread_8get_nameEv\000"
 20097      33723270 
 20097      37546872 
 20097      6561645F 
 20097      38676574 
 20098              	.LASF583:
 20099 20c0 5F5A4E4B 		.ascii	"_ZNK3r2p10StaticListINS_14LocalPublisherEE12begin_u"
 20099      33723270 
 20099      31305374 
 20099      61746963 
 20099      4C697374 
 20100 20f3 6E736166 		.ascii	"nsafeEv\000"
 20100      65457600 
 20101              	.LASF448:
 20102 20fb 5F5A4E33 		.ascii	"_ZN3r2p10StaticListINS_5TopicEE4linkERNS2_4LinkE\000"
 20102      72327031 
 20102      30537461 
 20102      7469634C 
 20102      69737449 
 20103              	.LASF114:
 20104 212c 636C6561 		.ascii	"clear\000"
 20104      7200
 20105              	.LASF648:
 20106 2132 4C4F5745 		.ascii	"LOWEST\000"
 20106      535400
 20107              	.LASF552:
 20108 2139 5F5A4E33 		.ascii	"_ZN3r2p7Message21get_msg_from_raw_dataEPKh\000"
 20108      72327037 
ARM GAS  /tmp/ccypRU8x.s 			page 375


 20108      4D657373 
 20108      61676532 
 20108      31676574 
 20109              	.LASF2:
 20110 2164 73697A65 		.ascii	"size_t\000"
 20110      5F7400
 20111              	.LASF554:
 20112 216b 5F5A4E33 		.ascii	"_ZN3r2p7Message13get_type_sizeEj\000"
 20112      72327037 
 20112      4D657373 
 20112      61676531 
 20112      33676574 
 20113              	.LASF434:
 20114 218c 5F5A4E33 		.ascii	"_ZN3r2p10StaticListINS_5TopicEE13unlink_unsafeERNS2"
 20114      72327031 
 20114      30537461 
 20114      7469634C 
 20114      69737449 
 20115 21bf 5F344C69 		.ascii	"_4LinkE\000"
 20115      6E6B4500 
 20116              	.LASF279:
 20117 21c7 494D4D45 		.ascii	"IMMEDIATE\000"
 20117      44494154 
 20117      4500
 20118              	.LASF60:
 20119 21d1 54687265 		.ascii	"ThreadsQueue\000"
 20119      61647351 
 20119      75657565 
 20119      00
 20120              	.LASF18:
 20121 21de 75696E74 		.ascii	"uint8_t\000"
 20121      385F7400 
 20122              	.LASF73:
 20123 21e6 725F6F6C 		.ascii	"r_older\000"
 20123      64657200 
 20124              	.LASF41:
 20125 21ee 705F7072 		.ascii	"p_prev\000"
 20125      657600
 20126              	.LASF534:
 20127 21f5 5F5A4E33 		.ascii	"_ZN3r2p5Topic8has_nameERKS0_PKc\000"
 20127      72327035 
 20127      546F7069 
 20127      63386861 
 20127      735F6E61 
 20128              	.LASF575:
 20129 2215 5F5A4E33 		.ascii	"_ZN3r2p10StaticListINS_14LocalPublisherEE13unlink_u"
 20129      72327031 
 20129      30537461 
 20129      7469634C 
 20129      69737449 
 20130 2248 6E736166 		.ascii	"nsafeERNS2_4LinkE\000"
 20130      6545524E 
 20130      53325F34 
 20130      4C696E6B 
 20130      4500
 20131              	.LASF852:
 20132 225a 7573625F 		.ascii	"usb_lld_disconnect_bus\000"
ARM GAS  /tmp/ccypRU8x.s 			page 376


 20132      6C6C645F 
 20132      64697363 
 20132      6F6E6E65 
 20132      63745F62 
 20133              	.LASF375:
 20134 2271 5F5A4E4B 		.ascii	"_ZNK3r2p10StaticListINS_15LocalSubscriberEE8index_o"
 20134      33723270 
 20134      31305374 
 20134      61746963 
 20134      4C697374 
 20135 22a4 6645524B 		.ascii	"fERKS1_\000"
 20135      53315F00 
 20136              	.LASF879:
 20137 22ac 6D696372 		.ascii	"microseconds\000"
 20137      6F736563 
 20137      6F6E6473 
 20137      00
 20138              	.LASF393:
 20139 22b9 5F5A4E4B 		.ascii	"_ZNK3r2p15LocalSubscriber16get_queue_lengthEv\000"
 20139      33723270 
 20139      31354C6F 
 20139      63616C53 
 20139      75627363 
 20140              	.LASF709:
 20141 22e7 5F5A4E4B 		.ascii	"_ZNK3r2p10StaticListINS_4NodeEE5countEv\000"
 20141      33723270 
 20141      31305374 
 20141      61746963 
 20141      4C697374 
 20142              	.LASF37:
 20143 230f 65786974 		.ascii	"exitcode\000"
 20143      636F6465 
 20143      00
 20144              	.LASF199:
 20145 2318 6F75745F 		.ascii	"out_state\000"
 20145      73746174 
 20145      6500
 20146              	.LASF708:
 20147 2322 5F5A4E4B 		.ascii	"_ZNK3r2p10StaticListINS_4NodeEE8is_emptyEv\000"
 20147      33723270 
 20147      31305374 
 20147      61746963 
 20147      4C697374 
 20148              	.LASF803:
 20149 234d 5F5A4E33 		.ascii	"_ZN3r2p16SubscriberExtBufINS_7PixyMsgEE5fetchERPS1_"
 20149      72327031 
 20149      36537562 
 20149      73637269 
 20149      62657245 
 20150 2380 00       		.ascii	"\000"
 20151              	.LASF713:
 20152 2381 5F5A4E4B 		.ascii	"_ZNK3r2p10StaticListINS_4NodeEE8containsERKS1_\000"
 20152      33723270 
 20152      31305374 
 20152      61746963 
 20152      4C697374 
 20153              	.LASF480:
ARM GAS  /tmp/ccypRU8x.s 			page 377


 20154 23b0 69735F66 		.ascii	"is_forwarding\000"
 20154      6F727761 
 20154      7264696E 
 20154      6700
 20155              	.LASF604:
 20156 23be 7461696C 		.ascii	"tailp\000"
 20156      7000
 20157              	.LASF152:
 20158 23c4 5553425F 		.ascii	"USB_EP0_RX\000"
 20158      4550305F 
 20158      525800
 20159              	.LASF585:
 20160 23cf 5F5A4E4B 		.ascii	"_ZNK3r2p10StaticListINS_14LocalPublisherEE14restart"
 20160      33723270 
 20160      31305374 
 20160      61746963 
 20160      4C697374 
 20161 2402 5F756E73 		.ascii	"_unsafeERNS2_19ConstIteratorUnsafeE\000"
 20161      61666545 
 20161      524E5332 
 20161      5F313943 
 20161      6F6E7374 
 20162              	.LASF838:
 20163 2426 42617365 		.ascii	"Base\000"
 20163      00
 20164              	.LASF520:
 20165 242b 5F5A4E33 		.ascii	"_ZN3r2p5Topic14notify_remotesERNS_7MessageERKNS_4Ti"
 20165      72327035 
 20165      546F7069 
 20165      6331346E 
 20165      6F746966 
 20166 245e 6D654500 		.ascii	"meE\000"
 20167              	.LASF865:
 20168 2462 64746833 		.ascii	"dth3\000"
 20168      00
 20169              	.LASF455:
 20170 2467 5F5A4E33 		.ascii	"_ZN3r2p10StaticListINS_5TopicEE3endEv\000"
 20170      72327031 
 20170      30537461 
 20170      7469634C 
 20170      69737449 
 20171              	.LASF649:
 20172 248d 4E4F524D 		.ascii	"NORMAL\000"
 20172      414C00
 20173              	.LASF930:
 20174 2494 5F5F6473 		.ascii	"__dso_handle\000"
 20174      6F5F6861 
 20174      6E646C65 
 20174      00
 20175              	.LASF85:
 20176 24a1 4576656E 		.ascii	"EventSource\000"
 20176      74536F75 
 20176      72636500 
 20177              	.LASF412:
 20178 24ad 5F5A4E4B 		.ascii	"_ZNK3r2p10StaticListINS_16RemoteSubscriberEE8get_he"
 20178      33723270 
 20178      31305374 
ARM GAS  /tmp/ccypRU8x.s 			page 378


 20178      61746963 
 20178      4C697374 
 20179 24e0 61644576 		.ascii	"adEv\000"
 20179      00
 20180              	.LASF639:
 20181 24e5 5F5A4E33 		.ascii	"_ZN3r2p7Thread_12set_priorityEm\000"
 20181      72327037 
 20181      54687265 
 20181      61645F31 
 20181      32736574 
 20182              	.LASF849:
 20183 2505 6576656E 		.ascii	"event_index\000"
 20183      745F696E 
 20183      64657800 
 20184              	.LASF463:
 20185 2511 6D73675F 		.ascii	"msg_pool\000"
 20185      706F6F6C 
 20185      00
 20186              	.LASF117:
 20187 251a 4F535045 		.ascii	"OSPEEDR\000"
 20187      45445200 
 20188              	.LASF580:
 20189 2522 5F5A4E33 		.ascii	"_ZN3r2p10StaticListINS_14LocalPublisherEE12begin_un"
 20189      72327031 
 20189      30537461 
 20189      7469634C 
 20189      69737449 
 20190 2555 73616665 		.ascii	"safeEv\000"
 20190      457600
 20191              	.LASF68:
 20192 255c 39526561 		.ascii	"9ReadyList\000"
 20192      64794C69 
 20192      737400
 20193              	.LASF616:
 20194 2567 66657463 		.ascii	"fetch\000"
 20194      6800
 20195              	.LASF744:
 20196 256d 5F5A4E33 		.ascii	"_ZN3r2p4Node4spinERKNS_4TimeE\000"
 20196      72327034 
 20196      4E6F6465 
 20196      34737069 
 20196      6E45524B 
 20197              	.LASF376:
 20198 258b 636F6E74 		.ascii	"contains\000"
 20198      61696E73 
 20198      00
 20199              	.LASF154:
 20200 2594 5553425F 		.ascii	"USB_EP0_ERROR\000"
 20200      4550305F 
 20200      4552524F 
 20200      5200
 20201              	.LASF735:
 20202 25a2 6E6F7469 		.ascii	"notify_unsafe\000"
 20202      66795F75 
 20202      6E736166 
 20202      6500
 20203              	.LASF845:
ARM GAS  /tmp/ccypRU8x.s 			page 379


 20204 25b0 6D696C6C 		.ascii	"milliseconds\000"
 20204      69736563 
 20204      6F6E6473 
 20204      00
 20205              	.LASF274:
 20206 25bd 6765745F 		.ascii	"get_impl\000"
 20206      696D706C 
 20206      00
 20207              	.LASF640:
 20208 25c6 7969656C 		.ascii	"yield\000"
 20208      6400
 20209              	.LASF804:
 20210 25cc 5F5A4E33 		.ascii	"_ZN3r2p16SubscriberExtBufINS_7PixyMsgEE5fetchERPS1_"
 20210      72327031 
 20210      36537562 
 20210      73637269 
 20210      62657245 
 20211 25ff 524E535F 		.ascii	"RNS_4TimeE\000"
 20211      3454696D 
 20211      654500
 20212              	.LASF657:
 20213 260a 5F5A4E33 		.ascii	"_ZN3r2p6Thread12get_priorityEv\000"
 20213      72327036 
 20213      54687265 
 20213      61643132 
 20213      6765745F 
 20214              	.LASF271:
 20215 2629 5F5A4E33 		.ascii	"_ZN3r2p11MemoryPool_4freeEPv\000"
 20215      72327031 
 20215      314D656D 
 20215      6F727950 
 20215      6F6F6C5F 
 20216              	.LASF939:
 20217 2646 5F5F7674 		.ascii	"__vtbl_ptr_type\000"
 20217      626C5F70 
 20217      74725F74 
 20217      79706500 
 20218              	.LASF806:
 20219 2656 5075626C 		.ascii	"Publisher<r2p::PIDCfgMsg>\000"
 20219      69736865 
 20219      723C7232 
 20219      703A3A50 
 20219      49444366 
 20220              	.LASF320:
 20221 2670 5F5A4E33 		.ascii	"_ZN3r2p10StaticListINS_15LocalSubscriberEE13ConstIt"
 20221      72327031 
 20221      30537461 
 20221      7469634C 
 20221      69737449 
 20222 26a3 65726174 		.ascii	"eratoraSERKS3_\000"
 20222      6F726153 
 20222      45524B53 
 20222      335F00
 20223              	.LASF149:
 20224 26b2 5553425F 		.ascii	"USB_EP0_TX\000"
 20224      4550305F 
 20224      545800
ARM GAS  /tmp/ccypRU8x.s 			page 380


 20225              	.LASF754:
 20226 26bd 5F5A4E33 		.ascii	"_ZN3r2p4Node9subscribeINS_12ProximityMsgELj5EEEbRNS"
 20226      72327034 
 20226      4E6F6465 
 20226      39737562 
 20226      73637269 
 20227 26f0 5F313053 		.ascii	"_10SubscriberIT_XT0_EEEPKc\000"
 20227      75627363 
 20227      72696265 
 20227      7249545F 
 20227      5854305F 
 20228              	.LASF132:
 20229 270b 65703073 		.ascii	"ep0state\000"
 20229      74617465 
 20229      00
 20230              	.LASF815:
 20231 2714 5F5A4E4B 		.ascii	"_ZNK3r2p13BasePublisher9get_topicEv\000"
 20231      33723270 
 20231      31334261 
 20231      73655075 
 20231      626C6973 
 20232              	.LASF197:
 20233 2738 6F75745F 		.ascii	"out_maxsize\000"
 20233      6D617873 
 20233      697A6500 
 20234              	.LASF222:
 20235 2744 62756C6B 		.ascii	"bulk_in\000"
 20235      5F696E00 
 20236              	.LASF156:
 20237 274c 31337573 		.ascii	"13usbep0state_t\000"
 20237      62657030 
 20237      73746174 
 20237      655F7400 
 20238              	.LASF282:
 20239 275c 746F5F75 		.ascii	"to_us_raw\000"
 20239      735F7261 
 20239      7700
 20240              	.LASF36:
 20241 2766 7264796D 		.ascii	"rdymsg\000"
 20241      736700
 20242              	.LASF720:
 20243 276d 5F5A4E4B 		.ascii	"_ZNK3r2p10StaticListINS_4NodeEE3endEv\000"
 20243      33723270 
 20243      31305374 
 20243      61746963 
 20243      4C697374 
 20244              	.LASF863:
 20245 2793 64746831 		.ascii	"dth1\000"
 20245      00
 20246              	.LASF864:
 20247 2798 64746832 		.ascii	"dth2\000"
 20247      00
 20248              	.LASF695:
 20249 279d 5F5A4E33 		.ascii	"_ZN3r2p10StaticListINS_4NodeEE16link_tail_unsafeERN"
 20249      72327031 
 20249      30537461 
 20249      7469634C 
ARM GAS  /tmp/ccypRU8x.s 			page 381


 20249      69737449 
 20250 27d0 53325F34 		.ascii	"S2_4LinkE\000"
 20250      4C696E6B 
 20250      4500
 20251              	.LASF896:
 20252 27da 5F5A4E33 		.ascii	"_ZN3r2p16SubscriberExtBufINS_12ProximityMsgEED2Ev\000"
 20252      72327031 
 20252      36537562 
 20252      73637269 
 20252      62657245 
 20253              	.LASF182:
 20254 280c 55534249 		.ascii	"USBInEndpointState\000"
 20254      6E456E64 
 20254      706F696E 
 20254      74537461 
 20254      746500
 20255              	.LASF42:
 20256 281f 705F7072 		.ascii	"p_prio\000"
 20256      696F00
 20257              	.LASF386:
 20258 2826 5F5A4E33 		.ascii	"_ZN3r2p10StaticListINS_15LocalSubscriberEE3endEv\000"
 20258      72327031 
 20258      30537461 
 20258      7469634C 
 20258      69737449 
 20259              	.LASF513:
 20260 2857 5F5A4E4B 		.ascii	"_ZNK3r2p5Topic16compute_deadlineEv\000"
 20260      33723270 
 20260      35546F70 
 20260      69633136 
 20260      636F6D70 
 20261              	.LASF851:
 20262 287a 74696D65 		.ascii	"timestamp\000"
 20262      7374616D 
 20262      7000
 20263              	.LASF728:
 20264 2884 5F5A4E4B 		.ascii	"_ZNK3r2p4Node14get_publishersEv\000"
 20264      33723270 
 20264      344E6F64 
 20264      65313467 
 20264      65745F70 
 20265              	.LASF502:
 20266 28a4 72656C65 		.ascii	"release_unsafe\000"
 20266      6173655F 
 20266      756E7361 
 20266      666500
 20267              	.LASF694:
 20268 28b3 5F5A4E33 		.ascii	"_ZN3r2p10StaticListINS_4NodeEE11link_unsafeERNS2_4L"
 20268      72327031 
 20268      30537461 
 20268      7469634C 
 20268      69737449 
 20269 28e6 696E6B45 		.ascii	"inkE\000"
 20269      00
 20270              	.LASF511:
 20271 28eb 636F6D70 		.ascii	"compute_deadline\000"
 20271      7574655F 
ARM GAS  /tmp/ccypRU8x.s 			page 382


 20271      64656164 
 20271      6C696E65 
 20271      00
 20272              	.LASF537:
 20273 28fc 72656663 		.ascii	"refcount\000"
 20273      6F756E74 
 20273      00
 20274              	.LASF14:
 20275 2905 5F5F7569 		.ascii	"__uint64_t\000"
 20275      6E743634 
 20275      5F7400
 20276              	.LASF832:
 20277 2910 5F5A4E33 		.ascii	"_ZN3r2p13BasePublisher9has_topicERKS0_PKc\000"
 20277      72327031 
 20277      33426173 
 20277      65507562 
 20277      6C697368 
 20278              	.LASF823:
 20279 293a 7075626C 		.ascii	"publish_remotely_unsafe\000"
 20279      6973685F 
 20279      72656D6F 
 20279      74656C79 
 20279      5F756E73 
 20280              	.LASF261:
 20281 2952 6765745F 		.ascii	"get_allocator\000"
 20281      616C6C6F 
 20281      6361746F 
 20281      7200
 20282              	.LASF813:
 20283 2960 42617365 		.ascii	"BasePublisher\000"
 20283      5075626C 
 20283      69736865 
 20283      7200
 20284              	.LASF561:
 20285 296e 436F6E73 		.ascii	"ConstLink\000"
 20285      744C696E 
 20285      6B00
 20286              	.LASF153:
 20287 2978 5553425F 		.ascii	"USB_EP0_SENDING_STS\000"
 20287      4550305F 
 20287      53454E44 
 20287      494E475F 
 20287      53545300 
 20288              	.LASF416:
 20289 298c 5F5A4E33 		.ascii	"_ZN3r2p10StaticListINS_16RemoteSubscriberEE6unlinkE"
 20289      72327031 
 20289      30537461 
 20289      7469634C 
 20289      69737449 
 20290 29bf 524E5332 		.ascii	"RNS2_4LinkE\000"
 20290      5F344C69 
 20290      6E6B4500 
 20291              	.LASF346:
 20292 29cb 756E6C69 		.ascii	"unlink_unsafe\000"
 20292      6E6B5F75 
 20292      6E736166 
 20292      6500
ARM GAS  /tmp/ccypRU8x.s 			page 383


 20293              	.LASF224:
 20294 29d9 696E745F 		.ascii	"int_in\000"
 20294      696E00
 20295              	.LASF138:
 20296 29e0 61646472 		.ascii	"address\000"
 20296      65737300 
 20297              	.LASF918:
 20298 29e8 70696463 		.ascii	"pidcfg_first_time\000"
 20298      66675F66 
 20298      69727374 
 20298      5F74696D 
 20298      6500
 20299              	.LASF940:
 20300 29fa 5F5A3130 		.ascii	"_Z10shell_nodePv\000"
 20300      7368656C 
 20300      6C5F6E6F 
 20300      64655076 
 20300      00
 20301              	.LASF628:
 20302 2a0b 63726561 		.ascii	"create_static\000"
 20302      74655F73 
 20302      74617469 
 20302      6300
 20303              	.LASF476:
 20304 2a19 6765745F 		.ascii	"get_payload_size\000"
 20304      7061796C 
 20304      6F61645F 
 20304      73697A65 
 20304      00
 20305              	.LASF155:
 20306 2a2a 75736265 		.ascii	"usbep0state_t\000"
 20306      70307374 
 20306      6174655F 
 20306      7400
 20307              	.LASF844:
 20308 2a38 74686973 		.ascii	"this\000"
 20308      00
 20309              	.LASF99:
 20310 2a3d 715F6275 		.ascii	"q_buffer\000"
 20310      66666572 
 20310      00
 20311              	.LASF40:
 20312 2a46 705F6E65 		.ascii	"p_next\000"
 20312      787400
 20313              	.LASF360:
 20314 2a4d 5F5A4E33 		.ascii	"_ZN3r2p10StaticListINS_15LocalSubscriberEE14restart"
 20314      72327031 
 20314      30537461 
 20314      7469634C 
 20314      69737449 
 20315 2a80 5F756E73 		.ascii	"_unsafeERNS2_14IteratorUnsafeE\000"
 20315      61666545 
 20315      524E5332 
 20315      5F313449 
 20315      74657261 
 20316              	.LASF936:
 20317 2a9f 5F5A4E33 		.ascii	"_ZN3r2p15LocalSubscriber13notify_unsafeERNS_7Messag"
ARM GAS  /tmp/ccypRU8x.s 			page 384


 20317      72327031 
 20317      354C6F63 
 20317      616C5375 
 20317      62736372 
 20318 2ad2 6545524B 		.ascii	"eERKNS_4TimeE\000"
 20318      4E535F34 
 20318      54696D65 
 20318      4500
 20319              	.LASF466:
 20320 2ae0 6C6F6361 		.ascii	"local_subscribers\000"
 20320      6C5F7375 
 20320      62736372 
 20320      69626572 
 20320      7300
 20321              	.LASF758:
 20322 2af2 5F767074 		.ascii	"_vptr.BaseSubscriber\000"
 20322      722E4261 
 20322      73655375 
 20322      62736372 
 20322      69626572 
 20323              	.LASF837:
 20324 2b07 54657374 		.ascii	"Test\000"
 20324      00
 20325              	.LASF125:
 20326 2b0c 55534244 		.ascii	"USBDriver\000"
 20326      72697665 
 20326      7200
 20327              	.LASF382:
 20328 2b16 5F5A4E33 		.ascii	"_ZN3r2p10StaticListINS_15LocalSubscriberEE5beginEv\000"
 20328      72327031 
 20328      30537461 
 20328      7469634C 
 20328      69737449 
 20329              	.LASF209:
 20330 2b49 55534243 		.ascii	"USBConfig\000"
 20330      6F6E6669 
 20330      6700
 20331              	.LASF438:
 20332 2b53 5F5A4E4B 		.ascii	"_ZNK3r2p10StaticListINS_5TopicEE17find_first_unsafe"
 20332      33723270 
 20332      31305374 
 20332      61746963 
 20332      4C697374 
 20333 2b86 45504662 		.ascii	"EPFbRKS1_PKvES6_\000"
 20333      524B5331 
 20333      5F504B76 
 20333      4553365F 
 20333      00
 20334              	.LASF916:
 20335 2b97 70696463 		.ascii	"pidcfg_node\000"
 20335      66675F6E 
 20335      6F646500 
 20336              	.LASF515:
 20337 2ba3 5F5A4E33 		.ascii	"_ZN3r2p5Topic7releaseERNS_7MessageE\000"
 20337      72327035 
 20337      546F7069 
 20337      63377265 
ARM GAS  /tmp/ccypRU8x.s 			page 385


 20337      6C656173 
 20338              	.LASF440:
 20339 2bc7 5F5A4E33 		.ascii	"_ZN3r2p10StaticListINS_5TopicEE10end_unsafeEv\000"
 20339      72327031 
 20339      30537461 
 20339      7469634C 
 20339      69737449 
 20340              	.LASF607:
 20341 2bf5 5F5A4E33 		.ascii	"_ZN3r2p10ArrayQueueIPNS_7MessageEE12fetch_unsafeERS"
 20341      72327031 
 20341      30417272 
 20341      61795175 
 20341      65756549 
 20342 2c28 325F00   		.ascii	"2_\000"
 20343              	.LASF433:
 20344 2c2b 5F5A4E33 		.ascii	"_ZN3r2p10StaticListINS_5TopicEE16link_tail_unsafeER"
 20344      72327031 
 20344      30537461 
 20344      7469634C 
 20344      69737449 
 20345 2c5e 4E53325F 		.ascii	"NS2_4LinkE\000"
 20345      344C696E 
 20345      6B4500
 20346              	.LASF825:
 20347 2c69 5F5A4E33 		.ascii	"_ZN3r2p13BasePublisher5allocERPNS_7MessageE\000"
 20347      72327031 
 20347      33426173 
 20347      65507562 
 20347      6C697368 
 20348              	.LASF245:
 20349 2c95 73747265 		.ascii	"strerror\000"
 20349      72726F72 
 20349      00
 20350              	.LASF401:
 20351 2c9e 5F5A4E33 		.ascii	"_ZN3r2p10StaticListINS_16RemoteSubscriberEE13unlink"
 20351      72327031 
 20351      30537461 
 20351      7469634C 
 20351      69737449 
 20352 2cd1 5F756E73 		.ascii	"_unsafeERNS2_4LinkE\000"
 20352      61666545 
 20352      524E5332 
 20352      5F344C69 
 20352      6E6B4500 
 20353              	.LASF235:
 20354 2ce5 7368656C 		.ascii	"shellcmd_t\000"
 20354      6C636D64 
 20354      5F7400
 20355              	.LASF751:
 20356 2cf0 73756273 		.ascii	"subscribe<r2p::PixyMsg, 5u>\000"
 20356      63726962 
 20356      653C7232 
 20356      703A3A50 
 20356      6978794D 
 20357              	.LASF219:
 20358 2d0c 6F717565 		.ascii	"oqueue\000"
 20358      756500
ARM GAS  /tmp/ccypRU8x.s 			page 386


 20359              	.LASF247:
 20360 2d13 73747278 		.ascii	"strxfrm\000"
 20360      66726D00 
 20361              	.LASF28:
 20362 2d1b 74726566 		.ascii	"trefs_t\000"
 20362      735F7400 
 20363              	.LASF111:
 20364 2d23 32304261 		.ascii	"20BaseSequentialStream\000"
 20364      73655365 
 20364      7175656E 
 20364      7469616C 
 20364      53747265 
 20365              	.LASF59:
 20366 2d3a 705F6D70 		.ascii	"p_mpool\000"
 20366      6F6F6C00 
 20367              	.LASF792:
 20368 2d42 53756273 		.ascii	"SubscriberExtBuf<r2p::ProximityMsg>\000"
 20368      63726962 
 20368      65724578 
 20368      74427566 
 20368      3C723270 
 20369              	.LASF769:
 20370 2d66 5F5A4E33 		.ascii	"_ZN3r2p14BaseSubscriber5fetchERPNS_7MessageERNS_4Ti"
 20370      72327031 
 20370      34426173 
 20370      65537562 
 20370      73637269 
 20371 2d99 6D654500 		.ascii	"meE\000"
 20372              	.LASF752:
 20373 2d9d 5F5A4E33 		.ascii	"_ZN3r2p4Node9subscribeINS_7PixyMsgELj5EEEbRNS_10Sub"
 20373      72327034 
 20373      4E6F6465 
 20373      39737562 
 20373      73637269 
 20374 2dd0 73637269 		.ascii	"scriberIT_XT0_EEEPKc\000"
 20374      62657249 
 20374      545F5854 
 20374      305F4545 
 20374      45504B63 
 20375              	.LASF501:
 20376 2de5 5F5A4E33 		.ascii	"_ZN3r2p5Topic12alloc_unsafeEv\000"
 20376      72327035 
 20376      546F7069 
 20376      63313261 
 20376      6C6C6F63 
 20377              	.LASF860:
 20378 2e03 6474687A 		.ascii	"dthz123\000"
 20378      31323300 
 20379              	.LASF26:
 20380 2e0b 746D6F64 		.ascii	"tmode_t\000"
 20380      655F7400 
 20381              	.LASF884:
 20382 2e13 5F5A4E33 		.ascii	"_ZN3r2p9PublisherINS_9PIDCfgMsgEEC2Ev\000"
 20382      72327039 
 20382      5075626C 
 20382      69736865 
 20382      72494E53 
ARM GAS  /tmp/ccypRU8x.s 			page 387


 20383              	.LASF388:
 20384 2e39 5F5A4E4B 		.ascii	"_ZNK3r2p10StaticListINS_15LocalSubscriberEE7restart"
 20384      33723270 
 20384      31305374 
 20384      61746963 
 20384      4C697374 
 20385 2e6c 45524E53 		.ascii	"ERNS2_13ConstIteratorE\000"
 20385      325F3133 
 20385      436F6E73 
 20385      74497465 
 20385      7261746F 
 20386              	.LASF739:
 20387 2e83 6E6F7469 		.ascii	"notify\000"
 20387      667900
 20388              	.LASF89:
 20389 2e8a 70685F6E 		.ascii	"ph_next\000"
 20389      65787400 
 20390              	.LASF310:
 20391 2e92 53746174 		.ascii	"StaticList<r2p::LocalSubscriber>\000"
 20391      69634C69 
 20391      73743C72 
 20391      32703A3A 
 20391      4C6F6361 
 20392              	.LASF292:
 20393 2eb3 746F5F6D 		.ascii	"to_ms\000"
 20393      7300
 20394              	.LASF248:
 20395 2eb9 556E636F 		.ascii	"Uncopyable\000"
 20395      70796162 
 20395      6C6500
 20396              	.LASF311:
 20397 2ec4 6E657874 		.ascii	"nextp\000"
 20397      7000
 20398              	.LASF119:
 20399 2eca 42535252 		.ascii	"BSRR\000"
 20399      00
 20400              	.LASF675:
 20401 2ecf 5F5A4E33 		.ascii	"_ZN3r2p10SpinEvent_4waitERKNS_4TimeE\000"
 20401      72327031 
 20401      30537069 
 20401      6E457665 
 20401      6E745F34 
 20402              	.LASF452:
 20403 2ef4 5F5A4E4B 		.ascii	"_ZNK3r2p10StaticListINS_5TopicEE10find_firstEPFbRKS"
 20403      33723270 
 20403      31305374 
 20403      61746963 
 20403      4C697374 
 20404 2f27 315F4500 		.ascii	"1_E\000"
 20405              	.LASF207:
 20406 2f2b 72657175 		.ascii	"requests_hook_cb\000"
 20406      65737473 
 20406      5F686F6F 
 20406      6B5F6362 
 20406      00
 20407              	.LASF179:
 20408 2f3c 74787369 		.ascii	"txsize\000"
ARM GAS  /tmp/ccypRU8x.s 			page 388


 20408      7A6500
 20409              	.LASF430:
 20410 2f43 5F5A4E4B 		.ascii	"_ZNK3r2p10StaticListINS_5TopicEE15is_empty_unsafeEv"
 20410      33723270 
 20410      31305374 
 20410      61746963 
 20410      4C697374 
 20411 2f76 00       		.ascii	"\000"
 20412              	.LASF362:
 20413 2f77 5F5A4E4B 		.ascii	"_ZNK3r2p10StaticListINS_15LocalSubscriberEE10end_un"
 20413      33723270 
 20413      31305374 
 20413      61746963 
 20413      4C697374 
 20414 2faa 73616665 		.ascii	"safeEv\000"
 20414      457600
 20415              	.LASF696:
 20416 2fb1 5F5A4E33 		.ascii	"_ZN3r2p10StaticListINS_4NodeEE13unlink_unsafeERNS2_"
 20416      72327031 
 20416      30537461 
 20416      7469634C 
 20416      69737449 
 20417 2fe4 344C696E 		.ascii	"4LinkE\000"
 20417      6B4500
 20418              	.LASF679:
 20419 2feb 5F5A4E33 		.ascii	"_ZN3r2p9SpinEvent13signal_unsafeEj\000"
 20419      72327039 
 20419      5370696E 
 20419      4576656E 
 20419      74313373 
 20420              	.LASF316:
 20421 300e 436F6E73 		.ascii	"ConstIteratorUnsafe\000"
 20421      74497465 
 20421      7261746F 
 20421      72556E73 
 20421      61666500 
 20422              	.LASF673:
 20423 3022 5F5A4E33 		.ascii	"_ZN3r2p10SpinEvent_6signalEj\000"
 20423      72327031 
 20423      30537069 
 20423      6E457665 
 20423      6E745F36 
 20424              	.LASF545:
 20425 303f 5F5A4E33 		.ascii	"_ZN3r2p7Message7acquireEv\000"
 20425      72327037 
 20425      4D657373 
 20425      61676537 
 20425      61637175 
 20426              	.LASF633:
 20427 3059 5F5A4E33 		.ascii	"_ZN3r2p7Thread_11create_poolERNS_11MemoryPool_EmPFl"
 20427      72327037 
 20427      54687265 
 20427      61645F31 
 20427      31637265 
 20428 308c 50764553 		.ascii	"PvES3_PKc\000"
 20428      335F504B 
 20428      6300
ARM GAS  /tmp/ccypRU8x.s 			page 389


 20429              	.LASF678:
 20430 3096 5F5A4E33 		.ascii	"_ZN3r2p9SpinEvent10set_threadEPNS_6ThreadE\000"
 20430      72327039 
 20430      5370696E 
 20430      4576656E 
 20430      74313073 
 20431              	.LASF426:
 20432 30c1 5F5A4E4B 		.ascii	"_ZNK3r2p10StaticListINS_16RemoteSubscriberEE7restar"
 20432      33723270 
 20432      31305374 
 20432      61746963 
 20432      4C697374 
 20433 30f4 7445524E 		.ascii	"tERNS2_13ConstIteratorE\000"
 20433      53325F31 
 20433      33436F6E 
 20433      73744974 
 20433      65726174 
 20434              	.LASF496:
 20435 310c 69735F61 		.ascii	"is_awaiting_subscriptions\000"
 20435      77616974 
 20435      696E675F 
 20435      73756273 
 20435      63726970 
 20436              	.LASF776:
 20437 3126 50697879 		.ascii	"PixyMsg\000"
 20437      4D736700 
 20438              	.LASF144:
 20439 312e 5553425F 		.ascii	"USB_READY\000"
 20439      52454144 
 20439      5900
 20440              	.LASF358:
 20441 3138 5F5A4E33 		.ascii	"_ZN3r2p10StaticListINS_15LocalSubscriberEE10end_uns"
 20441      72327031 
 20441      30537461 
 20441      7469634C 
 20441      69737449 
 20442 316b 61666545 		.ascii	"afeEv\000"
 20442      7600
 20443              	.LASF723:
 20444 3171 7075626C 		.ascii	"publishers\000"
 20444      69736865 
 20444      727300
 20445              	.LASF330:
 20446 317c 6F706572 		.ascii	"operator!=\000"
 20446      61746F72 
 20446      213D00
 20447              	.LASF357:
 20448 3187 656E645F 		.ascii	"end_unsafe\000"
 20448      756E7361 
 20448      666500
 20449              	.LASF384:
 20450 3192 5F5A4E33 		.ascii	"_ZN3r2p10StaticListINS_15LocalSubscriberEE7restartE"
 20450      72327031 
 20450      30537461 
 20450      7469634C 
 20450      69737449 
 20451 31c5 524E5332 		.ascii	"RNS2_8IteratorE\000"
ARM GAS  /tmp/ccypRU8x.s 			page 390


 20451      5F384974 
 20451      65726174 
 20451      6F724500 
 20452              	.LASF598:
 20453 31d5 5F5A4E4B 		.ascii	"_ZNK3r2p10StaticListINS_14LocalPublisherEE5beginEv\000"
 20453      33723270 
 20453      31305374 
 20453      61746963 
 20453      4C697374 
 20454              	.LASF220:
 20455 3208 31355365 		.ascii	"15SerialUSBConfig\000"
 20455      7269616C 
 20455      55534243 
 20455      6F6E6669 
 20455      6700
 20456              	.LASF72:
 20457 321a 725F6E65 		.ascii	"r_newer\000"
 20457      77657200 
 20458              	.LASF163:
 20459 3222 5553425F 		.ascii	"USB_EVENT_STALLED\000"
 20459      4556454E 
 20459      545F5354 
 20459      414C4C45 
 20459      4400
 20460              	.LASF187:
 20461 3234 72787369 		.ascii	"rxsize\000"
 20461      7A6500
 20462              	.LASF160:
 20463 323b 5553425F 		.ascii	"USB_EVENT_CONFIGURED\000"
 20463      4556454E 
 20463      545F434F 
 20463      4E464947 
 20463      55524544 
 20464              	.LASF482:
 20465 3250 6861735F 		.ascii	"has_local_publishers\000"
 20465      6C6F6361 
 20465      6C5F7075 
 20465      626C6973 
 20465      68657273 
 20466              	.LASF371:
 20467 3265 5F5A4E33 		.ascii	"_ZN3r2p10StaticListINS_15LocalSubscriberEE4linkERNS"
 20467      72327031 
 20467      30537461 
 20467      7469634C 
 20467      69737449 
 20468 3298 325F344C 		.ascii	"2_4LinkE\000"
 20468      696E6B45 
 20468      00
 20469              	.LASF227:
 20470 32a1 70757474 		.ascii	"putt\000"
 20470      00
 20471              	.LASF29:
 20472 32a6 74736C69 		.ascii	"tslices_t\000"
 20472      6365735F 
 20472      7400
 20473              	.LASF210:
 20474 32b0 31307573 		.ascii	"10usbstate_t\000"
ARM GAS  /tmp/ccypRU8x.s 			page 391


 20474      62737461 
 20474      74655F74 
 20474      00
 20475              	.LASF547:
 20476 32bd 72657365 		.ascii	"reset\000"
 20476      7400
 20477              	.LASF408:
 20478 32c3 5F5A4E33 		.ascii	"_ZN3r2p10StaticListINS_16RemoteSubscriberEE14restar"
 20478      72327031 
 20478      30537461 
 20478      7469634C 
 20478      69737449 
 20479 32f6 745F756E 		.ascii	"t_unsafeERNS2_14IteratorUnsafeE\000"
 20479      73616665 
 20479      45524E53 
 20479      325F3134 
 20479      49746572 
 20480              	.LASF203:
 20481 3316 31335553 		.ascii	"13USBDescriptor\000"
 20481      42446573 
 20481      63726970 
 20481      746F7200 
 20482              	.LASF16:
 20483 3326 73697A65 		.ascii	"sizetype\000"
 20483      74797065 
 20483      00
 20484              	.LASF304:
 20485 332f 5F5A4E33 		.ascii	"_ZN3r2p4Time2usEl\000"
 20485      72327034 
 20485      54696D65 
 20485      32757345 
 20485      6C00
 20486              	.LASF124:
 20487 3341 696F706F 		.ascii	"ioportmask_t\000"
 20487      72746D61 
 20487      736B5F74 
 20487      00
 20488              	.LASF161:
 20489 334e 5553425F 		.ascii	"USB_EVENT_SUSPEND\000"
 20489      4556454E 
 20489      545F5355 
 20489      5350454E 
 20489      4400
 20490              	.LASF729:
 20491 3360 6765745F 		.ascii	"get_subscribers\000"
 20491      73756273 
 20491      63726962 
 20491      65727300 
 20492              	.LASF80:
 20493 3370 4576656E 		.ascii	"EventListener\000"
 20493      744C6973 
 20493      74656E65 
 20493      7200
 20494              	.LASF548:
 20495 337e 5F5A4E33 		.ascii	"_ZN3r2p7Message5resetEv\000"
 20495      72327037 
 20495      4D657373 
ARM GAS  /tmp/ccypRU8x.s 			page 392


 20495      61676535 
 20495      72657365 
 20496              	.LASF19:
 20497 3396 696E7431 		.ascii	"int16_t\000"
 20497      365F7400 
 20498              	.LASF8:
 20499 339e 73686F72 		.ascii	"short unsigned int\000"
 20499      7420756E 
 20499      7369676E 
 20499      65642069 
 20499      6E7400
 20500              	.LASF1:
 20501 33b1 7369676E 		.ascii	"signed char\000"
 20501      65642063 
 20501      68617200 
 20502              	.LASF847:
 20503 33bd 73756363 		.ascii	"success\000"
 20503      65737300 
 20504              	.LASF51:
 20505 33c5 705F7072 		.ascii	"p_preempt\000"
 20505      65656D70 
 20505      7400
 20506              	.LASF52:
 20507 33cf 705F7469 		.ascii	"p_time\000"
 20507      6D6500
 20508              	.LASF873:
 20509 33d6 636D645F 		.ascii	"cmd_stop\000"
 20509      73746F70 
 20509      00
 20510              	.LASF429:
 20511 33df 5F5A4E4B 		.ascii	"_ZNK3r2p10StaticListINS_5TopicEE15get_head_unsafeEv"
 20511      33723270 
 20511      31305374 
 20511      61746963 
 20511      4C697374 
 20512 3412 00       		.ascii	"\000"
 20513              	.LASF862:
 20514 3413 64793132 		.ascii	"dy12\000"
 20514      00
 20515              	.LASF887:
 20516 3418 5F5A4E33 		.ascii	"_ZN3r2p10SubscriberINS_7PixyMsgELj5EEC2EPFbRKS1_E\000"
 20516      72327031 
 20516      30537562 
 20516      73637269 
 20516      62657249 
 20517              	.LASF267:
 20518 344a 616C6C6F 		.ascii	"alloc\000"
 20518      6300
 20519              	.LASF771:
 20520 3450 6861735F 		.ascii	"has_topic\000"
 20520      746F7069 
 20520      6300
 20521              	.LASF352:
 20522 345a 66696E64 		.ascii	"find_first_unsafe\000"
 20522      5F666972 
 20522      73745F75 
 20522      6E736166 
ARM GAS  /tmp/ccypRU8x.s 			page 393


 20522      6500
 20523              	.LASF137:
 20524 346c 73746174 		.ascii	"status\000"
 20524      757300
 20525              	.LASF564:
 20526 3473 5F5A4E4B 		.ascii	"_ZNK3r2p10StaticListINS_14LocalPublisherEE13ConstIt"
 20526      33723270 
 20526      31305374 
 20526      61746963 
 20526      4C697374 
 20527 34a6 65726174 		.ascii	"eratordeEv\000"
 20527      6F726465 
 20527      457600
 20528              	.LASF645:
 20529 34b1 5F5A4E33 		.ascii	"_ZN3r2p7Thread_4joinERS0_\000"
 20529      72327037 
 20529      54687265 
 20529      61645F34 
 20529      6A6F696E 
 20530              	.LASF368:
 20531 34cb 636F756E 		.ascii	"count\000"
 20531      7400
 20532              	.LASF167:
 20533 34d1 55534244 		.ascii	"USBDescriptor\000"
 20533      65736372 
 20533      6970746F 
 20533      7200
 20534              	.LASF331:
 20535 34df 5F5A4E4B 		.ascii	"_ZNK3r2p10StaticListINS_15LocalSubscriberEE13ConstI"
 20535      33723270 
 20535      31305374 
 20535      61746963 
 20535      4C697374 
 20536 3512 74657261 		.ascii	"teratorneERKS3_\000"
 20536      746F726E 
 20536      6545524B 
 20536      53335F00 
 20537              	.LASF506:
 20538 3522 5F5A4E33 		.ascii	"_ZN3r2p5Topic20notify_locals_unsafeERNS_7MessageERK"
 20538      72327035 
 20538      546F7069 
 20538      6332306E 
 20538      6F746966 
 20539 3555 4E535F34 		.ascii	"NS_4TimeE\000"
 20539      54696D65 
 20539      4500
 20540              	.LASF707:
 20541 355f 5F5A4E4B 		.ascii	"_ZNK3r2p10StaticListINS_4NodeEE8get_headEv\000"
 20541      33723270 
 20541      31305374 
 20541      61746963 
 20541      4C697374 
 20542              	.LASF518:
 20543 358a 5F5A4E33 		.ascii	"_ZN3r2p5Topic13notify_localsERNS_7MessageERKNS_4Tim"
 20543      72327035 
 20543      546F7069 
 20543      6331336E 
ARM GAS  /tmp/ccypRU8x.s 			page 394


 20543      6F746966 
 20544 35bd 654500   		.ascii	"eE\000"
 20545              	.LASF623:
 20546 35c0 46756E63 		.ascii	"Function\000"
 20546      74696F6E 
 20546      00
 20547              	.LASF454:
 20548 35c9 5F5A4E33 		.ascii	"_ZN3r2p10StaticListINS_5TopicEE5beginEv\000"
 20548      72327031 
 20548      30537461 
 20548      7469634C 
 20548      69737449 
 20549              	.LASF402:
 20550 35f1 5F5A4E4B 		.ascii	"_ZNK3r2p10StaticListINS_16RemoteSubscriberEE15index"
 20550      33723270 
 20550      31305374 
 20550      61746963 
 20550      4C697374 
 20551 3624 5F6F665F 		.ascii	"_of_unsafeERKS1_\000"
 20551      756E7361 
 20551      66654552 
 20551      4B53315F 
 20551      00
 20552              	.LASF542:
 20553 3635 5F5A4E33 		.ascii	"_ZN3r2p7Message14release_unsafeEv\000"
 20553      72327037 
 20553      4D657373 
 20553      61676531 
 20553      3472656C 
 20554              	.LASF78:
 20555 3657 6D5F6F77 		.ascii	"m_owner\000"
 20555      6E657200 
 20556              	.LASF63:
 20557 365f 54687265 		.ascii	"ThreadsList\000"
 20557      6164734C 
 20557      69737400 
 20558              	.LASF392:
 20559 366b 66657463 		.ascii	"fetch_unsafe\000"
 20559      685F756E 
 20559      73616665 
 20559      00
 20560              	.LASF693:
 20561 3678 5F5A4E4B 		.ascii	"_ZNK3r2p10StaticListINS_4NodeEE12count_unsafeEv\000"
 20561      33723270 
 20561      31305374 
 20561      61746963 
 20561      4C697374 
 20562              	.LASF550:
 20563 36a8 5F5A4E33 		.ascii	"_ZN3r2p7Message4copyERS0_RKS0_j\000"
 20563      72327037 
 20563      4D657373 
 20563      61676534 
 20563      636F7079 
 20564              	.LASF437:
 20565 36c8 5F5A4E4B 		.ascii	"_ZNK3r2p10StaticListINS_5TopicEE17find_first_unsafe"
 20565      33723270 
 20565      31305374 
ARM GAS  /tmp/ccypRU8x.s 			page 395


 20565      61746963 
 20565      4C697374 
 20566 36fb 45504662 		.ascii	"EPFbRKS1_E\000"
 20566      524B5331 
 20566      5F4500
 20567              	.LASF883:
 20568 3706 5F5A4E33 		.ascii	"_ZN3r2p9PublisherINS_9Speed3MsgEEC2Ev\000"
 20568      72327039 
 20568      5075626C 
 20568      69736865 
 20568      72494E53 
 20569              	.LASF348:
 20570 372c 696E6465 		.ascii	"index_of_unsafe\000"
 20570      785F6F66 
 20570      5F756E73 
 20570      61666500 
 20571              	.LASF126:
 20572 373c 73746174 		.ascii	"state\000"
 20572      6500
 20573              	.LASF733:
 20574 3742 7365745F 		.ascii	"set_enabled\000"
 20574      656E6162 
 20574      6C656400 
 20575              	.LASF600:
 20576 374e 5F5A4E4B 		.ascii	"_ZNK3r2p10StaticListINS_14LocalPublisherEE7restartE"
 20576      33723270 
 20576      31305374 
 20576      61746963 
 20576      4C697374 
 20577 3781 524E5332 		.ascii	"RNS2_13ConstIteratorE\000"
 20577      5F313343 
 20577      6F6E7374 
 20577      49746572 
 20577      61746F72 
 20578              	.LASF264:
 20579 3797 616C6C6F 		.ascii	"alloc_unsafe\000"
 20579      635F756E 
 20579      73616665 
 20579      00
 20580              	.LASF151:
 20581 37a4 5553425F 		.ascii	"USB_EP0_WAITING_STS\000"
 20581      4550305F 
 20581      57414954 
 20581      494E475F 
 20581      53545300 
 20582              	.LASF570:
 20583 37b8 5F5A4E4B 		.ascii	"_ZNK3r2p10StaticListINS_14LocalPublisherEE15get_hea"
 20583      33723270 
 20583      31305374 
 20583      61746963 
 20583      4C697374 
 20584 37eb 645F756E 		.ascii	"d_unsafeEv\000"
 20584      73616665 
 20584      457600
 20585              	.LASF902:
 20586 37f6 5F5A4E33 		.ascii	"_ZN3r2p10SubscriberINS_7PixyMsgELj5EED2Ev\000"
 20586      72327031 
ARM GAS  /tmp/ccypRU8x.s 			page 396


 20586      30537562 
 20586      73637269 
 20586      62657249 
 20587              	.LASF653:
 20588 3820 5F5A4E33 		.ascii	"_ZN3r2p6Thread18compute_stack_sizeEj\000"
 20588      72327036 
 20588      54687265 
 20588      61643138 
 20588      636F6D70 
 20589              	.LASF425:
 20590 3845 5F5A4E4B 		.ascii	"_ZNK3r2p10StaticListINS_16RemoteSubscriberEE3endEv\000"
 20590      33723270 
 20590      31305374 
 20590      61746963 
 20590      4C697374 
 20591              	.LASF641:
 20592 3878 5F5A4E33 		.ascii	"_ZN3r2p7Thread_5yieldEv\000"
 20592      72327037 
 20592      54687265 
 20592      61645F35 
 20592      7969656C 
 20593              	.LASF661:
 20594 3890 5F5A4E33 		.ascii	"_ZN3r2p6Thread4joinERS0_\000"
 20594      72327036 
 20594      54687265 
 20594      6164346A 
 20594      6F696E45 
 20595              	.LASF595:
 20596 38a9 5F5A4E33 		.ascii	"_ZN3r2p10StaticListINS_14LocalPublisherEE5beginEv\000"
 20596      72327031 
 20596      30537461 
 20596      7469634C 
 20596      69737449 
 20597              	.LASF265:
 20598 38db 5F5A4E33 		.ascii	"_ZN3r2p11MemoryPool_12alloc_unsafeEv\000"
 20598      72327031 
 20598      314D656D 
 20598      6F727950 
 20598      6F6F6C5F 
 20599              	.LASF906:
 20600 3900 5F5A4E33 		.ascii	"_ZN3r2p9PublisherINS_9Speed3MsgEED2Ev\000"
 20600      72327039 
 20600      5075626C 
 20600      69736865 
 20600      72494E53 
 20601              	.LASF886:
 20602 3926 63616C6C 		.ascii	"callback\000"
 20602      6261636B 
 20602      00
 20603              	.LASF356:
 20604 392f 5F5A4E33 		.ascii	"_ZN3r2p10StaticListINS_15LocalSubscriberEE12begin_u"
 20604      72327031 
 20604      30537461 
 20604      7469634C 
 20604      69737449 
 20605 3962 6E736166 		.ascii	"nsafeEv\000"
 20605      65457600 
ARM GAS  /tmp/ccypRU8x.s 			page 397


 20606              	.LASF106:
 20607 396a 496E7075 		.ascii	"InputQueue\000"
 20607      74517565 
 20607      756500
 20608              	.LASF374:
 20609 3975 696E6465 		.ascii	"index_of\000"
 20609      785F6F66 
 20609      00
 20610              	.LASF299:
 20611 397e 5F5A4E33 		.ascii	"_ZN3r2p4TimeaSERKS0_\000"
 20611      72327034 
 20611      54696D65 
 20611      61534552 
 20611      4B53305F 
 20612              	.LASF797:
 20613 3993 5F5A4E33 		.ascii	"_ZN3r2p16SubscriberExtBufINS_12ProximityMsgEE5fetch"
 20613      72327031 
 20613      36537562 
 20613      73637269 
 20613      62657245 
 20614 39c6 45525053 		.ascii	"ERPS1_RNS_4TimeE\000"
 20614      315F524E 
 20614      535F3454 
 20614      696D6545 
 20614      00
 20615              	.LASF403:
 20616 39d7 5F5A4E4B 		.ascii	"_ZNK3r2p10StaticListINS_16RemoteSubscriberEE15conta"
 20616      33723270 
 20616      31305374 
 20616      61746963 
 20616      4C697374 
 20617 3a0a 696E735F 		.ascii	"ins_unsafeERKS1_\000"
 20617      756E7361 
 20617      66654552 
 20617      4B53315F 
 20617      00
 20618              	.LASF471:
 20619 3a1b 5F5A4E4B 		.ascii	"_ZNK3r2p5Topic8get_nameEv\000"
 20619      33723270 
 20619      35546F70 
 20619      69633867 
 20619      65745F6E 
 20620              	.LASF748:
 20621 3a35 5F5A4E33 		.ascii	"_ZN3r2p4Node8has_nameERKS0_PKc\000"
 20621      72327034 
 20621      4E6F6465 
 20621      38686173 
 20621      5F6E616D 
 20622              	.LASF500:
 20623 3a54 5F5A4E4B 		.ascii	"_ZNK3r2p5Topic23compute_deadline_unsafeEv\000"
 20623      33723270 
 20623      35546F70 
 20623      69633233 
 20623      636F6D70 
 20624              	.LASF457:
 20625 3a7e 5F5A4E4B 		.ascii	"_ZNK3r2p10StaticListINS_5TopicEE5beginEv\000"
 20625      33723270 
ARM GAS  /tmp/ccypRU8x.s 			page 398


 20625      31305374 
 20625      61746963 
 20625      4C697374 
 20626              	.LASF91:
 20627 3aa7 6D705F6E 		.ascii	"mp_next\000"
 20627      65787400 
 20628              	.LASF531:
 20629 3aaf 70617463 		.ascii	"patch_pubsub_msg\000"
 20629      685F7075 
 20629      62737562 
 20629      5F6D7367 
 20629      00
 20630              	.LASF608:
 20631 3ac0 736B6970 		.ascii	"skip_unsafe\000"
 20631      5F756E73 
 20631      61666500 
 20632              	.LASF757:
 20633 3acc 42617365 		.ascii	"BaseSubscriber\000"
 20633      53756273 
 20633      63726962 
 20633      657200
 20634              	.LASF470:
 20635 3adb 6765745F 		.ascii	"get_name\000"
 20635      6E616D65 
 20635      00
 20636              	.LASF549:
 20637 3ae4 636F7079 		.ascii	"copy\000"
 20637      00
 20638              	.LASF93:
 20639 3ae9 6D705F70 		.ascii	"mp_provider\000"
 20639      726F7669 
 20639      64657200 
 20640              	.LASF943:
 20641 3af5 5F474C4F 		.ascii	"_GLOBAL__sub_I_vel_node\000"
 20641      42414C5F 
 20641      5F737562 
 20641      5F495F76 
 20641      656C5F6E 
 20642              	.LASF632:
 20643 3b0d 63726561 		.ascii	"create_pool\000"
 20643      74655F70 
 20643      6F6F6C00 
 20644              	.LASF489:
 20645 3b19 5F5A4E4B 		.ascii	"_ZNK3r2p5Topic21has_local_subscribersEv\000"
 20645      33723270 
 20645      35546F70 
 20645      69633231 
 20645      6861735F 
 20646              	.LASF50:
 20647 3b41 705F7265 		.ascii	"p_refs\000"
 20647      667300
 20648              	.LASF192:
 20649 3b48 65705F6D 		.ascii	"ep_mode\000"
 20649      6F646500 
 20650              	.LASF889:
 20651 3b50 5F5A4E33 		.ascii	"_ZN3r2p10SubscriberINS_12ProximityMsgELj5EEC2EPFbRK"
 20651      72327031 
ARM GAS  /tmp/ccypRU8x.s 			page 399


 20651      30537562 
 20651      73637269 
 20651      62657249 
 20652 3b83 53315F45 		.ascii	"S1_E\000"
 20652      00
 20653              	.LASF719:
 20654 3b88 5F5A4E4B 		.ascii	"_ZNK3r2p10StaticListINS_4NodeEE5beginEv\000"
 20654      33723270 
 20654      31305374 
 20654      61746963 
 20654      4C697374 
 20655              	.LASF10:
 20656 3bb0 6C6F6E67 		.ascii	"long int\000"
 20656      20696E74 
 20656      00
 20657              	.LASF829:
 20658 3bb9 7075626C 		.ascii	"publish_remotely\000"
 20658      6973685F 
 20658      72656D6F 
 20658      74656C79 
 20658      00
 20659              	.LASF307:
 20660 3bca 5F5A4E33 		.ascii	"_ZN3r2p4Time1mEl\000"
 20660      72327034 
 20660      54696D65 
 20660      316D456C 
 20660      00
 20661              	.LASF134:
 20662 3bdb 6570306E 		.ascii	"ep0n\000"
 20662      00
 20663              	.LASF77:
 20664 3be0 6D5F7175 		.ascii	"m_queue\000"
 20664      65756500 
 20665              	.LASF923:
 20666 3be8 70726F78 		.ascii	"proximity_node\000"
 20666      696D6974 
 20666      795F6E6F 
 20666      646500
 20667              	.LASF397:
 20668 3bf7 5F5A4E4B 		.ascii	"_ZNK3r2p10StaticListINS_16RemoteSubscriberEE15is_em"
 20668      33723270 
 20668      31305374 
 20668      61746963 
 20668      4C697374 
 20669 3c2a 7074795F 		.ascii	"pty_unsafeEv\000"
 20669      756E7361 
 20669      66654576 
 20669      00
 20670              	.LASF324:
 20671 3c37 5F5A4E4B 		.ascii	"_ZNK3r2p10StaticListINS_15LocalSubscriberEE13ConstI"
 20671      33723270 
 20671      31305374 
 20671      61746963 
 20671      4C697374 
 20672 3c6a 74657261 		.ascii	"teratordeEv\000"
 20672      746F7264 
 20672      65457600 
ARM GAS  /tmp/ccypRU8x.s 			page 400


 20673              	.LASF226:
 20674 3c76 53657269 		.ascii	"SerialUSBDriverVMT\000"
 20674      616C5553 
 20674      42447269 
 20674      76657256 
 20674      4D5400
 20675              	.LASF373:
 20676 3c89 5F5A4E33 		.ascii	"_ZN3r2p10StaticListINS_15LocalSubscriberEE6unlinkER"
 20676      72327031 
 20676      30537461 
 20676      7469634C 
 20676      69737449 
 20677 3cbc 4E53325F 		.ascii	"NS2_4LinkE\000"
 20677      344C696E 
 20677      6B4500
 20678              	.LASF378:
 20679 3cc7 66696E64 		.ascii	"find_first\000"
 20679      5F666972 
 20679      737400
 20680              	.LASF767:
 20681 3cd2 5F5A4E33 		.ascii	"_ZN3r2p14BaseSubscriber14release_unsafeERNS_7Messag"
 20681      72327031 
 20681      34426173 
 20681      65537562 
 20681      73637269 
 20682 3d05 654500   		.ascii	"eE\000"
 20683              	.LASF361:
 20684 3d08 5F5A4E4B 		.ascii	"_ZNK3r2p10StaticListINS_15LocalSubscriberEE12begin_"
 20684      33723270 
 20684      31305374 
 20684      61746963 
 20684      4C697374 
 20685 3d3b 756E7361 		.ascii	"unsafeEv\000"
 20685      66654576 
 20685      00
 20686              	.LASF894:
 20687 3d44 5F5A4E33 		.ascii	"_ZN3r2p16SubscriberExtBufINS_7PixyMsgEED0Ev\000"
 20687      72327031 
 20687      36537562 
 20687      73637269 
 20687      62657245 
 20688              	.LASF228:
 20689 3d70 67657474 		.ascii	"gett\000"
 20689      00
 20690              	.LASF488:
 20691 3d75 6861735F 		.ascii	"has_local_subscribers\000"
 20691      6C6F6361 
 20691      6C5F7375 
 20691      62736372 
 20691      69626572 
 20692              	.LASF556:
 20693 3d8b 62795F6E 		.ascii	"by_node\000"
 20693      6F646500 
 20694              	.LASF102:
 20695 3d93 715F7264 		.ascii	"q_rdptr\000"
 20695      70747200 
 20696              	.LASF67:
ARM GAS  /tmp/ccypRU8x.s 			page 401


 20697 3d9b 636F6E74 		.ascii	"context\000"
 20697      65787400 
 20698              	.LASF109:
 20699 3da3 77726974 		.ascii	"write\000"
 20699      6500
 20700              	.LASF218:
 20701 3da9 69717565 		.ascii	"iqueue\000"
 20701      756500
 20702              	.LASF194:
 20703 3db0 696E5F63 		.ascii	"in_cb\000"
 20703      6200
 20704              	.LASF377:
 20705 3db6 5F5A4E4B 		.ascii	"_ZNK3r2p10StaticListINS_15LocalSubscriberEE8contain"
 20705      33723270 
 20705      31305374 
 20705      61746963 
 20705      4C697374 
 20706 3de9 7345524B 		.ascii	"sERKS1_\000"
 20706      53315F00 
 20707              	.LASF120:
 20708 3df1 4C434B52 		.ascii	"LCKR\000"
 20708      00
 20709              	.LASF22:
 20710 3df6 75696E74 		.ascii	"uint32_t\000"
 20710      33325F74 
 20710      00
 20711              	.LASF319:
 20712 3dff 436F6E73 		.ascii	"ConstIterator\000"
 20712      74497465 
 20712      7261746F 
 20712      7200
 20713              	.LASF630:
 20714 3e0d 63726561 		.ascii	"create_heap\000"
 20714      74655F68 
 20714      65617000 
 20715              	.LASF171:
 20716 3e19 75736272 		.ascii	"usbreqhandler_t\000"
 20716      65716861 
 20716      6E646C65 
 20716      725F7400 
 20717              	.LASF338:
 20718 3e29 5F5A4E4B 		.ascii	"_ZNK3r2p10StaticListINS_15LocalSubscriberEE15get_he"
 20718      33723270 
 20718      31305374 
 20718      61746963 
 20718      4C697374 
 20719 3e5c 61645F75 		.ascii	"ad_unsafeEv\000"
 20719      6E736166 
 20719      65457600 
 20720              	.LASF772:
 20721 3e68 5F5A4E33 		.ascii	"_ZN3r2p14BaseSubscriber9has_topicERKS0_PKc\000"
 20721      72327031 
 20721      34426173 
 20721      65537562 
 20721      73637269 
 20722              	.LASF785:
 20723 3e93 71756575 		.ascii	"queue_buf\000"
ARM GAS  /tmp/ccypRU8x.s 			page 402


 20723      655F6275 
 20723      6600
 20724              	.LASF516:
 20725 3e9d 5F5A4E33 		.ascii	"_ZN3r2p5Topic4freeERNS_7MessageE\000"
 20725      72327035 
 20725      546F7069 
 20725      63346672 
 20725      65654552 
 20726              	.LASF246:
 20727 3ebe 73747274 		.ascii	"strtok\000"
 20727      6F6B00
 20728              	.LASF828:
 20729 3ec5 5F5A4E33 		.ascii	"_ZN3r2p13BasePublisher15publish_locallyERNS_7Messag"
 20729      72327031 
 20729      33426173 
 20729      65507562 
 20729      6C697368 
 20730 3ef8 654500   		.ascii	"eE\000"
 20731              	.LASF64:
 20732 3efb 72656761 		.ascii	"regarm_t\000"
 20732      726D5F74 
 20732      00
 20733              	.LASF32:
 20734 3f04 6576656E 		.ascii	"eventmask_t\000"
 20734      746D6173 
 20734      6B5F7400 
 20735              	.LASF158:
 20736 3f10 5553425F 		.ascii	"USB_EVENT_RESET\000"
 20736      4556454E 
 20736      545F5245 
 20736      53455400 
 20737              	.LASF615:
 20738 3f20 5F5A4E33 		.ascii	"_ZN3r2p10ArrayQueueIPNS_7MessageEE4postES2_\000"
 20738      72327031 
 20738      30417272 
 20738      61795175 
 20738      65756549 
 20739              	.LASF284:
 20740 3f4c 746F5F6D 		.ascii	"to_ms_raw\000"
 20740      735F7261 
 20740      7700
 20741              	.LASF504:
 20742 3f56 5F5A4E33 		.ascii	"_ZN3r2p5Topic11free_unsafeERNS_7MessageE\000"
 20742      72327035 
 20742      546F7069 
 20742      63313166 
 20742      7265655F 
 20743              	.LASF145:
 20744 3f7f 5553425F 		.ascii	"USB_SELECTED\000"
 20744      53454C45 
 20744      43544544 
 20744      00
 20745              	.LASF424:
 20746 3f8c 5F5A4E4B 		.ascii	"_ZNK3r2p10StaticListINS_16RemoteSubscriberEE5beginE"
 20746      33723270 
 20746      31305374 
 20746      61746963 
ARM GAS  /tmp/ccypRU8x.s 			page 403


 20746      4C697374 
 20747 3fbf 7600     		.ascii	"v\000"
 20748              	.LASF622:
 20749 3fc1 5072696F 		.ascii	"Priority\000"
 20749      72697479 
 20749      00
 20750              	.LASF12:
 20751 3fca 6C6F6E67 		.ascii	"long unsigned int\000"
 20751      20756E73 
 20751      69676E65 
 20751      6420696E 
 20751      7400
 20752              	.LASF24:
 20753 3fdc 626F6F6C 		.ascii	"bool_t\000"
 20753      5F7400
 20754              	.LASF658:
 20755 3fe3 5F5A4E33 		.ascii	"_ZN3r2p6Thread12set_priorityEm\000"
 20755      72327036 
 20755      54687265 
 20755      61643132 
 20755      7365745F 
 20756              	.LASF819:
 20757 4002 7075626C 		.ascii	"publish_unsafe\000"
 20757      6973685F 
 20757      756E7361 
 20757      666500
 20758              	.LASF730:
 20759 4011 5F5A4E4B 		.ascii	"_ZNK3r2p4Node15get_subscribersEv\000"
 20759      33723270 
 20759      344E6F64 
 20759      65313567 
 20759      65745F73 
 20760              	.LASF273:
 20761 4032 5F5A4E33 		.ascii	"_ZN3r2p11MemoryPool_6extendEPvj\000"
 20761      72327031 
 20761      314D656D 
 20761      6F727950 
 20761      6F6F6C5F 
 20762              	.LASF300:
 20763 4052 6F706572 		.ascii	"operator+=\000"
 20763      61746F72 
 20763      2B3D00
 20764              	.LASF349:
 20765 405d 5F5A4E4B 		.ascii	"_ZNK3r2p10StaticListINS_15LocalSubscriberEE15index_"
 20765      33723270 
 20765      31305374 
 20765      61746963 
 20765      4C697374 
 20766 4090 6F665F75 		.ascii	"of_unsafeERKS1_\000"
 20766      6E736166 
 20766      6545524B 
 20766      53315F00 
 20767              	.LASF508:
 20768 40a0 5F5A4E33 		.ascii	"_ZN3r2p5Topic21notify_remotes_unsafeERNS_7MessageER"
 20768      72327035 
 20768      546F7069 
 20768      6332316E 
ARM GAS  /tmp/ccypRU8x.s 			page 404


 20768      6F746966 
 20769 40d3 4B4E535F 		.ascii	"KNS_4TimeE\000"
 20769      3454696D 
 20769      654500
 20770              	.LASF941:
 20771 40de 636C616D 		.ascii	"clamp<float>\000"
 20771      703C666C 
 20771      6F61743E 
 20771      00
 20772              	.LASF159:
 20773 40eb 5553425F 		.ascii	"USB_EVENT_ADDRESS\000"
 20773      4556454E 
 20773      545F4144 
 20773      44524553 
 20773      5300
 20774              	.LASF826:
 20775 40fd 5F5A4E33 		.ascii	"_ZN3r2p13BasePublisher7publishERNS_7MessageE\000"
 20775      72327031 
 20775      33426173 
 20775      65507562 
 20775      6C697368 
 20776              	.LASF305:
 20777 412a 5F5A4E33 		.ascii	"_ZN3r2p4Time2msEl\000"
 20777      72327034 
 20777      54696D65 
 20777      326D7345 
 20777      6C00
 20778              	.LASF213:
 20779 413c 5344555F 		.ascii	"SDU_STOP\000"
 20779      53544F50 
 20779      00
 20780              	.LASF582:
 20781 4145 5F5A4E33 		.ascii	"_ZN3r2p10StaticListINS_14LocalPublisherEE14restart_"
 20781      72327031 
 20781      30537461 
 20781      7469634C 
 20781      69737449 
 20782 4178 756E7361 		.ascii	"unsafeERNS2_14IteratorUnsafeE\000"
 20782      66654552 
 20782      4E53325F 
 20782      31344974 
 20782      65726174 
 20783              	.LASF325:
 20784 4196 6F706572 		.ascii	"operator++\000"
 20784      61746F72 
 20784      2B2B00
 20785              	.LASF559:
 20786 41a1 5472616E 		.ascii	"Transport\000"
 20786      73706F72 
 20786      7400
 20787              	.LASF629:
 20788 41ab 5F5A4E33 		.ascii	"_ZN3r2p7Thread_13create_staticEPvjmPFlS1_ES1_PKc\000"
 20788      72327037 
 20788      54687265 
 20788      61645F31 
 20788      33637265 
 20789              	.LASF656:
ARM GAS  /tmp/ccypRU8x.s 			page 405


 20790 41dc 5F5A4E33 		.ascii	"_ZN3r2p6Thread4selfEv\000"
 20790      72327036 
 20790      54687265 
 20790      61643473 
 20790      656C6645 
 20791              	.LASF578:
 20792 41f2 5F5A4E4B 		.ascii	"_ZNK3r2p10StaticListINS_14LocalPublisherEE17find_fi"
 20792      33723270 
 20792      31305374 
 20792      61746963 
 20792      4C697374 
 20793 4225 7273745F 		.ascii	"rst_unsafeEPFbRKS1_E\000"
 20793      756E7361 
 20793      66654550 
 20793      4662524B 
 20793      53315F45 
 20794              	.LASF926:
 20795 423a 73657269 		.ascii	"serialp\000"
 20795      616C7000 
 20796              	.LASF164:
 20797 4242 75736265 		.ascii	"usbevent_t\000"
 20797      76656E74 
 20797      5F7400
 20798              	.LASF332:
 20799 424d 69735F76 		.ascii	"is_valid\000"
 20799      616C6964 
 20799      00
 20800              	.LASF17:
 20801 4256 63686172 		.ascii	"char\000"
 20801      00
 20802              	.LASF250:
 20803 425b 5379734C 		.ascii	"SysLock_\000"
 20803      6F636B5F 
 20803      00
 20804              	.LASF69:
 20805 4264 725F7175 		.ascii	"r_queue\000"
 20805      65756500 
 20806              	.LASF606:
 20807 426c 5F5A4E33 		.ascii	"_ZN3r2p10ArrayQueueIPNS_7MessageEE11post_unsafeES2_"
 20807      72327031 
 20807      30417272 
 20807      61795175 
 20807      65756549 
 20808 429f 00       		.ascii	"\000"
 20809              	.LASF468:
 20810 42a0 6D61785F 		.ascii	"max_queue_length\000"
 20810      71756575 
 20810      655F6C65 
 20810      6E677468 
 20810      00
 20811              	.LASF856:
 20812 42b1 63687072 		.ascii	"chprintf\000"
 20812      696E7466 
 20812      00
 20813              	.LASF850:
 20814 42ba 656E6162 		.ascii	"enabled\000"
 20814      6C656400 
ARM GAS  /tmp/ccypRU8x.s 			page 406


 20815              	.LASF664:
 20816 42c2 4D61736B 		.ascii	"Mask\000"
 20816      00
 20817              	.LASF498:
 20818 42c7 636F6D70 		.ascii	"compute_deadline_unsafe\000"
 20818      7574655F 
 20818      64656164 
 20818      6C696E65 
 20818      5F756E73 
 20819              	.LASF637:
 20820 42df 5F5A4E33 		.ascii	"_ZN3r2p7Thread_12get_priorityEv\000"
 20820      72327037 
 20820      54687265 
 20820      61645F31 
 20820      32676574 
 20821              	.LASF942:
 20822 42ff 5F5F7374 		.ascii	"__static_initialization_and_destruction_0\000"
 20822      61746963 
 20822      5F696E69 
 20822      7469616C 
 20822      697A6174 
 20823              	.LASF104:
 20824 4329 715F6C69 		.ascii	"q_link\000"
 20824      6E6B00
 20825              	.LASF920:
 20826 4330 70697879 		.ascii	"pixy_sub\000"
 20826      5F737562 
 20826      00
 20827              	.LASF654:
 20828 4339 5F5A4E33 		.ascii	"_ZN3r2p6Thread13create_staticEPvjmPFlS1_ES1_PKc\000"
 20828      72327036 
 20828      54687265 
 20828      61643133 
 20828      63726561 
 20829              	.LASF351:
 20830 4369 5F5A4E4B 		.ascii	"_ZNK3r2p10StaticListINS_15LocalSubscriberEE15contai"
 20830      33723270 
 20830      31305374 
 20830      61746963 
 20830      4C697374 
 20831 439c 6E735F75 		.ascii	"ns_unsafeERKS1_\000"
 20831      6E736166 
 20831      6545524B 
 20831      53315F00 
 20832              	.LASF635:
 20833 43ac 6765745F 		.ascii	"get_priority\000"
 20833      7072696F 
 20833      72697479 
 20833      00
 20834              	.LASF302:
 20835 43b9 6F706572 		.ascii	"operator-=\000"
 20835      61746F72 
 20835      2D3D00
 20836              	.LASF321:
 20837 43c4 6F706572 		.ascii	"operator->\000"
 20837      61746F72 
 20837      2D3E00
ARM GAS  /tmp/ccypRU8x.s 			page 407


 20838              	.LASF588:
 20839 43cf 5F5A4E4B 		.ascii	"_ZNK3r2p10StaticListINS_14LocalPublisherEE5countEv\000"
 20839      33723270 
 20839      31305374 
 20839      61746963 
 20839      4C697374 
 20840              	.LASF572:
 20841 4402 5F5A4E4B 		.ascii	"_ZNK3r2p10StaticListINS_14LocalPublisherEE12count_u"
 20841      33723270 
 20841      31305374 
 20841      61746963 
 20841      4C697374 
 20842 4435 6E736166 		.ascii	"nsafeEv\000"
 20842      65457600 
 20843              	.LASF487:
 20844 443d 5F5A4E4B 		.ascii	"_ZNK3r2p5Topic14has_publishersEv\000"
 20844      33723270 
 20844      35546F70 
 20844      69633134 
 20844      6861735F 
 20845              	.LASF61:
 20846 445e 31325468 		.ascii	"12ThreadsQueue\000"
 20846      72656164 
 20846      73517565 
 20846      756500
 20847              	.LASF596:
 20848 446d 5F5A4E33 		.ascii	"_ZN3r2p10StaticListINS_14LocalPublisherEE3endEv\000"
 20848      72327031 
 20848      30537461 
 20848      7469634C 
 20848      69737449 
 20849              	.LASF877:
 20850 449d 6E6F6465 		.ascii	"node\000"
 20850      00
 20851              	.LASF139:
 20852 44a2 636F6E66 		.ascii	"configuration\000"
 20852      69677572 
 20852      6174696F 
 20852      6E00
 20853              	.LASF755:
 20854 44b0 61647665 		.ascii	"advertise<r2p::PIDCfgMsg>\000"
 20854      72746973 
 20854      653C7232 
 20854      703A3A50 
 20854      49444366 
 20855              	.LASF327:
 20856 44ca 5F5A4E33 		.ascii	"_ZN3r2p10StaticListINS_15LocalSubscriberEE13ConstIt"
 20856      72327031 
 20856      30537461 
 20856      7469634C 
 20856      69737449 
 20857 44fd 65726174 		.ascii	"eratorppEi\000"
 20857      6F727070 
 20857      456900
 20858              	.LASF597:
 20859 4508 5F5A4E33 		.ascii	"_ZN3r2p10StaticListINS_14LocalPublisherEE7restartER"
 20859      72327031 
ARM GAS  /tmp/ccypRU8x.s 			page 408


 20859      30537461 
 20859      7469634C 
 20859      69737449 
 20860 453b 4E53325F 		.ascii	"NS2_8IteratorE\000"
 20860      38497465 
 20860      7261746F 
 20860      724500
 20861              	.LASF924:
 20862 454a 70726F78 		.ascii	"proximity_sub\000"
 20862      696D6974 
 20862      795F7375 
 20862      6200
 20863              	.LASF665:
 20864 4558 43685468 		.ascii	"ChThread\000"
 20864      72656164 
 20864      00
 20865              	.LASF584:
 20866 4561 5F5A4E4B 		.ascii	"_ZNK3r2p10StaticListINS_14LocalPublisherEE10end_uns"
 20866      33723270 
 20866      31305374 
 20866      61746963 
 20866      4C697374 
 20867 4594 61666545 		.ascii	"afeEv\000"
 20867      7600
 20868              	.LASF840:
 20869 459a 73746174 		.ascii	"static_cast_check<r2p::PIDCfgMsg, r2p::Message>\000"
 20869      69635F63 
 20869      6173745F 
 20869      63686563 
 20869      6B3C7232 
 20870              	.LASF260:
 20871 45ca 6765745F 		.ascii	"get_item_size\000"
 20871      6974656D 
 20871      5F73697A 
 20871      6500
 20872              	.LASF326:
 20873 45d8 5F5A4E33 		.ascii	"_ZN3r2p10StaticListINS_15LocalSubscriberEE13ConstIt"
 20873      72327031 
 20873      30537461 
 20873      7469634C 
 20873      69737449 
 20874 460b 65726174 		.ascii	"eratorppEv\000"
 20874      6F727070 
 20874      457600
 20875              	.LASF903:
 20876 4616 5F5A4E33 		.ascii	"_ZN3r2p10SubscriberINS_7PixyMsgELj5EED0Ev\000"
 20876      72327031 
 20876      30537562 
 20876      73637269 
 20876      62657249 
 20877              	.LASF413:
 20878 4640 5F5A4E4B 		.ascii	"_ZNK3r2p10StaticListINS_16RemoteSubscriberEE8is_emp"
 20878      33723270 
 20878      31305374 
 20878      61746963 
 20878      4C697374 
 20879 4673 74794576 		.ascii	"tyEv\000"
ARM GAS  /tmp/ccypRU8x.s 			page 409


 20879      00
 20880              	.LASF634:
 20881 4678 73656C66 		.ascii	"self\000"
 20881      00
 20882              	.LASF529:
 20883 467d 5F5A4E33 		.ascii	"_ZN3r2p5Topic9subscribeERNS_15LocalSubscriberEj\000"
 20883      72327035 
 20883      546F7069 
 20883      63397375 
 20883      62736372 
 20884              	.LASF505:
 20885 46ad 6E6F7469 		.ascii	"notify_locals_unsafe\000"
 20885      66795F6C 
 20885      6F63616C 
 20885      735F756E 
 20885      73616665 
 20886              	.LASF256:
 20887 46c2 5F5A4E33 		.ascii	"_ZN3r2p7SysLock7acquireEv\000"
 20887      72327037 
 20887      5379734C 
 20887      6F636B37 
 20887      61637175 
 20888              	.LASF47:
 20889 46dc 705F7374 		.ascii	"p_stklimit\000"
 20889      6B6C696D 
 20889      697400
 20890              	.LASF901:
 20891 46e7 5F5A4E33 		.ascii	"_ZN3r2p10SubscriberINS_12ProximityMsgELj5EED0Ev\000"
 20891      72327031 
 20891      30537562 
 20891      73637269 
 20891      62657249 
 20892              	.LASF150:
 20893 4717 5553425F 		.ascii	"USB_EP0_WAITING_TX0\000"
 20893      4550305F 
 20893      57414954 
 20893      494E475F 
 20893      54583000 
 20894              	.LASF643:
 20895 472b 5F5A4E33 		.ascii	"_ZN3r2p7Thread_5sleepERKNS_4TimeE\000"
 20895      72327037 
 20895      54687265 
 20895      61645F35 
 20895      736C6565 
 20896              	.LASF133:
 20897 474d 6570306E 		.ascii	"ep0next\000"
 20897      65787400 
 20898              	.LASF347:
 20899 4755 5F5A4E33 		.ascii	"_ZN3r2p10StaticListINS_15LocalSubscriberEE13unlink_"
 20899      72327031 
 20899      30537461 
 20899      7469634C 
 20899      69737449 
 20900 4788 756E7361 		.ascii	"unsafeERNS2_4LinkE\000"
 20900      66654552 
 20900      4E53325F 
 20900      344C696E 
ARM GAS  /tmp/ccypRU8x.s 			page 410


 20900      6B4500
 20901              	.LASF398:
 20902 479b 5F5A4E4B 		.ascii	"_ZNK3r2p10StaticListINS_16RemoteSubscriberEE12count"
 20902      33723270 
 20902      31305374 
 20902      61746963 
 20902      4C697374 
 20903 47ce 5F756E73 		.ascii	"_unsafeEv\000"
 20903      61666545 
 20903      7600
 20904              	.LASF525:
 20905 47d8 61647665 		.ascii	"advertise\000"
 20905      72746973 
 20905      6500
 20906              	.LASF276:
 20907 47e2 54696D65 		.ascii	"Time\000"
 20907      00
 20908              	.LASF524:
 20909 47e7 5F5A4E33 		.ascii	"_ZN3r2p5Topic11extend_poolEPNS_7MessageEj\000"
 20909      72327035 
 20909      546F7069 
 20909      63313165 
 20909      7874656E 
 20910              	.LASF342:
 20911 4811 6C696E6B 		.ascii	"link_unsafe\000"
 20911      5F756E73 
 20911      61666500 
 20912              	.LASF122:
 20913 481d 41465248 		.ascii	"AFRH\000"
 20913      00
 20914              	.LASF743:
 20915 4822 7370696E 		.ascii	"spin\000"
 20915      00
 20916              	.LASF121:
 20917 4827 4146524C 		.ascii	"AFRL\000"
 20917      00
 20918              	.LASF405:
 20919 482c 5F5A4E4B 		.ascii	"_ZNK3r2p10StaticListINS_16RemoteSubscriberEE17find_"
 20919      33723270 
 20919      31305374 
 20919      61746963 
 20919      4C697374 
 20920 485f 66697273 		.ascii	"first_unsafeEPFbRKS1_PKvES6_\000"
 20920      745F756E 
 20920      73616665 
 20920      45504662 
 20920      524B5331 
 20921              	.LASF237:
 20922 487c 73635F6E 		.ascii	"sc_name\000"
 20922      616D6500 
 20923              	.LASF530:
 20924 4884 5F5A4E33 		.ascii	"_ZN3r2p5Topic9subscribeERNS_16RemoteSubscriberEj\000"
 20924      72327035 
 20924      546F7069 
 20924      63397375 
 20924      62736372 
 20925              	.LASF573:
ARM GAS  /tmp/ccypRU8x.s 			page 411


 20926 48b5 5F5A4E33 		.ascii	"_ZN3r2p10StaticListINS_14LocalPublisherEE11link_uns"
 20926      72327031 
 20926      30537461 
 20926      7469634C 
 20926      69737449 
 20927 48e8 61666545 		.ascii	"afeERNS2_4LinkE\000"
 20927      524E5332 
 20927      5F344C69 
 20927      6E6B4500 
 20928              	.LASF127:
 20929 48f8 636F6E66 		.ascii	"config\000"
 20929      696700
 20930              	.LASF929:
 20931 48ff 7573625F 		.ascii	"usb_shell_cfg\000"
 20931      7368656C 
 20931      6C5F6366 
 20931      6700
 20932              	.LASF671:
 20933 490d 5F5A4E33 		.ascii	"_ZN3r2p10SpinEvent_13signal_unsafeEj\000"
 20933      72327031 
 20933      30537069 
 20933      6E457665 
 20933      6E745F31 
 20934              	.LASF411:
 20935 4932 5F5A4E4B 		.ascii	"_ZNK3r2p10StaticListINS_16RemoteSubscriberEE14resta"
 20935      33723270 
 20935      31305374 
 20935      61746963 
 20935      4C697374 
 20936 4965 72745F75 		.ascii	"rt_unsafeERNS2_19ConstIteratorUnsafeE\000"
 20936      6E736166 
 20936      6545524E 
 20936      53325F31 
 20936      39436F6E 
 20937              	.LASF535:
 20938 498b 4D657373 		.ascii	"Message\000"
 20938      61676500 
 20939              	.LASF38:
 20940 4993 77746F62 		.ascii	"wtobjp\000"
 20940      6A7000
 20941              	.LASF477:
 20942 499a 5F5A4E4B 		.ascii	"_ZNK3r2p5Topic16get_payload_sizeEv\000"
 20942      33723270 
 20942      35546F70 
 20942      69633136 
 20942      6765745F 
 20943              	.LASF905:
 20944 49bd 5F5A4E33 		.ascii	"_ZN3r2p9PublisherINS_9PIDCfgMsgEED0Ev\000"
 20944      72327039 
 20944      5075626C 
 20944      69736865 
 20944      72494E53 
 20945              	.LASF866:
 20946 49e3 636D645F 		.ascii	"cmd_follow\000"
 20946      666F6C6C 
 20946      6F7700
 20947              	.LASF58:
ARM GAS  /tmp/ccypRU8x.s 			page 412


 20948 49ee 705F7265 		.ascii	"p_realprio\000"
 20948      616C7072 
 20948      696F00
 20949              	.LASF262:
 20950 49f9 5F5A4E4B 		.ascii	"_ZNK3r2p11MemoryPool_13get_item_sizeEv\000"
 20950      33723270 
 20950      31314D65 
 20950      6D6F7279 
 20950      506F6F6C 
 20951              	.LASF660:
 20952 4a20 5F5A4E33 		.ascii	"_ZN3r2p6Thread5sleepERKNS_4TimeE\000"
 20952      72327036 
 20952      54687265 
 20952      61643573 
 20952      6C656570 
 20953              	.LASF839:
 20954 4a41 73746174 		.ascii	"static_cast_check<r2p::Speed3Msg, r2p::Message>\000"
 20954      69635F63 
 20954      6173745F 
 20954      63686563 
 20954      6B3C7232 
 20955              	.LASF225:
 20956 4a71 53657269 		.ascii	"SerialUSBConfig\000"
 20956      616C5553 
 20956      42436F6E 
 20956      66696700 
 20957              	.LASF306:
 20958 4a81 5F5A4E33 		.ascii	"_ZN3r2p4Time1sEl\000"
 20958      72327034 
 20958      54696D65 
 20958      3173456C 
 20958      00
 20959              	.LASF103:
 20960 4a92 715F6E6F 		.ascii	"q_notify\000"
 20960      74696679 
 20960      00
 20961              	.LASF230:
 20962 4a9b 72656164 		.ascii	"readt\000"
 20962      7400
 20963              	.LASF252:
 20964 4aa1 72656C65 		.ascii	"release\000"
 20964      61736500 
 20965              	.LASF768:
 20966 4aa9 5F5A4E33 		.ascii	"_ZN3r2p14BaseSubscriber6notifyERNS_7MessageERKNS_4T"
 20966      72327031 
 20966      34426173 
 20966      65537562 
 20966      73637269 
 20967 4adc 696D6545 		.ascii	"imeE\000"
 20967      00
 20968              	.LASF842:
 20969 4ae1 646F7562 		.ascii	"double\000"
 20969      6C6500
 20970              	.LASF190:
 20971 4ae8 5553424F 		.ascii	"USBOutEndpointState\000"
 20971      7574456E 
 20971      64706F69 
ARM GAS  /tmp/ccypRU8x.s 			page 413


 20971      6E745374 
 20971      61746500 
 20972              	.LASF420:
 20973 4afc 5F5A4E4B 		.ascii	"_ZNK3r2p10StaticListINS_16RemoteSubscriberEE10find_"
 20973      33723270 
 20973      31305374 
 20973      61746963 
 20973      4C697374 
 20974 4b2f 66697273 		.ascii	"firstEPFbRKS1_PKvES6_\000"
 20974      74455046 
 20974      62524B53 
 20974      315F504B 
 20974      76455336 
 20975              	.LASF257:
 20976 4b45 5F5A4E33 		.ascii	"_ZN3r2p7SysLock7releaseEv\000"
 20976      72327037 
 20976      5379734C 
 20976      6F636B37 
 20976      72656C65 
 20977              	.LASF858:
 20978 4b5f 61726763 		.ascii	"argc\000"
 20978      00
 20979              	.LASF835:
 20980 4b64 5F5A4E33 		.ascii	"_ZN3r2p9PublisherINS_9Speed3MsgEE7publishERS1_\000"
 20980      72327039 
 20980      5075626C 
 20980      69736865 
 20980      72494E53 
 20981              	.LASF716:
 20982 4b93 5F5A4E33 		.ascii	"_ZN3r2p10StaticListINS_4NodeEE5beginEv\000"
 20982      72327031 
 20982      30537461 
 20982      7469634C 
 20982      69737449 
 20983              	.LASF238:
 20984 4bba 73635F66 		.ascii	"sc_function\000"
 20984      756E6374 
 20984      696F6E00 
 20985              	.LASF571:
 20986 4bc6 5F5A4E4B 		.ascii	"_ZNK3r2p10StaticListINS_14LocalPublisherEE15is_empt"
 20986      33723270 
 20986      31305374 
 20986      61746963 
 20986      4C697374 
 20987 4bf9 795F756E 		.ascii	"y_unsafeEv\000"
 20987      73616665 
 20987      457600
 20988              	.LASF859:
 20989 4c04 61726776 		.ascii	"argv\000"
 20989      00
 20990              	.LASF612:
 20991 4c09 6765745F 		.ascii	"get_count\000"
 20991      636F756E 
 20991      7400
 20992              	.LASF494:
 20993 4c13 69735F61 		.ascii	"is_awaiting_advertisements\000"
 20993      77616974 
ARM GAS  /tmp/ccypRU8x.s 			page 414


 20993      696E675F 
 20993      61647665 
 20993      72746973 
 20994              	.LASF676:
 20995 4c2e 5370696E 		.ascii	"SpinEvent\000"
 20995      4576656E 
 20995      7400
 20996              	.LASF747:
 20997 4c38 7E4E6F64 		.ascii	"~Node\000"
 20997      6500
 20998              	.LASF566:
 20999 4c3e 5F5A4E33 		.ascii	"_ZN3r2p10StaticListINS_14LocalPublisherEE13ConstIte"
 20999      72327031 
 20999      30537461 
 20999      7469634C 
 20999      69737449 
 21000 4c71 7261746F 		.ascii	"ratorppEi\000"
 21000      72707045 
 21000      6900
 21001              	.LASF586:
 21002 4c7b 5F5A4E4B 		.ascii	"_ZNK3r2p10StaticListINS_14LocalPublisherEE8get_head"
 21002      33723270 
 21002      31305374 
 21002      61746963 
 21002      4C697374 
 21003 4cae 457600   		.ascii	"Ev\000"
 21004              	.LASF532:
 21005 4cb1 6861735F 		.ascii	"has_name\000"
 21005      6E616D65 
 21005      00
 21006              	.LASF118:
 21007 4cba 50555044 		.ascii	"PUPDR\000"
 21007      5200
 21008              	.LASF9:
 21009 4cc0 5F5F696E 		.ascii	"__int32_t\000"
 21009      7433325F 
 21009      7400
 21010              	.LASF540:
 21011 4cca 61637175 		.ascii	"acquire_unsafe\000"
 21011      6972655F 
 21011      756E7361 
 21011      666500
 21012              	.LASF497:
 21013 4cd9 5F5A4E4B 		.ascii	"_ZNK3r2p5Topic25is_awaiting_subscriptionsEv\000"
 21013      33723270 
 21013      35546F70 
 21013      69633235 
 21013      69735F61 
 21014              	.LASF11:
 21015 4d05 5F5F7569 		.ascii	"__uint32_t\000"
 21015      6E743332 
 21015      5F7400
 21016              	.LASF857:
 21017 4d10 636D645F 		.ascii	"cmd_run\000"
 21017      72756E00 
 21018              	.LASF563:
 21019 4d18 5F5A4E4B 		.ascii	"_ZNK3r2p10StaticListINS_14LocalPublisherEE13ConstIt"
ARM GAS  /tmp/ccypRU8x.s 			page 415


 21019      33723270 
 21019      31305374 
 21019      61746963 
 21019      4C697374 
 21020 4d4b 65726174 		.ascii	"eratorptEv\000"
 21020      6F727074 
 21020      457600
 21021              	.LASF432:
 21022 4d56 5F5A4E33 		.ascii	"_ZN3r2p10StaticListINS_5TopicEE11link_unsafeERNS2_4"
 21022      72327031 
 21022      30537461 
 21022      7469634C 
 21022      69737449 
 21023 4d89 4C696E6B 		.ascii	"LinkE\000"
 21023      4500
 21024              	.LASF818:
 21025 4d8f 5F5A4E33 		.ascii	"_ZN3r2p13BasePublisher12alloc_unsafeERPNS_7MessageE"
 21025      72327031 
 21025      33426173 
 21025      65507562 
 21025      6C697368 
 21026 4dc2 00       		.ascii	"\000"
 21027              	.LASF98:
 21028 4dc3 715F636F 		.ascii	"q_counter\000"
 21028      756E7465 
 21028      7200
 21029              	.LASF148:
 21030 4dcd 5553425F 		.ascii	"USB_EP0_WAITING_SETUP\000"
 21030      4550305F 
 21030      57414954 
 21030      494E475F 
 21030      53455455 
 21031              	.LASF350:
 21032 4de3 636F6E74 		.ascii	"contains_unsafe\000"
 21032      61696E73 
 21032      5F756E73 
 21032      61666500 
 21033              	.LASF874:
 21034 4df3 636D645F 		.ascii	"cmd_enc\000"
 21034      656E6300 
 21035              	.LASF882:
 21036 4dfb 6974656D 		.ascii	"item\000"
 21036      00
 21037              	.LASF177:
 21038 4e00 71756575 		.ascii	"queue\000"
 21038      6500
 21039              	.LASF443:
 21040 4e06 5F5A4E4B 		.ascii	"_ZNK3r2p10StaticListINS_5TopicEE10end_unsafeEv\000"
 21040      33723270 
 21040      31305374 
 21040      61746963 
 21040      4C697374 
 21041              	.LASF533:
 21042 4e35 5F5A4E4B 		.ascii	"_ZNK3r2p5Topic16patch_pubsub_msgERNS_7MessageERNS_9"
 21042      33723270 
 21042      35546F70 
 21042      69633136 
ARM GAS  /tmp/ccypRU8x.s 			page 416


 21042      70617463 
 21043 4e68 5472616E 		.ascii	"TransportE\000"
 21043      73706F72 
 21043      744500
 21044              	.LASF613:
 21045 4e73 5F5A4E4B 		.ascii	"_ZNK3r2p10ArrayQueueIPNS_7MessageEE9get_countEv\000"
 21045      33723270 
 21045      31304172 
 21045      72617951 
 21045      75657565 
 21046              	.LASF56:
 21047 4ea3 705F6570 		.ascii	"p_epending\000"
 21047      656E6469 
 21047      6E6700
 21048              	.LASF619:
 21049 4eae 5F5A4E33 		.ascii	"_ZN3r2p10ArrayQueueIPNS_7MessageEE4skipEv\000"
 21049      72327031 
 21049      30417272 
 21049      61795175 
 21049      65756549 
 21050              	.LASF614:
 21051 4ed8 706F7374 		.ascii	"post\000"
 21051      00
 21052              	.LASF115:
 21053 4edd 4D4F4445 		.ascii	"MODER\000"
 21053      5200
 21054              	.LASF779:
 21055 4ee3 77696474 		.ascii	"width\000"
 21055      6800
 21056              	.LASF512:
 21057 4ee9 5F5A4E4B 		.ascii	"_ZNK3r2p5Topic16compute_deadlineERKNS_4TimeE\000"
 21057      33723270 
 21057      35546F70 
 21057      69633136 
 21057      636F6D70 
 21058              	.LASF202:
 21059 4f16 55534245 		.ascii	"USBEndpointConfig\000"
 21059      6E64706F 
 21059      696E7443 
 21059      6F6E6669 
 21059      6700
 21060              	.LASF183:
 21061 4f28 31395553 		.ascii	"19USBOutEndpointState\000"
 21061      424F7574 
 21061      456E6470 
 21061      6F696E74 
 21061      53746174 
 21062              	.LASF341:
 21063 4f3e 5F5A4E4B 		.ascii	"_ZNK3r2p10StaticListINS_15LocalSubscriberEE12count_"
 21063      33723270 
 21063      31305374 
 21063      61746963 
 21063      4C697374 
 21064 4f71 756E7361 		.ascii	"unsafeEv\000"
 21064      66654576 
 21064      00
 21065              	.LASF185:
ARM GAS  /tmp/ccypRU8x.s 			page 417


 21066 4f7a 72787175 		.ascii	"rxqueue\000"
 21066      65756500 
 21067              	.LASF243:
 21068 4f82 5368656C 		.ascii	"ShellConfig\000"
 21068      6C436F6E 
 21068      66696700 
 21069              	.LASF817:
 21070 4f8e 5F5A4E33 		.ascii	"_ZN3r2p13BasePublisher17notify_advertisedERNS_5Topi"
 21070      72327031 
 21070      33426173 
 21070      65507562 
 21070      6C697368 
 21071 4fc1 634500   		.ascii	"cE\000"
 21072              	.LASF880:
 21073 4fc4 5F5A4E33 		.ascii	"_ZN3r2p7MessageC2Ev\000"
 21073      72327037 
 21073      4D657373 
 21073      61676543 
 21073      32457600 
 21074              	.LASF82:
 21075 4fd8 656C5F6C 		.ascii	"el_listener\000"
 21075      69737465 
 21075      6E657200 
 21076              	.LASF176:
 21077 4fe4 6C696E65 		.ascii	"linear\000"
 21077      617200
 21078              	.LASF565:
 21079 4feb 5F5A4E33 		.ascii	"_ZN3r2p10StaticListINS_14LocalPublisherEE13ConstIte"
 21079      72327031 
 21079      30537461 
 21079      7469634C 
 21079      69737449 
 21080 501e 7261746F 		.ascii	"ratorppEv\000"
 21080      72707045 
 21080      7600
 21081              	.LASF605:
 21082 5028 706F7374 		.ascii	"post_unsafe\000"
 21082      5F756E73 
 21082      61666500 
 21083              	.LASF395:
 21084 5034 53746174 		.ascii	"StaticList<r2p::RemoteSubscriber>\000"
 21084      69634C69 
 21084      73743C72 
 21084      32703A3A 
 21084      52656D6F 
 21085              	.LASF427:
 21086 5056 52656D6F 		.ascii	"RemoteSubscriber\000"
 21086      74655375 
 21086      62736372 
 21086      69626572 
 21086      00
 21087              	.LASF689:
 21088 5067 5F5A4E4B 		.ascii	"_ZNK3r2p10StaticListINS_4NodeEE13ConstIteratorneERK"
 21088      33723270 
 21088      31305374 
 21088      61746963 
 21088      4C697374 
ARM GAS  /tmp/ccypRU8x.s 			page 418


 21089 509a 53335F00 		.ascii	"S3_\000"
 21090              	.LASF343:
 21091 509e 6C696E6B 		.ascii	"link_tail_unsafe\000"
 21091      5F746169 
 21091      6C5F756E 
 21091      73616665 
 21091      00
 21092              	.LASF625:
 21093 50af 5F5A4E33 		.ascii	"_ZN3r2p7Thread_8get_implEv\000"
 21093      72327037 
 21093      54687265 
 21093      61645F38 
 21093      6765745F 
 21094              	.LASF435:
 21095 50ca 5F5A4E4B 		.ascii	"_ZNK3r2p10StaticListINS_5TopicEE15index_of_unsafeER"
 21095      33723270 
 21095      31305374 
 21095      61746963 
 21095      4C697374 
 21096 50fd 4B53315F 		.ascii	"KS1_\000"
 21096      00
 21097              	.LASF834:
 21098 5102 5F5A4E33 		.ascii	"_ZN3r2p9PublisherINS_9Speed3MsgEE5allocERPS1_\000"
 21098      72327039 
 21098      5075626C 
 21098      69736865 
 21098      72494E53 
 21099              	.LASF70:
 21100 5130 725F7072 		.ascii	"r_prio\000"
 21100      696F00
 21101              	.LASF140:
 21102 5137 706D6E65 		.ascii	"pmnext\000"
 21102      787400
 21103              	.LASF593:
 21104 513e 5F5A4E4B 		.ascii	"_ZNK3r2p10StaticListINS_14LocalPublisherEE10find_fi"
 21104      33723270 
 21104      31305374 
 21104      61746963 
 21104      4C697374 
 21105 5171 72737445 		.ascii	"rstEPFbRKS1_E\000"
 21105      50466252 
 21105      4B53315F 
 21105      4500
 21106              	.LASF317:
 21107 517f 49746572 		.ascii	"Iterator\000"
 21107      61746F72 
 21107      00
 21108              	.LASF922:
 21109 5188 70726F78 		.ascii	"proximity_values\000"
 21109      696D6974 
 21109      795F7661 
 21109      6C756573 
 21109      00
 21110              	.LASF909:
 21111 5199 49544D5F 		.ascii	"ITM_RxBuffer\000"
 21111      52784275 
 21111      66666572 
ARM GAS  /tmp/ccypRU8x.s 			page 419


 21111      00
 21112              	.LASF90:
 21113 51a6 31304D65 		.ascii	"10MemoryPool\000"
 21113      6D6F7279 
 21113      506F6F6C 
 21113      00
 21114              	.LASF15:
 21115 51b3 6C6F6E67 		.ascii	"long long unsigned int\000"
 21115      206C6F6E 
 21115      6720756E 
 21115      7369676E 
 21115      65642069 
 21116              	.LASF688:
 21117 51ca 5F5A4E4B 		.ascii	"_ZNK3r2p10StaticListINS_4NodeEE13ConstIteratoreqERK"
 21117      33723270 
 21117      31305374 
 21117      61746963 
 21117      4C697374 
 21118 51fd 53335F00 		.ascii	"S3_\000"
 21119              	.LASF459:
 21120 5201 5F5A4E4B 		.ascii	"_ZNK3r2p10StaticListINS_5TopicEE7restartERNS2_13Con"
 21120      33723270 
 21120      31305374 
 21120      61746963 
 21120      4C697374 
 21121 5234 73744974 		.ascii	"stIteratorE\000"
 21121      65726174 
 21121      6F724500 
 21122              	.LASF428:
 21123 5240 53746174 		.ascii	"StaticList<r2p::Topic>\000"
 21123      69634C69 
 21123      73743C72 
 21123      32703A3A 
 21123      546F7069 
 21124              	.LASF379:
 21125 5257 5F5A4E4B 		.ascii	"_ZNK3r2p10StaticListINS_15LocalSubscriberEE10find_f"
 21125      33723270 
 21125      31305374 
 21125      61746963 
 21125      4C697374 
 21126 528a 69727374 		.ascii	"irstEPFbRKS1_E\000"
 21126      45504662 
 21126      524B5331 
 21126      5F4500
 21127              	.LASF759:
 21128 5299 746F7069 		.ascii	"topicp\000"
 21128      637000
 21129              	.LASF809:
 21130 52a0 7075626C 		.ascii	"publish\000"
 21130      69736800 
 21131              	.LASF200:
 21132 52a8 65705F62 		.ascii	"ep_buffers\000"
 21132      75666665 
 21132      727300
 21133              	.LASF86:
 21134 52b3 65735F6E 		.ascii	"es_next\000"
 21134      65787400 
ARM GAS  /tmp/ccypRU8x.s 			page 420


 21135              	.LASF871:
 21136 52bb 666F7263 		.ascii	"forced_exit\000"
 21136      65645F65 
 21136      78697400 
 21137              	.LASF272:
 21138 52c7 65787465 		.ascii	"extend\000"
 21138      6E6400
 21139              	.LASF255:
 21140 52ce 5379734C 		.ascii	"SysLock\000"
 21140      6F636B00 
 21141              	.LASF620:
 21142 52d6 41727261 		.ascii	"ArrayQueue\000"
 21142      79517565 
 21142      756500
 21143              	.LASF414:
 21144 52e1 5F5A4E4B 		.ascii	"_ZNK3r2p10StaticListINS_16RemoteSubscriberEE5countE"
 21144      33723270 
 21144      31305374 
 21144      61746963 
 21144      4C697374 
 21145 5314 7600     		.ascii	"v\000"
 21146              	.LASF417:
 21147 5316 5F5A4E4B 		.ascii	"_ZNK3r2p10StaticListINS_16RemoteSubscriberEE8index_"
 21147      33723270 
 21147      31305374 
 21147      61746963 
 21147      4C697374 
 21148 5349 6F664552 		.ascii	"ofERKS1_\000"
 21148      4B53315F 
 21148      00
 21149              	.LASF718:
 21150 5352 5F5A4E33 		.ascii	"_ZN3r2p10StaticListINS_4NodeEE7restartERNS2_8Iterat"
 21150      72327031 
 21150      30537461 
 21150      7469634C 
 21150      69737449 
 21151 5385 6F724500 		.ascii	"orE\000"
 21152              	.LASF406:
 21153 5389 5F5A4E33 		.ascii	"_ZN3r2p10StaticListINS_16RemoteSubscriberEE12begin_"
 21153      72327031 
 21153      30537461 
 21153      7469634C 
 21153      69737449 
 21154 53bc 756E7361 		.ascii	"unsafeEv\000"
 21154      66654576 
 21154      00
 21155              	.LASF236:
 21156 53c5 31325368 		.ascii	"12ShellCommand\000"
 21156      656C6C43 
 21156      6F6D6D61 
 21156      6E6400
 21157              	.LASF49:
 21158 53d4 705F666C 		.ascii	"p_flags\000"
 21158      61677300 
 21159              	.LASF436:
 21160 53dc 5F5A4E4B 		.ascii	"_ZNK3r2p10StaticListINS_5TopicEE15contains_unsafeER"
 21160      33723270 
ARM GAS  /tmp/ccypRU8x.s 			page 421


 21160      31305374 
 21160      61746963 
 21160      4C697374 
 21161 540f 4B53315F 		.ascii	"KS1_\000"
 21161      00
 21162              	.LASF642:
 21163 5414 736C6565 		.ascii	"sleep\000"
 21163      7000
 21164              	.LASF39:
 21165 541a 65776D61 		.ascii	"ewmask\000"
 21165      736B00
 21166              	.LASF322:
 21167 5421 5F5A4E4B 		.ascii	"_ZNK3r2p10StaticListINS_15LocalSubscriberEE13ConstI"
 21167      33723270 
 21167      31305374 
 21167      61746963 
 21167      4C697374 
 21168 5454 74657261 		.ascii	"teratorptEv\000"
 21168      746F7270 
 21168      74457600 
 21169              	.LASF617:
 21170 5460 5F5A4E33 		.ascii	"_ZN3r2p10ArrayQueueIPNS_7MessageEE5fetchERS2_\000"
 21170      72327031 
 21170      30417272 
 21170      61795175 
 21170      65756549 
 21171              	.LASF907:
 21172 548e 5F5A4E33 		.ascii	"_ZN3r2p9PublisherINS_9Speed3MsgEED0Ev\000"
 21172      72327039 
 21172      5075626C 
 21172      69736865 
 21172      72494E53 
 21173              	.LASF84:
 21174 54b4 656C5F66 		.ascii	"el_flags\000"
 21174      6C616773 
 21174      00
 21175              	.LASF211:
 21176 54bd 31307364 		.ascii	"10sdustate_t\000"
 21176      75737461 
 21176      74655F74 
 21176      00
 21177              	.LASF777:
 21178 54ca 63686563 		.ascii	"checksum\000"
 21178      6B73756D 
 21178      00
 21179              	.LASF644:
 21180 54d3 6A6F696E 		.ascii	"join\000"
 21180      00
 21181              	.LASF812:
 21182 54d8 7E507562 		.ascii	"~Publisher\000"
 21182      6C697368 
 21182      657200
 21183              	.LASF469:
 21184 54e3 62795F6D 		.ascii	"by_middleware\000"
 21184      6964646C 
 21184      65776172 
 21184      6500
ARM GAS  /tmp/ccypRU8x.s 			page 422


 21185              	.LASF57:
 21186 54f1 705F6D74 		.ascii	"p_mtxlist\000"
 21186      786C6973 
 21186      7400
 21187              	.LASF289:
 21188 54fb 5F5A4E4B 		.ascii	"_ZNK3r2p4Time8to_m_rawEv\000"
 21188      33723270 
 21188      3454696D 
 21188      6538746F 
 21188      5F6D5F72 
 21189              	.LASF683:
 21190 5514 5F5A4E33 		.ascii	"_ZN3r2p10StaticListINS_4NodeEE13ConstIteratoraSERKS"
 21190      72327031 
 21190      30537461 
 21190      7469634C 
 21190      69737449 
 21191 5547 335F00   		.ascii	"3_\000"
 21192              	.LASF714:
 21193 554a 5F5A4E4B 		.ascii	"_ZNK3r2p10StaticListINS_4NodeEE10find_firstEPFbRKS1"
 21193      33723270 
 21193      31305374 
 21193      61746963 
 21193      4C697374 
 21194 557d 5F4500   		.ascii	"_E\000"
 21195              	.LASF27:
 21196 5580 74737461 		.ascii	"tstate_t\000"
 21196      74655F74 
 21196      00
 21197              	.LASF301:
 21198 5589 5F5A4E33 		.ascii	"_ZN3r2p4TimepLERKS0_\000"
 21198      72327034 
 21198      54696D65 
 21198      704C4552 
 21198      4B53305F 
 21199              	.LASF479:
 21200 559e 5F5A4E4B 		.ascii	"_ZNK3r2p5Topic20get_max_queue_lengthEv\000"
 21200      33723270 
 21200      35546F70 
 21200      69633230 
 21200      6765745F 
 21201              	.LASF128:
 21202 55c5 7472616E 		.ascii	"transmitting\000"
 21202      736D6974 
 21202      74696E67 
 21202      00
 21203              	.LASF711:
 21204 55d2 5F5A4E33 		.ascii	"_ZN3r2p10StaticListINS_4NodeEE6unlinkERNS2_4LinkE\000"
 21204      72327031 
 21204      30537461 
 21204      7469634C 
 21204      69737449 
 21205              	.LASF895:
 21206 5604 5F5A4E33 		.ascii	"_ZN3r2p16SubscriberExtBufINS_12ProximityMsgEEC2EPPS"
 21206      72327031 
 21206      36537562 
 21206      73637269 
 21206      62657245 
ARM GAS  /tmp/ccypRU8x.s 			page 423


 21207 5637 315F6A50 		.ascii	"1_jPFbRKS1_E\000"
 21207      4662524B 
 21207      53315F45 
 21207      00
 21208              	.LASF46:
 21209 5644 705F6E61 		.ascii	"p_name\000"
 21209      6D6500
 21210              	.LASF221:
 21211 564b 75736270 		.ascii	"usbp\000"
 21211      00
 21212              	.LASF147:
 21213 5650 75736273 		.ascii	"usbstate_t\000"
 21213      74617465 
 21213      5F7400
 21214              	.LASF233:
 21215 565b 5F5F6170 		.ascii	"__ap\000"
 21215      00
 21216              	.LASF703:
 21217 5660 5F5A4E33 		.ascii	"_ZN3r2p10StaticListINS_4NodeEE14restart_unsafeERNS2"
 21217      72327031 
 21217      30537461 
 21217      7469634C 
 21217      69737449 
 21218 5693 5F313449 		.ascii	"_14IteratorUnsafeE\000"
 21218      74657261 
 21218      746F7255 
 21218      6E736166 
 21218      654500
 21219              	.LASF285:
 21220 56a6 5F5A4E4B 		.ascii	"_ZNK3r2p4Time9to_ms_rawEv\000"
 21220      33723270 
 21220      3454696D 
 21220      6539746F 
 21220      5F6D735F 
 21221              	.LASF473:
 21222 56c0 5F5A4E4B 		.ascii	"_ZNK3r2p5Topic19get_publish_timeoutEv\000"
 21222      33723270 
 21222      35546F70 
 21222      69633139 
 21222      6765745F 
 21223              	.LASF878:
 21224 56e6 7573625F 		.ascii	"usb_shelltp\000"
 21224      7368656C 
 21224      6C747000 
 21225              	.LASF287:
 21226 56f2 5F5A4E4B 		.ascii	"_ZNK3r2p4Time8to_s_rawEv\000"
 21226      33723270 
 21226      3454696D 
 21226      6538746F 
 21226      5F735F72 
 21227              	.LASF742:
 21228 570b 5F5A4E33 		.ascii	"_ZN3r2p4Node11notify_stopEv\000"
 21228      72327034 
 21228      4E6F6465 
 21228      31316E6F 
 21228      74696679 
 21229              	.LASF495:
ARM GAS  /tmp/ccypRU8x.s 			page 424


 21230 5727 5F5A4E4B 		.ascii	"_ZNK3r2p5Topic26is_awaiting_advertisementsEv\000"
 21230      33723270 
 21230      35546F70 
 21230      69633236 
 21230      69735F61 
 21231              	.LASF415:
 21232 5754 5F5A4E33 		.ascii	"_ZN3r2p10StaticListINS_16RemoteSubscriberEE4linkERN"
 21232      72327031 
 21232      30537461 
 21232      7469634C 
 21232      69737449 
 21233 5787 53325F34 		.ascii	"S2_4LinkE\000"
 21233      4C696E6B 
 21233      4500
 21234              	.LASF483:
 21235 5791 5F5A4E4B 		.ascii	"_ZNK3r2p5Topic20has_local_publishersEv\000"
 21235      33723270 
 21235      35546F70 
 21235      69633230 
 21235      6861735F 
 21236              	.LASF173:
 21237 57b8 31385553 		.ascii	"18USBInEndpointState\000"
 21237      42496E45 
 21237      6E64706F 
 21237      696E7453 
 21237      74617465 
 21238              	.LASF892:
 21239 57cd 5F5F696E 		.ascii	"__in_chrg\000"
 21239      5F636872 
 21239      6700
 21240              	.LASF567:
 21241 57d7 5F5A4E4B 		.ascii	"_ZNK3r2p10StaticListINS_14LocalPublisherEE13ConstIt"
 21241      33723270 
 21241      31305374 
 21241      61746963 
 21241      4C697374 
 21242 580a 65726174 		.ascii	"eratoreqERKS3_\000"
 21242      6F726571 
 21242      45524B53 
 21242      335F00
 21243              	.LASF932:
 21244 5819 6E6F6465 		.ascii	"nodes/shell_node.cpp\000"
 21244      732F7368 
 21244      656C6C5F 
 21244      6E6F6465 
 21244      2E637070 
 21245              	.LASF499:
 21246 582e 5F5A4E4B 		.ascii	"_ZNK3r2p5Topic23compute_deadline_unsafeERKNS_4TimeE"
 21246      33723270 
 21246      35546F70 
 21246      69633233 
 21246      636F6D70 
 21247 5861 00       		.ascii	"\000"
 21248              	.LASF419:
 21249 5862 5F5A4E4B 		.ascii	"_ZNK3r2p10StaticListINS_16RemoteSubscriberEE10find_"
 21249      33723270 
 21249      31305374 
ARM GAS  /tmp/ccypRU8x.s 			page 425


 21249      61746963 
 21249      4C697374 
 21250 5895 66697273 		.ascii	"firstEPFbRKS1_E\000"
 21250      74455046 
 21250      62524B53 
 21250      315F4500 
 21251              	.LASF313:
 21252 58a5 4C696E6B 		.ascii	"Link\000"
 21252      00
 21253              	.LASF576:
 21254 58aa 5F5A4E4B 		.ascii	"_ZNK3r2p10StaticListINS_14LocalPublisherEE15index_o"
 21254      33723270 
 21254      31305374 
 21254      61746963 
 21254      4C697374 
 21255 58dd 665F756E 		.ascii	"f_unsafeERKS1_\000"
 21255      73616665 
 21255      45524B53 
 21255      315F00
 21256              	.LASF458:
 21257 58ec 5F5A4E4B 		.ascii	"_ZNK3r2p10StaticListINS_5TopicEE3endEv\000"
 21257      33723270 
 21257      31305374 
 21257      61746963 
 21257      4C697374 
 21258              	.LASF364:
 21259 5913 6765745F 		.ascii	"get_head\000"
 21259      68656164 
 21259      00
 21260              	.LASF492:
 21261 591c 6861735F 		.ascii	"has_subscribers\000"
 21261      73756273 
 21261      63726962 
 21261      65727300 
 21262              	.LASF229:
 21263 592c 77726974 		.ascii	"writet\000"
 21263      657400
 21264              	.LASF773:
 21265 5933 53706565 		.ascii	"Speed3Msg\000"
 21265      64334D73 
 21265      6700
 21266              	.LASF258:
 21267 593d 4D656D6F 		.ascii	"MemoryPool_\000"
 21267      7279506F 
 21267      6F6C5F00 
 21268              	.LASF13:
 21269 5949 6C6F6E67 		.ascii	"long long int\000"
 21269      206C6F6E 
 21269      6720696E 
 21269      7400
 21270              	.LASF651:
 21271 5957 494E5445 		.ascii	"INTERRUPT\000"
 21271      52525550 
 21271      5400
 21272              	.LASF472:
 21273 5961 6765745F 		.ascii	"get_publish_timeout\000"
 21273      7075626C 
ARM GAS  /tmp/ccypRU8x.s 			page 426


 21273      6973685F 
 21273      74696D65 
 21273      6F757400 
 21274              	.LASF869:
 21275 5975 74726173 		.ascii	"trash\000"
 21275      6800
 21276              	.LASF444:
 21277 597b 5F5A4E4B 		.ascii	"_ZNK3r2p10StaticListINS_5TopicEE14restart_unsafeERN"
 21277      33723270 
 21277      31305374 
 21277      61746963 
 21277      4C697374 
 21278 59ae 53325F31 		.ascii	"S2_19ConstIteratorUnsafeE\000"
 21278      39436F6E 
 21278      73744974 
 21278      65726174 
 21278      6F72556E 
 21279              	.LASF399:
 21280 59c8 5F5A4E33 		.ascii	"_ZN3r2p10StaticListINS_16RemoteSubscriberEE11link_u"
 21280      72327031 
 21280      30537461 
 21280      7469634C 
 21280      69737449 
 21281 59fb 6E736166 		.ascii	"nsafeERNS2_4LinkE\000"
 21281      6545524E 
 21281      53325F34 
 21281      4C696E6B 
 21281      4500
 21282              	.LASF631:
 21283 5a0d 5F5A4E33 		.ascii	"_ZN3r2p7Thread_11create_heapEPvjmPFlS1_ES1_PKc\000"
 21283      72327037 
 21283      54687265 
 21283      61645F31 
 21283      31637265 
 21284              	.LASF861:
 21285 5a3c 64783132 		.ascii	"dx12\000"
 21285      00
 21286              	.LASF329:
 21287 5a41 5F5A4E4B 		.ascii	"_ZNK3r2p10StaticListINS_15LocalSubscriberEE13ConstI"
 21287      33723270 
 21287      31305374 
 21287      61746963 
 21287      4C697374 
 21288 5a74 74657261 		.ascii	"teratoreqERKS3_\000"
 21288      746F7265 
 21288      7145524B 
 21288      53335F00 
 21289              	.LASF692:
 21290 5a84 5F5A4E4B 		.ascii	"_ZNK3r2p10StaticListINS_4NodeEE15is_empty_unsafeEv\000"
 21290      33723270 
 21290      31305374 
 21290      61746963 
 21290      4C697374 
 21291              	.LASF682:
 21292 5ab7 53746174 		.ascii	"StaticList<r2p::Node>\000"
 21292      69634C69 
 21292      73743C72 
ARM GAS  /tmp/ccypRU8x.s 			page 427


 21292      32703A3A 
 21292      4E6F6465 
 21293              	.LASF750:
 21294 5acd 5F5A4E33 		.ascii	"_ZN3r2p4Node9advertiseINS_9Speed3MsgEEEbRNS_9Publis"
 21294      72327034 
 21294      4E6F6465 
 21294      39616476 
 21294      65727469 
 21295 5b00 68657249 		.ascii	"herIT_EEPKcRKNS_4TimeE\000"
 21295      545F4545 
 21295      504B6352 
 21295      4B4E535F 
 21295      3454696D 
 21296              	.LASF791:
 21297 5b17 51554555 		.ascii	"QUEUE_LENGTH\000"
 21297      455F4C45 
 21297      4E475448 
 21297      00
 21298              	.LASF464:
 21299 5b24 6E756D5F 		.ascii	"num_local_publishers\000"
 21299      6C6F6361 
 21299      6C5F7075 
 21299      626C6973 
 21299      68657273 
 21300              	.LASF33:
 21301 5b39 666C6167 		.ascii	"flagsmask_t\000"
 21301      736D6173 
 21301      6B5F7400 
 21302              	.LASF517:
 21303 5b45 6E6F7469 		.ascii	"notify_locals\000"
 21303      66795F6C 
 21303      6F63616C 
 21303      7300
 21304              	.LASF206:
 21305 5b53 6765745F 		.ascii	"get_descriptor_cb\000"
 21305      64657363 
 21305      72697074 
 21305      6F725F63 
 21305      6200
 21306              	.LASF96:
 21307 5b65 47656E65 		.ascii	"GenericQueue\000"
 21307      72696351 
 21307      75657565 
 21307      00
 21308              	.LASF726:
 21309 5b72 5F5A4E4B 		.ascii	"_ZNK3r2p4Node8get_nameEv\000"
 21309      33723270 
 21309      344E6F64 
 21309      65386765 
 21309      745F6E61 
 21310              	.LASF486:
 21311 5b8b 6861735F 		.ascii	"has_publishers\000"
 21311      7075626C 
 21311      69736865 
 21311      727300
 21312              	.LASF569:
 21313 5b9a 5F5A4E4B 		.ascii	"_ZNK3r2p10StaticListINS_14LocalPublisherEE13ConstIt"
ARM GAS  /tmp/ccypRU8x.s 			page 428


 21313      33723270 
 21313      31305374 
 21313      61746963 
 21313      4C697374 
 21314 5bcd 65726174 		.ascii	"erator8is_validEv\000"
 21314      6F723869 
 21314      735F7661 
 21314      6C696445 
 21314      7600
 21315              	.LASF418:
 21316 5bdf 5F5A4E4B 		.ascii	"_ZNK3r2p10StaticListINS_16RemoteSubscriberEE8contai"
 21316      33723270 
 21316      31305374 
 21316      61746963 
 21316      4C697374 
 21317 5c12 6E734552 		.ascii	"nsERKS1_\000"
 21317      4B53315F 
 21317      00
 21318              	.LASF366:
 21319 5c1b 69735F65 		.ascii	"is_empty\000"
 21319      6D707479 
 21319      00
 21320              	.LASF453:
 21321 5c24 5F5A4E4B 		.ascii	"_ZNK3r2p10StaticListINS_5TopicEE10find_firstEPFbRKS"
 21321      33723270 
 21321      31305374 
 21321      61746963 
 21321      4C697374 
 21322 5c57 315F504B 		.ascii	"1_PKvES6_\000"
 21322      76455336 
 21322      5F00
 21323              	.LASF240:
 21324 5c61 31315368 		.ascii	"11ShellConfig\000"
 21324      656C6C43 
 21324      6F6E6669 
 21324      6700
 21325              	.LASF522:
 21326 5c6f 5F5A4E33 		.ascii	"_ZN3r2p5Topic12forward_copyERKNS_7MessageERKNS_4Tim"
 21326      72327035 
 21326      546F7069 
 21326      63313266 
 21326      6F727761 
 21327 5ca2 654500   		.ascii	"eE\000"
 21328              	.LASF900:
 21329 5ca5 5F5A4E33 		.ascii	"_ZN3r2p10SubscriberINS_12ProximityMsgELj5EED2Ev\000"
 21329      72327031 
 21329      30537562 
 21329      73637269 
 21329      62657249 
 21330              	.LASF704:
 21331 5cd5 5F5A4E4B 		.ascii	"_ZNK3r2p10StaticListINS_4NodeEE12begin_unsafeEv\000"
 21331      33723270 
 21331      31305374 
 21331      61746963 
 21331      4C697374 
 21332              	.LASF174:
 21333 5d05 74786275 		.ascii	"txbuf\000"
ARM GAS  /tmp/ccypRU8x.s 			page 429


 21333      6600
 21334              	.LASF510:
 21335 5d0b 5F5A4E33 		.ascii	"_ZN3r2p5Topic19forward_copy_unsafeERKNS_7MessageERK"
 21335      72327035 
 21335      546F7069 
 21335      63313966 
 21335      6F727761 
 21336 5d3e 4E535F34 		.ascii	"NS_4TimeE\000"
 21336      54696D65 
 21336      4500
 21337              	.LASF162:
 21338 5d48 5553425F 		.ascii	"USB_EVENT_WAKEUP\000"
 21338      4556454E 
 21338      545F5741 
 21338      4B455550 
 21338      00
 21339              	.LASF853:
 21340 5d59 5F5A3232 		.ascii	"_Z22usb_lld_disconnect_busP9USBDriver\000"
 21340      7573625F 
 21340      6C6C645F 
 21340      64697363 
 21340      6F6E6E65 
 21341              	.LASF599:
 21342 5d7f 5F5A4E4B 		.ascii	"_ZNK3r2p10StaticListINS_14LocalPublisherEE3endEv\000"
 21342      33723270 
 21342      31305374 
 21342      61746963 
 21342      4C697374 
 21343              	.LASF339:
 21344 5db0 5F5A4E4B 		.ascii	"_ZNK3r2p10StaticListINS_15LocalSubscriberEE15is_emp"
 21344      33723270 
 21344      31305374 
 21344      61746963 
 21344      4C697374 
 21345 5de3 74795F75 		.ascii	"ty_unsafeEv\000"
 21345      6E736166 
 21345      65457600 
 21346              	.LASF45:
 21347 5def 705F6F6C 		.ascii	"p_older\000"
 21347      64657200 
 21348              	.LASF107:
 21349 5df7 4F757470 		.ascii	"OutputQueue\000"
 21349      75745175 
 21349      65756500 
 21350              	.LASF934:
 21351 5e03 5F5A4E33 		.ascii	"_ZN3r2p4Time3nowEv\000"
 21351      72327034 
 21351      54696D65 
 21351      336E6F77 
 21351      457600
 21352              	.LASF201:
 21353 5e16 73657475 		.ascii	"setup_buf\000"
 21353      705F6275 
 21353      6600
 21354              	.LASF933:
 21355 5e20 2F686F6D 		.ascii	"/home/ergae/r2p-sdk/workspace-triskarpixy/USB/\000"
 21355      652F6572 
ARM GAS  /tmp/ccypRU8x.s 			page 430


 21355      6761652F 
 21355      7232702D 
 21355      73646B2F 
 21356              	.LASF308:
 21357 5e4f 5F5A4E33 		.ascii	"_ZN3r2p4Time2hzEd\000"
 21357      72327034 
 21357      54696D65 
 21357      32687A45 
 21357      6400
 21358              	.LASF337:
 21359 5e61 69735F65 		.ascii	"is_empty_unsafe\000"
 21359      6D707479 
 21359      5F756E73 
 21359      61666500 
 21360              	.LASF710:
 21361 5e71 5F5A4E33 		.ascii	"_ZN3r2p10StaticListINS_4NodeEE4linkERNS2_4LinkE\000"
 21361      72327031 
 21361      30537461 
 21361      7469634C 
 21361      69737449 
 21362              	.LASF770:
 21363 5ea1 5F5A4E33 		.ascii	"_ZN3r2p14BaseSubscriber7releaseERNS_7MessageE\000"
 21363      72327031 
 21363      34426173 
 21363      65537562 
 21363      73637269 
 21364              	.LASF727:
 21365 5ecf 6765745F 		.ascii	"get_publishers\000"
 21365      7075626C 
 21365      69736865 
 21365      727300
 21366              	.LASF108:
 21367 5ede 42617365 		.ascii	"BaseSequentialStreamVMT\000"
 21367      53657175 
 21367      656E7469 
 21367      616C5374 
 21367      7265616D 
 21368              	.LASF891:
 21369 5ef6 5F5A4E33 		.ascii	"_ZN3r2p16SubscriberExtBufINS_7PixyMsgEEC2EPPS1_jPFb"
 21369      72327031 
 21369      36537562 
 21369      73637269 
 21369      62657245 
 21370 5f29 524B5331 		.ascii	"RKS1_E\000"
 21370      5F4500
 21371              	.LASF239:
 21372 5f30 5368656C 		.ascii	"ShellCommand\000"
 21372      6C436F6D 
 21372      6D616E64 
 21372      00
 21373              	.LASF507:
 21374 5f3d 6E6F7469 		.ascii	"notify_remotes_unsafe\000"
 21374      66795F72 
 21374      656D6F74 
 21374      65735F75 
 21374      6E736166 
 21375              	.LASF129:
ARM GAS  /tmp/ccypRU8x.s 			page 431


 21376 5f53 72656365 		.ascii	"receiving\000"
 21376      6976696E 
 21376      6700
 21377              	.LASF283:
 21378 5f5d 5F5A4E4B 		.ascii	"_ZNK3r2p4Time9to_us_rawEv\000"
 21378      33723270 
 21378      3454696D 
 21378      6539746F 
 21378      5F75735F 
 21379              	.LASF528:
 21380 5f77 73756273 		.ascii	"subscribe\000"
 21380      63726962 
 21380      6500
 21381              	.LASF141:
 21382 5f81 75736265 		.ascii	"usbep_t\000"
 21382      705F7400 
 21383              	.LASF764:
 21384 5f89 5F5A4E33 		.ascii	"_ZN3r2p14BaseSubscriber17notify_subscribedERNS_5Top"
 21384      72327031 
 21384      34426173 
 21384      65537562 
 21384      73637269 
 21385 5fbc 69634500 		.ascii	"icE\000"
 21386              	.LASF365:
 21387 5fc0 5F5A4E4B 		.ascii	"_ZNK3r2p10StaticListINS_15LocalSubscriberEE8get_hea"
 21387      33723270 
 21387      31305374 
 21387      61746963 
 21387      4C697374 
 21388 5ff3 64457600 		.ascii	"dEv\000"
 21389              	.LASF101:
 21390 5ff7 715F7772 		.ascii	"q_wrptr\000"
 21390      70747200 
 21391              	.LASF198:
 21392 5fff 696E5F73 		.ascii	"in_state\000"
 21392      74617465 
 21392      00
 21393              	.LASF904:
 21394 6008 5F5A4E33 		.ascii	"_ZN3r2p9PublisherINS_9PIDCfgMsgEED2Ev\000"
 21394      72327039 
 21394      5075626C 
 21394      69736865 
 21394      72494E53 
 21395              	.LASF805:
 21396 602e 5F5A4E33 		.ascii	"_ZN3r2p16SubscriberExtBufINS_7PixyMsgEE7releaseERS1"
 21396      72327031 
 21396      36537562 
 21396      73637269 
 21396      62657245 
 21397 6061 5F00     		.ascii	"_\000"
 21398              	.LASF810:
 21399 6063 5F5A4E33 		.ascii	"_ZN3r2p9PublisherINS_9PIDCfgMsgEE7publishERS1_\000"
 21399      72327039 
 21399      5075626C 
 21399      69736865 
 21399      72494E53 
 21400              	.LASF885:
ARM GAS  /tmp/ccypRU8x.s 			page 432


 21401 6092 5F5A4E33 		.ascii	"_ZN3r2p7PixyMsgC2Ev\000"
 21401      72327037 
 21401      50697879 
 21401      4D736743 
 21401      32457600 
 21402              	.LASF627:
 21403 60a6 5F5A4E33 		.ascii	"_ZN3r2p7Thread_18compute_stack_sizeEj\000"
 21403      72327037 
 21403      54687265 
 21403      61645F31 
 21403      38636F6D 
 21404              	.LASF296:
 21405 60cc 746F5F6D 		.ascii	"to_m\000"
 21405      00
 21406              	.LASF807:
 21407 60d1 5075626C 		.ascii	"Publisher\000"
 21407      69736865 
 21407      7200
 21408              	.LASF935:
 21409 60db 4C6F6361 		.ascii	"LocalSubscriber\000"
 21409      6C537562 
 21409      73637269 
 21409      62657200 
 21410              	.LASF787:
 21411 60eb 53756273 		.ascii	"Subscriber\000"
 21411      63726962 
 21411      657200
 21412              	.LASF294:
 21413 60f6 746F5F73 		.ascii	"to_s\000"
 21413      00
 21414              	.LASF328:
 21415 60fb 6F706572 		.ascii	"operator==\000"
 21415      61746F72 
 21415      3D3D00
 21416              	.LASF848:
 21417 6106 64656C61 		.ascii	"delay\000"
 21417      7900
 21418              	.LASF731:
 21419 610c 6765745F 		.ascii	"get_enabled\000"
 21419      656E6162 
 21419      6C656400 
 21420              	.LASF799:
 21421 6118 7E537562 		.ascii	"~SubscriberExtBuf\000"
 21421      73637269 
 21421      62657245 
 21421      78744275 
 21421      6600
 21422              	.LASF687:
 21423 612a 5F5A4E33 		.ascii	"_ZN3r2p10StaticListINS_4NodeEE13ConstIteratorppEi\000"
 21423      72327031 
 21423      30537461 
 21423      7469634C 
 21423      69737449 
 21424              	.LASF833:
 21425 615c 5075626C 		.ascii	"Publisher<r2p::Speed3Msg>\000"
 21425      69736865 
 21425      723C7232 
ARM GAS  /tmp/ccypRU8x.s 			page 433


 21425      703A3A53 
 21425      70656564 
 21426              	.LASF462:
 21427 6176 7075626C 		.ascii	"publish_timeout\000"
 21427      6973685F 
 21427      74696D65 
 21427      6F757400 
 21428              	.LASF762:
 21429 6186 5F5A4E4B 		.ascii	"_ZNK3r2p14BaseSubscriber16get_queue_lengthEv\000"
 21429      33723270 
 21429      31344261 
 21429      73655375 
 21429      62736372 
 21430              	.LASF746:
 21431 61b3 5F5A4E33 		.ascii	"_ZN3r2p4Node9subscribeERNS_15LocalSubscriberEPKcPNS"
 21431      72327034 
 21431      4E6F6465 
 21431      39737562 
 21431      73637269 
 21432 61e6 5F374D65 		.ascii	"_7MessageEj\000"
 21432      73736167 
 21432      65456A00 
 21433              	.LASF686:
 21434 61f2 5F5A4E33 		.ascii	"_ZN3r2p10StaticListINS_4NodeEE13ConstIteratorppEv\000"
 21434      72327031 
 21434      30537461 
 21434      7469634C 
 21434      69737449 
 21435              	.LASF0:
 21436 6224 756E7369 		.ascii	"unsigned int\000"
 21436      676E6564 
 21436      20696E74 
 21436      00
 21437              	.LASF681:
 21438 6231 5F5A4E33 		.ascii	"_ZN3r2p9SpinEvent4waitERKNS_4TimeE\000"
 21438      72327039 
 21438      5370696E 
 21438      4576656E 
 21438      74347761 
 21439              	.LASF249:
 21440 6254 7E556E63 		.ascii	"~Uncopyable\000"
 21440      6F707961 
 21440      626C6500 
 21441              	.LASF142:
 21442 6260 5553425F 		.ascii	"USB_UNINIT\000"
 21442      554E494E 
 21442      495400
 21443              	.LASF445:
 21444 626b 5F5A4E4B 		.ascii	"_ZNK3r2p10StaticListINS_5TopicEE8get_headEv\000"
 21444      33723270 
 21444      31305374 
 21444      61746963 
 21444      4C697374 
 21445              	.LASF387:
 21446 6297 5F5A4E4B 		.ascii	"_ZNK3r2p10StaticListINS_15LocalSubscriberEE3endEv\000"
 21446      33723270 
 21446      31305374 
ARM GAS  /tmp/ccypRU8x.s 			page 434


 21446      61746963 
 21446      4C697374 
 21447              	.LASF621:
 21448 62c9 54687265 		.ascii	"Thread_\000"
 21448      61645F00 
 21449              	.LASF6:
 21450 62d1 73686F72 		.ascii	"short int\000"
 21450      7420696E 
 21450      7400
 21451              	.LASF381:
 21452 62db 62656769 		.ascii	"begin\000"
 21452      6E00
 21453              	.LASF168:
 21454 62e1 75736263 		.ascii	"usbcallback_t\000"
 21454      616C6C62 
 21454      61636B5F 
 21454      7400
 21455              	.LASF761:
 21456 62ef 5F5A4E4B 		.ascii	"_ZNK3r2p14BaseSubscriber9get_topicEv\000"
 21456      33723270 
 21456      31344261 
 21456      73655375 
 21456      62736372 
 21457              	.LASF594:
 21458 6314 5F5A4E4B 		.ascii	"_ZNK3r2p10StaticListINS_14LocalPublisherEE10find_fi"
 21458      33723270 
 21458      31305374 
 21458      61746963 
 21458      4C697374 
 21459 6347 72737445 		.ascii	"rstEPFbRKS1_PKvES6_\000"
 21459      50466252 
 21459      4B53315F 
 21459      504B7645 
 21459      53365F00 
 21460              	.LASF336:
 21461 635b 6765745F 		.ascii	"get_head_unsafe\000"
 21461      68656164 
 21461      5F756E73 
 21461      61666500 
 21462              	.LASF165:
 21463 636b 75645F73 		.ascii	"ud_size\000"
 21463      697A6500 
 21464              	.LASF281:
 21465 6373 494E4649 		.ascii	"INFINITEN\000"
 21465      4E495445 
 21465      4E00
 21466              	.LASF811:
 21467 637d 5F5A4E33 		.ascii	"_ZN3r2p9PublisherINS_9PIDCfgMsgEE7publishEPS1_\000"
 21467      72327039 
 21467      5075626C 
 21467      69736865 
 21467      72494E53 
 21468              	.LASF196:
 21469 63ac 696E5F6D 		.ascii	"in_maxsize\000"
 21469      61787369 
 21469      7A6500
 21470              	.LASF232:
ARM GAS  /tmp/ccypRU8x.s 			page 435


 21471 63b7 5F5F7661 		.ascii	"__va_list\000"
 21471      5F6C6973 
 21471      7400
 21472              	.LASF359:
 21473 63c1 72657374 		.ascii	"restart_unsafe\000"
 21473      6172745F 
 21473      756E7361 
 21473      666500
 21474              	.LASF793:
 21475 63d0 53756273 		.ascii	"SubscriberExtBuf\000"
 21475      63726962 
 21475      65724578 
 21475      74427566 
 21475      00
 21476              	.LASF48:
 21477 63e1 705F7374 		.ascii	"p_state\000"
 21477      61746500 
 21478              		.hidden	__dso_handle
 21479              		.ident	"GCC: (GNU Tools for ARM Embedded Processors) 4.9.3 20141119 (release) [ARM/embedded-4_9-br
ARM GAS  /tmp/ccypRU8x.s 			page 436


DEFINED SYMBOLS
                            *ABS*:00000000 shell_node.cpp
     /tmp/ccypRU8x.s:21     .text._ZL8chprintfP20BaseSequentialStreamPKcz:00000000 $t
     /tmp/ccypRU8x.s:26     .text._ZL8chprintfP20BaseSequentialStreamPKcz:00000000 _ZL8chprintfP20BaseSequentialStreamPKcz
     /tmp/ccypRU8x.s:71     .text._ZN3r2p8SysLock_7acquireEv:00000000 $t
     /tmp/ccypRU8x.s:77     .text._ZN3r2p8SysLock_7acquireEv:00000000 _ZN3r2p8SysLock_7acquireEv
     /tmp/ccypRU8x.s:107    .text._ZN3r2p8SysLock_7releaseEv:00000000 $t
     /tmp/ccypRU8x.s:113    .text._ZN3r2p8SysLock_7releaseEv:00000000 _ZN3r2p8SysLock_7releaseEv
     /tmp/ccypRU8x.s:142    .text._ZN3r2p7SysLock7acquireEv:00000000 $t
     /tmp/ccypRU8x.s:148    .text._ZN3r2p7SysLock7acquireEv:00000000 _ZN3r2p7SysLock7acquireEv
     /tmp/ccypRU8x.s:167    .text._ZN3r2p7SysLock7releaseEv:00000000 $t
     /tmp/ccypRU8x.s:173    .text._ZN3r2p7SysLock7releaseEv:00000000 _ZN3r2p7SysLock7releaseEv
     /tmp/ccypRU8x.s:191    .text._ZN3r2p11MemoryPool_12alloc_unsafeEv:00000000 $t
     /tmp/ccypRU8x.s:197    .text._ZN3r2p11MemoryPool_12alloc_unsafeEv:00000000 _ZN3r2p11MemoryPool_12alloc_unsafeEv
     /tmp/ccypRU8x.s:225    .text._ZNK3r2p4Time8to_s_rawEv:00000000 $t
     /tmp/ccypRU8x.s:231    .text._ZNK3r2p4Time8to_s_rawEv:00000000 _ZNK3r2p4Time8to_s_rawEv
     /tmp/ccypRU8x.s:259    .text._ZNK3r2p4Time8to_s_rawEv:0000001c $d
     /tmp/ccypRU8x.s:264    .text._ZN3r2p4TimeaSERKS0_:00000000 $t
     /tmp/ccypRU8x.s:270    .text._ZN3r2p4TimeaSERKS0_:00000000 _ZN3r2p4TimeaSERKS0_
     /tmp/ccypRU8x.s:298    .text._ZN3r2p4Time2msEl:00000000 $t
     /tmp/ccypRU8x.s:304    .text._ZN3r2p4Time2msEl:00000000 _ZN3r2p4Time2msEl
     /tmp/ccypRU8x.s:2961   .text._ZN3r2p4TimeC2IlEET_:00000000 _ZN3r2p4TimeC1IlEET_
     /tmp/ccypRU8x.s:334    .text._ZN3r2p7Message12reset_unsafeEv:00000000 $t
     /tmp/ccypRU8x.s:340    .text._ZN3r2p7Message12reset_unsafeEv:00000000 _ZN3r2p7Message12reset_unsafeEv
     /tmp/ccypRU8x.s:366    .text._ZN3r2p7MessageC2Ev:00000000 $t
     /tmp/ccypRU8x.s:372    .text._ZN3r2p7MessageC2Ev:00000000 _ZN3r2p7MessageC2Ev
     /tmp/ccypRU8x.s:372    .text._ZN3r2p7MessageC2Ev:00000000 _ZN3r2p7MessageC1Ev
     /tmp/ccypRU8x.s:403    .rodata:00000000 $d
     /tmp/ccypRU8x.s:407    .text._ZN3r2p13BasePublisher12alloc_unsafeERPNS_7MessageE:00000000 $t
     /tmp/ccypRU8x.s:413    .text._ZN3r2p13BasePublisher12alloc_unsafeERPNS_7MessageE:00000000 _ZN3r2p13BasePublisher12alloc_unsafeERPNS_7MessageE
     /tmp/ccypRU8x.s:1170   .text._ZN3r2p5Topic12alloc_unsafeEv:00000000 _ZN3r2p5Topic12alloc_unsafeEv
     /tmp/ccypRU8x.s:461    .text._ZN3r2p13BasePublisher12alloc_unsafeERPNS_7MessageE:0000003c $d
     /tmp/ccypRU8x.s:466    .text._ZN3r2p13BasePublisher5allocERPNS_7MessageE:00000000 $t
     /tmp/ccypRU8x.s:472    .text._ZN3r2p13BasePublisher5allocERPNS_7MessageE:00000000 _ZN3r2p13BasePublisher5allocERPNS_7MessageE
     /tmp/ccypRU8x.s:509    .text._ZN3r2p7Thread_4selfEv:00000000 $t
     /tmp/ccypRU8x.s:515    .text._ZN3r2p7Thread_4selfEv:00000000 _ZN3r2p7Thread_4selfEv
     /tmp/ccypRU8x.s:532    .text._ZN3r2p7Thread_4selfEv:00000008 $d
     /tmp/ccypRU8x.s:537    .text._ZN3r2p7Thread_5sleepERKNS_4TimeE:00000000 $t
     /tmp/ccypRU8x.s:543    .text._ZN3r2p7Thread_5sleepERKNS_4TimeE:00000000 _ZN3r2p7Thread_5sleepERKNS_4TimeE
     /tmp/ccypRU8x.s:602    .text._ZN3r2p7Thread_5sleepERKNS_4TimeE:0000005c $d
     /tmp/ccypRU8x.s:608    .text._ZN3r2p6Thread4selfEv:00000000 $t
     /tmp/ccypRU8x.s:614    .text._ZN3r2p6Thread4selfEv:00000000 _ZN3r2p6Thread4selfEv
     /tmp/ccypRU8x.s:635    .text._ZN3r2p6Thread5sleepERKNS_4TimeE:00000000 $t
     /tmp/ccypRU8x.s:641    .text._ZN3r2p6Thread5sleepERKNS_4TimeE:00000000 _ZN3r2p6Thread5sleepERKNS_4TimeE
     /tmp/ccypRU8x.s:665    .text._ZNK3r2p10SpinEvent_10get_threadEv:00000000 $t
     /tmp/ccypRU8x.s:671    .text._ZNK3r2p10SpinEvent_10get_threadEv:00000000 _ZNK3r2p10SpinEvent_10get_threadEv
     /tmp/ccypRU8x.s:695    .text._ZN3r2p10SpinEvent_10set_threadEPNS_6ThreadE:00000000 $t
     /tmp/ccypRU8x.s:701    .text._ZN3r2p10SpinEvent_10set_threadEPNS_6ThreadE:00000000 _ZN3r2p10SpinEvent_10set_threadEPNS_6ThreadE
     /tmp/ccypRU8x.s:725    .text._ZN3r2p10SpinEvent_13signal_unsafeEj:00000000 $t
     /tmp/ccypRU8x.s:731    .text._ZN3r2p10SpinEvent_13signal_unsafeEj:00000000 _ZN3r2p10SpinEvent_13signal_unsafeEj
     /tmp/ccypRU8x.s:776    .text._ZN3r2p10SpinEvent_13signal_unsafeEj:00000038 $d
     /tmp/ccypRU8x.s:781    .text._ZNK3r2p9SpinEvent10get_threadEv:00000000 $t
     /tmp/ccypRU8x.s:787    .text._ZNK3r2p9SpinEvent10get_threadEv:00000000 _ZNK3r2p9SpinEvent10get_threadEv
     /tmp/ccypRU8x.s:815    .text._ZN3r2p9SpinEvent10set_threadEPNS_6ThreadE:00000000 $t
     /tmp/ccypRU8x.s:821    .text._ZN3r2p9SpinEvent10set_threadEPNS_6ThreadE:00000000 _ZN3r2p9SpinEvent10set_threadEPNS_6ThreadE
     /tmp/ccypRU8x.s:848    .text._ZN3r2p9SpinEvent13signal_unsafeEj:00000000 $t
     /tmp/ccypRU8x.s:854    .text._ZN3r2p9SpinEvent13signal_unsafeEj:00000000 _ZN3r2p9SpinEvent13signal_unsafeEj
ARM GAS  /tmp/ccypRU8x.s 			page 437


     /tmp/ccypRU8x.s:881    .text._ZNK3r2p4Node11get_enabledEv:00000000 $t
     /tmp/ccypRU8x.s:887    .text._ZNK3r2p4Node11get_enabledEv:00000000 _ZNK3r2p4Node11get_enabledEv
     /tmp/ccypRU8x.s:921    .text._ZN3r2p4Node11set_enabledEb:00000000 $t
     /tmp/ccypRU8x.s:927    .text._ZN3r2p4Node11set_enabledEb:00000000 _ZN3r2p4Node11set_enabledEb
     /tmp/ccypRU8x.s:969    .text._ZN3r2p4Node13notify_unsafeEj:00000000 $t
     /tmp/ccypRU8x.s:975    .text._ZN3r2p4Node13notify_unsafeEj:00000000 _ZN3r2p4Node13notify_unsafeEj
     /tmp/ccypRU8x.s:1003   .text._ZNK3r2p15LocalSubscriber16get_queue_lengthEv:00000000 $t
     /tmp/ccypRU8x.s:1009   .text._ZNK3r2p15LocalSubscriber16get_queue_lengthEv:00000000 _ZNK3r2p15LocalSubscriber16get_queue_lengthEv
     /tmp/ccypRU8x.s:2997   .text._ZNK3r2p10ArrayQueueIPNS_7MessageEE10get_lengthEv:00000000 _ZNK3r2p10ArrayQueueIPNS_7MessageEE10get_lengthEv
     /tmp/ccypRU8x.s:1038   .text._ZN3r2p15LocalSubscriber12fetch_unsafeERPNS_7MessageERNS_4TimeE:00000000 $t
     /tmp/ccypRU8x.s:1044   .text._ZN3r2p15LocalSubscriber12fetch_unsafeERPNS_7MessageERNS_4TimeE:00000000 _ZN3r2p15LocalSubscriber12fetch_unsafeERPNS_7MessageERNS_4TimeE
     /tmp/ccypRU8x.s:3027   .text._ZN3r2p10ArrayQueueIPNS_7MessageEE12fetch_unsafeERS2_:00000000 _ZN3r2p10ArrayQueueIPNS_7MessageEE12fetch_unsafeERS2_
     /tmp/ccypRU8x.s:1092   .text._ZN3r2p15LocalSubscriber13notify_unsafeERNS_7MessageERKNS_4TimeE:00000000 $t
     /tmp/ccypRU8x.s:1098   .text._ZN3r2p15LocalSubscriber13notify_unsafeERNS_7MessageERKNS_4TimeE:00000000 _ZN3r2p15LocalSubscriber13notify_unsafeERNS_7MessageERKNS_4TimeE
     /tmp/ccypRU8x.s:3105   .text._ZN3r2p10ArrayQueueIPNS_7MessageEE11post_unsafeES2_:00000000 _ZN3r2p10ArrayQueueIPNS_7MessageEE11post_unsafeES2_
     /tmp/ccypRU8x.s:1164   .text._ZN3r2p5Topic12alloc_unsafeEv:00000000 $t
     /tmp/ccypRU8x.s:1219   .bss.vel_node:00000000 vel_node
     /tmp/ccypRU8x.s:1216   .bss.vel_node:00000000 $d
     /tmp/ccypRU8x.s:1226   .bss.vel_pub:00000000 vel_pub
     /tmp/ccypRU8x.s:1223   .bss.vel_pub:00000000 $d
     /tmp/ccypRU8x.s:1232   .data.speed_first_time:00000000 speed_first_time
     /tmp/ccypRU8x.s:1239   .bss.pidcfg_node:00000000 pidcfg_node
     /tmp/ccypRU8x.s:1236   .bss.pidcfg_node:00000000 $d
     /tmp/ccypRU8x.s:1246   .bss.pidcfg_pub:00000000 pidcfg_pub
     /tmp/ccypRU8x.s:1243   .bss.pidcfg_pub:00000000 $d
     /tmp/ccypRU8x.s:1252   .data.pidcfg_first_time:00000000 pidcfg_first_time
     /tmp/ccypRU8x.s:1259   .bss.pixy_node:00000000 pixy_node
     /tmp/ccypRU8x.s:1256   .bss.pixy_node:00000000 $d
     /tmp/ccypRU8x.s:1266   .bss.pixy_sub:00000000 pixy_sub
     /tmp/ccypRU8x.s:1263   .bss.pixy_sub:00000000 $d
     /tmp/ccypRU8x.s:1272   .data.pixy_first_time:00000000 pixy_first_time
     /tmp/ccypRU8x.s:1279   .bss.proximity_values:00000000 proximity_values
     /tmp/ccypRU8x.s:1276   .bss.proximity_values:00000000 $d
     /tmp/ccypRU8x.s:1286   .bss.proximity_node:00000000 proximity_node
     /tmp/ccypRU8x.s:1283   .bss.proximity_node:00000000 $d
     /tmp/ccypRU8x.s:1293   .bss.proximity_sub:00000000 proximity_sub
     /tmp/ccypRU8x.s:1290   .bss.proximity_sub:00000000 $d
     /tmp/ccypRU8x.s:1299   .data.proxy_first_time:00000000 proxy_first_time
     /tmp/ccypRU8x.s:1306   .bss.serialp:00000000 serialp
     /tmp/ccypRU8x.s:1303   .bss.serialp:00000000 $d
     /tmp/ccypRU8x.s:1312   .bss.stream_enc:00000000 stream_enc
     /tmp/ccypRU8x.s:1313   .bss.stream_enc:00000000 $d
     /tmp/ccypRU8x.s:1315   .text._Z22usb_lld_disconnect_busP9USBDriver:00000000 $t
     /tmp/ccypRU8x.s:1321   .text._Z22usb_lld_disconnect_busP9USBDriver:00000000 _Z22usb_lld_disconnect_busP9USBDriver
     /tmp/ccypRU8x.s:1357   .text._Z19usb_lld_connect_busP9USBDriver:00000000 $t
     /tmp/ccypRU8x.s:1363   .text._Z19usb_lld_connect_busP9USBDriver:00000000 _Z19usb_lld_connect_busP9USBDriver
     /tmp/ccypRU8x.s:1410   .text._ZL7cmd_runP20BaseSequentialStreamiPPc:00000000 $t
     /tmp/ccypRU8x.s:1415   .text._ZL7cmd_runP20BaseSequentialStreamiPPc:00000000 _ZL7cmd_runP20BaseSequentialStreamiPPc
     /tmp/ccypRU8x.s:3482   .text._ZN3r2p4Node9advertiseINS_9Speed3MsgEEEbRNS_9PublisherIT_EEPKcRKNS_4TimeE:00000000 _ZN3r2p4Node9advertiseINS_9Speed3MsgEEEbRNS_9PublisherIT_EEPKcRKNS_4TimeE
     /tmp/ccypRU8x.s:3523   .text._ZN3r2p9PublisherINS_9Speed3MsgEE5allocERPS1_:00000000 _ZN3r2p9PublisherINS_9Speed3MsgEE5allocERPS1_
     /tmp/ccypRU8x.s:3557   .text._Z5clampIfET_S0_S0_S0_:00000000 _Z5clampIfET_S0_S0_S0_
     /tmp/ccypRU8x.s:3610   .text._ZN3r2p9PublisherINS_9Speed3MsgEE7publishERS1_:00000000 _ZN3r2p9PublisherINS_9Speed3MsgEE7publishERS1_
     /tmp/ccypRU8x.s:1634   .text._ZL7cmd_runP20BaseSequentialStreamiPPc:00000204 $d
     /tmp/ccypRU8x.s:1682   .text._ZL10cmd_followP20BaseSequentialStreamiPPc:00000000 $t
     /tmp/ccypRU8x.s:1687   .text._ZL10cmd_followP20BaseSequentialStreamiPPc:00000000 _ZL10cmd_followP20BaseSequentialStreamiPPc
     /tmp/ccypRU8x.s:3646   .text._ZN3r2p4Node9subscribeINS_7PixyMsgELj5EEEbRNS_10SubscriberIT_XT0_EEEPKc:00000000 _ZN3r2p4Node9subscribeINS_7PixyMsgELj5EEEbRNS_10SubscriberIT_XT0_EEEPKc
     /tmp/ccypRU8x.s:3689   .text._ZN3r2p16SubscriberExtBufINS_7PixyMsgEE5fetchERPS1_:00000000 _ZN3r2p16SubscriberExtBufINS_7PixyMsgEE5fetchERPS1_
ARM GAS  /tmp/ccypRU8x.s 			page 438


     /tmp/ccypRU8x.s:3725   .text._ZN3r2p16SubscriberExtBufINS_7PixyMsgEE7releaseERS1_:00000000 _ZN3r2p16SubscriberExtBufINS_7PixyMsgEE7releaseERS1_
     /tmp/ccypRU8x.s:2012   .text._ZL10cmd_followP20BaseSequentialStreamiPPc:00000208 $d
     /tmp/ccypRU8x.s:2034   .text._ZL10cmd_followP20BaseSequentialStreamiPPc:00000258 $t
     /tmp/ccypRU8x.s:2155   .text._ZL10cmd_followP20BaseSequentialStreamiPPc:000003ac $d
     /tmp/ccypRU8x.s:2182   .text._ZL13cmd_proximityP20BaseSequentialStreamiPPc:00000000 $t
     /tmp/ccypRU8x.s:2187   .text._ZL13cmd_proximityP20BaseSequentialStreamiPPc:00000000 _ZL13cmd_proximityP20BaseSequentialStreamiPPc
     /tmp/ccypRU8x.s:3761   .text._ZN3r2p4Node9subscribeINS_12ProximityMsgELj5EEEbRNS_10SubscriberIT_XT0_EEEPKc:00000000 _ZN3r2p4Node9subscribeINS_12ProximityMsgELj5EEEbRNS_10SubscriberIT_XT0_EEEPKc
     /tmp/ccypRU8x.s:3804   .text._ZN3r2p16SubscriberExtBufINS_12ProximityMsgEE5fetchERPS1_:00000000 _ZN3r2p16SubscriberExtBufINS_12ProximityMsgEE5fetchERPS1_
     /tmp/ccypRU8x.s:3839   .text._ZN3r2p16SubscriberExtBufINS_12ProximityMsgEE7releaseERS1_:00000000 _ZN3r2p16SubscriberExtBufINS_12ProximityMsgEE7releaseERS1_
     /tmp/ccypRU8x.s:2326   .text._ZL13cmd_proximityP20BaseSequentialStreamiPPc:000000c8 $d
     /tmp/ccypRU8x.s:2359   .text._ZL8cmd_pixyP20BaseSequentialStreamiPPc:00000000 $t
     /tmp/ccypRU8x.s:2364   .text._ZL8cmd_pixyP20BaseSequentialStreamiPPc:00000000 _ZL8cmd_pixyP20BaseSequentialStreamiPPc
     /tmp/ccypRU8x.s:2513   .text._ZL8cmd_pixyP20BaseSequentialStreamiPPc:000000f0 $d
     /tmp/ccypRU8x.s:2533   .text._ZL8cmd_stopP20BaseSequentialStreamiPPc:00000000 $t
     /tmp/ccypRU8x.s:2538   .text._ZL8cmd_stopP20BaseSequentialStreamiPPc:00000000 _ZL8cmd_stopP20BaseSequentialStreamiPPc
     /tmp/ccypRU8x.s:2626   .text._ZL8cmd_stopP20BaseSequentialStreamiPPc:00000084 $d
     /tmp/ccypRU8x.s:2640   .text._ZL7cmd_encP20BaseSequentialStreamiPPc:00000000 $t
     /tmp/ccypRU8x.s:2645   .text._ZL7cmd_encP20BaseSequentialStreamiPPc:00000000 _ZL7cmd_encP20BaseSequentialStreamiPPc
     /tmp/ccypRU8x.s:2690   .text._ZL7cmd_encP20BaseSequentialStreamiPPc:00000034 $d
     /tmp/ccypRU8x.s:2704   .text._ZL10cmd_pidcfgP20BaseSequentialStreamiPPc:00000000 $t
     /tmp/ccypRU8x.s:2709   .text._ZL10cmd_pidcfgP20BaseSequentialStreamiPPc:00000000 _ZL10cmd_pidcfgP20BaseSequentialStreamiPPc
     /tmp/ccypRU8x.s:3875   .text._ZN3r2p4Node9advertiseINS_9PIDCfgMsgEEEbRNS_9PublisherIT_EEPKcRKNS_4TimeE:00000000 _ZN3r2p4Node9advertiseINS_9PIDCfgMsgEEEbRNS_9PublisherIT_EEPKcRKNS_4TimeE
     /tmp/ccypRU8x.s:3916   .text._ZN3r2p9PublisherINS_9PIDCfgMsgEE5allocERPS1_:00000000 _ZN3r2p9PublisherINS_9PIDCfgMsgEE5allocERPS1_
     /tmp/ccypRU8x.s:3951   .text._ZN3r2p9PublisherINS_9PIDCfgMsgEE7publishERS1_:00000000 _ZN3r2p9PublisherINS_9PIDCfgMsgEE7publishERS1_
     /tmp/ccypRU8x.s:2824   .text._ZL10cmd_pidcfgP20BaseSequentialStreamiPPc:000000c4 $d
     /tmp/ccypRU8x.s:2838   .text._Z10shell_nodePv:00000000 $t
     /tmp/ccypRU8x.s:2844   .text._Z10shell_nodePv:00000000 _Z10shell_nodePv
     /tmp/ccypRU8x.s:2945   .text._Z10shell_nodePv:000000ac $d
     /tmp/ccypRU8x.s:4494   .rodata._ZL13usb_shell_cfg:00000000 _ZL13usb_shell_cfg
     /tmp/ccypRU8x.s:2955   .text._ZN3r2p4TimeC2IlEET_:00000000 $t
     /tmp/ccypRU8x.s:2961   .text._ZN3r2p4TimeC2IlEET_:00000000 _ZN3r2p4TimeC2IlEET_
     /tmp/ccypRU8x.s:2991   .text._ZNK3r2p10ArrayQueueIPNS_7MessageEE10get_lengthEv:00000000 $t
     /tmp/ccypRU8x.s:3021   .text._ZN3r2p10ArrayQueueIPNS_7MessageEE12fetch_unsafeERS2_:00000000 $t
     /tmp/ccypRU8x.s:3099   .text._ZN3r2p10ArrayQueueIPNS_7MessageEE11post_unsafeES2_:00000000 $t
     /tmp/ccypRU8x.s:3178   .text._ZN3r2p9PublisherINS_9Speed3MsgEEC2Ev:00000000 $t
     /tmp/ccypRU8x.s:3184   .text._ZN3r2p9PublisherINS_9Speed3MsgEEC2Ev:00000000 _ZN3r2p9PublisherINS_9Speed3MsgEEC2Ev
     /tmp/ccypRU8x.s:3216   .text._ZN3r2p9PublisherINS_9Speed3MsgEEC2Ev:00000020 $d
     /tmp/ccypRU8x.s:4323   .rodata._ZTVN3r2p9PublisherINS_9Speed3MsgEEE:00000000 _ZTVN3r2p9PublisherINS_9Speed3MsgEEE
     /tmp/ccypRU8x.s:3184   .text._ZN3r2p9PublisherINS_9Speed3MsgEEC2Ev:00000000 _ZN3r2p9PublisherINS_9Speed3MsgEEC1Ev
     /tmp/ccypRU8x.s:3223   .text._ZN3r2p9PublisherINS_9PIDCfgMsgEEC2Ev:00000000 $t
     /tmp/ccypRU8x.s:3229   .text._ZN3r2p9PublisherINS_9PIDCfgMsgEEC2Ev:00000000 _ZN3r2p9PublisherINS_9PIDCfgMsgEEC2Ev
     /tmp/ccypRU8x.s:3260   .text._ZN3r2p9PublisherINS_9PIDCfgMsgEEC2Ev:00000020 $d
     /tmp/ccypRU8x.s:4313   .rodata._ZTVN3r2p9PublisherINS_9PIDCfgMsgEEE:00000000 _ZTVN3r2p9PublisherINS_9PIDCfgMsgEEE
     /tmp/ccypRU8x.s:3229   .text._ZN3r2p9PublisherINS_9PIDCfgMsgEEC2Ev:00000000 _ZN3r2p9PublisherINS_9PIDCfgMsgEEC1Ev
     /tmp/ccypRU8x.s:3267   .text._ZN3r2p7PixyMsgC2Ev:00000000 $t
     /tmp/ccypRU8x.s:3273   .text._ZN3r2p7PixyMsgC2Ev:00000000 _ZN3r2p7PixyMsgC2Ev
     /tmp/ccypRU8x.s:3273   .text._ZN3r2p7PixyMsgC2Ev:00000000 _ZN3r2p7PixyMsgC1Ev
     /tmp/ccypRU8x.s:3304   .text._ZN3r2p10SubscriberINS_7PixyMsgELj5EEC2EPFbRKS1_E:00000000 $t
     /tmp/ccypRU8x.s:3310   .text._ZN3r2p10SubscriberINS_7PixyMsgELj5EEC2EPFbRKS1_E:00000000 _ZN3r2p10SubscriberINS_7PixyMsgELj5EEC2EPFbRKS1_E
     /tmp/ccypRU8x.s:3987   .text._ZN3r2p16SubscriberExtBufINS_7PixyMsgEEC2EPPS1_jPFbRKS1_E:00000000 _ZN3r2p16SubscriberExtBufINS_7PixyMsgEEC2EPPS1_jPFbRKS1_E
     /tmp/ccypRU8x.s:3365   .text._ZN3r2p10SubscriberINS_7PixyMsgELj5EEC2EPFbRKS1_E:00000044 $d
     /tmp/ccypRU8x.s:4283   .rodata._ZTVN3r2p10SubscriberINS_7PixyMsgELj5EEE:00000000 _ZTVN3r2p10SubscriberINS_7PixyMsgELj5EEE
     /tmp/ccypRU8x.s:3310   .text._ZN3r2p10SubscriberINS_7PixyMsgELj5EEC2EPFbRKS1_E:00000000 _ZN3r2p10SubscriberINS_7PixyMsgELj5EEC1EPFbRKS1_E
     /tmp/ccypRU8x.s:3372   .text._ZN3r2p12ProximityMsgC2Ev:00000000 $t
     /tmp/ccypRU8x.s:3378   .text._ZN3r2p12ProximityMsgC2Ev:00000000 _ZN3r2p12ProximityMsgC2Ev
     /tmp/ccypRU8x.s:3378   .text._ZN3r2p12ProximityMsgC2Ev:00000000 _ZN3r2p12ProximityMsgC1Ev
     /tmp/ccypRU8x.s:3409   .text._ZN3r2p10SubscriberINS_12ProximityMsgELj5EEC2EPFbRKS1_E:00000000 $t
ARM GAS  /tmp/ccypRU8x.s 			page 439


     /tmp/ccypRU8x.s:3415   .text._ZN3r2p10SubscriberINS_12ProximityMsgELj5EEC2EPFbRKS1_E:00000000 _ZN3r2p10SubscriberINS_12ProximityMsgELj5EEC2EPFbRKS1_E
     /tmp/ccypRU8x.s:4121   .text._ZN3r2p16SubscriberExtBufINS_12ProximityMsgEEC2EPPS1_jPFbRKS1_E:00000000 _ZN3r2p16SubscriberExtBufINS_12ProximityMsgEEC2EPPS1_jPFbRKS1_E
     /tmp/ccypRU8x.s:3469   .text._ZN3r2p10SubscriberINS_12ProximityMsgELj5EEC2EPFbRKS1_E:00000044 $d
     /tmp/ccypRU8x.s:4253   .rodata._ZTVN3r2p10SubscriberINS_12ProximityMsgELj5EEE:00000000 _ZTVN3r2p10SubscriberINS_12ProximityMsgELj5EEE
     /tmp/ccypRU8x.s:3415   .text._ZN3r2p10SubscriberINS_12ProximityMsgELj5EEC2EPFbRKS1_E:00000000 _ZN3r2p10SubscriberINS_12ProximityMsgELj5EEC1EPFbRKS1_E
     /tmp/ccypRU8x.s:3476   .text._ZN3r2p4Node9advertiseINS_9Speed3MsgEEEbRNS_9PublisherIT_EEPKcRKNS_4TimeE:00000000 $t
     /tmp/ccypRU8x.s:3517   .text._ZN3r2p9PublisherINS_9Speed3MsgEE5allocERPS1_:00000000 $t
     /tmp/ccypRU8x.s:3552   .text._Z5clampIfET_S0_S0_S0_:00000000 $t
     /tmp/ccypRU8x.s:3604   .text._ZN3r2p9PublisherINS_9Speed3MsgEE7publishERS1_:00000000 $t
     /tmp/ccypRU8x.s:3640   .text._ZN3r2p4Node9subscribeINS_7PixyMsgELj5EEEbRNS_10SubscriberIT_XT0_EEEPKc:00000000 $t
     /tmp/ccypRU8x.s:3683   .text._ZN3r2p16SubscriberExtBufINS_7PixyMsgEE5fetchERPS1_:00000000 $t
     /tmp/ccypRU8x.s:3719   .text._ZN3r2p16SubscriberExtBufINS_7PixyMsgEE7releaseERS1_:00000000 $t
     /tmp/ccypRU8x.s:3755   .text._ZN3r2p4Node9subscribeINS_12ProximityMsgELj5EEEbRNS_10SubscriberIT_XT0_EEEPKc:00000000 $t
     /tmp/ccypRU8x.s:3798   .text._ZN3r2p16SubscriberExtBufINS_12ProximityMsgEE5fetchERPS1_:00000000 $t
     /tmp/ccypRU8x.s:3833   .text._ZN3r2p16SubscriberExtBufINS_12ProximityMsgEE7releaseERS1_:00000000 $t
     /tmp/ccypRU8x.s:3869   .text._ZN3r2p4Node9advertiseINS_9PIDCfgMsgEEEbRNS_9PublisherIT_EEPKcRKNS_4TimeE:00000000 $t
     /tmp/ccypRU8x.s:3910   .text._ZN3r2p9PublisherINS_9PIDCfgMsgEE5allocERPS1_:00000000 $t
     /tmp/ccypRU8x.s:3945   .text._ZN3r2p9PublisherINS_9PIDCfgMsgEE7publishERS1_:00000000 $t
     /tmp/ccypRU8x.s:3981   .text._ZN3r2p16SubscriberExtBufINS_7PixyMsgEEC2EPPS1_jPFbRKS1_E:00000000 $t
     /tmp/ccypRU8x.s:4024   .text._ZN3r2p16SubscriberExtBufINS_7PixyMsgEEC2EPPS1_jPFbRKS1_E:0000002c $d
     /tmp/ccypRU8x.s:4298   .rodata._ZTVN3r2p16SubscriberExtBufINS_7PixyMsgEEE:00000000 _ZTVN3r2p16SubscriberExtBufINS_7PixyMsgEEE
     /tmp/ccypRU8x.s:3987   .text._ZN3r2p16SubscriberExtBufINS_7PixyMsgEEC2EPPS1_jPFbRKS1_E:00000000 _ZN3r2p16SubscriberExtBufINS_7PixyMsgEEC1EPPS1_jPFbRKS1_E
     /tmp/ccypRU8x.s:4031   .text._ZN3r2p16SubscriberExtBufINS_7PixyMsgEED2Ev:00000000 $t
     /tmp/ccypRU8x.s:4037   .text._ZN3r2p16SubscriberExtBufINS_7PixyMsgEED2Ev:00000000 _ZN3r2p16SubscriberExtBufINS_7PixyMsgEED2Ev
     /tmp/ccypRU8x.s:4075   .text._ZN3r2p16SubscriberExtBufINS_7PixyMsgEED2Ev:0000002c $d
     /tmp/ccypRU8x.s:4037   .text._ZN3r2p16SubscriberExtBufINS_7PixyMsgEED2Ev:00000000 _ZN3r2p16SubscriberExtBufINS_7PixyMsgEED1Ev
     /tmp/ccypRU8x.s:4082   .text._ZN3r2p16SubscriberExtBufINS_7PixyMsgEED0Ev:00000000 $t
     /tmp/ccypRU8x.s:4088   .text._ZN3r2p16SubscriberExtBufINS_7PixyMsgEED0Ev:00000000 _ZN3r2p16SubscriberExtBufINS_7PixyMsgEED0Ev
     /tmp/ccypRU8x.s:4115   .text._ZN3r2p16SubscriberExtBufINS_12ProximityMsgEEC2EPPS1_jPFbRKS1_E:00000000 $t
     /tmp/ccypRU8x.s:4158   .text._ZN3r2p16SubscriberExtBufINS_12ProximityMsgEEC2EPPS1_jPFbRKS1_E:0000002c $d
     /tmp/ccypRU8x.s:4268   .rodata._ZTVN3r2p16SubscriberExtBufINS_12ProximityMsgEEE:00000000 _ZTVN3r2p16SubscriberExtBufINS_12ProximityMsgEEE
     /tmp/ccypRU8x.s:4121   .text._ZN3r2p16SubscriberExtBufINS_12ProximityMsgEEC2EPPS1_jPFbRKS1_E:00000000 _ZN3r2p16SubscriberExtBufINS_12ProximityMsgEEC1EPPS1_jPFbRKS1_E
     /tmp/ccypRU8x.s:4165   .text._ZN3r2p16SubscriberExtBufINS_12ProximityMsgEED2Ev:00000000 $t
     /tmp/ccypRU8x.s:4171   .text._ZN3r2p16SubscriberExtBufINS_12ProximityMsgEED2Ev:00000000 _ZN3r2p16SubscriberExtBufINS_12ProximityMsgEED2Ev
     /tmp/ccypRU8x.s:4209   .text._ZN3r2p16SubscriberExtBufINS_12ProximityMsgEED2Ev:0000002c $d
     /tmp/ccypRU8x.s:4171   .text._ZN3r2p16SubscriberExtBufINS_12ProximityMsgEED2Ev:00000000 _ZN3r2p16SubscriberExtBufINS_12ProximityMsgEED1Ev
     /tmp/ccypRU8x.s:4216   .text._ZN3r2p16SubscriberExtBufINS_12ProximityMsgEED0Ev:00000000 $t
     /tmp/ccypRU8x.s:4222   .text._ZN3r2p16SubscriberExtBufINS_12ProximityMsgEED0Ev:00000000 _ZN3r2p16SubscriberExtBufINS_12ProximityMsgEED0Ev
     /tmp/ccypRU8x.s:4250   .rodata._ZTVN3r2p10SubscriberINS_12ProximityMsgELj5EEE:00000000 $d
     /tmp/ccypRU8x.s:4504   .text._ZN3r2p10SubscriberINS_12ProximityMsgELj5EED2Ev:00000000 _ZN3r2p10SubscriberINS_12ProximityMsgELj5EED1Ev
     /tmp/ccypRU8x.s:4555   .text._ZN3r2p10SubscriberINS_12ProximityMsgELj5EED0Ev:00000000 _ZN3r2p10SubscriberINS_12ProximityMsgELj5EED0Ev
     /tmp/ccypRU8x.s:4265   .rodata._ZTVN3r2p16SubscriberExtBufINS_12ProximityMsgEEE:00000000 $d
     /tmp/ccypRU8x.s:4280   .rodata._ZTVN3r2p10SubscriberINS_7PixyMsgELj5EEE:00000000 $d
     /tmp/ccypRU8x.s:4588   .text._ZN3r2p10SubscriberINS_7PixyMsgELj5EED2Ev:00000000 _ZN3r2p10SubscriberINS_7PixyMsgELj5EED1Ev
     /tmp/ccypRU8x.s:4639   .text._ZN3r2p10SubscriberINS_7PixyMsgELj5EED0Ev:00000000 _ZN3r2p10SubscriberINS_7PixyMsgELj5EED0Ev
     /tmp/ccypRU8x.s:4295   .rodata._ZTVN3r2p16SubscriberExtBufINS_7PixyMsgEEE:00000000 $d
     /tmp/ccypRU8x.s:4310   .rodata._ZTVN3r2p9PublisherINS_9PIDCfgMsgEEE:00000000 $d
     /tmp/ccypRU8x.s:4672   .text._ZN3r2p9PublisherINS_9PIDCfgMsgEED2Ev:00000000 _ZN3r2p9PublisherINS_9PIDCfgMsgEED1Ev
     /tmp/ccypRU8x.s:4723   .text._ZN3r2p9PublisherINS_9PIDCfgMsgEED0Ev:00000000 _ZN3r2p9PublisherINS_9PIDCfgMsgEED0Ev
     /tmp/ccypRU8x.s:4320   .rodata._ZTVN3r2p9PublisherINS_9Speed3MsgEEE:00000000 $d
     /tmp/ccypRU8x.s:4756   .text._ZN3r2p9PublisherINS_9Speed3MsgEED2Ev:00000000 _ZN3r2p9PublisherINS_9Speed3MsgEED1Ev
     /tmp/ccypRU8x.s:4807   .text._ZN3r2p9PublisherINS_9Speed3MsgEED0Ev:00000000 _ZN3r2p9PublisherINS_9Speed3MsgEED0Ev
     /tmp/ccypRU8x.s:4333   .text._Z41__static_initialization_and_destruction_0ii:00000000 $t
     /tmp/ccypRU8x.s:4338   .text._Z41__static_initialization_and_destruction_0ii:00000000 _Z41__static_initialization_and_destruction_0ii
     /tmp/ccypRU8x.s:4435   .text._Z41__static_initialization_and_destruction_0ii:000000b4 $d
     /tmp/ccypRU8x.s:4470   .rodata._ZL8commands:00000000 $d
     /tmp/ccypRU8x.s:4473   .rodata._ZL8commands:00000000 _ZL8commands
ARM GAS  /tmp/ccypRU8x.s 			page 440


     /tmp/ccypRU8x.s:4491   .rodata._ZL13usb_shell_cfg:00000000 $d
     /tmp/ccypRU8x.s:4498   .text._ZN3r2p10SubscriberINS_12ProximityMsgELj5EED2Ev:00000000 $t
     /tmp/ccypRU8x.s:4504   .text._ZN3r2p10SubscriberINS_12ProximityMsgELj5EED2Ev:00000000 _ZN3r2p10SubscriberINS_12ProximityMsgELj5EED2Ev
     /tmp/ccypRU8x.s:4542   .text._ZN3r2p10SubscriberINS_12ProximityMsgELj5EED2Ev:0000002c $d
     /tmp/ccypRU8x.s:4549   .text._ZN3r2p10SubscriberINS_12ProximityMsgELj5EED0Ev:00000000 $t
     /tmp/ccypRU8x.s:4582   .text._ZN3r2p10SubscriberINS_7PixyMsgELj5EED2Ev:00000000 $t
     /tmp/ccypRU8x.s:4588   .text._ZN3r2p10SubscriberINS_7PixyMsgELj5EED2Ev:00000000 _ZN3r2p10SubscriberINS_7PixyMsgELj5EED2Ev
     /tmp/ccypRU8x.s:4626   .text._ZN3r2p10SubscriberINS_7PixyMsgELj5EED2Ev:0000002c $d
     /tmp/ccypRU8x.s:4633   .text._ZN3r2p10SubscriberINS_7PixyMsgELj5EED0Ev:00000000 $t
     /tmp/ccypRU8x.s:4666   .text._ZN3r2p9PublisherINS_9PIDCfgMsgEED2Ev:00000000 $t
     /tmp/ccypRU8x.s:4672   .text._ZN3r2p9PublisherINS_9PIDCfgMsgEED2Ev:00000000 _ZN3r2p9PublisherINS_9PIDCfgMsgEED2Ev
     /tmp/ccypRU8x.s:4710   .text._ZN3r2p9PublisherINS_9PIDCfgMsgEED2Ev:0000002c $d
     /tmp/ccypRU8x.s:4717   .text._ZN3r2p9PublisherINS_9PIDCfgMsgEED0Ev:00000000 $t
     /tmp/ccypRU8x.s:4750   .text._ZN3r2p9PublisherINS_9Speed3MsgEED2Ev:00000000 $t
     /tmp/ccypRU8x.s:4756   .text._ZN3r2p9PublisherINS_9Speed3MsgEED2Ev:00000000 _ZN3r2p9PublisherINS_9Speed3MsgEED2Ev
     /tmp/ccypRU8x.s:4794   .text._ZN3r2p9PublisherINS_9Speed3MsgEED2Ev:0000002c $d
     /tmp/ccypRU8x.s:4801   .text._ZN3r2p9PublisherINS_9Speed3MsgEED0Ev:00000000 $t
     /tmp/ccypRU8x.s:4834   .text._GLOBAL__sub_I_vel_node:00000000 $t
     /tmp/ccypRU8x.s:4839   .text._GLOBAL__sub_I_vel_node:00000000 _GLOBAL__sub_I_vel_node
     /tmp/ccypRU8x.s:4858   .init_array:00000000 $d
                     .debug_frame:00000010 $d
     /tmp/ccypRU8x.s:536    .text._ZN3r2p7Thread_4selfEv:0000000c $t
     /tmp/ccypRU8x.s:607    .text._ZN3r2p7Thread_5sleepERKNS_4TimeE:00000064 $t
     /tmp/ccypRU8x.s:780    .text._ZN3r2p10SpinEvent_13signal_unsafeEj:0000003c $t
     /tmp/ccypRU8x.s:1650   .text._ZL7cmd_runP20BaseSequentialStreamiPPc:00000238 $t
     /tmp/ccypRU8x.s:2168   .text._ZL10cmd_followP20BaseSequentialStreamiPPc:000003cc $t
     /tmp/ccypRU8x.s:2336   .text._ZL13cmd_proximityP20BaseSequentialStreamiPPc:000000e4 $t
     /tmp/ccypRU8x.s:2635   .text._ZL8cmd_stopP20BaseSequentialStreamiPPc:0000009c $t
     /tmp/ccypRU8x.s:2833   .text._ZL10cmd_pidcfgP20BaseSequentialStreamiPPc:000000dc $t
     /tmp/ccypRU8x.s:3222   .text._ZN3r2p9PublisherINS_9Speed3MsgEEC2Ev:00000024 $t
     /tmp/ccypRU8x.s:3266   .text._ZN3r2p9PublisherINS_9PIDCfgMsgEEC2Ev:00000024 $t
     /tmp/ccypRU8x.s:3371   .text._ZN3r2p10SubscriberINS_7PixyMsgELj5EEC2EPFbRKS1_E:00000048 $t
     /tmp/ccypRU8x.s:3475   .text._ZN3r2p10SubscriberINS_12ProximityMsgELj5EEC2EPFbRKS1_E:00000048 $t
     /tmp/ccypRU8x.s:4456   .text._Z41__static_initialization_and_destruction_0ii:000000fc $t
                           .group:00000000 _ZN3r2p7MessageC5Ev
                           .group:00000000 _ZN3r2p4TimeC5IlEET_
                           .group:00000000 _ZN3r2p9PublisherINS_9Speed3MsgEEC5Ev
                           .group:00000000 _ZN3r2p9PublisherINS_9PIDCfgMsgEEC5Ev
                           .group:00000000 _ZN3r2p7PixyMsgC5Ev
                           .group:00000000 _ZN3r2p10SubscriberINS_7PixyMsgELj5EEC5EPFbRKS1_E
                           .group:00000000 _ZN3r2p12ProximityMsgC5Ev
                           .group:00000000 _ZN3r2p10SubscriberINS_12ProximityMsgELj5EEC5EPFbRKS1_E
                           .group:00000000 _ZN3r2p16SubscriberExtBufINS_7PixyMsgEEC5EPPS1_jPFbRKS1_E
                           .group:00000000 _ZN3r2p16SubscriberExtBufINS_7PixyMsgEED5Ev
                           .group:00000000 _ZN3r2p16SubscriberExtBufINS_12ProximityMsgEEC5EPPS1_jPFbRKS1_E
                           .group:00000000 _ZN3r2p16SubscriberExtBufINS_12ProximityMsgEED5Ev
                           .group:00000000 _ZN3r2p10SubscriberINS_12ProximityMsgELj5EED5Ev
                           .group:00000000 _ZN3r2p10SubscriberINS_7PixyMsgELj5EED5Ev
                           .group:00000000 _ZN3r2p9PublisherINS_9PIDCfgMsgEED5Ev
                           .group:00000000 _ZN3r2p9PublisherINS_9Speed3MsgEED5Ev

UNDEFINED SYMBOLS
chvprintf
dbg_check_lock
dbg_check_unlock
chPoolAllocI
chDbgPanic
ARM GAS  /tmp/ccypRU8x.s 			page 441


rlist
chThdSleep
chThdYield
chEvtSignalI
_ZN3r2p4Time3nowEv
_pal_lld_setgroupmode
__aeabi_d2f
__aeabi_f2d
atof
_ZN3r2p4Time8INFINITEE
_ZN3r2p4NodeC1EPKcb
sduObjectInit
sduStart
usbStart
shellInit
shellCreate
chThdRelease
SDU1
serusbcfg
usbcfg
_ZN3r2p14LocalPublisherC2Ev
_ZN3r2p4Node9advertiseERNS_14LocalPublisherEPKcRKNS_4TimeEj
_ZN3r2p13BasePublisher7publishERNS_7MessageE
_ZN3r2p4Node9subscribeERNS_15LocalSubscriberEPKcPNS_7MessageEj
_ZN3r2p15LocalSubscriber5fetchERPNS_7MessageE
_ZN3r2p14BaseSubscriber7releaseERNS_7MessageE
_ZN3r2p15LocalSubscriberC2EPPNS_7MessageEjPFbRKS1_E
_ZN3r2p15LocalSubscriberD2Ev
_ZdlPv
_ZN3r2p15LocalSubscriber6notifyERNS_7MessageERKNS_4TimeE
_ZN3r2p15LocalSubscriber5fetchERPNS_7MessageERNS_4TimeE
__aeabi_atexit
_ZN3r2p4NodeD1Ev
__dso_handle
_ZN3r2p14LocalPublisherD2Ev
