ARM GAS  /tmp/ccToPPKQ.s 			page 1


   1              		.syntax unified
   2              		.cpu cortex-m4
   3              		.eabi_attribute 27, 3
   4              		.eabi_attribute 28, 1
   5              		.fpu fpv4-sp-d16
   6              		.eabi_attribute 20, 1
   7              		.eabi_attribute 21, 1
   8              		.eabi_attribute 23, 3
   9              		.eabi_attribute 24, 1
  10              		.eabi_attribute 25, 1
  11              		.eabi_attribute 26, 1
  12              		.eabi_attribute 30, 6
  13              		.eabi_attribute 34, 1
  14              		.eabi_attribute 18, 4
  15              		.thumb
  16              		.file	"shell.c"
  17              		.text
  18              	.Ltext0:
  19              		.cfi_sections	.debug_frame
  20              		.section	.text.chprintf,"ax",%progbits
  21              		.align	2
  22              		.p2align 4,,15
  23              		.thumb
  24              		.thumb_func
  25              		.type	chprintf, %function
  26              	chprintf:
  27              	.LFB118:
  28              		.file 1 "/home/denny/r2p-sdk/core/ChibiOS/os/various/chprintf.h"
  29              		.loc 1 69 0
  30              		.cfi_startproc
  31              		@ args = 4, pretend = 12, frame = 16
  32              		@ frame_needed = 0, uses_anonymous_args = 1
  33 0000 0EB4     		push	{r1, r2, r3}
  34              		.cfi_def_cfa_offset 12
  35              		.cfi_offset 1, -12
  36              		.cfi_offset 2, -8
  37              		.cfi_offset 3, -4
  38 0002 00B5     		push	{lr}
  39              		.cfi_def_cfa_offset 16
  40              		.cfi_offset 14, -16
  41 0004 84B0     		sub	sp, sp, #16
  42              		.cfi_def_cfa_offset 32
  43 0006 0190     		str	r0, [sp, #4]
  44              		.loc 1 72 0
  45 0008 06AB     		add	r3, sp, #24
  46 000a 0393     		str	r3, [sp, #12]
  47              		.loc 1 73 0
  48 000c 0198     		ldr	r0, [sp, #4]
  49 000e 0599     		ldr	r1, [sp, #20]
  50 0010 039A     		ldr	r2, [sp, #12]
  51 0012 FFF7FEFF 		bl	chvprintf
  52              		.loc 1 75 0
  53 0016 04B0     		add	sp, sp, #16
  54              		.cfi_def_cfa_offset 16
  55              		@ sp needed
  56 0018 5DF804EB 		ldr	lr, [sp], #4
  57              		.cfi_restore 14
ARM GAS  /tmp/ccToPPKQ.s 			page 2


  58              		.cfi_def_cfa_offset 12
  59 001c 03B0     		add	sp, sp, #12
  60              		.cfi_restore 3
  61              		.cfi_restore 2
  62              		.cfi_restore 1
  63              		.cfi_def_cfa_offset 0
  64 001e 7047     		bx	lr
  65              		.cfi_endproc
  66              	.LFE118:
  67              		.size	chprintf, .-chprintf
  68              		.global	shell_terminated
  69              		.section	.bss.shell_terminated,"aw",%nobits
  70              		.align	2
  71              		.type	shell_terminated, %object
  72              		.size	shell_terminated, 4
  73              	shell_terminated:
  74 0000 00000000 		.space	4
  75              		.section	.text._strtok,"ax",%progbits
  76              		.align	2
  77              		.p2align 4,,15
  78              		.thumb
  79              		.thumb_func
  80              		.type	_strtok, %function
  81              	_strtok:
  82              	.LFB119:
  83              		.file 2 "/home/denny/r2p-sdk/core/ChibiOS/os/various/shell.c"
  84              		.loc 2 37 0
  85              		.cfi_startproc
  86              		@ args = 0, pretend = 0, frame = 24
  87              		@ frame_needed = 0, uses_anonymous_args = 0
  88 0000 00B5     		push	{lr}
  89              		.cfi_def_cfa_offset 4
  90              		.cfi_offset 14, -4
  91 0002 87B0     		sub	sp, sp, #28
  92              		.cfi_def_cfa_offset 32
  93 0004 0390     		str	r0, [sp, #12]
  94 0006 0291     		str	r1, [sp, #8]
  95 0008 0192     		str	r2, [sp, #4]
  96              		.loc 2 39 0
  97 000a 039B     		ldr	r3, [sp, #12]
  98 000c 002B     		cmp	r3, #0
  99 000e 02D0     		beq	.L3
 100              		.loc 2 40 0
 101 0010 019B     		ldr	r3, [sp, #4]
 102 0012 039A     		ldr	r2, [sp, #12]
 103 0014 1A60     		str	r2, [r3]
 104              	.L3:
 105              		.loc 2 41 0
 106 0016 019B     		ldr	r3, [sp, #4]
 107 0018 1B68     		ldr	r3, [r3]
 108 001a 0593     		str	r3, [sp, #20]
 109              		.loc 2 43 0
 110 001c 059B     		ldr	r3, [sp, #20]
 111 001e 002B     		cmp	r3, #0
 112 0020 01D1     		bne	.L4
 113              		.loc 2 44 0
 114 0022 0023     		movs	r3, #0
ARM GAS  /tmp/ccToPPKQ.s 			page 3


 115 0024 21E0     		b	.L5
 116              	.L4:
 117              		.loc 2 46 0
 118 0026 0598     		ldr	r0, [sp, #20]
 119 0028 0299     		ldr	r1, [sp, #8]
 120 002a FFF7FEFF 		bl	strspn
 121 002e 0246     		mov	r2, r0
 122 0030 059B     		ldr	r3, [sp, #20]
 123 0032 1344     		add	r3, r3, r2
 124 0034 0593     		str	r3, [sp, #20]
 125              		.loc 2 47 0
 126 0036 0598     		ldr	r0, [sp, #20]
 127 0038 0299     		ldr	r1, [sp, #8]
 128 003a FFF7FEFF 		bl	strpbrk
 129 003e 0246     		mov	r2, r0
 130 0040 019B     		ldr	r3, [sp, #4]
 131 0042 1A60     		str	r2, [r3]
 132              		.loc 2 48 0
 133 0044 019B     		ldr	r3, [sp, #4]
 134 0046 1B68     		ldr	r3, [r3]
 135 0048 002B     		cmp	r3, #0
 136 004a 06D0     		beq	.L6
 137              		.loc 2 49 0
 138 004c 019B     		ldr	r3, [sp, #4]
 139 004e 1B68     		ldr	r3, [r3]
 140 0050 591C     		adds	r1, r3, #1
 141 0052 019A     		ldr	r2, [sp, #4]
 142 0054 1160     		str	r1, [r2]
 143 0056 0022     		movs	r2, #0
 144 0058 1A70     		strb	r2, [r3]
 145              	.L6:
 146              		.loc 2 51 0
 147 005a 059B     		ldr	r3, [sp, #20]
 148 005c 1B78     		ldrb	r3, [r3]	@ zero_extendqisi2
 149 005e 002B     		cmp	r3, #0
 150 0060 01D0     		beq	.L7
 151              		.loc 2 51 0 is_stmt 0 discriminator 1
 152 0062 059B     		ldr	r3, [sp, #20]
 153 0064 00E0     		b	.L9
 154              	.L7:
 155              		.loc 2 51 0 discriminator 2
 156 0066 0023     		movs	r3, #0
 157              	.L9:
 158              		.loc 2 51 0
 159 0068 00BF     		nop
 160              	.L5:
 161              		.loc 2 52 0 is_stmt 1
 162 006a 1846     		mov	r0, r3
 163 006c 07B0     		add	sp, sp, #28
 164              		.cfi_def_cfa_offset 4
 165              		@ sp needed
 166 006e 5DF804FB 		ldr	pc, [sp], #4
 167              		.cfi_endproc
 168              	.LFE119:
 169              		.size	_strtok, .-_strtok
 170 0072 00BFAFF3 		.section	.rodata
 170      0080AFF3 
ARM GAS  /tmp/ccToPPKQ.s 			page 4


 170      0080AFF3 
 170      0080
 171              		.align	2
 172              	.LC0:
 173 0000 55736167 		.ascii	"Usage: %s\015\012\000"
 173      653A2025 
 173      730D0A00 
 174              		.section	.text.usage,"ax",%progbits
 175              		.align	2
 176              		.p2align 4,,15
 177              		.thumb
 178              		.thumb_func
 179              		.type	usage, %function
 180              	usage:
 181              	.LFB120:
 182              		.loc 2 54 0
 183              		.cfi_startproc
 184              		@ args = 0, pretend = 0, frame = 8
 185              		@ frame_needed = 0, uses_anonymous_args = 0
 186 0000 00B5     		push	{lr}
 187              		.cfi_def_cfa_offset 4
 188              		.cfi_offset 14, -4
 189 0002 83B0     		sub	sp, sp, #12
 190              		.cfi_def_cfa_offset 16
 191 0004 0190     		str	r0, [sp, #4]
 192 0006 0091     		str	r1, [sp]
 193              		.loc 2 56 0
 194 0008 0198     		ldr	r0, [sp, #4]
 195 000a 0349     		ldr	r1, .L11
 196 000c 009A     		ldr	r2, [sp]
 197 000e FFF7FEFF 		bl	chprintf
 198              		.loc 2 57 0
 199 0012 03B0     		add	sp, sp, #12
 200              		.cfi_def_cfa_offset 4
 201              		@ sp needed
 202 0014 5DF804FB 		ldr	pc, [sp], #4
 203              	.L12:
 204              		.align	2
 205              	.L11:
 206 0018 00000000 		.word	.LC0
 207              		.cfi_endproc
 208              	.LFE120:
 209              		.size	usage, .-usage
 210 001c AFF30080 		.section	.rodata
 211              		.align	2
 212              	.LC1:
 213 000c 25732000 		.ascii	"%s \000"
 214              		.section	.text.list_commands,"ax",%progbits
 215              		.align	2
 216              		.p2align 4,,15
 217              		.thumb
 218              		.thumb_func
 219              		.type	list_commands, %function
 220              	list_commands:
 221              	.LFB121:
 222              		.loc 2 59 0
 223              		.cfi_startproc
ARM GAS  /tmp/ccToPPKQ.s 			page 5


 224              		@ args = 0, pretend = 0, frame = 8
 225              		@ frame_needed = 0, uses_anonymous_args = 0
 226 0000 00B5     		push	{lr}
 227              		.cfi_def_cfa_offset 4
 228              		.cfi_offset 14, -4
 229 0002 83B0     		sub	sp, sp, #12
 230              		.cfi_def_cfa_offset 16
 231 0004 0190     		str	r0, [sp, #4]
 232 0006 0091     		str	r1, [sp]
 233              		.loc 2 61 0
 234 0008 09E0     		b	.L14
 235              	.L15:
 236              		.loc 2 62 0
 237 000a 009B     		ldr	r3, [sp]
 238 000c 1B68     		ldr	r3, [r3]
 239 000e 0198     		ldr	r0, [sp, #4]
 240 0010 0649     		ldr	r1, .L16
 241 0012 1A46     		mov	r2, r3
 242 0014 FFF7FEFF 		bl	chprintf
 243              		.loc 2 63 0
 244 0018 009B     		ldr	r3, [sp]
 245 001a 0833     		adds	r3, r3, #8
 246 001c 0093     		str	r3, [sp]
 247              	.L14:
 248              		.loc 2 61 0
 249 001e 009B     		ldr	r3, [sp]
 250 0020 1B68     		ldr	r3, [r3]
 251 0022 002B     		cmp	r3, #0
 252 0024 F1D1     		bne	.L15
 253              		.loc 2 65 0
 254 0026 03B0     		add	sp, sp, #12
 255              		.cfi_def_cfa_offset 4
 256              		@ sp needed
 257 0028 5DF804FB 		ldr	pc, [sp], #4
 258              	.L17:
 259              		.align	2
 260              	.L16:
 261 002c 0C000000 		.word	.LC1
 262              		.cfi_endproc
 263              	.LFE121:
 264              		.size	list_commands, .-list_commands
 265              		.section	.rodata
 266              		.align	2
 267              	.LC2:
 268 0010 696E666F 		.ascii	"info\000"
 268      00
 269 0015 000000   		.align	2
 270              	.LC3:
 271 0018 4B65726E 		.ascii	"Kernel:       %s\015\012\000"
 271      656C3A20 
 271      20202020 
 271      20202573 
 271      0D0A00
 272 002b 00       		.align	2
 273              	.LC4:
 274 002c 322E362E 		.ascii	"2.6.5\000"
 274      3500
ARM GAS  /tmp/ccToPPKQ.s 			page 6


 275 0032 0000     		.align	2
 276              	.LC5:
 277 0034 436F6D70 		.ascii	"Compiler:     %s\015\012\000"
 277      696C6572 
 277      3A202020 
 277      20202573 
 277      0D0A00
 278 0047 00       		.align	2
 279              	.LC6:
 280 0048 47434320 		.ascii	"GCC 4.9.3 20141119 (release) [ARM/embedded-4_9-bran"
 280      342E392E 
 280      33203230 
 280      31343131 
 280      31392028 
 281 007b 63682072 		.ascii	"ch revision 218278]\000"
 281      65766973 
 281      696F6E20 
 281      32313832 
 281      37385D00 
 282 008f 00       		.align	2
 283              	.LC7:
 284 0090 41726368 		.ascii	"Architecture: %s\015\012\000"
 284      69746563 
 284      74757265 
 284      3A202573 
 284      0D0A00
 285 00a3 00       		.align	2
 286              	.LC8:
 287 00a4 41524D76 		.ascii	"ARMv7-ME\000"
 287      372D4D45 
 287      00
 288 00ad 000000   		.align	2
 289              	.LC9:
 290 00b0 436F7265 		.ascii	"Core Variant: %s\015\012\000"
 290      20566172 
 290      69616E74 
 290      3A202573 
 290      0D0A00
 291 00c3 00       		.align	2
 292              	.LC10:
 293 00c4 436F7274 		.ascii	"Cortex-M4F\000"
 293      65782D4D 
 293      344600
 294 00cf 00       		.align	2
 295              	.LC11:
 296 00d0 506F7274 		.ascii	"Port Info:    %s\015\012\000"
 296      20496E66 
 296      6F3A2020 
 296      20202573 
 296      0D0A00
 297 00e3 00       		.align	2
 298              	.LC12:
 299 00e4 41647661 		.ascii	"Advanced kernel mode\000"
 299      6E636564 
 299      206B6572 
 299      6E656C20 
 299      6D6F6465 
ARM GAS  /tmp/ccToPPKQ.s 			page 7


 300 00f9 000000   		.align	2
 301              	.LC13:
 302 00fc 506C6174 		.ascii	"Platform:     %s\015\012\000"
 302      666F726D 
 302      3A202020 
 302      20202573 
 302      0D0A00
 303 010f 00       		.align	2
 304              	.LC14:
 305 0110 53544D33 		.ascii	"STM32F30x Analog & DSP\000"
 305      32463330 
 305      7820416E 
 305      616C6F67 
 305      20262044 
 306 0127 00       		.align	2
 307              	.LC15:
 308 0128 426F6172 		.ascii	"Board:        %s\015\012\000"
 308      643A2020 
 308      20202020 
 308      20202573 
 308      0D0A00
 309 013b 00       		.align	2
 310              	.LC16:
 311 013c 52325020 		.ascii	"R2P USB module\000"
 311      55534220 
 311      6D6F6475 
 311      6C6500
 312 014b 00       		.align	2
 313              	.LC17:
 314 014c 4275696C 		.ascii	"Build time:   %s%s%s\015\012\000"
 314      64207469 
 314      6D653A20 
 314      20202573 
 314      25732573 
 315 0163 00       		.align	2
 316              	.LC18:
 317 0164 4A756E20 		.ascii	"Jun 19 2015\000"
 317      31392032 
 317      30313500 
 318              		.align	2
 319              	.LC19:
 320 0170 202D2000 		.ascii	" - \000"
 321              		.align	2
 322              	.LC20:
 323 0174 31333A31 		.ascii	"13:10:35\000"
 323      303A3335 
 323      00
 324              		.section	.text.cmd_info,"ax",%progbits
 325              		.align	2
 326              		.p2align 4,,15
 327              		.thumb
 328              		.thumb_func
 329              		.type	cmd_info, %function
 330              	cmd_info:
 331              	.LFB122:
 332              		.loc 2 67 0
 333              		.cfi_startproc
ARM GAS  /tmp/ccToPPKQ.s 			page 8


 334              		@ args = 0, pretend = 0, frame = 16
 335              		@ frame_needed = 0, uses_anonymous_args = 0
 336 0000 00B5     		push	{lr}
 337              		.cfi_def_cfa_offset 4
 338              		.cfi_offset 14, -4
 339 0002 87B0     		sub	sp, sp, #28
 340              		.cfi_def_cfa_offset 32
 341 0004 0590     		str	r0, [sp, #20]
 342 0006 0491     		str	r1, [sp, #16]
 343 0008 0392     		str	r2, [sp, #12]
 344              		.loc 2 70 0
 345 000a 049B     		ldr	r3, [sp, #16]
 346 000c 002B     		cmp	r3, #0
 347 000e 04DD     		ble	.L19
 348              		.loc 2 71 0
 349 0010 0598     		ldr	r0, [sp, #20]
 350 0012 1949     		ldr	r1, .L21
 351 0014 FFF7FEFF 		bl	usage
 352              		.loc 2 72 0
 353 0018 2AE0     		b	.L18
 354              	.L19:
 355              		.loc 2 75 0
 356 001a 0598     		ldr	r0, [sp, #20]
 357 001c 1749     		ldr	r1, .L21+4
 358 001e 184A     		ldr	r2, .L21+8
 359 0020 FFF7FEFF 		bl	chprintf
 360              		.loc 2 77 0
 361 0024 0598     		ldr	r0, [sp, #20]
 362 0026 1749     		ldr	r1, .L21+12
 363 0028 174A     		ldr	r2, .L21+16
 364 002a FFF7FEFF 		bl	chprintf
 365              		.loc 2 79 0
 366 002e 0598     		ldr	r0, [sp, #20]
 367 0030 1649     		ldr	r1, .L21+20
 368 0032 174A     		ldr	r2, .L21+24
 369 0034 FFF7FEFF 		bl	chprintf
 370              		.loc 2 81 0
 371 0038 0598     		ldr	r0, [sp, #20]
 372 003a 1649     		ldr	r1, .L21+28
 373 003c 164A     		ldr	r2, .L21+32
 374 003e FFF7FEFF 		bl	chprintf
 375              		.loc 2 84 0
 376 0042 0598     		ldr	r0, [sp, #20]
 377 0044 1549     		ldr	r1, .L21+36
 378 0046 164A     		ldr	r2, .L21+40
 379 0048 FFF7FEFF 		bl	chprintf
 380              		.loc 2 87 0
 381 004c 0598     		ldr	r0, [sp, #20]
 382 004e 1549     		ldr	r1, .L21+44
 383 0050 154A     		ldr	r2, .L21+48
 384 0052 FFF7FEFF 		bl	chprintf
 385              		.loc 2 90 0
 386 0056 0598     		ldr	r0, [sp, #20]
 387 0058 1449     		ldr	r1, .L21+52
 388 005a 154A     		ldr	r2, .L21+56
 389 005c FFF7FEFF 		bl	chprintf
 390              		.loc 2 94 0
ARM GAS  /tmp/ccToPPKQ.s 			page 9


 391 0060 144B     		ldr	r3, .L21+60
 392 0062 0093     		str	r3, [sp]
 393 0064 0598     		ldr	r0, [sp, #20]
 394 0066 1449     		ldr	r1, .L21+64
 395 0068 144A     		ldr	r2, .L21+68
 396 006a 154B     		ldr	r3, .L21+72
 397 006c FFF7FEFF 		bl	chprintf
 398              	.L18:
 399              		.loc 2 97 0
 400 0070 07B0     		add	sp, sp, #28
 401              		.cfi_def_cfa_offset 4
 402              		@ sp needed
 403 0072 5DF804FB 		ldr	pc, [sp], #4
 404              	.L22:
 405 0076 00BF     		.align	2
 406              	.L21:
 407 0078 10000000 		.word	.LC2
 408 007c 18000000 		.word	.LC3
 409 0080 2C000000 		.word	.LC4
 410 0084 34000000 		.word	.LC5
 411 0088 48000000 		.word	.LC6
 412 008c 90000000 		.word	.LC7
 413 0090 A4000000 		.word	.LC8
 414 0094 B0000000 		.word	.LC9
 415 0098 C4000000 		.word	.LC10
 416 009c D0000000 		.word	.LC11
 417 00a0 E4000000 		.word	.LC12
 418 00a4 FC000000 		.word	.LC13
 419 00a8 10010000 		.word	.LC14
 420 00ac 28010000 		.word	.LC15
 421 00b0 3C010000 		.word	.LC16
 422 00b4 74010000 		.word	.LC20
 423 00b8 4C010000 		.word	.LC17
 424 00bc 64010000 		.word	.LC18
 425 00c0 70010000 		.word	.LC19
 426              		.cfi_endproc
 427              	.LFE122:
 428              		.size	cmd_info, .-cmd_info
 429 00c4 AFF30080 		.section	.rodata
 429      AFF30080 
 429      AFF30080 
 430 017d 000000   		.align	2
 431              	.LC21:
 432 0180 73797374 		.ascii	"systime\000"
 432      696D6500 
 433              		.align	2
 434              	.LC22:
 435 0188 256C750D 		.ascii	"%lu\015\012\000"
 435      0A00
 436              		.section	.text.cmd_systime,"ax",%progbits
 437              		.align	2
 438              		.p2align 4,,15
 439              		.thumb
 440              		.thumb_func
 441              		.type	cmd_systime, %function
 442              	cmd_systime:
 443              	.LFB123:
ARM GAS  /tmp/ccToPPKQ.s 			page 10


 444              		.loc 2 99 0
 445              		.cfi_startproc
 446              		@ args = 0, pretend = 0, frame = 16
 447              		@ frame_needed = 0, uses_anonymous_args = 0
 448 0000 00B5     		push	{lr}
 449              		.cfi_def_cfa_offset 4
 450              		.cfi_offset 14, -4
 451 0002 85B0     		sub	sp, sp, #20
 452              		.cfi_def_cfa_offset 24
 453 0004 0390     		str	r0, [sp, #12]
 454 0006 0291     		str	r1, [sp, #8]
 455 0008 0192     		str	r2, [sp, #4]
 456              		.loc 2 102 0
 457 000a 029B     		ldr	r3, [sp, #8]
 458 000c 002B     		cmp	r3, #0
 459 000e 04DD     		ble	.L24
 460              		.loc 2 103 0
 461 0010 0398     		ldr	r0, [sp, #12]
 462 0012 0749     		ldr	r1, .L26
 463 0014 FFF7FEFF 		bl	usage
 464              		.loc 2 104 0
 465 0018 06E0     		b	.L23
 466              	.L24:
 467              		.loc 2 106 0
 468 001a 064B     		ldr	r3, .L26+4
 469 001c DB68     		ldr	r3, [r3, #12]
 470 001e 0398     		ldr	r0, [sp, #12]
 471 0020 0549     		ldr	r1, .L26+8
 472 0022 1A46     		mov	r2, r3
 473 0024 FFF7FEFF 		bl	chprintf
 474              	.L23:
 475              		.loc 2 107 0
 476 0028 05B0     		add	sp, sp, #20
 477              		.cfi_def_cfa_offset 4
 478              		@ sp needed
 479 002a 5DF804FB 		ldr	pc, [sp], #4
 480              	.L27:
 481 002e 00BF     		.align	2
 482              	.L26:
 483 0030 80010000 		.word	.LC21
 484 0034 00000000 		.word	vtlist
 485 0038 88010000 		.word	.LC22
 486              		.cfi_endproc
 487              	.LFE123:
 488              		.size	cmd_systime, .-cmd_systime
 489 003c AFF30080 		.section	.data.local_commands,"aw",%progbits
 490              		.align	2
 491              		.type	local_commands, %object
 492              		.size	local_commands, 24
 493              	local_commands:
 494 0000 10000000 		.word	.LC2
 495 0004 00000000 		.word	cmd_info
 496 0008 80010000 		.word	.LC21
 497 000c 00000000 		.word	cmd_systime
 498 0010 00000000 		.word	0
 499 0014 00000000 		.word	0
 500              		.section	.text.cmdexec,"ax",%progbits
ARM GAS  /tmp/ccToPPKQ.s 			page 11


 501              		.align	2
 502              		.p2align 4,,15
 503              		.thumb
 504              		.thumb_func
 505              		.type	cmdexec, %function
 506              	cmdexec:
 507              	.LFB124:
 508              		.loc 2 119 0
 509              		.cfi_startproc
 510              		@ args = 4, pretend = 0, frame = 16
 511              		@ frame_needed = 0, uses_anonymous_args = 0
 512 0000 00B5     		push	{lr}
 513              		.cfi_def_cfa_offset 4
 514              		.cfi_offset 14, -4
 515 0002 85B0     		sub	sp, sp, #20
 516              		.cfi_def_cfa_offset 24
 517 0004 0390     		str	r0, [sp, #12]
 518 0006 0291     		str	r1, [sp, #8]
 519 0008 0192     		str	r2, [sp, #4]
 520 000a 0093     		str	r3, [sp]
 521              		.loc 2 121 0
 522 000c 13E0     		b	.L29
 523              	.L32:
 524              		.loc 2 122 0
 525 000e 039B     		ldr	r3, [sp, #12]
 526 0010 1B68     		ldr	r3, [r3]
 527 0012 1846     		mov	r0, r3
 528 0014 0199     		ldr	r1, [sp, #4]
 529 0016 FFF7FEFF 		bl	strcasecmp
 530 001a 0346     		mov	r3, r0
 531 001c 002B     		cmp	r3, #0
 532 001e 07D1     		bne	.L30
 533              		.loc 2 123 0
 534 0020 039B     		ldr	r3, [sp, #12]
 535 0022 5B68     		ldr	r3, [r3, #4]
 536 0024 0298     		ldr	r0, [sp, #8]
 537 0026 0099     		ldr	r1, [sp]
 538 0028 069A     		ldr	r2, [sp, #24]
 539 002a 9847     		blx	r3
 540              		.loc 2 124 0
 541 002c 0023     		movs	r3, #0
 542 002e 07E0     		b	.L31
 543              	.L30:
 544              		.loc 2 126 0
 545 0030 039B     		ldr	r3, [sp, #12]
 546 0032 0833     		adds	r3, r3, #8
 547 0034 0393     		str	r3, [sp, #12]
 548              	.L29:
 549              		.loc 2 121 0
 550 0036 039B     		ldr	r3, [sp, #12]
 551 0038 1B68     		ldr	r3, [r3]
 552 003a 002B     		cmp	r3, #0
 553 003c E7D1     		bne	.L32
 554              		.loc 2 128 0
 555 003e 0123     		movs	r3, #1
 556              	.L31:
 557              		.loc 2 129 0
ARM GAS  /tmp/ccToPPKQ.s 			page 12


 558 0040 1846     		mov	r0, r3
 559 0042 05B0     		add	sp, sp, #20
 560              		.cfi_def_cfa_offset 4
 561              		@ sp needed
 562 0044 5DF804FB 		ldr	pc, [sp], #4
 563              		.cfi_endproc
 564              	.LFE124:
 565              		.size	cmdexec, .-cmdexec
 566 0048 AFF30080 		.section	.rodata
 566      AFF30080 
 567 018e 0000     		.align	2
 568              	.LC23:
 569 0190 7368656C 		.ascii	"shell\000"
 569      6C00
 570 0196 0000     		.align	2
 571              	.LC24:
 572 0198 0D0A4368 		.ascii	"\015\012ChibiOS/RT Shell\015\012\000"
 572      6962694F 
 572      532F5254 
 572      20536865 
 572      6C6C0D0A 
 573 01ad 000000   		.align	2
 574              	.LC25:
 575 01b0 63683E20 		.ascii	"ch> \000"
 575      00
 576 01b5 000000   		.align	2
 577              	.LC26:
 578 01b8 0D0A6C6F 		.ascii	"\015\012logout\000"
 578      676F7574 
 578      00
 579 01c1 000000   		.align	2
 580              	.LC27:
 581 01c4 200900   		.ascii	" \011\000"
 582 01c7 00       		.align	2
 583              	.LC28:
 584 01c8 746F6F20 		.ascii	"too many arguments\015\012\000"
 584      6D616E79 
 584      20617267 
 584      756D656E 
 584      74730D0A 
 585 01dd 000000   		.align	2
 586              	.LC29:
 587 01e0 65786974 		.ascii	"exit\000"
 587      00
 588 01e5 000000   		.align	2
 589              	.LC30:
 590 01e8 68656C70 		.ascii	"help\000"
 590      00
 591 01ed 000000   		.align	2
 592              	.LC31:
 593 01f0 436F6D6D 		.ascii	"Commands: help exit \000"
 593      616E6473 
 593      3A206865 
 593      6C702065 
 593      78697420 
 594 0205 000000   		.align	2
 595              	.LC32:
ARM GAS  /tmp/ccToPPKQ.s 			page 13


 596 0208 0D0A00   		.ascii	"\015\012\000"
 597 020b 00       		.align	2
 598              	.LC33:
 599 020c 257300   		.ascii	"%s\000"
 600 020f 00       		.align	2
 601              	.LC34:
 602 0210 203F0D0A 		.ascii	" ?\015\012\000"
 602      00
 603              		.section	.text.shell_thread,"ax",%progbits
 604              		.align	2
 605              		.p2align 4,,15
 606              		.thumb
 607              		.thumb_func
 608              		.type	shell_thread, %function
 609              	shell_thread:
 610              	.LFB125:
 611              		.loc 2 141 0
 612              		.cfi_startproc
 613              		@ args = 0, pretend = 0, frame = 120
 614              		@ frame_needed = 0, uses_anonymous_args = 0
 615 0000 00B5     		push	{lr}
 616              		.cfi_def_cfa_offset 4
 617              		.cfi_offset 14, -4
 618 0002 A1B0     		sub	sp, sp, #132
 619              		.cfi_def_cfa_offset 136
 620 0004 0390     		str	r0, [sp, #12]
 621              		.loc 2 143 0
 622 0006 039B     		ldr	r3, [sp, #12]
 623 0008 1B68     		ldr	r3, [r3]
 624 000a 1D93     		str	r3, [sp, #116]
 625              		.loc 2 144 0
 626 000c 039B     		ldr	r3, [sp, #12]
 627 000e 5B68     		ldr	r3, [r3, #4]
 628 0010 1C93     		str	r3, [sp, #112]
 629              		.loc 2 148 0
 630 0012 564B     		ldr	r3, .L49
 631 0014 9B69     		ldr	r3, [r3, #24]
 632 0016 564A     		ldr	r2, .L49+4
 633 0018 9A61     		str	r2, [r3, #24]
 634              		.loc 2 149 0
 635 001a 1D98     		ldr	r0, [sp, #116]
 636 001c 5549     		ldr	r1, .L49+8
 637 001e FFF7FEFF 		bl	chprintf
 638              	.L47:
 639              		.loc 2 151 0
 640 0022 1D98     		ldr	r0, [sp, #116]
 641 0024 5449     		ldr	r1, .L49+12
 642 0026 FFF7FEFF 		bl	chprintf
 643              		.loc 2 152 0
 644 002a 0AAB     		add	r3, sp, #40
 645 002c 1D98     		ldr	r0, [sp, #116]
 646 002e 1946     		mov	r1, r3
 647 0030 4022     		movs	r2, #64
 648 0032 FFF7FEFF 		bl	shellGetLine
 649 0036 0346     		mov	r3, r0
 650 0038 002B     		cmp	r3, #0
 651 003a 04D0     		beq	.L34
ARM GAS  /tmp/ccToPPKQ.s 			page 14


 652              		.loc 2 153 0
 653 003c 1D98     		ldr	r0, [sp, #116]
 654 003e 4F49     		ldr	r1, .L49+16
 655 0040 FFF7FEFF 		bl	chprintf
 656              		.loc 2 154 0
 657 0044 89E0     		b	.L35
 658              	.L34:
 659              		.loc 2 156 0
 660 0046 0AAA     		add	r2, sp, #40
 661 0048 1AAB     		add	r3, sp, #104
 662 004a 1046     		mov	r0, r2
 663 004c 4C49     		ldr	r1, .L49+20
 664 004e 1A46     		mov	r2, r3
 665 0050 FFF7FEFF 		bl	_strtok
 666 0054 1B90     		str	r0, [sp, #108]
 667              		.loc 2 157 0
 668 0056 1B9B     		ldr	r3, [sp, #108]
 669 0058 1E93     		str	r3, [sp, #120]
 670              		.loc 2 158 0
 671 005a 0023     		movs	r3, #0
 672 005c 1F93     		str	r3, [sp, #124]
 673              		.loc 2 159 0
 674 005e 12E0     		b	.L36
 675              	.L39:
 676              		.loc 2 160 0
 677 0060 1F9B     		ldr	r3, [sp, #124]
 678 0062 032B     		cmp	r3, #3
 679 0064 06DD     		ble	.L37
 680              		.loc 2 161 0
 681 0066 1D98     		ldr	r0, [sp, #116]
 682 0068 4649     		ldr	r1, .L49+24
 683 006a FFF7FEFF 		bl	chprintf
 684              		.loc 2 162 0
 685 006e 0023     		movs	r3, #0
 686 0070 1E93     		str	r3, [sp, #120]
 687              		.loc 2 163 0
 688 0072 12E0     		b	.L38
 689              	.L37:
 690              		.loc 2 165 0
 691 0074 1F9B     		ldr	r3, [sp, #124]
 692 0076 5A1C     		adds	r2, r3, #1
 693 0078 1F92     		str	r2, [sp, #124]
 694 007a 9B00     		lsls	r3, r3, #2
 695 007c 20AA     		add	r2, sp, #128
 696 007e 1344     		add	r3, r3, r2
 697 0080 1B9A     		ldr	r2, [sp, #108]
 698 0082 43F86C2C 		str	r2, [r3, #-108]
 699              	.L36:
 700              		.loc 2 159 0
 701 0086 1AAB     		add	r3, sp, #104
 702 0088 0020     		movs	r0, #0
 703 008a 3D49     		ldr	r1, .L49+20
 704 008c 1A46     		mov	r2, r3
 705 008e FFF7FEFF 		bl	_strtok
 706 0092 1B90     		str	r0, [sp, #108]
 707 0094 1B9B     		ldr	r3, [sp, #108]
 708 0096 002B     		cmp	r3, #0
ARM GAS  /tmp/ccToPPKQ.s 			page 15


 709 0098 E2D1     		bne	.L39
 710              	.L38:
 711              		.loc 2 167 0
 712 009a 1F9B     		ldr	r3, [sp, #124]
 713 009c 9B00     		lsls	r3, r3, #2
 714 009e 20AA     		add	r2, sp, #128
 715 00a0 1344     		add	r3, r3, r2
 716 00a2 0022     		movs	r2, #0
 717 00a4 43F86C2C 		str	r2, [r3, #-108]
 718              		.loc 2 168 0
 719 00a8 1E9B     		ldr	r3, [sp, #120]
 720 00aa 002B     		cmp	r3, #0
 721 00ac 54D0     		beq	.L40
 722              		.loc 2 169 0
 723 00ae 1E98     		ldr	r0, [sp, #120]
 724 00b0 3549     		ldr	r1, .L49+28
 725 00b2 FFF7FEFF 		bl	strcasecmp
 726 00b6 0346     		mov	r3, r0
 727 00b8 002B     		cmp	r3, #0
 728 00ba 08D1     		bne	.L41
 729              		.loc 2 170 0
 730 00bc 1F9B     		ldr	r3, [sp, #124]
 731 00be 002B     		cmp	r3, #0
 732 00c0 04DD     		ble	.L42
 733              		.loc 2 171 0
 734 00c2 1D98     		ldr	r0, [sp, #116]
 735 00c4 3049     		ldr	r1, .L49+28
 736 00c6 FFF7FEFF 		bl	usage
 737              		.loc 2 172 0
 738 00ca 45E0     		b	.L40
 739              	.L42:
 740              		.loc 2 174 0
 741 00cc 45E0     		b	.L35
 742              	.L41:
 743              		.loc 2 176 0
 744 00ce 1E98     		ldr	r0, [sp, #120]
 745 00d0 2E49     		ldr	r1, .L49+32
 746 00d2 FFF7FEFF 		bl	strcasecmp
 747 00d6 0346     		mov	r3, r0
 748 00d8 002B     		cmp	r3, #0
 749 00da 1BD1     		bne	.L43
 750              		.loc 2 177 0
 751 00dc 1F9B     		ldr	r3, [sp, #124]
 752 00de 002B     		cmp	r3, #0
 753 00e0 04DD     		ble	.L44
 754              		.loc 2 178 0
 755 00e2 1D98     		ldr	r0, [sp, #116]
 756 00e4 2949     		ldr	r1, .L49+32
 757 00e6 FFF7FEFF 		bl	usage
 758              		.loc 2 179 0
 759 00ea 35E0     		b	.L40
 760              	.L44:
 761              		.loc 2 181 0
 762 00ec 1D98     		ldr	r0, [sp, #116]
 763 00ee 2849     		ldr	r1, .L49+36
 764 00f0 FFF7FEFF 		bl	chprintf
 765              		.loc 2 182 0
ARM GAS  /tmp/ccToPPKQ.s 			page 16


 766 00f4 1D98     		ldr	r0, [sp, #116]
 767 00f6 2749     		ldr	r1, .L49+40
 768 00f8 FFF7FEFF 		bl	list_commands
 769              		.loc 2 183 0
 770 00fc 1C9B     		ldr	r3, [sp, #112]
 771 00fe 002B     		cmp	r3, #0
 772 0100 03D0     		beq	.L45
 773              		.loc 2 184 0
 774 0102 1D98     		ldr	r0, [sp, #116]
 775 0104 1C99     		ldr	r1, [sp, #112]
 776 0106 FFF7FEFF 		bl	list_commands
 777              	.L45:
 778              		.loc 2 185 0
 779 010a 1D98     		ldr	r0, [sp, #116]
 780 010c 2249     		ldr	r1, .L49+44
 781 010e FFF7FEFF 		bl	chprintf
 782 0112 21E0     		b	.L40
 783              	.L43:
 784              		.loc 2 187 0
 785 0114 05AB     		add	r3, sp, #20
 786 0116 0093     		str	r3, [sp]
 787 0118 1E48     		ldr	r0, .L49+40
 788 011a 1D99     		ldr	r1, [sp, #116]
 789 011c 1E9A     		ldr	r2, [sp, #120]
 790 011e 1F9B     		ldr	r3, [sp, #124]
 791 0120 FFF7FEFF 		bl	cmdexec
 792 0124 0346     		mov	r3, r0
 793 0126 002B     		cmp	r3, #0
 794 0128 16D0     		beq	.L40
 795              		.loc 2 187 0 is_stmt 0 discriminator 1
 796 012a 1C9B     		ldr	r3, [sp, #112]
 797 012c 002B     		cmp	r3, #0
 798 012e 0AD0     		beq	.L46
 799              		.loc 2 188 0 is_stmt 1
 800 0130 05AB     		add	r3, sp, #20
 801 0132 0093     		str	r3, [sp]
 802 0134 1C98     		ldr	r0, [sp, #112]
 803 0136 1D99     		ldr	r1, [sp, #116]
 804 0138 1E9A     		ldr	r2, [sp, #120]
 805 013a 1F9B     		ldr	r3, [sp, #124]
 806 013c FFF7FEFF 		bl	cmdexec
 807 0140 0346     		mov	r3, r0
 808 0142 002B     		cmp	r3, #0
 809 0144 08D0     		beq	.L40
 810              	.L46:
 811              		.loc 2 189 0
 812 0146 1D98     		ldr	r0, [sp, #116]
 813 0148 1449     		ldr	r1, .L49+48
 814 014a 1E9A     		ldr	r2, [sp, #120]
 815 014c FFF7FEFF 		bl	chprintf
 816              		.loc 2 190 0
 817 0150 1D98     		ldr	r0, [sp, #116]
 818 0152 1349     		ldr	r1, .L49+52
 819 0154 FFF7FEFF 		bl	chprintf
 820              	.L40:
 821              		.loc 2 193 0
 822 0158 63E7     		b	.L47
ARM GAS  /tmp/ccToPPKQ.s 			page 17


 823              	.L35:
 824              		.loc 2 194 0
 825 015a 0020     		movs	r0, #0
 826 015c FFF7FEFF 		bl	shellExit
 827              		.loc 2 196 0
 828 0160 0023     		movs	r3, #0
 829              		.loc 2 197 0
 830 0162 1846     		mov	r0, r3
 831 0164 21B0     		add	sp, sp, #132
 832              		.cfi_def_cfa_offset 4
 833              		@ sp needed
 834 0166 5DF804FB 		ldr	pc, [sp], #4
 835              	.L50:
 836 016a 00BF     		.align	2
 837              	.L49:
 838 016c 00000000 		.word	rlist
 839 0170 90010000 		.word	.LC23
 840 0174 98010000 		.word	.LC24
 841 0178 B0010000 		.word	.LC25
 842 017c B8010000 		.word	.LC26
 843 0180 C4010000 		.word	.LC27
 844 0184 C8010000 		.word	.LC28
 845 0188 E0010000 		.word	.LC29
 846 018c E8010000 		.word	.LC30
 847 0190 F0010000 		.word	.LC31
 848 0194 00000000 		.word	local_commands
 849 0198 08020000 		.word	.LC32
 850 019c 0C020000 		.word	.LC33
 851 01a0 10020000 		.word	.LC34
 852              		.cfi_endproc
 853              	.LFE125:
 854              		.size	shell_thread, .-shell_thread
 855 01a4 AFF30080 		.section	.text.shellInit,"ax",%progbits
 855      AFF30080 
 855      AFF30080 
 856              		.align	2
 857              		.p2align 4,,15
 858              		.global	shellInit
 859              		.thumb
 860              		.thumb_func
 861              		.type	shellInit, %function
 862              	shellInit:
 863              	.LFB126:
 864              		.loc 2 204 0
 865              		.cfi_startproc
 866              		@ args = 0, pretend = 0, frame = 0
 867              		@ frame_needed = 0, uses_anonymous_args = 0
 868              		@ link register save eliminated.
 869              		.loc 2 206 0
 870 0000 014B     		ldr	r3, .L52
 871 0002 014A     		ldr	r2, .L52
 872 0004 1A60     		str	r2, [r3]
 873              		.loc 2 207 0
 874 0006 7047     		bx	lr
 875              	.L53:
 876              		.align	2
 877              	.L52:
ARM GAS  /tmp/ccToPPKQ.s 			page 18


 878 0008 00000000 		.word	shell_terminated
 879              		.cfi_endproc
 880              	.LFE126:
 881              		.size	shellInit, .-shellInit
 882 000c AFF30080 		.section	.text.shellExit,"ax",%progbits
 883              		.align	2
 884              		.p2align 4,,15
 885              		.global	shellExit
 886              		.thumb
 887              		.thumb_func
 888              		.type	shellExit, %function
 889              	shellExit:
 890              	.LFB127:
 891              		.loc 2 218 0
 892              		.cfi_startproc
 893              		@ args = 0, pretend = 0, frame = 8
 894              		@ frame_needed = 0, uses_anonymous_args = 0
 895 0000 00B5     		push	{lr}
 896              		.cfi_def_cfa_offset 4
 897              		.cfi_offset 14, -4
 898 0002 83B0     		sub	sp, sp, #12
 899              		.cfi_def_cfa_offset 16
 900 0004 0190     		str	r0, [sp, #4]
 901              	.LBB2:
 902              		.loc 2 222 0
 903 0006 2023     		movs	r3, #32
 904              	@ 222 "/home/denny/r2p-sdk/core/ChibiOS/os/various/shell.c" 1
 905 0008 83F31188 		msr     BASEPRI, r3
 906              	@ 0 "" 2
 907              		.thumb
 908              	.LBE2:
 909 000c FFF7FEFF 		bl	dbg_check_lock
 910              		.loc 2 223 0
 911 0010 0448     		ldr	r0, .L55
 912 0012 0021     		movs	r1, #0
 913 0014 FFF7FEFF 		bl	chEvtBroadcastFlagsI
 914              		.loc 2 224 0
 915 0018 0198     		ldr	r0, [sp, #4]
 916 001a FFF7FEFF 		bl	chThdExitS
 917              		.loc 2 225 0
 918 001e 03B0     		add	sp, sp, #12
 919              		.cfi_def_cfa_offset 4
 920              		@ sp needed
 921 0020 5DF804FB 		ldr	pc, [sp], #4
 922              	.L56:
 923              		.align	2
 924              	.L55:
 925 0024 00000000 		.word	shell_terminated
 926              		.cfi_endproc
 927              	.LFE127:
 928              		.size	shellExit, .-shellExit
 929              		.section	.text.shellCreate,"ax",%progbits
 930              		.align	2
 931              		.p2align 4,,15
 932              		.global	shellCreate
 933              		.thumb
 934              		.thumb_func
ARM GAS  /tmp/ccToPPKQ.s 			page 19


 935              		.type	shellCreate, %function
 936              	shellCreate:
 937              	.LFB128:
 938              		.loc 2 240 0
 939              		.cfi_startproc
 940              		@ args = 0, pretend = 0, frame = 16
 941              		@ frame_needed = 0, uses_anonymous_args = 0
 942 0000 00B5     		push	{lr}
 943              		.cfi_def_cfa_offset 4
 944              		.cfi_offset 14, -4
 945 0002 87B0     		sub	sp, sp, #28
 946              		.cfi_def_cfa_offset 32
 947 0004 0590     		str	r0, [sp, #20]
 948 0006 0491     		str	r1, [sp, #16]
 949 0008 0392     		str	r2, [sp, #12]
 950              		.loc 2 242 0
 951 000a 059B     		ldr	r3, [sp, #20]
 952 000c 0093     		str	r3, [sp]
 953 000e 0020     		movs	r0, #0
 954 0010 0499     		ldr	r1, [sp, #16]
 955 0012 039A     		ldr	r2, [sp, #12]
 956 0014 034B     		ldr	r3, .L59
 957 0016 FFF7FEFF 		bl	chThdCreateFromHeap
 958 001a 0346     		mov	r3, r0
 959              		.loc 2 243 0
 960 001c 1846     		mov	r0, r3
 961 001e 07B0     		add	sp, sp, #28
 962              		.cfi_def_cfa_offset 4
 963              		@ sp needed
 964 0020 5DF804FB 		ldr	pc, [sp], #4
 965              	.L60:
 966              		.align	2
 967              	.L59:
 968 0024 00000000 		.word	shell_thread
 969              		.cfi_endproc
 970              	.LFE128:
 971              		.size	shellCreate, .-shellCreate
 972 0028 AFF30080 		.section	.text.shellCreateStatic,"ax",%progbits
 972      AFF30080 
 973              		.align	2
 974              		.p2align 4,,15
 975              		.global	shellCreateStatic
 976              		.thumb
 977              		.thumb_func
 978              		.type	shellCreateStatic, %function
 979              	shellCreateStatic:
 980              	.LFB129:
 981              		.loc 2 258 0
 982              		.cfi_startproc
 983              		@ args = 0, pretend = 0, frame = 16
 984              		@ frame_needed = 0, uses_anonymous_args = 0
 985 0000 00B5     		push	{lr}
 986              		.cfi_def_cfa_offset 4
 987              		.cfi_offset 14, -4
 988 0002 87B0     		sub	sp, sp, #28
 989              		.cfi_def_cfa_offset 32
 990 0004 0590     		str	r0, [sp, #20]
ARM GAS  /tmp/ccToPPKQ.s 			page 20


 991 0006 0491     		str	r1, [sp, #16]
 992 0008 0392     		str	r2, [sp, #12]
 993 000a 0293     		str	r3, [sp, #8]
 994              		.loc 2 260 0
 995 000c 059B     		ldr	r3, [sp, #20]
 996 000e 0093     		str	r3, [sp]
 997 0010 0498     		ldr	r0, [sp, #16]
 998 0012 0399     		ldr	r1, [sp, #12]
 999 0014 029A     		ldr	r2, [sp, #8]
 1000 0016 044B     		ldr	r3, .L63
 1001 0018 FFF7FEFF 		bl	chThdCreateStatic
 1002 001c 0346     		mov	r3, r0
 1003              		.loc 2 261 0
 1004 001e 1846     		mov	r0, r3
 1005 0020 07B0     		add	sp, sp, #28
 1006              		.cfi_def_cfa_offset 4
 1007              		@ sp needed
 1008 0022 5DF804FB 		ldr	pc, [sp], #4
 1009              	.L64:
 1010 0026 00BF     		.align	2
 1011              	.L63:
 1012 0028 00000000 		.word	shell_thread
 1013              		.cfi_endproc
 1014              	.LFE129:
 1015              		.size	shellCreateStatic, .-shellCreateStatic
 1016 002c AFF30080 		.section	.rodata
 1017 0215 000000   		.align	2
 1018              	.LC35:
 1019 0218 5E4400   		.ascii	"^D\000"
 1020 021b 00       		.section	.text.shellGetLine,"ax",%progbits
 1021              		.align	2
 1022              		.p2align 4,,15
 1023              		.global	shellGetLine
 1024              		.thumb
 1025              		.thumb_func
 1026              		.type	shellGetLine, %function
 1027              	shellGetLine:
 1028              	.LFB130:
 1029              		.loc 2 275 0
 1030              		.cfi_startproc
 1031              		@ args = 0, pretend = 0, frame = 24
 1032              		@ frame_needed = 0, uses_anonymous_args = 0
 1033 0000 00B5     		push	{lr}
 1034              		.cfi_def_cfa_offset 4
 1035              		.cfi_offset 14, -4
 1036 0002 87B0     		sub	sp, sp, #28
 1037              		.cfi_def_cfa_offset 32
 1038 0004 0390     		str	r0, [sp, #12]
 1039 0006 0291     		str	r1, [sp, #8]
 1040 0008 0192     		str	r2, [sp, #4]
 1041              		.loc 2 276 0
 1042 000a 029B     		ldr	r3, [sp, #8]
 1043 000c 0593     		str	r3, [sp, #20]
 1044              	.L77:
 1045              	.LBB3:
 1046              		.loc 2 281 0
 1047 000e 039B     		ldr	r3, [sp, #12]
ARM GAS  /tmp/ccToPPKQ.s 			page 21


 1048 0010 1B68     		ldr	r3, [r3]
 1049 0012 5B68     		ldr	r3, [r3, #4]
 1050 0014 0DF11302 		add	r2, sp, #19
 1051 0018 0398     		ldr	r0, [sp, #12]
 1052 001a 1146     		mov	r1, r2
 1053 001c 0122     		movs	r2, #1
 1054 001e 9847     		blx	r3
 1055 0020 0346     		mov	r3, r0
 1056 0022 002B     		cmp	r3, #0
 1057 0024 01D1     		bne	.L66
 1058              		.loc 2 282 0
 1059 0026 0123     		movs	r3, #1
 1060 0028 54E0     		b	.L76
 1061              	.L66:
 1062              		.loc 2 283 0
 1063 002a 9DF81330 		ldrb	r3, [sp, #19]	@ zero_extendqisi2
 1064 002e 042B     		cmp	r3, #4
 1065 0030 05D1     		bne	.L68
 1066              		.loc 2 284 0
 1067 0032 0398     		ldr	r0, [sp, #12]
 1068 0034 2949     		ldr	r1, .L78
 1069 0036 FFF7FEFF 		bl	chprintf
 1070              		.loc 2 285 0
 1071 003a 0123     		movs	r3, #1
 1072 003c 4AE0     		b	.L76
 1073              	.L68:
 1074              		.loc 2 287 0
 1075 003e 9DF81330 		ldrb	r3, [sp, #19]	@ zero_extendqisi2
 1076 0042 082B     		cmp	r3, #8
 1077 0044 1ED1     		bne	.L69
 1078              		.loc 2 288 0
 1079 0046 059A     		ldr	r2, [sp, #20]
 1080 0048 029B     		ldr	r3, [sp, #8]
 1081 004a 9A42     		cmp	r2, r3
 1082 004c 19D0     		beq	.L70
 1083              		.loc 2 289 0
 1084 004e 039B     		ldr	r3, [sp, #12]
 1085 0050 1B68     		ldr	r3, [r3]
 1086 0052 9B68     		ldr	r3, [r3, #8]
 1087 0054 9DF81320 		ldrb	r2, [sp, #19]	@ zero_extendqisi2
 1088 0058 0398     		ldr	r0, [sp, #12]
 1089 005a 1146     		mov	r1, r2
 1090 005c 9847     		blx	r3
 1091              		.loc 2 290 0
 1092 005e 039B     		ldr	r3, [sp, #12]
 1093 0060 1B68     		ldr	r3, [r3]
 1094 0062 9B68     		ldr	r3, [r3, #8]
 1095 0064 0398     		ldr	r0, [sp, #12]
 1096 0066 2021     		movs	r1, #32
 1097 0068 9847     		blx	r3
 1098              		.loc 2 291 0
 1099 006a 039B     		ldr	r3, [sp, #12]
 1100 006c 1B68     		ldr	r3, [r3]
 1101 006e 9B68     		ldr	r3, [r3, #8]
 1102 0070 9DF81320 		ldrb	r2, [sp, #19]	@ zero_extendqisi2
 1103 0074 0398     		ldr	r0, [sp, #12]
 1104 0076 1146     		mov	r1, r2
ARM GAS  /tmp/ccToPPKQ.s 			page 22


 1105 0078 9847     		blx	r3
 1106              		.loc 2 292 0
 1107 007a 059B     		ldr	r3, [sp, #20]
 1108 007c 013B     		subs	r3, r3, #1
 1109 007e 0593     		str	r3, [sp, #20]
 1110              		.loc 2 294 0
 1111 0080 27E0     		b	.L75
 1112              	.L70:
 1113 0082 26E0     		b	.L75
 1114              	.L69:
 1115              		.loc 2 296 0
 1116 0084 9DF81330 		ldrb	r3, [sp, #19]	@ zero_extendqisi2
 1117 0088 0D2B     		cmp	r3, #13
 1118 008a 08D1     		bne	.L72
 1119              		.loc 2 297 0
 1120 008c 0398     		ldr	r0, [sp, #12]
 1121 008e 1449     		ldr	r1, .L78+4
 1122 0090 FFF7FEFF 		bl	chprintf
 1123              		.loc 2 298 0
 1124 0094 059B     		ldr	r3, [sp, #20]
 1125 0096 0022     		movs	r2, #0
 1126 0098 1A70     		strb	r2, [r3]
 1127              		.loc 2 299 0
 1128 009a 0023     		movs	r3, #0
 1129 009c 1AE0     		b	.L76
 1130              	.L72:
 1131              		.loc 2 301 0
 1132 009e 9DF81330 		ldrb	r3, [sp, #19]	@ zero_extendqisi2
 1133 00a2 1F2B     		cmp	r3, #31
 1134 00a4 00D8     		bhi	.L73
 1135              		.loc 2 302 0
 1136 00a6 14E0     		b	.L75
 1137              	.L73:
 1138              		.loc 2 303 0
 1139 00a8 019B     		ldr	r3, [sp, #4]
 1140 00aa 013B     		subs	r3, r3, #1
 1141 00ac 029A     		ldr	r2, [sp, #8]
 1142 00ae 1A44     		add	r2, r2, r3
 1143 00b0 059B     		ldr	r3, [sp, #20]
 1144 00b2 9A42     		cmp	r2, r3
 1145 00b4 0DD9     		bls	.L75
 1146              		.loc 2 304 0
 1147 00b6 039B     		ldr	r3, [sp, #12]
 1148 00b8 1B68     		ldr	r3, [r3]
 1149 00ba 9B68     		ldr	r3, [r3, #8]
 1150 00bc 9DF81320 		ldrb	r2, [sp, #19]	@ zero_extendqisi2
 1151 00c0 0398     		ldr	r0, [sp, #12]
 1152 00c2 1146     		mov	r1, r2
 1153 00c4 9847     		blx	r3
 1154              		.loc 2 305 0
 1155 00c6 059B     		ldr	r3, [sp, #20]
 1156 00c8 5A1C     		adds	r2, r3, #1
 1157 00ca 0592     		str	r2, [sp, #20]
 1158 00cc 9DF81320 		ldrb	r2, [sp, #19]	@ zero_extendqisi2
 1159 00d0 1A70     		strb	r2, [r3]
 1160              	.L75:
 1161              	.LBE3:
ARM GAS  /tmp/ccToPPKQ.s 			page 23


 1162              		.loc 2 307 0 discriminator 1
 1163 00d2 9CE7     		b	.L77
 1164              	.L76:
 1165              		.loc 2 308 0
 1166 00d4 1846     		mov	r0, r3
 1167 00d6 07B0     		add	sp, sp, #28
 1168              		.cfi_def_cfa_offset 4
 1169              		@ sp needed
 1170 00d8 5DF804FB 		ldr	pc, [sp], #4
 1171              	.L79:
 1172              		.align	2
 1173              	.L78:
 1174 00dc 18020000 		.word	.LC35
 1175 00e0 08020000 		.word	.LC32
 1176              		.cfi_endproc
 1177              	.LFE130:
 1178              		.size	shellGetLine, .-shellGetLine
 1179 00e4 AFF30080 		.text
 1179      AFF30080 
 1179      AFF30080 
 1180              	.Letext0:
 1181              		.file 3 "/home/denny/r2p-sdk/tools/gcc-arm-none-eabi-4_9-2014q4/lib/gcc/arm-none-eabi/4.9.3/includ
 1182              		.file 4 "/home/denny/r2p-sdk/tools/gcc-arm-none-eabi-4_9-2014q4/arm-none-eabi/include/machine/_def
 1183              		.file 5 "/home/denny/r2p-sdk/tools/gcc-arm-none-eabi-4_9-2014q4/arm-none-eabi/include/stdint.h"
 1184              		.file 6 "/home/denny/r2p-sdk/core/ChibiOS/os/ports/GCC/ARMCMx/chtypes.h"
 1185              		.file 7 "/home/denny/r2p-sdk/core/ChibiOS/os/kernel/include/chlists.h"
 1186              		.file 8 "/home/denny/r2p-sdk/core/ChibiOS/os/kernel/include/chthreads.h"
 1187              		.file 9 "/home/denny/r2p-sdk/core/ChibiOS/os/ports/GCC/ARMCMx/chcore_v7m.h"
 1188              		.file 10 "/home/denny/r2p-sdk/core/ChibiOS/os/kernel/include/chvt.h"
 1189              		.file 11 "/home/denny/r2p-sdk/core/ChibiOS/os/kernel/include/chschd.h"
 1190              		.file 12 "/home/denny/r2p-sdk/core/ChibiOS/os/kernel/include/chmtx.h"
 1191              		.file 13 "/home/denny/r2p-sdk/core/ChibiOS/os/kernel/include/chevents.h"
 1192              		.file 14 "/home/denny/r2p-sdk/core/ChibiOS/os/kernel/include/chstreams.h"
 1193              		.file 15 "/home/denny/r2p-sdk/core/ChibiOS/os/various/shell.h"
 1194              		.file 16 "/home/denny/r2p-sdk/tools/gcc-arm-none-eabi-4_9-2014q4/lib/gcc/arm-none-eabi/4.9.3/inclu
 1195              		.file 17 "<built-in>"
 1196              		.file 18 "/home/denny/r2p-sdk/core/ChibiOS/os/ports/common/ARMCMx/CMSIS/include/core_cm4.h"