ARM GAS  /tmp/ccqoeBDi.s 			page 1


   1              		.syntax unified
   2              		.cpu cortex-m4
   3              		.eabi_attribute 27, 3
   4              		.eabi_attribute 28, 1
   5              		.fpu fpv4-sp-d16
   6              		.eabi_attribute 20, 1
   7              		.eabi_attribute 21, 1
   8              		.eabi_attribute 23, 3
   9              		.eabi_attribute 24, 1
  10              		.eabi_attribute 25, 1
  11              		.eabi_attribute 26, 1
  12              		.eabi_attribute 30, 6
  13              		.eabi_attribute 34, 1
  14              		.eabi_attribute 18, 4
  15              		.thumb
  16              		.file	"spi.c"
  17              		.text
  18              	.Ltext0:
  19              		.cfi_sections	.debug_frame
  20              		.section	.text.spiInit,"ax",%progbits
  21              		.align	2
  22              		.p2align 4,,15
  23              		.global	spiInit
  24              		.thumb
  25              		.thumb_func
  26              		.type	spiInit, %function
  27              	spiInit:
  28              	.LFB118:
  29              		.file 1 "/home/denny/r2p-sdk/core/ChibiOS/os/hal/src/spi.c"
  30              		.loc 1 68 0
  31              		.cfi_startproc
  32              		@ args = 0, pretend = 0, frame = 0
  33              		@ frame_needed = 0, uses_anonymous_args = 0
  34 0000 08B5     		push	{r3, lr}
  35              		.cfi_def_cfa_offset 8
  36              		.cfi_offset 3, -8
  37              		.cfi_offset 14, -4
  38              		.loc 1 70 0
  39 0002 FFF7FEFF 		bl	spi_lld_init
  40              		.loc 1 71 0
  41 0006 08BD     		pop	{r3, pc}
  42              		.cfi_endproc
  43              	.LFE118:
  44              		.size	spiInit, .-spiInit
  45 0008 AFF30080 		.section	.text.spiObjectInit,"ax",%progbits
  45      AFF30080 
  46              		.align	2
  47              		.p2align 4,,15
  48              		.global	spiObjectInit
  49              		.thumb
  50              		.thumb_func
  51              		.type	spiObjectInit, %function
  52              	spiObjectInit:
  53              	.LFB119:
  54              		.loc 1 80 0
  55              		.cfi_startproc
  56              		@ args = 0, pretend = 0, frame = 8
ARM GAS  /tmp/ccqoeBDi.s 			page 2


  57              		@ frame_needed = 0, uses_anonymous_args = 0
  58 0000 00B5     		push	{lr}
  59              		.cfi_def_cfa_offset 4
  60              		.cfi_offset 14, -4
  61 0002 83B0     		sub	sp, sp, #12
  62              		.cfi_def_cfa_offset 16
  63 0004 0190     		str	r0, [sp, #4]
  64              		.loc 1 82 0
  65 0006 019B     		ldr	r3, [sp, #4]
  66 0008 0122     		movs	r2, #1
  67 000a 1A70     		strb	r2, [r3]
  68              		.loc 1 83 0
  69 000c 019B     		ldr	r3, [sp, #4]
  70 000e 0022     		movs	r2, #0
  71 0010 5A60     		str	r2, [r3, #4]
  72              		.loc 1 85 0
  73 0012 019B     		ldr	r3, [sp, #4]
  74 0014 0022     		movs	r2, #0
  75 0016 9A60     		str	r2, [r3, #8]
  76              		.loc 1 89 0
  77 0018 019B     		ldr	r3, [sp, #4]
  78 001a 0C33     		adds	r3, r3, #12
  79 001c 1846     		mov	r0, r3
  80 001e FFF7FEFF 		bl	chMtxInit
  81              		.loc 1 97 0
  82 0022 03B0     		add	sp, sp, #12
  83              		.cfi_def_cfa_offset 4
  84              		@ sp needed
  85 0024 5DF804FB 		ldr	pc, [sp], #4
  86              		.cfi_endproc
  87              	.LFE119:
  88              		.size	spiObjectInit, .-spiObjectInit
  89 0028 AFF30080 		.section	.rodata
  89      AFF30080 
  90              		.align	2
  91              	.LC0:
  92 0000 22737069 		.ascii	"\"spiStart\"()\000"
  92      53746172 
  92      74222829 
  92      00
  93 000d 000000   		.align	2
  94              	.LC1:
  95 0010 73706953 		.ascii	"spiStart(), #1\000"
  95      74617274 
  95      28292C20 
  95      233100
  96              		.section	.text.spiStart,"ax",%progbits
  97              		.align	2
  98              		.p2align 4,,15
  99              		.global	spiStart
 100              		.thumb
 101              		.thumb_func
 102              		.type	spiStart, %function
 103              	spiStart:
 104              	.LFB120:
 105              		.loc 1 107 0
 106              		.cfi_startproc
ARM GAS  /tmp/ccqoeBDi.s 			page 3


 107              		@ args = 0, pretend = 0, frame = 8
 108              		@ frame_needed = 0, uses_anonymous_args = 0
 109 0000 00B5     		push	{lr}
 110              		.cfi_def_cfa_offset 4
 111              		.cfi_offset 14, -4
 112 0002 83B0     		sub	sp, sp, #12
 113              		.cfi_def_cfa_offset 16
 114 0004 0190     		str	r0, [sp, #4]
 115 0006 0091     		str	r1, [sp]
 116              		.loc 1 109 0
 117 0008 019B     		ldr	r3, [sp, #4]
 118 000a 002B     		cmp	r3, #0
 119 000c 02D0     		beq	.L4
 120              		.loc 1 109 0 is_stmt 0 discriminator 2
 121 000e 009B     		ldr	r3, [sp]
 122 0010 002B     		cmp	r3, #0
 123 0012 02D1     		bne	.L5
 124              	.L4:
 125              		.loc 1 109 0 discriminator 3
 126 0014 1148     		ldr	r0, .L7
 127 0016 FFF7FEFF 		bl	chDbgPanic
 128              	.L5:
 129              	.LBB2:
 130              		.loc 1 111 0 is_stmt 1
 131 001a 2023     		movs	r3, #32
 132              	@ 111 "/home/denny/r2p-sdk/core/ChibiOS/os/hal/src/spi.c" 1
 133 001c 83F31188 		msr     BASEPRI, r3
 134              	@ 0 "" 2
 135              		.thumb
 136              	.LBE2:
 137 0020 FFF7FEFF 		bl	dbg_check_lock
 138              		.loc 1 112 0
 139 0024 019B     		ldr	r3, [sp, #4]
 140 0026 1B78     		ldrb	r3, [r3]	@ zero_extendqisi2
 141 0028 012B     		cmp	r3, #1
 142 002a 06D0     		beq	.L6
 143              		.loc 1 112 0 is_stmt 0 discriminator 1
 144 002c 019B     		ldr	r3, [sp, #4]
 145 002e 1B78     		ldrb	r3, [r3]	@ zero_extendqisi2
 146 0030 022B     		cmp	r3, #2
 147 0032 02D0     		beq	.L6
 148              		.loc 1 112 0 discriminator 2
 149 0034 0A48     		ldr	r0, .L7+4
 150 0036 FFF7FEFF 		bl	chDbgPanic
 151              	.L6:
 152              		.loc 1 114 0 is_stmt 1
 153 003a 019B     		ldr	r3, [sp, #4]
 154 003c 009A     		ldr	r2, [sp]
 155 003e 5A60     		str	r2, [r3, #4]
 156              		.loc 1 115 0
 157 0040 0198     		ldr	r0, [sp, #4]
 158 0042 FFF7FEFF 		bl	spi_lld_start
 159              		.loc 1 116 0
 160 0046 019B     		ldr	r3, [sp, #4]
 161 0048 0222     		movs	r2, #2
 162 004a 1A70     		strb	r2, [r3]
 163              		.loc 1 117 0
ARM GAS  /tmp/ccqoeBDi.s 			page 4


 164 004c FFF7FEFF 		bl	dbg_check_unlock
 165              	.LBB3:
 166 0050 0023     		movs	r3, #0
 167              	@ 117 "/home/denny/r2p-sdk/core/ChibiOS/os/hal/src/spi.c" 1
 168 0052 83F31188 		msr     BASEPRI, r3
 169              	@ 0 "" 2
 170              		.thumb
 171              	.LBE3:
 172              		.loc 1 118 0
 173 0056 03B0     		add	sp, sp, #12
 174              		.cfi_def_cfa_offset 4
 175              		@ sp needed
 176 0058 5DF804FB 		ldr	pc, [sp], #4
 177              	.L8:
 178              		.align	2
 179              	.L7:
 180 005c 00000000 		.word	.LC0
 181 0060 10000000 		.word	.LC1
 182              		.cfi_endproc
 183              	.LFE120:
 184              		.size	spiStart, .-spiStart
 185 0064 AFF30080 		.section	.rodata
 185      AFF30080 
 185      AFF30080 
 186 001f 00       		.align	2
 187              	.LC2:
 188 0020 22737069 		.ascii	"\"spiStop\"()\000"
 188      53746F70 
 188      22282900 
 189              		.align	2
 190              	.LC3:
 191 002c 73706953 		.ascii	"spiStop(), #1\000"
 191      746F7028 
 191      292C2023 
 191      3100
 192              		.section	.text.spiStop,"ax",%progbits
 193              		.align	2
 194              		.p2align 4,,15
 195              		.global	spiStop
 196              		.thumb
 197              		.thumb_func
 198              		.type	spiStop, %function
 199              	spiStop:
 200              	.LFB121:
 201              		.loc 1 129 0
 202              		.cfi_startproc
 203              		@ args = 0, pretend = 0, frame = 8
 204              		@ frame_needed = 0, uses_anonymous_args = 0
 205 0000 00B5     		push	{lr}
 206              		.cfi_def_cfa_offset 4
 207              		.cfi_offset 14, -4
 208 0002 83B0     		sub	sp, sp, #12
 209              		.cfi_def_cfa_offset 16
 210 0004 0190     		str	r0, [sp, #4]
 211              		.loc 1 131 0
 212 0006 019B     		ldr	r3, [sp, #4]
 213 0008 002B     		cmp	r3, #0
ARM GAS  /tmp/ccqoeBDi.s 			page 5


 214 000a 02D1     		bne	.L10
 215              		.loc 1 131 0 is_stmt 0 discriminator 1
 216 000c 1148     		ldr	r0, .L12
 217 000e FFF7FEFF 		bl	chDbgPanic
 218              	.L10:
 219              	.LBB4:
 220              		.loc 1 133 0 is_stmt 1
 221 0012 2023     		movs	r3, #32
 222              	@ 133 "/home/denny/r2p-sdk/core/ChibiOS/os/hal/src/spi.c" 1
 223 0014 83F31188 		msr     BASEPRI, r3
 224              	@ 0 "" 2
 225              		.thumb
 226              	.LBE4:
 227 0018 FFF7FEFF 		bl	dbg_check_lock
 228              		.loc 1 134 0
 229 001c 019B     		ldr	r3, [sp, #4]
 230 001e 1B78     		ldrb	r3, [r3]	@ zero_extendqisi2
 231 0020 012B     		cmp	r3, #1
 232 0022 06D0     		beq	.L11
 233              		.loc 1 134 0 is_stmt 0 discriminator 1
 234 0024 019B     		ldr	r3, [sp, #4]
 235 0026 1B78     		ldrb	r3, [r3]	@ zero_extendqisi2
 236 0028 022B     		cmp	r3, #2
 237 002a 02D0     		beq	.L11
 238              		.loc 1 134 0 discriminator 2
 239 002c 0A48     		ldr	r0, .L12+4
 240 002e FFF7FEFF 		bl	chDbgPanic
 241              	.L11:
 242              		.loc 1 136 0 is_stmt 1
 243 0032 0198     		ldr	r0, [sp, #4]
 244 0034 FFF7FEFF 		bl	spi_lld_unselect
 245              		.loc 1 137 0
 246 0038 0198     		ldr	r0, [sp, #4]
 247 003a FFF7FEFF 		bl	spi_lld_stop
 248              		.loc 1 138 0
 249 003e 019B     		ldr	r3, [sp, #4]
 250 0040 0122     		movs	r2, #1
 251 0042 1A70     		strb	r2, [r3]
 252              		.loc 1 139 0
 253 0044 FFF7FEFF 		bl	dbg_check_unlock
 254              	.LBB5:
 255 0048 0023     		movs	r3, #0
 256              	@ 139 "/home/denny/r2p-sdk/core/ChibiOS/os/hal/src/spi.c" 1
 257 004a 83F31188 		msr     BASEPRI, r3
 258              	@ 0 "" 2
 259              		.thumb
 260              	.LBE5:
 261              		.loc 1 140 0
 262 004e 03B0     		add	sp, sp, #12
 263              		.cfi_def_cfa_offset 4
 264              		@ sp needed
 265 0050 5DF804FB 		ldr	pc, [sp], #4
 266              	.L13:
 267              		.align	2
 268              	.L12:
 269 0054 20000000 		.word	.LC2
 270 0058 2C000000 		.word	.LC3
ARM GAS  /tmp/ccqoeBDi.s 			page 6


 271              		.cfi_endproc
 272              	.LFE121:
 273              		.size	spiStop, .-spiStop
 274 005c AFF30080 		.section	.rodata
 275 003a 0000     		.align	2
 276              	.LC4:
 277 003c 22737069 		.ascii	"\"spiSelect\"()\000"
 277      53656C65 
 277      63742228 
 277      2900
 278 004a 0000     		.align	2
 279              	.LC5:
 280 004c 73706953 		.ascii	"spiSelect(), #1\000"
 280      656C6563 
 280      7428292C 
 280      20233100 
 281              		.section	.text.spiSelect,"ax",%progbits
 282              		.align	2
 283              		.p2align 4,,15
 284              		.global	spiSelect
 285              		.thumb
 286              		.thumb_func
 287              		.type	spiSelect, %function
 288              	spiSelect:
 289              	.LFB122:
 290              		.loc 1 149 0
 291              		.cfi_startproc
 292              		@ args = 0, pretend = 0, frame = 8
 293              		@ frame_needed = 0, uses_anonymous_args = 0
 294 0000 00B5     		push	{lr}
 295              		.cfi_def_cfa_offset 4
 296              		.cfi_offset 14, -4
 297 0002 83B0     		sub	sp, sp, #12
 298              		.cfi_def_cfa_offset 16
 299 0004 0190     		str	r0, [sp, #4]
 300              		.loc 1 151 0
 301 0006 019B     		ldr	r3, [sp, #4]
 302 0008 002B     		cmp	r3, #0
 303 000a 02D1     		bne	.L15
 304              		.loc 1 151 0 is_stmt 0 discriminator 1
 305 000c 0C48     		ldr	r0, .L17
 306 000e FFF7FEFF 		bl	chDbgPanic
 307              	.L15:
 308              	.LBB6:
 309              		.loc 1 153 0 is_stmt 1
 310 0012 2023     		movs	r3, #32
 311              	@ 153 "/home/denny/r2p-sdk/core/ChibiOS/os/hal/src/spi.c" 1
 312 0014 83F31188 		msr     BASEPRI, r3
 313              	@ 0 "" 2
 314              		.thumb
 315              	.LBE6:
 316 0018 FFF7FEFF 		bl	dbg_check_lock
 317              		.loc 1 154 0
 318 001c 019B     		ldr	r3, [sp, #4]
 319 001e 1B78     		ldrb	r3, [r3]	@ zero_extendqisi2
 320 0020 022B     		cmp	r3, #2
 321 0022 02D0     		beq	.L16
ARM GAS  /tmp/ccqoeBDi.s 			page 7


 322              		.loc 1 154 0 is_stmt 0 discriminator 1
 323 0024 0748     		ldr	r0, .L17+4
 324 0026 FFF7FEFF 		bl	chDbgPanic
 325              	.L16:
 326              		.loc 1 155 0 is_stmt 1
 327 002a 0198     		ldr	r0, [sp, #4]
 328 002c FFF7FEFF 		bl	spi_lld_select
 329              		.loc 1 156 0
 330 0030 FFF7FEFF 		bl	dbg_check_unlock
 331              	.LBB7:
 332 0034 0023     		movs	r3, #0
 333              	@ 156 "/home/denny/r2p-sdk/core/ChibiOS/os/hal/src/spi.c" 1
 334 0036 83F31188 		msr     BASEPRI, r3
 335              	@ 0 "" 2
 336              		.thumb
 337              	.LBE7:
 338              		.loc 1 157 0
 339 003a 03B0     		add	sp, sp, #12
 340              		.cfi_def_cfa_offset 4
 341              		@ sp needed
 342 003c 5DF804FB 		ldr	pc, [sp], #4
 343              	.L18:
 344              		.align	2
 345              	.L17:
 346 0040 3C000000 		.word	.LC4
 347 0044 4C000000 		.word	.LC5
 348              		.cfi_endproc
 349              	.LFE122:
 350              		.size	spiSelect, .-spiSelect
 351 0048 AFF30080 		.section	.rodata
 351      AFF30080 
 352              		.align	2
 353              	.LC6:
 354 005c 22737069 		.ascii	"\"spiUnselect\"()\000"
 354      556E7365 
 354      6C656374 
 354      22282900 
 355              		.align	2
 356              	.LC7:
 357 006c 73706955 		.ascii	"spiUnselect(), #1\000"
 357      6E73656C 
 357      65637428 
 357      292C2023 
 357      3100
 358              		.section	.text.spiUnselect,"ax",%progbits
 359              		.align	2
 360              		.p2align 4,,15
 361              		.global	spiUnselect
 362              		.thumb
 363              		.thumb_func
 364              		.type	spiUnselect, %function
 365              	spiUnselect:
 366              	.LFB123:
 367              		.loc 1 167 0
 368              		.cfi_startproc
 369              		@ args = 0, pretend = 0, frame = 8
 370              		@ frame_needed = 0, uses_anonymous_args = 0
ARM GAS  /tmp/ccqoeBDi.s 			page 8


 371 0000 00B5     		push	{lr}
 372              		.cfi_def_cfa_offset 4
 373              		.cfi_offset 14, -4
 374 0002 83B0     		sub	sp, sp, #12
 375              		.cfi_def_cfa_offset 16
 376 0004 0190     		str	r0, [sp, #4]
 377              		.loc 1 169 0
 378 0006 019B     		ldr	r3, [sp, #4]
 379 0008 002B     		cmp	r3, #0
 380 000a 02D1     		bne	.L20
 381              		.loc 1 169 0 is_stmt 0 discriminator 1
 382 000c 0C48     		ldr	r0, .L22
 383 000e FFF7FEFF 		bl	chDbgPanic
 384              	.L20:
 385              	.LBB8:
 386              		.loc 1 171 0 is_stmt 1
 387 0012 2023     		movs	r3, #32
 388              	@ 171 "/home/denny/r2p-sdk/core/ChibiOS/os/hal/src/spi.c" 1
 389 0014 83F31188 		msr     BASEPRI, r3
 390              	@ 0 "" 2
 391              		.thumb
 392              	.LBE8:
 393 0018 FFF7FEFF 		bl	dbg_check_lock
 394              		.loc 1 172 0
 395 001c 019B     		ldr	r3, [sp, #4]
 396 001e 1B78     		ldrb	r3, [r3]	@ zero_extendqisi2
 397 0020 022B     		cmp	r3, #2
 398 0022 02D0     		beq	.L21
 399              		.loc 1 172 0 is_stmt 0 discriminator 1
 400 0024 0748     		ldr	r0, .L22+4
 401 0026 FFF7FEFF 		bl	chDbgPanic
 402              	.L21:
 403              		.loc 1 173 0 is_stmt 1
 404 002a 0198     		ldr	r0, [sp, #4]
 405 002c FFF7FEFF 		bl	spi_lld_unselect
 406              		.loc 1 174 0
 407 0030 FFF7FEFF 		bl	dbg_check_unlock
 408              	.LBB9:
 409 0034 0023     		movs	r3, #0
 410              	@ 174 "/home/denny/r2p-sdk/core/ChibiOS/os/hal/src/spi.c" 1
 411 0036 83F31188 		msr     BASEPRI, r3
 412              	@ 0 "" 2
 413              		.thumb
 414              	.LBE9:
 415              		.loc 1 175 0
 416 003a 03B0     		add	sp, sp, #12
 417              		.cfi_def_cfa_offset 4
 418              		@ sp needed
 419 003c 5DF804FB 		ldr	pc, [sp], #4
 420              	.L23:
 421              		.align	2
 422              	.L22:
 423 0040 5C000000 		.word	.LC6
 424 0044 6C000000 		.word	.LC7
 425              		.cfi_endproc
 426              	.LFE123:
 427              		.size	spiUnselect, .-spiUnselect
ARM GAS  /tmp/ccqoeBDi.s 			page 9


 428 0048 AFF30080 		.section	.rodata
 428      AFF30080 
 429 007e 0000     		.align	2
 430              	.LC8:
 431 0080 22737069 		.ascii	"\"spiStartIgnore\"()\000"
 431      53746172 
 431      7449676E 
 431      6F726522 
 431      282900
 432 0093 00       		.align	2
 433              	.LC9:
 434 0094 73706953 		.ascii	"spiStartIgnore(), #1\000"
 434      74617274 
 434      49676E6F 
 434      72652829 
 434      2C202331 
 435              		.section	.text.spiStartIgnore,"ax",%progbits
 436              		.align	2
 437              		.p2align 4,,15
 438              		.global	spiStartIgnore
 439              		.thumb
 440              		.thumb_func
 441              		.type	spiStartIgnore, %function
 442              	spiStartIgnore:
 443              	.LFB124:
 444              		.loc 1 190 0
 445              		.cfi_startproc
 446              		@ args = 0, pretend = 0, frame = 8
 447              		@ frame_needed = 0, uses_anonymous_args = 0
 448 0000 00B5     		push	{lr}
 449              		.cfi_def_cfa_offset 4
 450              		.cfi_offset 14, -4
 451 0002 83B0     		sub	sp, sp, #12
 452              		.cfi_def_cfa_offset 16
 453 0004 0190     		str	r0, [sp, #4]
 454 0006 0091     		str	r1, [sp]
 455              		.loc 1 192 0
 456 0008 019B     		ldr	r3, [sp, #4]
 457 000a 002B     		cmp	r3, #0
 458 000c 02D0     		beq	.L25
 459              		.loc 1 192 0 is_stmt 0 discriminator 2
 460 000e 009B     		ldr	r3, [sp]
 461 0010 002B     		cmp	r3, #0
 462 0012 02D1     		bne	.L26
 463              	.L25:
 464              		.loc 1 192 0 discriminator 3
 465 0014 0E48     		ldr	r0, .L28
 466 0016 FFF7FEFF 		bl	chDbgPanic
 467              	.L26:
 468              	.LBB10:
 469              		.loc 1 194 0 is_stmt 1
 470 001a 2023     		movs	r3, #32
 471              	@ 194 "/home/denny/r2p-sdk/core/ChibiOS/os/hal/src/spi.c" 1
 472 001c 83F31188 		msr     BASEPRI, r3
 473              	@ 0 "" 2
 474              		.thumb
 475              	.LBE10:
ARM GAS  /tmp/ccqoeBDi.s 			page 10


 476 0020 FFF7FEFF 		bl	dbg_check_lock
 477              		.loc 1 195 0
 478 0024 019B     		ldr	r3, [sp, #4]
 479 0026 1B78     		ldrb	r3, [r3]	@ zero_extendqisi2
 480 0028 022B     		cmp	r3, #2
 481 002a 02D0     		beq	.L27
 482              		.loc 1 195 0 is_stmt 0 discriminator 1
 483 002c 0948     		ldr	r0, .L28+4
 484 002e FFF7FEFF 		bl	chDbgPanic
 485              	.L27:
 486              		.loc 1 196 0 is_stmt 1
 487 0032 019B     		ldr	r3, [sp, #4]
 488 0034 0322     		movs	r2, #3
 489 0036 1A70     		strb	r2, [r3]
 490 0038 0198     		ldr	r0, [sp, #4]
 491 003a 0099     		ldr	r1, [sp]
 492 003c FFF7FEFF 		bl	spi_lld_ignore
 493              		.loc 1 197 0
 494 0040 FFF7FEFF 		bl	dbg_check_unlock
 495              	.LBB11:
 496 0044 0023     		movs	r3, #0
 497              	@ 197 "/home/denny/r2p-sdk/core/ChibiOS/os/hal/src/spi.c" 1
 498 0046 83F31188 		msr     BASEPRI, r3
 499              	@ 0 "" 2
 500              		.thumb
 501              	.LBE11:
 502              		.loc 1 198 0
 503 004a 03B0     		add	sp, sp, #12
 504              		.cfi_def_cfa_offset 4
 505              		@ sp needed
 506 004c 5DF804FB 		ldr	pc, [sp], #4
 507              	.L29:
 508              		.align	2
 509              	.L28:
 510 0050 80000000 		.word	.LC8
 511 0054 94000000 		.word	.LC9
 512              		.cfi_endproc
 513              	.LFE124:
 514              		.size	spiStartIgnore, .-spiStartIgnore
 515 0058 AFF30080 		.section	.rodata
 515      AFF30080 
 516 00a9 000000   		.align	2
 517              	.LC10:
 518 00ac 22737069 		.ascii	"\"spiStartExchange\"()\000"
 518      53746172 
 518      74457863 
 518      68616E67 
 518      65222829 
 519 00c1 000000   		.align	2
 520              	.LC11:
 521 00c4 73706953 		.ascii	"spiStartExchange(), #1\000"
 521      74617274 
 521      45786368 
 521      616E6765 
 521      28292C20 
 522              		.section	.text.spiStartExchange,"ax",%progbits
 523              		.align	2
ARM GAS  /tmp/ccqoeBDi.s 			page 11


 524              		.p2align 4,,15
 525              		.global	spiStartExchange
 526              		.thumb
 527              		.thumb_func
 528              		.type	spiStartExchange, %function
 529              	spiStartExchange:
 530              	.LFB125:
 531              		.loc 1 218 0
 532              		.cfi_startproc
 533              		@ args = 0, pretend = 0, frame = 16
 534              		@ frame_needed = 0, uses_anonymous_args = 0
 535 0000 00B5     		push	{lr}
 536              		.cfi_def_cfa_offset 4
 537              		.cfi_offset 14, -4
 538 0002 85B0     		sub	sp, sp, #20
 539              		.cfi_def_cfa_offset 24
 540 0004 0390     		str	r0, [sp, #12]
 541 0006 0291     		str	r1, [sp, #8]
 542 0008 0192     		str	r2, [sp, #4]
 543 000a 0093     		str	r3, [sp]
 544              		.loc 1 220 0
 545 000c 039B     		ldr	r3, [sp, #12]
 546 000e 002B     		cmp	r3, #0
 547 0010 08D0     		beq	.L31
 548              		.loc 1 220 0 is_stmt 0 discriminator 2
 549 0012 029B     		ldr	r3, [sp, #8]
 550 0014 002B     		cmp	r3, #0
 551 0016 05D0     		beq	.L31
 552              		.loc 1 220 0 discriminator 4
 553 0018 009B     		ldr	r3, [sp]
 554 001a 002B     		cmp	r3, #0
 555 001c 02D0     		beq	.L31
 556              		.loc 1 220 0 discriminator 6
 557 001e 019B     		ldr	r3, [sp, #4]
 558 0020 002B     		cmp	r3, #0
 559 0022 02D1     		bne	.L32
 560              	.L31:
 561              		.loc 1 220 0 discriminator 7
 562 0024 0F48     		ldr	r0, .L34
 563 0026 FFF7FEFF 		bl	chDbgPanic
 564              	.L32:
 565              	.LBB12:
 566              		.loc 1 223 0 is_stmt 1
 567 002a 2023     		movs	r3, #32
 568              	@ 223 "/home/denny/r2p-sdk/core/ChibiOS/os/hal/src/spi.c" 1
 569 002c 83F31188 		msr     BASEPRI, r3
 570              	@ 0 "" 2
 571              		.thumb
 572              	.LBE12:
 573 0030 FFF7FEFF 		bl	dbg_check_lock
 574              		.loc 1 224 0
 575 0034 039B     		ldr	r3, [sp, #12]
 576 0036 1B78     		ldrb	r3, [r3]	@ zero_extendqisi2
 577 0038 022B     		cmp	r3, #2
 578 003a 02D0     		beq	.L33
 579              		.loc 1 224 0 is_stmt 0 discriminator 1
 580 003c 0A48     		ldr	r0, .L34+4
ARM GAS  /tmp/ccqoeBDi.s 			page 12


 581 003e FFF7FEFF 		bl	chDbgPanic
 582              	.L33:
 583              		.loc 1 225 0 is_stmt 1
 584 0042 039B     		ldr	r3, [sp, #12]
 585 0044 0322     		movs	r2, #3
 586 0046 1A70     		strb	r2, [r3]
 587 0048 0398     		ldr	r0, [sp, #12]
 588 004a 0299     		ldr	r1, [sp, #8]
 589 004c 019A     		ldr	r2, [sp, #4]
 590 004e 009B     		ldr	r3, [sp]
 591 0050 FFF7FEFF 		bl	spi_lld_exchange
 592              		.loc 1 226 0
 593 0054 FFF7FEFF 		bl	dbg_check_unlock
 594              	.LBB13:
 595 0058 0023     		movs	r3, #0
 596              	@ 226 "/home/denny/r2p-sdk/core/ChibiOS/os/hal/src/spi.c" 1
 597 005a 83F31188 		msr     BASEPRI, r3
 598              	@ 0 "" 2
 599              		.thumb
 600              	.LBE13:
 601              		.loc 1 227 0
 602 005e 05B0     		add	sp, sp, #20
 603              		.cfi_def_cfa_offset 4
 604              		@ sp needed
 605 0060 5DF804FB 		ldr	pc, [sp], #4
 606              	.L35:
 607              		.align	2
 608              	.L34:
 609 0064 AC000000 		.word	.LC10
 610 0068 C4000000 		.word	.LC11
 611              		.cfi_endproc
 612              	.LFE125:
 613              		.size	spiStartExchange, .-spiStartExchange
 614 006c AFF30080 		.section	.rodata
 615 00db 00       		.align	2
 616              	.LC12:
 617 00dc 22737069 		.ascii	"\"spiStartSend\"()\000"
 617      53746172 
 617      7453656E 
 617      64222829 
 617      00
 618 00ed 000000   		.align	2
 619              	.LC13:
 620 00f0 73706953 		.ascii	"spiStartSend(), #1\000"
 620      74617274 
 620      53656E64 
 620      28292C20 
 620      233100
 621              		.section	.text.spiStartSend,"ax",%progbits
 622              		.align	2
 623              		.p2align 4,,15
 624              		.global	spiStartSend
 625              		.thumb
 626              		.thumb_func
 627              		.type	spiStartSend, %function
 628              	spiStartSend:
 629              	.LFB126:
ARM GAS  /tmp/ccqoeBDi.s 			page 13


 630              		.loc 1 244 0
 631              		.cfi_startproc
 632              		@ args = 0, pretend = 0, frame = 16
 633              		@ frame_needed = 0, uses_anonymous_args = 0
 634 0000 00B5     		push	{lr}
 635              		.cfi_def_cfa_offset 4
 636              		.cfi_offset 14, -4
 637 0002 85B0     		sub	sp, sp, #20
 638              		.cfi_def_cfa_offset 24
 639 0004 0390     		str	r0, [sp, #12]
 640 0006 0291     		str	r1, [sp, #8]
 641 0008 0192     		str	r2, [sp, #4]
 642              		.loc 1 246 0
 643 000a 039B     		ldr	r3, [sp, #12]
 644 000c 002B     		cmp	r3, #0
 645 000e 05D0     		beq	.L37
 646              		.loc 1 246 0 is_stmt 0 discriminator 2
 647 0010 029B     		ldr	r3, [sp, #8]
 648 0012 002B     		cmp	r3, #0
 649 0014 02D0     		beq	.L37
 650              		.loc 1 246 0 discriminator 4
 651 0016 019B     		ldr	r3, [sp, #4]
 652 0018 002B     		cmp	r3, #0
 653 001a 02D1     		bne	.L38
 654              	.L37:
 655              		.loc 1 246 0 discriminator 5
 656 001c 0F48     		ldr	r0, .L40
 657 001e FFF7FEFF 		bl	chDbgPanic
 658              	.L38:
 659              	.LBB14:
 660              		.loc 1 249 0 is_stmt 1
 661 0022 2023     		movs	r3, #32
 662              	@ 249 "/home/denny/r2p-sdk/core/ChibiOS/os/hal/src/spi.c" 1
 663 0024 83F31188 		msr     BASEPRI, r3
 664              	@ 0 "" 2
 665              		.thumb
 666              	.LBE14:
 667 0028 FFF7FEFF 		bl	dbg_check_lock
 668              		.loc 1 250 0
 669 002c 039B     		ldr	r3, [sp, #12]
 670 002e 1B78     		ldrb	r3, [r3]	@ zero_extendqisi2
 671 0030 022B     		cmp	r3, #2
 672 0032 02D0     		beq	.L39
 673              		.loc 1 250 0 is_stmt 0 discriminator 1
 674 0034 0A48     		ldr	r0, .L40+4
 675 0036 FFF7FEFF 		bl	chDbgPanic
 676              	.L39:
 677              		.loc 1 251 0 is_stmt 1
 678 003a 039B     		ldr	r3, [sp, #12]
 679 003c 0322     		movs	r2, #3
 680 003e 1A70     		strb	r2, [r3]
 681 0040 0398     		ldr	r0, [sp, #12]
 682 0042 0299     		ldr	r1, [sp, #8]
 683 0044 019A     		ldr	r2, [sp, #4]
 684 0046 FFF7FEFF 		bl	spi_lld_send
 685              		.loc 1 252 0
 686 004a FFF7FEFF 		bl	dbg_check_unlock
ARM GAS  /tmp/ccqoeBDi.s 			page 14


 687              	.LBB15:
 688 004e 0023     		movs	r3, #0
 689              	@ 252 "/home/denny/r2p-sdk/core/ChibiOS/os/hal/src/spi.c" 1
 690 0050 83F31188 		msr     BASEPRI, r3
 691              	@ 0 "" 2
 692              		.thumb
 693              	.LBE15:
 694              		.loc 1 253 0
 695 0054 05B0     		add	sp, sp, #20
 696              		.cfi_def_cfa_offset 4
 697              		@ sp needed
 698 0056 5DF804FB 		ldr	pc, [sp], #4
 699              	.L41:
 700 005a 00BF     		.align	2
 701              	.L40:
 702 005c DC000000 		.word	.LC12
 703 0060 F0000000 		.word	.LC13
 704              		.cfi_endproc
 705              	.LFE126:
 706              		.size	spiStartSend, .-spiStartSend
 707 0064 AFF30080 		.section	.rodata
 707      AFF30080 
 707      AFF30080 
 708 0103 00       		.align	2
 709              	.LC14:
 710 0104 22737069 		.ascii	"\"spiStartReceive\"()\000"
 710      53746172 
 710      74526563 
 710      65697665 
 710      22282900 
 711              		.align	2
 712              	.LC15:
 713 0118 73706953 		.ascii	"spiStartReceive(), #1\000"
 713      74617274 
 713      52656365 
 713      69766528 
 713      292C2023 
 714              		.section	.text.spiStartReceive,"ax",%progbits
 715              		.align	2
 716              		.p2align 4,,15
 717              		.global	spiStartReceive
 718              		.thumb
 719              		.thumb_func
 720              		.type	spiStartReceive, %function
 721              	spiStartReceive:
 722              	.LFB127:
 723              		.loc 1 270 0
 724              		.cfi_startproc
 725              		@ args = 0, pretend = 0, frame = 16
 726              		@ frame_needed = 0, uses_anonymous_args = 0
 727 0000 00B5     		push	{lr}
 728              		.cfi_def_cfa_offset 4
 729              		.cfi_offset 14, -4
 730 0002 85B0     		sub	sp, sp, #20
 731              		.cfi_def_cfa_offset 24
 732 0004 0390     		str	r0, [sp, #12]
 733 0006 0291     		str	r1, [sp, #8]
ARM GAS  /tmp/ccqoeBDi.s 			page 15


 734 0008 0192     		str	r2, [sp, #4]
 735              		.loc 1 272 0
 736 000a 039B     		ldr	r3, [sp, #12]
 737 000c 002B     		cmp	r3, #0
 738 000e 05D0     		beq	.L43
 739              		.loc 1 272 0 is_stmt 0 discriminator 2
 740 0010 029B     		ldr	r3, [sp, #8]
 741 0012 002B     		cmp	r3, #0
 742 0014 02D0     		beq	.L43
 743              		.loc 1 272 0 discriminator 4
 744 0016 019B     		ldr	r3, [sp, #4]
 745 0018 002B     		cmp	r3, #0
 746 001a 02D1     		bne	.L44
 747              	.L43:
 748              		.loc 1 272 0 discriminator 5
 749 001c 0F48     		ldr	r0, .L46
 750 001e FFF7FEFF 		bl	chDbgPanic
 751              	.L44:
 752              	.LBB16:
 753              		.loc 1 275 0 is_stmt 1
 754 0022 2023     		movs	r3, #32
 755              	@ 275 "/home/denny/r2p-sdk/core/ChibiOS/os/hal/src/spi.c" 1
 756 0024 83F31188 		msr     BASEPRI, r3
 757              	@ 0 "" 2
 758              		.thumb
 759              	.LBE16:
 760 0028 FFF7FEFF 		bl	dbg_check_lock
 761              		.loc 1 276 0
 762 002c 039B     		ldr	r3, [sp, #12]
 763 002e 1B78     		ldrb	r3, [r3]	@ zero_extendqisi2
 764 0030 022B     		cmp	r3, #2
 765 0032 02D0     		beq	.L45
 766              		.loc 1 276 0 is_stmt 0 discriminator 1
 767 0034 0A48     		ldr	r0, .L46+4
 768 0036 FFF7FEFF 		bl	chDbgPanic
 769              	.L45:
 770              		.loc 1 277 0 is_stmt 1
 771 003a 039B     		ldr	r3, [sp, #12]
 772 003c 0322     		movs	r2, #3
 773 003e 1A70     		strb	r2, [r3]
 774 0040 0398     		ldr	r0, [sp, #12]
 775 0042 0299     		ldr	r1, [sp, #8]
 776 0044 019A     		ldr	r2, [sp, #4]
 777 0046 FFF7FEFF 		bl	spi_lld_receive
 778              		.loc 1 278 0
 779 004a FFF7FEFF 		bl	dbg_check_unlock
 780              	.LBB17:
 781 004e 0023     		movs	r3, #0
 782              	@ 278 "/home/denny/r2p-sdk/core/ChibiOS/os/hal/src/spi.c" 1
 783 0050 83F31188 		msr     BASEPRI, r3
 784              	@ 0 "" 2
 785              		.thumb
 786              	.LBE17:
 787              		.loc 1 279 0
 788 0054 05B0     		add	sp, sp, #20
 789              		.cfi_def_cfa_offset 4
 790              		@ sp needed
ARM GAS  /tmp/ccqoeBDi.s 			page 16


 791 0056 5DF804FB 		ldr	pc, [sp], #4
 792              	.L47:
 793 005a 00BF     		.align	2
 794              	.L46:
 795 005c 04010000 		.word	.LC14
 796 0060 18010000 		.word	.LC15
 797              		.cfi_endproc
 798              	.LFE127:
 799              		.size	spiStartReceive, .-spiStartReceive
 800 0064 AFF30080 		.section	.rodata
 800      AFF30080 
 800      AFF30080 
 801 012e 0000     		.align	2
 802              	.LC16:
 803 0130 22737069 		.ascii	"\"spiIgnoreWait\"()\000"
 803      49676E6F 
 803      72655761 
 803      69742228 
 803      2900
 804 0142 0000     		.align	2
 805              	.LC17:
 806 0144 73706949 		.ascii	"spiIgnore(), #1\000"
 806      676E6F72 
 806      6528292C 
 806      20233100 
 807              		.align	2
 808              	.LC18:
 809 0154 73706949 		.ascii	"spiIgnore(), #2\000"
 809      676E6F72 
 809      6528292C 
 809      20233200 
 810              		.align	2
 811              	.LC19:
 812 0164 5F737069 		.ascii	"_spi_wait(), #1\000"
 812      5F776169 
 812      7428292C 
 812      20233100 
 813              		.section	.text.spiIgnore,"ax",%progbits
 814              		.align	2
 815              		.p2align 4,,15
 816              		.global	spiIgnore
 817              		.thumb
 818              		.thumb_func
 819              		.type	spiIgnore, %function
 820              	spiIgnore:
 821              	.LFB128:
 822              		.loc 1 296 0
 823              		.cfi_startproc
 824              		@ args = 0, pretend = 0, frame = 8
 825              		@ frame_needed = 0, uses_anonymous_args = 0
 826 0000 00B5     		push	{lr}
 827              		.cfi_def_cfa_offset 4
 828              		.cfi_offset 14, -4
 829 0002 83B0     		sub	sp, sp, #12
 830              		.cfi_def_cfa_offset 16
 831 0004 0190     		str	r0, [sp, #4]
 832 0006 0091     		str	r1, [sp]
ARM GAS  /tmp/ccqoeBDi.s 			page 17


 833              		.loc 1 298 0
 834 0008 019B     		ldr	r3, [sp, #4]
 835 000a 002B     		cmp	r3, #0
 836 000c 02D0     		beq	.L49
 837              		.loc 1 298 0 is_stmt 0 discriminator 2
 838 000e 009B     		ldr	r3, [sp]
 839 0010 002B     		cmp	r3, #0
 840 0012 02D1     		bne	.L50
 841              	.L49:
 842              		.loc 1 298 0 discriminator 3
 843 0014 1948     		ldr	r0, .L54
 844 0016 FFF7FEFF 		bl	chDbgPanic
 845              	.L50:
 846              	.LBB18:
 847              		.loc 1 300 0 is_stmt 1
 848 001a 2023     		movs	r3, #32
 849              	@ 300 "/home/denny/r2p-sdk/core/ChibiOS/os/hal/src/spi.c" 1
 850 001c 83F31188 		msr     BASEPRI, r3
 851              	@ 0 "" 2
 852              		.thumb
 853              	.LBE18:
 854 0020 FFF7FEFF 		bl	dbg_check_lock
 855              		.loc 1 301 0
 856 0024 019B     		ldr	r3, [sp, #4]
 857 0026 1B78     		ldrb	r3, [r3]	@ zero_extendqisi2
 858 0028 022B     		cmp	r3, #2
 859 002a 02D0     		beq	.L51
 860              		.loc 1 301 0 is_stmt 0 discriminator 1
 861 002c 1448     		ldr	r0, .L54+4
 862 002e FFF7FEFF 		bl	chDbgPanic
 863              	.L51:
 864              		.loc 1 302 0 is_stmt 1
 865 0032 019B     		ldr	r3, [sp, #4]
 866 0034 5B68     		ldr	r3, [r3, #4]
 867 0036 1B68     		ldr	r3, [r3]
 868 0038 002B     		cmp	r3, #0
 869 003a 02D0     		beq	.L52
 870              		.loc 1 302 0 is_stmt 0 discriminator 1
 871 003c 1148     		ldr	r0, .L54+8
 872 003e FFF7FEFF 		bl	chDbgPanic
 873              	.L52:
 874              		.loc 1 303 0 is_stmt 1
 875 0042 019B     		ldr	r3, [sp, #4]
 876 0044 0322     		movs	r2, #3
 877 0046 1A70     		strb	r2, [r3]
 878 0048 0198     		ldr	r0, [sp, #4]
 879 004a 0099     		ldr	r1, [sp]
 880 004c FFF7FEFF 		bl	spi_lld_ignore
 881              		.loc 1 304 0
 882 0050 019B     		ldr	r3, [sp, #4]
 883 0052 9B68     		ldr	r3, [r3, #8]
 884 0054 002B     		cmp	r3, #0
 885 0056 02D0     		beq	.L53
 886              		.loc 1 304 0 is_stmt 0 discriminator 1
 887 0058 0B48     		ldr	r0, .L54+12
 888 005a FFF7FEFF 		bl	chDbgPanic
 889              	.L53:
ARM GAS  /tmp/ccqoeBDi.s 			page 18


 890              		.loc 1 304 0 discriminator 3
 891 005e 0B4B     		ldr	r3, .L54+16
 892 0060 9A69     		ldr	r2, [r3, #24]
 893 0062 019B     		ldr	r3, [sp, #4]
 894 0064 9A60     		str	r2, [r3, #8]
 895 0066 0220     		movs	r0, #2
 896 0068 FFF7FEFF 		bl	chSchGoSleepS
 897              		.loc 1 305 0 is_stmt 1 discriminator 3
 898 006c FFF7FEFF 		bl	dbg_check_unlock
 899              	.LBB19:
 900 0070 0023     		movs	r3, #0
 901              	@ 305 "/home/denny/r2p-sdk/core/ChibiOS/os/hal/src/spi.c" 1
 902 0072 83F31188 		msr     BASEPRI, r3
 903              	@ 0 "" 2
 904              		.thumb
 905              	.LBE19:
 906              		.loc 1 306 0 discriminator 3
 907 0076 03B0     		add	sp, sp, #12
 908              		.cfi_def_cfa_offset 4
 909              		@ sp needed
 910 0078 5DF804FB 		ldr	pc, [sp], #4
 911              	.L55:
 912              		.align	2
 913              	.L54:
 914 007c 30010000 		.word	.LC16
 915 0080 44010000 		.word	.LC17
 916 0084 54010000 		.word	.LC18
 917 0088 64010000 		.word	.LC19
 918 008c 00000000 		.word	rlist
 919              		.cfi_endproc
 920              	.LFE128:
 921              		.size	spiIgnore, .-spiIgnore
 922              		.section	.rodata
 923              		.align	2
 924              	.LC20:
 925 0174 22737069 		.ascii	"\"spiExchange\"()\000"
 925      45786368 
 925      616E6765 
 925      22282900 
 926              		.align	2
 927              	.LC21:
 928 0184 73706945 		.ascii	"spiExchange(), #1\000"
 928      78636861 
 928      6E676528 
 928      292C2023 
 928      3100
 929 0196 0000     		.align	2
 930              	.LC22:
 931 0198 73706945 		.ascii	"spiExchange(), #2\000"
 931      78636861 
 931      6E676528 
 931      292C2023 
 931      3200
 932              		.section	.text.spiExchange,"ax",%progbits
 933              		.align	2
 934              		.p2align 4,,15
 935              		.global	spiExchange
ARM GAS  /tmp/ccqoeBDi.s 			page 19


 936              		.thumb
 937              		.thumb_func
 938              		.type	spiExchange, %function
 939              	spiExchange:
 940              	.LFB129:
 941              		.loc 1 327 0
 942              		.cfi_startproc
 943              		@ args = 0, pretend = 0, frame = 16
 944              		@ frame_needed = 0, uses_anonymous_args = 0
 945 0000 00B5     		push	{lr}
 946              		.cfi_def_cfa_offset 4
 947              		.cfi_offset 14, -4
 948 0002 85B0     		sub	sp, sp, #20
 949              		.cfi_def_cfa_offset 24
 950 0004 0390     		str	r0, [sp, #12]
 951 0006 0291     		str	r1, [sp, #8]
 952 0008 0192     		str	r2, [sp, #4]
 953 000a 0093     		str	r3, [sp]
 954              		.loc 1 329 0
 955 000c 039B     		ldr	r3, [sp, #12]
 956 000e 002B     		cmp	r3, #0
 957 0010 08D0     		beq	.L57
 958              		.loc 1 329 0 is_stmt 0 discriminator 2
 959 0012 029B     		ldr	r3, [sp, #8]
 960 0014 002B     		cmp	r3, #0
 961 0016 05D0     		beq	.L57
 962              		.loc 1 329 0 discriminator 4
 963 0018 009B     		ldr	r3, [sp]
 964 001a 002B     		cmp	r3, #0
 965 001c 02D0     		beq	.L57
 966              		.loc 1 329 0 discriminator 6
 967 001e 019B     		ldr	r3, [sp, #4]
 968 0020 002B     		cmp	r3, #0
 969 0022 02D1     		bne	.L58
 970              	.L57:
 971              		.loc 1 329 0 discriminator 7
 972 0024 1A48     		ldr	r0, .L62
 973 0026 FFF7FEFF 		bl	chDbgPanic
 974              	.L58:
 975              	.LBB20:
 976              		.loc 1 332 0 is_stmt 1
 977 002a 2023     		movs	r3, #32
 978              	@ 332 "/home/denny/r2p-sdk/core/ChibiOS/os/hal/src/spi.c" 1
 979 002c 83F31188 		msr     BASEPRI, r3
 980              	@ 0 "" 2
 981              		.thumb
 982              	.LBE20:
 983 0030 FFF7FEFF 		bl	dbg_check_lock
 984              		.loc 1 333 0
 985 0034 039B     		ldr	r3, [sp, #12]
 986 0036 1B78     		ldrb	r3, [r3]	@ zero_extendqisi2
 987 0038 022B     		cmp	r3, #2
 988 003a 02D0     		beq	.L59
 989              		.loc 1 333 0 is_stmt 0 discriminator 1
 990 003c 1548     		ldr	r0, .L62+4
 991 003e FFF7FEFF 		bl	chDbgPanic
 992              	.L59:
ARM GAS  /tmp/ccqoeBDi.s 			page 20


 993              		.loc 1 334 0 is_stmt 1
 994 0042 039B     		ldr	r3, [sp, #12]
 995 0044 5B68     		ldr	r3, [r3, #4]
 996 0046 1B68     		ldr	r3, [r3]
 997 0048 002B     		cmp	r3, #0
 998 004a 02D0     		beq	.L60
 999              		.loc 1 334 0 is_stmt 0 discriminator 1
 1000 004c 1248     		ldr	r0, .L62+8
 1001 004e FFF7FEFF 		bl	chDbgPanic
 1002              	.L60:
 1003              		.loc 1 336 0 is_stmt 1
 1004 0052 039B     		ldr	r3, [sp, #12]
 1005 0054 0322     		movs	r2, #3
 1006 0056 1A70     		strb	r2, [r3]
 1007 0058 0398     		ldr	r0, [sp, #12]
 1008 005a 0299     		ldr	r1, [sp, #8]
 1009 005c 019A     		ldr	r2, [sp, #4]
 1010 005e 009B     		ldr	r3, [sp]
 1011 0060 FFF7FEFF 		bl	spi_lld_exchange
 1012              		.loc 1 337 0
 1013 0064 039B     		ldr	r3, [sp, #12]
 1014 0066 9B68     		ldr	r3, [r3, #8]
 1015 0068 002B     		cmp	r3, #0
 1016 006a 02D0     		beq	.L61
 1017              		.loc 1 337 0 is_stmt 0 discriminator 1
 1018 006c 0B48     		ldr	r0, .L62+12
 1019 006e FFF7FEFF 		bl	chDbgPanic
 1020              	.L61:
 1021              		.loc 1 337 0 discriminator 3
 1022 0072 0B4B     		ldr	r3, .L62+16
 1023 0074 9A69     		ldr	r2, [r3, #24]
 1024 0076 039B     		ldr	r3, [sp, #12]
 1025 0078 9A60     		str	r2, [r3, #8]
 1026 007a 0220     		movs	r0, #2
 1027 007c FFF7FEFF 		bl	chSchGoSleepS
 1028              		.loc 1 338 0 is_stmt 1 discriminator 3
 1029 0080 FFF7FEFF 		bl	dbg_check_unlock
 1030              	.LBB21:
 1031 0084 0023     		movs	r3, #0
 1032              	@ 338 "/home/denny/r2p-sdk/core/ChibiOS/os/hal/src/spi.c" 1
 1033 0086 83F31188 		msr     BASEPRI, r3
 1034              	@ 0 "" 2
 1035              		.thumb
 1036              	.LBE21:
 1037              		.loc 1 339 0 discriminator 3
 1038 008a 05B0     		add	sp, sp, #20
 1039              		.cfi_def_cfa_offset 4
 1040              		@ sp needed
 1041 008c 5DF804FB 		ldr	pc, [sp], #4
 1042              	.L63:
 1043              		.align	2
 1044              	.L62:
 1045 0090 74010000 		.word	.LC20
 1046 0094 84010000 		.word	.LC21
 1047 0098 98010000 		.word	.LC22
 1048 009c 64010000 		.word	.LC19
 1049 00a0 00000000 		.word	rlist
ARM GAS  /tmp/ccqoeBDi.s 			page 21


 1050              		.cfi_endproc
 1051              	.LFE129:
 1052              		.size	spiExchange, .-spiExchange
 1053 00a4 AFF30080 		.section	.rodata
 1053      AFF30080 
 1053      AFF30080 
 1054 01aa 0000     		.align	2
 1055              	.LC23:
 1056 01ac 22737069 		.ascii	"\"spiSend\"()\000"
 1056      53656E64 
 1056      22282900 
 1057              		.align	2
 1058              	.LC24:
 1059 01b8 73706953 		.ascii	"spiSend(), #1\000"
 1059      656E6428 
 1059      292C2023 
 1059      3100
 1060 01c6 0000     		.align	2
 1061              	.LC25:
 1062 01c8 73706953 		.ascii	"spiSend(), #2\000"
 1062      656E6428 
 1062      292C2023 
 1062      3200
 1063              		.section	.text.spiSend,"ax",%progbits
 1064              		.align	2
 1065              		.p2align 4,,15
 1066              		.global	spiSend
 1067              		.thumb
 1068              		.thumb_func
 1069              		.type	spiSend, %function
 1070              	spiSend:
 1071              	.LFB130:
 1072              		.loc 1 357 0
 1073              		.cfi_startproc
 1074              		@ args = 0, pretend = 0, frame = 16
 1075              		@ frame_needed = 0, uses_anonymous_args = 0
 1076 0000 00B5     		push	{lr}
 1077              		.cfi_def_cfa_offset 4
 1078              		.cfi_offset 14, -4
 1079 0002 85B0     		sub	sp, sp, #20
 1080              		.cfi_def_cfa_offset 24
 1081 0004 0390     		str	r0, [sp, #12]
 1082 0006 0291     		str	r1, [sp, #8]
 1083 0008 0192     		str	r2, [sp, #4]
 1084              		.loc 1 359 0
 1085 000a 039B     		ldr	r3, [sp, #12]
 1086 000c 002B     		cmp	r3, #0
 1087 000e 05D0     		beq	.L65
 1088              		.loc 1 359 0 is_stmt 0 discriminator 2
 1089 0010 029B     		ldr	r3, [sp, #8]
 1090 0012 002B     		cmp	r3, #0
 1091 0014 02D0     		beq	.L65
 1092              		.loc 1 359 0 discriminator 4
 1093 0016 019B     		ldr	r3, [sp, #4]
 1094 0018 002B     		cmp	r3, #0
 1095 001a 02D1     		bne	.L66
 1096              	.L65:
ARM GAS  /tmp/ccqoeBDi.s 			page 22


 1097              		.loc 1 359 0 discriminator 5
 1098 001c 1A48     		ldr	r0, .L70
 1099 001e FFF7FEFF 		bl	chDbgPanic
 1100              	.L66:
 1101              	.LBB22:
 1102              		.loc 1 361 0 is_stmt 1
 1103 0022 2023     		movs	r3, #32
 1104              	@ 361 "/home/denny/r2p-sdk/core/ChibiOS/os/hal/src/spi.c" 1
 1105 0024 83F31188 		msr     BASEPRI, r3
 1106              	@ 0 "" 2
 1107              		.thumb
 1108              	.LBE22:
 1109 0028 FFF7FEFF 		bl	dbg_check_lock
 1110              		.loc 1 362 0
 1111 002c 039B     		ldr	r3, [sp, #12]
 1112 002e 1B78     		ldrb	r3, [r3]	@ zero_extendqisi2
 1113 0030 022B     		cmp	r3, #2
 1114 0032 02D0     		beq	.L67
 1115              		.loc 1 362 0 is_stmt 0 discriminator 1
 1116 0034 1548     		ldr	r0, .L70+4
 1117 0036 FFF7FEFF 		bl	chDbgPanic
 1118              	.L67:
 1119              		.loc 1 363 0 is_stmt 1
 1120 003a 039B     		ldr	r3, [sp, #12]
 1121 003c 5B68     		ldr	r3, [r3, #4]
 1122 003e 1B68     		ldr	r3, [r3]
 1123 0040 002B     		cmp	r3, #0
 1124 0042 02D0     		beq	.L68
 1125              		.loc 1 363 0 is_stmt 0 discriminator 1
 1126 0044 1248     		ldr	r0, .L70+8
 1127 0046 FFF7FEFF 		bl	chDbgPanic
 1128              	.L68:
 1129              		.loc 1 364 0 is_stmt 1
 1130 004a 039B     		ldr	r3, [sp, #12]
 1131 004c 0322     		movs	r2, #3
 1132 004e 1A70     		strb	r2, [r3]
 1133 0050 0398     		ldr	r0, [sp, #12]
 1134 0052 0299     		ldr	r1, [sp, #8]
 1135 0054 019A     		ldr	r2, [sp, #4]
 1136 0056 FFF7FEFF 		bl	spi_lld_send
 1137              		.loc 1 365 0
 1138 005a 039B     		ldr	r3, [sp, #12]
 1139 005c 9B68     		ldr	r3, [r3, #8]
 1140 005e 002B     		cmp	r3, #0
 1141 0060 02D0     		beq	.L69
 1142              		.loc 1 365 0 is_stmt 0 discriminator 1
 1143 0062 0C48     		ldr	r0, .L70+12
 1144 0064 FFF7FEFF 		bl	chDbgPanic
 1145              	.L69:
 1146              		.loc 1 365 0 discriminator 3
 1147 0068 0B4B     		ldr	r3, .L70+16
 1148 006a 9A69     		ldr	r2, [r3, #24]
 1149 006c 039B     		ldr	r3, [sp, #12]
 1150 006e 9A60     		str	r2, [r3, #8]
 1151 0070 0220     		movs	r0, #2
 1152 0072 FFF7FEFF 		bl	chSchGoSleepS
 1153              		.loc 1 366 0 is_stmt 1 discriminator 3
ARM GAS  /tmp/ccqoeBDi.s 			page 23


 1154 0076 FFF7FEFF 		bl	dbg_check_unlock
 1155              	.LBB23:
 1156 007a 0023     		movs	r3, #0
 1157              	@ 366 "/home/denny/r2p-sdk/core/ChibiOS/os/hal/src/spi.c" 1
 1158 007c 83F31188 		msr     BASEPRI, r3
 1159              	@ 0 "" 2
 1160              		.thumb
 1161              	.LBE23:
 1162              		.loc 1 367 0 discriminator 3
 1163 0080 05B0     		add	sp, sp, #20
 1164              		.cfi_def_cfa_offset 4
 1165              		@ sp needed
 1166 0082 5DF804FB 		ldr	pc, [sp], #4
 1167              	.L71:
 1168 0086 00BF     		.align	2
 1169              	.L70:
 1170 0088 AC010000 		.word	.LC23
 1171 008c B8010000 		.word	.LC24
 1172 0090 C8010000 		.word	.LC25
 1173 0094 64010000 		.word	.LC19
 1174 0098 00000000 		.word	rlist
 1175              		.cfi_endproc
 1176              	.LFE130:
 1177              		.size	spiSend, .-spiSend
 1178 009c AFF30080 		.section	.rodata
 1179 01d6 0000     		.align	2
 1180              	.LC26:
 1181 01d8 22737069 		.ascii	"\"spiReceive\"()\000"
 1181      52656365 
 1181      69766522 
 1181      282900
 1182 01e7 00       		.align	2
 1183              	.LC27:
 1184 01e8 73706952 		.ascii	"spiReceive(), #1\000"
 1184      65636569 
 1184      76652829 
 1184      2C202331 
 1184      00
 1185 01f9 000000   		.align	2
 1186              	.LC28:
 1187 01fc 73706952 		.ascii	"spiReceive(), #2\000"
 1187      65636569 
 1187      76652829 
 1187      2C202332 
 1187      00
 1188              		.section	.text.spiReceive,"ax",%progbits
 1189              		.align	2
 1190              		.p2align 4,,15
 1191              		.global	spiReceive
 1192              		.thumb
 1193              		.thumb_func
 1194              		.type	spiReceive, %function
 1195              	spiReceive:
 1196              	.LFB131:
 1197              		.loc 1 385 0
 1198              		.cfi_startproc
 1199              		@ args = 0, pretend = 0, frame = 16
ARM GAS  /tmp/ccqoeBDi.s 			page 24


 1200              		@ frame_needed = 0, uses_anonymous_args = 0
 1201 0000 00B5     		push	{lr}
 1202              		.cfi_def_cfa_offset 4
 1203              		.cfi_offset 14, -4
 1204 0002 85B0     		sub	sp, sp, #20
 1205              		.cfi_def_cfa_offset 24
 1206 0004 0390     		str	r0, [sp, #12]
 1207 0006 0291     		str	r1, [sp, #8]
 1208 0008 0192     		str	r2, [sp, #4]
 1209              		.loc 1 387 0
 1210 000a 039B     		ldr	r3, [sp, #12]
 1211 000c 002B     		cmp	r3, #0
 1212 000e 05D0     		beq	.L73
 1213              		.loc 1 387 0 is_stmt 0 discriminator 2
 1214 0010 029B     		ldr	r3, [sp, #8]
 1215 0012 002B     		cmp	r3, #0
 1216 0014 02D0     		beq	.L73
 1217              		.loc 1 387 0 discriminator 4
 1218 0016 019B     		ldr	r3, [sp, #4]
 1219 0018 002B     		cmp	r3, #0
 1220 001a 02D1     		bne	.L74
 1221              	.L73:
 1222              		.loc 1 387 0 discriminator 5
 1223 001c 1A48     		ldr	r0, .L78
 1224 001e FFF7FEFF 		bl	chDbgPanic
 1225              	.L74:
 1226              	.LBB24:
 1227              		.loc 1 390 0 is_stmt 1
 1228 0022 2023     		movs	r3, #32
 1229              	@ 390 "/home/denny/r2p-sdk/core/ChibiOS/os/hal/src/spi.c" 1
 1230 0024 83F31188 		msr     BASEPRI, r3
 1231              	@ 0 "" 2
 1232              		.thumb
 1233              	.LBE24:
 1234 0028 FFF7FEFF 		bl	dbg_check_lock
 1235              		.loc 1 391 0
 1236 002c 039B     		ldr	r3, [sp, #12]
 1237 002e 1B78     		ldrb	r3, [r3]	@ zero_extendqisi2
 1238 0030 022B     		cmp	r3, #2
 1239 0032 02D0     		beq	.L75
 1240              		.loc 1 391 0 is_stmt 0 discriminator 1
 1241 0034 1548     		ldr	r0, .L78+4
 1242 0036 FFF7FEFF 		bl	chDbgPanic
 1243              	.L75:
 1244              		.loc 1 392 0 is_stmt 1
 1245 003a 039B     		ldr	r3, [sp, #12]
 1246 003c 5B68     		ldr	r3, [r3, #4]
 1247 003e 1B68     		ldr	r3, [r3]
 1248 0040 002B     		cmp	r3, #0
 1249 0042 02D0     		beq	.L76
 1250              		.loc 1 392 0 is_stmt 0 discriminator 1
 1251 0044 1248     		ldr	r0, .L78+8
 1252 0046 FFF7FEFF 		bl	chDbgPanic
 1253              	.L76:
 1254              		.loc 1 394 0 is_stmt 1
 1255 004a 039B     		ldr	r3, [sp, #12]
 1256 004c 0322     		movs	r2, #3
ARM GAS  /tmp/ccqoeBDi.s 			page 25


 1257 004e 1A70     		strb	r2, [r3]
 1258 0050 0398     		ldr	r0, [sp, #12]
 1259 0052 0299     		ldr	r1, [sp, #8]
 1260 0054 019A     		ldr	r2, [sp, #4]
 1261 0056 FFF7FEFF 		bl	spi_lld_receive
 1262              		.loc 1 395 0
 1263 005a 039B     		ldr	r3, [sp, #12]
 1264 005c 9B68     		ldr	r3, [r3, #8]
 1265 005e 002B     		cmp	r3, #0
 1266 0060 02D0     		beq	.L77
 1267              		.loc 1 395 0 is_stmt 0 discriminator 1
 1268 0062 0C48     		ldr	r0, .L78+12
 1269 0064 FFF7FEFF 		bl	chDbgPanic
 1270              	.L77:
 1271              		.loc 1 395 0 discriminator 3
 1272 0068 0B4B     		ldr	r3, .L78+16
 1273 006a 9A69     		ldr	r2, [r3, #24]
 1274 006c 039B     		ldr	r3, [sp, #12]
 1275 006e 9A60     		str	r2, [r3, #8]
 1276 0070 0220     		movs	r0, #2
 1277 0072 FFF7FEFF 		bl	chSchGoSleepS
 1278              		.loc 1 396 0 is_stmt 1 discriminator 3
 1279 0076 FFF7FEFF 		bl	dbg_check_unlock
 1280              	.LBB25:
 1281 007a 0023     		movs	r3, #0
 1282              	@ 396 "/home/denny/r2p-sdk/core/ChibiOS/os/hal/src/spi.c" 1
 1283 007c 83F31188 		msr     BASEPRI, r3
 1284              	@ 0 "" 2
 1285              		.thumb
 1286              	.LBE25:
 1287              		.loc 1 397 0 discriminator 3
 1288 0080 05B0     		add	sp, sp, #20
 1289              		.cfi_def_cfa_offset 4
 1290              		@ sp needed
 1291 0082 5DF804FB 		ldr	pc, [sp], #4
 1292              	.L79:
 1293 0086 00BF     		.align	2
 1294              	.L78:
 1295 0088 D8010000 		.word	.LC26
 1296 008c E8010000 		.word	.LC27
 1297 0090 FC010000 		.word	.LC28
 1298 0094 64010000 		.word	.LC19
 1299 0098 00000000 		.word	rlist
 1300              		.cfi_endproc
 1301              	.LFE131:
 1302              		.size	spiReceive, .-spiReceive
 1303 009c AFF30080 		.section	.rodata
 1304 020d 000000   		.align	2
 1305              	.LC29:
 1306 0210 22737069 		.ascii	"\"spiAcquireBus\"()\000"
 1306      41637175 
 1306      69726542 
 1306      75732228 
 1306      2900
 1307              		.section	.text.spiAcquireBus,"ax",%progbits
 1308              		.align	2
 1309              		.p2align 4,,15
ARM GAS  /tmp/ccqoeBDi.s 			page 26


 1310              		.global	spiAcquireBus
 1311              		.thumb
 1312              		.thumb_func
 1313              		.type	spiAcquireBus, %function
 1314              	spiAcquireBus:
 1315              	.LFB132:
 1316              		.loc 1 412 0
 1317              		.cfi_startproc
 1318              		@ args = 0, pretend = 0, frame = 8
 1319              		@ frame_needed = 0, uses_anonymous_args = 0
 1320 0000 00B5     		push	{lr}
 1321              		.cfi_def_cfa_offset 4
 1322              		.cfi_offset 14, -4
 1323 0002 83B0     		sub	sp, sp, #12
 1324              		.cfi_def_cfa_offset 16
 1325 0004 0190     		str	r0, [sp, #4]
 1326              		.loc 1 414 0
 1327 0006 019B     		ldr	r3, [sp, #4]
 1328 0008 002B     		cmp	r3, #0
 1329 000a 02D1     		bne	.L81
 1330              		.loc 1 414 0 is_stmt 0 discriminator 1
 1331 000c 0548     		ldr	r0, .L82
 1332 000e FFF7FEFF 		bl	chDbgPanic
 1333              	.L81:
 1334              		.loc 1 417 0 is_stmt 1
 1335 0012 019B     		ldr	r3, [sp, #4]
 1336 0014 0C33     		adds	r3, r3, #12
 1337 0016 1846     		mov	r0, r3
 1338 0018 FFF7FEFF 		bl	chMtxLock
 1339              		.loc 1 421 0
 1340 001c 03B0     		add	sp, sp, #12
 1341              		.cfi_def_cfa_offset 4
 1342              		@ sp needed
 1343 001e 5DF804FB 		ldr	pc, [sp], #4
 1344              	.L83:
 1345 0022 00BF     		.align	2
 1346              	.L82:
 1347 0024 10020000 		.word	.LC29
 1348              		.cfi_endproc
 1349              	.LFE132:
 1350              		.size	spiAcquireBus, .-spiAcquireBus
 1351 0028 AFF30080 		.section	.rodata
 1351      AFF30080 
 1352 0222 0000     		.align	2
 1353              	.LC30:
 1354 0224 22737069 		.ascii	"\"spiReleaseBus\"()\000"
 1354      52656C65 
 1354      61736542 
 1354      75732228 
 1354      2900
 1355 0236 0000     		.section	.text.spiReleaseBus,"ax",%progbits
 1356              		.align	2
 1357              		.p2align 4,,15
 1358              		.global	spiReleaseBus
 1359              		.thumb
 1360              		.thumb_func
 1361              		.type	spiReleaseBus, %function
ARM GAS  /tmp/ccqoeBDi.s 			page 27


 1362              	spiReleaseBus:
 1363              	.LFB133:
 1364              		.loc 1 432 0
 1365              		.cfi_startproc
 1366              		@ args = 0, pretend = 0, frame = 8
 1367              		@ frame_needed = 0, uses_anonymous_args = 0
 1368 0000 00B5     		push	{lr}
 1369              		.cfi_def_cfa_offset 4
 1370              		.cfi_offset 14, -4
 1371 0002 83B0     		sub	sp, sp, #12
 1372              		.cfi_def_cfa_offset 16
 1373 0004 0190     		str	r0, [sp, #4]
 1374              		.loc 1 434 0
 1375 0006 019B     		ldr	r3, [sp, #4]
 1376 0008 002B     		cmp	r3, #0
 1377 000a 02D1     		bne	.L85
 1378              		.loc 1 434 0 is_stmt 0 discriminator 1
 1379 000c 0348     		ldr	r0, .L86
 1380 000e FFF7FEFF 		bl	chDbgPanic
 1381              	.L85:
 1382              		.loc 1 438 0 is_stmt 1
 1383 0012 FFF7FEFF 		bl	chMtxUnlock
 1384              		.loc 1 442 0
 1385 0016 03B0     		add	sp, sp, #12
 1386              		.cfi_def_cfa_offset 4
 1387              		@ sp needed
 1388 0018 5DF804FB 		ldr	pc, [sp], #4
 1389              	.L87:
 1390              		.align	2
 1391              	.L86:
 1392 001c 24020000 		.word	.LC30
 1393              		.cfi_endproc
 1394              	.LFE133:
 1395              		.size	spiReleaseBus, .-spiReleaseBus
 1396              		.text
 1397              	.Letext0:
 1398              		.file 2 "/home/denny/r2p-sdk/tools/gcc-arm-none-eabi-4_9-2014q4/lib/gcc/arm-none-eabi/4.9.3/includ
 1399              		.file 3 "/home/denny/r2p-sdk/tools/gcc-arm-none-eabi-4_9-2014q4/arm-none-eabi/include/machine/_def
 1400              		.file 4 "/home/denny/r2p-sdk/tools/gcc-arm-none-eabi-4_9-2014q4/arm-none-eabi/include/stdint.h"
 1401              		.file 5 "/home/denny/r2p-sdk/core/ChibiOS/os/ports/GCC/ARMCMx/chtypes.h"
 1402              		.file 6 "/home/denny/r2p-sdk/core/ChibiOS/os/kernel/include/chlists.h"
 1403              		.file 7 "/home/denny/r2p-sdk/core/ChibiOS/os/kernel/include/chthreads.h"
 1404              		.file 8 "/home/denny/r2p-sdk/core/ChibiOS/os/ports/GCC/ARMCMx/chcore_v7m.h"
 1405              		.file 9 "/home/denny/r2p-sdk/core/ChibiOS/os/kernel/include/chschd.h"
 1406              		.file 10 "/home/denny/r2p-sdk/core/ChibiOS/os/kernel/include/chmtx.h"
 1407              		.file 11 "/home/denny/r2p-sdk/core/ChibiOS/os/hal/platforms/STM32F30x/stm32f30x.h"
 1408              		.file 12 "/home/denny/r2p-sdk/core/ChibiOS/os/hal/platforms/STM32F30x/stm32_dma.h"
 1409              		.file 13 "/home/denny/r2p-sdk/core/ChibiOS/os/hal/platforms/STM32/GPIOv2/pal_lld.h"
 1410              		.file 14 "/home/denny/r2p-sdk/core/ChibiOS/os/hal/include/spi.h"
 1411              		.file 15 "/home/denny/r2p-sdk/core/ChibiOS/os/hal/platforms/STM32/SPIv2/spi_lld.h"
 1412              		.file 16 "/home/denny/r2p-sdk/core/ChibiOS/os/ports/common/ARMCMx/CMSIS/include/core_cm4.h"