ARM GAS  /tmp/ccdB90CG.s 			page 1


   1              		.syntax unified
   2              		.cpu cortex-m4
   3              		.eabi_attribute 27, 3
   4              		.eabi_attribute 28, 1
   5              		.fpu fpv4-sp-d16
   6              		.eabi_attribute 20, 1
   7              		.eabi_attribute 21, 1
   8              		.eabi_attribute 23, 3
   9              		.eabi_attribute 24, 1
  10              		.eabi_attribute 25, 1
  11              		.eabi_attribute 26, 1
  12              		.eabi_attribute 30, 6
  13              		.eabi_attribute 34, 1
  14              		.eabi_attribute 18, 4
  15              		.thumb
  16              		.file	"spi_lld.c"
  17              		.text
  18              	.Ltext0:
  19              		.cfi_sections	.debug_frame
  20              		.global	SPID2
  21              		.section	.bss.SPID2,"aw",%nobits
  22              		.align	2
  23              		.type	SPID2, %object
  24              		.size	SPID2, 48
  25              	SPID2:
  26 0000 00000000 		.space	48
  26      00000000 
  26      00000000 
  26      00000000 
  26      00000000 
  27              		.section	.bss.dummytx,"aw",%nobits
  28              		.align	1
  29              		.type	dummytx, %object
  30              		.size	dummytx, 2
  31              	dummytx:
  32 0000 0000     		.space	2
  33              		.section	.bss.dummyrx,"aw",%nobits
  34              		.align	1
  35              		.type	dummyrx, %object
  36              		.size	dummyrx, 2
  37              	dummyrx:
  38 0000 0000     		.space	2
  39              		.section	.text.spi_lld_serve_rx_interrupt,"ax",%progbits
  40              		.align	2
  41              		.p2align 4,,15
  42              		.thumb
  43              		.thumb_func
  44              		.type	spi_lld_serve_rx_interrupt, %function
  45              	spi_lld_serve_rx_interrupt:
  46              	.LFB118:
  47              		.file 1 "/home/ergae/r2p-sdk/core/ChibiOS/os/hal/platforms/STM32/SPIv2/spi_lld.c"
  48              		.loc 1 94 0
  49              		.cfi_startproc
  50              		@ args = 0, pretend = 0, frame = 16
  51              		@ frame_needed = 0, uses_anonymous_args = 0
  52 0000 00B5     		push	{lr}
  53              		.cfi_def_cfa_offset 4
ARM GAS  /tmp/ccdB90CG.s 			page 2


  54              		.cfi_offset 14, -4
  55 0002 85B0     		sub	sp, sp, #20
  56              		.cfi_def_cfa_offset 24
  57 0004 0190     		str	r0, [sp, #4]
  58 0006 0091     		str	r1, [sp]
  59              		.loc 1 98 0
  60 0008 009B     		ldr	r3, [sp]
  61 000a 03F00803 		and	r3, r3, #8
  62 000e 002B     		cmp	r3, #0
  63 0010 01D0     		beq	.L2
  64              		.loc 1 99 0
  65 0012 FFF7FEFF 		bl	port_halt
  66              	.L2:
  67              		.loc 1 106 0
  68 0016 019B     		ldr	r3, [sp, #4]
  69 0018 5B6A     		ldr	r3, [r3, #36]
  70 001a 1B68     		ldr	r3, [r3]
  71 001c 019A     		ldr	r2, [sp, #4]
  72 001e 526A     		ldr	r2, [r2, #36]
  73 0020 1268     		ldr	r2, [r2]
  74 0022 1268     		ldr	r2, [r2]
  75 0024 22F00F02 		bic	r2, r2, #15
  76 0028 1A60     		str	r2, [r3]
  77 002a 019B     		ldr	r3, [sp, #4]
  78 002c 5B6A     		ldr	r3, [r3, #36]
  79 002e 5B68     		ldr	r3, [r3, #4]
  80 0030 019A     		ldr	r2, [sp, #4]
  81 0032 526A     		ldr	r2, [r2, #36]
  82 0034 127A     		ldrb	r2, [r2, #8]	@ zero_extendqisi2
  83 0036 1146     		mov	r1, r2
  84 0038 0F22     		movs	r2, #15
  85 003a 8A40     		lsls	r2, r2, r1
  86 003c 1A60     		str	r2, [r3]
  87              		.loc 1 107 0
  88 003e 019B     		ldr	r3, [sp, #4]
  89 0040 1B6A     		ldr	r3, [r3, #32]
  90 0042 1B68     		ldr	r3, [r3]
  91 0044 019A     		ldr	r2, [sp, #4]
  92 0046 126A     		ldr	r2, [r2, #32]
  93 0048 1268     		ldr	r2, [r2]
  94 004a 1268     		ldr	r2, [r2]
  95 004c 22F00F02 		bic	r2, r2, #15
  96 0050 1A60     		str	r2, [r3]
  97 0052 019B     		ldr	r3, [sp, #4]
  98 0054 1B6A     		ldr	r3, [r3, #32]
  99 0056 5B68     		ldr	r3, [r3, #4]
 100 0058 019A     		ldr	r2, [sp, #4]
 101 005a 126A     		ldr	r2, [r2, #32]
 102 005c 127A     		ldrb	r2, [r2, #8]	@ zero_extendqisi2
 103 005e 1146     		mov	r1, r2
 104 0060 0F22     		movs	r2, #15
 105 0062 8A40     		lsls	r2, r2, r1
 106 0064 1A60     		str	r2, [r3]
 107              		.loc 1 111 0
 108 0066 019B     		ldr	r3, [sp, #4]
 109 0068 5B68     		ldr	r3, [r3, #4]
 110 006a 1B68     		ldr	r3, [r3]
ARM GAS  /tmp/ccdB90CG.s 			page 3


 111 006c 002B     		cmp	r3, #0
 112 006e 0FD0     		beq	.L3
 113              		.loc 1 111 0 is_stmt 0 discriminator 1
 114 0070 019B     		ldr	r3, [sp, #4]
 115 0072 0422     		movs	r2, #4
 116 0074 1A70     		strb	r2, [r3]
 117 0076 019B     		ldr	r3, [sp, #4]
 118 0078 5B68     		ldr	r3, [r3, #4]
 119 007a 1B68     		ldr	r3, [r3]
 120 007c 0198     		ldr	r0, [sp, #4]
 121 007e 9847     		blx	r3
 122 0080 019B     		ldr	r3, [sp, #4]
 123 0082 1B78     		ldrb	r3, [r3]	@ zero_extendqisi2
 124 0084 042B     		cmp	r3, #4
 125 0086 06D1     		bne	.L5
 126              		.loc 1 111 0 discriminator 3
 127 0088 019B     		ldr	r3, [sp, #4]
 128 008a 0222     		movs	r2, #2
 129 008c 1A70     		strb	r2, [r3]
 130 008e 02E0     		b	.L5
 131              	.L3:
 132              		.loc 1 111 0 discriminator 2
 133 0090 019B     		ldr	r3, [sp, #4]
 134 0092 0222     		movs	r2, #2
 135 0094 1A70     		strb	r2, [r3]
 136              	.L5:
 137              	.LBB2:
 138              		.loc 1 111 0 discriminator 4
 139 0096 2023     		movs	r3, #32
 140              	@ 111 "/home/ergae/r2p-sdk/core/ChibiOS/os/hal/platforms/STM32/SPIv2/spi_lld.c" 1
 141 0098 83F31188 		msr     BASEPRI, r3
 142              	@ 0 "" 2
 143              		.thumb
 144              	.LBE2:
 145 009c FFF7FEFF 		bl	dbg_check_lock_from_isr
 146 00a0 019B     		ldr	r3, [sp, #4]
 147 00a2 9B68     		ldr	r3, [r3, #8]
 148 00a4 002B     		cmp	r3, #0
 149 00a6 0BD0     		beq	.L6
 150              	.LBB3:
 151              		.loc 1 111 0 discriminator 5
 152 00a8 019B     		ldr	r3, [sp, #4]
 153 00aa 9B68     		ldr	r3, [r3, #8]
 154 00ac 0393     		str	r3, [sp, #12]
 155 00ae 019B     		ldr	r3, [sp, #4]
 156 00b0 0022     		movs	r2, #0
 157 00b2 9A60     		str	r2, [r3, #8]
 158 00b4 039B     		ldr	r3, [sp, #12]
 159 00b6 0022     		movs	r2, #0
 160 00b8 9A62     		str	r2, [r3, #40]
 161 00ba 0398     		ldr	r0, [sp, #12]
 162 00bc FFF7FEFF 		bl	chSchReadyI
 163              	.L6:
 164              	.LBE3:
 165              		.loc 1 111 0 discriminator 7
 166 00c0 FFF7FEFF 		bl	dbg_check_unlock_from_isr
 167              	.LBB4:
ARM GAS  /tmp/ccdB90CG.s 			page 4


 168 00c4 0023     		movs	r3, #0
 169              	@ 111 "/home/ergae/r2p-sdk/core/ChibiOS/os/hal/platforms/STM32/SPIv2/spi_lld.c" 1
 170 00c6 83F31188 		msr     BASEPRI, r3
 171              	@ 0 "" 2
 172              		.thumb
 173              	.LBE4:
 174              		.loc 1 112 0 is_stmt 1 discriminator 7
 175 00ca 05B0     		add	sp, sp, #20
 176              		.cfi_def_cfa_offset 4
 177              		@ sp needed
 178 00cc 5DF804FB 		ldr	pc, [sp], #4
 179              		.cfi_endproc
 180              	.LFE118:
 181              		.size	spi_lld_serve_rx_interrupt, .-spi_lld_serve_rx_interrupt
 182              		.section	.text.spi_lld_serve_tx_interrupt,"ax",%progbits
 183              		.align	2
 184              		.p2align 4,,15
 185              		.thumb
 186              		.thumb_func
 187              		.type	spi_lld_serve_tx_interrupt, %function
 188              	spi_lld_serve_tx_interrupt:
 189              	.LFB119:
 190              		.loc 1 120 0
 191              		.cfi_startproc
 192              		@ args = 0, pretend = 0, frame = 8
 193              		@ frame_needed = 0, uses_anonymous_args = 0
 194 0000 00B5     		push	{lr}
 195              		.cfi_def_cfa_offset 4
 196              		.cfi_offset 14, -4
 197 0002 83B0     		sub	sp, sp, #12
 198              		.cfi_def_cfa_offset 16
 199 0004 0190     		str	r0, [sp, #4]
 200 0006 0091     		str	r1, [sp]
 201              		.loc 1 125 0
 202 0008 009B     		ldr	r3, [sp]
 203 000a 03F00803 		and	r3, r3, #8
 204 000e 002B     		cmp	r3, #0
 205 0010 01D0     		beq	.L7
 206              		.loc 1 126 0
 207 0012 FFF7FEFF 		bl	port_halt
 208              	.L7:
 209              		.loc 1 132 0
 210 0016 03B0     		add	sp, sp, #12
 211              		.cfi_def_cfa_offset 4
 212              		@ sp needed
 213 0018 5DF804FB 		ldr	pc, [sp], #4
 214              		.cfi_endproc
 215              	.LFE119:
 216              		.size	spi_lld_serve_tx_interrupt, .-spi_lld_serve_tx_interrupt
 217 001c AFF30080 		.section	.text.spi_lld_init,"ax",%progbits
 218              		.align	2
 219              		.p2align 4,,15
 220              		.global	spi_lld_init
 221              		.thumb
 222              		.thumb_func
 223              		.type	spi_lld_init, %function
 224              	spi_lld_init:
ARM GAS  /tmp/ccdB90CG.s 			page 5


 225              	.LFB120:
 226              		.loc 1 147 0
 227              		.cfi_startproc
 228              		@ args = 0, pretend = 0, frame = 0
 229              		@ frame_needed = 0, uses_anonymous_args = 0
 230 0000 08B5     		push	{r3, lr}
 231              		.cfi_def_cfa_offset 8
 232              		.cfi_offset 3, -8
 233              		.cfi_offset 14, -4
 234              		.loc 1 149 0
 235 0002 0C4B     		ldr	r3, .L10
 236 0004 4FF6FF72 		movw	r2, #65535
 237 0008 1A80     		strh	r2, [r3]	@ movhi
 238              		.loc 1 170 0
 239 000a 0B48     		ldr	r0, .L10+4
 240 000c FFF7FEFF 		bl	spiObjectInit
 241              		.loc 1 171 0
 242 0010 094B     		ldr	r3, .L10+4
 243 0012 0A4A     		ldr	r2, .L10+8
 244 0014 DA61     		str	r2, [r3, #28]
 245              		.loc 1 172 0
 246 0016 084B     		ldr	r3, .L10+4
 247 0018 094A     		ldr	r2, .L10+12
 248 001a 1A62     		str	r2, [r3, #32]
 249              		.loc 1 173 0
 250 001c 064B     		ldr	r3, .L10+4
 251 001e 094A     		ldr	r2, .L10+16
 252 0020 5A62     		str	r2, [r3, #36]
 253              		.loc 1 174 0
 254 0022 054B     		ldr	r3, .L10+4
 255 0024 41F20A02 		movw	r2, #4106
 256 0028 9A62     		str	r2, [r3, #40]
 257              		.loc 1 180 0
 258 002a 034B     		ldr	r3, .L10+4
 259 002c 41F21802 		movw	r2, #4120
 260 0030 DA62     		str	r2, [r3, #44]
 261              		.loc 1 204 0
 262 0032 08BD     		pop	{r3, pc}
 263              	.L11:
 264              		.align	2
 265              	.L10:
 266 0034 00000000 		.word	dummytx
 267 0038 00000000 		.word	SPID2
 268 003c 00380040 		.word	1073756160
 269 0040 24000000 		.word	_stm32_dma_streams+36
 270 0044 30000000 		.word	_stm32_dma_streams+48
 271              		.cfi_endproc
 272              	.LFE120:
 273              		.size	spi_lld_init, .-spi_lld_init
 274 0048 AFF30080 		.section	.rodata
 274      AFF30080 
 275              		.align	2
 276              	.LC0:
 277 0000 7370695F 		.ascii	"spi_lld_start(), #3\000"
 277      6C6C645F 
 277      73746172 
 277      7428292C 
ARM GAS  /tmp/ccdB90CG.s 			page 6


 277      20233300 
 278              		.align	2
 279              	.LC1:
 280 0014 7370695F 		.ascii	"spi_lld_start(), #4\000"
 280      6C6C645F 
 280      73746172 
 280      7428292C 
 280      20233400 
 281              		.section	.text.spi_lld_start,"ax",%progbits
 282              		.align	2
 283              		.p2align 4,,15
 284              		.global	spi_lld_start
 285              		.thumb
 286              		.thumb_func
 287              		.type	spi_lld_start, %function
 288              	spi_lld_start:
 289              	.LFB121:
 290              		.loc 1 213 0
 291              		.cfi_startproc
 292              		@ args = 0, pretend = 0, frame = 16
 293              		@ frame_needed = 0, uses_anonymous_args = 0
 294 0000 00B5     		push	{lr}
 295              		.cfi_def_cfa_offset 4
 296              		.cfi_offset 14, -4
 297 0002 85B0     		sub	sp, sp, #20
 298              		.cfi_def_cfa_offset 24
 299 0004 0190     		str	r0, [sp, #4]
 300              		.loc 1 217 0
 301 0006 019B     		ldr	r3, [sp, #4]
 302 0008 1B78     		ldrb	r3, [r3]	@ zero_extendqisi2
 303 000a 012B     		cmp	r3, #1
 304 000c 3BD1     		bne	.L13
 305              		.loc 1 235 0
 306 000e 019B     		ldr	r3, [sp, #4]
 307 0010 444A     		ldr	r2, .L20
 308 0012 9342     		cmp	r3, r2
 309 0014 29D1     		bne	.L14
 310              	.LBB5:
 311              		.loc 1 237 0
 312 0016 019B     		ldr	r3, [sp, #4]
 313 0018 1B6A     		ldr	r3, [r3, #32]
 314 001a 1846     		mov	r0, r3
 315 001c 0A21     		movs	r1, #10
 316 001e 424A     		ldr	r2, .L20+4
 317 0020 019B     		ldr	r3, [sp, #4]
 318 0022 FFF7FEFF 		bl	dmaStreamAllocate
 319 0026 0346     		mov	r3, r0
 320 0028 8DF80F30 		strb	r3, [sp, #15]
 321              		.loc 1 241 0
 322 002c 9DF80F30 		ldrb	r3, [sp, #15]	@ zero_extendqisi2
 323 0030 002B     		cmp	r3, #0
 324 0032 02D0     		beq	.L15
 325              		.loc 1 241 0 is_stmt 0 discriminator 1
 326 0034 3D48     		ldr	r0, .L20+8
 327 0036 FFF7FEFF 		bl	chDbgPanic
 328              	.L15:
 329              		.loc 1 242 0 is_stmt 1
ARM GAS  /tmp/ccdB90CG.s 			page 7


 330 003a 019B     		ldr	r3, [sp, #4]
 331 003c 5B6A     		ldr	r3, [r3, #36]
 332 003e 1846     		mov	r0, r3
 333 0040 0A21     		movs	r1, #10
 334 0042 3B4A     		ldr	r2, .L20+12
 335 0044 019B     		ldr	r3, [sp, #4]
 336 0046 FFF7FEFF 		bl	dmaStreamAllocate
 337 004a 0346     		mov	r3, r0
 338 004c 8DF80F30 		strb	r3, [sp, #15]
 339              		.loc 1 246 0
 340 0050 9DF80F30 		ldrb	r3, [sp, #15]	@ zero_extendqisi2
 341 0054 002B     		cmp	r3, #0
 342 0056 02D0     		beq	.L16
 343              		.loc 1 246 0 is_stmt 0 discriminator 1
 344 0058 3648     		ldr	r0, .L20+16
 345 005a FFF7FEFF 		bl	chDbgPanic
 346              	.L16:
 347              		.loc 1 247 0 is_stmt 1
 348 005e 364A     		ldr	r2, .L20+20
 349 0060 354B     		ldr	r3, .L20+20
 350 0062 DB69     		ldr	r3, [r3, #28]
 351 0064 43F48043 		orr	r3, r3, #16384
 352 0068 D361     		str	r3, [r2, #28]
 353              	.L14:
 354              	.LBE5:
 355              		.loc 1 268 0
 356 006a 019B     		ldr	r3, [sp, #4]
 357 006c 1B6A     		ldr	r3, [r3, #32]
 358 006e 1B68     		ldr	r3, [r3]
 359 0070 019A     		ldr	r2, [sp, #4]
 360 0072 D269     		ldr	r2, [r2, #28]
 361 0074 0C32     		adds	r2, r2, #12
 362 0076 9A60     		str	r2, [r3, #8]
 363              		.loc 1 269 0
 364 0078 019B     		ldr	r3, [sp, #4]
 365 007a 5B6A     		ldr	r3, [r3, #36]
 366 007c 1B68     		ldr	r3, [r3]
 367 007e 019A     		ldr	r2, [sp, #4]
 368 0080 D269     		ldr	r2, [r2, #28]
 369 0082 0C32     		adds	r2, r2, #12
 370 0084 9A60     		str	r2, [r3, #8]
 371              	.L13:
 372              		.loc 1 273 0
 373 0086 019B     		ldr	r3, [sp, #4]
 374 0088 5B68     		ldr	r3, [r3, #4]
 375 008a 9B89     		ldrh	r3, [r3, #12]
 376 008c 03F47063 		and	r3, r3, #3840
 377 0090 0293     		str	r3, [sp, #8]
 378              		.loc 1 274 0
 379 0092 029B     		ldr	r3, [sp, #8]
 380 0094 002B     		cmp	r3, #0
 381 0096 03D0     		beq	.L17
 382              		.loc 1 274 0 is_stmt 0 discriminator 1
 383 0098 029B     		ldr	r3, [sp, #8]
 384 009a B3F5E06F 		cmp	r3, #1792
 385 009e 0CD8     		bhi	.L18
 386              	.L17:
ARM GAS  /tmp/ccdB90CG.s 			page 8


 387              		.loc 1 276 0 is_stmt 1
 388 00a0 019B     		ldr	r3, [sp, #4]
 389 00a2 9B6A     		ldr	r3, [r3, #40]
 390              		.loc 1 277 0
 391 00a4 23F47062 		bic	r2, r3, #3840
 392              		.loc 1 276 0
 393 00a8 019B     		ldr	r3, [sp, #4]
 394 00aa 9A62     		str	r2, [r3, #40]
 395              		.loc 1 278 0
 396 00ac 019B     		ldr	r3, [sp, #4]
 397 00ae DB6A     		ldr	r3, [r3, #44]
 398              		.loc 1 279 0
 399 00b0 23F47062 		bic	r2, r3, #3840
 400              		.loc 1 278 0
 401 00b4 019B     		ldr	r3, [sp, #4]
 402 00b6 DA62     		str	r2, [r3, #44]
 403 00b8 0FE0     		b	.L19
 404              	.L18:
 405              		.loc 1 283 0
 406 00ba 019B     		ldr	r3, [sp, #4]
 407 00bc 9B6A     		ldr	r3, [r3, #40]
 408 00be 23F47063 		bic	r3, r3, #3840
 409              		.loc 1 284 0
 410 00c2 43F4A062 		orr	r2, r3, #1280
 411              		.loc 1 283 0
 412 00c6 019B     		ldr	r3, [sp, #4]
 413 00c8 9A62     		str	r2, [r3, #40]
 414              		.loc 1 285 0
 415 00ca 019B     		ldr	r3, [sp, #4]
 416 00cc DB6A     		ldr	r3, [r3, #44]
 417 00ce 23F47063 		bic	r3, r3, #3840
 418              		.loc 1 286 0
 419 00d2 43F4A062 		orr	r2, r3, #1280
 420              		.loc 1 285 0
 421 00d6 019B     		ldr	r3, [sp, #4]
 422 00d8 DA62     		str	r2, [r3, #44]
 423              	.L19:
 424              		.loc 1 289 0
 425 00da 019B     		ldr	r3, [sp, #4]
 426 00dc DB69     		ldr	r3, [r3, #28]
 427 00de 0022     		movs	r2, #0
 428 00e0 1A80     		strh	r2, [r3]	@ movhi
 429              		.loc 1 290 0
 430 00e2 019B     		ldr	r3, [sp, #4]
 431 00e4 DB69     		ldr	r3, [r3, #28]
 432 00e6 019A     		ldr	r2, [sp, #4]
 433 00e8 5268     		ldr	r2, [r2, #4]
 434 00ea 5289     		ldrh	r2, [r2, #10]
 435 00ec 42F44172 		orr	r2, r2, #772
 436 00f0 92B2     		uxth	r2, r2
 437 00f2 1A80     		strh	r2, [r3]	@ movhi
 438              		.loc 1 292 0
 439 00f4 019B     		ldr	r3, [sp, #4]
 440 00f6 DA69     		ldr	r2, [r3, #28]
 441 00f8 019B     		ldr	r3, [sp, #4]
 442 00fa 5B68     		ldr	r3, [r3, #4]
 443 00fc 9B89     		ldrh	r3, [r3, #12]
ARM GAS  /tmp/ccdB90CG.s 			page 9


 444 00fe 43F48053 		orr	r3, r3, #4096
 445 0102 43F00703 		orr	r3, r3, #7
 446 0106 9BB2     		uxth	r3, r3
 447 0108 9380     		strh	r3, [r2, #4]	@ movhi
 448              		.loc 1 294 0
 449 010a 019B     		ldr	r3, [sp, #4]
 450 010c DB69     		ldr	r3, [r3, #28]
 451 010e 019A     		ldr	r2, [sp, #4]
 452 0110 D269     		ldr	r2, [r2, #28]
 453 0112 1288     		ldrh	r2, [r2]	@ movhi
 454 0114 92B2     		uxth	r2, r2
 455 0116 42F04002 		orr	r2, r2, #64
 456 011a 92B2     		uxth	r2, r2
 457 011c 1A80     		strh	r2, [r3]	@ movhi
 458              		.loc 1 295 0
 459 011e 05B0     		add	sp, sp, #20
 460              		.cfi_def_cfa_offset 4
 461              		@ sp needed
 462 0120 5DF804FB 		ldr	pc, [sp], #4
 463              	.L21:
 464              		.align	2
 465              	.L20:
 466 0124 00000000 		.word	SPID2
 467 0128 00000000 		.word	spi_lld_serve_rx_interrupt
 468 012c 00000000 		.word	.LC0
 469 0130 00000000 		.word	spi_lld_serve_tx_interrupt
 470 0134 14000000 		.word	.LC1
 471 0138 00100240 		.word	1073876992
 472              		.cfi_endproc
 473              	.LFE121:
 474              		.size	spi_lld_start, .-spi_lld_start
 475 013c AFF30080 		.section	.text.spi_lld_stop,"ax",%progbits
 476              		.align	2
 477              		.p2align 4,,15
 478              		.global	spi_lld_stop
 479              		.thumb
 480              		.thumb_func
 481              		.type	spi_lld_stop, %function
 482              	spi_lld_stop:
 483              	.LFB122:
 484              		.loc 1 304 0
 485              		.cfi_startproc
 486              		@ args = 0, pretend = 0, frame = 8
 487              		@ frame_needed = 0, uses_anonymous_args = 0
 488 0000 00B5     		push	{lr}
 489              		.cfi_def_cfa_offset 4
 490              		.cfi_offset 14, -4
 491 0002 83B0     		sub	sp, sp, #12
 492              		.cfi_def_cfa_offset 16
 493 0004 0190     		str	r0, [sp, #4]
 494              		.loc 1 307 0
 495 0006 019B     		ldr	r3, [sp, #4]
 496 0008 1B78     		ldrb	r3, [r3]	@ zero_extendqisi2
 497 000a 022B     		cmp	r3, #2
 498 000c 1BD1     		bne	.L22
 499              		.loc 1 310 0
 500 000e 019B     		ldr	r3, [sp, #4]
ARM GAS  /tmp/ccdB90CG.s 			page 10


 501 0010 DB69     		ldr	r3, [r3, #28]
 502 0012 0022     		movs	r2, #0
 503 0014 1A80     		strh	r2, [r3]	@ movhi
 504              		.loc 1 311 0
 505 0016 019B     		ldr	r3, [sp, #4]
 506 0018 DB69     		ldr	r3, [r3, #28]
 507 001a 0022     		movs	r2, #0
 508 001c 9A80     		strh	r2, [r3, #4]	@ movhi
 509              		.loc 1 312 0
 510 001e 019B     		ldr	r3, [sp, #4]
 511 0020 1B6A     		ldr	r3, [r3, #32]
 512 0022 1846     		mov	r0, r3
 513 0024 FFF7FEFF 		bl	dmaStreamRelease
 514              		.loc 1 313 0
 515 0028 019B     		ldr	r3, [sp, #4]
 516 002a 5B6A     		ldr	r3, [r3, #36]
 517 002c 1846     		mov	r0, r3
 518 002e FFF7FEFF 		bl	dmaStreamRelease
 519              		.loc 1 320 0
 520 0032 019B     		ldr	r3, [sp, #4]
 521 0034 054A     		ldr	r2, .L24
 522 0036 9342     		cmp	r3, r2
 523 0038 05D1     		bne	.L22
 524              		.loc 1 321 0
 525 003a 054A     		ldr	r2, .L24+4
 526 003c 044B     		ldr	r3, .L24+4
 527 003e DB69     		ldr	r3, [r3, #28]
 528 0040 23F48043 		bic	r3, r3, #16384
 529 0044 D361     		str	r3, [r2, #28]
 530              	.L22:
 531              		.loc 1 328 0
 532 0046 03B0     		add	sp, sp, #12
 533              		.cfi_def_cfa_offset 4
 534              		@ sp needed
 535 0048 5DF804FB 		ldr	pc, [sp], #4
 536              	.L25:
 537              		.align	2
 538              	.L24:
 539 004c 00000000 		.word	SPID2
 540 0050 00100240 		.word	1073876992
 541              		.cfi_endproc
 542              	.LFE122:
 543              		.size	spi_lld_stop, .-spi_lld_stop
 544 0054 AFF30080 		.section	.text.spi_lld_select,"ax",%progbits
 544      AFF30080 
 544      AFF30080 
 545              		.align	2
 546              		.p2align 4,,15
 547              		.global	spi_lld_select
 548              		.thumb
 549              		.thumb_func
 550              		.type	spi_lld_select, %function
 551              	spi_lld_select:
 552              	.LFB123:
 553              		.loc 1 337 0
 554              		.cfi_startproc
 555              		@ args = 0, pretend = 0, frame = 8
ARM GAS  /tmp/ccdB90CG.s 			page 11


 556              		@ frame_needed = 0, uses_anonymous_args = 0
 557              		@ link register save eliminated.
 558 0000 82B0     		sub	sp, sp, #8
 559              		.cfi_def_cfa_offset 8
 560 0002 0190     		str	r0, [sp, #4]
 561              		.loc 1 339 0
 562 0004 019B     		ldr	r3, [sp, #4]
 563 0006 5B68     		ldr	r3, [r3, #4]
 564 0008 5B68     		ldr	r3, [r3, #4]
 565 000a 019A     		ldr	r2, [sp, #4]
 566 000c 5268     		ldr	r2, [r2, #4]
 567 000e 1289     		ldrh	r2, [r2, #8]
 568 0010 1146     		mov	r1, r2
 569 0012 0122     		movs	r2, #1
 570 0014 8A40     		lsls	r2, r2, r1
 571 0016 92B2     		uxth	r2, r2
 572 0018 5A83     		strh	r2, [r3, #26]	@ movhi
 573              		.loc 1 340 0
 574 001a 02B0     		add	sp, sp, #8
 575              		.cfi_def_cfa_offset 0
 576              		@ sp needed
 577 001c 7047     		bx	lr
 578              		.cfi_endproc
 579              	.LFE123:
 580              		.size	spi_lld_select, .-spi_lld_select
 581 001e 00BF     		.section	.text.spi_lld_unselect,"ax",%progbits
 582              		.align	2
 583              		.p2align 4,,15
 584              		.global	spi_lld_unselect
 585              		.thumb
 586              		.thumb_func
 587              		.type	spi_lld_unselect, %function
 588              	spi_lld_unselect:
 589              	.LFB124:
 590              		.loc 1 350 0
 591              		.cfi_startproc
 592              		@ args = 0, pretend = 0, frame = 8
 593              		@ frame_needed = 0, uses_anonymous_args = 0
 594              		@ link register save eliminated.
 595 0000 82B0     		sub	sp, sp, #8
 596              		.cfi_def_cfa_offset 8
 597 0002 0190     		str	r0, [sp, #4]
 598              		.loc 1 352 0
 599 0004 019B     		ldr	r3, [sp, #4]
 600 0006 5B68     		ldr	r3, [r3, #4]
 601 0008 5B68     		ldr	r3, [r3, #4]
 602 000a 019A     		ldr	r2, [sp, #4]
 603 000c 5268     		ldr	r2, [r2, #4]
 604 000e 1289     		ldrh	r2, [r2, #8]
 605 0010 1146     		mov	r1, r2
 606 0012 0122     		movs	r2, #1
 607 0014 8A40     		lsls	r2, r2, r1
 608 0016 92B2     		uxth	r2, r2
 609 0018 1A83     		strh	r2, [r3, #24]	@ movhi
 610              		.loc 1 353 0
 611 001a 02B0     		add	sp, sp, #8
 612              		.cfi_def_cfa_offset 0
ARM GAS  /tmp/ccdB90CG.s 			page 12


 613              		@ sp needed
 614 001c 7047     		bx	lr
 615              		.cfi_endproc
 616              	.LFE124:
 617              		.size	spi_lld_unselect, .-spi_lld_unselect
 618 001e 00BF     		.section	.text.spi_lld_ignore,"ax",%progbits
 619              		.align	2
 620              		.p2align 4,,15
 621              		.global	spi_lld_ignore
 622              		.thumb
 623              		.thumb_func
 624              		.type	spi_lld_ignore, %function
 625              	spi_lld_ignore:
 626              	.LFB125:
 627              		.loc 1 366 0
 628              		.cfi_startproc
 629              		@ args = 0, pretend = 0, frame = 8
 630              		@ frame_needed = 0, uses_anonymous_args = 0
 631              		@ link register save eliminated.
 632 0000 82B0     		sub	sp, sp, #8
 633              		.cfi_def_cfa_offset 8
 634 0002 0190     		str	r0, [sp, #4]
 635 0004 0091     		str	r1, [sp]
 636              		.loc 1 368 0
 637 0006 019B     		ldr	r3, [sp, #4]
 638 0008 1B6A     		ldr	r3, [r3, #32]
 639 000a 1B68     		ldr	r3, [r3]
 640 000c 194A     		ldr	r2, .L29
 641 000e DA60     		str	r2, [r3, #12]
 642              		.loc 1 369 0
 643 0010 019B     		ldr	r3, [sp, #4]
 644 0012 1B6A     		ldr	r3, [r3, #32]
 645 0014 1B68     		ldr	r3, [r3]
 646 0016 009A     		ldr	r2, [sp]
 647 0018 5A60     		str	r2, [r3, #4]
 648              		.loc 1 370 0
 649 001a 019B     		ldr	r3, [sp, #4]
 650 001c 1B6A     		ldr	r3, [r3, #32]
 651 001e 1B68     		ldr	r3, [r3]
 652 0020 019A     		ldr	r2, [sp, #4]
 653 0022 926A     		ldr	r2, [r2, #40]
 654 0024 1A60     		str	r2, [r3]
 655              		.loc 1 372 0
 656 0026 019B     		ldr	r3, [sp, #4]
 657 0028 5B6A     		ldr	r3, [r3, #36]
 658 002a 1B68     		ldr	r3, [r3]
 659 002c 124A     		ldr	r2, .L29+4
 660 002e DA60     		str	r2, [r3, #12]
 661              		.loc 1 373 0
 662 0030 019B     		ldr	r3, [sp, #4]
 663 0032 5B6A     		ldr	r3, [r3, #36]
 664 0034 1B68     		ldr	r3, [r3]
 665 0036 009A     		ldr	r2, [sp]
 666 0038 5A60     		str	r2, [r3, #4]
 667              		.loc 1 374 0
 668 003a 019B     		ldr	r3, [sp, #4]
 669 003c 5B6A     		ldr	r3, [r3, #36]
ARM GAS  /tmp/ccdB90CG.s 			page 13


 670 003e 1B68     		ldr	r3, [r3]
 671 0040 019A     		ldr	r2, [sp, #4]
 672 0042 D26A     		ldr	r2, [r2, #44]
 673 0044 1A60     		str	r2, [r3]
 674              		.loc 1 376 0
 675 0046 019B     		ldr	r3, [sp, #4]
 676 0048 1B6A     		ldr	r3, [r3, #32]
 677 004a 1B68     		ldr	r3, [r3]
 678 004c 019A     		ldr	r2, [sp, #4]
 679 004e 126A     		ldr	r2, [r2, #32]
 680 0050 1268     		ldr	r2, [r2]
 681 0052 1268     		ldr	r2, [r2]
 682 0054 42F00102 		orr	r2, r2, #1
 683 0058 1A60     		str	r2, [r3]
 684              		.loc 1 377 0
 685 005a 019B     		ldr	r3, [sp, #4]
 686 005c 5B6A     		ldr	r3, [r3, #36]
 687 005e 1B68     		ldr	r3, [r3]
 688 0060 019A     		ldr	r2, [sp, #4]
 689 0062 526A     		ldr	r2, [r2, #36]
 690 0064 1268     		ldr	r2, [r2]
 691 0066 1268     		ldr	r2, [r2]
 692 0068 42F00102 		orr	r2, r2, #1
 693 006c 1A60     		str	r2, [r3]
 694              		.loc 1 378 0
 695 006e 02B0     		add	sp, sp, #8
 696              		.cfi_def_cfa_offset 0
 697              		@ sp needed
 698 0070 7047     		bx	lr
 699              	.L30:
 700 0072 00BF     		.align	2
 701              	.L29:
 702 0074 00000000 		.word	dummyrx
 703 0078 00000000 		.word	dummytx
 704              		.cfi_endproc
 705              	.LFE125:
 706              		.size	spi_lld_ignore, .-spi_lld_ignore
 707 007c AFF30080 		.section	.text.spi_lld_exchange,"ax",%progbits
 708              		.align	2
 709              		.p2align 4,,15
 710              		.global	spi_lld_exchange
 711              		.thumb
 712              		.thumb_func
 713              		.type	spi_lld_exchange, %function
 714              	spi_lld_exchange:
 715              	.LFB126:
 716              		.loc 1 396 0
 717              		.cfi_startproc
 718              		@ args = 0, pretend = 0, frame = 16
 719              		@ frame_needed = 0, uses_anonymous_args = 0
 720              		@ link register save eliminated.
 721 0000 84B0     		sub	sp, sp, #16
 722              		.cfi_def_cfa_offset 16
 723 0002 0390     		str	r0, [sp, #12]
 724 0004 0291     		str	r1, [sp, #8]
 725 0006 0192     		str	r2, [sp, #4]
 726 0008 0093     		str	r3, [sp]
ARM GAS  /tmp/ccdB90CG.s 			page 14


 727              		.loc 1 398 0
 728 000a 039B     		ldr	r3, [sp, #12]
 729 000c 1B6A     		ldr	r3, [r3, #32]
 730 000e 1B68     		ldr	r3, [r3]
 731 0010 009A     		ldr	r2, [sp]
 732 0012 DA60     		str	r2, [r3, #12]
 733              		.loc 1 399 0
 734 0014 039B     		ldr	r3, [sp, #12]
 735 0016 1B6A     		ldr	r3, [r3, #32]
 736 0018 1B68     		ldr	r3, [r3]
 737 001a 029A     		ldr	r2, [sp, #8]
 738 001c 5A60     		str	r2, [r3, #4]
 739              		.loc 1 400 0
 740 001e 039B     		ldr	r3, [sp, #12]
 741 0020 1B6A     		ldr	r3, [r3, #32]
 742 0022 1B68     		ldr	r3, [r3]
 743 0024 039A     		ldr	r2, [sp, #12]
 744 0026 926A     		ldr	r2, [r2, #40]
 745 0028 42F08002 		orr	r2, r2, #128
 746 002c 1A60     		str	r2, [r3]
 747              		.loc 1 402 0
 748 002e 039B     		ldr	r3, [sp, #12]
 749 0030 5B6A     		ldr	r3, [r3, #36]
 750 0032 1B68     		ldr	r3, [r3]
 751 0034 019A     		ldr	r2, [sp, #4]
 752 0036 DA60     		str	r2, [r3, #12]
 753              		.loc 1 403 0
 754 0038 039B     		ldr	r3, [sp, #12]
 755 003a 5B6A     		ldr	r3, [r3, #36]
 756 003c 1B68     		ldr	r3, [r3]
 757 003e 029A     		ldr	r2, [sp, #8]
 758 0040 5A60     		str	r2, [r3, #4]
 759              		.loc 1 404 0
 760 0042 039B     		ldr	r3, [sp, #12]
 761 0044 5B6A     		ldr	r3, [r3, #36]
 762 0046 1B68     		ldr	r3, [r3]
 763 0048 039A     		ldr	r2, [sp, #12]
 764 004a D26A     		ldr	r2, [r2, #44]
 765 004c 42F08002 		orr	r2, r2, #128
 766 0050 1A60     		str	r2, [r3]
 767              		.loc 1 406 0
 768 0052 039B     		ldr	r3, [sp, #12]
 769 0054 1B6A     		ldr	r3, [r3, #32]
 770 0056 1B68     		ldr	r3, [r3]
 771 0058 039A     		ldr	r2, [sp, #12]
 772 005a 126A     		ldr	r2, [r2, #32]
 773 005c 1268     		ldr	r2, [r2]
 774 005e 1268     		ldr	r2, [r2]
 775 0060 42F00102 		orr	r2, r2, #1
 776 0064 1A60     		str	r2, [r3]
 777              		.loc 1 407 0
 778 0066 039B     		ldr	r3, [sp, #12]
 779 0068 5B6A     		ldr	r3, [r3, #36]
 780 006a 1B68     		ldr	r3, [r3]
 781 006c 039A     		ldr	r2, [sp, #12]
 782 006e 526A     		ldr	r2, [r2, #36]
 783 0070 1268     		ldr	r2, [r2]
ARM GAS  /tmp/ccdB90CG.s 			page 15


 784 0072 1268     		ldr	r2, [r2]
 785 0074 42F00102 		orr	r2, r2, #1
 786 0078 1A60     		str	r2, [r3]
 787              		.loc 1 408 0
 788 007a 04B0     		add	sp, sp, #16
 789              		.cfi_def_cfa_offset 0
 790              		@ sp needed
 791 007c 7047     		bx	lr
 792              		.cfi_endproc
 793              	.LFE126:
 794              		.size	spi_lld_exchange, .-spi_lld_exchange
 795 007e 00BF     		.section	.text.spi_lld_send,"ax",%progbits
 796              		.align	2
 797              		.p2align 4,,15
 798              		.global	spi_lld_send
 799              		.thumb
 800              		.thumb_func
 801              		.type	spi_lld_send, %function
 802              	spi_lld_send:
 803              	.LFB127:
 804              		.loc 1 423 0
 805              		.cfi_startproc
 806              		@ args = 0, pretend = 0, frame = 16
 807              		@ frame_needed = 0, uses_anonymous_args = 0
 808              		@ link register save eliminated.
 809 0000 84B0     		sub	sp, sp, #16
 810              		.cfi_def_cfa_offset 16
 811 0002 0390     		str	r0, [sp, #12]
 812 0004 0291     		str	r1, [sp, #8]
 813 0006 0192     		str	r2, [sp, #4]
 814              		.loc 1 425 0
 815 0008 039B     		ldr	r3, [sp, #12]
 816 000a 1B6A     		ldr	r3, [r3, #32]
 817 000c 1B68     		ldr	r3, [r3]
 818 000e 1A4A     		ldr	r2, .L33
 819 0010 DA60     		str	r2, [r3, #12]
 820              		.loc 1 426 0
 821 0012 039B     		ldr	r3, [sp, #12]
 822 0014 1B6A     		ldr	r3, [r3, #32]
 823 0016 1B68     		ldr	r3, [r3]
 824 0018 029A     		ldr	r2, [sp, #8]
 825 001a 5A60     		str	r2, [r3, #4]
 826              		.loc 1 427 0
 827 001c 039B     		ldr	r3, [sp, #12]
 828 001e 1B6A     		ldr	r3, [r3, #32]
 829 0020 1B68     		ldr	r3, [r3]
 830 0022 039A     		ldr	r2, [sp, #12]
 831 0024 926A     		ldr	r2, [r2, #40]
 832 0026 1A60     		str	r2, [r3]
 833              		.loc 1 429 0
 834 0028 039B     		ldr	r3, [sp, #12]
 835 002a 5B6A     		ldr	r3, [r3, #36]
 836 002c 1B68     		ldr	r3, [r3]
 837 002e 019A     		ldr	r2, [sp, #4]
 838 0030 DA60     		str	r2, [r3, #12]
 839              		.loc 1 430 0
 840 0032 039B     		ldr	r3, [sp, #12]
ARM GAS  /tmp/ccdB90CG.s 			page 16


 841 0034 5B6A     		ldr	r3, [r3, #36]
 842 0036 1B68     		ldr	r3, [r3]
 843 0038 029A     		ldr	r2, [sp, #8]
 844 003a 5A60     		str	r2, [r3, #4]
 845              		.loc 1 431 0
 846 003c 039B     		ldr	r3, [sp, #12]
 847 003e 5B6A     		ldr	r3, [r3, #36]
 848 0040 1B68     		ldr	r3, [r3]
 849 0042 039A     		ldr	r2, [sp, #12]
 850 0044 D26A     		ldr	r2, [r2, #44]
 851 0046 42F08002 		orr	r2, r2, #128
 852 004a 1A60     		str	r2, [r3]
 853              		.loc 1 433 0
 854 004c 039B     		ldr	r3, [sp, #12]
 855 004e 1B6A     		ldr	r3, [r3, #32]
 856 0050 1B68     		ldr	r3, [r3]
 857 0052 039A     		ldr	r2, [sp, #12]
 858 0054 126A     		ldr	r2, [r2, #32]
 859 0056 1268     		ldr	r2, [r2]
 860 0058 1268     		ldr	r2, [r2]
 861 005a 42F00102 		orr	r2, r2, #1
 862 005e 1A60     		str	r2, [r3]
 863              		.loc 1 434 0
 864 0060 039B     		ldr	r3, [sp, #12]
 865 0062 5B6A     		ldr	r3, [r3, #36]
 866 0064 1B68     		ldr	r3, [r3]
 867 0066 039A     		ldr	r2, [sp, #12]
 868 0068 526A     		ldr	r2, [r2, #36]
 869 006a 1268     		ldr	r2, [r2]
 870 006c 1268     		ldr	r2, [r2]
 871 006e 42F00102 		orr	r2, r2, #1
 872 0072 1A60     		str	r2, [r3]
 873              		.loc 1 435 0
 874 0074 04B0     		add	sp, sp, #16
 875              		.cfi_def_cfa_offset 0
 876              		@ sp needed
 877 0076 7047     		bx	lr
 878              	.L34:
 879              		.align	2
 880              	.L33:
 881 0078 00000000 		.word	dummyrx
 882              		.cfi_endproc
 883              	.LFE127:
 884              		.size	spi_lld_send, .-spi_lld_send
 885 007c AFF30080 		.section	.text.spi_lld_receive,"ax",%progbits
 886              		.align	2
 887              		.p2align 4,,15
 888              		.global	spi_lld_receive
 889              		.thumb
 890              		.thumb_func
 891              		.type	spi_lld_receive, %function
 892              	spi_lld_receive:
 893              	.LFB128:
 894              		.loc 1 450 0
 895              		.cfi_startproc
 896              		@ args = 0, pretend = 0, frame = 16
 897              		@ frame_needed = 0, uses_anonymous_args = 0
ARM GAS  /tmp/ccdB90CG.s 			page 17


 898              		@ link register save eliminated.
 899 0000 84B0     		sub	sp, sp, #16
 900              		.cfi_def_cfa_offset 16
 901 0002 0390     		str	r0, [sp, #12]
 902 0004 0291     		str	r1, [sp, #8]
 903 0006 0192     		str	r2, [sp, #4]
 904              		.loc 1 452 0
 905 0008 039B     		ldr	r3, [sp, #12]
 906 000a 1B6A     		ldr	r3, [r3, #32]
 907 000c 1B68     		ldr	r3, [r3]
 908 000e 019A     		ldr	r2, [sp, #4]
 909 0010 DA60     		str	r2, [r3, #12]
 910              		.loc 1 453 0
 911 0012 039B     		ldr	r3, [sp, #12]
 912 0014 1B6A     		ldr	r3, [r3, #32]
 913 0016 1B68     		ldr	r3, [r3]
 914 0018 029A     		ldr	r2, [sp, #8]
 915 001a 5A60     		str	r2, [r3, #4]
 916              		.loc 1 454 0
 917 001c 039B     		ldr	r3, [sp, #12]
 918 001e 1B6A     		ldr	r3, [r3, #32]
 919 0020 1B68     		ldr	r3, [r3]
 920 0022 039A     		ldr	r2, [sp, #12]
 921 0024 926A     		ldr	r2, [r2, #40]
 922 0026 42F08002 		orr	r2, r2, #128
 923 002a 1A60     		str	r2, [r3]
 924              		.loc 1 456 0
 925 002c 039B     		ldr	r3, [sp, #12]
 926 002e 5B6A     		ldr	r3, [r3, #36]
 927 0030 1B68     		ldr	r3, [r3]
 928 0032 114A     		ldr	r2, .L36
 929 0034 DA60     		str	r2, [r3, #12]
 930              		.loc 1 457 0
 931 0036 039B     		ldr	r3, [sp, #12]
 932 0038 5B6A     		ldr	r3, [r3, #36]
 933 003a 1B68     		ldr	r3, [r3]
 934 003c 029A     		ldr	r2, [sp, #8]
 935 003e 5A60     		str	r2, [r3, #4]
 936              		.loc 1 458 0
 937 0040 039B     		ldr	r3, [sp, #12]
 938 0042 5B6A     		ldr	r3, [r3, #36]
 939 0044 1B68     		ldr	r3, [r3]
 940 0046 039A     		ldr	r2, [sp, #12]
 941 0048 D26A     		ldr	r2, [r2, #44]
 942 004a 1A60     		str	r2, [r3]
 943              		.loc 1 460 0
 944 004c 039B     		ldr	r3, [sp, #12]
 945 004e 1B6A     		ldr	r3, [r3, #32]
 946 0050 1B68     		ldr	r3, [r3]
 947 0052 039A     		ldr	r2, [sp, #12]
 948 0054 126A     		ldr	r2, [r2, #32]
 949 0056 1268     		ldr	r2, [r2]
 950 0058 1268     		ldr	r2, [r2]
 951 005a 42F00102 		orr	r2, r2, #1
 952 005e 1A60     		str	r2, [r3]
 953              		.loc 1 461 0
 954 0060 039B     		ldr	r3, [sp, #12]
ARM GAS  /tmp/ccdB90CG.s 			page 18


 955 0062 5B6A     		ldr	r3, [r3, #36]
 956 0064 1B68     		ldr	r3, [r3]
 957 0066 039A     		ldr	r2, [sp, #12]
 958 0068 526A     		ldr	r2, [r2, #36]
 959 006a 1268     		ldr	r2, [r2]
 960 006c 1268     		ldr	r2, [r2]
 961 006e 42F00102 		orr	r2, r2, #1
 962 0072 1A60     		str	r2, [r3]
 963              		.loc 1 462 0
 964 0074 04B0     		add	sp, sp, #16
 965              		.cfi_def_cfa_offset 0
 966              		@ sp needed
 967 0076 7047     		bx	lr
 968              	.L37:
 969              		.align	2
 970              	.L36:
 971 0078 00000000 		.word	dummytx
 972              		.cfi_endproc
 973              	.LFE128:
 974              		.size	spi_lld_receive, .-spi_lld_receive
 975 007c AFF30080 		.section	.text.spi_lld_polled_exchange,"ax",%progbits
 976              		.align	2
 977              		.p2align 4,,15
 978              		.global	spi_lld_polled_exchange
 979              		.thumb
 980              		.thumb_func
 981              		.type	spi_lld_polled_exchange, %function
 982              	spi_lld_polled_exchange:
 983              	.LFB129:
 984              		.loc 1 476 0
 985              		.cfi_startproc
 986              		@ args = 0, pretend = 0, frame = 16
 987              		@ frame_needed = 0, uses_anonymous_args = 0
 988              		@ link register save eliminated.
 989 0000 84B0     		sub	sp, sp, #16
 990              		.cfi_def_cfa_offset 16
 991 0002 0190     		str	r0, [sp, #4]
 992 0004 0B46     		mov	r3, r1
 993 0006 ADF80230 		strh	r3, [sp, #2]	@ movhi
 994              		.loc 1 483 0
 995 000a 019B     		ldr	r3, [sp, #4]
 996 000c 5B68     		ldr	r3, [r3, #4]
 997 000e 9B89     		ldrh	r3, [r3, #12]
 998 0010 03F47063 		and	r3, r3, #3840
 999 0014 B3F5E06F 		cmp	r3, #1792
 1000 0018 16DC     		bgt	.L39
 1001              	.LBB6:
 1002              		.loc 1 486 0
 1003 001a 019B     		ldr	r3, [sp, #4]
 1004 001c DB69     		ldr	r3, [r3, #28]
 1005 001e 0C33     		adds	r3, r3, #12
 1006 0020 0393     		str	r3, [sp, #12]
 1007              		.loc 1 487 0
 1008 0022 BDF80230 		ldrh	r3, [sp, #2]	@ movhi
 1009 0026 DAB2     		uxtb	r2, r3
 1010 0028 039B     		ldr	r3, [sp, #12]
 1011 002a 1A70     		strb	r2, [r3]
ARM GAS  /tmp/ccdB90CG.s 			page 19


 1012              		.loc 1 488 0
 1013 002c 00BF     		nop
 1014              	.L40:
 1015              		.loc 1 488 0 is_stmt 0 discriminator 1
 1016 002e 019B     		ldr	r3, [sp, #4]
 1017 0030 DB69     		ldr	r3, [r3, #28]
 1018 0032 1B89     		ldrh	r3, [r3, #8]	@ movhi
 1019 0034 9BB2     		uxth	r3, r3
 1020 0036 03F00103 		and	r3, r3, #1
 1021 003a 002B     		cmp	r3, #0
 1022 003c F7D0     		beq	.L40
 1023              		.loc 1 490 0 is_stmt 1
 1024 003e 039B     		ldr	r3, [sp, #12]
 1025 0040 1B78     		ldrb	r3, [r3]
 1026 0042 DBB2     		uxtb	r3, r3
 1027 0044 9BB2     		uxth	r3, r3
 1028 0046 11E0     		b	.L41
 1029              	.L39:
 1030              	.LBE6:
 1031              		.loc 1 493 0
 1032 0048 019B     		ldr	r3, [sp, #4]
 1033 004a DB69     		ldr	r3, [r3, #28]
 1034 004c BDF80220 		ldrh	r2, [sp, #2]	@ movhi
 1035 0050 9A81     		strh	r2, [r3, #12]	@ movhi
 1036              		.loc 1 494 0
 1037 0052 00BF     		nop
 1038              	.L42:
 1039              		.loc 1 494 0 is_stmt 0 discriminator 1
 1040 0054 019B     		ldr	r3, [sp, #4]
 1041 0056 DB69     		ldr	r3, [r3, #28]
 1042 0058 1B89     		ldrh	r3, [r3, #8]	@ movhi
 1043 005a 9BB2     		uxth	r3, r3
 1044 005c 03F00103 		and	r3, r3, #1
 1045 0060 002B     		cmp	r3, #0
 1046 0062 F7D0     		beq	.L42
 1047              		.loc 1 496 0 is_stmt 1
 1048 0064 019B     		ldr	r3, [sp, #4]
 1049 0066 DB69     		ldr	r3, [r3, #28]
 1050 0068 9B89     		ldrh	r3, [r3, #12]	@ movhi
 1051 006a 9BB2     		uxth	r3, r3
 1052              	.L41:
 1053              		.loc 1 498 0
 1054 006c 1846     		mov	r0, r3
 1055 006e 04B0     		add	sp, sp, #16
 1056              		.cfi_def_cfa_offset 0
 1057              		@ sp needed
 1058 0070 7047     		bx	lr
 1059              		.cfi_endproc
 1060              	.LFE129:
 1061              		.size	spi_lld_polled_exchange, .-spi_lld_polled_exchange
 1062 0072 00BFAFF3 		.text
 1062      0080AFF3 
 1062      0080AFF3 
 1062      0080
 1063              	.Letext0:
 1064              		.file 2 "/home/ergae/r2p-sdk/tools/gcc-arm-none-eabi-4_9-2014q4/lib/gcc/arm-none-eabi/4.9.3/includ
 1065              		.file 3 "/home/ergae/r2p-sdk/tools/gcc-arm-none-eabi-4_9-2014q4/arm-none-eabi/include/machine/_def
ARM GAS  /tmp/ccdB90CG.s 			page 20


 1066              		.file 4 "/home/ergae/r2p-sdk/tools/gcc-arm-none-eabi-4_9-2014q4/arm-none-eabi/include/stdint.h"
 1067              		.file 5 "/home/ergae/r2p-sdk/core/ChibiOS/os/ports/GCC/ARMCMx/chtypes.h"
 1068              		.file 6 "/home/ergae/r2p-sdk/core/ChibiOS/os/kernel/include/chlists.h"
 1069              		.file 7 "/home/ergae/r2p-sdk/core/ChibiOS/os/kernel/include/chthreads.h"
 1070              		.file 8 "/home/ergae/r2p-sdk/core/ChibiOS/os/ports/GCC/ARMCMx/chcore_v7m.h"
 1071              		.file 9 "/home/ergae/r2p-sdk/core/ChibiOS/os/kernel/include/chmtx.h"
 1072              		.file 10 "/home/ergae/r2p-sdk/core/ChibiOS/os/hal/platforms/STM32F30x/stm32f30x.h"
 1073              		.file 11 "/home/ergae/r2p-sdk/core/ChibiOS/os/hal/platforms/STM32F30x/stm32_dma.h"
 1074              		.file 12 "/home/ergae/r2p-sdk/core/ChibiOS/os/hal/platforms/STM32/GPIOv2/pal_lld.h"
 1075              		.file 13 "/home/ergae/r2p-sdk/core/ChibiOS/os/hal/include/spi.h"
 1076              		.file 14 "/home/ergae/r2p-sdk/core/ChibiOS/os/hal/platforms/STM32/SPIv2/spi_lld.h"
 1077              		.file 15 "/home/ergae/r2p-sdk/core/ChibiOS/os/ports/common/ARMCMx/CMSIS/include/core_cm4.h"