ARM GAS  /tmp/cc9AvIGf.s 			page 1


   1              		.syntax unified
   2              		.cpu cortex-m4
   3              		.eabi_attribute 27, 3
   4              		.eabi_attribute 28, 1
   5              		.fpu fpv4-sp-d16
   6              		.eabi_attribute 20, 1
   7              		.eabi_attribute 21, 1
   8              		.eabi_attribute 23, 3
   9              		.eabi_attribute 24, 1
  10              		.eabi_attribute 25, 1
  11              		.eabi_attribute 26, 1
  12              		.eabi_attribute 30, 6
  13              		.eabi_attribute 34, 1
  14              		.eabi_attribute 18, 4
  15              		.thumb
  16              		.file	"Topic.cpp"
  17              		.text
  18              	.Ltext0:
  19              		.cfi_sections	.debug_frame
  20              		.section	.text._ZN3r2p10UncopyableC2Ev,"axG",%progbits,_ZN3r2p10UncopyableC5Ev,comdat
  21              		.align	2
  22              		.p2align 4,,15
  23              		.weak	_ZN3r2p10UncopyableC2Ev
  24              		.thumb
  25              		.thumb_func
  26              		.type	_ZN3r2p10UncopyableC2Ev, %function
  27              	_ZN3r2p10UncopyableC2Ev:
  28              	.LFB6:
  29              		.file 1 "/home/ergae/r2p-sdk/core/Middleware/include/r2p/Uncopyable.hpp"
  30              		.loc 1 20 0
  31              		.cfi_startproc
  32              		@ args = 0, pretend = 0, frame = 8
  33              		@ frame_needed = 0, uses_anonymous_args = 0
  34              		@ link register save eliminated.
  35 0000 82B0     		sub	sp, sp, #8
  36              		.cfi_def_cfa_offset 8
  37 0002 0190     		str	r0, [sp, #4]
  38              		.loc 1 20 0
  39 0004 019B     		ldr	r3, [sp, #4]
  40 0006 1846     		mov	r0, r3
  41 0008 02B0     		add	sp, sp, #8
  42              		.cfi_def_cfa_offset 0
  43              		@ sp needed
  44 000a 7047     		bx	lr
  45              		.cfi_endproc
  46              	.LFE6:
  47              		.size	_ZN3r2p10UncopyableC2Ev, .-_ZN3r2p10UncopyableC2Ev
  48              		.weak	_ZN3r2p10UncopyableC1Ev
  49              		.thumb_set _ZN3r2p10UncopyableC1Ev,_ZN3r2p10UncopyableC2Ev
  50 000c AFF30080 		.section	.text._ZN3r2p10UncopyableD2Ev,"axG",%progbits,_ZN3r2p10UncopyableD5Ev,comdat
  51              		.align	2
  52              		.p2align 4,,15
  53              		.weak	_ZN3r2p10UncopyableD2Ev
  54              		.thumb
  55              		.thumb_func
  56              		.type	_ZN3r2p10UncopyableD2Ev, %function
  57              	_ZN3r2p10UncopyableD2Ev:
ARM GAS  /tmp/cc9AvIGf.s 			page 2


  58              	.LFB9:
  59              		.loc 1 21 0
  60              		.cfi_startproc
  61              		@ args = 0, pretend = 0, frame = 8
  62              		@ frame_needed = 0, uses_anonymous_args = 0
  63              		@ link register save eliminated.
  64 0000 82B0     		sub	sp, sp, #8
  65              		.cfi_def_cfa_offset 8
  66 0002 0190     		str	r0, [sp, #4]
  67              		.loc 1 21 0
  68 0004 019B     		ldr	r3, [sp, #4]
  69 0006 1846     		mov	r0, r3
  70 0008 02B0     		add	sp, sp, #8
  71              		.cfi_def_cfa_offset 0
  72              		@ sp needed
  73 000a 7047     		bx	lr
  74              		.cfi_endproc
  75              	.LFE9:
  76              		.size	_ZN3r2p10UncopyableD2Ev, .-_ZN3r2p10UncopyableD2Ev
  77              		.weak	_ZN3r2p10UncopyableD1Ev
  78              		.thumb_set _ZN3r2p10UncopyableD1Ev,_ZN3r2p10UncopyableD2Ev
  79 000c AFF30080 		.section	.text._ZN3r2p8SysLock_7acquireEv,"axG",%progbits,_ZN3r2p8SysLock_7acquireEv,comdat
  80              		.align	2
  81              		.p2align 4,,15
  82              		.weak	_ZN3r2p8SysLock_7acquireEv
  83              		.thumb
  84              		.thumb_func
  85              		.type	_ZN3r2p8SysLock_7acquireEv, %function
  86              	_ZN3r2p8SysLock_7acquireEv:
  87              	.LFB18:
  88              		.file 2 "/home/ergae/r2p-sdk/core/Middleware/port/chibios/include/r2p/impl/SysLock_.hpp"
  89              		.loc 2 20 0
  90              		.cfi_startproc
  91              		@ args = 0, pretend = 0, frame = 0
  92              		@ frame_needed = 0, uses_anonymous_args = 0
  93 0000 08B5     		push	{r3, lr}
  94              		.cfi_def_cfa_offset 8
  95              		.cfi_offset 3, -8
  96              		.cfi_offset 14, -4
  97              	.LBB8:
  98              	.LBB9:
  99              	.LBB10:
 100              		.loc 2 22 0
 101 0002 2023     		movs	r3, #32
 102              	@ 22 "/home/ergae/r2p-sdk/core/Middleware/port/chibios/include/r2p/impl/SysLock_.hpp" 1
 103 0004 83F31188 		msr     BASEPRI, r3
 104              	@ 0 "" 2
 105              		.thumb
 106              	.LBE10:
 107 0008 FFF7FEFF 		bl	dbg_check_lock
 108              	.LBE9:
 109              	.LBE8:
 110              		.loc 2 23 0
 111 000c 08BD     		pop	{r3, pc}
 112              		.cfi_endproc
 113              	.LFE18:
 114              		.size	_ZN3r2p8SysLock_7acquireEv, .-_ZN3r2p8SysLock_7acquireEv
ARM GAS  /tmp/cc9AvIGf.s 			page 3


 115 000e 00BF     		.section	.text._ZN3r2p8SysLock_7releaseEv,"axG",%progbits,_ZN3r2p8SysLock_7releaseEv,comdat
 116              		.align	2
 117              		.p2align 4,,15
 118              		.weak	_ZN3r2p8SysLock_7releaseEv
 119              		.thumb
 120              		.thumb_func
 121              		.type	_ZN3r2p8SysLock_7releaseEv, %function
 122              	_ZN3r2p8SysLock_7releaseEv:
 123              	.LFB19:
 124              		.loc 2 27 0
 125              		.cfi_startproc
 126              		@ args = 0, pretend = 0, frame = 0
 127              		@ frame_needed = 0, uses_anonymous_args = 0
 128 0000 08B5     		push	{r3, lr}
 129              		.cfi_def_cfa_offset 8
 130              		.cfi_offset 3, -8
 131              		.cfi_offset 14, -4
 132              	.LBB11:
 133              	.LBB12:
 134              		.loc 2 29 0
 135 0002 FFF7FEFF 		bl	dbg_check_unlock
 136              	.LBB13:
 137 0006 0023     		movs	r3, #0
 138              	@ 29 "/home/ergae/r2p-sdk/core/Middleware/port/chibios/include/r2p/impl/SysLock_.hpp" 1
 139 0008 83F31188 		msr     BASEPRI, r3
 140              	@ 0 "" 2
 141              		.thumb
 142              	.LBE13:
 143              	.LBE12:
 144              	.LBE11:
 145              		.loc 2 30 0
 146 000c 08BD     		pop	{r3, pc}
 147              		.cfi_endproc
 148              	.LFE19:
 149              		.size	_ZN3r2p8SysLock_7releaseEv, .-_ZN3r2p8SysLock_7releaseEv
 150 000e 00BF     		.section	.text._ZN3r2p7SysLock5ScopeC2Ev,"axG",%progbits,_ZN3r2p7SysLock5ScopeC5Ev,comdat
 151              		.align	2
 152              		.p2align 4,,15
 153              		.weak	_ZN3r2p7SysLock5ScopeC2Ev
 154              		.thumb
 155              		.thumb_func
 156              		.type	_ZN3r2p7SysLock5ScopeC2Ev, %function
 157              	_ZN3r2p7SysLock5ScopeC2Ev:
 158              	.LFB21:
 159              		.file 3 "/home/ergae/r2p-sdk/core/Middleware/include/r2p/SysLock.hpp"
 160              		.loc 3 13 0
 161              		.cfi_startproc
 162              		@ args = 0, pretend = 0, frame = 8
 163              		@ frame_needed = 0, uses_anonymous_args = 0
 164 0000 00B5     		push	{lr}
 165              		.cfi_def_cfa_offset 4
 166              		.cfi_offset 14, -4
 167 0002 83B0     		sub	sp, sp, #12
 168              		.cfi_def_cfa_offset 16
 169 0004 0190     		str	r0, [sp, #4]
 170              	.LBB14:
 171              		.loc 3 13 0
ARM GAS  /tmp/cc9AvIGf.s 			page 4


 172 0006 0198     		ldr	r0, [sp, #4]
 173 0008 FFF7FEFF 		bl	_ZN3r2p10UncopyableC2Ev
 174 000c FFF7FEFF 		bl	_ZN3r2p7SysLock7acquireEv
 175              	.LBE14:
 176 0010 019B     		ldr	r3, [sp, #4]
 177 0012 1846     		mov	r0, r3
 178 0014 03B0     		add	sp, sp, #12
 179              		.cfi_def_cfa_offset 4
 180              		@ sp needed
 181 0016 5DF804FB 		ldr	pc, [sp], #4
 182              		.cfi_endproc
 183              	.LFE21:
 184              		.size	_ZN3r2p7SysLock5ScopeC2Ev, .-_ZN3r2p7SysLock5ScopeC2Ev
 185              		.weak	_ZN3r2p7SysLock5ScopeC1Ev
 186              		.thumb_set _ZN3r2p7SysLock5ScopeC1Ev,_ZN3r2p7SysLock5ScopeC2Ev
 187 001a 00BFAFF3 		.section	.text._ZN3r2p7SysLock5ScopeD2Ev,"axG",%progbits,_ZN3r2p7SysLock5ScopeD5Ev,comdat
 187      0080
 188              		.align	2
 189              		.p2align 4,,15
 190              		.weak	_ZN3r2p7SysLock5ScopeD2Ev
 191              		.thumb
 192              		.thumb_func
 193              		.type	_ZN3r2p7SysLock5ScopeD2Ev, %function
 194              	_ZN3r2p7SysLock5ScopeD2Ev:
 195              	.LFB24:
 196              		.loc 3 14 0
 197              		.cfi_startproc
 198              		@ args = 0, pretend = 0, frame = 8
 199              		@ frame_needed = 0, uses_anonymous_args = 0
 200 0000 00B5     		push	{lr}
 201              		.cfi_def_cfa_offset 4
 202              		.cfi_offset 14, -4
 203 0002 83B0     		sub	sp, sp, #12
 204              		.cfi_def_cfa_offset 16
 205 0004 0190     		str	r0, [sp, #4]
 206              	.LBB15:
 207              		.loc 3 14 0
 208 0006 FFF7FEFF 		bl	_ZN3r2p7SysLock7releaseEv
 209 000a 0198     		ldr	r0, [sp, #4]
 210 000c FFF7FEFF 		bl	_ZN3r2p10UncopyableD2Ev
 211              	.LBE15:
 212 0010 019B     		ldr	r3, [sp, #4]
 213 0012 1846     		mov	r0, r3
 214 0014 03B0     		add	sp, sp, #12
 215              		.cfi_def_cfa_offset 4
 216              		@ sp needed
 217 0016 5DF804FB 		ldr	pc, [sp], #4
 218              		.cfi_endproc
 219              	.LFE24:
 220              		.size	_ZN3r2p7SysLock5ScopeD2Ev, .-_ZN3r2p7SysLock5ScopeD2Ev
 221              		.weak	_ZN3r2p7SysLock5ScopeD1Ev
 222              		.thumb_set _ZN3r2p7SysLock5ScopeD1Ev,_ZN3r2p7SysLock5ScopeD2Ev
 223 001a 00BFAFF3 		.section	.text._ZN3r2p7SysLock7acquireEv,"axG",%progbits,_ZN3r2p7SysLock7acquireEv,comdat
 223      0080
 224              		.align	2
 225              		.p2align 4,,15
 226              		.weak	_ZN3r2p7SysLock7acquireEv
ARM GAS  /tmp/cc9AvIGf.s 			page 5


 227              		.thumb
 228              		.thumb_func
 229              		.type	_ZN3r2p7SysLock7acquireEv, %function
 230              	_ZN3r2p7SysLock7acquireEv:
 231              	.LFB26:
 232              		.loc 3 27 0
 233              		.cfi_startproc
 234              		@ args = 0, pretend = 0, frame = 0
 235              		@ frame_needed = 0, uses_anonymous_args = 0
 236 0000 08B5     		push	{r3, lr}
 237              		.cfi_def_cfa_offset 8
 238              		.cfi_offset 3, -8
 239              		.cfi_offset 14, -4
 240              		.loc 3 29 0
 241 0002 FFF7FEFF 		bl	_ZN3r2p8SysLock_7acquireEv
 242              		.loc 3 30 0
 243 0006 08BD     		pop	{r3, pc}
 244              		.cfi_endproc
 245              	.LFE26:
 246              		.size	_ZN3r2p7SysLock7acquireEv, .-_ZN3r2p7SysLock7acquireEv
 247              		.section	.text._ZN3r2p7SysLock7releaseEv,"axG",%progbits,_ZN3r2p7SysLock7releaseEv,comdat
 248              		.align	2
 249              		.p2align 4,,15
 250              		.weak	_ZN3r2p7SysLock7releaseEv
 251              		.thumb
 252              		.thumb_func
 253              		.type	_ZN3r2p7SysLock7releaseEv, %function
 254              	_ZN3r2p7SysLock7releaseEv:
 255              	.LFB27:
 256              		.loc 3 34 0
 257              		.cfi_startproc
 258              		@ args = 0, pretend = 0, frame = 0
 259              		@ frame_needed = 0, uses_anonymous_args = 0
 260 0000 08B5     		push	{r3, lr}
 261              		.cfi_def_cfa_offset 8
 262              		.cfi_offset 3, -8
 263              		.cfi_offset 14, -4
 264              		.loc 3 36 0
 265 0002 FFF7FEFF 		bl	_ZN3r2p8SysLock_7releaseEv
 266              		.loc 3 37 0
 267 0006 08BD     		pop	{r3, pc}
 268              		.cfi_endproc
 269              	.LFE27:
 270              		.size	_ZN3r2p7SysLock7releaseEv, .-_ZN3r2p7SysLock7releaseEv
 271              		.section	.text._ZNK3r2p11MemoryPool_13get_item_sizeEv,"axG",%progbits,_ZNK3r2p11MemoryPool_13get_i
 272              		.align	2
 273              		.p2align 4,,15
 274              		.weak	_ZNK3r2p11MemoryPool_13get_item_sizeEv
 275              		.thumb
 276              		.thumb_func
 277              		.type	_ZNK3r2p11MemoryPool_13get_item_sizeEv, %function
 278              	_ZNK3r2p11MemoryPool_13get_item_sizeEv:
 279              	.LFB36:
 280              		.file 4 "/home/ergae/r2p-sdk/core/Middleware/port/chibios/include/r2p/impl/MemoryPool_.hpp"
 281              		.loc 4 39 0
 282              		.cfi_startproc
 283              		@ args = 0, pretend = 0, frame = 8
ARM GAS  /tmp/cc9AvIGf.s 			page 6


 284              		@ frame_needed = 0, uses_anonymous_args = 0
 285              		@ link register save eliminated.
 286 0000 82B0     		sub	sp, sp, #8
 287              		.cfi_def_cfa_offset 8
 288 0002 0190     		str	r0, [sp, #4]
 289              		.loc 4 41 0
 290 0004 019B     		ldr	r3, [sp, #4]
 291 0006 5B68     		ldr	r3, [r3, #4]
 292              		.loc 4 42 0
 293 0008 1846     		mov	r0, r3
 294 000a 02B0     		add	sp, sp, #8
 295              		.cfi_def_cfa_offset 0
 296              		@ sp needed
 297 000c 7047     		bx	lr
 298              		.cfi_endproc
 299              	.LFE36:
 300              		.size	_ZNK3r2p11MemoryPool_13get_item_sizeEv, .-_ZNK3r2p11MemoryPool_13get_item_sizeEv
 301 000e 00BF     		.section	.text._ZN3r2p11MemoryPool_12alloc_unsafeEv,"axG",%progbits,_ZN3r2p11MemoryPool_12alloc_un
 302              		.align	2
 303              		.p2align 4,,15
 304              		.weak	_ZN3r2p11MemoryPool_12alloc_unsafeEv
 305              		.thumb
 306              		.thumb_func
 307              		.type	_ZN3r2p11MemoryPool_12alloc_unsafeEv, %function
 308              	_ZN3r2p11MemoryPool_12alloc_unsafeEv:
 309              	.LFB38:
 310              		.loc 4 53 0
 311              		.cfi_startproc
 312              		@ args = 0, pretend = 0, frame = 8
 313              		@ frame_needed = 0, uses_anonymous_args = 0
 314 0000 00B5     		push	{lr}
 315              		.cfi_def_cfa_offset 4
 316              		.cfi_offset 14, -4
 317 0002 83B0     		sub	sp, sp, #12
 318              		.cfi_def_cfa_offset 16
 319 0004 0190     		str	r0, [sp, #4]
 320              		.loc 4 55 0
 321 0006 019B     		ldr	r3, [sp, #4]
 322 0008 1846     		mov	r0, r3
 323 000a FFF7FEFF 		bl	chPoolAllocI
 324 000e 0346     		mov	r3, r0
 325              		.loc 4 56 0
 326 0010 1846     		mov	r0, r3
 327 0012 03B0     		add	sp, sp, #12
 328              		.cfi_def_cfa_offset 4
 329              		@ sp needed
 330 0014 5DF804FB 		ldr	pc, [sp], #4
 331              		.cfi_endproc
 332              	.LFE38:
 333              		.size	_ZN3r2p11MemoryPool_12alloc_unsafeEv, .-_ZN3r2p11MemoryPool_12alloc_unsafeEv
 334 0018 AFF30080 		.section	.text._ZN3r2p11MemoryPool_11free_unsafeEPv,"axG",%progbits,_ZN3r2p11MemoryPool_11free_uns
 334      AFF30080 
 335              		.align	2
 336              		.p2align 4,,15
 337              		.weak	_ZN3r2p11MemoryPool_11free_unsafeEPv
 338              		.thumb
 339              		.thumb_func
ARM GAS  /tmp/cc9AvIGf.s 			page 7


 340              		.type	_ZN3r2p11MemoryPool_11free_unsafeEPv, %function
 341              	_ZN3r2p11MemoryPool_11free_unsafeEPv:
 342              	.LFB39:
 343              		.loc 4 60 0
 344              		.cfi_startproc
 345              		@ args = 0, pretend = 0, frame = 8
 346              		@ frame_needed = 0, uses_anonymous_args = 0
 347 0000 00B5     		push	{lr}
 348              		.cfi_def_cfa_offset 4
 349              		.cfi_offset 14, -4
 350 0002 83B0     		sub	sp, sp, #12
 351              		.cfi_def_cfa_offset 16
 352 0004 0190     		str	r0, [sp, #4]
 353 0006 0091     		str	r1, [sp]
 354              		.loc 4 62 0
 355 0008 009B     		ldr	r3, [sp]
 356 000a 002B     		cmp	r3, #0
 357 000c 04D0     		beq	.L21
 358              		.loc 4 63 0
 359 000e 019B     		ldr	r3, [sp, #4]
 360 0010 1846     		mov	r0, r3
 361 0012 0099     		ldr	r1, [sp]
 362 0014 FFF7FEFF 		bl	chPoolFreeI
 363              	.L21:
 364              		.loc 4 65 0
 365 0018 03B0     		add	sp, sp, #12
 366              		.cfi_def_cfa_offset 4
 367              		@ sp needed
 368 001a 5DF804FB 		ldr	pc, [sp], #4
 369              		.cfi_endproc
 370              	.LFE39:
 371              		.size	_ZN3r2p11MemoryPool_11free_unsafeEPv, .-_ZN3r2p11MemoryPool_11free_unsafeEPv
 372 001e 00BF     		.section	.text._ZN3r2p11MemoryPool_4freeEPv,"axG",%progbits,_ZN3r2p11MemoryPool_4freeEPv,comdat
 373              		.align	2
 374              		.p2align 4,,15
 375              		.weak	_ZN3r2p11MemoryPool_4freeEPv
 376              		.thumb
 377              		.thumb_func
 378              		.type	_ZN3r2p11MemoryPool_4freeEPv, %function
 379              	_ZN3r2p11MemoryPool_4freeEPv:
 380              	.LFB41:
 381              		.loc 4 76 0
 382              		.cfi_startproc
 383              		@ args = 0, pretend = 0, frame = 8
 384              		@ frame_needed = 0, uses_anonymous_args = 0
 385 0000 00B5     		push	{lr}
 386              		.cfi_def_cfa_offset 4
 387              		.cfi_offset 14, -4
 388 0002 83B0     		sub	sp, sp, #12
 389              		.cfi_def_cfa_offset 16
 390 0004 0190     		str	r0, [sp, #4]
 391 0006 0091     		str	r1, [sp]
 392              		.loc 4 78 0
 393 0008 009B     		ldr	r3, [sp]
 394 000a 002B     		cmp	r3, #0
 395 000c 04D0     		beq	.L23
 396              		.loc 4 79 0
ARM GAS  /tmp/cc9AvIGf.s 			page 8


 397 000e 019B     		ldr	r3, [sp, #4]
 398 0010 1846     		mov	r0, r3
 399 0012 0099     		ldr	r1, [sp]
 400 0014 FFF7FEFF 		bl	chPoolFree
 401              	.L23:
 402              		.loc 4 81 0
 403 0018 03B0     		add	sp, sp, #12
 404              		.cfi_def_cfa_offset 4
 405              		@ sp needed
 406 001a 5DF804FB 		ldr	pc, [sp], #4
 407              		.cfi_endproc
 408              	.LFE41:
 409              		.size	_ZN3r2p11MemoryPool_4freeEPv, .-_ZN3r2p11MemoryPool_4freeEPv
 410 001e 00BF     		.section	.text._ZN3r2p11MemoryPool_C2Ej,"axG",%progbits,_ZN3r2p11MemoryPool_C5Ej,comdat
 411              		.align	2
 412              		.p2align 4,,15
 413              		.weak	_ZN3r2p11MemoryPool_C2Ej
 414              		.thumb
 415              		.thumb_func
 416              		.type	_ZN3r2p11MemoryPool_C2Ej, %function
 417              	_ZN3r2p11MemoryPool_C2Ej:
 418              	.LFB45:
 419              		.loc 4 99 0
 420              		.cfi_startproc
 421              		@ args = 0, pretend = 0, frame = 8
 422              		@ frame_needed = 0, uses_anonymous_args = 0
 423 0000 00B5     		push	{lr}
 424              		.cfi_def_cfa_offset 4
 425              		.cfi_offset 14, -4
 426 0002 83B0     		sub	sp, sp, #12
 427              		.cfi_def_cfa_offset 16
 428 0004 0190     		str	r0, [sp, #4]
 429 0006 0091     		str	r1, [sp]
 430              	.LBB16:
 431              		.loc 4 99 0
 432 0008 0198     		ldr	r0, [sp, #4]
 433 000a FFF7FEFF 		bl	_ZN3r2p10UncopyableC2Ev
 434              		.loc 4 101 0
 435 000e 019B     		ldr	r3, [sp, #4]
 436 0010 1846     		mov	r0, r3
 437 0012 0099     		ldr	r1, [sp]
 438 0014 0022     		movs	r2, #0
 439 0016 FFF7FEFF 		bl	chPoolInit
 440              	.LBE16:
 441              		.loc 4 102 0
 442 001a 019B     		ldr	r3, [sp, #4]
 443 001c 1846     		mov	r0, r3
 444 001e 03B0     		add	sp, sp, #12
 445              		.cfi_def_cfa_offset 4
 446              		@ sp needed
 447 0020 5DF804FB 		ldr	pc, [sp], #4
 448              		.cfi_endproc
 449              	.LFE45:
 450              		.size	_ZN3r2p11MemoryPool_C2Ej, .-_ZN3r2p11MemoryPool_C2Ej
 451              		.weak	_ZN3r2p11MemoryPool_C1Ej
 452              		.thumb_set _ZN3r2p11MemoryPool_C1Ej,_ZN3r2p11MemoryPool_C2Ej
 453 0024 AFF30080 		.section	.text._ZN3r2p4TimeaSERKS0_,"axG",%progbits,_ZN3r2p4TimeaSERKS0_,comdat
ARM GAS  /tmp/cc9AvIGf.s 			page 9


 453      AFF30080 
 453      AFF30080 
 454              		.align	2
 455              		.p2align 4,,15
 456              		.weak	_ZN3r2p4TimeaSERKS0_
 457              		.thumb
 458              		.thumb_func
 459              		.type	_ZN3r2p4TimeaSERKS0_, %function
 460              	_ZN3r2p4TimeaSERKS0_:
 461              	.LFB151:
 462              		.file 5 "/home/ergae/r2p-sdk/core/Middleware/include/r2p/Time.hpp"
 463              		.loc 5 131 0
 464              		.cfi_startproc
 465              		@ args = 0, pretend = 0, frame = 8
 466              		@ frame_needed = 0, uses_anonymous_args = 0
 467              		@ link register save eliminated.
 468 0000 82B0     		sub	sp, sp, #8
 469              		.cfi_def_cfa_offset 8
 470 0002 0190     		str	r0, [sp, #4]
 471 0004 0091     		str	r1, [sp]
 472              		.loc 5 133 0
 473 0006 009B     		ldr	r3, [sp]
 474 0008 1A68     		ldr	r2, [r3]
 475 000a 019B     		ldr	r3, [sp, #4]
 476 000c 1A60     		str	r2, [r3]
 477              		.loc 5 134 0
 478 000e 019B     		ldr	r3, [sp, #4]
 479              		.loc 5 135 0
 480 0010 1846     		mov	r0, r3
 481 0012 02B0     		add	sp, sp, #8
 482              		.cfi_def_cfa_offset 0
 483              		@ sp needed
 484 0014 7047     		bx	lr
 485              		.cfi_endproc
 486              	.LFE151:
 487              		.size	_ZN3r2p4TimeaSERKS0_, .-_ZN3r2p4TimeaSERKS0_
 488 0016 00BFAFF3 		.section	.text._ZN3r2p4TimeC2ERKS0_,"axG",%progbits,_ZN3r2p4TimeC5ERKS0_,comdat
 488      0080AFF3 
 488      0080
 489              		.align	2
 490              		.p2align 4,,15
 491              		.weak	_ZN3r2p4TimeC2ERKS0_
 492              		.thumb
 493              		.thumb_func
 494              		.type	_ZN3r2p4TimeC2ERKS0_, %function
 495              	_ZN3r2p4TimeC2ERKS0_:
 496              	.LFB162:
 497              		.loc 5 173 0
 498              		.cfi_startproc
 499              		@ args = 0, pretend = 0, frame = 8
 500              		@ frame_needed = 0, uses_anonymous_args = 0
 501              		@ link register save eliminated.
 502 0000 82B0     		sub	sp, sp, #8
 503              		.cfi_def_cfa_offset 8
 504 0002 0190     		str	r0, [sp, #4]
 505 0004 0091     		str	r1, [sp]
 506              	.LBB17:
ARM GAS  /tmp/cc9AvIGf.s 			page 10


 507              		.loc 5 173 0
 508 0006 009B     		ldr	r3, [sp]
 509 0008 1A68     		ldr	r2, [r3]
 510 000a 019B     		ldr	r3, [sp, #4]
 511 000c 1A60     		str	r2, [r3]
 512              	.LBE17:
 513 000e 019B     		ldr	r3, [sp, #4]
 514 0010 1846     		mov	r0, r3
 515 0012 02B0     		add	sp, sp, #8
 516              		.cfi_def_cfa_offset 0
 517              		@ sp needed
 518 0014 7047     		bx	lr
 519              		.cfi_endproc
 520              	.LFE162:
 521              		.size	_ZN3r2p4TimeC2ERKS0_, .-_ZN3r2p4TimeC2ERKS0_
 522              		.weak	_ZN3r2p4TimeC1ERKS0_
 523              		.thumb_set _ZN3r2p4TimeC1ERKS0_,_ZN3r2p4TimeC2ERKS0_
 524 0016 00BFAFF3 		.section	.text._ZN3r2pgtERKNS_4TimeES2_,"axG",%progbits,_ZN3r2pgtERKNS_4TimeES2_,comdat
 524      0080AFF3 
 524      0080
 525              		.align	2
 526              		.p2align 4,,15
 527              		.weak	_ZN3r2pgtERKNS_4TimeES2_
 528              		.thumb
 529              		.thumb_func
 530              		.type	_ZN3r2pgtERKNS_4TimeES2_, %function
 531              	_ZN3r2pgtERKNS_4TimeES2_:
 532              	.LFB171:
 533              		.loc 5 228 0
 534              		.cfi_startproc
 535              		@ args = 0, pretend = 0, frame = 8
 536              		@ frame_needed = 0, uses_anonymous_args = 0
 537              		@ link register save eliminated.
 538 0000 82B0     		sub	sp, sp, #8
 539              		.cfi_def_cfa_offset 8
 540 0002 0190     		str	r0, [sp, #4]
 541 0004 0091     		str	r1, [sp]
 542              		.loc 5 230 0
 543 0006 019B     		ldr	r3, [sp, #4]
 544 0008 1A68     		ldr	r2, [r3]
 545 000a 009B     		ldr	r3, [sp]
 546 000c 1B68     		ldr	r3, [r3]
 547 000e 9A42     		cmp	r2, r3
 548 0010 CCBF     		ite	gt
 549 0012 0123     		movgt	r3, #1
 550 0014 0023     		movle	r3, #0
 551 0016 DBB2     		uxtb	r3, r3
 552              		.loc 5 231 0
 553 0018 1846     		mov	r0, r3
 554 001a 02B0     		add	sp, sp, #8
 555              		.cfi_def_cfa_offset 0
 556              		@ sp needed
 557 001c 7047     		bx	lr
 558              		.cfi_endproc
 559              	.LFE171:
 560              		.size	_ZN3r2pgtERKNS_4TimeES2_, .-_ZN3r2pgtERKNS_4TimeES2_
 561 001e 00BF     		.section	.rodata
ARM GAS  /tmp/cc9AvIGf.s 			page 11


 562              		.align	2
 563              	.LC0:
 564 0000 5232505F 		.ascii	"R2P_ASSERT()\000"
 564      41535345 
 564      52542829 
 564      00
 565 000d 000000   		.section	.text._ZN3r2p7Message14acquire_unsafeEv,"axG",%progbits,_ZN3r2p7Message14acquire_unsafeEv
 566              		.align	2
 567              		.p2align 4,,15
 568              		.weak	_ZN3r2p7Message14acquire_unsafeEv
 569              		.thumb
 570              		.thumb_func
 571              		.type	_ZN3r2p7Message14acquire_unsafeEv, %function
 572              	_ZN3r2p7Message14acquire_unsafeEv:
 573              	.LFB179:
 574              		.file 6 "/home/ergae/r2p-sdk/core/Middleware/include/r2p/Message.hpp"
 575              		.loc 6 104 0
 576              		.cfi_startproc
 577              		@ args = 0, pretend = 0, frame = 8
 578              		@ frame_needed = 0, uses_anonymous_args = 0
 579 0000 00B5     		push	{lr}
 580              		.cfi_def_cfa_offset 4
 581              		.cfi_offset 14, -4
 582 0002 83B0     		sub	sp, sp, #12
 583              		.cfi_def_cfa_offset 16
 584 0004 0190     		str	r0, [sp, #4]
 585              		.loc 6 106 0
 586 0006 019B     		ldr	r3, [sp, #4]
 587 0008 1B88     		ldrh	r3, [r3]	@ unaligned
 588 000a 9BB2     		uxth	r3, r3
 589 000c 1A46     		mov	r2, r3
 590 000e 1023     		movs	r3, #16
 591 0010 013B     		subs	r3, r3, #1
 592 0012 1946     		mov	r1, r3
 593 0014 0123     		movs	r3, #1
 594 0016 8B40     		lsls	r3, r3, r1
 595 0018 013B     		subs	r3, r3, #1
 596 001a 9A42     		cmp	r2, r3
 597 001c 02DB     		blt	.L36
 598              		.loc 6 106 0 is_stmt 0 discriminator 1
 599 001e 0648     		ldr	r0, .L37
 600 0020 FFF7FEFF 		bl	chDbgPanic
 601              	.L36:
 602              		.loc 6 108 0 is_stmt 1
 603 0024 019B     		ldr	r3, [sp, #4]
 604 0026 1B88     		ldrh	r3, [r3]	@ unaligned
 605 0028 9BB2     		uxth	r3, r3
 606 002a 0133     		adds	r3, r3, #1
 607 002c 9AB2     		uxth	r2, r3
 608 002e 019B     		ldr	r3, [sp, #4]
 609 0030 1A80     		strh	r2, [r3]	@ unaligned
 610              		.loc 6 109 0
 611 0032 03B0     		add	sp, sp, #12
 612              		.cfi_def_cfa_offset 4
 613              		@ sp needed
 614 0034 5DF804FB 		ldr	pc, [sp], #4
 615              	.L38:
ARM GAS  /tmp/cc9AvIGf.s 			page 12


 616              		.align	2
 617              	.L37:
 618 0038 00000000 		.word	.LC0
 619              		.cfi_endproc
 620              	.LFE179:
 621              		.size	_ZN3r2p7Message14acquire_unsafeEv, .-_ZN3r2p7Message14acquire_unsafeEv
 622 003c AFF30080 		.section	.text._ZN3r2p7Message14release_unsafeEv,"axG",%progbits,_ZN3r2p7Message14release_unsafeEv
 623              		.align	2
 624              		.p2align 4,,15
 625              		.weak	_ZN3r2p7Message14release_unsafeEv
 626              		.thumb
 627              		.thumb_func
 628              		.type	_ZN3r2p7Message14release_unsafeEv, %function
 629              	_ZN3r2p7Message14release_unsafeEv:
 630              	.LFB180:
 631              		.loc 6 113 0
 632              		.cfi_startproc
 633              		@ args = 0, pretend = 0, frame = 8
 634              		@ frame_needed = 0, uses_anonymous_args = 0
 635 0000 00B5     		push	{lr}
 636              		.cfi_def_cfa_offset 4
 637              		.cfi_offset 14, -4
 638 0002 83B0     		sub	sp, sp, #12
 639              		.cfi_def_cfa_offset 16
 640 0004 0190     		str	r0, [sp, #4]
 641              		.loc 6 115 0
 642 0006 019B     		ldr	r3, [sp, #4]
 643 0008 1B88     		ldrh	r3, [r3]	@ unaligned
 644 000a 9BB2     		uxth	r3, r3
 645 000c 002B     		cmp	r3, #0
 646 000e 02D1     		bne	.L40
 647              		.loc 6 115 0 is_stmt 0 discriminator 1
 648 0010 0A48     		ldr	r0, .L42
 649 0012 FFF7FEFF 		bl	chDbgPanic
 650              	.L40:
 651              		.loc 6 117 0 is_stmt 1
 652 0016 019B     		ldr	r3, [sp, #4]
 653 0018 1B88     		ldrh	r3, [r3]	@ unaligned
 654 001a 9BB2     		uxth	r3, r3
 655 001c 013B     		subs	r3, r3, #1
 656 001e 9AB2     		uxth	r2, r3
 657 0020 019B     		ldr	r3, [sp, #4]
 658 0022 1A80     		strh	r2, [r3]	@ unaligned
 659 0024 019B     		ldr	r3, [sp, #4]
 660 0026 1B88     		ldrh	r3, [r3]	@ unaligned
 661 0028 9BB2     		uxth	r3, r3
 662 002a 002B     		cmp	r3, #0
 663 002c 14BF     		ite	ne
 664 002e 0123     		movne	r3, #1
 665 0030 0023     		moveq	r3, #0
 666 0032 DBB2     		uxtb	r3, r3
 667              		.loc 6 118 0
 668 0034 1846     		mov	r0, r3
 669 0036 03B0     		add	sp, sp, #12
 670              		.cfi_def_cfa_offset 4
 671              		@ sp needed
 672 0038 5DF804FB 		ldr	pc, [sp], #4
ARM GAS  /tmp/cc9AvIGf.s 			page 13


 673              	.L43:
 674              		.align	2
 675              	.L42:
 676 003c 00000000 		.word	.LC0
 677              		.cfi_endproc
 678              	.LFE180:
 679              		.size	_ZN3r2p7Message14release_unsafeEv, .-_ZN3r2p7Message14release_unsafeEv
 680              		.section	.text._ZN3r2p7Message12reset_unsafeEv,"axG",%progbits,_ZN3r2p7Message12reset_unsafeEv,com
 681              		.align	2
 682              		.p2align 4,,15
 683              		.weak	_ZN3r2p7Message12reset_unsafeEv
 684              		.thumb
 685              		.thumb_func
 686              		.type	_ZN3r2p7Message12reset_unsafeEv, %function
 687              	_ZN3r2p7Message12reset_unsafeEv:
 688              	.LFB181:
 689              		.loc 6 122 0
 690              		.cfi_startproc
 691              		@ args = 0, pretend = 0, frame = 8
 692              		@ frame_needed = 0, uses_anonymous_args = 0
 693              		@ link register save eliminated.
 694 0000 82B0     		sub	sp, sp, #8
 695              		.cfi_def_cfa_offset 8
 696 0002 0190     		str	r0, [sp, #4]
 697              		.loc 6 127 0
 698 0004 019B     		ldr	r3, [sp, #4]
 699 0006 0022     		movs	r2, #0
 700 0008 1A70     		strb	r2, [r3]
 701 000a 0022     		movs	r2, #0
 702 000c 5A70     		strb	r2, [r3, #1]
 703              		.loc 6 128 0
 704 000e 02B0     		add	sp, sp, #8
 705              		.cfi_def_cfa_offset 0
 706              		@ sp needed
 707 0010 7047     		bx	lr
 708              		.cfi_endproc
 709              	.LFE181:
 710              		.size	_ZN3r2p7Message12reset_unsafeEv, .-_ZN3r2p7Message12reset_unsafeEv
 711 0012 00BFAFF3 		.section	.text._ZNK3r2p16RemoteSubscriber13get_transportEv,"axG",%progbits,_ZNK3r2p16RemoteSubscri
 711      0080AFF3 
 711      0080AFF3 
 711      0080
 712              		.align	2
 713              		.p2align 4,,15
 714              		.weak	_ZNK3r2p16RemoteSubscriber13get_transportEv
 715              		.thumb
 716              		.thumb_func
 717              		.type	_ZNK3r2p16RemoteSubscriber13get_transportEv, %function
 718              	_ZNK3r2p16RemoteSubscriber13get_transportEv:
 719              	.LFB284:
 720              		.file 7 "/home/ergae/r2p-sdk/core/Middleware/include/r2p/RemoteSubscriber.hpp"
 721              		.loc 7 31 0
 722              		.cfi_startproc
 723              		@ args = 0, pretend = 0, frame = 8
 724              		@ frame_needed = 0, uses_anonymous_args = 0
 725              		@ link register save eliminated.
 726 0000 82B0     		sub	sp, sp, #8
ARM GAS  /tmp/cc9AvIGf.s 			page 14


 727              		.cfi_def_cfa_offset 8
 728 0002 0190     		str	r0, [sp, #4]
 729              		.loc 7 33 0
 730 0004 019B     		ldr	r3, [sp, #4]
 731 0006 9B68     		ldr	r3, [r3, #8]
 732              		.loc 7 34 0
 733 0008 1846     		mov	r0, r3
 734 000a 02B0     		add	sp, sp, #8
 735              		.cfi_def_cfa_offset 0
 736              		@ sp needed
 737 000c 7047     		bx	lr
 738              		.cfi_endproc
 739              	.LFE284:
 740              		.size	_ZNK3r2p16RemoteSubscriber13get_transportEv, .-_ZNK3r2p16RemoteSubscriber13get_transportEv
 741 000e 00BF     		.section	.text._ZNK3r2p5Topic13get_type_sizeEv,"axG",%progbits,_ZNK3r2p5Topic13get_type_sizeEv,com
 742              		.align	2
 743              		.p2align 4,,15
 744              		.weak	_ZNK3r2p5Topic13get_type_sizeEv
 745              		.thumb
 746              		.thumb_func
 747              		.type	_ZNK3r2p5Topic13get_type_sizeEv, %function
 748              	_ZNK3r2p5Topic13get_type_sizeEv:
 749              	.LFB287:
 750              		.file 8 "/home/ergae/r2p-sdk/core/Middleware/include/r2p/Topic.hpp"
 751              		.loc 8 145 0
 752              		.cfi_startproc
 753              		@ args = 0, pretend = 0, frame = 8
 754              		@ frame_needed = 0, uses_anonymous_args = 0
 755 0000 00B5     		push	{lr}
 756              		.cfi_def_cfa_offset 4
 757              		.cfi_offset 14, -4
 758 0002 83B0     		sub	sp, sp, #12
 759              		.cfi_def_cfa_offset 16
 760 0004 0190     		str	r0, [sp, #4]
 761              		.loc 8 147 0
 762 0006 019B     		ldr	r3, [sp, #4]
 763 0008 0833     		adds	r3, r3, #8
 764 000a 1846     		mov	r0, r3
 765 000c FFF7FEFF 		bl	_ZNK3r2p11MemoryPool_13get_item_sizeEv
 766 0010 0346     		mov	r3, r0
 767              		.loc 8 148 0
 768 0012 1846     		mov	r0, r3
 769 0014 03B0     		add	sp, sp, #12
 770              		.cfi_def_cfa_offset 4
 771              		@ sp needed
 772 0016 5DF804FB 		ldr	pc, [sp], #4
 773              		.cfi_endproc
 774              	.LFE287:
 775              		.size	_ZNK3r2p5Topic13get_type_sizeEv, .-_ZNK3r2p5Topic13get_type_sizeEv
 776 001a 00BFAFF3 		.section	.text._ZNK3r2p5Topic21has_local_subscribersEv,"axG",%progbits,_ZNK3r2p5Topic21has_local_s
 776      0080
 777              		.align	2
 778              		.p2align 4,,15
 779              		.weak	_ZNK3r2p5Topic21has_local_subscribersEv
 780              		.thumb
 781              		.thumb_func
 782              		.type	_ZNK3r2p5Topic21has_local_subscribersEv, %function
ARM GAS  /tmp/cc9AvIGf.s 			page 15


 783              	_ZNK3r2p5Topic21has_local_subscribersEv:
 784              	.LFB294:
 785              		.loc 8 198 0
 786              		.cfi_startproc
 787              		@ args = 0, pretend = 0, frame = 8
 788              		@ frame_needed = 0, uses_anonymous_args = 0
 789 0000 00B5     		push	{lr}
 790              		.cfi_def_cfa_offset 4
 791              		.cfi_offset 14, -4
 792 0002 83B0     		sub	sp, sp, #12
 793              		.cfi_def_cfa_offset 16
 794 0004 0190     		str	r0, [sp, #4]
 795              		.loc 8 200 0
 796 0006 019B     		ldr	r3, [sp, #4]
 797 0008 1C33     		adds	r3, r3, #28
 798 000a 1846     		mov	r0, r3
 799 000c FFF7FEFF 		bl	_ZNK3r2p10StaticListINS_15LocalSubscriberEE15is_empty_unsafeEv
 800 0010 0346     		mov	r3, r0
 801 0012 83F00103 		eor	r3, r3, #1
 802 0016 DBB2     		uxtb	r3, r3
 803              		.loc 8 201 0
 804 0018 1846     		mov	r0, r3
 805 001a 03B0     		add	sp, sp, #12
 806              		.cfi_def_cfa_offset 4
 807              		@ sp needed
 808 001c 5DF804FB 		ldr	pc, [sp], #4
 809              		.cfi_endproc
 810              	.LFE294:
 811              		.size	_ZNK3r2p5Topic21has_local_subscribersEv, .-_ZNK3r2p5Topic21has_local_subscribersEv
 812              		.section	.text._ZNK3r2p5Topic22has_remote_subscribersEv,"axG",%progbits,_ZNK3r2p5Topic22has_remote
 813              		.align	2
 814              		.p2align 4,,15
 815              		.weak	_ZNK3r2p5Topic22has_remote_subscribersEv
 816              		.thumb
 817              		.thumb_func
 818              		.type	_ZNK3r2p5Topic22has_remote_subscribersEv, %function
 819              	_ZNK3r2p5Topic22has_remote_subscribersEv:
 820              	.LFB295:
 821              		.loc 8 205 0
 822              		.cfi_startproc
 823              		@ args = 0, pretend = 0, frame = 8
 824              		@ frame_needed = 0, uses_anonymous_args = 0
 825 0000 00B5     		push	{lr}
 826              		.cfi_def_cfa_offset 4
 827              		.cfi_offset 14, -4
 828 0002 83B0     		sub	sp, sp, #12
 829              		.cfi_def_cfa_offset 16
 830 0004 0190     		str	r0, [sp, #4]
 831              		.loc 8 207 0
 832 0006 019B     		ldr	r3, [sp, #4]
 833 0008 2033     		adds	r3, r3, #32
 834 000a 1846     		mov	r0, r3
 835 000c FFF7FEFF 		bl	_ZNK3r2p10StaticListINS_16RemoteSubscriberEE15is_empty_unsafeEv
 836 0010 0346     		mov	r3, r0
 837 0012 83F00103 		eor	r3, r3, #1
 838 0016 DBB2     		uxtb	r3, r3
 839              		.loc 8 208 0
ARM GAS  /tmp/cc9AvIGf.s 			page 16


 840 0018 1846     		mov	r0, r3
 841 001a 03B0     		add	sp, sp, #12
 842              		.cfi_def_cfa_offset 4
 843              		@ sp needed
 844 001c 5DF804FB 		ldr	pc, [sp], #4
 845              		.cfi_endproc
 846              	.LFE295:
 847              		.size	_ZNK3r2p5Topic22has_remote_subscribersEv, .-_ZNK3r2p5Topic22has_remote_subscribersEv
 848              		.section	.text._ZN3r2p5Topic12alloc_unsafeEv,"axG",%progbits,_ZN3r2p5Topic12alloc_unsafeEv,comdat
 849              		.align	2
 850              		.p2align 4,,15
 851              		.weak	_ZN3r2p5Topic12alloc_unsafeEv
 852              		.thumb
 853              		.thumb_func
 854              		.type	_ZN3r2p5Topic12alloc_unsafeEv, %function
 855              	_ZN3r2p5Topic12alloc_unsafeEv:
 856              	.LFB301:
 857              		.loc 8 250 0
 858              		.cfi_startproc
 859              		@ args = 0, pretend = 0, frame = 8
 860              		@ frame_needed = 0, uses_anonymous_args = 0
 861 0000 10B5     		push	{r4, lr}
 862              		.cfi_def_cfa_offset 8
 863              		.cfi_offset 4, -8
 864              		.cfi_offset 14, -4
 865 0002 82B0     		sub	sp, sp, #8
 866              		.cfi_def_cfa_offset 16
 867 0004 0190     		str	r0, [sp, #4]
 868              	.LBB18:
 869              		.loc 8 252 0
 870 0006 019B     		ldr	r3, [sp, #4]
 871 0008 0833     		adds	r3, r3, #8
 872 000a 1846     		mov	r0, r3
 873 000c FFF7FEFF 		bl	_ZN3r2p11MemoryPool_12alloc_unsafeEv
 874 0010 0446     		mov	r4, r0
 875              		.loc 8 253 0
 876 0012 002C     		cmp	r4, #0
 877 0014 04D0     		beq	.L54
 878              		.loc 8 254 0
 879 0016 2046     		mov	r0, r4
 880 0018 FFF7FEFF 		bl	_ZN3r2p7Message12reset_unsafeEv
 881              		.loc 8 255 0
 882 001c 2346     		mov	r3, r4
 883 001e 00E0     		b	.L55
 884              	.L54:
 885              		.loc 8 257 0
 886 0020 0023     		movs	r3, #0
 887              	.L55:
 888              	.LBE18:
 889              		.loc 8 258 0
 890 0022 1846     		mov	r0, r3
 891 0024 02B0     		add	sp, sp, #8
 892              		.cfi_def_cfa_offset 8
 893              		@ sp needed
 894 0026 10BD     		pop	{r4, pc}
 895              		.cfi_endproc
 896              	.LFE301:
ARM GAS  /tmp/cc9AvIGf.s 			page 17


 897              		.size	_ZN3r2p5Topic12alloc_unsafeEv, .-_ZN3r2p5Topic12alloc_unsafeEv
 898 0028 AFF30080 		.section	.text._ZN3r2p5Topic11free_unsafeERNS_7MessageE,"axG",%progbits,_ZN3r2p5Topic11free_unsafe
 898      AFF30080 
 899              		.align	2
 900              		.p2align 4,,15
 901              		.weak	_ZN3r2p5Topic11free_unsafeERNS_7MessageE
 902              		.thumb
 903              		.thumb_func
 904              		.type	_ZN3r2p5Topic11free_unsafeERNS_7MessageE, %function
 905              	_ZN3r2p5Topic11free_unsafeERNS_7MessageE:
 906              	.LFB304:
 907              		.loc 8 281 0
 908              		.cfi_startproc
 909              		@ args = 0, pretend = 0, frame = 8
 910              		@ frame_needed = 0, uses_anonymous_args = 0
 911 0000 00B5     		push	{lr}
 912              		.cfi_def_cfa_offset 4
 913              		.cfi_offset 14, -4
 914 0002 83B0     		sub	sp, sp, #12
 915              		.cfi_def_cfa_offset 16
 916 0004 0190     		str	r0, [sp, #4]
 917 0006 0091     		str	r1, [sp]
 918              		.loc 8 283 0
 919 0008 019B     		ldr	r3, [sp, #4]
 920 000a 0833     		adds	r3, r3, #8
 921 000c 1846     		mov	r0, r3
 922 000e 0099     		ldr	r1, [sp]
 923 0010 FFF7FEFF 		bl	_ZN3r2p11MemoryPool_11free_unsafeEPv
 924              		.loc 8 284 0
 925 0014 03B0     		add	sp, sp, #12
 926              		.cfi_def_cfa_offset 4
 927              		@ sp needed
 928 0016 5DF804FB 		ldr	pc, [sp], #4
 929              		.cfi_endproc
 930              	.LFE304:
 931              		.size	_ZN3r2p5Topic11free_unsafeERNS_7MessageE, .-_ZN3r2p5Topic11free_unsafeERNS_7MessageE
 932 001a 00BFAFF3 		.section	.text._ZN3r2p5Topic4freeERNS_7MessageE,"axG",%progbits,_ZN3r2p5Topic4freeERNS_7MessageE,c
 932      0080
 933              		.align	2
 934              		.p2align 4,,15
 935              		.weak	_ZN3r2p5Topic4freeERNS_7MessageE
 936              		.thumb
 937              		.thumb_func
 938              		.type	_ZN3r2p5Topic4freeERNS_7MessageE, %function
 939              	_ZN3r2p5Topic4freeERNS_7MessageE:
 940              	.LFB309:
 941              		.loc 8 323 0
 942              		.cfi_startproc
 943              		@ args = 0, pretend = 0, frame = 8
 944              		@ frame_needed = 0, uses_anonymous_args = 0
 945 0000 00B5     		push	{lr}
 946              		.cfi_def_cfa_offset 4
 947              		.cfi_offset 14, -4
 948 0002 83B0     		sub	sp, sp, #12
 949              		.cfi_def_cfa_offset 16
 950 0004 0190     		str	r0, [sp, #4]
 951 0006 0091     		str	r1, [sp]
ARM GAS  /tmp/cc9AvIGf.s 			page 18


 952              		.loc 8 325 0
 953 0008 019B     		ldr	r3, [sp, #4]
 954 000a 0833     		adds	r3, r3, #8
 955 000c 1846     		mov	r0, r3
 956 000e 0099     		ldr	r1, [sp]
 957 0010 FFF7FEFF 		bl	_ZN3r2p11MemoryPool_4freeEPv
 958              		.loc 8 326 0
 959 0014 03B0     		add	sp, sp, #12
 960              		.cfi_def_cfa_offset 4
 961              		@ sp needed
 962 0016 5DF804FB 		ldr	pc, [sp], #4
 963              		.cfi_endproc
 964              	.LFE309:
 965              		.size	_ZN3r2p5Topic4freeERNS_7MessageE, .-_ZN3r2p5Topic4freeERNS_7MessageE
 966 001a 00BFAFF3 		.section	.text._ZN3r2p10Middleware14get_mgmt_topicEv,"axG",%progbits,_ZN3r2p10Middleware14get_mgmt
 966      0080
 967              		.align	2
 968              		.p2align 4,,15
 969              		.weak	_ZN3r2p10Middleware14get_mgmt_topicEv
 970              		.thumb
 971              		.thumb_func
 972              		.type	_ZN3r2p10Middleware14get_mgmt_topicEv, %function
 973              	_ZN3r2p10Middleware14get_mgmt_topicEv:
 974              	.LFB593:
 975              		.file 9 "/home/ergae/r2p-sdk/core/Middleware/include/r2p/Middleware.hpp"
 976              		.loc 9 198 0
 977              		.cfi_startproc
 978              		@ args = 0, pretend = 0, frame = 8
 979              		@ frame_needed = 0, uses_anonymous_args = 0
 980              		@ link register save eliminated.
 981 0000 82B0     		sub	sp, sp, #8
 982              		.cfi_def_cfa_offset 8
 983 0002 0190     		str	r0, [sp, #4]
 984              		.loc 9 200 0
 985 0004 019B     		ldr	r3, [sp, #4]
 986 0006 2833     		adds	r3, r3, #40
 987              		.loc 9 201 0
 988 0008 1846     		mov	r0, r3
 989 000a 02B0     		add	sp, sp, #8
 990              		.cfi_def_cfa_offset 0
 991              		@ sp needed
 992 000c 7047     		bx	lr
 993              		.cfi_endproc
 994              	.LFE593:
 995              		.size	_ZN3r2p10Middleware14get_mgmt_topicEv, .-_ZN3r2p10Middleware14get_mgmt_topicEv
 996 000e 00BF     		.section	.text._ZN3r2p5Topic20notify_locals_unsafeERNS_7MessageERKNS_4TimeE,"ax",%progbits
 997              		.align	2
 998              		.p2align 4,,15
 999              		.global	_ZN3r2p5Topic20notify_locals_unsafeERNS_7MessageERKNS_4TimeE
 1000              		.thumb
 1001              		.thumb_func
 1002              		.type	_ZN3r2p5Topic20notify_locals_unsafeERNS_7MessageERKNS_4TimeE, %function
 1003              	_ZN3r2p5Topic20notify_locals_unsafeERNS_7MessageERKNS_4TimeE:
 1004              	.LFB596:
 1005              		.file 10 "/home/ergae/r2p-sdk/core/Middleware/src/Topic.cpp"
 1006              		.loc 10 11 0
 1007              		.cfi_startproc
ARM GAS  /tmp/cc9AvIGf.s 			page 19


 1008              		@ args = 0, pretend = 0, frame = 24
 1009              		@ frame_needed = 0, uses_anonymous_args = 0
 1010 0000 00B5     		push	{lr}
 1011              		.cfi_def_cfa_offset 4
 1012              		.cfi_offset 14, -4
 1013 0002 87B0     		sub	sp, sp, #28
 1014              		.cfi_def_cfa_offset 32
 1015 0004 0390     		str	r0, [sp, #12]
 1016 0006 0291     		str	r1, [sp, #8]
 1017 0008 0192     		str	r2, [sp, #4]
 1018              	.LBB19:
 1019              	.LBB20:
 1020              		.loc 10 13 0
 1021 000a 0398     		ldr	r0, [sp, #12]
 1022 000c FFF7FEFF 		bl	_ZNK3r2p5Topic21has_local_subscribersEv
 1023 0010 0346     		mov	r3, r0
 1024 0012 002B     		cmp	r3, #0
 1025 0014 33D0     		beq	.L61
 1026              	.LBB21:
 1027              	.LBB22:
 1028              		.loc 10 15 0
 1029 0016 039B     		ldr	r3, [sp, #12]
 1030 0018 1C33     		adds	r3, r3, #28
 1031 001a 04AA     		add	r2, sp, #16
 1032 001c 1046     		mov	r0, r2
 1033 001e 1946     		mov	r1, r3
 1034 0020 FFF7FEFF 		bl	_ZN3r2p10StaticListINS_15LocalSubscriberEE12begin_unsafeEv
 1035              		.loc 10 14 0
 1036 0024 1BE0     		b	.L62
 1037              	.L64:
 1038              		.loc 10 17 0
 1039 0026 0298     		ldr	r0, [sp, #8]
 1040 0028 FFF7FEFF 		bl	_ZN3r2p7Message14acquire_unsafeEv
 1041              		.loc 10 18 0
 1042 002c 04AB     		add	r3, sp, #16
 1043 002e 1846     		mov	r0, r3
 1044 0030 FFF7FEFF 		bl	_ZNK3r2p10StaticListINS_15LocalSubscriberEE14IteratorUnsafeptEv
 1045 0034 0246     		mov	r2, r0
 1046 0036 1368     		ldr	r3, [r2]
 1047 0038 0433     		adds	r3, r3, #4
 1048 003a 1B68     		ldr	r3, [r3]
 1049 003c 1046     		mov	r0, r2
 1050 003e 0299     		ldr	r1, [sp, #8]
 1051 0040 019A     		ldr	r2, [sp, #4]
 1052 0042 9847     		blx	r3
 1053 0044 0346     		mov	r3, r0
 1054 0046 83F00103 		eor	r3, r3, #1
 1055 004a DBB2     		uxtb	r3, r3
 1056 004c 002B     		cmp	r3, #0
 1057 004e 02D0     		beq	.L63
 1058              		.loc 10 19 0
 1059 0050 0298     		ldr	r0, [sp, #8]
 1060 0052 FFF7FEFF 		bl	_ZN3r2p7Message14release_unsafeEv
 1061              	.L63:
 1062              		.loc 10 14 0
 1063 0056 04AB     		add	r3, sp, #16
 1064 0058 1846     		mov	r0, r3
ARM GAS  /tmp/cc9AvIGf.s 			page 20


 1065 005a FFF7FEFF 		bl	_ZN3r2p10StaticListINS_15LocalSubscriberEE14IteratorUnsafeppEv
 1066              	.L62:
 1067              		.loc 10 16 0 discriminator 1
 1068 005e 039B     		ldr	r3, [sp, #12]
 1069 0060 1C33     		adds	r3, r3, #28
 1070 0062 05AA     		add	r2, sp, #20
 1071 0064 1046     		mov	r0, r2
 1072 0066 1946     		mov	r1, r3
 1073 0068 FFF7FEFF 		bl	_ZN3r2p10StaticListINS_15LocalSubscriberEE10end_unsafeEv
 1074              		.loc 10 14 0 discriminator 1
 1075 006c 04AA     		add	r2, sp, #16
 1076 006e 05AB     		add	r3, sp, #20
 1077 0070 1046     		mov	r0, r2
 1078 0072 1946     		mov	r1, r3
 1079 0074 FFF7FEFF 		bl	_ZNK3r2p10StaticListINS_15LocalSubscriberEE14IteratorUnsafeneERKS3_
 1080 0078 0346     		mov	r3, r0
 1081 007a 002B     		cmp	r3, #0
 1082 007c D3D1     		bne	.L64
 1083              	.L61:
 1084              	.LBE22:
 1085              	.LBE21:
 1086              	.LBE20:
 1087              		.loc 10 24 0
 1088 007e 0123     		movs	r3, #1
 1089              	.LBE19:
 1090              		.loc 10 25 0
 1091 0080 1846     		mov	r0, r3
 1092 0082 07B0     		add	sp, sp, #28
 1093              		.cfi_def_cfa_offset 4
 1094              		@ sp needed
 1095 0084 5DF804FB 		ldr	pc, [sp], #4
 1096              		.cfi_endproc
 1097              	.LFE596:
 1098              		.size	_ZN3r2p5Topic20notify_locals_unsafeERNS_7MessageERKNS_4TimeE, .-_ZN3r2p5Topic20notify_locals
 1099 0088 AFF30080 		.section	.text._ZN3r2p5Topic21notify_remotes_unsafeERNS_7MessageERKNS_4TimeE,"ax",%progbits
 1099      AFF30080 
 1100              		.align	2
 1101              		.p2align 4,,15
 1102              		.global	_ZN3r2p5Topic21notify_remotes_unsafeERNS_7MessageERKNS_4TimeE
 1103              		.thumb
 1104              		.thumb_func
 1105              		.type	_ZN3r2p5Topic21notify_remotes_unsafeERNS_7MessageERKNS_4TimeE, %function
 1106              	_ZN3r2p5Topic21notify_remotes_unsafeERNS_7MessageERKNS_4TimeE:
 1107              	.LFB597:
 1108              		.loc 10 28 0
 1109              		.cfi_startproc
 1110              		@ args = 0, pretend = 0, frame = 24
 1111              		@ frame_needed = 0, uses_anonymous_args = 0
 1112 0000 00B5     		push	{lr}
 1113              		.cfi_def_cfa_offset 4
 1114              		.cfi_offset 14, -4
 1115 0002 87B0     		sub	sp, sp, #28
 1116              		.cfi_def_cfa_offset 32
 1117 0004 0390     		str	r0, [sp, #12]
 1118 0006 0291     		str	r1, [sp, #8]
 1119 0008 0192     		str	r2, [sp, #4]
 1120              	.LBB23:
ARM GAS  /tmp/cc9AvIGf.s 			page 21


 1121              	.LBB24:
 1122              		.loc 10 30 0
 1123 000a 0398     		ldr	r0, [sp, #12]
 1124 000c FFF7FEFF 		bl	_ZNK3r2p5Topic22has_remote_subscribersEv
 1125 0010 0346     		mov	r3, r0
 1126 0012 002B     		cmp	r3, #0
 1127 0014 34D0     		beq	.L67
 1128              	.LBB25:
 1129              	.LBB26:
 1130              		.loc 10 32 0
 1131 0016 039B     		ldr	r3, [sp, #12]
 1132 0018 2033     		adds	r3, r3, #32
 1133 001a 04AA     		add	r2, sp, #16
 1134 001c 1046     		mov	r0, r2
 1135 001e 1946     		mov	r1, r3
 1136 0020 FFF7FEFF 		bl	_ZN3r2p10StaticListINS_16RemoteSubscriberEE12begin_unsafeEv
 1137              		.loc 10 31 0
 1138 0024 1CE0     		b	.L68
 1139              	.L70:
 1140              		.loc 10 42 0
 1141 0026 0298     		ldr	r0, [sp, #8]
 1142 0028 FFF7FEFF 		bl	_ZN3r2p7Message14acquire_unsafeEv
 1143              		.loc 10 43 0
 1144 002c 04AB     		add	r3, sp, #16
 1145 002e 1846     		mov	r0, r3
 1146 0030 FFF7FEFF 		bl	_ZNK3r2p10StaticListINS_16RemoteSubscriberEE14IteratorUnsafeptEv
 1147 0034 0346     		mov	r3, r0
 1148 0036 1A46     		mov	r2, r3
 1149 0038 1368     		ldr	r3, [r2]
 1150 003a 0433     		adds	r3, r3, #4
 1151 003c 1B68     		ldr	r3, [r3]
 1152 003e 1046     		mov	r0, r2
 1153 0040 0299     		ldr	r1, [sp, #8]
 1154 0042 019A     		ldr	r2, [sp, #4]
 1155 0044 9847     		blx	r3
 1156 0046 0346     		mov	r3, r0
 1157 0048 83F00103 		eor	r3, r3, #1
 1158 004c DBB2     		uxtb	r3, r3
 1159 004e 002B     		cmp	r3, #0
 1160 0050 02D0     		beq	.L69
 1161              		.loc 10 44 0
 1162 0052 0298     		ldr	r0, [sp, #8]
 1163 0054 FFF7FEFF 		bl	_ZN3r2p7Message14release_unsafeEv
 1164              	.L69:
 1165              		.loc 10 31 0
 1166 0058 04AB     		add	r3, sp, #16
 1167 005a 1846     		mov	r0, r3
 1168 005c FFF7FEFF 		bl	_ZN3r2p10StaticListINS_16RemoteSubscriberEE14IteratorUnsafeppEv
 1169              	.L68:
 1170              		.loc 10 33 0 discriminator 1
 1171 0060 039B     		ldr	r3, [sp, #12]
 1172 0062 2033     		adds	r3, r3, #32
 1173 0064 05AA     		add	r2, sp, #20
 1174 0066 1046     		mov	r0, r2
 1175 0068 1946     		mov	r1, r3
 1176 006a FFF7FEFF 		bl	_ZN3r2p10StaticListINS_16RemoteSubscriberEE10end_unsafeEv
 1177              		.loc 10 31 0 discriminator 1
ARM GAS  /tmp/cc9AvIGf.s 			page 22


 1178 006e 04AA     		add	r2, sp, #16
 1179 0070 05AB     		add	r3, sp, #20
 1180 0072 1046     		mov	r0, r2
 1181 0074 1946     		mov	r1, r3
 1182 0076 FFF7FEFF 		bl	_ZNK3r2p10StaticListINS_16RemoteSubscriberEE14IteratorUnsafeneERKS3_
 1183 007a 0346     		mov	r3, r0
 1184 007c 002B     		cmp	r3, #0
 1185 007e D2D1     		bne	.L70
 1186              	.L67:
 1187              	.LBE26:
 1188              	.LBE25:
 1189              	.LBE24:
 1190              		.loc 10 49 0
 1191 0080 0123     		movs	r3, #1
 1192              	.LBE23:
 1193              		.loc 10 50 0
 1194 0082 1846     		mov	r0, r3
 1195 0084 07B0     		add	sp, sp, #28
 1196              		.cfi_def_cfa_offset 4
 1197              		@ sp needed
 1198 0086 5DF804FB 		ldr	pc, [sp], #4
 1199              		.cfi_endproc
 1200              	.LFE597:
 1201              		.size	_ZN3r2p5Topic21notify_remotes_unsafeERNS_7MessageERKNS_4TimeE, .-_ZN3r2p5Topic21notify_remot
 1202 008a 00BFAFF3 		.section	.text._ZN3r2p5Topic19forward_copy_unsafeERKNS_7MessageERKNS_4TimeE,"ax",%progbits
 1202      0080
 1203              		.align	2
 1204              		.p2align 4,,15
 1205              		.global	_ZN3r2p5Topic19forward_copy_unsafeERKNS_7MessageERKNS_4TimeE
 1206              		.thumb
 1207              		.thumb_func
 1208              		.type	_ZN3r2p5Topic19forward_copy_unsafeERKNS_7MessageERKNS_4TimeE, %function
 1209              	_ZN3r2p5Topic19forward_copy_unsafeERKNS_7MessageERKNS_4TimeE:
 1210              	.LFB598:
 1211              		.loc 10 53 0
 1212              		.cfi_startproc
 1213              		@ args = 0, pretend = 0, frame = 32
 1214              		@ frame_needed = 0, uses_anonymous_args = 0
 1215 0000 10B5     		push	{r4, lr}
 1216              		.cfi_def_cfa_offset 8
 1217              		.cfi_offset 4, -8
 1218              		.cfi_offset 14, -4
 1219 0002 88B0     		sub	sp, sp, #32
 1220              		.cfi_def_cfa_offset 40
 1221 0004 0390     		str	r0, [sp, #12]
 1222 0006 0291     		str	r1, [sp, #8]
 1223 0008 0192     		str	r2, [sp, #4]
 1224              	.LBB27:
 1225              		.loc 10 55 0
 1226 000a 0123     		movs	r3, #1
 1227 000c 8DF81F30 		strb	r3, [sp, #31]
 1228              	.LBB28:
 1229              		.loc 10 58 0
 1230 0010 039B     		ldr	r3, [sp, #12]
 1231 0012 2033     		adds	r3, r3, #32
 1232 0014 05AA     		add	r2, sp, #20
 1233 0016 1046     		mov	r0, r2
ARM GAS  /tmp/cc9AvIGf.s 			page 23


 1234 0018 1946     		mov	r1, r3
 1235 001a FFF7FEFF 		bl	_ZN3r2p10StaticListINS_16RemoteSubscriberEE12begin_unsafeEv
 1236              		.loc 10 57 0
 1237 001e 47E0     		b	.L73
 1238              	.L76:
 1239              	.LBB29:
 1240              		.loc 10 69 0
 1241 0020 04AB     		add	r3, sp, #16
 1242 0022 0398     		ldr	r0, [sp, #12]
 1243 0024 1946     		mov	r1, r3
 1244 0026 FFF7FEFF 		bl	_ZN3r2p5Topic12alloc_unsafeINS_7MessageEEEbRPT_
 1245 002a 0346     		mov	r3, r0
 1246 002c 002B     		cmp	r3, #0
 1247 002e 38D0     		beq	.L74
 1248              		.loc 10 70 0
 1249 0030 049C     		ldr	r4, [sp, #16]
 1250 0032 0398     		ldr	r0, [sp, #12]
 1251 0034 FFF7FEFF 		bl	_ZNK3r2p5Topic13get_type_sizeEv
 1252 0038 0346     		mov	r3, r0
 1253 003a 2046     		mov	r0, r4
 1254 003c 0299     		ldr	r1, [sp, #8]
 1255 003e 1A46     		mov	r2, r3
 1256 0040 FFF7FEFF 		bl	_ZN3r2p7Message4copyERS0_RKS0_j
 1257              		.loc 10 71 0
 1258 0044 049C     		ldr	r4, [sp, #16]
 1259 0046 05AB     		add	r3, sp, #20
 1260 0048 1846     		mov	r0, r3
 1261 004a FFF7FEFF 		bl	_ZNK3r2p10StaticListINS_16RemoteSubscriberEE14IteratorUnsafeptEv
 1262 004e 0346     		mov	r3, r0
 1263 0050 1846     		mov	r0, r3
 1264 0052 FFF7FEFF 		bl	_ZNK3r2p16RemoteSubscriber13get_transportEv
 1265 0056 0346     		mov	r3, r0
 1266 0058 0398     		ldr	r0, [sp, #12]
 1267 005a 2146     		mov	r1, r4
 1268 005c 1A46     		mov	r2, r3
 1269 005e FFF7FEFF 		bl	_ZNK3r2p5Topic16patch_pubsub_msgERNS_7MessageERNS_9TransportE
 1270              		.loc 10 72 0
 1271 0062 049B     		ldr	r3, [sp, #16]
 1272 0064 1846     		mov	r0, r3
 1273 0066 FFF7FEFF 		bl	_ZN3r2p7Message14acquire_unsafeEv
 1274              		.loc 10 73 0
 1275 006a 05AB     		add	r3, sp, #20
 1276 006c 1846     		mov	r0, r3
 1277 006e FFF7FEFF 		bl	_ZNK3r2p10StaticListINS_16RemoteSubscriberEE14IteratorUnsafeptEv
 1278 0072 0346     		mov	r3, r0
 1279 0074 1A46     		mov	r2, r3
 1280 0076 1368     		ldr	r3, [r2]
 1281 0078 0433     		adds	r3, r3, #4
 1282 007a 1B68     		ldr	r3, [r3]
 1283 007c 0499     		ldr	r1, [sp, #16]
 1284 007e 1046     		mov	r0, r2
 1285 0080 019A     		ldr	r2, [sp, #4]
 1286 0082 9847     		blx	r3
 1287 0084 0346     		mov	r3, r0
 1288 0086 83F00103 		eor	r3, r3, #1
 1289 008a DBB2     		uxtb	r3, r3
 1290 008c 002B     		cmp	r3, #0
ARM GAS  /tmp/cc9AvIGf.s 			page 24


 1291 008e 0BD0     		beq	.L75
 1292              		.loc 10 74 0
 1293 0090 049B     		ldr	r3, [sp, #16]
 1294 0092 0398     		ldr	r0, [sp, #12]
 1295 0094 1946     		mov	r1, r3
 1296 0096 FFF7FEFF 		bl	_ZN3r2p5Topic11free_unsafeERNS_7MessageE
 1297              		.loc 10 75 0
 1298 009a 0023     		movs	r3, #0
 1299 009c 8DF81F30 		strb	r3, [sp, #31]
 1300 00a0 02E0     		b	.L75
 1301              	.L74:
 1302              		.loc 10 78 0
 1303 00a2 0023     		movs	r3, #0
 1304 00a4 8DF81F30 		strb	r3, [sp, #31]
 1305              	.L75:
 1306              	.LBE29:
 1307              		.loc 10 57 0 discriminator 1
 1308 00a8 05AB     		add	r3, sp, #20
 1309 00aa 1846     		mov	r0, r3
 1310 00ac FFF7FEFF 		bl	_ZN3r2p10StaticListINS_16RemoteSubscriberEE14IteratorUnsafeppEv
 1311              	.L73:
 1312              		.loc 10 59 0 discriminator 1
 1313 00b0 039B     		ldr	r3, [sp, #12]
 1314 00b2 2033     		adds	r3, r3, #32
 1315 00b4 06AA     		add	r2, sp, #24
 1316 00b6 1046     		mov	r0, r2
 1317 00b8 1946     		mov	r1, r3
 1318 00ba FFF7FEFF 		bl	_ZN3r2p10StaticListINS_16RemoteSubscriberEE10end_unsafeEv
 1319              		.loc 10 57 0 discriminator 1
 1320 00be 05AA     		add	r2, sp, #20
 1321 00c0 06AB     		add	r3, sp, #24
 1322 00c2 1046     		mov	r0, r2
 1323 00c4 1946     		mov	r1, r3
 1324 00c6 FFF7FEFF 		bl	_ZNK3r2p10StaticListINS_16RemoteSubscriberEE14IteratorUnsafeneERKS3_
 1325 00ca 0346     		mov	r3, r0
 1326 00cc 002B     		cmp	r3, #0
 1327 00ce A7D1     		bne	.L76
 1328              	.LBE28:
 1329              		.loc 10 82 0
 1330 00d0 9DF81F30 		ldrb	r3, [sp, #31]	@ zero_extendqisi2
 1331              	.LBE27:
 1332              		.loc 10 83 0
 1333 00d4 1846     		mov	r0, r3
 1334 00d6 08B0     		add	sp, sp, #32
 1335              		.cfi_def_cfa_offset 8
 1336              		@ sp needed
 1337 00d8 10BD     		pop	{r4, pc}
 1338              		.cfi_endproc
 1339              	.LFE598:
 1340              		.size	_ZN3r2p5Topic19forward_copy_unsafeERKNS_7MessageERKNS_4TimeE, .-_ZN3r2p5Topic19forward_copy_
 1341 00da 00BFAFF3 		.section	.text._ZN3r2p5Topic5allocEv,"ax",%progbits
 1341      0080
 1342              		.align	2
 1343              		.p2align 4,,15
 1344              		.global	_ZN3r2p5Topic5allocEv
 1345              		.thumb
 1346              		.thumb_func
ARM GAS  /tmp/cc9AvIGf.s 			page 25


 1347              		.type	_ZN3r2p5Topic5allocEv, %function
 1348              	_ZN3r2p5Topic5allocEv:
 1349              	.LFB599:
 1350              		.loc 10 86 0
 1351              		.cfi_startproc
 1352              		@ args = 0, pretend = 0, frame = 16
 1353              		@ frame_needed = 0, uses_anonymous_args = 0
 1354 0000 00B5     		push	{lr}
 1355              		.cfi_def_cfa_offset 4
 1356              		.cfi_offset 14, -4
 1357 0002 85B0     		sub	sp, sp, #20
 1358              		.cfi_def_cfa_offset 24
 1359 0004 0190     		str	r0, [sp, #4]
 1360              	.LBB30:
 1361              		.loc 10 88 0
 1362 0006 FFF7FEFF 		bl	_ZN3r2p7SysLock7acquireEv
 1363              		.loc 10 89 0
 1364 000a 0198     		ldr	r0, [sp, #4]
 1365 000c FFF7FEFF 		bl	_ZN3r2p5Topic12alloc_unsafeEv
 1366 0010 0390     		str	r0, [sp, #12]
 1367              		.loc 10 90 0
 1368 0012 FFF7FEFF 		bl	_ZN3r2p7SysLock7releaseEv
 1369              		.loc 10 91 0
 1370 0016 039B     		ldr	r3, [sp, #12]
 1371              	.LBE30:
 1372              		.loc 10 92 0
 1373 0018 1846     		mov	r0, r3
 1374 001a 05B0     		add	sp, sp, #20
 1375              		.cfi_def_cfa_offset 4
 1376              		@ sp needed
 1377 001c 5DF804FB 		ldr	pc, [sp], #4
 1378              		.cfi_endproc
 1379              	.LFE599:
 1380              		.size	_ZN3r2p5Topic5allocEv, .-_ZN3r2p5Topic5allocEv
 1381              		.section	.text._ZN3r2p5Topic13notify_localsERNS_7MessageERKNS_4TimeE,"ax",%progbits
 1382              		.align	2
 1383              		.p2align 4,,15
 1384              		.global	_ZN3r2p5Topic13notify_localsERNS_7MessageERKNS_4TimeE
 1385              		.thumb
 1386              		.thumb_func
 1387              		.type	_ZN3r2p5Topic13notify_localsERNS_7MessageERKNS_4TimeE, %function
 1388              	_ZN3r2p5Topic13notify_localsERNS_7MessageERKNS_4TimeE:
 1389              	.LFB600:
 1390              		.loc 10 95 0
 1391              		.cfi_startproc
 1392              		@ args = 0, pretend = 0, frame = 24
 1393              		@ frame_needed = 0, uses_anonymous_args = 0
 1394 0000 00B5     		push	{lr}
 1395              		.cfi_def_cfa_offset 4
 1396              		.cfi_offset 14, -4
 1397 0002 87B0     		sub	sp, sp, #28
 1398              		.cfi_def_cfa_offset 32
 1399 0004 0390     		str	r0, [sp, #12]
 1400 0006 0291     		str	r1, [sp, #8]
 1401 0008 0192     		str	r2, [sp, #4]
 1402              	.LBB31:
 1403              	.LBB32:
ARM GAS  /tmp/cc9AvIGf.s 			page 26


 1404              		.loc 10 97 0
 1405 000a 0398     		ldr	r0, [sp, #12]
 1406 000c FFF7FEFF 		bl	_ZNK3r2p5Topic21has_local_subscribersEv
 1407 0010 0346     		mov	r3, r0
 1408 0012 002B     		cmp	r3, #0
 1409 0014 33D0     		beq	.L81
 1410              	.LBB33:
 1411              	.LBB34:
 1412              		.loc 10 98 0
 1413 0016 039B     		ldr	r3, [sp, #12]
 1414 0018 1C33     		adds	r3, r3, #28
 1415 001a 04AA     		add	r2, sp, #16
 1416 001c 1046     		mov	r0, r2
 1417 001e 1946     		mov	r1, r3
 1418 0020 FFF7FEFF 		bl	_ZN3r2p10StaticListINS_15LocalSubscriberEE5beginEv
 1419 0024 1BE0     		b	.L82
 1420              	.L84:
 1421              		.loc 10 100 0
 1422 0026 0298     		ldr	r0, [sp, #8]
 1423 0028 FFF7FEFF 		bl	_ZN3r2p7Message7acquireEv
 1424              		.loc 10 101 0
 1425 002c 04AB     		add	r3, sp, #16
 1426 002e 1846     		mov	r0, r3
 1427 0030 FFF7FEFF 		bl	_ZNK3r2p10StaticListINS_15LocalSubscriberEE8IteratorptEv
 1428 0034 0246     		mov	r2, r0
 1429 0036 1368     		ldr	r3, [r2]
 1430 0038 0C33     		adds	r3, r3, #12
 1431 003a 1B68     		ldr	r3, [r3]
 1432 003c 1046     		mov	r0, r2
 1433 003e 0299     		ldr	r1, [sp, #8]
 1434 0040 019A     		ldr	r2, [sp, #4]
 1435 0042 9847     		blx	r3
 1436 0044 0346     		mov	r3, r0
 1437 0046 83F00103 		eor	r3, r3, #1
 1438 004a DBB2     		uxtb	r3, r3
 1439 004c 002B     		cmp	r3, #0
 1440 004e 02D0     		beq	.L83
 1441              		.loc 10 102 0
 1442 0050 0298     		ldr	r0, [sp, #8]
 1443 0052 FFF7FEFF 		bl	_ZN3r2p7Message7releaseEv
 1444              	.L83:
 1445              		.loc 10 98 0 discriminator 2
 1446 0056 04AB     		add	r3, sp, #16
 1447 0058 1846     		mov	r0, r3
 1448 005a FFF7FEFF 		bl	_ZN3r2p10StaticListINS_15LocalSubscriberEE8IteratorppEv
 1449              	.L82:
 1450              		.loc 10 99 0 discriminator 1
 1451 005e 039B     		ldr	r3, [sp, #12]
 1452 0060 1C33     		adds	r3, r3, #28
 1453 0062 05AA     		add	r2, sp, #20
 1454 0064 1046     		mov	r0, r2
 1455 0066 1946     		mov	r1, r3
 1456 0068 FFF7FEFF 		bl	_ZN3r2p10StaticListINS_15LocalSubscriberEE3endEv
 1457              		.loc 10 98 0 discriminator 1
 1458 006c 04AA     		add	r2, sp, #16
 1459 006e 05AB     		add	r3, sp, #20
 1460 0070 1046     		mov	r0, r2
ARM GAS  /tmp/cc9AvIGf.s 			page 27


 1461 0072 1946     		mov	r1, r3
 1462 0074 FFF7FEFF 		bl	_ZNK3r2p10StaticListINS_15LocalSubscriberEE8IteratorneERKS3_
 1463 0078 0346     		mov	r3, r0
 1464 007a 002B     		cmp	r3, #0
 1465 007c D3D1     		bne	.L84
 1466              	.L81:
 1467              	.LBE34:
 1468              	.LBE33:
 1469              	.LBE32:
 1470              		.loc 10 107 0
 1471 007e 0123     		movs	r3, #1
 1472              	.LBE31:
 1473              		.loc 10 108 0
 1474 0080 1846     		mov	r0, r3
 1475 0082 07B0     		add	sp, sp, #28
 1476              		.cfi_def_cfa_offset 4
 1477              		@ sp needed
 1478 0084 5DF804FB 		ldr	pc, [sp], #4
 1479              		.cfi_endproc
 1480              	.LFE600:
 1481              		.size	_ZN3r2p5Topic13notify_localsERNS_7MessageERKNS_4TimeE, .-_ZN3r2p5Topic13notify_localsERNS_7M
 1482 0088 AFF30080 		.section	.text._ZN3r2p5Topic14notify_remotesERNS_7MessageERKNS_4TimeE,"ax",%progbits
 1482      AFF30080 
 1483              		.align	2
 1484              		.p2align 4,,15
 1485              		.global	_ZN3r2p5Topic14notify_remotesERNS_7MessageERKNS_4TimeE
 1486              		.thumb
 1487              		.thumb_func
 1488              		.type	_ZN3r2p5Topic14notify_remotesERNS_7MessageERKNS_4TimeE, %function
 1489              	_ZN3r2p5Topic14notify_remotesERNS_7MessageERKNS_4TimeE:
 1490              	.LFB601:
 1491              		.loc 10 111 0
 1492              		.cfi_startproc
 1493              		@ args = 0, pretend = 0, frame = 32
 1494              		@ frame_needed = 0, uses_anonymous_args = 0
 1495 0000 30B5     		push	{r4, r5, lr}
 1496              		.cfi_def_cfa_offset 12
 1497              		.cfi_offset 4, -12
 1498              		.cfi_offset 5, -8
 1499              		.cfi_offset 14, -4
 1500 0002 89B0     		sub	sp, sp, #36
 1501              		.cfi_def_cfa_offset 48
 1502 0004 0390     		str	r0, [sp, #12]
 1503 0006 0291     		str	r1, [sp, #8]
 1504 0008 0192     		str	r2, [sp, #4]
 1505              	.LBB35:
 1506              	.LBB36:
 1507              		.loc 10 113 0
 1508 000a 06AB     		add	r3, sp, #24
 1509 000c 1846     		mov	r0, r3
 1510 000e FFF7FEFF 		bl	_ZN3r2p7SysLock5ScopeC1Ev
 1511              		.loc 10 114 0
 1512 0012 0398     		ldr	r0, [sp, #12]
 1513 0014 FFF7FEFF 		bl	_ZNK3r2p5Topic22has_remote_subscribersEv
 1514 0018 0346     		mov	r3, r0
 1515 001a 83F00103 		eor	r3, r3, #1
 1516 001e DBB2     		uxtb	r3, r3
ARM GAS  /tmp/cc9AvIGf.s 			page 28


 1517 0020 002B     		cmp	r3, #0
 1518 0022 02D0     		beq	.L87
 1519              		.loc 10 114 0 is_stmt 0 discriminator 1
 1520 0024 0125     		movs	r5, #1
 1521 0026 0024     		movs	r4, #0
 1522 0028 00E0     		b	.L88
 1523              	.L87:
 1524 002a 0124     		movs	r4, #1
 1525              	.L88:
 1526 002c 06AB     		add	r3, sp, #24
 1527 002e 1846     		mov	r0, r3
 1528 0030 FFF7FEFF 		bl	_ZN3r2p7SysLock5ScopeD1Ev
 1529 0034 012C     		cmp	r4, #1
 1530 0036 36D1     		bne	.L92
 1531              		.loc 10 114 0
 1532 0038 00BF     		nop
 1533              	.LBE36:
 1534              	.LBB37:
 1535              		.loc 10 116 0 is_stmt 1
 1536 003a 039B     		ldr	r3, [sp, #12]
 1537 003c 2033     		adds	r3, r3, #32
 1538 003e 05AA     		add	r2, sp, #20
 1539 0040 1046     		mov	r0, r2
 1540 0042 1946     		mov	r1, r3
 1541 0044 FFF7FEFF 		bl	_ZN3r2p10StaticListINS_16RemoteSubscriberEE5beginEv
 1542 0048 1CE0     		b	.L91
 1543              	.L94:
 1544              		.loc 10 127 0
 1545 004a 0298     		ldr	r0, [sp, #8]
 1546 004c FFF7FEFF 		bl	_ZN3r2p7Message7acquireEv
 1547              		.loc 10 128 0
 1548 0050 05AB     		add	r3, sp, #20
 1549 0052 1846     		mov	r0, r3
 1550 0054 FFF7FEFF 		bl	_ZNK3r2p10StaticListINS_16RemoteSubscriberEE8IteratorptEv
 1551 0058 0346     		mov	r3, r0
 1552 005a 1A46     		mov	r2, r3
 1553 005c 1368     		ldr	r3, [r2]
 1554 005e 0C33     		adds	r3, r3, #12
 1555 0060 1B68     		ldr	r3, [r3]
 1556 0062 1046     		mov	r0, r2
 1557 0064 0299     		ldr	r1, [sp, #8]
 1558 0066 019A     		ldr	r2, [sp, #4]
 1559 0068 9847     		blx	r3
 1560 006a 0346     		mov	r3, r0
 1561 006c 83F00103 		eor	r3, r3, #1
 1562 0070 DBB2     		uxtb	r3, r3
 1563 0072 002B     		cmp	r3, #0
 1564 0074 02D0     		beq	.L93
 1565              		.loc 10 129 0
 1566 0076 0298     		ldr	r0, [sp, #8]
 1567 0078 FFF7FEFF 		bl	_ZN3r2p7Message7releaseEv
 1568              	.L93:
 1569              		.loc 10 116 0 discriminator 2
 1570 007c 05AB     		add	r3, sp, #20
 1571 007e 1846     		mov	r0, r3
 1572 0080 FFF7FEFF 		bl	_ZN3r2p10StaticListINS_16RemoteSubscriberEE8IteratorppEv
 1573              	.L91:
ARM GAS  /tmp/cc9AvIGf.s 			page 29


 1574              		.loc 10 117 0 discriminator 1
 1575 0084 039B     		ldr	r3, [sp, #12]
 1576 0086 2033     		adds	r3, r3, #32
 1577 0088 07AA     		add	r2, sp, #28
 1578 008a 1046     		mov	r0, r2
 1579 008c 1946     		mov	r1, r3
 1580 008e FFF7FEFF 		bl	_ZN3r2p10StaticListINS_16RemoteSubscriberEE3endEv
 1581              		.loc 10 116 0 discriminator 1
 1582 0092 05AA     		add	r2, sp, #20
 1583 0094 07AB     		add	r3, sp, #28
 1584 0096 1046     		mov	r0, r2
 1585 0098 1946     		mov	r1, r3
 1586 009a FFF7FEFF 		bl	_ZNK3r2p10StaticListINS_16RemoteSubscriberEE8IteratorneERKS3_
 1587 009e 0346     		mov	r3, r0
 1588 00a0 002B     		cmp	r3, #0
 1589 00a2 D2D1     		bne	.L94
 1590              	.LBE37:
 1591              		.loc 10 133 0
 1592 00a4 0125     		movs	r5, #1
 1593              	.L92:
 1594 00a6 2B46     		mov	r3, r5
 1595              	.LBE35:
 1596              		.loc 10 134 0 discriminator 3
 1597 00a8 1846     		mov	r0, r3
 1598 00aa 09B0     		add	sp, sp, #36
 1599              		.cfi_def_cfa_offset 12
 1600              		@ sp needed
 1601 00ac 30BD     		pop	{r4, r5, pc}
 1602              		.cfi_endproc
 1603              	.LFE601:
 1604              		.size	_ZN3r2p5Topic14notify_remotesERNS_7MessageERKNS_4TimeE, .-_ZN3r2p5Topic14notify_remotesERNS_
 1605 00ae 00BF     		.section	.text._ZN3r2p5Topic12forward_copyERKNS_7MessageERKNS_4TimeE,"ax",%progbits
 1606              		.align	2
 1607              		.p2align 4,,15
 1608              		.global	_ZN3r2p5Topic12forward_copyERKNS_7MessageERKNS_4TimeE
 1609              		.thumb
 1610              		.thumb_func
 1611              		.type	_ZN3r2p5Topic12forward_copyERKNS_7MessageERKNS_4TimeE, %function
 1612              	_ZN3r2p5Topic12forward_copyERKNS_7MessageERKNS_4TimeE:
 1613              	.LFB602:
 1614              		.loc 10 137 0
 1615              		.cfi_startproc
 1616              		@ args = 0, pretend = 0, frame = 32
 1617              		@ frame_needed = 0, uses_anonymous_args = 0
 1618 0000 10B5     		push	{r4, lr}
 1619              		.cfi_def_cfa_offset 8
 1620              		.cfi_offset 4, -8
 1621              		.cfi_offset 14, -4
 1622 0002 88B0     		sub	sp, sp, #32
 1623              		.cfi_def_cfa_offset 40
 1624 0004 0390     		str	r0, [sp, #12]
 1625 0006 0291     		str	r1, [sp, #8]
 1626 0008 0192     		str	r2, [sp, #4]
 1627              	.LBB38:
 1628              		.loc 10 139 0
 1629 000a 0123     		movs	r3, #1
 1630 000c 8DF81F30 		strb	r3, [sp, #31]
ARM GAS  /tmp/cc9AvIGf.s 			page 30


 1631              	.LBB39:
 1632              		.loc 10 141 0
 1633 0010 039B     		ldr	r3, [sp, #12]
 1634 0012 2033     		adds	r3, r3, #32
 1635 0014 05AA     		add	r2, sp, #20
 1636 0016 1046     		mov	r0, r2
 1637 0018 1946     		mov	r1, r3
 1638 001a FFF7FEFF 		bl	_ZN3r2p10StaticListINS_16RemoteSubscriberEE5beginEv
 1639 001e 47E0     		b	.L97
 1640              	.L100:
 1641              	.LBB40:
 1642              		.loc 10 152 0
 1643 0020 04AB     		add	r3, sp, #16
 1644 0022 0398     		ldr	r0, [sp, #12]
 1645 0024 1946     		mov	r1, r3
 1646 0026 FFF7FEFF 		bl	_ZN3r2p5Topic5allocINS_7MessageEEEbRPT_
 1647 002a 0346     		mov	r3, r0
 1648 002c 002B     		cmp	r3, #0
 1649 002e 38D0     		beq	.L98
 1650              		.loc 10 153 0
 1651 0030 049C     		ldr	r4, [sp, #16]
 1652 0032 0398     		ldr	r0, [sp, #12]
 1653 0034 FFF7FEFF 		bl	_ZNK3r2p5Topic13get_type_sizeEv
 1654 0038 0346     		mov	r3, r0
 1655 003a 2046     		mov	r0, r4
 1656 003c 0299     		ldr	r1, [sp, #8]
 1657 003e 1A46     		mov	r2, r3
 1658 0040 FFF7FEFF 		bl	_ZN3r2p7Message4copyERS0_RKS0_j
 1659              		.loc 10 154 0
 1660 0044 049C     		ldr	r4, [sp, #16]
 1661 0046 05AB     		add	r3, sp, #20
 1662 0048 1846     		mov	r0, r3
 1663 004a FFF7FEFF 		bl	_ZNK3r2p10StaticListINS_16RemoteSubscriberEE8IteratorptEv
 1664 004e 0346     		mov	r3, r0
 1665 0050 1846     		mov	r0, r3
 1666 0052 FFF7FEFF 		bl	_ZNK3r2p16RemoteSubscriber13get_transportEv
 1667 0056 0346     		mov	r3, r0
 1668 0058 0398     		ldr	r0, [sp, #12]
 1669 005a 2146     		mov	r1, r4
 1670 005c 1A46     		mov	r2, r3
 1671 005e FFF7FEFF 		bl	_ZNK3r2p5Topic16patch_pubsub_msgERNS_7MessageERNS_9TransportE
 1672              		.loc 10 155 0
 1673 0062 049B     		ldr	r3, [sp, #16]
 1674 0064 1846     		mov	r0, r3
 1675 0066 FFF7FEFF 		bl	_ZN3r2p7Message7acquireEv
 1676              		.loc 10 156 0
 1677 006a 05AB     		add	r3, sp, #20
 1678 006c 1846     		mov	r0, r3
 1679 006e FFF7FEFF 		bl	_ZNK3r2p10StaticListINS_16RemoteSubscriberEE8IteratorptEv
 1680 0072 0346     		mov	r3, r0
 1681 0074 1A46     		mov	r2, r3
 1682 0076 1368     		ldr	r3, [r2]
 1683 0078 0C33     		adds	r3, r3, #12
 1684 007a 1B68     		ldr	r3, [r3]
 1685 007c 0499     		ldr	r1, [sp, #16]
 1686 007e 1046     		mov	r0, r2
 1687 0080 019A     		ldr	r2, [sp, #4]
ARM GAS  /tmp/cc9AvIGf.s 			page 31


 1688 0082 9847     		blx	r3
 1689 0084 0346     		mov	r3, r0
 1690 0086 83F00103 		eor	r3, r3, #1
 1691 008a DBB2     		uxtb	r3, r3
 1692 008c 002B     		cmp	r3, #0
 1693 008e 0BD0     		beq	.L99
 1694              		.loc 10 157 0
 1695 0090 049B     		ldr	r3, [sp, #16]
 1696 0092 0398     		ldr	r0, [sp, #12]
 1697 0094 1946     		mov	r1, r3
 1698 0096 FFF7FEFF 		bl	_ZN3r2p5Topic4freeERNS_7MessageE
 1699              		.loc 10 158 0
 1700 009a 0023     		movs	r3, #0
 1701 009c 8DF81F30 		strb	r3, [sp, #31]
 1702 00a0 02E0     		b	.L99
 1703              	.L98:
 1704              		.loc 10 161 0
 1705 00a2 0023     		movs	r3, #0
 1706 00a4 8DF81F30 		strb	r3, [sp, #31]
 1707              	.L99:
 1708              	.LBE40:
 1709              		.loc 10 141 0 discriminator 1
 1710 00a8 05AB     		add	r3, sp, #20
 1711 00aa 1846     		mov	r0, r3
 1712 00ac FFF7FEFF 		bl	_ZN3r2p10StaticListINS_16RemoteSubscriberEE8IteratorppEv
 1713              	.L97:
 1714              		.loc 10 142 0 discriminator 2
 1715 00b0 039B     		ldr	r3, [sp, #12]
 1716 00b2 2033     		adds	r3, r3, #32
 1717 00b4 06AA     		add	r2, sp, #24
 1718 00b6 1046     		mov	r0, r2
 1719 00b8 1946     		mov	r1, r3
 1720 00ba FFF7FEFF 		bl	_ZN3r2p10StaticListINS_16RemoteSubscriberEE3endEv
 1721              		.loc 10 141 0 discriminator 2
 1722 00be 05AA     		add	r2, sp, #20
 1723 00c0 06AB     		add	r3, sp, #24
 1724 00c2 1046     		mov	r0, r2
 1725 00c4 1946     		mov	r1, r3
 1726 00c6 FFF7FEFF 		bl	_ZNK3r2p10StaticListINS_16RemoteSubscriberEE8IteratorneERKS3_
 1727 00ca 0346     		mov	r3, r0
 1728 00cc 002B     		cmp	r3, #0
 1729 00ce A7D1     		bne	.L100
 1730              	.LBE39:
 1731              		.loc 10 165 0
 1732 00d0 9DF81F30 		ldrb	r3, [sp, #31]	@ zero_extendqisi2
 1733              	.LBE38:
 1734              		.loc 10 166 0
 1735 00d4 1846     		mov	r0, r3
 1736 00d6 08B0     		add	sp, sp, #32
 1737              		.cfi_def_cfa_offset 8
 1738              		@ sp needed
 1739 00d8 10BD     		pop	{r4, pc}
 1740              		.cfi_endproc
 1741              	.LFE602:
 1742              		.size	_ZN3r2p5Topic12forward_copyERKNS_7MessageERKNS_4TimeE, .-_ZN3r2p5Topic12forward_copyERKNS_7M
 1743 00da 00BFAFF3 		.section	.text._ZN3r2p5Topic9advertiseERNS_14LocalPublisherERKNS_4TimeE,"ax",%progbits
 1743      0080
ARM GAS  /tmp/cc9AvIGf.s 			page 32


 1744              		.align	2
 1745              		.p2align 4,,15
 1746              		.global	_ZN3r2p5Topic9advertiseERNS_14LocalPublisherERKNS_4TimeE
 1747              		.thumb
 1748              		.thumb_func
 1749              		.type	_ZN3r2p5Topic9advertiseERNS_14LocalPublisherERKNS_4TimeE, %function
 1750              	_ZN3r2p5Topic9advertiseERNS_14LocalPublisherERKNS_4TimeE:
 1751              	.LFB603:
 1752              		.loc 10 169 0
 1753              		.cfi_startproc
 1754              		@ args = 0, pretend = 0, frame = 16
 1755              		@ frame_needed = 0, uses_anonymous_args = 0
 1756 0000 00B5     		push	{lr}
 1757              		.cfi_def_cfa_offset 4
 1758              		.cfi_offset 14, -4
 1759 0002 85B0     		sub	sp, sp, #20
 1760              		.cfi_def_cfa_offset 24
 1761 0004 0390     		str	r0, [sp, #12]
 1762 0006 0291     		str	r1, [sp, #8]
 1763 0008 0192     		str	r2, [sp, #4]
 1764              		.loc 10 172 0
 1765 000a FFF7FEFF 		bl	_ZN3r2p7SysLock7acquireEv
 1766              		.loc 10 173 0
 1767 000e 039B     		ldr	r3, [sp, #12]
 1768 0010 0433     		adds	r3, r3, #4
 1769 0012 1846     		mov	r0, r3
 1770 0014 0199     		ldr	r1, [sp, #4]
 1771 0016 FFF7FEFF 		bl	_ZN3r2pgtERKNS_4TimeES2_
 1772 001a 0346     		mov	r3, r0
 1773 001c 002B     		cmp	r3, #0
 1774 001e 05D0     		beq	.L103
 1775              		.loc 10 174 0
 1776 0020 039B     		ldr	r3, [sp, #12]
 1777 0022 0433     		adds	r3, r3, #4
 1778 0024 1846     		mov	r0, r3
 1779 0026 0199     		ldr	r1, [sp, #4]
 1780 0028 FFF7FEFF 		bl	_ZN3r2p4TimeaSERKS0_
 1781              	.L103:
 1782              		.loc 10 176 0
 1783 002c 039B     		ldr	r3, [sp, #12]
 1784 002e 5B69     		ldr	r3, [r3, #20]
 1785 0030 5A1C     		adds	r2, r3, #1
 1786 0032 039B     		ldr	r3, [sp, #12]
 1787 0034 5A61     		str	r2, [r3, #20]
 1788              		.loc 10 177 0
 1789 0036 FFF7FEFF 		bl	_ZN3r2p7SysLock7releaseEv
 1790              		.loc 10 178 0
 1791 003a 05B0     		add	sp, sp, #20
 1792              		.cfi_def_cfa_offset 4
 1793              		@ sp needed
 1794 003c 5DF804FB 		ldr	pc, [sp], #4
 1795              		.cfi_endproc
 1796              	.LFE603:
 1797              		.size	_ZN3r2p5Topic9advertiseERNS_14LocalPublisherERKNS_4TimeE, .-_ZN3r2p5Topic9advertiseERNS_14Lo
 1798              		.section	.text._ZN3r2p5Topic9advertiseERNS_15RemotePublisherERKNS_4TimeE,"ax",%progbits
 1799              		.align	2
 1800              		.p2align 4,,15
ARM GAS  /tmp/cc9AvIGf.s 			page 33


 1801              		.global	_ZN3r2p5Topic9advertiseERNS_15RemotePublisherERKNS_4TimeE
 1802              		.thumb
 1803              		.thumb_func
 1804              		.type	_ZN3r2p5Topic9advertiseERNS_15RemotePublisherERKNS_4TimeE, %function
 1805              	_ZN3r2p5Topic9advertiseERNS_15RemotePublisherERKNS_4TimeE:
 1806              	.LFB604:
 1807              		.loc 10 181 0
 1808              		.cfi_startproc
 1809              		@ args = 0, pretend = 0, frame = 16
 1810              		@ frame_needed = 0, uses_anonymous_args = 0
 1811 0000 00B5     		push	{lr}
 1812              		.cfi_def_cfa_offset 4
 1813              		.cfi_offset 14, -4
 1814 0002 85B0     		sub	sp, sp, #20
 1815              		.cfi_def_cfa_offset 24
 1816 0004 0390     		str	r0, [sp, #12]
 1817 0006 0291     		str	r1, [sp, #8]
 1818 0008 0192     		str	r2, [sp, #4]
 1819              		.loc 10 184 0
 1820 000a FFF7FEFF 		bl	_ZN3r2p7SysLock7acquireEv
 1821              		.loc 10 185 0
 1822 000e 039B     		ldr	r3, [sp, #12]
 1823 0010 0433     		adds	r3, r3, #4
 1824 0012 1846     		mov	r0, r3
 1825 0014 0199     		ldr	r1, [sp, #4]
 1826 0016 FFF7FEFF 		bl	_ZN3r2pgtERKNS_4TimeES2_
 1827 001a 0346     		mov	r3, r0
 1828 001c 002B     		cmp	r3, #0
 1829 001e 05D0     		beq	.L105
 1830              		.loc 10 186 0
 1831 0020 039B     		ldr	r3, [sp, #12]
 1832 0022 0433     		adds	r3, r3, #4
 1833 0024 1846     		mov	r0, r3
 1834 0026 0199     		ldr	r1, [sp, #4]
 1835 0028 FFF7FEFF 		bl	_ZN3r2p4TimeaSERKS0_
 1836              	.L105:
 1837              		.loc 10 188 0
 1838 002c 039B     		ldr	r3, [sp, #12]
 1839 002e 9B69     		ldr	r3, [r3, #24]
 1840 0030 5A1C     		adds	r2, r3, #1
 1841 0032 039B     		ldr	r3, [sp, #12]
 1842 0034 9A61     		str	r2, [r3, #24]
 1843              		.loc 10 189 0
 1844 0036 FFF7FEFF 		bl	_ZN3r2p7SysLock7releaseEv
 1845              		.loc 10 190 0
 1846 003a 05B0     		add	sp, sp, #20
 1847              		.cfi_def_cfa_offset 4
 1848              		@ sp needed
 1849 003c 5DF804FB 		ldr	pc, [sp], #4
 1850              		.cfi_endproc
 1851              	.LFE604:
 1852              		.size	_ZN3r2p5Topic9advertiseERNS_15RemotePublisherERKNS_4TimeE, .-_ZN3r2p5Topic9advertiseERNS_15R
 1853              		.section	.text._ZN3r2p5Topic9subscribeERNS_15LocalSubscriberEj,"ax",%progbits
 1854              		.align	2
 1855              		.p2align 4,,15
 1856              		.global	_ZN3r2p5Topic9subscribeERNS_15LocalSubscriberEj
 1857              		.thumb
ARM GAS  /tmp/cc9AvIGf.s 			page 34


 1858              		.thumb_func
 1859              		.type	_ZN3r2p5Topic9subscribeERNS_15LocalSubscriberEj, %function
 1860              	_ZN3r2p5Topic9subscribeERNS_15LocalSubscriberEj:
 1861              	.LFB605:
 1862              		.loc 10 193 0
 1863              		.cfi_startproc
 1864              		@ args = 0, pretend = 0, frame = 16
 1865              		@ frame_needed = 0, uses_anonymous_args = 0
 1866 0000 00B5     		push	{lr}
 1867              		.cfi_def_cfa_offset 4
 1868              		.cfi_offset 14, -4
 1869 0002 85B0     		sub	sp, sp, #20
 1870              		.cfi_def_cfa_offset 24
 1871 0004 0390     		str	r0, [sp, #12]
 1872 0006 0291     		str	r1, [sp, #8]
 1873 0008 0192     		str	r2, [sp, #4]
 1874              		.loc 10 195 0
 1875 000a FFF7FEFF 		bl	_ZN3r2p7SysLock7acquireEv
 1876              		.loc 10 196 0
 1877 000e 039B     		ldr	r3, [sp, #12]
 1878 0010 5A6A     		ldr	r2, [r3, #36]
 1879 0012 019B     		ldr	r3, [sp, #4]
 1880 0014 9A42     		cmp	r2, r3
 1881 0016 02D2     		bcs	.L107
 1882              		.loc 10 197 0
 1883 0018 039B     		ldr	r3, [sp, #12]
 1884 001a 019A     		ldr	r2, [sp, #4]
 1885 001c 5A62     		str	r2, [r3, #36]
 1886              	.L107:
 1887              		.loc 10 199 0
 1888 001e 039B     		ldr	r3, [sp, #12]
 1889 0020 03F11C02 		add	r2, r3, #28
 1890 0024 029B     		ldr	r3, [sp, #8]
 1891 0026 3033     		adds	r3, r3, #48
 1892 0028 1046     		mov	r0, r2
 1893 002a 1946     		mov	r1, r3
 1894 002c FFF7FEFF 		bl	_ZN3r2p10StaticListINS_15LocalSubscriberEE11link_unsafeERNS2_4LinkE
 1895              		.loc 10 200 0
 1896 0030 FFF7FEFF 		bl	_ZN3r2p7SysLock7releaseEv
 1897              		.loc 10 201 0
 1898 0034 05B0     		add	sp, sp, #20
 1899              		.cfi_def_cfa_offset 4
 1900              		@ sp needed
 1901 0036 5DF804FB 		ldr	pc, [sp], #4
 1902              		.cfi_endproc
 1903              	.LFE605:
 1904              		.size	_ZN3r2p5Topic9subscribeERNS_15LocalSubscriberEj, .-_ZN3r2p5Topic9subscribeERNS_15LocalSubscr
 1905 003a 00BFAFF3 		.section	.text._ZN3r2p5Topic9subscribeERNS_16RemoteSubscriberEj,"ax",%progbits
 1905      0080
 1906              		.align	2
 1907              		.p2align 4,,15
 1908              		.global	_ZN3r2p5Topic9subscribeERNS_16RemoteSubscriberEj
 1909              		.thumb
 1910              		.thumb_func
 1911              		.type	_ZN3r2p5Topic9subscribeERNS_16RemoteSubscriberEj, %function
 1912              	_ZN3r2p5Topic9subscribeERNS_16RemoteSubscriberEj:
 1913              	.LFB606:
ARM GAS  /tmp/cc9AvIGf.s 			page 35


 1914              		.loc 10 204 0
 1915              		.cfi_startproc
 1916              		@ args = 0, pretend = 0, frame = 16
 1917              		@ frame_needed = 0, uses_anonymous_args = 0
 1918 0000 00B5     		push	{lr}
 1919              		.cfi_def_cfa_offset 4
 1920              		.cfi_offset 14, -4
 1921 0002 85B0     		sub	sp, sp, #20
 1922              		.cfi_def_cfa_offset 24
 1923 0004 0390     		str	r0, [sp, #12]
 1924 0006 0291     		str	r1, [sp, #8]
 1925 0008 0192     		str	r2, [sp, #4]
 1926              		.loc 10 206 0
 1927 000a FFF7FEFF 		bl	_ZN3r2p7SysLock7acquireEv
 1928              		.loc 10 207 0
 1929 000e 039B     		ldr	r3, [sp, #12]
 1930 0010 5A6A     		ldr	r2, [r3, #36]
 1931 0012 019B     		ldr	r3, [sp, #4]
 1932 0014 9A42     		cmp	r2, r3
 1933 0016 02D2     		bcs	.L109
 1934              		.loc 10 208 0
 1935 0018 039B     		ldr	r3, [sp, #12]
 1936 001a 019A     		ldr	r2, [sp, #4]
 1937 001c 5A62     		str	r2, [r3, #36]
 1938              	.L109:
 1939              		.loc 10 210 0
 1940 001e 039B     		ldr	r3, [sp, #12]
 1941 0020 03F12002 		add	r2, r3, #32
 1942 0024 029B     		ldr	r3, [sp, #8]
 1943 0026 1433     		adds	r3, r3, #20
 1944 0028 1046     		mov	r0, r2
 1945 002a 1946     		mov	r1, r3
 1946 002c FFF7FEFF 		bl	_ZN3r2p10StaticListINS_16RemoteSubscriberEE11link_unsafeERNS2_4LinkE
 1947              		.loc 10 211 0
 1948 0030 FFF7FEFF 		bl	_ZN3r2p7SysLock7releaseEv
 1949              		.loc 10 212 0
 1950 0034 05B0     		add	sp, sp, #20
 1951              		.cfi_def_cfa_offset 4
 1952              		@ sp needed
 1953 0036 5DF804FB 		ldr	pc, [sp], #4
 1954              		.cfi_endproc
 1955              	.LFE606:
 1956              		.size	_ZN3r2p5Topic9subscribeERNS_16RemoteSubscriberEj, .-_ZN3r2p5Topic9subscribeERNS_16RemoteSubs
 1957 003a 00BFAFF3 		.section	.text._ZNK3r2p5Topic16patch_pubsub_msgERNS_7MessageERNS_9TransportE,"ax",%progbits
 1957      0080
 1958              		.align	2
 1959              		.p2align 4,,15
 1960              		.global	_ZNK3r2p5Topic16patch_pubsub_msgERNS_7MessageERNS_9TransportE
 1961              		.thumb
 1962              		.thumb_func
 1963              		.type	_ZNK3r2p5Topic16patch_pubsub_msgERNS_7MessageERNS_9TransportE, %function
 1964              	_ZNK3r2p5Topic16patch_pubsub_msgERNS_7MessageERNS_9TransportE:
 1965              	.LFB607:
 1966              		.loc 10 215 0
 1967              		.cfi_startproc
 1968              		@ args = 0, pretend = 0, frame = 24
 1969              		@ frame_needed = 0, uses_anonymous_args = 0
ARM GAS  /tmp/cc9AvIGf.s 			page 36


 1970 0000 00B5     		push	{lr}
 1971              		.cfi_def_cfa_offset 4
 1972              		.cfi_offset 14, -4
 1973 0002 87B0     		sub	sp, sp, #28
 1974              		.cfi_def_cfa_offset 32
 1975 0004 0390     		str	r0, [sp, #12]
 1976 0006 0291     		str	r1, [sp, #8]
 1977 0008 0192     		str	r2, [sp, #4]
 1978              	.LBB41:
 1979              		.loc 10 217 0
 1980 000a 1548     		ldr	r0, .L115
 1981 000c FFF7FEFF 		bl	_ZN3r2p10Middleware14get_mgmt_topicEv
 1982 0010 0246     		mov	r2, r0
 1983 0012 039B     		ldr	r3, [sp, #12]
 1984 0014 9A42     		cmp	r2, r3
 1985 0016 14BF     		ite	ne
 1986 0018 0123     		movne	r3, #1
 1987 001a 0023     		moveq	r3, #0
 1988 001c DBB2     		uxtb	r3, r3
 1989 001e 002B     		cmp	r3, #0
 1990 0020 00D0     		beq	.L111
 1991 0022 1AE0     		b	.L110
 1992              	.L111:
 1993              		.loc 10 219 0
 1994 0024 029B     		ldr	r3, [sp, #8]
 1995 0026 0593     		str	r3, [sp, #20]
 1996              	.LBB42:
 1997              		.loc 10 221 0
 1998 0028 059B     		ldr	r3, [sp, #20]
 1999 002a 93F82130 		ldrb	r3, [r3, #33]	@ zero_extendqisi2
 2000 002e 213B     		subs	r3, r3, #33
 2001 0030 022B     		cmp	r3, #2
 2002 0032 12D8     		bhi	.L110
 2003              	.LBB43:
 2004              	.LBB44:
 2005              		.loc 10 226 0
 2006 0034 059B     		ldr	r3, [sp, #20]
 2007 0036 0233     		adds	r3, r3, #2
 2008 0038 0948     		ldr	r0, .L115
 2009 003a 1946     		mov	r1, r3
 2010 003c FFF7FEFF 		bl	_ZN3r2p10Middleware10find_topicEPKc
 2011 0040 0490     		str	r0, [sp, #16]
 2012              		.loc 10 227 0
 2013 0042 049B     		ldr	r3, [sp, #16]
 2014 0044 002B     		cmp	r3, #0
 2015 0046 07D0     		beq	.L114
 2016              		.loc 10 228 0
 2017 0048 019B     		ldr	r3, [sp, #4]
 2018 004a 1B68     		ldr	r3, [r3]
 2019 004c 1B68     		ldr	r3, [r3]
 2020 004e 059A     		ldr	r2, [sp, #20]
 2021 0050 1632     		adds	r2, r2, #22
 2022 0052 0198     		ldr	r0, [sp, #4]
 2023 0054 0499     		ldr	r1, [sp, #16]
 2024 0056 9847     		blx	r3
 2025              	.L114:
 2026              		.loc 10 230 0
ARM GAS  /tmp/cc9AvIGf.s 			page 37


 2027 0058 00BF     		nop
 2028              	.L110:
 2029              	.LBE44:
 2030              	.LBE43:
 2031              	.LBE42:
 2032              	.LBE41:
 2033              		.loc 10 233 0
 2034 005a 07B0     		add	sp, sp, #28
 2035              		.cfi_def_cfa_offset 4
 2036              		@ sp needed
 2037 005c 5DF804FB 		ldr	pc, [sp], #4
 2038              	.L116:
 2039              		.align	2
 2040              	.L115:
 2041 0060 00000000 		.word	_ZN3r2p10Middleware8instanceE
 2042              		.cfi_endproc
 2043              	.LFE607:
 2044              		.size	_ZNK3r2p5Topic16patch_pubsub_msgERNS_7MessageERNS_9TransportE, .-_ZNK3r2p5Topic16patch_pubsu
 2045              		.section	.text._ZN3r2p5TopicC2EPKcjb,"ax",%progbits
 2046              		.align	2
 2047              		.p2align 4,,15
 2048              		.global	_ZN3r2p5TopicC2EPKcjb
 2049              		.thumb
 2050              		.thumb_func
 2051              		.type	_ZN3r2p5TopicC2EPKcjb, %function
 2052              	_ZN3r2p5TopicC2EPKcjb:
 2053              	.LFB618:
 2054              		.loc 10 236 0
 2055              		.cfi_startproc
 2056              		@ args = 0, pretend = 0, frame = 16
 2057              		@ frame_needed = 0, uses_anonymous_args = 0
 2058 0000 00B5     		push	{lr}
 2059              		.cfi_def_cfa_offset 4
 2060              		.cfi_offset 14, -4
 2061 0002 85B0     		sub	sp, sp, #20
 2062              		.cfi_def_cfa_offset 24
 2063 0004 0390     		str	r0, [sp, #12]
 2064 0006 0291     		str	r1, [sp, #8]
 2065 0008 0192     		str	r2, [sp, #4]
 2066 000a 8DF80330 		strb	r3, [sp, #3]
 2067              	.LBB45:
 2068              		.loc 10 247 0
 2069 000e 0398     		ldr	r0, [sp, #12]
 2070 0010 FFF7FEFF 		bl	_ZN3r2p10UncopyableC2Ev
 2071 0014 039B     		ldr	r3, [sp, #12]
 2072 0016 029A     		ldr	r2, [sp, #8]
 2073 0018 1A60     		str	r2, [r3]
 2074 001a 039B     		ldr	r3, [sp, #12]
 2075 001c 0433     		adds	r3, r3, #4
 2076 001e 1846     		mov	r0, r3
 2077 0020 1949     		ldr	r1, .L120
 2078 0022 FFF7FEFF 		bl	_ZN3r2p4TimeC1ERKS0_
 2079 0026 039B     		ldr	r3, [sp, #12]
 2080 0028 0833     		adds	r3, r3, #8
 2081 002a 1846     		mov	r0, r3
 2082 002c 0199     		ldr	r1, [sp, #4]
 2083 002e FFF7FEFF 		bl	_ZN3r2p11MemoryPool_C1Ej
ARM GAS  /tmp/cc9AvIGf.s 			page 38


 2084 0032 039B     		ldr	r3, [sp, #12]
 2085 0034 0022     		movs	r2, #0
 2086 0036 5A61     		str	r2, [r3, #20]
 2087 0038 039B     		ldr	r3, [sp, #12]
 2088 003a 0022     		movs	r2, #0
 2089 003c 9A61     		str	r2, [r3, #24]
 2090 003e 039B     		ldr	r3, [sp, #12]
 2091 0040 1C33     		adds	r3, r3, #28
 2092 0042 1846     		mov	r0, r3
 2093 0044 FFF7FEFF 		bl	_ZN3r2p10StaticListINS_15LocalSubscriberEEC1Ev
 2094 0048 039B     		ldr	r3, [sp, #12]
 2095 004a 2033     		adds	r3, r3, #32
 2096 004c 1846     		mov	r0, r3
 2097 004e FFF7FEFF 		bl	_ZN3r2p10StaticListINS_16RemoteSubscriberEEC1Ev
 2098 0052 039B     		ldr	r3, [sp, #12]
 2099 0054 0022     		movs	r2, #0
 2100 0056 5A62     		str	r2, [r3, #36]
 2101 0058 039B     		ldr	r3, [sp, #12]
 2102 005a 2833     		adds	r3, r3, #40
 2103 005c 1846     		mov	r0, r3
 2104 005e 0399     		ldr	r1, [sp, #12]
 2105 0060 FFF7FEFF 		bl	_ZN3r2p10StaticListINS_5TopicEE4LinkC1ERS1_
 2106              		.loc 10 249 0
 2107 0064 0298     		ldr	r0, [sp, #8]
 2108 0066 1021     		movs	r1, #16
 2109 0068 FFF7FEFF 		bl	_ZN3r2p13is_identifierEPKcj
 2110 006c 0346     		mov	r3, r0
 2111 006e 83F00103 		eor	r3, r3, #1
 2112 0072 DBB2     		uxtb	r3, r3
 2113 0074 002B     		cmp	r3, #0
 2114 0076 02D0     		beq	.L118
 2115              		.loc 10 249 0 is_stmt 0 discriminator 1
 2116 0078 0448     		ldr	r0, .L120+4
 2117 007a FFF7FEFF 		bl	chDbgPanic
 2118              	.L118:
 2119              	.LBE45:
 2120              		.loc 10 252 0 is_stmt 1
 2121 007e 039B     		ldr	r3, [sp, #12]
 2122 0080 1846     		mov	r0, r3
 2123 0082 05B0     		add	sp, sp, #20
 2124              		.cfi_def_cfa_offset 4
 2125              		@ sp needed
 2126 0084 5DF804FB 		ldr	pc, [sp], #4
 2127              	.L121:
 2128              		.align	2
 2129              	.L120:
 2130 0088 00000000 		.word	_ZN3r2p4Time8INFINITEE
 2131 008c 00000000 		.word	.LC0
 2132              		.cfi_endproc
 2133              	.LFE618:
 2134              		.size	_ZN3r2p5TopicC2EPKcjb, .-_ZN3r2p5TopicC2EPKcjb
 2135              		.global	_ZN3r2p5TopicC1EPKcjb
 2136              		.thumb_set _ZN3r2p5TopicC1EPKcjb,_ZN3r2p5TopicC2EPKcjb
 2137              		.section	.text._ZNK3r2p10StaticListINS_15LocalSubscriberEE15is_empty_unsafeEv,"axG",%progbits,_ZNK
 2138              		.align	2
 2139              		.p2align 4,,15
 2140              		.weak	_ZNK3r2p10StaticListINS_15LocalSubscriberEE15is_empty_unsafeEv
ARM GAS  /tmp/cc9AvIGf.s 			page 39


 2141              		.thumb
 2142              		.thumb_func
 2143              		.type	_ZNK3r2p10StaticListINS_15LocalSubscriberEE15is_empty_unsafeEv, %function
 2144              	_ZNK3r2p10StaticListINS_15LocalSubscriberEE15is_empty_unsafeEv:
 2145              	.LFB632:
 2146              		.file 11 "/home/ergae/r2p-sdk/core/Middleware/include/r2p/StaticList.hpp"
 2147              		.loc 11 401 0
 2148              		.cfi_startproc
 2149              		@ args = 0, pretend = 0, frame = 8
 2150              		@ frame_needed = 0, uses_anonymous_args = 0
 2151              		@ link register save eliminated.
 2152 0000 82B0     		sub	sp, sp, #8
 2153              		.cfi_def_cfa_offset 8
 2154 0002 0190     		str	r0, [sp, #4]
 2155              		.loc 11 402 0
 2156 0004 019B     		ldr	r3, [sp, #4]
 2157 0006 1B68     		ldr	r3, [r3]
 2158 0008 002B     		cmp	r3, #0
 2159 000a 0CBF     		ite	eq
 2160 000c 0123     		moveq	r3, #1
 2161 000e 0023     		movne	r3, #0
 2162 0010 DBB2     		uxtb	r3, r3
 2163              		.loc 11 403 0
 2164 0012 1846     		mov	r0, r3
 2165 0014 02B0     		add	sp, sp, #8
 2166              		.cfi_def_cfa_offset 0
 2167              		@ sp needed
 2168 0016 7047     		bx	lr
 2169              		.cfi_endproc
 2170              	.LFE632:
 2171              		.size	_ZNK3r2p10StaticListINS_15LocalSubscriberEE15is_empty_unsafeEv, .-_ZNK3r2p10StaticListINS_15
 2172 0018 AFF30080 		.section	.text._ZNK3r2p10StaticListINS_16RemoteSubscriberEE15is_empty_unsafeEv,"axG",%progbits,_ZN
 2172      AFF30080 
 2173              		.align	2
 2174              		.p2align 4,,15
 2175              		.weak	_ZNK3r2p10StaticListINS_16RemoteSubscriberEE15is_empty_unsafeEv
 2176              		.thumb
 2177              		.thumb_func
 2178              		.type	_ZNK3r2p10StaticListINS_16RemoteSubscriberEE15is_empty_unsafeEv, %function
 2179              	_ZNK3r2p10StaticListINS_16RemoteSubscriberEE15is_empty_unsafeEv:
 2180              	.LFB633:
 2181              		.loc 11 401 0
 2182              		.cfi_startproc
 2183              		@ args = 0, pretend = 0, frame = 8
 2184              		@ frame_needed = 0, uses_anonymous_args = 0
 2185              		@ link register save eliminated.
 2186 0000 82B0     		sub	sp, sp, #8
 2187              		.cfi_def_cfa_offset 8
 2188 0002 0190     		str	r0, [sp, #4]
 2189              		.loc 11 402 0
 2190 0004 019B     		ldr	r3, [sp, #4]
 2191 0006 1B68     		ldr	r3, [r3]
 2192 0008 002B     		cmp	r3, #0
 2193 000a 0CBF     		ite	eq
 2194 000c 0123     		moveq	r3, #1
 2195 000e 0023     		movne	r3, #0
 2196 0010 DBB2     		uxtb	r3, r3
ARM GAS  /tmp/cc9AvIGf.s 			page 40


 2197              		.loc 11 403 0
 2198 0012 1846     		mov	r0, r3
 2199 0014 02B0     		add	sp, sp, #8
 2200              		.cfi_def_cfa_offset 0
 2201              		@ sp needed
 2202 0016 7047     		bx	lr
 2203              		.cfi_endproc
 2204              	.LFE633:
 2205              		.size	_ZNK3r2p10StaticListINS_16RemoteSubscriberEE15is_empty_unsafeEv, .-_ZNK3r2p10StaticListINS_1
 2206 0018 AFF30080 		.section	.text._ZN3r2p10StaticListINS_15LocalSubscriberEE12begin_unsafeEv,"axG",%progbits,_ZN3r2p1
 2206      AFF30080 
 2207              		.align	2
 2208              		.p2align 4,,15
 2209              		.weak	_ZN3r2p10StaticListINS_15LocalSubscriberEE12begin_unsafeEv
 2210              		.thumb
 2211              		.thumb_func
 2212              		.type	_ZN3r2p10StaticListINS_15LocalSubscriberEE12begin_unsafeEv, %function
 2213              	_ZN3r2p10StaticListINS_15LocalSubscriberEE12begin_unsafeEv:
 2214              	.LFB641:
 2215              		.loc 11 435 0
 2216              		.cfi_startproc
 2217              		@ args = 0, pretend = 0, frame = 8
 2218              		@ frame_needed = 0, uses_anonymous_args = 0
 2219 0000 00B5     		push	{lr}
 2220              		.cfi_def_cfa_offset 4
 2221              		.cfi_offset 14, -4
 2222 0002 83B0     		sub	sp, sp, #12
 2223              		.cfi_def_cfa_offset 16
 2224 0004 0190     		str	r0, [sp, #4]
 2225 0006 0091     		str	r1, [sp]
 2226              		.loc 11 436 0
 2227 0008 0098     		ldr	r0, [sp]
 2228 000a FFF7FEFF 		bl	_ZNK3r2p10StaticListINS_15LocalSubscriberEE15get_head_unsafeEv
 2229 000e 0346     		mov	r3, r0
 2230 0010 0198     		ldr	r0, [sp, #4]
 2231 0012 1946     		mov	r1, r3
 2232 0014 FFF7FEFF 		bl	_ZN3r2p10StaticListINS_15LocalSubscriberEE14IteratorUnsafeC1EPKNS2_4LinkE
 2233              		.loc 11 437 0
 2234 0018 0198     		ldr	r0, [sp, #4]
 2235 001a 03B0     		add	sp, sp, #12
 2236              		.cfi_def_cfa_offset 4
 2237              		@ sp needed
 2238 001c 5DF804FB 		ldr	pc, [sp], #4
 2239              		.cfi_endproc
 2240              	.LFE641:
 2241              		.size	_ZN3r2p10StaticListINS_15LocalSubscriberEE12begin_unsafeEv, .-_ZN3r2p10StaticListINS_15Local
 2242              		.section	.text._ZN3r2p10StaticListINS_15LocalSubscriberEE10end_unsafeEv,"axG",%progbits,_ZN3r2p10S
 2243              		.align	2
 2244              		.p2align 4,,15
 2245              		.weak	_ZN3r2p10StaticListINS_15LocalSubscriberEE10end_unsafeEv
 2246              		.thumb
 2247              		.thumb_func
 2248              		.type	_ZN3r2p10StaticListINS_15LocalSubscriberEE10end_unsafeEv, %function
 2249              	_ZN3r2p10StaticListINS_15LocalSubscriberEE10end_unsafeEv:
 2250              	.LFB645:
 2251              		.loc 11 439 0
 2252              		.cfi_startproc
ARM GAS  /tmp/cc9AvIGf.s 			page 41


 2253              		@ args = 0, pretend = 0, frame = 8
 2254              		@ frame_needed = 0, uses_anonymous_args = 0
 2255 0000 00B5     		push	{lr}
 2256              		.cfi_def_cfa_offset 4
 2257              		.cfi_offset 14, -4
 2258 0002 83B0     		sub	sp, sp, #12
 2259              		.cfi_def_cfa_offset 16
 2260 0004 0190     		str	r0, [sp, #4]
 2261 0006 0091     		str	r1, [sp]
 2262              		.loc 11 440 0
 2263 0008 0198     		ldr	r0, [sp, #4]
 2264 000a 0021     		movs	r1, #0
 2265 000c FFF7FEFF 		bl	_ZN3r2p10StaticListINS_15LocalSubscriberEE14IteratorUnsafeC1EPKNS2_4LinkE
 2266              		.loc 11 441 0
 2267 0010 0198     		ldr	r0, [sp, #4]
 2268 0012 03B0     		add	sp, sp, #12
 2269              		.cfi_def_cfa_offset 4
 2270              		@ sp needed
 2271 0014 5DF804FB 		ldr	pc, [sp], #4
 2272              		.cfi_endproc
 2273              	.LFE645:
 2274              		.size	_ZN3r2p10StaticListINS_15LocalSubscriberEE10end_unsafeEv, .-_ZN3r2p10StaticListINS_15LocalSu
 2275 0018 AFF30080 		.section	.text._ZNK3r2p10StaticListINS_15LocalSubscriberEE14IteratorUnsafeneERKS3_,"axG",%progbits
 2275      AFF30080 
 2276              		.align	2
 2277              		.p2align 4,,15
 2278              		.weak	_ZNK3r2p10StaticListINS_15LocalSubscriberEE14IteratorUnsafeneERKS3_
 2279              		.thumb
 2280              		.thumb_func
 2281              		.type	_ZNK3r2p10StaticListINS_15LocalSubscriberEE14IteratorUnsafeneERKS3_, %function
 2282              	_ZNK3r2p10StaticListINS_15LocalSubscriberEE14IteratorUnsafeneERKS3_:
 2283              	.LFB646:
 2284              		.loc 11 75 0
 2285              		.cfi_startproc
 2286              		@ args = 0, pretend = 0, frame = 8
 2287              		@ frame_needed = 0, uses_anonymous_args = 0
 2288              		@ link register save eliminated.
 2289 0000 82B0     		sub	sp, sp, #8
 2290              		.cfi_def_cfa_offset 8
 2291 0002 0190     		str	r0, [sp, #4]
 2292 0004 0091     		str	r1, [sp]
 2293              		.loc 11 76 0
 2294 0006 019B     		ldr	r3, [sp, #4]
 2295 0008 1A68     		ldr	r2, [r3]
 2296 000a 009B     		ldr	r3, [sp]
 2297 000c 1B68     		ldr	r3, [r3]
 2298 000e 9A42     		cmp	r2, r3
 2299 0010 14BF     		ite	ne
 2300 0012 0123     		movne	r3, #1
 2301 0014 0023     		moveq	r3, #0
 2302 0016 DBB2     		uxtb	r3, r3
 2303              		.loc 11 77 0
 2304 0018 1846     		mov	r0, r3
 2305 001a 02B0     		add	sp, sp, #8
 2306              		.cfi_def_cfa_offset 0
 2307              		@ sp needed
 2308 001c 7047     		bx	lr
ARM GAS  /tmp/cc9AvIGf.s 			page 42


 2309              		.cfi_endproc
 2310              	.LFE646:
 2311              		.size	_ZNK3r2p10StaticListINS_15LocalSubscriberEE14IteratorUnsafeneERKS3_, .-_ZNK3r2p10StaticListI
 2312 001e 00BF     		.section	.text._ZN3r2p10StaticListINS_15LocalSubscriberEE14IteratorUnsafeppEv,"axG",%progbits,_ZN3
 2313              		.align	2
 2314              		.p2align 4,,15
 2315              		.weak	_ZN3r2p10StaticListINS_15LocalSubscriberEE14IteratorUnsafeppEv
 2316              		.thumb
 2317              		.thumb_func
 2318              		.type	_ZN3r2p10StaticListINS_15LocalSubscriberEE14IteratorUnsafeppEv, %function
 2319              	_ZN3r2p10StaticListINS_15LocalSubscriberEE14IteratorUnsafeppEv:
 2320              	.LFB647:
 2321              		.loc 11 60 0
 2322              		.cfi_startproc
 2323              		@ args = 0, pretend = 0, frame = 8
 2324              		@ frame_needed = 0, uses_anonymous_args = 0
 2325              		@ link register save eliminated.
 2326 0000 82B0     		sub	sp, sp, #8
 2327              		.cfi_def_cfa_offset 8
 2328 0002 0190     		str	r0, [sp, #4]
 2329              		.loc 11 61 0
 2330 0004 019B     		ldr	r3, [sp, #4]
 2331 0006 1B68     		ldr	r3, [r3]
 2332 0008 1A68     		ldr	r2, [r3]
 2333 000a 019B     		ldr	r3, [sp, #4]
 2334 000c 1A60     		str	r2, [r3]
 2335              		.loc 11 62 0
 2336 000e 019B     		ldr	r3, [sp, #4]
 2337              		.loc 11 63 0
 2338 0010 1846     		mov	r0, r3
 2339 0012 02B0     		add	sp, sp, #8
 2340              		.cfi_def_cfa_offset 0
 2341              		@ sp needed
 2342 0014 7047     		bx	lr
 2343              		.cfi_endproc
 2344              	.LFE647:
 2345              		.size	_ZN3r2p10StaticListINS_15LocalSubscriberEE14IteratorUnsafeppEv, .-_ZN3r2p10StaticListINS_15L
 2346 0016 00BFAFF3 		.section	.text._ZNK3r2p10StaticListINS_15LocalSubscriberEE14IteratorUnsafeptEv,"axG",%progbits,_ZN
 2346      0080AFF3 
 2346      0080
 2347              		.align	2
 2348              		.p2align 4,,15
 2349              		.weak	_ZNK3r2p10StaticListINS_15LocalSubscriberEE14IteratorUnsafeptEv
 2350              		.thumb
 2351              		.thumb_func
 2352              		.type	_ZNK3r2p10StaticListINS_15LocalSubscriberEE14IteratorUnsafeptEv, %function
 2353              	_ZNK3r2p10StaticListINS_15LocalSubscriberEE14IteratorUnsafeptEv:
 2354              	.LFB648:
 2355              		.loc 11 52 0
 2356              		.cfi_startproc
 2357              		@ args = 0, pretend = 0, frame = 8
 2358              		@ frame_needed = 0, uses_anonymous_args = 0
 2359              		@ link register save eliminated.
 2360 0000 82B0     		sub	sp, sp, #8
 2361              		.cfi_def_cfa_offset 8
 2362 0002 0190     		str	r0, [sp, #4]
 2363              		.loc 11 53 0
ARM GAS  /tmp/cc9AvIGf.s 			page 43


 2364 0004 019B     		ldr	r3, [sp, #4]
 2365 0006 1B68     		ldr	r3, [r3]
 2366 0008 5B68     		ldr	r3, [r3, #4]
 2367              		.loc 11 54 0
 2368 000a 1846     		mov	r0, r3
 2369 000c 02B0     		add	sp, sp, #8
 2370              		.cfi_def_cfa_offset 0
 2371              		@ sp needed
 2372 000e 7047     		bx	lr
 2373              		.cfi_endproc
 2374              	.LFE648:
 2375              		.size	_ZNK3r2p10StaticListINS_15LocalSubscriberEE14IteratorUnsafeptEv, .-_ZNK3r2p10StaticListINS_1
 2376              		.section	.text._ZN3r2p10StaticListINS_16RemoteSubscriberEE12begin_unsafeEv,"axG",%progbits,_ZN3r2p
 2377              		.align	2
 2378              		.p2align 4,,15
 2379              		.weak	_ZN3r2p10StaticListINS_16RemoteSubscriberEE12begin_unsafeEv
 2380              		.thumb
 2381              		.thumb_func
 2382              		.type	_ZN3r2p10StaticListINS_16RemoteSubscriberEE12begin_unsafeEv, %function
 2383              	_ZN3r2p10StaticListINS_16RemoteSubscriberEE12begin_unsafeEv:
 2384              	.LFB649:
 2385              		.loc 11 435 0
 2386              		.cfi_startproc
 2387              		@ args = 0, pretend = 0, frame = 8
 2388              		@ frame_needed = 0, uses_anonymous_args = 0
 2389 0000 00B5     		push	{lr}
 2390              		.cfi_def_cfa_offset 4
 2391              		.cfi_offset 14, -4
 2392 0002 83B0     		sub	sp, sp, #12
 2393              		.cfi_def_cfa_offset 16
 2394 0004 0190     		str	r0, [sp, #4]
 2395 0006 0091     		str	r1, [sp]
 2396              		.loc 11 436 0
 2397 0008 0098     		ldr	r0, [sp]
 2398 000a FFF7FEFF 		bl	_ZNK3r2p10StaticListINS_16RemoteSubscriberEE15get_head_unsafeEv
 2399 000e 0346     		mov	r3, r0
 2400 0010 0198     		ldr	r0, [sp, #4]
 2401 0012 1946     		mov	r1, r3
 2402 0014 FFF7FEFF 		bl	_ZN3r2p10StaticListINS_16RemoteSubscriberEE14IteratorUnsafeC1EPKNS2_4LinkE
 2403              		.loc 11 437 0
 2404 0018 0198     		ldr	r0, [sp, #4]
 2405 001a 03B0     		add	sp, sp, #12
 2406              		.cfi_def_cfa_offset 4
 2407              		@ sp needed
 2408 001c 5DF804FB 		ldr	pc, [sp], #4
 2409              		.cfi_endproc
 2410              	.LFE649:
 2411              		.size	_ZN3r2p10StaticListINS_16RemoteSubscriberEE12begin_unsafeEv, .-_ZN3r2p10StaticListINS_16Remo
 2412              		.section	.text._ZN3r2p10StaticListINS_16RemoteSubscriberEE10end_unsafeEv,"axG",%progbits,_ZN3r2p10
 2413              		.align	2
 2414              		.p2align 4,,15
 2415              		.weak	_ZN3r2p10StaticListINS_16RemoteSubscriberEE10end_unsafeEv
 2416              		.thumb
 2417              		.thumb_func
 2418              		.type	_ZN3r2p10StaticListINS_16RemoteSubscriberEE10end_unsafeEv, %function
 2419              	_ZN3r2p10StaticListINS_16RemoteSubscriberEE10end_unsafeEv:
 2420              	.LFB653:
ARM GAS  /tmp/cc9AvIGf.s 			page 44


 2421              		.loc 11 439 0
 2422              		.cfi_startproc
 2423              		@ args = 0, pretend = 0, frame = 8
 2424              		@ frame_needed = 0, uses_anonymous_args = 0
 2425 0000 00B5     		push	{lr}
 2426              		.cfi_def_cfa_offset 4
 2427              		.cfi_offset 14, -4
 2428 0002 83B0     		sub	sp, sp, #12
 2429              		.cfi_def_cfa_offset 16
 2430 0004 0190     		str	r0, [sp, #4]
 2431 0006 0091     		str	r1, [sp]
 2432              		.loc 11 440 0
 2433 0008 0198     		ldr	r0, [sp, #4]
 2434 000a 0021     		movs	r1, #0
 2435 000c FFF7FEFF 		bl	_ZN3r2p10StaticListINS_16RemoteSubscriberEE14IteratorUnsafeC1EPKNS2_4LinkE
 2436              		.loc 11 441 0
 2437 0010 0198     		ldr	r0, [sp, #4]
 2438 0012 03B0     		add	sp, sp, #12
 2439              		.cfi_def_cfa_offset 4
 2440              		@ sp needed
 2441 0014 5DF804FB 		ldr	pc, [sp], #4
 2442              		.cfi_endproc
 2443              	.LFE653:
 2444              		.size	_ZN3r2p10StaticListINS_16RemoteSubscriberEE10end_unsafeEv, .-_ZN3r2p10StaticListINS_16Remote
 2445 0018 AFF30080 		.section	.text._ZNK3r2p10StaticListINS_16RemoteSubscriberEE14IteratorUnsafeneERKS3_,"axG",%progbit
 2445      AFF30080 
 2446              		.align	2
 2447              		.p2align 4,,15
 2448              		.weak	_ZNK3r2p10StaticListINS_16RemoteSubscriberEE14IteratorUnsafeneERKS3_
 2449              		.thumb
 2450              		.thumb_func
 2451              		.type	_ZNK3r2p10StaticListINS_16RemoteSubscriberEE14IteratorUnsafeneERKS3_, %function
 2452              	_ZNK3r2p10StaticListINS_16RemoteSubscriberEE14IteratorUnsafeneERKS3_:
 2453              	.LFB654:
 2454              		.loc 11 75 0
 2455              		.cfi_startproc
 2456              		@ args = 0, pretend = 0, frame = 8
 2457              		@ frame_needed = 0, uses_anonymous_args = 0
 2458              		@ link register save eliminated.
 2459 0000 82B0     		sub	sp, sp, #8
 2460              		.cfi_def_cfa_offset 8
 2461 0002 0190     		str	r0, [sp, #4]
 2462 0004 0091     		str	r1, [sp]
 2463              		.loc 11 76 0
 2464 0006 019B     		ldr	r3, [sp, #4]
 2465 0008 1A68     		ldr	r2, [r3]
 2466 000a 009B     		ldr	r3, [sp]
 2467 000c 1B68     		ldr	r3, [r3]
 2468 000e 9A42     		cmp	r2, r3
 2469 0010 14BF     		ite	ne
 2470 0012 0123     		movne	r3, #1
 2471 0014 0023     		moveq	r3, #0
 2472 0016 DBB2     		uxtb	r3, r3
 2473              		.loc 11 77 0
 2474 0018 1846     		mov	r0, r3
 2475 001a 02B0     		add	sp, sp, #8
 2476              		.cfi_def_cfa_offset 0
ARM GAS  /tmp/cc9AvIGf.s 			page 45


 2477              		@ sp needed
 2478 001c 7047     		bx	lr
 2479              		.cfi_endproc
 2480              	.LFE654:
 2481              		.size	_ZNK3r2p10StaticListINS_16RemoteSubscriberEE14IteratorUnsafeneERKS3_, .-_ZNK3r2p10StaticList
 2482 001e 00BF     		.section	.text._ZN3r2p10StaticListINS_16RemoteSubscriberEE14IteratorUnsafeppEv,"axG",%progbits,_ZN
 2483              		.align	2
 2484              		.p2align 4,,15
 2485              		.weak	_ZN3r2p10StaticListINS_16RemoteSubscriberEE14IteratorUnsafeppEv
 2486              		.thumb
 2487              		.thumb_func
 2488              		.type	_ZN3r2p10StaticListINS_16RemoteSubscriberEE14IteratorUnsafeppEv, %function
 2489              	_ZN3r2p10StaticListINS_16RemoteSubscriberEE14IteratorUnsafeppEv:
 2490              	.LFB655:
 2491              		.loc 11 60 0
 2492              		.cfi_startproc
 2493              		@ args = 0, pretend = 0, frame = 8
 2494              		@ frame_needed = 0, uses_anonymous_args = 0
 2495              		@ link register save eliminated.
 2496 0000 82B0     		sub	sp, sp, #8
 2497              		.cfi_def_cfa_offset 8
 2498 0002 0190     		str	r0, [sp, #4]
 2499              		.loc 11 61 0
 2500 0004 019B     		ldr	r3, [sp, #4]
 2501 0006 1B68     		ldr	r3, [r3]
 2502 0008 1A68     		ldr	r2, [r3]
 2503 000a 019B     		ldr	r3, [sp, #4]
 2504 000c 1A60     		str	r2, [r3]
 2505              		.loc 11 62 0
 2506 000e 019B     		ldr	r3, [sp, #4]
 2507              		.loc 11 63 0
 2508 0010 1846     		mov	r0, r3
 2509 0012 02B0     		add	sp, sp, #8
 2510              		.cfi_def_cfa_offset 0
 2511              		@ sp needed
 2512 0014 7047     		bx	lr
 2513              		.cfi_endproc
 2514              	.LFE655:
 2515              		.size	_ZN3r2p10StaticListINS_16RemoteSubscriberEE14IteratorUnsafeppEv, .-_ZN3r2p10StaticListINS_16
 2516 0016 00BFAFF3 		.section	.text._ZNK3r2p10StaticListINS_16RemoteSubscriberEE14IteratorUnsafeptEv,"axG",%progbits,_Z
 2516      0080AFF3 
 2516      0080
 2517              		.align	2
 2518              		.p2align 4,,15
 2519              		.weak	_ZNK3r2p10StaticListINS_16RemoteSubscriberEE14IteratorUnsafeptEv
 2520              		.thumb
 2521              		.thumb_func
 2522              		.type	_ZNK3r2p10StaticListINS_16RemoteSubscriberEE14IteratorUnsafeptEv, %function
 2523              	_ZNK3r2p10StaticListINS_16RemoteSubscriberEE14IteratorUnsafeptEv:
 2524              	.LFB656:
 2525              		.loc 11 52 0
 2526              		.cfi_startproc
 2527              		@ args = 0, pretend = 0, frame = 8
 2528              		@ frame_needed = 0, uses_anonymous_args = 0
 2529              		@ link register save eliminated.
 2530 0000 82B0     		sub	sp, sp, #8
 2531              		.cfi_def_cfa_offset 8
ARM GAS  /tmp/cc9AvIGf.s 			page 46


 2532 0002 0190     		str	r0, [sp, #4]
 2533              		.loc 11 53 0
 2534 0004 019B     		ldr	r3, [sp, #4]
 2535 0006 1B68     		ldr	r3, [r3]
 2536 0008 5B68     		ldr	r3, [r3, #4]
 2537              		.loc 11 54 0
 2538 000a 1846     		mov	r0, r3
 2539 000c 02B0     		add	sp, sp, #8
 2540              		.cfi_def_cfa_offset 0
 2541              		@ sp needed
 2542 000e 7047     		bx	lr
 2543              		.cfi_endproc
 2544              	.LFE656:
 2545              		.size	_ZNK3r2p10StaticListINS_16RemoteSubscriberEE14IteratorUnsafeptEv, .-_ZNK3r2p10StaticListINS_
 2546              		.section	.text._ZN3r2p5Topic12alloc_unsafeINS_7MessageEEEbRPT_,"axG",%progbits,_ZN3r2p5Topic12allo
 2547              		.align	2
 2548              		.p2align 4,,15
 2549              		.weak	_ZN3r2p5Topic12alloc_unsafeINS_7MessageEEEbRPT_
 2550              		.thumb
 2551              		.thumb_func
 2552              		.type	_ZN3r2p5Topic12alloc_unsafeINS_7MessageEEEbRPT_, %function
 2553              	_ZN3r2p5Topic12alloc_unsafeINS_7MessageEEEbRPT_:
 2554              	.LFB657:
 2555              		.loc 8 262 0
 2556              		.cfi_startproc
 2557              		@ args = 0, pretend = 0, frame = 8
 2558              		@ frame_needed = 0, uses_anonymous_args = 0
 2559 0000 00B5     		push	{lr}
 2560              		.cfi_def_cfa_offset 4
 2561              		.cfi_offset 14, -4
 2562 0002 83B0     		sub	sp, sp, #12
 2563              		.cfi_def_cfa_offset 16
 2564 0004 0190     		str	r0, [sp, #4]
 2565 0006 0091     		str	r1, [sp]
 2566              		.loc 8 265 0
 2567 0008 0198     		ldr	r0, [sp, #4]
 2568 000a FFF7FEFF 		bl	_ZN3r2p5Topic12alloc_unsafeEv
 2569 000e 0246     		mov	r2, r0
 2570 0010 009B     		ldr	r3, [sp]
 2571 0012 1A60     		str	r2, [r3]
 2572 0014 009B     		ldr	r3, [sp]
 2573 0016 1B68     		ldr	r3, [r3]
 2574 0018 002B     		cmp	r3, #0
 2575 001a 14BF     		ite	ne
 2576 001c 0123     		movne	r3, #1
 2577 001e 0023     		moveq	r3, #0
 2578 0020 DBB2     		uxtb	r3, r3
 2579              		.loc 8 266 0
 2580 0022 1846     		mov	r0, r3
 2581 0024 03B0     		add	sp, sp, #12
 2582              		.cfi_def_cfa_offset 4
 2583              		@ sp needed
 2584 0026 5DF804FB 		ldr	pc, [sp], #4
 2585              		.cfi_endproc
 2586              	.LFE657:
 2587              		.size	_ZN3r2p5Topic12alloc_unsafeINS_7MessageEEEbRPT_, .-_ZN3r2p5Topic12alloc_unsafeINS_7MessageEE
 2588 002a 00BFAFF3 		.section	.text._ZN3r2p10StaticListINS_15LocalSubscriberEE5beginEv,"axG",%progbits,_ZN3r2p10StaticL
ARM GAS  /tmp/cc9AvIGf.s 			page 47


 2588      0080
 2589              		.align	2
 2590              		.p2align 4,,15
 2591              		.weak	_ZN3r2p10StaticListINS_15LocalSubscriberEE5beginEv
 2592              		.thumb
 2593              		.thumb_func
 2594              		.type	_ZN3r2p10StaticListINS_15LocalSubscriberEE5beginEv, %function
 2595              	_ZN3r2p10StaticListINS_15LocalSubscriberEE5beginEv:
 2596              	.LFB658:
 2597              		.loc 11 480 0
 2598              		.cfi_startproc
 2599              		@ args = 0, pretend = 0, frame = 8
 2600              		@ frame_needed = 0, uses_anonymous_args = 0
 2601 0000 00B5     		push	{lr}
 2602              		.cfi_def_cfa_offset 4
 2603              		.cfi_offset 14, -4
 2604 0002 83B0     		sub	sp, sp, #12
 2605              		.cfi_def_cfa_offset 16
 2606 0004 0190     		str	r0, [sp, #4]
 2607 0006 0091     		str	r1, [sp]
 2608              		.loc 11 481 0
 2609 0008 0098     		ldr	r0, [sp]
 2610 000a FFF7FEFF 		bl	_ZNK3r2p10StaticListINS_15LocalSubscriberEE8get_headEv
 2611 000e 0346     		mov	r3, r0
 2612 0010 0198     		ldr	r0, [sp, #4]
 2613 0012 1946     		mov	r1, r3
 2614 0014 FFF7FEFF 		bl	_ZN3r2p10StaticListINS_15LocalSubscriberEE8IteratorC1EPKNS2_4LinkE
 2615              		.loc 11 482 0
 2616 0018 0198     		ldr	r0, [sp, #4]
 2617 001a 03B0     		add	sp, sp, #12
 2618              		.cfi_def_cfa_offset 4
 2619              		@ sp needed
 2620 001c 5DF804FB 		ldr	pc, [sp], #4
 2621              		.cfi_endproc
 2622              	.LFE658:
 2623              		.size	_ZN3r2p10StaticListINS_15LocalSubscriberEE5beginEv, .-_ZN3r2p10StaticListINS_15LocalSubscrib
 2624              		.section	.text._ZN3r2p10StaticListINS_15LocalSubscriberEE3endEv,"axG",%progbits,_ZN3r2p10StaticLis
 2625              		.align	2
 2626              		.p2align 4,,15
 2627              		.weak	_ZN3r2p10StaticListINS_15LocalSubscriberEE3endEv
 2628              		.thumb
 2629              		.thumb_func
 2630              		.type	_ZN3r2p10StaticListINS_15LocalSubscriberEE3endEv, %function
 2631              	_ZN3r2p10StaticListINS_15LocalSubscriberEE3endEv:
 2632              	.LFB662:
 2633              		.loc 11 484 0
 2634              		.cfi_startproc
 2635              		@ args = 0, pretend = 0, frame = 8
 2636              		@ frame_needed = 0, uses_anonymous_args = 0
 2637 0000 00B5     		push	{lr}
 2638              		.cfi_def_cfa_offset 4
 2639              		.cfi_offset 14, -4
 2640 0002 83B0     		sub	sp, sp, #12
 2641              		.cfi_def_cfa_offset 16
 2642 0004 0190     		str	r0, [sp, #4]
 2643 0006 0091     		str	r1, [sp]
 2644              		.loc 11 485 0
ARM GAS  /tmp/cc9AvIGf.s 			page 48


 2645 0008 0198     		ldr	r0, [sp, #4]
 2646 000a 0021     		movs	r1, #0
 2647 000c FFF7FEFF 		bl	_ZN3r2p10StaticListINS_15LocalSubscriberEE8IteratorC1EPKNS2_4LinkE
 2648              		.loc 11 486 0
 2649 0010 0198     		ldr	r0, [sp, #4]
 2650 0012 03B0     		add	sp, sp, #12
 2651              		.cfi_def_cfa_offset 4
 2652              		@ sp needed
 2653 0014 5DF804FB 		ldr	pc, [sp], #4
 2654              		.cfi_endproc
 2655              	.LFE662:
 2656              		.size	_ZN3r2p10StaticListINS_15LocalSubscriberEE3endEv, .-_ZN3r2p10StaticListINS_15LocalSubscriber
 2657 0018 AFF30080 		.section	.text._ZNK3r2p10StaticListINS_15LocalSubscriberEE8IteratorneERKS3_,"axG",%progbits,_ZNK3r
 2657      AFF30080 
 2658              		.align	2
 2659              		.p2align 4,,15
 2660              		.weak	_ZNK3r2p10StaticListINS_15LocalSubscriberEE8IteratorneERKS3_
 2661              		.thumb
 2662              		.thumb_func
 2663              		.type	_ZNK3r2p10StaticListINS_15LocalSubscriberEE8IteratorneERKS3_, %function
 2664              	_ZNK3r2p10StaticListINS_15LocalSubscriberEE8IteratorneERKS3_:
 2665              	.LFB663:
 2666              		.loc 11 183 0
 2667              		.cfi_startproc
 2668              		@ args = 0, pretend = 0, frame = 8
 2669              		@ frame_needed = 0, uses_anonymous_args = 0
 2670              		@ link register save eliminated.
 2671 0000 82B0     		sub	sp, sp, #8
 2672              		.cfi_def_cfa_offset 8
 2673 0002 0190     		str	r0, [sp, #4]
 2674 0004 0091     		str	r1, [sp]
 2675              		.loc 11 184 0
 2676 0006 019B     		ldr	r3, [sp, #4]
 2677 0008 1A68     		ldr	r2, [r3]
 2678 000a 009B     		ldr	r3, [sp]
 2679 000c 1B68     		ldr	r3, [r3]
 2680 000e 9A42     		cmp	r2, r3
 2681 0010 14BF     		ite	ne
 2682 0012 0123     		movne	r3, #1
 2683 0014 0023     		moveq	r3, #0
 2684 0016 DBB2     		uxtb	r3, r3
 2685              		.loc 11 185 0
 2686 0018 1846     		mov	r0, r3
 2687 001a 02B0     		add	sp, sp, #8
 2688              		.cfi_def_cfa_offset 0
 2689              		@ sp needed
 2690 001c 7047     		bx	lr
 2691              		.cfi_endproc
 2692              	.LFE663:
 2693              		.size	_ZNK3r2p10StaticListINS_15LocalSubscriberEE8IteratorneERKS3_, .-_ZNK3r2p10StaticListINS_15Lo
 2694 001e 00BF     		.section	.text._ZN3r2p10StaticListINS_15LocalSubscriberEE8IteratorppEv,"axG",%progbits,_ZN3r2p10St
 2695              		.align	2
 2696              		.p2align 4,,15
 2697              		.weak	_ZN3r2p10StaticListINS_15LocalSubscriberEE8IteratorppEv
 2698              		.thumb
 2699              		.thumb_func
 2700              		.type	_ZN3r2p10StaticListINS_15LocalSubscriberEE8IteratorppEv, %function
ARM GAS  /tmp/cc9AvIGf.s 			page 49


 2701              	_ZN3r2p10StaticListINS_15LocalSubscriberEE8IteratorppEv:
 2702              	.LFB664:
 2703              		.loc 11 164 0
 2704              		.cfi_startproc
 2705              		@ args = 0, pretend = 0, frame = 8
 2706              		@ frame_needed = 0, uses_anonymous_args = 0
 2707 0000 00B5     		push	{lr}
 2708              		.cfi_def_cfa_offset 4
 2709              		.cfi_offset 14, -4
 2710 0002 83B0     		sub	sp, sp, #12
 2711              		.cfi_def_cfa_offset 16
 2712 0004 0190     		str	r0, [sp, #4]
 2713              		.loc 11 165 0
 2714 0006 FFF7FEFF 		bl	_ZN3r2p7SysLock7acquireEv
 2715              		.loc 11 166 0
 2716 000a 019B     		ldr	r3, [sp, #4]
 2717 000c 1B68     		ldr	r3, [r3]
 2718 000e 1A68     		ldr	r2, [r3]
 2719 0010 019B     		ldr	r3, [sp, #4]
 2720 0012 1A60     		str	r2, [r3]
 2721              		.loc 11 167 0
 2722 0014 FFF7FEFF 		bl	_ZN3r2p7SysLock7releaseEv
 2723              		.loc 11 168 0
 2724 0018 019B     		ldr	r3, [sp, #4]
 2725              		.loc 11 169 0
 2726 001a 1846     		mov	r0, r3
 2727 001c 03B0     		add	sp, sp, #12
 2728              		.cfi_def_cfa_offset 4
 2729              		@ sp needed
 2730 001e 5DF804FB 		ldr	pc, [sp], #4
 2731              		.cfi_endproc
 2732              	.LFE664:
 2733              		.size	_ZN3r2p10StaticListINS_15LocalSubscriberEE8IteratorppEv, .-_ZN3r2p10StaticListINS_15LocalSub
 2734 0022 00BFAFF3 		.section	.text._ZNK3r2p10StaticListINS_15LocalSubscriberEE8IteratorptEv,"axG",%progbits,_ZNK3r2p10
 2734      0080AFF3 
 2734      0080AFF3 
 2734      0080
 2735              		.align	2
 2736              		.p2align 4,,15
 2737              		.weak	_ZNK3r2p10StaticListINS_15LocalSubscriberEE8IteratorptEv
 2738              		.thumb
 2739              		.thumb_func
 2740              		.type	_ZNK3r2p10StaticListINS_15LocalSubscriberEE8IteratorptEv, %function
 2741              	_ZNK3r2p10StaticListINS_15LocalSubscriberEE8IteratorptEv:
 2742              	.LFB665:
 2743              		.loc 11 156 0
 2744              		.cfi_startproc
 2745              		@ args = 0, pretend = 0, frame = 8
 2746              		@ frame_needed = 0, uses_anonymous_args = 0
 2747              		@ link register save eliminated.
 2748 0000 82B0     		sub	sp, sp, #8
 2749              		.cfi_def_cfa_offset 8
 2750 0002 0190     		str	r0, [sp, #4]
 2751              		.loc 11 157 0
 2752 0004 019B     		ldr	r3, [sp, #4]
 2753 0006 1B68     		ldr	r3, [r3]
 2754 0008 5B68     		ldr	r3, [r3, #4]
ARM GAS  /tmp/cc9AvIGf.s 			page 50


 2755              		.loc 11 158 0
 2756 000a 1846     		mov	r0, r3
 2757 000c 02B0     		add	sp, sp, #8
 2758              		.cfi_def_cfa_offset 0
 2759              		@ sp needed
 2760 000e 7047     		bx	lr
 2761              		.cfi_endproc
 2762              	.LFE665:
 2763              		.size	_ZNK3r2p10StaticListINS_15LocalSubscriberEE8IteratorptEv, .-_ZNK3r2p10StaticListINS_15LocalS
 2764              		.section	.text._ZN3r2p10StaticListINS_16RemoteSubscriberEE5beginEv,"axG",%progbits,_ZN3r2p10Static
 2765              		.align	2
 2766              		.p2align 4,,15
 2767              		.weak	_ZN3r2p10StaticListINS_16RemoteSubscriberEE5beginEv
 2768              		.thumb
 2769              		.thumb_func
 2770              		.type	_ZN3r2p10StaticListINS_16RemoteSubscriberEE5beginEv, %function
 2771              	_ZN3r2p10StaticListINS_16RemoteSubscriberEE5beginEv:
 2772              	.LFB666:
 2773              		.loc 11 480 0
 2774              		.cfi_startproc
 2775              		@ args = 0, pretend = 0, frame = 8
 2776              		@ frame_needed = 0, uses_anonymous_args = 0
 2777 0000 00B5     		push	{lr}
 2778              		.cfi_def_cfa_offset 4
 2779              		.cfi_offset 14, -4
 2780 0002 83B0     		sub	sp, sp, #12
 2781              		.cfi_def_cfa_offset 16
 2782 0004 0190     		str	r0, [sp, #4]
 2783 0006 0091     		str	r1, [sp]
 2784              		.loc 11 481 0
 2785 0008 0098     		ldr	r0, [sp]
 2786 000a FFF7FEFF 		bl	_ZNK3r2p10StaticListINS_16RemoteSubscriberEE8get_headEv
 2787 000e 0346     		mov	r3, r0
 2788 0010 0198     		ldr	r0, [sp, #4]
 2789 0012 1946     		mov	r1, r3
 2790 0014 FFF7FEFF 		bl	_ZN3r2p10StaticListINS_16RemoteSubscriberEE8IteratorC1EPKNS2_4LinkE
 2791              		.loc 11 482 0
 2792 0018 0198     		ldr	r0, [sp, #4]
 2793 001a 03B0     		add	sp, sp, #12
 2794              		.cfi_def_cfa_offset 4
 2795              		@ sp needed
 2796 001c 5DF804FB 		ldr	pc, [sp], #4
 2797              		.cfi_endproc
 2798              	.LFE666:
 2799              		.size	_ZN3r2p10StaticListINS_16RemoteSubscriberEE5beginEv, .-_ZN3r2p10StaticListINS_16RemoteSubscr
 2800              		.section	.text._ZN3r2p10StaticListINS_16RemoteSubscriberEE3endEv,"axG",%progbits,_ZN3r2p10StaticLi
 2801              		.align	2
 2802              		.p2align 4,,15
 2803              		.weak	_ZN3r2p10StaticListINS_16RemoteSubscriberEE3endEv
 2804              		.thumb
 2805              		.thumb_func
 2806              		.type	_ZN3r2p10StaticListINS_16RemoteSubscriberEE3endEv, %function
 2807              	_ZN3r2p10StaticListINS_16RemoteSubscriberEE3endEv:
 2808              	.LFB670:
 2809              		.loc 11 484 0
 2810              		.cfi_startproc
 2811              		@ args = 0, pretend = 0, frame = 8
ARM GAS  /tmp/cc9AvIGf.s 			page 51


 2812              		@ frame_needed = 0, uses_anonymous_args = 0
 2813 0000 00B5     		push	{lr}
 2814              		.cfi_def_cfa_offset 4
 2815              		.cfi_offset 14, -4
 2816 0002 83B0     		sub	sp, sp, #12
 2817              		.cfi_def_cfa_offset 16
 2818 0004 0190     		str	r0, [sp, #4]
 2819 0006 0091     		str	r1, [sp]
 2820              		.loc 11 485 0
 2821 0008 0198     		ldr	r0, [sp, #4]
 2822 000a 0021     		movs	r1, #0
 2823 000c FFF7FEFF 		bl	_ZN3r2p10StaticListINS_16RemoteSubscriberEE8IteratorC1EPKNS2_4LinkE
 2824              		.loc 11 486 0
 2825 0010 0198     		ldr	r0, [sp, #4]
 2826 0012 03B0     		add	sp, sp, #12
 2827              		.cfi_def_cfa_offset 4
 2828              		@ sp needed
 2829 0014 5DF804FB 		ldr	pc, [sp], #4
 2830              		.cfi_endproc
 2831              	.LFE670:
 2832              		.size	_ZN3r2p10StaticListINS_16RemoteSubscriberEE3endEv, .-_ZN3r2p10StaticListINS_16RemoteSubscrib
 2833 0018 AFF30080 		.section	.text._ZNK3r2p10StaticListINS_16RemoteSubscriberEE8IteratorneERKS3_,"axG",%progbits,_ZNK3
 2833      AFF30080 
 2834              		.align	2
 2835              		.p2align 4,,15
 2836              		.weak	_ZNK3r2p10StaticListINS_16RemoteSubscriberEE8IteratorneERKS3_
 2837              		.thumb
 2838              		.thumb_func
 2839              		.type	_ZNK3r2p10StaticListINS_16RemoteSubscriberEE8IteratorneERKS3_, %function
 2840              	_ZNK3r2p10StaticListINS_16RemoteSubscriberEE8IteratorneERKS3_:
 2841              	.LFB671:
 2842              		.loc 11 183 0
 2843              		.cfi_startproc
 2844              		@ args = 0, pretend = 0, frame = 8
 2845              		@ frame_needed = 0, uses_anonymous_args = 0
 2846              		@ link register save eliminated.
 2847 0000 82B0     		sub	sp, sp, #8
 2848              		.cfi_def_cfa_offset 8
 2849 0002 0190     		str	r0, [sp, #4]
 2850 0004 0091     		str	r1, [sp]
 2851              		.loc 11 184 0
 2852 0006 019B     		ldr	r3, [sp, #4]
 2853 0008 1A68     		ldr	r2, [r3]
 2854 000a 009B     		ldr	r3, [sp]
 2855 000c 1B68     		ldr	r3, [r3]
 2856 000e 9A42     		cmp	r2, r3
 2857 0010 14BF     		ite	ne
 2858 0012 0123     		movne	r3, #1
 2859 0014 0023     		moveq	r3, #0
 2860 0016 DBB2     		uxtb	r3, r3
 2861              		.loc 11 185 0
 2862 0018 1846     		mov	r0, r3
 2863 001a 02B0     		add	sp, sp, #8
 2864              		.cfi_def_cfa_offset 0
 2865              		@ sp needed
 2866 001c 7047     		bx	lr
 2867              		.cfi_endproc
ARM GAS  /tmp/cc9AvIGf.s 			page 52


 2868              	.LFE671:
 2869              		.size	_ZNK3r2p10StaticListINS_16RemoteSubscriberEE8IteratorneERKS3_, .-_ZNK3r2p10StaticListINS_16R
 2870 001e 00BF     		.section	.text._ZN3r2p10StaticListINS_16RemoteSubscriberEE8IteratorppEv,"axG",%progbits,_ZN3r2p10S
 2871              		.align	2
 2872              		.p2align 4,,15
 2873              		.weak	_ZN3r2p10StaticListINS_16RemoteSubscriberEE8IteratorppEv
 2874              		.thumb
 2875              		.thumb_func
 2876              		.type	_ZN3r2p10StaticListINS_16RemoteSubscriberEE8IteratorppEv, %function
 2877              	_ZN3r2p10StaticListINS_16RemoteSubscriberEE8IteratorppEv:
 2878              	.LFB672:
 2879              		.loc 11 164 0
 2880              		.cfi_startproc
 2881              		@ args = 0, pretend = 0, frame = 8
 2882              		@ frame_needed = 0, uses_anonymous_args = 0
 2883 0000 00B5     		push	{lr}
 2884              		.cfi_def_cfa_offset 4
 2885              		.cfi_offset 14, -4
 2886 0002 83B0     		sub	sp, sp, #12
 2887              		.cfi_def_cfa_offset 16
 2888 0004 0190     		str	r0, [sp, #4]
 2889              		.loc 11 165 0
 2890 0006 FFF7FEFF 		bl	_ZN3r2p7SysLock7acquireEv
 2891              		.loc 11 166 0
 2892 000a 019B     		ldr	r3, [sp, #4]
 2893 000c 1B68     		ldr	r3, [r3]
 2894 000e 1A68     		ldr	r2, [r3]
 2895 0010 019B     		ldr	r3, [sp, #4]
 2896 0012 1A60     		str	r2, [r3]
 2897              		.loc 11 167 0
 2898 0014 FFF7FEFF 		bl	_ZN3r2p7SysLock7releaseEv
 2899              		.loc 11 168 0
 2900 0018 019B     		ldr	r3, [sp, #4]
 2901              		.loc 11 169 0
 2902 001a 1846     		mov	r0, r3
 2903 001c 03B0     		add	sp, sp, #12
 2904              		.cfi_def_cfa_offset 4
 2905              		@ sp needed
 2906 001e 5DF804FB 		ldr	pc, [sp], #4
 2907              		.cfi_endproc
 2908              	.LFE672:
 2909              		.size	_ZN3r2p10StaticListINS_16RemoteSubscriberEE8IteratorppEv, .-_ZN3r2p10StaticListINS_16RemoteS
 2910 0022 00BFAFF3 		.section	.text._ZNK3r2p10StaticListINS_16RemoteSubscriberEE8IteratorptEv,"axG",%progbits,_ZNK3r2p1
 2910      0080AFF3 
 2910      0080AFF3 
 2910      0080
 2911              		.align	2
 2912              		.p2align 4,,15
 2913              		.weak	_ZNK3r2p10StaticListINS_16RemoteSubscriberEE8IteratorptEv
 2914              		.thumb
 2915              		.thumb_func
 2916              		.type	_ZNK3r2p10StaticListINS_16RemoteSubscriberEE8IteratorptEv, %function
 2917              	_ZNK3r2p10StaticListINS_16RemoteSubscriberEE8IteratorptEv:
 2918              	.LFB673:
 2919              		.loc 11 156 0
 2920              		.cfi_startproc
 2921              		@ args = 0, pretend = 0, frame = 8
ARM GAS  /tmp/cc9AvIGf.s 			page 53


 2922              		@ frame_needed = 0, uses_anonymous_args = 0
 2923              		@ link register save eliminated.
 2924 0000 82B0     		sub	sp, sp, #8
 2925              		.cfi_def_cfa_offset 8
 2926 0002 0190     		str	r0, [sp, #4]
 2927              		.loc 11 157 0
 2928 0004 019B     		ldr	r3, [sp, #4]
 2929 0006 1B68     		ldr	r3, [r3]
 2930 0008 5B68     		ldr	r3, [r3, #4]
 2931              		.loc 11 158 0
 2932 000a 1846     		mov	r0, r3
 2933 000c 02B0     		add	sp, sp, #8
 2934              		.cfi_def_cfa_offset 0
 2935              		@ sp needed
 2936 000e 7047     		bx	lr
 2937              		.cfi_endproc
 2938              	.LFE673:
 2939              		.size	_ZNK3r2p10StaticListINS_16RemoteSubscriberEE8IteratorptEv, .-_ZNK3r2p10StaticListINS_16Remot
 2940              		.section	.text._ZN3r2p5Topic5allocINS_7MessageEEEbRPT_,"axG",%progbits,_ZN3r2p5Topic5allocINS_7Mes
 2941              		.align	2
 2942              		.p2align 4,,15
 2943              		.weak	_ZN3r2p5Topic5allocINS_7MessageEEEbRPT_
 2944              		.thumb
 2945              		.thumb_func
 2946              		.type	_ZN3r2p5Topic5allocINS_7MessageEEEbRPT_, %function
 2947              	_ZN3r2p5Topic5allocINS_7MessageEEEbRPT_:
 2948              	.LFB674:
 2949              		.loc 8 305 0
 2950              		.cfi_startproc
 2951              		@ args = 0, pretend = 0, frame = 8
 2952              		@ frame_needed = 0, uses_anonymous_args = 0
 2953 0000 00B5     		push	{lr}
 2954              		.cfi_def_cfa_offset 4
 2955              		.cfi_offset 14, -4
 2956 0002 83B0     		sub	sp, sp, #12
 2957              		.cfi_def_cfa_offset 16
 2958 0004 0190     		str	r0, [sp, #4]
 2959 0006 0091     		str	r1, [sp]
 2960              		.loc 8 308 0
 2961 0008 0198     		ldr	r0, [sp, #4]
 2962 000a FFF7FEFF 		bl	_ZN3r2p5Topic5allocEv
 2963 000e 0246     		mov	r2, r0
 2964 0010 009B     		ldr	r3, [sp]
 2965 0012 1A60     		str	r2, [r3]
 2966 0014 009B     		ldr	r3, [sp]
 2967 0016 1B68     		ldr	r3, [r3]
 2968 0018 002B     		cmp	r3, #0
 2969 001a 14BF     		ite	ne
 2970 001c 0123     		movne	r3, #1
 2971 001e 0023     		moveq	r3, #0
 2972 0020 DBB2     		uxtb	r3, r3
 2973              		.loc 8 309 0
 2974 0022 1846     		mov	r0, r3
 2975 0024 03B0     		add	sp, sp, #12
 2976              		.cfi_def_cfa_offset 4
 2977              		@ sp needed
 2978 0026 5DF804FB 		ldr	pc, [sp], #4
ARM GAS  /tmp/cc9AvIGf.s 			page 54


 2979              		.cfi_endproc
 2980              	.LFE674:
 2981              		.size	_ZN3r2p5Topic5allocINS_7MessageEEEbRPT_, .-_ZN3r2p5Topic5allocINS_7MessageEEEbRPT_
 2982 002a 00BFAFF3 		.section	.text._ZN3r2p10StaticListINS_15LocalSubscriberEE11link_unsafeERNS2_4LinkE,"axG",%progbits
 2982      0080
 2983              		.align	2
 2984              		.p2align 4,,15
 2985              		.weak	_ZN3r2p10StaticListINS_15LocalSubscriberEE11link_unsafeERNS2_4LinkE
 2986              		.thumb
 2987              		.thumb_func
 2988              		.type	_ZN3r2p10StaticListINS_15LocalSubscriberEE11link_unsafeERNS2_4LinkE, %function
 2989              	_ZN3r2p10StaticListINS_15LocalSubscriberEE11link_unsafeERNS2_4LinkE:
 2990              	.LFB675:
 2991              		.loc 11 407 0
 2992              		.cfi_startproc
 2993              		@ args = 0, pretend = 0, frame = 8
 2994              		@ frame_needed = 0, uses_anonymous_args = 0
 2995 0000 00B5     		push	{lr}
 2996              		.cfi_def_cfa_offset 4
 2997              		.cfi_offset 14, -4
 2998 0002 83B0     		sub	sp, sp, #12
 2999              		.cfi_def_cfa_offset 16
 3000 0004 0190     		str	r0, [sp, #4]
 3001 0006 0091     		str	r1, [sp]
 3002              		.loc 11 408 0
 3003 0008 009B     		ldr	r3, [sp]
 3004 000a 1B68     		ldr	r3, [r3]
 3005 000c 002B     		cmp	r3, #0
 3006 000e 02D0     		beq	.L171
 3007              		.loc 11 408 0 is_stmt 0 discriminator 1
 3008 0010 0B48     		ldr	r0, .L173
 3009 0012 FFF7FEFF 		bl	chDbgPanic
 3010              	.L171:
 3011              		.loc 11 409 0 is_stmt 1
 3012 0016 0198     		ldr	r0, [sp, #4]
 3013 0018 0099     		ldr	r1, [sp]
 3014 001a FFF7FEFF 		bl	_ZN3r2p10StaticListINS_15LocalSubscriberEE13unlink_unsafeERNS2_4LinkE
 3015 001e 0346     		mov	r3, r0
 3016 0020 002B     		cmp	r3, #0
 3017 0022 02D0     		beq	.L172
 3018              		.loc 11 409 0 is_stmt 0 discriminator 1
 3019 0024 0648     		ldr	r0, .L173
 3020 0026 FFF7FEFF 		bl	chDbgPanic
 3021              	.L172:
 3022              		.loc 11 411 0 is_stmt 1
 3023 002a 019B     		ldr	r3, [sp, #4]
 3024 002c 1A68     		ldr	r2, [r3]
 3025 002e 009B     		ldr	r3, [sp]
 3026 0030 1A60     		str	r2, [r3]
 3027              		.loc 11 412 0
 3028 0032 019B     		ldr	r3, [sp, #4]
 3029 0034 009A     		ldr	r2, [sp]
 3030 0036 1A60     		str	r2, [r3]
 3031              		.loc 11 413 0
 3032 0038 03B0     		add	sp, sp, #12
 3033              		.cfi_def_cfa_offset 4
 3034              		@ sp needed
ARM GAS  /tmp/cc9AvIGf.s 			page 55


 3035 003a 5DF804FB 		ldr	pc, [sp], #4
 3036              	.L174:
 3037 003e 00BF     		.align	2
 3038              	.L173:
 3039 0040 00000000 		.word	.LC0
 3040              		.cfi_endproc
 3041              	.LFE675:
 3042              		.size	_ZN3r2p10StaticListINS_15LocalSubscriberEE11link_unsafeERNS2_4LinkE, .-_ZN3r2p10StaticListIN
 3043 0044 AFF30080 		.section	.text._ZN3r2p10StaticListINS_16RemoteSubscriberEE11link_unsafeERNS2_4LinkE,"axG",%progbit
 3043      AFF30080 
 3043      AFF30080 
 3044              		.align	2
 3045              		.p2align 4,,15
 3046              		.weak	_ZN3r2p10StaticListINS_16RemoteSubscriberEE11link_unsafeERNS2_4LinkE
 3047              		.thumb
 3048              		.thumb_func
 3049              		.type	_ZN3r2p10StaticListINS_16RemoteSubscriberEE11link_unsafeERNS2_4LinkE, %function
 3050              	_ZN3r2p10StaticListINS_16RemoteSubscriberEE11link_unsafeERNS2_4LinkE:
 3051              	.LFB676:
 3052              		.loc 11 407 0
 3053              		.cfi_startproc
 3054              		@ args = 0, pretend = 0, frame = 8
 3055              		@ frame_needed = 0, uses_anonymous_args = 0
 3056 0000 00B5     		push	{lr}
 3057              		.cfi_def_cfa_offset 4
 3058              		.cfi_offset 14, -4
 3059 0002 83B0     		sub	sp, sp, #12
 3060              		.cfi_def_cfa_offset 16
 3061 0004 0190     		str	r0, [sp, #4]
 3062 0006 0091     		str	r1, [sp]
 3063              		.loc 11 408 0
 3064 0008 009B     		ldr	r3, [sp]
 3065 000a 1B68     		ldr	r3, [r3]
 3066 000c 002B     		cmp	r3, #0
 3067 000e 02D0     		beq	.L176
 3068              		.loc 11 408 0 is_stmt 0 discriminator 1
 3069 0010 0B48     		ldr	r0, .L178
 3070 0012 FFF7FEFF 		bl	chDbgPanic
 3071              	.L176:
 3072              		.loc 11 409 0 is_stmt 1
 3073 0016 0198     		ldr	r0, [sp, #4]
 3074 0018 0099     		ldr	r1, [sp]
 3075 001a FFF7FEFF 		bl	_ZN3r2p10StaticListINS_16RemoteSubscriberEE13unlink_unsafeERNS2_4LinkE
 3076 001e 0346     		mov	r3, r0
 3077 0020 002B     		cmp	r3, #0
 3078 0022 02D0     		beq	.L177
 3079              		.loc 11 409 0 is_stmt 0 discriminator 1
 3080 0024 0648     		ldr	r0, .L178
 3081 0026 FFF7FEFF 		bl	chDbgPanic
 3082              	.L177:
 3083              		.loc 11 411 0 is_stmt 1
 3084 002a 019B     		ldr	r3, [sp, #4]
 3085 002c 1A68     		ldr	r2, [r3]
 3086 002e 009B     		ldr	r3, [sp]
 3087 0030 1A60     		str	r2, [r3]
 3088              		.loc 11 412 0
 3089 0032 019B     		ldr	r3, [sp, #4]
ARM GAS  /tmp/cc9AvIGf.s 			page 56


 3090 0034 009A     		ldr	r2, [sp]
 3091 0036 1A60     		str	r2, [r3]
 3092              		.loc 11 413 0
 3093 0038 03B0     		add	sp, sp, #12
 3094              		.cfi_def_cfa_offset 4
 3095              		@ sp needed
 3096 003a 5DF804FB 		ldr	pc, [sp], #4
 3097              	.L179:
 3098 003e 00BF     		.align	2
 3099              	.L178:
 3100 0040 00000000 		.word	.LC0
 3101              		.cfi_endproc
 3102              	.LFE676:
 3103              		.size	_ZN3r2p10StaticListINS_16RemoteSubscriberEE11link_unsafeERNS2_4LinkE, .-_ZN3r2p10StaticListI
 3104 0044 AFF30080 		.section	.text._ZN3r2p10StaticListINS_15LocalSubscriberEEC2Ev,"axG",%progbits,_ZN3r2p10StaticListI
 3104      AFF30080 
 3104      AFF30080 
 3105              		.align	2
 3106              		.p2align 4,,15
 3107              		.weak	_ZN3r2p10StaticListINS_15LocalSubscriberEEC2Ev
 3108              		.thumb
 3109              		.thumb_func
 3110              		.type	_ZN3r2p10StaticListINS_15LocalSubscriberEEC2Ev, %function
 3111              	_ZN3r2p10StaticListINS_15LocalSubscriberEEC2Ev:
 3112              	.LFB678:
 3113              		.loc 11 506 0
 3114              		.cfi_startproc
 3115              		@ args = 0, pretend = 0, frame = 8
 3116              		@ frame_needed = 0, uses_anonymous_args = 0
 3117 0000 00B5     		push	{lr}
 3118              		.cfi_def_cfa_offset 4
 3119              		.cfi_offset 14, -4
 3120 0002 83B0     		sub	sp, sp, #12
 3121              		.cfi_def_cfa_offset 16
 3122 0004 0190     		str	r0, [sp, #4]
 3123              	.LBB46:
 3124              		.loc 11 506 0
 3125 0006 0198     		ldr	r0, [sp, #4]
 3126 0008 FFF7FEFF 		bl	_ZN3r2p10UncopyableC2Ev
 3127 000c 019B     		ldr	r3, [sp, #4]
 3128 000e 0022     		movs	r2, #0
 3129 0010 1A60     		str	r2, [r3]
 3130              	.LBE46:
 3131 0012 019B     		ldr	r3, [sp, #4]
 3132 0014 1846     		mov	r0, r3
 3133 0016 03B0     		add	sp, sp, #12
 3134              		.cfi_def_cfa_offset 4
 3135              		@ sp needed
 3136 0018 5DF804FB 		ldr	pc, [sp], #4
 3137              		.cfi_endproc
 3138              	.LFE678:
 3139              		.size	_ZN3r2p10StaticListINS_15LocalSubscriberEEC2Ev, .-_ZN3r2p10StaticListINS_15LocalSubscriberEE
 3140              		.weak	_ZN3r2p10StaticListINS_15LocalSubscriberEEC1Ev
 3141              		.thumb_set _ZN3r2p10StaticListINS_15LocalSubscriberEEC1Ev,_ZN3r2p10StaticListINS_15LocalSubscriber
 3142 001c AFF30080 		.section	.text._ZN3r2p10StaticListINS_16RemoteSubscriberEEC2Ev,"axG",%progbits,_ZN3r2p10StaticList
 3143              		.align	2
 3144              		.p2align 4,,15
ARM GAS  /tmp/cc9AvIGf.s 			page 57


 3145              		.weak	_ZN3r2p10StaticListINS_16RemoteSubscriberEEC2Ev
 3146              		.thumb
 3147              		.thumb_func
 3148              		.type	_ZN3r2p10StaticListINS_16RemoteSubscriberEEC2Ev, %function
 3149              	_ZN3r2p10StaticListINS_16RemoteSubscriberEEC2Ev:
 3150              	.LFB681:
 3151              		.loc 11 506 0
 3152              		.cfi_startproc
 3153              		@ args = 0, pretend = 0, frame = 8
 3154              		@ frame_needed = 0, uses_anonymous_args = 0
 3155 0000 00B5     		push	{lr}
 3156              		.cfi_def_cfa_offset 4
 3157              		.cfi_offset 14, -4
 3158 0002 83B0     		sub	sp, sp, #12
 3159              		.cfi_def_cfa_offset 16
 3160 0004 0190     		str	r0, [sp, #4]
 3161              	.LBB47:
 3162              		.loc 11 506 0
 3163 0006 0198     		ldr	r0, [sp, #4]
 3164 0008 FFF7FEFF 		bl	_ZN3r2p10UncopyableC2Ev
 3165 000c 019B     		ldr	r3, [sp, #4]
 3166 000e 0022     		movs	r2, #0
 3167 0010 1A60     		str	r2, [r3]
 3168              	.LBE47:
 3169 0012 019B     		ldr	r3, [sp, #4]
 3170 0014 1846     		mov	r0, r3
 3171 0016 03B0     		add	sp, sp, #12
 3172              		.cfi_def_cfa_offset 4
 3173              		@ sp needed
 3174 0018 5DF804FB 		ldr	pc, [sp], #4
 3175              		.cfi_endproc
 3176              	.LFE681:
 3177              		.size	_ZN3r2p10StaticListINS_16RemoteSubscriberEEC2Ev, .-_ZN3r2p10StaticListINS_16RemoteSubscriber
 3178              		.weak	_ZN3r2p10StaticListINS_16RemoteSubscriberEEC1Ev
 3179              		.thumb_set _ZN3r2p10StaticListINS_16RemoteSubscriberEEC1Ev,_ZN3r2p10StaticListINS_16RemoteSubscrib
 3180 001c AFF30080 		.section	.text._ZN3r2p10StaticListINS_5TopicEE4LinkC2ERS1_,"axG",%progbits,_ZN3r2p10StaticListINS_
 3181              		.align	2
 3182              		.p2align 4,,15
 3183              		.weak	_ZN3r2p10StaticListINS_5TopicEE4LinkC2ERS1_
 3184              		.thumb
 3185              		.thumb_func
 3186              		.type	_ZN3r2p10StaticListINS_5TopicEE4LinkC2ERS1_, %function
 3187              	_ZN3r2p10StaticListINS_5TopicEE4LinkC2ERS1_:
 3188              	.LFB684:
 3189              		.loc 11 21 0
 3190              		.cfi_startproc
 3191              		@ args = 0, pretend = 0, frame = 8
 3192              		@ frame_needed = 0, uses_anonymous_args = 0
 3193              		@ link register save eliminated.
 3194 0000 82B0     		sub	sp, sp, #8
 3195              		.cfi_def_cfa_offset 8
 3196 0002 0190     		str	r0, [sp, #4]
 3197 0004 0091     		str	r1, [sp]
 3198              	.LBB48:
 3199              		.loc 11 21 0
 3200 0006 019B     		ldr	r3, [sp, #4]
 3201 0008 0022     		movs	r2, #0
ARM GAS  /tmp/cc9AvIGf.s 			page 58


 3202 000a 1A60     		str	r2, [r3]
 3203 000c 019B     		ldr	r3, [sp, #4]
 3204 000e 009A     		ldr	r2, [sp]
 3205 0010 5A60     		str	r2, [r3, #4]
 3206              	.LBE48:
 3207 0012 019B     		ldr	r3, [sp, #4]
 3208 0014 1846     		mov	r0, r3
 3209 0016 02B0     		add	sp, sp, #8
 3210              		.cfi_def_cfa_offset 0
 3211              		@ sp needed
 3212 0018 7047     		bx	lr
 3213              		.cfi_endproc
 3214              	.LFE684:
 3215              		.size	_ZN3r2p10StaticListINS_5TopicEE4LinkC2ERS1_, .-_ZN3r2p10StaticListINS_5TopicEE4LinkC2ERS1_
 3216              		.weak	_ZN3r2p10StaticListINS_5TopicEE4LinkC1ERS1_
 3217              		.thumb_set _ZN3r2p10StaticListINS_5TopicEE4LinkC1ERS1_,_ZN3r2p10StaticListINS_5TopicEE4LinkC2ERS1_
 3218 001a 00BFAFF3 		.section	.text._ZNK3r2p10StaticListINS_15LocalSubscriberEE15get_head_unsafeEv,"axG",%progbits,_ZNK
 3218      0080
 3219              		.align	2
 3220              		.p2align 4,,15
 3221              		.weak	_ZNK3r2p10StaticListINS_15LocalSubscriberEE15get_head_unsafeEv
 3222              		.thumb
 3223              		.thumb_func
 3224              		.type	_ZNK3r2p10StaticListINS_15LocalSubscriberEE15get_head_unsafeEv, %function
 3225              	_ZNK3r2p10StaticListINS_15LocalSubscriberEE15get_head_unsafeEv:
 3226              	.LFB686:
 3227              		.loc 11 397 0
 3228              		.cfi_startproc
 3229              		@ args = 0, pretend = 0, frame = 8
 3230              		@ frame_needed = 0, uses_anonymous_args = 0
 3231              		@ link register save eliminated.
 3232 0000 82B0     		sub	sp, sp, #8
 3233              		.cfi_def_cfa_offset 8
 3234 0002 0190     		str	r0, [sp, #4]
 3235              		.loc 11 398 0
 3236 0004 019B     		ldr	r3, [sp, #4]
 3237 0006 1B68     		ldr	r3, [r3]
 3238              		.loc 11 399 0
 3239 0008 1846     		mov	r0, r3
 3240 000a 02B0     		add	sp, sp, #8
 3241              		.cfi_def_cfa_offset 0
 3242              		@ sp needed
 3243 000c 7047     		bx	lr
 3244              		.cfi_endproc
 3245              	.LFE686:
 3246              		.size	_ZNK3r2p10StaticListINS_15LocalSubscriberEE15get_head_unsafeEv, .-_ZNK3r2p10StaticListINS_15
 3247 000e 00BF     		.section	.text._ZN3r2p10StaticListINS_15LocalSubscriberEE14IteratorUnsafeC2EPKNS2_4LinkE,"axG",%pr
 3248              		.align	2
 3249              		.p2align 4,,15
 3250              		.weak	_ZN3r2p10StaticListINS_15LocalSubscriberEE14IteratorUnsafeC2EPKNS2_4LinkE
 3251              		.thumb
 3252              		.thumb_func
 3253              		.type	_ZN3r2p10StaticListINS_15LocalSubscriberEE14IteratorUnsafeC2EPKNS2_4LinkE, %function
 3254              	_ZN3r2p10StaticListINS_15LocalSubscriberEE14IteratorUnsafeC2EPKNS2_4LinkE:
 3255              	.LFB688:
 3256              		.loc 11 43 0
 3257              		.cfi_startproc
ARM GAS  /tmp/cc9AvIGf.s 			page 59


 3258              		@ args = 0, pretend = 0, frame = 8
 3259              		@ frame_needed = 0, uses_anonymous_args = 0
 3260              		@ link register save eliminated.
 3261 0000 82B0     		sub	sp, sp, #8
 3262              		.cfi_def_cfa_offset 8
 3263 0002 0190     		str	r0, [sp, #4]
 3264 0004 0091     		str	r1, [sp]
 3265              	.LBB49:
 3266              		.loc 11 43 0
 3267 0006 019B     		ldr	r3, [sp, #4]
 3268 0008 009A     		ldr	r2, [sp]
 3269 000a 1A60     		str	r2, [r3]
 3270              	.LBE49:
 3271 000c 019B     		ldr	r3, [sp, #4]
 3272 000e 1846     		mov	r0, r3
 3273 0010 02B0     		add	sp, sp, #8
 3274              		.cfi_def_cfa_offset 0
 3275              		@ sp needed
 3276 0012 7047     		bx	lr
 3277              		.cfi_endproc
 3278              	.LFE688:
 3279              		.size	_ZN3r2p10StaticListINS_15LocalSubscriberEE14IteratorUnsafeC2EPKNS2_4LinkE, .-_ZN3r2p10Static
 3280              		.weak	_ZN3r2p10StaticListINS_15LocalSubscriberEE14IteratorUnsafeC1EPKNS2_4LinkE
 3281              		.thumb_set _ZN3r2p10StaticListINS_15LocalSubscriberEE14IteratorUnsafeC1EPKNS2_4LinkE,_ZN3r2p10Stat
 3282 0014 AFF30080 		.section	.text._ZNK3r2p10StaticListINS_16RemoteSubscriberEE15get_head_unsafeEv,"axG",%progbits,_ZN
 3282      AFF30080 
 3282      AFF30080 
 3283              		.align	2
 3284              		.p2align 4,,15
 3285              		.weak	_ZNK3r2p10StaticListINS_16RemoteSubscriberEE15get_head_unsafeEv
 3286              		.thumb
 3287              		.thumb_func
 3288              		.type	_ZNK3r2p10StaticListINS_16RemoteSubscriberEE15get_head_unsafeEv, %function
 3289              	_ZNK3r2p10StaticListINS_16RemoteSubscriberEE15get_head_unsafeEv:
 3290              	.LFB690:
 3291              		.loc 11 397 0
 3292              		.cfi_startproc
 3293              		@ args = 0, pretend = 0, frame = 8
 3294              		@ frame_needed = 0, uses_anonymous_args = 0
 3295              		@ link register save eliminated.
 3296 0000 82B0     		sub	sp, sp, #8
 3297              		.cfi_def_cfa_offset 8
 3298 0002 0190     		str	r0, [sp, #4]
 3299              		.loc 11 398 0
 3300 0004 019B     		ldr	r3, [sp, #4]
 3301 0006 1B68     		ldr	r3, [r3]
 3302              		.loc 11 399 0
 3303 0008 1846     		mov	r0, r3
 3304 000a 02B0     		add	sp, sp, #8
 3305              		.cfi_def_cfa_offset 0
 3306              		@ sp needed
 3307 000c 7047     		bx	lr
 3308              		.cfi_endproc
 3309              	.LFE690:
 3310              		.size	_ZNK3r2p10StaticListINS_16RemoteSubscriberEE15get_head_unsafeEv, .-_ZNK3r2p10StaticListINS_1
 3311 000e 00BF     		.section	.text._ZN3r2p10StaticListINS_16RemoteSubscriberEE14IteratorUnsafeC2EPKNS2_4LinkE,"axG",%p
 3312              		.align	2
ARM GAS  /tmp/cc9AvIGf.s 			page 60


 3313              		.p2align 4,,15
 3314              		.weak	_ZN3r2p10StaticListINS_16RemoteSubscriberEE14IteratorUnsafeC2EPKNS2_4LinkE
 3315              		.thumb
 3316              		.thumb_func
 3317              		.type	_ZN3r2p10StaticListINS_16RemoteSubscriberEE14IteratorUnsafeC2EPKNS2_4LinkE, %function
 3318              	_ZN3r2p10StaticListINS_16RemoteSubscriberEE14IteratorUnsafeC2EPKNS2_4LinkE:
 3319              	.LFB692:
 3320              		.loc 11 43 0
 3321              		.cfi_startproc
 3322              		@ args = 0, pretend = 0, frame = 8
 3323              		@ frame_needed = 0, uses_anonymous_args = 0
 3324              		@ link register save eliminated.
 3325 0000 82B0     		sub	sp, sp, #8
 3326              		.cfi_def_cfa_offset 8
 3327 0002 0190     		str	r0, [sp, #4]
 3328 0004 0091     		str	r1, [sp]
 3329              	.LBB50:
 3330              		.loc 11 43 0
 3331 0006 019B     		ldr	r3, [sp, #4]
 3332 0008 009A     		ldr	r2, [sp]
 3333 000a 1A60     		str	r2, [r3]
 3334              	.LBE50:
 3335 000c 019B     		ldr	r3, [sp, #4]
 3336 000e 1846     		mov	r0, r3
 3337 0010 02B0     		add	sp, sp, #8
 3338              		.cfi_def_cfa_offset 0
 3339              		@ sp needed
 3340 0012 7047     		bx	lr
 3341              		.cfi_endproc
 3342              	.LFE692:
 3343              		.size	_ZN3r2p10StaticListINS_16RemoteSubscriberEE14IteratorUnsafeC2EPKNS2_4LinkE, .-_ZN3r2p10Stati
 3344              		.weak	_ZN3r2p10StaticListINS_16RemoteSubscriberEE14IteratorUnsafeC1EPKNS2_4LinkE
 3345              		.thumb_set _ZN3r2p10StaticListINS_16RemoteSubscriberEE14IteratorUnsafeC1EPKNS2_4LinkE,_ZN3r2p10Sta
 3346 0014 AFF30080 		.section	.text._ZNK3r2p10StaticListINS_15LocalSubscriberEE8get_headEv,"axG",%progbits,_ZNK3r2p10St
 3346      AFF30080 
 3346      AFF30080 
 3347              		.align	2
 3348              		.p2align 4,,15
 3349              		.weak	_ZNK3r2p10StaticListINS_15LocalSubscriberEE8get_headEv
 3350              		.thumb
 3351              		.thumb_func
 3352              		.type	_ZNK3r2p10StaticListINS_15LocalSubscriberEE8get_headEv, %function
 3353              	_ZNK3r2p10StaticListINS_15LocalSubscriberEE8get_headEv:
 3354              	.LFB695:
 3355              		.loc 11 595 0
 3356              		.cfi_startproc
 3357              		@ args = 0, pretend = 0, frame = 16
 3358              		@ frame_needed = 0, uses_anonymous_args = 0
 3359 0000 00B5     		push	{lr}
 3360              		.cfi_def_cfa_offset 4
 3361              		.cfi_offset 14, -4
 3362 0002 85B0     		sub	sp, sp, #20
 3363              		.cfi_def_cfa_offset 24
 3364 0004 0190     		str	r0, [sp, #4]
 3365              	.LBB51:
 3366              		.loc 11 597 0
 3367 0006 FFF7FEFF 		bl	_ZN3r2p7SysLock7acquireEv
ARM GAS  /tmp/cc9AvIGf.s 			page 61


 3368              		.loc 11 598 0
 3369 000a 0198     		ldr	r0, [sp, #4]
 3370 000c FFF7FEFF 		bl	_ZNK3r2p10StaticListINS_15LocalSubscriberEE15get_head_unsafeEv
 3371 0010 0390     		str	r0, [sp, #12]
 3372              		.loc 11 599 0
 3373 0012 FFF7FEFF 		bl	_ZN3r2p7SysLock7releaseEv
 3374              		.loc 11 600 0
 3375 0016 039B     		ldr	r3, [sp, #12]
 3376              	.LBE51:
 3377              		.loc 11 601 0
 3378 0018 1846     		mov	r0, r3
 3379 001a 05B0     		add	sp, sp, #20
 3380              		.cfi_def_cfa_offset 4
 3381              		@ sp needed
 3382 001c 5DF804FB 		ldr	pc, [sp], #4
 3383              		.cfi_endproc
 3384              	.LFE695:
 3385              		.size	_ZNK3r2p10StaticListINS_15LocalSubscriberEE8get_headEv, .-_ZNK3r2p10StaticListINS_15LocalSub
 3386              		.section	.text._ZN3r2p10StaticListINS_15LocalSubscriberEE8IteratorC2EPKNS2_4LinkE,"axG",%progbits,
 3387              		.align	2
 3388              		.p2align 4,,15
 3389              		.weak	_ZN3r2p10StaticListINS_15LocalSubscriberEE8IteratorC2EPKNS2_4LinkE
 3390              		.thumb
 3391              		.thumb_func
 3392              		.type	_ZN3r2p10StaticListINS_15LocalSubscriberEE8IteratorC2EPKNS2_4LinkE, %function
 3393              	_ZN3r2p10StaticListINS_15LocalSubscriberEE8IteratorC2EPKNS2_4LinkE:
 3394              	.LFB697:
 3395              		.loc 11 147 0
 3396              		.cfi_startproc
 3397              		@ args = 0, pretend = 0, frame = 8
 3398              		@ frame_needed = 0, uses_anonymous_args = 0
 3399              		@ link register save eliminated.
 3400 0000 82B0     		sub	sp, sp, #8
 3401              		.cfi_def_cfa_offset 8
 3402 0002 0190     		str	r0, [sp, #4]
 3403 0004 0091     		str	r1, [sp]
 3404              	.LBB52:
 3405              		.loc 11 147 0
 3406 0006 019B     		ldr	r3, [sp, #4]
 3407 0008 009A     		ldr	r2, [sp]
 3408 000a 1A60     		str	r2, [r3]
 3409              	.LBE52:
 3410 000c 019B     		ldr	r3, [sp, #4]
 3411 000e 1846     		mov	r0, r3
 3412 0010 02B0     		add	sp, sp, #8
 3413              		.cfi_def_cfa_offset 0
 3414              		@ sp needed
 3415 0012 7047     		bx	lr
 3416              		.cfi_endproc
 3417              	.LFE697:
 3418              		.size	_ZN3r2p10StaticListINS_15LocalSubscriberEE8IteratorC2EPKNS2_4LinkE, .-_ZN3r2p10StaticListINS
 3419              		.weak	_ZN3r2p10StaticListINS_15LocalSubscriberEE8IteratorC1EPKNS2_4LinkE
 3420              		.thumb_set _ZN3r2p10StaticListINS_15LocalSubscriberEE8IteratorC1EPKNS2_4LinkE,_ZN3r2p10StaticListI
 3421 0014 AFF30080 		.section	.text._ZNK3r2p10StaticListINS_16RemoteSubscriberEE8get_headEv,"axG",%progbits,_ZNK3r2p10S
 3421      AFF30080 
 3421      AFF30080 
 3422              		.align	2
ARM GAS  /tmp/cc9AvIGf.s 			page 62


 3423              		.p2align 4,,15
 3424              		.weak	_ZNK3r2p10StaticListINS_16RemoteSubscriberEE8get_headEv
 3425              		.thumb
 3426              		.thumb_func
 3427              		.type	_ZNK3r2p10StaticListINS_16RemoteSubscriberEE8get_headEv, %function
 3428              	_ZNK3r2p10StaticListINS_16RemoteSubscriberEE8get_headEv:
 3429              	.LFB699:
 3430              		.loc 11 595 0
 3431              		.cfi_startproc
 3432              		@ args = 0, pretend = 0, frame = 16
 3433              		@ frame_needed = 0, uses_anonymous_args = 0
 3434 0000 00B5     		push	{lr}
 3435              		.cfi_def_cfa_offset 4
 3436              		.cfi_offset 14, -4
 3437 0002 85B0     		sub	sp, sp, #20
 3438              		.cfi_def_cfa_offset 24
 3439 0004 0190     		str	r0, [sp, #4]
 3440              	.LBB53:
 3441              		.loc 11 597 0
 3442 0006 FFF7FEFF 		bl	_ZN3r2p7SysLock7acquireEv
 3443              		.loc 11 598 0
 3444 000a 0198     		ldr	r0, [sp, #4]
 3445 000c FFF7FEFF 		bl	_ZNK3r2p10StaticListINS_16RemoteSubscriberEE15get_head_unsafeEv
 3446 0010 0390     		str	r0, [sp, #12]
 3447              		.loc 11 599 0
 3448 0012 FFF7FEFF 		bl	_ZN3r2p7SysLock7releaseEv
 3449              		.loc 11 600 0
 3450 0016 039B     		ldr	r3, [sp, #12]
 3451              	.LBE53:
 3452              		.loc 11 601 0
 3453 0018 1846     		mov	r0, r3
 3454 001a 05B0     		add	sp, sp, #20
 3455              		.cfi_def_cfa_offset 4
 3456              		@ sp needed
 3457 001c 5DF804FB 		ldr	pc, [sp], #4
 3458              		.cfi_endproc
 3459              	.LFE699:
 3460              		.size	_ZNK3r2p10StaticListINS_16RemoteSubscriberEE8get_headEv, .-_ZNK3r2p10StaticListINS_16RemoteS
 3461              		.section	.text._ZN3r2p10StaticListINS_16RemoteSubscriberEE8IteratorC2EPKNS2_4LinkE,"axG",%progbits
 3462              		.align	2
 3463              		.p2align 4,,15
 3464              		.weak	_ZN3r2p10StaticListINS_16RemoteSubscriberEE8IteratorC2EPKNS2_4LinkE
 3465              		.thumb
 3466              		.thumb_func
 3467              		.type	_ZN3r2p10StaticListINS_16RemoteSubscriberEE8IteratorC2EPKNS2_4LinkE, %function
 3468              	_ZN3r2p10StaticListINS_16RemoteSubscriberEE8IteratorC2EPKNS2_4LinkE:
 3469              	.LFB701:
 3470              		.loc 11 147 0
 3471              		.cfi_startproc
 3472              		@ args = 0, pretend = 0, frame = 8
 3473              		@ frame_needed = 0, uses_anonymous_args = 0
 3474              		@ link register save eliminated.
 3475 0000 82B0     		sub	sp, sp, #8
 3476              		.cfi_def_cfa_offset 8
 3477 0002 0190     		str	r0, [sp, #4]
 3478 0004 0091     		str	r1, [sp]
 3479              	.LBB54:
ARM GAS  /tmp/cc9AvIGf.s 			page 63


 3480              		.loc 11 147 0
 3481 0006 019B     		ldr	r3, [sp, #4]
 3482 0008 009A     		ldr	r2, [sp]
 3483 000a 1A60     		str	r2, [r3]
 3484              	.LBE54:
 3485 000c 019B     		ldr	r3, [sp, #4]
 3486 000e 1846     		mov	r0, r3
 3487 0010 02B0     		add	sp, sp, #8
 3488              		.cfi_def_cfa_offset 0
 3489              		@ sp needed
 3490 0012 7047     		bx	lr
 3491              		.cfi_endproc
 3492              	.LFE701:
 3493              		.size	_ZN3r2p10StaticListINS_16RemoteSubscriberEE8IteratorC2EPKNS2_4LinkE, .-_ZN3r2p10StaticListIN
 3494              		.weak	_ZN3r2p10StaticListINS_16RemoteSubscriberEE8IteratorC1EPKNS2_4LinkE
 3495              		.thumb_set _ZN3r2p10StaticListINS_16RemoteSubscriberEE8IteratorC1EPKNS2_4LinkE,_ZN3r2p10StaticList
 3496 0014 AFF30080 		.section	.text._ZN3r2p10StaticListINS_15LocalSubscriberEE13unlink_unsafeERNS2_4LinkE,"axG",%progbi
 3496      AFF30080 
 3496      AFF30080 
 3497              		.align	2
 3498              		.p2align 4,,15
 3499              		.weak	_ZN3r2p10StaticListINS_15LocalSubscriberEE13unlink_unsafeERNS2_4LinkE
 3500              		.thumb
 3501              		.thumb_func
 3502              		.type	_ZN3r2p10StaticListINS_15LocalSubscriberEE13unlink_unsafeERNS2_4LinkE, %function
 3503              	_ZN3r2p10StaticListINS_15LocalSubscriberEE13unlink_unsafeERNS2_4LinkE:
 3504              	.LFB703:
 3505              		.loc 11 526 0
 3506              		.cfi_startproc
 3507              		@ args = 0, pretend = 0, frame = 16
 3508              		@ frame_needed = 0, uses_anonymous_args = 0
 3509              		@ link register save eliminated.
 3510 0000 84B0     		sub	sp, sp, #16
 3511              		.cfi_def_cfa_offset 16
 3512 0002 0190     		str	r0, [sp, #4]
 3513 0004 0091     		str	r1, [sp]
 3514              	.LBB55:
 3515              	.LBB56:
 3516              		.loc 11 528 0
 3517 0006 019B     		ldr	r3, [sp, #4]
 3518 0008 1B68     		ldr	r3, [r3]
 3519 000a 0393     		str	r3, [sp, #12]
 3520 000c 0023     		movs	r3, #0
 3521 000e 0293     		str	r3, [sp, #8]
 3522 0010 19E0     		b	.L210
 3523              	.L215:
 3524              		.loc 11 531 0
 3525 0012 039A     		ldr	r2, [sp, #12]
 3526 0014 009B     		ldr	r3, [sp]
 3527 0016 9A42     		cmp	r2, r3
 3528 0018 10D1     		bne	.L211
 3529              		.loc 11 532 0
 3530 001a 029B     		ldr	r3, [sp, #8]
 3531 001c 002B     		cmp	r3, #0
 3532 001e 04D0     		beq	.L212
 3533              		.loc 11 532 0 is_stmt 0 discriminator 1
 3534 0020 039B     		ldr	r3, [sp, #12]
ARM GAS  /tmp/cc9AvIGf.s 			page 64


 3535 0022 1A68     		ldr	r2, [r3]
 3536 0024 029B     		ldr	r3, [sp, #8]
 3537 0026 1A60     		str	r2, [r3]
 3538 0028 03E0     		b	.L213
 3539              	.L212:
 3540              		.loc 11 533 0 is_stmt 1
 3541 002a 039B     		ldr	r3, [sp, #12]
 3542 002c 1A68     		ldr	r2, [r3]
 3543 002e 019B     		ldr	r3, [sp, #4]
 3544 0030 1A60     		str	r2, [r3]
 3545              	.L213:
 3546              		.loc 11 534 0
 3547 0032 039B     		ldr	r3, [sp, #12]
 3548 0034 0022     		movs	r2, #0
 3549 0036 1A60     		str	r2, [r3]
 3550              		.loc 11 535 0
 3551 0038 0123     		movs	r3, #1
 3552 003a 08E0     		b	.L214
 3553              	.L211:
 3554              		.loc 11 528 0 discriminator 2
 3555 003c 039B     		ldr	r3, [sp, #12]
 3556 003e 0293     		str	r3, [sp, #8]
 3557 0040 039B     		ldr	r3, [sp, #12]
 3558 0042 1B68     		ldr	r3, [r3]
 3559 0044 0393     		str	r3, [sp, #12]
 3560              	.L210:
 3561              		.loc 11 528 0 is_stmt 0 discriminator 1
 3562 0046 039B     		ldr	r3, [sp, #12]
 3563 0048 002B     		cmp	r3, #0
 3564 004a E2D1     		bne	.L215
 3565              	.LBE56:
 3566              		.loc 11 538 0 is_stmt 1
 3567 004c 0023     		movs	r3, #0
 3568              	.L214:
 3569              	.LBE55:
 3570              		.loc 11 539 0
 3571 004e 1846     		mov	r0, r3
 3572 0050 04B0     		add	sp, sp, #16
 3573              		.cfi_def_cfa_offset 0
 3574              		@ sp needed
 3575 0052 7047     		bx	lr
 3576              		.cfi_endproc
 3577              	.LFE703:
 3578              		.size	_ZN3r2p10StaticListINS_15LocalSubscriberEE13unlink_unsafeERNS2_4LinkE, .-_ZN3r2p10StaticList
 3579              		.section	.text._ZN3r2p10StaticListINS_16RemoteSubscriberEE13unlink_unsafeERNS2_4LinkE,"axG",%progb
 3580              		.align	2
 3581              		.p2align 4,,15
 3582              		.weak	_ZN3r2p10StaticListINS_16RemoteSubscriberEE13unlink_unsafeERNS2_4LinkE
 3583              		.thumb
 3584              		.thumb_func
 3585              		.type	_ZN3r2p10StaticListINS_16RemoteSubscriberEE13unlink_unsafeERNS2_4LinkE, %function
 3586              	_ZN3r2p10StaticListINS_16RemoteSubscriberEE13unlink_unsafeERNS2_4LinkE:
 3587              	.LFB704:
 3588              		.loc 11 526 0
 3589              		.cfi_startproc
 3590              		@ args = 0, pretend = 0, frame = 16
 3591              		@ frame_needed = 0, uses_anonymous_args = 0
ARM GAS  /tmp/cc9AvIGf.s 			page 65


 3592              		@ link register save eliminated.
 3593 0000 84B0     		sub	sp, sp, #16
 3594              		.cfi_def_cfa_offset 16
 3595 0002 0190     		str	r0, [sp, #4]
 3596 0004 0091     		str	r1, [sp]
 3597              	.LBB57:
 3598              	.LBB58:
 3599              		.loc 11 528 0
 3600 0006 019B     		ldr	r3, [sp, #4]
 3601 0008 1B68     		ldr	r3, [r3]
 3602 000a 0393     		str	r3, [sp, #12]
 3603 000c 0023     		movs	r3, #0
 3604 000e 0293     		str	r3, [sp, #8]
 3605 0010 19E0     		b	.L217
 3606              	.L222:
 3607              		.loc 11 531 0
 3608 0012 039A     		ldr	r2, [sp, #12]
 3609 0014 009B     		ldr	r3, [sp]
 3610 0016 9A42     		cmp	r2, r3
 3611 0018 10D1     		bne	.L218
 3612              		.loc 11 532 0
 3613 001a 029B     		ldr	r3, [sp, #8]
 3614 001c 002B     		cmp	r3, #0
 3615 001e 04D0     		beq	.L219
 3616              		.loc 11 532 0 is_stmt 0 discriminator 1
 3617 0020 039B     		ldr	r3, [sp, #12]
 3618 0022 1A68     		ldr	r2, [r3]
 3619 0024 029B     		ldr	r3, [sp, #8]
 3620 0026 1A60     		str	r2, [r3]
 3621 0028 03E0     		b	.L220
 3622              	.L219:
 3623              		.loc 11 533 0 is_stmt 1
 3624 002a 039B     		ldr	r3, [sp, #12]
 3625 002c 1A68     		ldr	r2, [r3]
 3626 002e 019B     		ldr	r3, [sp, #4]
 3627 0030 1A60     		str	r2, [r3]
 3628              	.L220:
 3629              		.loc 11 534 0
 3630 0032 039B     		ldr	r3, [sp, #12]
 3631 0034 0022     		movs	r2, #0
 3632 0036 1A60     		str	r2, [r3]
 3633              		.loc 11 535 0
 3634 0038 0123     		movs	r3, #1
 3635 003a 08E0     		b	.L221
 3636              	.L218:
 3637              		.loc 11 528 0 discriminator 2
 3638 003c 039B     		ldr	r3, [sp, #12]
 3639 003e 0293     		str	r3, [sp, #8]
 3640 0040 039B     		ldr	r3, [sp, #12]
 3641 0042 1B68     		ldr	r3, [r3]
 3642 0044 0393     		str	r3, [sp, #12]
 3643              	.L217:
 3644              		.loc 11 528 0 is_stmt 0 discriminator 1
 3645 0046 039B     		ldr	r3, [sp, #12]
 3646 0048 002B     		cmp	r3, #0
 3647 004a E2D1     		bne	.L222
 3648              	.LBE58:
ARM GAS  /tmp/cc9AvIGf.s 			page 66


 3649              		.loc 11 538 0 is_stmt 1
 3650 004c 0023     		movs	r3, #0
 3651              	.L221:
 3652              	.LBE57:
 3653              		.loc 11 539 0
 3654 004e 1846     		mov	r0, r3
 3655 0050 04B0     		add	sp, sp, #16
 3656              		.cfi_def_cfa_offset 0
 3657              		@ sp needed
 3658 0052 7047     		bx	lr
 3659              		.cfi_endproc
 3660              	.LFE704:
 3661              		.size	_ZN3r2p10StaticListINS_16RemoteSubscriberEE13unlink_unsafeERNS2_4LinkE, .-_ZN3r2p10StaticLis
 3662              		.text
 3663              	.Letext0:
 3664              		.file 12 "/home/ergae/r2p-sdk/tools/gcc-arm-none-eabi-4_9-2014q4/lib/gcc/arm-none-eabi/4.9.3/inclu
 3665              		.file 13 "/home/ergae/r2p-sdk/tools/gcc-arm-none-eabi-4_9-2014q4/arm-none-eabi/include/machine/_de
 3666              		.file 14 "/home/ergae/r2p-sdk/tools/gcc-arm-none-eabi-4_9-2014q4/arm-none-eabi/include/c++/4.9.3/c
 3667              		.file 15 "/home/ergae/r2p-sdk/tools/gcc-arm-none-eabi-4_9-2014q4/arm-none-eabi/include/string.h"
 3668              		.file 16 "<built-in>"
 3669              		.file 17 "/home/ergae/r2p-sdk/core/Middleware/port/chibios/include/r2p/impl/Thread_.hpp"
 3670              		.file 18 "/home/ergae/r2p-sdk/core/Middleware/include/r2p/Thread.hpp"
 3671              		.file 19 "/home/ergae/r2p-sdk/core/Middleware/port/chibios/include/r2p/impl/SpinEvent_.hpp"
 3672              		.file 20 "/home/ergae/r2p-sdk/core/Middleware/include/r2p/SpinEvent.hpp"
 3673              		.file 21 "/home/ergae/r2p-sdk/core/Middleware/include/r2p/MgmtMsg.hpp"
 3674              		.file 22 "/home/ergae/r2p-sdk/core/Middleware/include/r2p/Node.hpp"
 3675              		.file 23 "/home/ergae/r2p-sdk/core/Middleware/port/chibios/include/r2p/impl/Mutex_.hpp"
 3676              		.file 24 "/home/ergae/r2p-sdk/core/Middleware/include/r2p/Mutex.hpp"
 3677              		.file 25 "/home/ergae/r2p-sdk/core/Middleware/include/r2p/ReMutex.hpp"
 3678              		.file 26 "/home/ergae/r2p-sdk/tools/gcc-arm-none-eabi-4_9-2014q4/arm-none-eabi/include/stdint.h"
 3679              		.file 27 "/home/ergae/r2p-sdk/core/ChibiOS/os/ports/GCC/ARMCMx/chtypes.h"
 3680              		.file 28 "/home/ergae/r2p-sdk/core/ChibiOS/os/kernel/include/chlists.h"
 3681              		.file 29 "/home/ergae/r2p-sdk/core/ChibiOS/os/kernel/include/chthreads.h"
 3682              		.file 30 "/home/ergae/r2p-sdk/core/ChibiOS/os/ports/GCC/ARMCMx/chcore_v7m.h"
 3683              		.file 31 "/home/ergae/r2p-sdk/core/ChibiOS/os/kernel/include/chschd.h"
 3684              		.file 32 "/home/ergae/r2p-sdk/core/ChibiOS/os/kernel/include/chmtx.h"
 3685              		.file 33 "/home/ergae/r2p-sdk/core/ChibiOS/os/kernel/include/chmemcore.h"
 3686              		.file 34 "/home/ergae/r2p-sdk/core/ChibiOS/os/kernel/include/chmempools.h"
 3687              		.file 35 "/home/ergae/r2p-sdk/core/Middleware/include/r2p/common.hpp"
 3688              		.file 36 "/home/ergae/r2p-sdk/core/ChibiOS/os/ports/common/ARMCMx/CMSIS/include/core_cm4.h"