ARM GAS  /tmp/cc9AvIGf.s 			page 1


   1              		.syntax unified
   2              		.cpu cortex-m4
   3              		.eabi_attribute 27, 3
   4              		.eabi_attribute 28, 1
   5              		.fpu fpv4-sp-d16
   6              		.eabi_attribute 20, 1
   7              		.eabi_attribute 21, 1
   8              		.eabi_attribute 23, 3
   9              		.eabi_attribute 24, 1
  10              		.eabi_attribute 25, 1
  11              		.eabi_attribute 26, 1
  12              		.eabi_attribute 30, 6
  13              		.eabi_attribute 34, 1
  14              		.eabi_attribute 18, 4
  15              		.thumb
  16              		.file	"Topic.cpp"
  17              		.text
  18              	.Ltext0:
  19              		.cfi_sections	.debug_frame
  20              		.section	.text._ZN3r2p10UncopyableC2Ev,"axG",%progbits,_ZN3r2p10UncopyableC5Ev,comdat
  21              		.align	2
  22              		.p2align 4,,15
  23              		.weak	_ZN3r2p10UncopyableC2Ev
  24              		.thumb
  25              		.thumb_func
  26              		.type	_ZN3r2p10UncopyableC2Ev, %function
  27              	_ZN3r2p10UncopyableC2Ev:
  28              	.LFB6:
  29              		.file 1 "/home/ergae/r2p-sdk/core/Middleware/include/r2p/Uncopyable.hpp"
  30              		.loc 1 20 0
  31              		.cfi_startproc
  32              		@ args = 0, pretend = 0, frame = 8
  33              		@ frame_needed = 0, uses_anonymous_args = 0
  34              		@ link register save eliminated.
  35 0000 82B0     		sub	sp, sp, #8
  36              		.cfi_def_cfa_offset 8
  37 0002 0190     		str	r0, [sp, #4]
  38              		.loc 1 20 0
  39 0004 019B     		ldr	r3, [sp, #4]
  40 0006 1846     		mov	r0, r3
  41 0008 02B0     		add	sp, sp, #8
  42              		.cfi_def_cfa_offset 0
  43              		@ sp needed
  44 000a 7047     		bx	lr
  45              		.cfi_endproc
  46              	.LFE6:
  47              		.size	_ZN3r2p10UncopyableC2Ev, .-_ZN3r2p10UncopyableC2Ev
  48              		.weak	_ZN3r2p10UncopyableC1Ev
  49              		.thumb_set _ZN3r2p10UncopyableC1Ev,_ZN3r2p10UncopyableC2Ev
  50 000c AFF30080 		.section	.text._ZN3r2p10UncopyableD2Ev,"axG",%progbits,_ZN3r2p10UncopyableD5Ev,comdat
  51              		.align	2
  52              		.p2align 4,,15
  53              		.weak	_ZN3r2p10UncopyableD2Ev
  54              		.thumb
  55              		.thumb_func
  56              		.type	_ZN3r2p10UncopyableD2Ev, %function
  57              	_ZN3r2p10UncopyableD2Ev:
ARM GAS  /tmp/cc9AvIGf.s 			page 2


  58              	.LFB9:
  59              		.loc 1 21 0
  60              		.cfi_startproc
  61              		@ args = 0, pretend = 0, frame = 8
  62              		@ frame_needed = 0, uses_anonymous_args = 0
  63              		@ link register save eliminated.
  64 0000 82B0     		sub	sp, sp, #8
  65              		.cfi_def_cfa_offset 8
  66 0002 0190     		str	r0, [sp, #4]
  67              		.loc 1 21 0
  68 0004 019B     		ldr	r3, [sp, #4]
  69 0006 1846     		mov	r0, r3
  70 0008 02B0     		add	sp, sp, #8
  71              		.cfi_def_cfa_offset 0
  72              		@ sp needed
  73 000a 7047     		bx	lr
  74              		.cfi_endproc
  75              	.LFE9:
  76              		.size	_ZN3r2p10UncopyableD2Ev, .-_ZN3r2p10UncopyableD2Ev
  77              		.weak	_ZN3r2p10UncopyableD1Ev
  78              		.thumb_set _ZN3r2p10UncopyableD1Ev,_ZN3r2p10UncopyableD2Ev
  79 000c AFF30080 		.section	.text._ZN3r2p8SysLock_7acquireEv,"axG",%progbits,_ZN3r2p8SysLock_7acquireEv,comdat
  80              		.align	2
  81              		.p2align 4,,15
  82              		.weak	_ZN3r2p8SysLock_7acquireEv
  83              		.thumb
  84              		.thumb_func
  85              		.type	_ZN3r2p8SysLock_7acquireEv, %function
  86              	_ZN3r2p8SysLock_7acquireEv:
  87              	.LFB18:
  88              		.file 2 "/home/ergae/r2p-sdk/core/Middleware/port/chibios/include/r2p/impl/SysLock_.hpp"
  89              		.loc 2 20 0
  90              		.cfi_startproc
  91              		@ args = 0, pretend = 0, frame = 0
  92              		@ frame_needed = 0, uses_anonymous_args = 0
  93 0000 08B5     		push	{r3, lr}
  94              		.cfi_def_cfa_offset 8
  95              		.cfi_offset 3, -8
  96              		.cfi_offset 14, -4
  97              	.LBB8:
  98              	.LBB9:
  99              	.LBB10:
 100              		.loc 2 22 0
 101 0002 2023     		movs	r3, #32
 102              	@ 22 "/home/ergae/r2p-sdk/core/Middleware/port/chibios/include/r2p/impl/SysLock_.hpp" 1
 103 0004 83F31188 		msr     BASEPRI, r3
 104              	@ 0 "" 2
 105              		.thumb
 106              	.LBE10:
 107 0008 FFF7FEFF 		bl	dbg_check_lock
 108              	.LBE9:
 109              	.LBE8:
 110              		.loc 2 23 0
 111 000c 08BD     		pop	{r3, pc}
 112              		.cfi_endproc
 113              	.LFE18:
 114              		.size	_ZN3r2p8SysLock_7acquireEv, .-_ZN3r2p8SysLock_7acquireEv
ARM GAS  /tmp/cc9AvIGf.s 			page 3


 115 000e 00BF     		.section	.text._ZN3r2p8SysLock_7releaseEv,"axG",%progbits,_ZN3r2p8SysLock_7releaseEv,comdat
 116              		.align	2
 117              		.p2align 4,,15
 118              		.weak	_ZN3r2p8SysLock_7releaseEv
 119              		.thumb
 120              		.thumb_func
 121              		.type	_ZN3r2p8SysLock_7releaseEv, %function
 122              	_ZN3r2p8SysLock_7releaseEv:
 123              	.LFB19:
 124              		.loc 2 27 0
 125              		.cfi_startproc
 126              		@ args = 0, pretend = 0, frame = 0
 127              		@ frame_needed = 0, uses_anonymous_args = 0
 128 0000 08B5     		push	{r3, lr}
 129              		.cfi_def_cfa_offset 8
 130              		.cfi_offset 3, -8
 131              		.cfi_offset 14, -4
 132              	.LBB11:
 133              	.LBB12:
 134              		.loc 2 29 0
 135 0002 FFF7FEFF 		bl	dbg_check_unlock
 136              	.LBB13:
 137 0006 0023     		movs	r3, #0
 138              	@ 29 "/home/ergae/r2p-sdk/core/Middleware/port/chibios/include/r2p/impl/SysLock_.hpp" 1
 139 0008 83F31188 		msr     BASEPRI, r3
 140              	@ 0 "" 2
 141              		.thumb
 142              	.LBE13:
 143              	.LBE12:
 144              	.LBE11:
 145              		.loc 2 30 0
 146 000c 08BD     		pop	{r3, pc}
 147              		.cfi_endproc
 148              	.LFE19:
 149              		.size	_ZN3r2p8SysLock_7releaseEv, .-_ZN3r2p8SysLock_7releaseEv
 150 000e 00BF     		.section	.text._ZN3r2p7SysLock5ScopeC2Ev,"axG",%progbits,_ZN3r2p7SysLock5ScopeC5Ev,comdat
 151              		.align	2
 152              		.p2align 4,,15
 153              		.weak	_ZN3r2p7SysLock5ScopeC2Ev
 154              		.thumb
 155              		.thumb_func
 156              		.type	_ZN3r2p7SysLock5ScopeC2Ev, %function
 157              	_ZN3r2p7SysLock5ScopeC2Ev:
 158              	.LFB21:
 159              		.file 3 "/home/ergae/r2p-sdk/core/Middleware/include/r2p/SysLock.hpp"
 160              		.loc 3 13 0
 161              		.cfi_startproc
 162              		@ args = 0, pretend = 0, frame = 8
 163              		@ frame_needed = 0, uses_anonymous_args = 0
 164 0000 00B5     		push	{lr}
 165              		.cfi_def_cfa_offset 4
 166              		.cfi_offset 14, -4
 167 0002 83B0     		sub	sp, sp, #12
 168              		.cfi_def_cfa_offset 16
 169 0004 0190     		str	r0, [sp, #4]
 170              	.LBB14:
 171              		.loc 3 13 0
ARM GAS  /tmp/cc9AvIGf.s 			page 4


 172 0006 0198     		ldr	r0, [sp, #4]
 173 0008 FFF7FEFF 		bl	_ZN3r2p10UncopyableC2Ev
 174 000c FFF7FEFF 		bl	_ZN3r2p7SysLock7acquireEv
 175              	.LBE14:
 176 0010 019B     		ldr	r3, [sp, #4]
 177 0012 1846     		mov	r0, r3
 178 0014 03B0     		add	sp, sp, #12
 179              		.cfi_def_cfa_offset 4
 180              		@ sp needed
 181 0016 5DF804FB 		ldr	pc, [sp], #4
 182              		.cfi_endproc
 183              	.LFE21:
 184              		.size	_ZN3r2p7SysLock5ScopeC2Ev, .-_ZN3r2p7SysLock5ScopeC2Ev
 185              		.weak	_ZN3r2p7SysLock5ScopeC1Ev
 186              		.thumb_set _ZN3r2p7SysLock5ScopeC1Ev,_ZN3r2p7SysLock5ScopeC2Ev
 187 001a 00BFAFF3 		.section	.text._ZN3r2p7SysLock5ScopeD2Ev,"axG",%progbits,_ZN3r2p7SysLock5ScopeD5Ev,comdat
 187      0080
 188              		.align	2
 189              		.p2align 4,,15
 190              		.weak	_ZN3r2p7SysLock5ScopeD2Ev
 191              		.thumb
 192              		.thumb_func
 193              		.type	_ZN3r2p7SysLock5ScopeD2Ev, %function
 194              	_ZN3r2p7SysLock5ScopeD2Ev:
 195              	.LFB24:
 196              		.loc 3 14 0
 197              		.cfi_startproc
 198              		@ args = 0, pretend = 0, frame = 8
 199              		@ frame_needed = 0, uses_anonymous_args = 0
 200 0000 00B5     		push	{lr}
 201              		.cfi_def_cfa_offset 4
 202              		.cfi_offset 14, -4
 203 0002 83B0     		sub	sp, sp, #12
 204              		.cfi_def_cfa_offset 16
 205 0004 0190     		str	r0, [sp, #4]
 206              	.LBB15:
 207              		.loc 3 14 0
 208 0006 FFF7FEFF 		bl	_ZN3r2p7SysLock7releaseEv
 209 000a 0198     		ldr	r0, [sp, #4]
 210 000c FFF7FEFF 		bl	_ZN3r2p10UncopyableD2Ev
 211              	.LBE15:
 212 0010 019B     		ldr	r3, [sp, #4]
 213 0012 1846     		mov	r0, r3
 214 0014 03B0     		add	sp, sp, #12
 215              		.cfi_def_cfa_offset 4
 216              		@ sp needed
 217 0016 5DF804FB 		ldr	pc, [sp], #4
 218              		.cfi_endproc
 219              	.LFE24:
 220              		.size	_ZN3r2p7SysLock5ScopeD2Ev, .-_ZN3r2p7SysLock5ScopeD2Ev
 221              		.weak	_ZN3r2p7SysLock5ScopeD1Ev
 222              		.thumb_set _ZN3r2p7SysLock5ScopeD1Ev,_ZN3r2p7SysLock5ScopeD2Ev
 223 001a 00BFAFF3 		.section	.text._ZN3r2p7SysLock7acquireEv,"axG",%progbits,_ZN3r2p7SysLock7acquireEv,comdat
 223      0080
 224              		.align	2
 225              		.p2align 4,,15
 226              		.weak	_ZN3r2p7SysLock7acquireEv
ARM GAS  /tmp/cc9AvIGf.s 			page 5


 227              		.thumb
 228              		.thumb_func
 229              		.type	_ZN3r2p7SysLock7acquireEv, %function
 230              	_ZN3r2p7SysLock7acquireEv:
 231              	.LFB26:
 232              		.loc 3 27 0
 233              		.cfi_startproc
 234              		@ args = 0, pretend = 0, frame = 0
 235              		@ frame_needed = 0, uses_anonymous_args = 0
 236 0000 08B5     		push	{r3, lr}
 237              		.cfi_def_cfa_offset 8
 238              		.cfi_offset 3, -8
 239              		.cfi_offset 14, -4
 240              		.loc 3 29 0
 241 0002 FFF7FEFF 		bl	_ZN3r2p8SysLock_7acquireEv
 242              		.loc 3 30 0
 243 0006 08BD     		pop	{r3, pc}
 244              		.cfi_endproc
 245              	.LFE26:
 246              		.size	_ZN3r2p7SysLock7acquireEv, .-_ZN3r2p7SysLock7acquireEv
 247              		.section	.text._ZN3r2p7SysLock7releaseEv,"axG",%progbits,_ZN3r2p7SysLock7releaseEv,comdat
 248              		.align	2
 249              		.p2align 4,,15
 250              		.weak	_ZN3r2p7SysLock7releaseEv
 251              		.thumb
 252              		.thumb_func
 253              		.type	_ZN3r2p7SysLock7releaseEv, %function
 254              	_ZN3r2p7SysLock7releaseEv:
 255              	.LFB27:
 256              		.loc 3 34 0
 257              		.cfi_startproc
 258              		@ args = 0, pretend = 0, frame = 0
 259              		@ frame_needed = 0, uses_anonymous_args = 0
 260 0000 08B5     		push	{r3, lr}
 261              		.cfi_def_cfa_offset 8
 262              		.cfi_offset 3, -8
 263              		.cfi_offset 14, -4
 264              		.loc 3 36 0
 265 0002 FFF7FEFF 		bl	_ZN3r2p8SysLock_7releaseEv
 266              		.loc 3 37 0
 267 0006 08BD     		pop	{r3, pc}
 268              		.cfi_endproc
 269              	.LFE27:
 270              		.size	_ZN3r2p7SysLock7releaseEv, .-_ZN3r2p7SysLock7releaseEv
 271              		.section	.text._ZNK3r2p11MemoryPool_13get_item_sizeEv,"axG",%progbits,_ZNK3r2p11MemoryPool_13get_i
 272              		.align	2
 273              		.p2align 4,,15
 274              		.weak	_ZNK3r2p11MemoryPool_13get_item_sizeEv
 275              		.thumb
 276              		.thumb_func
 277              		.type	_ZNK3r2p11MemoryPool_13get_item_sizeEv, %function
 278              	_ZNK3r2p11MemoryPool_13get_item_sizeEv:
 279              	.LFB36:
 280              		.file 4 "/home/ergae/r2p-sdk/core/Middleware/port/chibios/include/r2p/impl/MemoryPool_.hpp"
 281              		.loc 4 39 0
 282              		.cfi_startproc
 283              		@ args = 0, pretend = 0, frame = 8
ARM GAS  /tmp/cc9AvIGf.s 			page 6


 284              		@ frame_needed = 0, uses_anonymous_args = 0
 285              		@ link register save eliminated.
 286 0000 82B0     		sub	sp, sp, #8
 287              		.cfi_def_cfa_offset 8
 288 0002 0190     		str	r0, [sp, #4]
 289              		.loc 4 41 0
 290 0004 019B     		ldr	r3, [sp, #4]
 291 0006 5B68     		ldr	r3, [r3, #4]
 292              		.loc 4 42 0
 293 0008 1846     		mov	r0, r3
 294 000a 02B0     		add	sp, sp, #8
 295              		.cfi_def_cfa_offset 0
 296              		@ sp needed
 297 000c 7047     		bx	lr
 298              		.cfi_endproc
 299              	.LFE36:
 300              		.size	_ZNK3r2p11MemoryPool_13get_item_sizeEv, .-_ZNK3r2p11MemoryPool_13get_item_sizeEv
 301 000e 00BF     		.section	.text._ZN3r2p11MemoryPool_12alloc_unsafeEv,"axG",%progbits,_ZN3r2p11MemoryPool_12alloc_un
 302              		.align	2
 303              		.p2align 4,,15
 304              		.weak	_ZN3r2p11MemoryPool_12alloc_unsafeEv
 305              		.thumb
 306              		.thumb_func
 307              		.type	_ZN3r2p11MemoryPool_12alloc_unsafeEv, %function
 308              	_ZN3r2p11MemoryPool_12alloc_unsafeEv:
 309              	.LFB38:
 310              		.loc 4 53 0
 311              		.cfi_startproc
 312              		@ args = 0, pretend = 0, frame = 8
 313              		@ frame_needed = 0, uses_anonymous_args = 0
 314 0000 00B5     		push	{lr}
 315              		.cfi_def_cfa_offset 4
 316              		.cfi_offset 14, -4
 317 0002 83B0     		sub	sp, sp, #12
 318              		.cfi_def_cfa_offset 16
 319 0004 0190     		str	r0, [sp, #4]
 320              		.loc 4 55 0
 321 0006 019B     		ldr	r3, [sp, #4]
 322 0008 1846     		mov	r0, r3
 323 000a FFF7FEFF 		bl	chPoolAllocI
 324 000e 0346     		mov	r3, r0
 325              		.loc 4 56 0
 326 0010 1846     		mov	r0, r3
 327 0012 03B0     		add	sp, sp, #12
 328              		.cfi_def_cfa_offset 4
 329              		@ sp needed
 330 0014 5DF804FB 		ldr	pc, [sp], #4
 331              		.cfi_endproc
 332              	.LFE38:
 333              		.size	_ZN3r2p11MemoryPool_12alloc_unsafeEv, .-_ZN3r2p11MemoryPool_12alloc_unsafeEv
 334 0018 AFF30080 		.section	.text._ZN3r2p11MemoryPool_11free_unsafeEPv,"axG",%progbits,_ZN3r2p11MemoryPool_11free_uns
 334      AFF30080 
 335              		.align	2
 336              		.p2align 4,,15
 337              		.weak	_ZN3r2p11MemoryPool_11free_unsafeEPv
 338              		.thumb
 339              		.thumb_func
ARM GAS  /tmp/cc9AvIGf.s 			page 7


 340              		.type	_ZN3r2p11MemoryPool_11free_unsafeEPv, %function
 341              	_ZN3r2p11MemoryPool_11free_unsafeEPv:
 342              	.LFB39:
 343              		.loc 4 60 0
 344              		.cfi_startproc
 345              		@ args = 0, pretend = 0, frame = 8
 346              		@ frame_needed = 0, uses_anonymous_args = 0
 347 0000 00B5     		push	{lr}
 348              		.cfi_def_cfa_offset 4
 349              		.cfi_offset 14, -4
 350 0002 83B0     		sub	sp, sp, #12
 351              		.cfi_def_cfa_offset 16
 352 0004 0190     		str	r0, [sp, #4]
 353 0006 0091     		str	r1, [sp]
 354              		.loc 4 62 0
 355 0008 009B     		ldr	r3, [sp]
 356 000a 002B     		cmp	r3, #0
 357 000c 04D0     		beq	.L21
 358              		.loc 4 63 0
 359 000e 019B     		ldr	r3, [sp, #4]
 360 0010 1846     		mov	r0, r3
 361 0012 0099     		ldr	r1, [sp]
 362 0014 FFF7FEFF 		bl	chPoolFreeI
 363              	.L21:
 364              		.loc 4 65 0
 365 0018 03B0     		add	sp, sp, #12
 366              		.cfi_def_cfa_offset 4
 367              		@ sp needed
 368 001a 5DF804FB 		ldr	pc, [sp], #4
 369              		.cfi_endproc
 370              	.LFE39:
 371              		.size	_ZN3r2p11MemoryPool_11free_unsafeEPv, .-_ZN3r2p11MemoryPool_11free_unsafeEPv
 372 001e 00BF     		.section	.text._ZN3r2p11MemoryPool_4freeEPv,"axG",%progbits,_ZN3r2p11MemoryPool_4freeEPv,comdat
 373              		.align	2
 374              		.p2align 4,,15
 375              		.weak	_ZN3r2p11MemoryPool_4freeEPv
 376              		.thumb
 377              		.thumb_func
 378              		.type	_ZN3r2p11MemoryPool_4freeEPv, %function
 379              	_ZN3r2p11MemoryPool_4freeEPv:
 380              	.LFB41:
 381              		.loc 4 76 0
 382              		.cfi_startproc
 383              		@ args = 0, pretend = 0, frame = 8
 384              		@ frame_needed = 0, uses_anonymous_args = 0
 385 0000 00B5     		push	{lr}
 386              		.cfi_def_cfa_offset 4
 387              		.cfi_offset 14, -4
 388 0002 83B0     		sub	sp, sp, #12
 389              		.cfi_def_cfa_offset 16
 390 0004 0190     		str	r0, [sp, #4]
 391 0006 0091     		str	r1, [sp]
 392              		.loc 4 78 0
 393 0008 009B     		ldr	r3, [sp]
 394 000a 002B     		cmp	r3, #0
 395 000c 04D0     		beq	.L23
 396              		.loc 4 79 0
ARM GAS  /tmp/cc9AvIGf.s 			page 8


 397 000e 019B     		ldr	r3, [sp, #4]
 398 0010 1846     		mov	r0, r3
 399 0012 0099     		ldr	r1, [sp]
 400 0014 FFF7FEFF 		bl	chPoolFree
 401              	.L23:
 402              		.loc 4 81 0
 403 0018 03B0     		add	sp, sp, #12
 404              		.cfi_def_cfa_offset 4
 405              		@ sp needed
 406 001a 5DF804FB 		ldr	pc, [sp], #4
 407              		.cfi_endproc
 408              	.LFE41:
 409              		.size	_ZN3r2p11MemoryPool_4freeEPv, .-_ZN3r2p11MemoryPool_4freeEPv
 410 001e 00BF     		.section	.text._ZN3r2p11MemoryPool_C2Ej,"axG",%progbits,_ZN3r2p11MemoryPool_C5Ej,comdat
 411              		.align	2
 412              		.p2align 4,,15
 413              		.weak	_ZN3r2p11MemoryPool_C2Ej
 414              		.thumb
 415              		.thumb_func
 416              		.type	_ZN3r2p11MemoryPool_C2Ej, %function
 417              	_ZN3r2p11MemoryPool_C2Ej:
 418              	.LFB45:
 419              		.loc 4 99 0
 420              		.cfi_startproc
 421              		@ args = 0, pretend = 0, frame = 8
 422              		@ frame_needed = 0, uses_anonymous_args = 0
 423 0000 00B5     		push	{lr}
 424              		.cfi_def_cfa_offset 4
 425              		.cfi_offset 14, -4
 426 0002 83B0     		sub	sp, sp, #12
 427              		.cfi_def_cfa_offset 16
 428 0004 0190     		str	r0, [sp, #4]
 429 0006 0091     		str	r1, [sp]
 430              	.LBB16:
 431              		.loc 4 99 0
 432 0008 0198     		ldr	r0, [sp, #4]
 433 000a FFF7FEFF 		bl	_ZN3r2p10UncopyableC2Ev
 434              		.loc 4 101 0
 435 000e 019B     		ldr	r3, [sp, #4]
 436 0010 1846     		mov	r0, r3
 437 0012 0099     		ldr	r1, [sp]
 438 0014 0022     		movs	r2, #0
 439 0016 FFF7FEFF 		bl	chPoolInit
 440              	.LBE16:
 441              		.loc 4 102 0
 442 001a 019B     		ldr	r3, [sp, #4]
 443 001c 1846     		mov	r0, r3
 444 001e 03B0     		add	sp, sp, #12
 445              		.cfi_def_cfa_offset 4
 446              		@ sp needed
 447 0020 5DF804FB 		ldr	pc, [sp], #4
 448              		.cfi_endproc
 449              	.LFE45:
 450              		.size	_ZN3r2p11MemoryPool_C2Ej, .-_ZN3r2p11MemoryPool_C2Ej
 451              		.weak	_ZN3r2p11MemoryPool_C1Ej
 452              		.thumb_set _ZN3r2p11MemoryPool_C1Ej,_ZN3r2p11MemoryPool_C2Ej
 453 0024 AFF30080 		.section	.text._ZN3r2p4TimeaSERKS0_,"axG",%progbits,_ZN3r2p4TimeaSERKS0_,comdat
ARM GAS  /tmp/cc9AvIGf.s 			page 9


 453      AFF30080 
 453      AFF30080 
 454              		.align	2
 455              		.p2align 4,,15
 456              		.weak	_ZN3r2p4TimeaSERKS0_
 457              		.thumb
 458              		.thumb_func
 459              		.type	_ZN3r2p4TimeaSERKS0_, %function
 460              	_ZN3r2p4TimeaSERKS0_:
 461              	.LFB151:
 462              		.file 5 "/home/ergae/r2p-sdk/core/Middleware/include/r2p/Time.hpp"
 463              		.loc 5 131 0
 464              		.cfi_startproc
 465              		@ args = 0, pretend = 0, frame = 8
 466              		@ frame_needed = 0, uses_anonymous_args = 0
 467              		@ link register save eliminated.
 468 0000 82B0     		sub	sp, sp, #8
 469              		.cfi_def_cfa_offset 8
 470 0002 0190     		str	r0, [sp, #4]
 471 0004 0091     		str	r1, [sp]
 472              		.loc 5 133 0
 473 0006 009B     		ldr	r3, [sp]
 474 0008 1A68     		ldr	r2, [r3]
 475 000a 019B     		ldr	r3, [sp, #4]
 476 000c 1A60     		str	r2, [r3]
 477              		.loc 5 134 0
 478 000e 019B     		ldr	r3, [sp, #4]
 479              		.loc 5 135 0
 480 0010 1846     		mov	r0, r3
 481 0012 02B0     		add	sp, sp, #8
 482              		.cfi_def_cfa_offset 0
 483              		@ sp needed
 484 0014 7047     		bx	lr
 485              		.cfi_endproc
 486              	.LFE151:
 487              		.size	_ZN3r2p4TimeaSERKS0_, .-_ZN3r2p4TimeaSERKS0_
 488 0016 00BFAFF3 		.section	.text._ZN3r2p4TimeC2ERKS0_,"axG",%progbits,_ZN3r2p4TimeC5ERKS0_,comdat
 488      0080AFF3 
 488      0080
 489              		.align	2
 490              		.p2align 4,,15
 491              		.weak	_ZN3r2p4TimeC2ERKS0_
 492              		.thumb
 493              		.thumb_func
 494              		.type	_ZN3r2p4TimeC2ERKS0_, %function
 495              	_ZN3r2p4TimeC2ERKS0_:
 496              	.LFB162:
 497              		.loc 5 173 0
 498              		.cfi_startproc
 499              		@ args = 0, pretend = 0, frame = 8
 500              		@ frame_needed = 0, uses_anonymous_args = 0
 501              		@ link register save eliminated.
 502 0000 82B0     		sub	sp, sp, #8
 503              		.cfi_def_cfa_offset 8
 504 0002 0190     		str	r0, [sp, #4]
 505 0004 0091     		str	r1, [sp]
 506              	.LBB17:
ARM GAS  /tmp/cc9AvIGf.s 			page 10


 507              		.loc 5 173 0
 508 0006 009B     		ldr	r3, [sp]
 509 0008 1A68     		ldr	r2, [r3]
 510 000a 019B     		ldr	r3, [sp, #4]
 511 000c 1A60     		str	r2, [r3]
 512              	.LBE17:
 513 000e 019B     		ldr	r3, [sp, #4]
 514 0010 1846     		mov	r0, r3
 515 0012 02B0     		add	sp, sp, #8
 516              		.cfi_def_cfa_offset 0
 517              		@ sp needed
 518 0014 7047     		bx	lr
 519              		.cfi_endproc
 520              	.LFE162:
 521              		.size	_ZN3r2p4TimeC2ERKS0_, .-_ZN3r2p4TimeC2ERKS0_
 522              		.weak	_ZN3r2p4TimeC1ERKS0_
 523              		.thumb_set _ZN3r2p4TimeC1ERKS0_,_ZN3r2p4TimeC2ERKS0_
 524 0016 00BFAFF3 		.section	.text._ZN3r2pgtERKNS_4TimeES2_,"axG",%progbits,_ZN3r2pgtERKNS_4TimeES2_,comdat
 524      0080AFF3 
 524      0080
 525              		.align	2
 526              		.p2align 4,,15
 527              		.weak	_ZN3r2pgtERKNS_4TimeES2_
 528              		.thumb
 529              		.thumb_func
 530              		.type	_ZN3r2pgtERKNS_4TimeES2_, %function
 531              	_ZN3r2pgtERKNS_4TimeES2_:
 532              	.LFB171:
 533              		.loc 5 228 0
 534              		.cfi_startproc
 535              		@ args = 0, pretend = 0, frame = 8
 536              		@ frame_needed = 0, uses_anonymous_args = 0
 537              		@ link register save eliminated.
 538 0000 82B0     		sub	sp, sp, #8
 539              		.cfi_def_cfa_offset 8
 540 0002 0190     		str	r0, [sp, #4]
 541 0004 0091     		str	r1, [sp]
 542              		.loc 5 230 0
 543 0006 019B     		ldr	r3, [sp, #4]
 544 0008 1A68     		ldr	r2, [r3]
 545 000a 009B     		ldr	r3, [sp]
 546 000c 1B68     		ldr	r3, [r3]
 547 000e 9A42     		cmp	r2, r3
 548 0010 CCBF     		ite	gt
 549 0012 0123     		movgt	r3, #1
 550 0014 0023     		movle	r3, #0
 551 0016 DBB2     		uxtb	r3, r3
 552              		.loc 5 231 0
 553 0018 1846     		mov	r0, r3
 554 001a 02B0     		add	sp, sp, #8
 555              		.cfi_def_cfa_offset 0
 556              		@ sp needed
 557 001c 7047     		bx	lr
 558              		.cfi_endproc
 559              	.LFE171:
 560              		.size	_ZN3r2pgtERKNS_4TimeES2_, .-_ZN3r2pgtERKNS_4TimeES2_
 561 001e 00BF     		.section	.rodata
ARM GAS  /tmp/cc9AvIGf.s 			page 11


 562              		.align	2
 563              	.LC0:
 564 0000 5232505F 		.ascii	"R2P_ASSERT()\000"
 564      41535345 
 564      52542829 
 564      00
 565 000d 000000   		.section	.text._ZN3r2p7Message14acquire_unsafeEv,"axG",%progbits,_ZN3r2p7Message14acquire_unsafeEv
 566              		.align	2
 567              		.p2align 4,,15
 568              		.weak	_ZN3r2p7Message14acquire_unsafeEv
 569              		.thumb
 570              		.thumb_func
 571              		.type	_ZN3r2p7Message14acquire_unsafeEv, %function
 572              	_ZN3r2p7Message14acquire_unsafeEv:
 573              	.LFB179:
 574              		.file 6 "/home/ergae/r2p-sdk/core/Middleware/include/r2p/Message.hpp"
 575              		.loc 6 104 0
 576              		.cfi_startproc
 577              		@ args = 0, pretend = 0, frame = 8
 578              		@ frame_needed = 0, uses_anonymous_args = 0
 579 0000 00B5     		push	{lr}
 580              		.cfi_def_cfa_offset 4
 581              		.cfi_offset 14, -4
 582 0002 83B0     		sub	sp, sp, #12
 583              		.cfi_def_cfa_offset 16
 584 0004 0190     		str	r0, [sp, #4]
 585              		.loc 6 106 0
 586 0006 019B     		ldr	r3, [sp, #4]
 587 0008 1B88     		ldrh	r3, [r3]	@ unaligned
 588 000a 9BB2     		uxth	r3, r3
 589 000c 1A46     		mov	r2, r3
 590 000e 1023     		movs	r3, #16
 591 0010 013B     		subs	r3, r3, #1
 592 0012 1946     		mov	r1, r3
 593 0014 0123     		movs	r3, #1
 594 0016 8B40     		lsls	r3, r3, r1
 595 0018 013B     		subs	r3, r3, #1
 596 001a 9A42     		cmp	r2, r3
 597 001c 02DB     		blt	.L36
 598              		.loc 6 106 0 is_stmt 0 discriminator 1
 599 001e 0648     		ldr	r0, .L37
 600 0020 FFF7FEFF 		bl	chDbgPanic
 601              	.L36:
 602              		.loc 6 108 0 is_stmt 1
 603 0024 019B     		ldr	r3, [sp, #4]
 604 0026 1B88     		ldrh	r3, [r3]	@ unaligned
 605 0028 9BB2     		uxth	r3, r3
 606 002a 0133     		adds	r3, r3, #1
 607 002c 9AB2     		uxth	r2, r3
 608 002e 019B     		ldr	r3, [sp, #4]
 609 0030 1A80     		strh	r2, [r3]	@ unaligned
 610              		.loc 6 109 0
 611 0032 03B0     		add	sp, sp, #12
 612              		.cfi_def_cfa_offset 4
 613              		@ sp needed
 614 0034 5DF804FB 		ldr	pc, [sp], #4
 615              	.L38:
ARM GAS  /tmp/cc9AvIGf.s 			page 12


 616              		.align	2
 617              	.L37:
 618 0038 00000000 		.word	.LC0
 619              		.cfi_endproc
 620              	.LFE179:
 621              		.size	_ZN3r2p7Message14acquire_unsafeEv, .-_ZN3r2p7Message14acquire_unsafeEv
 622 003c AFF30080 		.section	.text._ZN3r2p7Message14release_unsafeEv,"axG",%progbits,_ZN3r2p7Message14release_unsafeEv
 623              		.align	2
 624              		.p2align 4,,15
 625              		.weak	_ZN3r2p7Message14release_unsafeEv
 626              		.thumb
 627              		.thumb_func
 628              		.type	_ZN3r2p7Message14release_unsafeEv, %function
 629              	_ZN3r2p7Message14release_unsafeEv:
 630              	.LFB180:
 631              		.loc 6 113 0
 632              		.cfi_startproc
 633              		@ args = 0, pretend = 0, frame = 8
 634              		@ frame_needed = 0, uses_anonymous_args = 0
 635 0000 00B5     		push	{lr}
 636              		.cfi_def_cfa_offset 4
 637              		.cfi_offset 14, -4
 638 0002 83B0     		sub	sp, sp, #12
 639              		.cfi_def_cfa_offset 16
 640 0004 0190     		str	r0, [sp, #4]
 641              		.loc 6 115 0
 642 0006 019B     		ldr	r3, [sp, #4]
 643 0008 1B88     		ldrh	r3, [r3]	@ unaligned
 644 000a 9BB2     		uxth	r3, r3
 645 000c 002B     		cmp	r3, #0
 646 000e 02D1     		bne	.L40
 647              		.loc 6 115 0 is_stmt 0 discriminator 1
 648 0010 0A48     		ldr	r0, .L42
 649 0012 FFF7FEFF 		bl	chDbgPanic
 650              	.L40:
 651              		.loc 6 117 0 is_stmt 1
 652 0016 019B     		ldr	r3, [sp, #4]
 653 0018 1B88     		ldrh	r3, [r3]	@ unaligned
 654 001a 9BB2     		uxth	r3, r3
 655 001c 013B     		subs	r3, r3, #1
 656 001e 9AB2     		uxth	r2, r3
 657 0020 019B     		ldr	r3, [sp, #4]
 658 0022 1A80     		strh	r2, [r3]	@ unaligned
 659 0024 019B     		ldr	r3, [sp, #4]
 660 0026 1B88     		ldrh	r3, [r3]	@ unaligned
 661 0028 9BB2     		uxth	r3, r3
 662 002a 002B     		cmp	r3, #0
 663 002c 14BF     		ite	ne
 664 002e 0123     		movne	r3, #1
 665 0030 0023     		moveq	r3, #0
 666 0032 DBB2     		uxtb	r3, r3
 667              		.loc 6 118 0
 668 0034 1846     		mov	r0, r3
 669 0036 03B0     		add	sp, sp, #12
 670              		.cfi_def_cfa_offset 4
 671              		@ sp needed
 672 0038 5DF804FB 		ldr	pc, [sp], #4
ARM GAS  /tmp/cc9AvIGf.s 			page 13


 673              	.L43:
 674              		.align	2
 675              	.L42:
 676 003c 00000000 		.word	.LC0
 677              		.cfi_endproc
 678              	.LFE180:
 679              		.size	_ZN3r2p7Message14release_unsafeEv, .-_ZN3r2p7Message14release_unsafeEv
 680              		.section	.text._ZN3r2p7Message12reset_unsafeEv,"axG",%progbits,_ZN3r2p7Message12reset_unsafeEv,com
 681              		.align	2
 682              		.p2align 4,,15
 683              		.weak	_ZN3r2p7Message12reset_unsafeEv
 684              		.thumb
 685              		.thumb_func
 686              		.type	_ZN3r2p7Message12reset_unsafeEv, %function
 687              	_ZN3r2p7Message12reset_unsafeEv:
 688              	.LFB181:
 689              		.loc 6 122 0
 690              		.cfi_startproc
 691              		@ args = 0, pretend = 0, frame = 8
 692              		@ frame_needed = 0, uses_anonymous_args = 0
 693              		@ link register save eliminated.
 694 0000 82B0     		sub	sp, sp, #8
 695              		.cfi_def_cfa_offset 8
 696 0002 0190     		str	r0, [sp, #4]
 697              		.loc 6 127 0
 698 0004 019B     		ldr	r3, [sp, #4]
 699 0006 0022     		movs	r2, #0
 700 0008 1A70     		strb	r2, [r3]
 701 000a 0022     		movs	r2, #0
 702 000c 5A70     		strb	r2, [r3, #1]
 703              		.loc 6 128 0
 704 000e 02B0     		add	sp, sp, #8
 705              		.cfi_def_cfa_offset 0
 706              		@ sp needed
 707 0010 7047     		bx	lr
 708              		.cfi_endproc
 709              	.LFE181:
 710              		.size	_ZN3r2p7Message12reset_unsafeEv, .-_ZN3r2p7Message12reset_unsafeEv
 711 0012 00BFAFF3 		.section	.text._ZNK3r2p16RemoteSubscriber13get_transportEv,"axG",%progbits,_ZNK3r2p16RemoteSubscri
 711      0080AFF3 
 711      0080AFF3 
 711      0080
 712              		.align	2
 713              		.p2align 4,,15
 714              		.weak	_ZNK3r2p16RemoteSubscriber13get_transportEv
 715              		.thumb
 716              		.thumb_func
 717              		.type	_ZNK3r2p16RemoteSubscriber13get_transportEv, %function
 718              	_ZNK3r2p16RemoteSubscriber13get_transportEv:
 719              	.LFB284:
 720              		.file 7 "/home/ergae/r2p-sdk/core/Middleware/include/r2p/RemoteSubscriber.hpp"
 721              		.loc 7 31 0
 722              		.cfi_startproc
 723              		@ args = 0, pretend = 0, frame = 8
 724              		@ frame_needed = 0, uses_anonymous_args = 0
 725              		@ link register save eliminated.
 726 0000 82B0     		sub	sp, sp, #8
ARM GAS  /tmp/cc9AvIGf.s 			page 14


 727              		.cfi_def_cfa_offset 8
 728 0002 0190     		str	r0, [sp, #4]
 729              		.loc 7 33 0
 730 0004 019B     		ldr	r3, [sp, #4]
 731 0006 9B68     		ldr	r3, [r3, #8]
 732              		.loc 7 34 0
 733 0008 1846     		mov	r0, r3
 734 000a 02B0     		add	sp, sp, #8
 735              		.cfi_def_cfa_offset 0
 736              		@ sp needed
 737 000c 7047     		bx	lr
 738              		.cfi_endproc
 739              	.LFE284:
 740              		.size	_ZNK3r2p16RemoteSubscriber13get_transportEv, .-_ZNK3r2p16RemoteSubscriber13get_transportEv
 741 000e 00BF     		.section	.text._ZNK3r2p5Topic13get_type_sizeEv,"axG",%progbits,_ZNK3r2p5Topic13get_type_sizeEv,com
 742              		.align	2
 743              		.p2align 4,,15
 744              		.weak	_ZNK3r2p5Topic13get_type_sizeEv
 745              		.thumb
 746              		.thumb_func
 747              		.type	_ZNK3r2p5Topic13get_type_sizeEv, %function
 748              	_ZNK3r2p5Topic13get_type_sizeEv:
 749              	.LFB287:
 750              		.file 8 "/home/ergae/r2p-sdk/core/Middleware/include/r2p/Topic.hpp"
 751              		.loc 8 145 0
 752              		.cfi_startproc
 753              		@ args = 0, pretend = 0, frame = 8
 754              		@ frame_needed = 0, uses_anonymous_args = 0
 755 0000 00B5     		push	{lr}
 756              		.cfi_def_cfa_offset 4
 757              		.cfi_offset 14, -4
 758 0002 83B0     		sub	sp, sp, #12
 759              		.cfi_def_cfa_offset 16
 760 0004 0190     		str	r0, [sp, #4]
 761              		.loc 8 147 0
 762 0006 019B     		ldr	r3, [sp, #4]
 763 0008 0833     		adds	r3, r3, #8
 764 000a 1846     		mov	r0, r3
 765 000c FFF7FEFF 		bl	_ZNK3r2p11MemoryPool_13get_item_sizeEv
 766 0010 0346     		mov	r3, r0
 767              		.loc 8 148 0
 768 0012 1846     		mov	r0, r3
 769 0014 03B0     		add	sp, sp, #12
 770              		.cfi_def_cfa_offset 4
 771              		@ sp needed
 772 0016 5DF804FB 		ldr	pc, [sp], #4
 773              		.cfi_endproc
 774              	.LFE287:
 775              		.size	_ZNK3r2p5Topic13get_type_sizeEv, .-_ZNK3r2p5Topic13get_type_sizeEv
 776 001a 00BFAFF3 		.section	.text._ZNK3r2p5Topic21has_local_subscribersEv,"axG",%progbits,_ZNK3r2p5Topic21has_local_s
 776      0080
 777              		.align	2
 778              		.p2align 4,,15
 779              		.weak	_ZNK3r2p5Topic21has_local_subscribersEv
 780              		.thumb
 781              		.thumb_func
 782              		.type	_ZNK3r2p5Topic21has_local_subscribersEv, %function
ARM GAS  /tmp/cc9AvIGf.s 			page 15


 783              	_ZNK3r2p5Topic21has_local_subscribersEv:
 784              	.LFB294:
 785              		.loc 8 198 0
 786              		.cfi_startproc
 787              		@ args = 0, pretend = 0, frame = 8
 788              		@ frame_needed = 0, uses_anonymous_args = 0
 789 0000 00B5     		push	{lr}
 790              		.cfi_def_cfa_offset 4
 791              		.cfi_offset 14, -4
 792 0002 83B0     		sub	sp, sp, #12
 793              		.cfi_def_cfa_offset 16
 794 0004 0190     		str	r0, [sp, #4]
 795              		.loc 8 200 0
 796 0006 019B     		ldr	r3, [sp, #4]
 797 0008 1C33     		adds	r3, r3, #28
 798 000a 1846     		mov	r0, r3
 799 000c FFF7FEFF 		bl	_ZNK3r2p10StaticListINS_15LocalSubscriberEE15is_empty_unsafeEv
 800 0010 0346     		mov	r3, r0
 801 0012 83F00103 		eor	r3, r3, #1
 802 0016 DBB2     		uxtb	r3, r3
 803              		.loc 8 201 0
 804 0018 1846     		mov	r0, r3
 805 001a 03B0     		add	sp, sp, #12
 806              		.cfi_def_cfa_offset 4
 807              		@ sp needed
 808 001c 5DF804FB 		ldr	pc, [sp], #4
 809              		.cfi_endproc
 810              	.LFE294:
 811              		.size	_ZNK3r2p5Topic21has_local_subscribersEv, .-_ZNK3r2p5Topic21has_local_subscribersEv
 812              		.section	.text._ZNK3r2p5Topic22has_remote_subscribersEv,"axG",%progbits,_ZNK3r2p5Topic22has_remote
 813              		.align	2
 814              		.p2align 4,,15
 815              		.weak	_ZNK3r2p5Topic22has_remote_subscribersEv
 816              		.thumb
 817              		.thumb_func
 818              		.type	_ZNK3r2p5Topic22has_remote_subscribersEv, %function
 819              	_ZNK3r2p5Topic22has_remote_subscribersEv:
 820              	.LFB295:
 821              		.loc 8 205 0
 822              		.cfi_startproc
 823              		@ args = 0, pretend = 0, frame = 8
 824              		@ frame_needed = 0, uses_anonymous_args = 0
 825 0000 00B5     		push	{lr}
 826              		.cfi_def_cfa_offset 4
 827              		.cfi_offset 14, -4
 828 0002 83B0     		sub	sp, sp, #12
 829              		.cfi_def_cfa_offset 16
 830 0004 0190     		str	r0, [sp, #4]
 831              		.loc 8 207 0
 832 0006 019B     		ldr	r3, [sp, #4]
 833 0008 2033     		adds	r3, r3, #32
 834 000a 1846     		mov	r0, r3
 835 000c FFF7FEFF 		bl	_ZNK3r2p10StaticListINS_16RemoteSubscriberEE15is_empty_unsafeEv
 836 0010 0346     		mov	r3, r0
 837 0012 83F00103 		eor	r3, r3, #1
 838 0016 DBB2     		uxtb	r3, r3
 839              		.loc 8 208 0
ARM GAS  /tmp/cc9AvIGf.s 			page 16


 840 0018 1846     		mov	r0, r3
 841 001a 03B0     		add	sp, sp, #12
 842              		.cfi_def_cfa_offset 4
 843              		@ sp needed
 844 001c 5DF804FB 		ldr	pc, [sp], #4
 845              		.cfi_endproc
 846              	.LFE295:
 847              		.size	_ZNK3r2p5Topic22has_remote_subscribersEv, .-_ZNK3r2p5Topic22has_remote_subscribersEv
 848              		.section	.text._ZN3r2p5Topic12alloc_unsafeEv,"axG",%progbits,_ZN3r2p5Topic12alloc_unsafeEv,comdat
 849              		.align	2
 850              		.p2align 4,,15
 851              		.weak	_ZN3r2p5Topic12alloc_unsafeEv
 852              		.thumb
 853              		.thumb_func
 854              		.type	_ZN3r2p5Topic12alloc_unsafeEv, %function
 855              	_ZN3r2p5Topic12alloc_unsafeEv:
 856              	.LFB301:
 857              		.loc 8 250 0
 858              		.cfi_startproc
 859              		@ args = 0, pretend = 0, frame = 8
 860              		@ frame_needed = 0, uses_anonymous_args = 0
 861 0000 10B5     		push	{r4, lr}
 862              		.cfi_def_cfa_offset 8
 863              		.cfi_offset 4, -8
 864              		.cfi_offset 14, -4
 865 0002 82B0     		sub	sp, sp, #8
 866              		.cfi_def_cfa_offset 16
 867 0004 0190     		str	r0, [sp, #4]
 868              	.LBB18:
 869              		.loc 8 252 0
 870 0006 019B     		ldr	r3, [sp, #4]
 871 0008 0833     		adds	r3, r3, #8
 872 000a 1846     		mov	r0, r3
 873 000c FFF7FEFF 		bl	_ZN3r2p11MemoryPool_12alloc_unsafeEv
 874 0010 0446     		mov	r4, r0
 875              		.loc 8 253 0
 876 0012 002C     		cmp	r4, #0
 877 0014 04D0     		beq	.L54
 878              		.loc 8 254 0
 879 0016 2046     		mov	r0, r4
 880 0018 FFF7FEFF 		bl	_ZN3r2p7Message12reset_unsafeEv
 881              		.loc 8 255 0
 882 001c 2346     		mov	r3, r4
 883 001e 00E0     		b	.L55
 884              	.L54:
 885              		.loc 8 257 0
 886 0020 0023     		movs	r3, #0
 887              	.L55:
 888              	.LBE18:
 889              		.loc 8 258 0
 890 0022 1846     		mov	r0, r3
 891 0024 02B0     		add	sp, sp, #8
 892              		.cfi_def_cfa_offset 8
 893              		@ sp needed
 894 0026 10BD     		pop	{r4, pc}
 895              		.cfi_endproc
 896              	.LFE301:
ARM GAS  /tmp/cc9AvIGf.s 			page 17


 897              		.size	_ZN3r2p5Topic12alloc_unsafeEv, .-_ZN3r2p5Topic12alloc_unsafeEv
 898 0028 AFF30080 		.section	.text._ZN3r2p5Topic11free_unsafeERNS_7MessageE,"axG",%progbits,_ZN3r2p5Topic11free_unsafe
 898      AFF30080 
 899              		.align	2
 900              		.p2align 4,,15
 901              		.weak	_ZN3r2p5Topic11free_unsafeERNS_7MessageE
 902              		.thumb
 903              		.thumb_func
 904              		.type	_ZN3r2p5Topic11free_unsafeERNS_7MessageE, %function
 905              	_ZN3r2p5Topic11free_unsafeERNS_7MessageE:
 906              	.LFB304:
 907              		.loc 8 281 0
 908              		.cfi_startproc
 909              		@ args = 0, pretend = 0, frame = 8
 910              		@ frame_needed = 0, uses_anonymous_args = 0
 911 0000 00B5     		push	{lr}
 912              		.cfi_def_cfa_offset 4
 913              		.cfi_offset 14, -4
 914 0002 83B0     		sub	sp, sp, #12
 915              		.cfi_def_cfa_offset 16
 916 0004 0190     		str	r0, [sp, #4]
 917 0006 0091     		str	r1, [sp]
 918              		.loc 8 283 0
 919 0008 019B     		ldr	r3, [sp, #4]
 920 000a 0833     		adds	r3, r3, #8
 921 000c 1846     		mov	r0, r3
 922 000e 0099     		ldr	r1, [sp]
 923 0010 FFF7FEFF 		bl	_ZN3r2p11MemoryPool_11free_unsafeEPv
 924              		.loc 8 284 0
 925 0014 03B0     		add	sp, sp, #12
 926              		.cfi_def_cfa_offset 4
 927              		@ sp needed
 928 0016 5DF804FB 		ldr	pc, [sp], #4
 929              		.cfi_endproc
 930              	.LFE304:
 931              		.size	_ZN3r2p5Topic11free_unsafeERNS_7MessageE, .-_ZN3r2p5Topic11free_unsafeERNS_7MessageE
 932 001a 00BFAFF3 		.section	.text._ZN3r2p5Topic4freeERNS_7MessageE,"axG",%progbits,_ZN3r2p5Topic4freeERNS_7MessageE,c
 932      0080
 933              		.align	2
 934              		.p2align 4,,15
 935              		.weak	_ZN3r2p5Topic4freeERNS_7MessageE
 936              		.thumb
 937              		.thumb_func
 938              		.type	_ZN3r2p5Topic4freeERNS_7MessageE, %function
 939              	_ZN3r2p5Topic4freeERNS_7MessageE:
 940              	.LFB309:
 941              		.loc 8 323 0
 942              		.cfi_startproc
 943              		@ args = 0, pretend = 0, frame = 8
 944              		@ frame_needed = 0, uses_anonymous_args = 0
 945 0000 00B5     		push	{lr}
 946              		.cfi_def_cfa_offset 4
 947              		.cfi_offset 14, -4
 948 0002 83B0     		sub	sp, sp, #12
 949              		.cfi_def_cfa_offset 16
 950 0004 0190     		str	r0, [sp, #4]
 951 0006 0091     		str	r1, [sp]
ARM GAS  /tmp/cc9AvIGf.s 			page 18


 952              		.loc 8 325 0
 953 0008 019B     		ldr	r3, [sp, #4]
 954 000a 0833     		adds	r3, r3, #8
 955 000c 1846     		mov	r0, r3
 956 000e 0099     		ldr	r1, [sp]
 957 0010 FFF7FEFF 		bl	_ZN3r2p11MemoryPool_4freeEPv
 958              		.loc 8 326 0
 959 0014 03B0     		add	sp, sp, #12
 960              		.cfi_def_cfa_offset 4
 961              		@ sp needed
 962 0016 5DF804FB 		ldr	pc, [sp], #4
 963              		.cfi_endproc
 964              	.LFE309:
 965              		.size	_ZN3r2p5Topic4freeERNS_7MessageE, .-_ZN3r2p5Topic4freeERNS_7MessageE
 966 001a 00BFAFF3 		.section	.text._ZN3r2p10Middleware14get_mgmt_topicEv,"axG",%progbits,_ZN3r2p10Middleware14get_mgmt
 966      0080
 967              		.align	2
 968              		.p2align 4,,15
 969              		.weak	_ZN3r2p10Middleware14get_mgmt_topicEv
 970              		.thumb
 971              		.thumb_func
 972              		.type	_ZN3r2p10Middleware14get_mgmt_topicEv, %function
 973              	_ZN3r2p10Middleware14get_mgmt_topicEv:
 974              	.LFB593:
 975              		.file 9 "/home/ergae/r2p-sdk/core/Middleware/include/r2p/Middleware.hpp"
 976              		.loc 9 198 0
 977              		.cfi_startproc
 978              		@ args = 0, pretend = 0, frame = 8
 979              		@ frame_needed = 0, uses_anonymous_args = 0
 980              		@ link register save eliminated.
 981 0000 82B0     		sub	sp, sp, #8
 982              		.cfi_def_cfa_offset 8
 983 0002 0190     		str	r0, [sp, #4]
 984              		.loc 9 200 0
 985 0004 019B     		ldr	r3, [sp, #4]
 986 0006 2833     		adds	r3, r3, #40
 987              		.loc 9 201 0
 988 0008 1846     		mov	r0, r3
 989 000a 02B0     		add	sp, sp, #8
 990              		.cfi_def_cfa_offset 0
 991              		@ sp needed
 992 000c 7047     		bx	lr
 993              		.cfi_endproc
 994              	.LFE593:
 995              		.size	_ZN3r2p10Middleware14get_mgmt_topicEv, .-_ZN3r2p10Middleware14get_mgmt_topicEv
 996 000e 00BF     		.section	.text._ZN3r2p5Topic20notify_locals_unsafeERNS_7MessageERKNS_4TimeE,"ax",%progbits
 997              		.align	2
 998              		.p2align 4,,15
 999              		.global	_ZN3r2p5Topic20notify_locals_unsafeERNS_7MessageERKNS_4TimeE
 1000              		.thumb
 1001              		.thumb_func
 1002              		.type	_ZN3r2p5Topic20notify_locals_unsafeERNS_7MessageERKNS_4TimeE, %function
 1003              	_ZN3r2p5Topic20notify_locals_unsafeERNS_7MessageERKNS_4TimeE:
 1004              	.LFB596:
 1005              		.file 10 "/home/ergae/r2p-sdk/core/Middleware/src/Topic.cpp"
 1006              		.loc 10 11 0
 1007              		.cfi_startproc
ARM GAS  /tmp/cc9AvIGf.s 			page 19


 1008              		@ args = 0, pretend = 0, frame = 24
 1009              		@ frame_needed = 0, uses_anonymous_args = 0
 1010 0000 00B5     		push	{lr}
 1011              		.cfi_def_cfa_offset 4
 1012              		.cfi_offset 14, -4
 1013 0002 87B0     		sub	sp, sp, #28
 1014              		.cfi_def_cfa_offset 32
 1015 0004 0390     		str	r0, [sp, #12]
 1016 0006 0291     		str	r1, [sp, #8]
 1017 0008 0192     		str	r2, [sp, #4]
 1018              	.LBB19:
 1019              	.LBB20:
 1020              		.loc 10 13 0
 1021 000a 0398     		ldr	r0, [sp, #12]
 1022 000c FFF7FEFF 		bl	_ZNK3r2p5Topic21has_local_subscribersEv
 1023 0010 0346     		mov	r3, r0
 1024 0012 002B     		cmp	r3, #0
 1025 0014 33D0     		beq	.L61
 1026              	.LBB21:
 1027              	.LBB22:
 1028              		.loc 10 15 0
 1029 0016 039B     		ldr	r3, [sp, #12]
 1030 0018 1C33     		adds	r3, r3, #28
 1031 001a 04AA     		add	r2, sp, #16
 1032 001c 1046     		mov	r0, r2
 1033 001e 1946     		mov	r1, r3
 1034 0020 FFF7FEFF 		bl	_ZN3r2p10StaticListINS_15LocalSubscriberEE12begin_unsafeEv
 1035              		.loc 10 14 0
 1036 0024 1BE0     		b	.L62
 1037              	.L64:
 1038              		.loc 10 17 0
 1039 0026 0298     		ldr	r0, [sp, #8]
 1040 0028 FFF7FEFF 		bl	_ZN3r2p7Message14acquire_unsafeEv
 1041              		.loc 10 18 0
 1042 002c 04AB     		add	r3, sp, #16
 1043 002e 1846     		mov	r0, r3
 1044 0030 FFF7FEFF 		bl	_ZNK3r2p10StaticListINS_15LocalSubscriberEE14IteratorUnsafeptEv
 1045 0034 0246     		mov	r2, r0
 1046 0036 1368     		ldr	r3, [r2]
 1047 0038 0433     		adds	r3, r3, #4
 1048 003a 1B68     		ldr	r3, [r3]
 1049 003c 1046     		mov	r0, r2
 1050 003e 0299     		ldr	r1, [sp, #8]
 1051 0040 019A     		ldr	r2, [sp, #4]
 1052 0042 9847     		blx	r3
 1053 0044 0346     		mov	r3, r0
 1054 0046 83F00103 		eor	r3, r3, #1
 1055 004a DBB2     		uxtb	r3, r3
 1056 004c 002B     		cmp	r3, #0
 1057 004e 02D0     		beq	.L63
 1058              		.loc 10 19 0
 1059 0050 0298     		ldr	r0, [sp, #8]
 1060 0052 FFF7FEFF 		bl	_ZN3r2p7Message14release_unsafeEv
 1061              	.L63:
 1062              		.loc 10 14 0
 1063 0056 04AB     		add	r3, sp, #16
 1064 0058 1846     		mov	r0, r3
ARM GAS  /tmp/cc9AvIGf.s 			page 20


 1065 005a FFF7FEFF 		bl	_ZN3r2p10StaticListINS_15LocalSubscriberEE14IteratorUnsafeppEv
 1066              	.L62:
 1067              		.loc 10 16 0 discriminator 1
 1068 005e 039B     		ldr	r3, [sp, #12]
 1069 0060 1C33     		adds	r3, r3, #28
 1070 0062 05AA     		add	r2, sp, #20
 1071 0064 1046     		mov	r0, r2
 1072 0066 1946     		mov	r1, r3
 1073 0068 FFF7FEFF 		bl	_ZN3r2p10StaticListINS_15LocalSubscriberEE10end_unsafeEv
 1074              		.loc 10 14 0 discriminator 1
 1075 006c 04AA     		add	r2, sp, #16
 1076 006e 05AB     		add	r3, sp, #20
 1077 0070 1046     		mov	r0, r2
 1078 0072 1946     		mov	r1, r3
 1079 0074 FFF7FEFF 		bl	_ZNK3r2p10StaticListINS_15LocalSubscriberEE14IteratorUnsafeneERKS3_
 1080 0078 0346     		mov	r3, r0
 1081 007a 002B     		cmp	r3, #0
 1082 007c D3D1     		bne	.L64
 1083              	.L61:
 1084              	.LBE22:
 1085              	.LBE21:
 1086              	.LBE20:
 1087              		.loc 10 24 0
 1088 007e 0123     		movs	r3, #1
 1089              	.LBE19:
 1090              		.loc 10 25 0
 1091 0080 1846     		mov	r0, r3
 1092 0082 07B0     		add	sp, sp, #28
 1093              		.cfi_def_cfa_offset 4
 1094              		@ sp needed
 1095 0084 5DF804FB 		ldr	pc, [sp], #4
 1096              		.cfi_endproc
 1097              	.LFE596:
 1098              		.size	_ZN3r2p5Topic20notify_locals_unsafeERNS_7MessageERKNS_4TimeE, .-_ZN3r2p5Topic20notify_locals
 1099 0088 AFF30080 		.section	.text._ZN3r2p5Topic21notify_remotes_unsafeERNS_7MessageERKNS_4TimeE,"ax",%progbits
 1099      AFF30080 
 1100              		.align	2
 1101              		.p2align 4,,15
 1102              		.global	_ZN3r2p5Topic21notify_remotes_unsafeERNS_7MessageERKNS_4TimeE
 1103              		.thumb
 1104              		.thumb_func
 1105              		.type	_ZN3r2p5Topic21notify_remotes_unsafeERNS_7MessageERKNS_4TimeE, %function
 1106              	_ZN3r2p5Topic21notify_remotes_unsafeERNS_7MessageERKNS_4TimeE:
 1107              	.LFB597:
 1108              		.loc 10 28 0
 1109              		.cfi_startproc
 1110              		@ args = 0, pretend = 0, frame = 24
 1111              		@ frame_needed = 0, uses_anonymous_args = 0
 1112 0000 00B5     		push	{lr}
 1113              		.cfi_def_cfa_offset 4
 1114              		.cfi_offset 14, -4
 1115 0002 87B0     		sub	sp, sp, #28
 1116              		.cfi_def_cfa_offset 32
 1117 0004 0390     		str	r0, [sp, #12]
 1118 0006 0291     		str	r1, [sp, #8]
 1119 0008 0192     		str	r2, [sp, #4]
 1120              	.LBB23:
ARM GAS  /tmp/cc9AvIGf.s 			page 21


 1121              	.LBB24:
 1122              		.loc 10 30 0
 1123 000a 0398     		ldr	r0, [sp, #12]
 1124 000c FFF7FEFF 		bl	_ZNK3r2p5Topic22has_remote_subscribersEv
 1125 0010 0346     		mov	r3, r0
 1126 0012 002B     		cmp	r3, #0
 1127 0014 34D0     		beq	.L67
 1128              	.LBB25:
 1129              	.LBB26:
 1130              		.loc 10 32 0
 1131 0016 039B     		ldr	r3, [sp, #12]
 1132 0018 2033     		adds	r3, r3, #32
 1133 001a 04AA     		add	r2, sp, #16
 1134 001c 1046     		mov	r0, r2
 1135 001e 1946     		mov	r1, r3
 1136 0020 FFF7FEFF 		bl	_ZN3r2p10StaticListINS_16RemoteSubscriberEE12begin_unsafeEv
 1137              		.loc 10 31 0
 1138 0024 1CE0     		b	.L68
 1139              	.L70:
 1140              		.loc 10 42 0
 1141 0026 0298     		ldr	r0, [sp, #8]
 1142 0028 FFF7FEFF 		bl	_ZN3r2p7Message14acquire_unsafeEv
 1143              		.loc 10 43 0
 1144 002c 04AB     		add	r3, sp, #16
 1145 002e 1846     		mov	r0, r3
 1146 0030 FFF7FEFF 		bl	_ZNK3r2p10StaticListINS_16RemoteSubscriberEE14IteratorUnsafeptEv
 1147 0034 0346     		mov	r3, r0
 1148 0036 1A46     		mov	r2, r3
 1149 0038 1368     		ldr	r3, [r2]
 1150 003a 0433     		adds	r3, r3, #4
 1151 003c 1B68     		ldr	r3, [r3]
 1152 003e 1046     		mov	r0, r2
 1153 0040 0299     		ldr	r1, [sp, #8]
 1154 0042 019A     		ldr	r2, [sp, #4]
 1155 0044 9847     		blx	r3
 1156 0046 0346     		mov	r3, r0
 1157 0048 83F00103 		eor	r3, r3, #1
 1158 004c DBB2     		uxtb	r3, r3
 1159 004e 002B     		cmp	r3, #0
 1160 0050 02D0     		beq	.L69
 1161              		.loc 10 44 0
 1162 0052 0298     		ldr	r0, [sp, #8]
 1163 0054 FFF7FEFF 		bl	_ZN3r2p7Message14release_unsafeEv
 1164              	.L69:
 1165              		.loc 10 31 0
 1166 0058 04AB     		add	r3, sp, #16
 1167 005a 1846     		mov	r0, r3
 1168 005c FFF7FEFF 		bl	_ZN3r2p10StaticListINS_16RemoteSubscriberEE14IteratorUnsafeppEv
 1169              	.L68:
 1170              		.loc 10 33 0 discriminator 1
 1171 0060 039B     		ldr	r3, [sp, #12]
 1172 0062 2033     		adds	r3, r3, #32
 1173 0064 05AA     		add	r2, sp, #20
 1174 0066 1046     		mov	r0, r2
 1175 0068 1946     		mov	r1, r3
 1176 006a FFF7FEFF 		bl	_ZN3r2p10StaticListINS_16RemoteSubscriberEE10end_unsafeEv
 1177              		.loc 10 31 0 discriminator 1
ARM GAS  /tmp/cc9AvIGf.s 			page 22


 1178 006e 04AA     		add	r2, sp, #16
 1179 0070 05AB     		add	r3, sp, #20
 1180 0072 1046     		mov	r0, r2
 1181 0074 1946     		mov	r1, r3
 1182 0076 FFF7FEFF 		bl	_ZNK3r2p10StaticListINS_16RemoteSubscriberEE14IteratorUnsafeneERKS3_
 1183 007a 0346     		mov	r3, r0
 1184 007c 002B     		cmp	r3, #0
 1185 007e D2D1     		bne	.L70
 1186              	.L67:
 1187              	.LBE26:
 1188              	.LBE25:
 1189              	.LBE24:
 1190              		.loc 10 49 0
 1191 0080 0123     		movs	r3, #1
 1192              	.LBE23:
 1193              		.loc 10 50 0
 1194 0082 1846     		mov	r0, r3
 1195 0084 07B0     		add	sp, sp, #28
 1196              		.cfi_def_cfa_offset 4
 1197              		@ sp needed
 1198 0086 5DF804FB 		ldr	pc, [sp], #4
 1199              		.cfi_endproc
 1200              	.LFE597:
 1201              		.size	_ZN3r2p5Topic21notify_remotes_unsafeERNS_7MessageERKNS_4TimeE, .-_ZN3r2p5Topic21notify_remot
 1202 008a 00BFAFF3 		.section	.text._ZN3r2p5Topic19forward_copy_unsafeERKNS_7MessageERKNS_4TimeE,"ax",%progbits
 1202      0080
 1203              		.align	2
 1204              		.p2align 4,,15
 1205              		.global	_ZN3r2p5Topic19forward_copy_unsafeERKNS_7MessageERKNS_4TimeE
 1206              		.thumb
 1207              		.thumb_func
 1208              		.type	_ZN3r2p5Topic19forward_copy_unsafeERKNS_7MessageERKNS_4TimeE, %function
 1209              	_ZN3r2p5Topic19forward_copy_unsafeERKNS_7MessageERKNS_4TimeE:
 1210              	.LFB598:
 1211              		.loc 10 53 0
 1212              		.cfi_startproc
 1213              		@ args = 0, pretend = 0, frame = 32
 1214              		@ frame_needed = 0, uses_anonymous_args = 0
 1215 0000 10B5     		push	{r4, lr}
 1216              		.cfi_def_cfa_offset 8
 1217              		.cfi_offset 4, -8
 1218              		.cfi_offset 14, -4
 1219 0002 88B0     		sub	sp, sp, #32
 1220              		.cfi_def_cfa_offset 40
 1221 0004 0390     		str	r0, [sp, #12]
 1222 0006 0291     		str	r1, [sp, #8]
 1223 0008 0192     		str	r2, [sp, #4]
 1224              	.LBB27:
 1225              		.loc 10 55 0
 1226 000a 0123     		movs	r3, #1
 1227 000c 8DF81F30 		strb	r3, [sp, #31]
 1228              	.LBB28:
 1229              		.loc 10 58 0
 1230 0010 039B     		ldr	r3, [sp, #12]
 1231 0012 2033     		adds	r3, r3, #32
 1232 0014 05AA     		add	r2, sp, #20
 1233 0016 1046     		mov	r0, r2
ARM GAS  /tmp/cc9AvIGf.s 			page 23


 1234 0018 1946     		mov	r1, r3
 1235 001a FFF7FEFF 		bl	_ZN3r2p10StaticListINS_16RemoteSubscriberEE12begin_unsafeEv
 1236              		.loc 10 57 0
 1237 001e 47E0     		b	.L73
 1238              	.L76:
 1239              	.LBB29:
 1240              		.loc 10 69 0
 1241 0020 04AB     		add	r3, sp, #16
 1242 0022 0398     		ldr	r0, [sp, #12]
 1243 0024 1946     		mov	r1, r3
 1244 0026 FFF7FEFF 		bl	_ZN3r2p5Topic12alloc_unsafeINS_7MessageEEEbRPT_
 1245 002a 0346     		mov	r3, r0
 1246 002c 002B     		cmp	r3, #0
 1247 002e 38D0     		beq	.L74
 1248              		.loc 10 70 0
 1249 0030 049C     		ldr	r4, [sp, #16]
 1250 0032 0398     		ldr	r0, [sp, #12]
 1251 0034 FFF7FEFF 		bl	_ZNK3r2p5Topic13get_type_sizeEv
 1252 0038 0346     		mov	r3, r0
 1253 003a 2046     		mov	r0, r4
 1254 003c 0299     		ldr	r1, [sp, #8]
 1255 003e 1A46     		mov	r2, r3
 1256 0040 FFF7FEFF 		bl	_ZN3r2p7Message4copyERS0_RKS0_j
 1257              		.loc 10 71 0
 1258 0044 049C     		ldr	r4, [sp, #16]
 1259 0046 05AB     		add	r3, sp, #20
 1260 0048 1846     		mov	r0, r3
 1261 004a FFF7FEFF 		bl	_ZNK3r2p10StaticListINS_16RemoteSubscriberEE14IteratorUnsafeptEv
 1262 004e 0346     		mov	r3, r0
 1263 0050 1846     		mov	r0, r3
 1264 0052 FFF7FEFF 		bl	_ZNK3r2p16RemoteSubscriber13get_transportEv
 1265 0056 0346     		mov	r3, r0
 1266 0058 0398     		ldr	r0, [sp, #12]
 1267 005a 2146     		mov	r1, r4
 1268 005c 1A46     		mov	r2, r3
 1269 005e FFF7FEFF 		bl	_ZNK3r2p5Topic16patch_pubsub_msgERNS_7MessageERNS_9TransportE
 1270              		.loc 10 72 0
 1271 0062 049B     		ldr	r3, [sp, #16]
 1272 0064 1846     		mov	r0, r3
 1273 0066 FFF7FEFF 		bl	_ZN3r2p7Message14acquire_unsafeEv
 1274              		.loc 10 73 0
 1275 006a 05AB     		add	r3, sp, #20
 1276 006c 1846     		mov	r0, r3
 1277 006e FFF7FEFF 		bl	_ZNK3r2p10StaticListINS_16RemoteSubscriberEE14IteratorUnsafeptEv
 1278 0072 0346     		mov	r3, r0
 1279 0074 1A46     		mov	r2, r3
 1280 0076 1368     		ldr	r3, [r2]
 1281 0078 0433     		adds	r3, r3, #4
 1282 007a 1B68     		ldr	r3, [r3]
 1283 007c 0499     		ldr	r1, [sp, #16]
 1284 007e 1046     		mov	r0, r2
 1285 0080 019A     		ldr	r2, [sp, #4]
 1286 0082 9847     		blx	r3
 1287 0084 0346     		mov	r3, r0
 1288 0086 83F00103 		eor	r3, r3, #1
 1289 008a DBB2     		uxtb	r3, r3
 1290 008c 002B     		cmp	r3, #0
ARM GAS  /tmp/cc9AvIGf.s 			page 24


 1291 008e 0BD0     		beq	.L75
 1292              		.loc 10 74 0
 1293 0090 049B     		ldr	r3, [sp, #16]
 1294 0092 0398     		ldr	r0, [sp, #12]
 1295 0094 1946     		mov	r1, r3
 1296 0096 FFF7FEFF 		bl	_ZN3r2p5Topic11free_unsafeERNS_7MessageE
 1297              		.loc 10 75 0
 1298 009a 0023     		movs	r3, #0
 1299 009c 8DF81F30 		strb	r3, [sp, #31]
 1300 00a0 02E0     		b	.L75
 1301              	.L74:
 1302              		.loc 10 78 0
 1303 00a2 0023     		movs	r3, #0
 1304 00a4 8DF81F30 		strb	r3, [sp, #31]
 1305              	.L75:
 1306              	.LBE29:
 1307              		.loc 10 57 0 discriminator 1
 1308 00a8 05AB     		add	r3, sp, #20
 1309 00aa 1846     		mov	r0, r3
 1310 00ac FFF7FEFF 		bl	_ZN3r2p10StaticListINS_16RemoteSubscriberEE14IteratorUnsafeppEv
 1311              	.L73:
 1312              		.loc 10 59 0 discriminator 1
 1313 00b0 039B     		ldr	r3, [sp, #12]
 1314 00b2 2033     		adds	r3, r3, #32
 1315 00b4 06AA     		add	r2, sp, #24
 1316 00b6 1046     		mov	r0, r2
 1317 00b8 1946     		mov	r1, r3
 1318 00ba FFF7FEFF 		bl	_ZN3r2p10StaticListINS_16RemoteSubscriberEE10end_unsafeEv
 1319              		.loc 10 57 0 discriminator 1
 1320 00be 05AA     		add	r2, sp, #20
 1321 00c0 06AB     		add	r3, sp, #24
 1322 00c2 1046     		mov	r0, r2
 1323 00c4 1946     		mov	r1, r3
 1324 00c6 FFF7FEFF 		bl	_ZNK3r2p10StaticListINS_16RemoteSubscriberEE14IteratorUnsafeneERKS3_
 1325 00ca 0346     		mov	r3, r0
 1326 00cc 002B     		cmp	r3, #0
 1327 00ce A7D1     		bne	.L76
 1328              	.LBE28:
 1329              		.loc 10 82 0
 1330 00d0 9DF81F30 		ldrb	r3, [sp, #31]	@ zero_extendqisi2
 1331              	.LBE27:
 1332              		.loc 10 83 0
 1333 00d4 1846     		mov	r0, r3
 1334 00d6 08B0     		add	sp, sp, #32
 1335              		.cfi_def_cfa_offset 8
 1336              		@ sp needed
 1337 00d8 10BD     		pop	{r4, pc}
 1338              		.cfi_endproc
 1339              	.LFE598:
 1340              		.size	_ZN3r2p5Topic19forward_copy_unsafeERKNS_7MessageERKNS_4TimeE, .-_ZN3r2p5Topic19forward_copy_
 1341 00da 00BFAFF3 		.section	.text._ZN3r2p5Topic5allocEv,"ax",%progbits
 1341      0080
 1342              		.align	2
 1343              		.p2align 4,,15
 1344              		.global	_ZN3r2p5Topic5allocEv
 1345              		.thumb
 1346              		.thumb_func
ARM GAS  /tmp/cc9AvIGf.s 			page 25


 1347              		.type	_ZN3r2p5Topic5allocEv, %function
 1348              	_ZN3r2p5Topic5allocEv:
 1349              	.LFB599:
 1350              		.loc 10 86 0
 1351              		.cfi_startproc
 1352              		@ args = 0, pretend = 0, frame = 16
 1353              		@ frame_needed = 0, uses_anonymous_args = 0
 1354 0000 00B5     		push	{lr}
 1355              		.cfi_def_cfa_offset 4
 1356              		.cfi_offset 14, -4
 1357 0002 85B0     		sub	sp, sp, #20
 1358              		.cfi_def_cfa_offset 24
 1359 0004 0190     		str	r0, [sp, #4]
 1360              	.LBB30:
 1361              		.loc 10 88 0
 1362 0006 FFF7FEFF 		bl	_ZN3r2p7SysLock7acquireEv
 1363              		.loc 10 89 0
 1364 000a 0198     		ldr	r0, [sp, #4]
 1365 000c FFF7FEFF 		bl	_ZN3r2p5Topic12alloc_unsafeEv
 1366 0010 0390     		str	r0, [sp, #12]
 1367              		.loc 10 90 0
 1368 0012 FFF7FEFF 		bl	_ZN3r2p7SysLock7releaseEv
 1369              		.loc 10 91 0
 1370 0016 039B     		ldr	r3, [sp, #12]
 1371              	.LBE30:
 1372              		.loc 10 92 0
 1373 0018 1846     		mov	r0, r3
 1374 001a 05B0     		add	sp, sp, #20
 1375              		.cfi_def_cfa_offset 4
 1376              		@ sp needed
 1377 001c 5DF804FB 		ldr	pc, [sp], #4
 1378              		.cfi_endproc
 1379              	.LFE599:
 1380              		.size	_ZN3r2p5Topic5allocEv, .-_ZN3r2p5Topic5allocEv
 1381              		.section	.text._ZN3r2p5Topic13notify_localsERNS_7MessageERKNS_4TimeE,"ax",%progbits
 1382              		.align	2
 1383              		.p2align 4,,15
 1384              		.global	_ZN3r2p5Topic13notify_localsERNS_7MessageERKNS_4TimeE
 1385              		.thumb
 1386              		.thumb_func
 1387              		.type	_ZN3r2p5Topic13notify_localsERNS_7MessageERKNS_4TimeE, %function
 1388              	_ZN3r2p5Topic13notify_localsERNS_7MessageERKNS_4TimeE:
 1389              	.LFB600:
 1390              		.loc 10 95 0
 1391              		.cfi_startproc
 1392              		@ args = 0, pretend = 0, frame = 24
 1393              		@ frame_needed = 0, uses_anonymous_args = 0
 1394 0000 00B5     		push	{lr}
 1395              		.cfi_def_cfa_offset 4
 1396              		.cfi_offset 14, -4
 1397 0002 87B0     		sub	sp, sp, #28
 1398              		.cfi_def_cfa_offset 32
 1399 0004 0390     		str	r0, [sp, #12]
 1400 0006 0291     		str	r1, [sp, #8]
 1401 0008 0192     		str	r2, [sp, #4]
 1402              	.LBB31:
 1403              	.LBB32:
ARM GAS  /tmp/cc9AvIGf.s 			page 26


 1404              		.loc 10 97 0
 1405 000a 0398     		ldr	r0, [sp, #12]
 1406 000c FFF7FEFF 		bl	_ZNK3r2p5Topic21has_local_subscribersEv
 1407 0010 0346     		mov	r3, r0
 1408 0012 002B     		cmp	r3, #0
 1409 0014 33D0     		beq	.L81
 1410              	.LBB33:
 1411              	.LBB34:
 1412              		.loc 10 98 0
 1413 0016 039B     		ldr	r3, [sp, #12]
 1414 0018 1C33     		adds	r3, r3, #28
 1415 001a 04AA     		add	r2, sp, #16
 1416 001c 1046     		mov	r0, r2
 1417 001e 1946     		mov	r1, r3
 1418 0020 FFF7FEFF 		bl	_ZN3r2p10StaticListINS_15LocalSubscriberEE5beginEv
 1419 0024 1BE0     		b	.L82
 1420              	.L84:
 1421              		.loc 10 100 0
 1422 0026 0298     		ldr	r0, [sp, #8]
 1423 0028 FFF7FEFF 		bl	_ZN3r2p7Message7acquireEv
 1424              		.loc 10 101 0
 1425 002c 04AB     		add	r3, sp, #16
 1426 002e 1846     		mov	r0, r3
 1427 0030 FFF7FEFF 		bl	_ZNK3r2p10StaticListINS_15LocalSubscriberEE8IteratorptEv
 1428 0034 0246     		mov	r2, r0
 1429 0036 1368     		ldr	r3, [r2]
 1430 0038 0C33     		adds	r3, r3, #12
 1431 003a 1B68     		ldr	r3, [r3]
 1432 003c 1046     		mov	r0, r2
 1433 003e 0299     		ldr	r1, [sp, #8]
 1434 0040 019A     		ldr	r2, [sp, #4]
 1435 0042 9847     		blx	r3
 1436 0044 0346     		mov	r3, r0
 1437 0046 83F00103 		eor	r3, r3, #1
 1438 004a DBB2     		uxtb	r3, r3
 1439 004c 002B     		cmp	r3, #0
 1440 004e 02D0     		beq	.L83
 1441              		.loc 10 102 0
 1442 0050 0298     		ldr	r0, [sp, #8]
 1443 0052 FFF7FEFF 		bl	_ZN3r2p7Message7releaseEv
 1444              	.L83:
 1445              		.loc 10 98 0 discriminator 2
 1446 0056 04AB     		add	r3, sp, #16
 1447 0058 1846     		mov	r0, r3
 1448 005a FFF7FEFF 		bl	_ZN3r2p10StaticListINS_15LocalSubscriberEE8IteratorppEv
 1449              	.L82:
 1450              		.loc 10 99 0 discriminator 1
 1451 005e 039B     		ldr	r3, [sp, #12]
 1452 0060 1C33     		adds	r3, r3, #28
 1453 0062 05AA     		add	r2, sp, #20
 1454 0064 1046     		mov	r0, r2
 1455 0066 1946     		mov	r1, r3
 1456 0068 FFF7FEFF 		bl	_ZN3r2p10StaticListINS_15LocalSubscriberEE3endEv
 1457              		.loc 10 98 0 discriminator 1
 1458 006c 04AA     		add	r2, sp, #16
 1459 006e 05AB     		add	r3, sp, #20
 1460 0070 1046     		mov	r0, r2
ARM GAS  /tmp/cc9AvIGf.s 			page 27


 1461 0072 1946     		mov	r1, r3
 1462 0074 FFF7FEFF 		bl	_ZNK3r2p10StaticListINS_15LocalSubscriberEE8IteratorneERKS3_
 1463 0078 0346     		mov	r3, r0
 1464 007a 002B     		cmp	r3, #0
 1465 007c D3D1     		bne	.L84
 1466              	.L81:
 1467              	.LBE34:
 1468              	.LBE33:
 1469              	.LBE32:
 1470              		.loc 10 107 0
 1471 007e 0123     		movs	r3, #1
 1472              	.LBE31:
 1473              		.loc 10 108 0
 1474 0080 1846     		mov	r0, r3
 1475 0082 07B0     		add	sp, sp, #28
 1476              		.cfi_def_cfa_offset 4
 1477              		@ sp needed
 1478 0084 5DF804FB 		ldr	pc, [sp], #4
 1479              		.cfi_endproc
 1480              	.LFE600:
 1481              		.size	_ZN3r2p5Topic13notify_localsERNS_7MessageERKNS_4TimeE, .-_ZN3r2p5Topic13notify_localsERNS_7M
 1482 0088 AFF30080 		.section	.text._ZN3r2p5Topic14notify_remotesERNS_7MessageERKNS_4TimeE,"ax",%progbits
 1482      AFF30080 
 1483              		.align	2
 1484              		.p2align 4,,15
 1485              		.global	_ZN3r2p5Topic14notify_remotesERNS_7MessageERKNS_4TimeE
 1486              		.thumb
 1487              		.thumb_func
 1488              		.type	_ZN3r2p5Topic14notify_remotesERNS_7MessageERKNS_4TimeE, %function
 1489              	_ZN3r2p5Topic14notify_remotesERNS_7MessageERKNS_4TimeE:
 1490              	.LFB601:
 1491              		.loc 10 111 0
 1492              		.cfi_startproc
 1493              		@ args = 0, pretend = 0, frame = 32
 1494              		@ frame_needed = 0, uses_anonymous_args = 0
 1495 0000 30B5     		push	{r4, r5, lr}
 1496              		.cfi_def_cfa_offset 12
 1497              		.cfi_offset 4, -12
 1498              		.cfi_offset 5, -8
 1499              		.cfi_offset 14, -4
 1500 0002 89B0     		sub	sp, sp, #36
 1501              		.cfi_def_cfa_offset 48
 1502 0004 0390     		str	r0, [sp, #12]
 1503 0006 0291     		str	r1, [sp, #8]
 1504 0008 0192     		str	r2, [sp, #4]
 1505              	.LBB35:
 1506              	.LBB36:
 1507              		.loc 10 113 0
 1508 000a 06AB     		add	r3, sp, #24
 1509 000c 1846     		mov	r0, r3
 1510 000e FFF7FEFF 		bl	_ZN3r2p7SysLock5ScopeC1Ev
 1511              		.loc 10 114 0
 1512 0012 0398     		ldr	r0, [sp, #12]
 1513 0014 FFF7FEFF 		bl	_ZNK3r2p5Topic22has_remote_subscribersEv
 1514 0018 0346     		mov	r3, r0
 1515 001a 83F00103 		eor	r3, r3, #1
 1516 001e DBB2     		uxtb	r3, r3
ARM GAS  /tmp/cc9AvIGf.s 			page 28


 1517 0020 002B     		cmp	r3, #0
 1518 0022 02D0     		beq	.L87
 1519              		.loc 10 114 0 is_stmt 0 discriminator 1
 1520 0024 0125     		movs	r5, #1
 1521 0026 0024     		movs	r4, #0
 1522 0028 00E0     		b	.L88
 1523              	.L87:
 1524 002a 0124     		movs	r4, #1
 1525              	.L88:
 1526 002c 06AB     		add	r3, sp, #24
 1527 002e 1846     		mov	r0, r3
 1528 0030 FFF7FEFF 		bl	_ZN3r2p7SysLock5ScopeD1Ev
 1529 0034 012C     		cmp	r4, #1
 1530 0036 36D1     		bne	.L92
 1531              		.loc 10 114 0
 1532 0038 00BF     		nop
 1533              	.LBE36:
 1534              	.LBB37:
 1535              		.loc 10 116 0 is_stmt 1
 1536 003a 039B     		ldr	r3, [sp, #12]
 1537 003c 2033     		adds	r3, r3, #32
 1538 003e 05AA     		add	r2, sp, #20
 1539 0040 1046     		mov	r0, r2
 1540 0042 1946     		mov	r1, r3
 1541 0044 FFF7FEFF 		bl	_ZN3r2p10StaticListINS_16RemoteSubscriberEE5beginEv
 1542 0048 1CE0     		b	.L91
 1543              	.L94:
 1544              		.loc 10 127 0
 1545 004a 0298     		ldr	r0, [sp, #8]
 1546 004c FFF7FEFF 		bl	_ZN3r2p7Message7acquireEv
 1547              		.loc 10 128 0
 1548 0050 05AB     		add	r3, sp, #20
 1549 0052 1846     		mov	r0, r3
 1550 0054 FFF7FEFF 		bl	_ZNK3r2p10StaticListINS_16RemoteSubscriberEE8IteratorptEv
 1551 0058 0346     		mov	r3, r0
 1552 005a 1A46     		mov	r2, r3
 1553 005c 1368     		ldr	r3, [r2]
 1554 005e 0C33     		adds	r3, r3, #12
 1555 0060 1B68     		ldr	r3, [r3]
 1556 0062 1046     		mov	r0, r2
 1557 0064 0299     		ldr	r1, [sp, #8]
 1558 0066 019A     		ldr	r2, [sp, #4]
 1559 0068 9847     		blx	r3
 1560 006a 0346     		mov	r3, r0
 1561 006c 83F00103 		eor	r3, r3, #1
 1562 0070 DBB2     		uxtb	r3, r3
 1563 0072 002B     		cmp	r3, #0
 1564 0074 02D0     		beq	.L93
 1565              		.loc 10 129 0
 1566 0076 0298     		ldr	r0, [sp, #8]
 1567 0078 FFF7FEFF 		bl	_ZN3r2p7Message7releaseEv
 1568              	.L93:
 1569              		.loc 10 116 0 discriminator 2
 1570 007c 05AB     		add	r3, sp, #20
 1571 007e 1846     		mov	r0, r3
 1572 0080 FFF7FEFF 		bl	_ZN3r2p10StaticListINS_16RemoteSubscriberEE8IteratorppEv
 1573              	.L91:
ARM GAS  /tmp/cc9AvIGf.s 			page 29


 1574              		.loc 10 117 0 discriminator 1
 1575 0084 039B     		ldr	r3, [sp, #12]
 1576 0086 2033     		adds	r3, r3, #32
 1577 0088 07AA     		add	r2, sp, #28
 1578 008a 1046     		mov	r0, r2
 1579 008c 1946     		mov	r1, r3
 1580 008e FFF7FEFF 		bl	_ZN3r2p10StaticListINS_16RemoteSubscriberEE3endEv
 1581              		.loc 10 116 0 discriminator 1
 1582 0092 05AA     		add	r2, sp, #20
 1583 0094 07AB     		add	r3, sp, #28
 1584 0096 1046     		mov	r0, r2
 1585 0098 1946     		mov	r1, r3
 1586 009a FFF7FEFF 		bl	_ZNK3r2p10StaticListINS_16RemoteSubscriberEE8IteratorneERKS3_
 1587 009e 0346     		mov	r3, r0
 1588 00a0 002B     		cmp	r3, #0
 1589 00a2 D2D1     		bne	.L94
 1590              	.LBE37:
 1591              		.loc 10 133 0
 1592 00a4 0125     		movs	r5, #1
 1593              	.L92:
 1594 00a6 2B46     		mov	r3, r5
 1595              	.LBE35:
 1596              		.loc 10 134 0 discriminator 3
 1597 00a8 1846     		mov	r0, r3
 1598 00aa 09B0     		add	sp, sp, #36
 1599              		.cfi_def_cfa_offset 12
 1600              		@ sp needed
 1601 00ac 30BD     		pop	{r4, r5, pc}
 1602              		.cfi_endproc
 1603              	.LFE601:
 1604              		.size	_ZN3r2p5Topic14notify_remotesERNS_7MessageERKNS_4TimeE, .-_ZN3r2p5Topic14notify_remotesERNS_
 1605 00ae 00BF     		.section	.text._ZN3r2p5Topic12forward_copyERKNS_7MessageERKNS_4TimeE,"ax",%progbits
 1606              		.align	2
 1607              		.p2align 4,,15
 1608              		.global	_ZN3r2p5Topic12forward_copyERKNS_7MessageERKNS_4TimeE
 1609              		.thumb
 1610              		.thumb_func
 1611              		.type	_ZN3r2p5Topic12forward_copyERKNS_7MessageERKNS_4TimeE, %function
 1612              	_ZN3r2p5Topic12forward_copyERKNS_7MessageERKNS_4TimeE:
 1613              	.LFB602:
 1614              		.loc 10 137 0
 1615              		.cfi_startproc
 1616              		@ args = 0, pretend = 0, frame = 32
 1617              		@ frame_needed = 0, uses_anonymous_args = 0
 1618 0000 10B5     		push	{r4, lr}
 1619              		.cfi_def_cfa_offset 8
 1620              		.cfi_offset 4, -8
 1621              		.cfi_offset 14, -4
 1622 0002 88B0     		sub	sp, sp, #32
 1623              		.cfi_def_cfa_offset 40
 1624 0004 0390     		str	r0, [sp, #12]
 1625 0006 0291     		str	r1, [sp, #8]
 1626 0008 0192     		str	r2, [sp, #4]
 1627              	.LBB38:
 1628              		.loc 10 139 0
 1629 000a 0123     		movs	r3, #1
 1630 000c 8DF81F30 		strb	r3, [sp, #31]
ARM GAS  /tmp/cc9AvIGf.s 			page 30


 1631              	.LBB39:
 1632              		.loc 10 141 0
 1633 0010 039B     		ldr	r3, [sp, #12]
 1634 0012 2033     		adds	r3, r3, #32
 1635 0014 05AA     		add	r2, sp, #20
 1636 0016 1046     		mov	r0, r2
 1637 0018 1946     		mov	r1, r3
 1638 001a FFF7FEFF 		bl	_ZN3r2p10StaticListINS_16RemoteSubscriberEE5beginEv
 1639 001e 47E0     		b	.L97
 1640              	.L100:
 1641              	.LBB40:
 1642              		.loc 10 152 0
 1643 0020 04AB     		add	r3, sp, #16
 1644 0022 0398     		ldr	r0, [sp, #12]
 1645 0024 1946     		mov	r1, r3
 1646 0026 FFF7FEFF 		bl	_ZN3r2p5Topic5allocINS_7MessageEEEbRPT_
 1647 002a 0346     		mov	r3, r0
 1648 002c 002B     		cmp	r3, #0
 1649 002e 38D0     		beq	.L98
 1650              		.loc 10 153 0
 1651 0030 049C     		ldr	r4, [sp, #16]
 1652 0032 0398     		ldr	r0, [sp, #12]
 1653 0034 FFF7FEFF 		bl	_ZNK3r2p5Topic13get_type_sizeEv
 1654 0038 0346     		mov	r3, r0
 1655 003a 2046     		mov	r0, r4
 1656 003c 0299     		ldr	r1, [sp, #8]
 1657 003e 1A46     		mov	r2, r3
 1658 0040 FFF7FEFF 		bl	_ZN3r2p7Message4copyERS0_RKS0_j
 1659              		.loc 10 154 0
 1660 0044 049C     		ldr	r4, [sp, #16]
 1661 0046 05AB     		add	r3, sp, #20
 1662 0048 1846     		mov	r0, r3
 1663 004a FFF7FEFF 		bl	_ZNK3r2p10StaticListINS_16RemoteSubscriberEE8IteratorptEv
 1664 004e 0346     		mov	r3, r0
 1665 0050 1846     		mov	r0, r3
 1666 0052 FFF7FEFF 		bl	_ZNK3r2p16RemoteSubscriber13get_transportEv
 1667 0056 0346     		mov	r3, r0
 1668 0058 0398     		ldr	r0, [sp, #12]
 1669 005a 2146     		mov	r1, r4
 1670 005c 1A46     		mov	r2, r3
 1671 005e FFF7FEFF 		bl	_ZNK3r2p5Topic16patch_pubsub_msgERNS_7MessageERNS_9TransportE
 1672              		.loc 10 155 0
 1673 0062 049B     		ldr	r3, [sp, #16]
 1674 0064 1846     		mov	r0, r3
 1675 0066 FFF7FEFF 		bl	_ZN3r2p7Message7acquireEv
 1676              		.loc 10 156 0
 1677 006a 05AB     		add	r3, sp, #20
 1678 006c 1846     		mov	r0, r3
 1679 006e FFF7FEFF 		bl	_ZNK3r2p10StaticListINS_16RemoteSubscriberEE8IteratorptEv
 1680 0072 0346     		mov	r3, r0
 1681 0074 1A46     		mov	r2, r3
 1682 0076 1368     		ldr	r3, [r2]
 1683 0078 0C33     		adds	r3, r3, #12
 1684 007a 1B68     		ldr	r3, [r3]
 1685 007c 0499     		ldr	r1, [sp, #16]
 1686 007e 1046     		mov	r0, r2
 1687 0080 019A     		ldr	r2, [sp, #4]
ARM GAS  /tmp/cc9AvIGf.s 			page 31


 1688 0082 9847     		blx	r3
 1689 0084 0346     		mov	r3, r0
 1690 0086 83F00103 		eor	r3, r3, #1
 1691 008a DBB2     		uxtb	r3, r3
 1692 008c 002B     		cmp	r3, #0
 1693 008e 0BD0     		beq	.L99
 1694              		.loc 10 157 0
 1695 0090 049B     		ldr	r3, [sp, #16]
 1696 0092 0398     		ldr	r0, [sp, #12]
 1697 0094 1946     		mov	r1, r3
 1698 0096 FFF7FEFF 		bl	_ZN3r2p5Topic4freeERNS_7MessageE
 1699              		.loc 10 158 0
 1700 009a 0023     		movs	r3, #0
 1701 009c 8DF81F30 		strb	r3, [sp, #31]
 1702 00a0 02E0     		b	.L99
 1703              	.L98:
 1704              		.loc 10 161 0
 1705 00a2 0023     		movs	r3, #0
 1706 00a4 8DF81F30 		strb	r3, [sp, #31]
 1707              	.L99:
 1708              	.LBE40:
 1709              		.loc 10 141 0 discriminator 1
 1710 00a8 05AB     		add	r3, sp, #20
 1711 00aa 1846     		mov	r0, r3
 1712 00ac FFF7FEFF 		bl	_ZN3r2p10StaticListINS_16RemoteSubscriberEE8IteratorppEv
 1713              	.L97:
 1714              		.loc 10 142 0 discriminator 2
 1715 00b0 039B     		ldr	r3, [sp, #12]
 1716 00b2 2033     		adds	r3, r3, #32
 1717 00b4 06AA     		add	r2, sp, #24
 1718 00b6 1046     		mov	r0, r2
 1719 00b8 1946     		mov	r1, r3
 1720 00ba FFF7FEFF 		bl	_ZN3r2p10StaticListINS_16RemoteSubscriberEE3endEv
 1721              		.loc 10 141 0 discriminator 2
 1722 00be 05AA     		add	r2, sp, #20
 1723 00c0 06AB     		add	r3, sp, #24
 1724 00c2 1046     		mov	r0, r2
 1725 00c4 1946     		mov	r1, r3
 1726 00c6 FFF7FEFF 		bl	_ZNK3r2p10StaticListINS_16RemoteSubscriberEE8IteratorneERKS3_
 1727 00ca 0346     		mov	r3, r0
 1728 00cc 002B     		cmp	r3, #0
 1729 00ce A7D1     		bne	.L100
 1730              	.LBE39:
 1731              		.loc 10 165 0
 1732 00d0 9DF81F30 		ldrb	r3, [sp, #31]	@ zero_extendqisi2
 1733              	.LBE38:
 1734              		.loc 10 166 0
 1735 00d4 1846     		mov	r0, r3
 1736 00d6 08B0     		add	sp, sp, #32
 1737              		.cfi_def_cfa_offset 8
 1738              		@ sp needed
 1739 00d8 10BD     		pop	{r4, pc}
 1740              		.cfi_endproc
 1741              	.LFE602:
 1742              		.size	_ZN3r2p5Topic12forward_copyERKNS_7MessageERKNS_4TimeE, .-_ZN3r2p5Topic12forward_copyERKNS_7M
 1743 00da 00BFAFF3 		.section	.text._ZN3r2p5Topic9advertiseERNS_14LocalPublisherERKNS_4TimeE,"ax",%progbits
 1743      0080
ARM GAS  /tmp/cc9AvIGf.s 			page 32


 1744              		.align	2
 1745              		.p2align 4,,15
 1746              		.global	_ZN3r2p5Topic9advertiseERNS_14LocalPublisherERKNS_4TimeE
 1747              		.thumb
 1748              		.thumb_func
 1749              		.type	_ZN3r2p5Topic9advertiseERNS_14LocalPublisherERKNS_4TimeE, %function
 1750              	_ZN3r2p5Topic9advertiseERNS_14LocalPublisherERKNS_4TimeE:
 1751              	.LFB603:
 1752              		.loc 10 169 0
 1753              		.cfi_startproc
 1754              		@ args = 0, pretend = 0, frame = 16
 1755              		@ frame_needed = 0, uses_anonymous_args = 0
 1756 0000 00B5     		push	{lr}
 1757              		.cfi_def_cfa_offset 4
 1758              		.cfi_offset 14, -4
 1759 0002 85B0     		sub	sp, sp, #20
 1760              		.cfi_def_cfa_offset 24
 1761 0004 0390     		str	r0, [sp, #12]
 1762 0006 0291     		str	r1, [sp, #8]
 1763 0008 0192     		str	r2, [sp, #4]
 1764              		.loc 10 172 0
 1765 000a FFF7FEFF 		bl	_ZN3r2p7SysLock7acquireEv
 1766              		.loc 10 173 0
 1767 000e 039B     		ldr	r3, [sp, #12]
 1768 0010 0433     		adds	r3, r3, #4
 1769 0012 1846     		mov	r0, r3
 1770 0014 0199     		ldr	r1, [sp, #4]
 1771 0016 FFF7FEFF 		bl	_ZN3r2pgtERKNS_4TimeES2_
 1772 001a 0346     		mov	r3, r0
 1773 001c 002B     		cmp	r3, #0
 1774 001e 05D0     		beq	.L103
 1775              		.loc 10 174 0
 1776 0020 039B     		ldr	r3, [sp, #12]
 1777 0022 0433     		adds	r3, r3, #4
 1778 0024 1846     		mov	r0, r3
 1779 0026 0199     		ldr	r1, [sp, #4]
 1780 0028 FFF7FEFF 		bl	_ZN3r2p4TimeaSERKS0_
 1781              	.L103:
 1782              		.loc 10 176 0
 1783 002c 039B     		ldr	r3, [sp, #12]
 1784 002e 5B69     		ldr	r3, [r3, #20]
 1785 0030 5A1C     		adds	r2, r3, #1
 1786 0032 039B     		ldr	r3, [sp, #12]
 1787 0034 5A61     		str	r2, [r3, #20]
 1788              		.loc 10 177 0
 1789 0036 FFF7FEFF 		bl	_ZN3r2p7SysLock7releaseEv
 1790              		.loc 10 178 0
 1791 003a 05B0     		add	sp, sp, #20
 1792              		.cfi_def_cfa_offset 4
 1793              		@ sp needed
 1794 003c 5DF804FB 		ldr	pc, [sp], #4
 1795              		.cfi_endproc
 1796              	.LFE603:
 1797              		.size	_ZN3r2p5Topic9advertiseERNS_14LocalPublisherERKNS_4TimeE, .-_ZN3r2p5Topic9advertiseERNS_14Lo
 1798              		.section	.text._ZN3r2p5Topic9advertiseERNS_15RemotePublisherERKNS_4TimeE,"ax",%progbits
 1799              		.align	2
 1800              		.p2align 4,,15
ARM GAS  /tmp/cc9AvIGf.s 			page 33


 1801              		.global	_ZN3r2p5Topic9advertiseERNS_15RemotePublisherERKNS_4TimeE
 1802              		.thumb
 1803              		.thumb_func
 1804              		.type	_ZN3r2p5Topic9advertiseERNS_15RemotePublisherERKNS_4TimeE, %function
 1805              	_ZN3r2p5Topic9advertiseERNS_15RemotePublisherERKNS_4TimeE:
 1806              	.LFB604:
 1807              		.loc 10 181 0
 1808              		.cfi_startproc
 1809              		@ args = 0, pretend = 0, frame = 16
 1810              		@ frame_needed = 0, uses_anonymous_args = 0
 1811 0000 00B5     		push	{lr}
 1812              		.cfi_def_cfa_offset 4
 1813              		.cfi_offset 14, -4
 1814 0002 85B0     		sub	sp, sp, #20
 1815              		.cfi_def_cfa_offset 24
 1816 0004 0390     		str	r0, [sp, #12]
 1817 0006 0291     		str	r1, [sp, #8]
 1818 0008 0192     		str	r2, [sp, #4]
 1819              		.loc 10 184 0
 1820 000a FFF7FEFF 		bl	_ZN3r2p7SysLock7acquireEv
 1821              		.loc 10 185 0
 1822 000e 039B     		ldr	r3, [sp, #12]
 1823 0010 0433     		adds	r3, r3, #4
 1824 0012 1846     		mov	r0, r3
 1825 0014 0199     		ldr	r1, [sp, #4]
 1826 0016 FFF7FEFF 		bl	_ZN3r2pgtERKNS_4TimeES2_
 1827 001a 0346     		mov	r3, r0
 1828 001c 002B     		cmp	r3, #0
 1829 001e 05D0     		beq	.L105
 1830              		.loc 10 186 0
 1831 0020 039B     		ldr	r3, [sp, #12]
 1832 0022 0433     		adds	r3, r3, #4
 1833 0024 1846     		mov	r0, r3
 1834 0026 0199     		ldr	r1, [sp, #4]
 1835 0028 FFF7FEFF 		bl	_ZN3r2p4TimeaSERKS0_
 1836              	.L105:
 1837              		.loc 10 188 0
 1838 002c 039B     		ldr	r3, [sp, #12]
 1839 002e 9B69     		ldr	r3, [r3, #24]
 1840 0030 5A1C     		adds	r2, r3, #1
 1841 0032 039B     		ldr	r3, [sp, #12]
 1842 0034 9A61     		str	r2, [r3, #24]
 1843              		.loc 10 189 0
 1844 0036 FFF7FEFF 		bl	_ZN3r2p7SysLock7releaseEv
 1845              		.loc 10 190 0
 1846 003a 05B0     		add	sp, sp, #20
 1847              		.cfi_def_cfa_offset 4
 1848              		@ sp needed
 1849 003c 5DF804FB 		ldr	pc, [sp], #4
 1850              		.cfi_endproc
 1851              	.LFE604:
 1852              		.size	_ZN3r2p5Topic9advertiseERNS_15RemotePublisherERKNS_4TimeE, .-_ZN3r2p5Topic9advertiseERNS_15R
 1853              		.section	.text._ZN3r2p5Topic9subscribeERNS_15LocalSubscriberEj,"ax",%progbits
 1854              		.align	2
 1855              		.p2align 4,,15
 1856              		.global	_ZN3r2p5Topic9subscribeERNS_15LocalSubscriberEj
 1857              		.thumb
ARM GAS  /tmp/cc9AvIGf.s 			page 34


 1858              		.thumb_func
 1859              		.type	_ZN3r2p5Topic9subscribeERNS_15LocalSubscriberEj, %function
 1860              	_ZN3r2p5Topic9subscribeERNS_15LocalSubscriberEj:
 1861              	.LFB605:
 1862              		.loc 10 193 0
 1863              		.cfi_startproc
 1864              		@ args = 0, pretend = 0, frame = 16
 1865              		@ frame_needed = 0, uses_anonymous_args = 0
 1866 0000 00B5     		push	{lr}
 1867              		.cfi_def_cfa_offset 4
 1868              		.cfi_offset 14, -4
 1869 0002 85B0     		sub	sp, sp, #20
 1870              		.cfi_def_cfa_offset 24
 1871 0004 0390     		str	r0, [sp, #12]
 1872 0006 0291     		str	r1, [sp, #8]
 1873 0008 0192     		str	r2, [sp, #4]
 1874              		.loc 10 195 0
 1875 000a FFF7FEFF 		bl	_ZN3r2p7SysLock7acquireEv
 1876              		.loc 10 196 0
 1877 000e 039B     		ldr	r3, [sp, #12]
 1878 0010 5A6A     		ldr	r2, [r3, #36]
 1879 0012 019B     		ldr	r3, [sp, #4]
 1880 0014 9A42     		cmp	r2, r3
 1881 0016 02D2     		bcs	.L107
 1882              		.loc 10 197 0
 1883 0018 039B     		ldr	r3, [sp, #12]
 1884 001a 019A     		ldr	r2, [sp, #4]
 1885 001c 5A62     		str	r2, [r3, #36]
 1886              	.L107:
 1887              		.loc 10 199 0
 1888 001e 039B     		ldr	r3, [sp, #12]
 1889 0020 03F11C02 		add	r2, r3, #28
 1890 0024 029B     		ldr	r3, [sp, #8]
 1891 0026 3033     		adds	r3, r3, #48
 1892 0028 1046     		mov	r0, r2
 1893 002a 1946     		mov	r1, r3
 1894 002c FFF7FEFF 		bl	_ZN3r2p10StaticListINS_15LocalSubscriberEE11link_unsafeERNS2_4LinkE
 1895              		.loc 10 200 0
 1896 0030 FFF7FEFF 		bl	_ZN3r2p7SysLock7releaseEv
 1897              		.loc 10 201 0
 1898 0034 05B0     		add	sp, sp, #20
 1899              		.cfi_def_cfa_offset 4
 1900              		@ sp needed
 1901 0036 5DF804FB 		ldr	pc, [sp], #4
 1902              		.cfi_endproc
 1903              	.LFE605:
 1904              		.size	_ZN3r2p5Topic9subscribeERNS_15LocalSubscriberEj, .-_ZN3r2p5Topic9subscribeERNS_15LocalSubscr
 1905 003a 00BFAFF3 		.section	.text._ZN3r2p5Topic9subscribeERNS_16RemoteSubscriberEj,"ax",%progbits
 1905      0080
 1906              		.align	2
 1907              		.p2align 4,,15
 1908              		.global	_ZN3r2p5Topic9subscribeERNS_16RemoteSubscriberEj
 1909              		.thumb
 1910              		.thumb_func
 1911              		.type	_ZN3r2p5Topic9subscribeERNS_16RemoteSubscriberEj, %function
 1912              	_ZN3r2p5Topic9subscribeERNS_16RemoteSubscriberEj:
 1913              	.LFB606:
ARM GAS  /tmp/cc9AvIGf.s 			page 35


 1914              		.loc 10 204 0
 1915              		.cfi_startproc
 1916              		@ args = 0, pretend = 0, frame = 16
 1917              		@ frame_needed = 0, uses_anonymous_args = 0
 1918 0000 00B5     		push	{lr}
 1919              		.cfi_def_cfa_offset 4
 1920              		.cfi_offset 14, -4
 1921 0002 85B0     		sub	sp, sp, #20
 1922              		.cfi_def_cfa_offset 24
 1923 0004 0390     		str	r0, [sp, #12]
 1924 0006 0291     		str	r1, [sp, #8]
 1925 0008 0192     		str	r2, [sp, #4]
 1926              		.loc 10 206 0
 1927 000a FFF7FEFF 		bl	_ZN3r2p7SysLock7acquireEv
 1928              		.loc 10 207 0
 1929 000e 039B     		ldr	r3, [sp, #12]
 1930 0010 5A6A     		ldr	r2, [r3, #36]
 1931 0012 019B     		ldr	r3, [sp, #4]
 1932 0014 9A42     		cmp	r2, r3
 1933 0016 02D2     		bcs	.L109
 1934              		.loc 10 208 0
 1935 0018 039B     		ldr	r3, [sp, #12]
 1936 001a 019A     		ldr	r2, [sp, #4]
 1937 001c 5A62     		str	r2, [r3, #36]
 1938              	.L109:
 1939              		.loc 10 210 0
 1940 001e 039B     		ldr	r3, [sp, #12]
 1941 0020 03F12002 		add	r2, r3, #32
 1942 0024 029B     		ldr	r3, [sp, #8]
 1943 0026 1433     		adds	r3, r3, #20
 1944 0028 1046     		mov	r0, r2
 1945 002a 1946     		mov	r1, r3
 1946 002c FFF7FEFF 		bl	_ZN3r2p10StaticListINS_16RemoteSubscriberEE11link_unsafeERNS2_4LinkE
 1947              		.loc 10 211 0
 1948 0030 FFF7FEFF 		bl	_ZN3r2p7SysLock7releaseEv
 1949              		.loc 10 212 0
 1950 0034 05B0     		add	sp, sp, #20
 1951              		.cfi_def_cfa_offset 4
 1952              		@ sp needed
 1953 0036 5DF804FB 		ldr	pc, [sp], #4
 1954              		.cfi_endproc
 1955              	.LFE606:
 1956              		.size	_ZN3r2p5Topic9subscribeERNS_16RemoteSubscriberEj, .-_ZN3r2p5Topic9subscribeERNS_16RemoteSubs
 1957 003a 00BFAFF3 		.section	.text._ZNK3r2p5Topic16patch_pubsub_msgERNS_7MessageERNS_9TransportE,"ax",%progbits
 1957      0080
 1958              		.align	2
 1959              		.p2align 4,,15
 1960              		.global	_ZNK3r2p5Topic16patch_pubsub_msgERNS_7MessageERNS_9TransportE
 1961              		.thumb
 1962              		.thumb_func
 1963              		.type	_ZNK3r2p5Topic16patch_pubsub_msgERNS_7MessageERNS_9TransportE, %function
 1964              	_ZNK3r2p5Topic16patch_pubsub_msgERNS_7MessageERNS_9TransportE:
 1965              	.LFB607:
 1966              		.loc 10 215 0
 1967              		.cfi_startproc
 1968              		@ args = 0, pretend = 0, frame = 24
 1969              		@ frame_needed = 0, uses_anonymous_args = 0
ARM GAS  /tmp/cc9AvIGf.s 			page 36


 1970 0000 00B5     		push	{lr}
 1971              		.cfi_def_cfa_offset 4
 1972              		.cfi_offset 14, -4
 1973 0002 87B0     		sub	sp, sp, #28
 1974              		.cfi_def_cfa_offset 32
 1975 0004 0390     		str	r0, [sp, #12]
 1976 0006 0291     		str	r1, [sp, #8]
 1977 0008 0192     		str	r2, [sp, #4]
 1978              	.LBB41:
 1979              		.loc 10 217 0
 1980 000a 1548     		ldr	r0, .L115
 1981 000c FFF7FEFF 		bl	_ZN3r2p10Middleware14get_mgmt_topicEv
 1982 0010 0246     		mov	r2, r0
 1983 0012 039B     		ldr	r3, [sp, #12]
 1984 0014 9A42     		cmp	r2, r3
 1985 0016 14BF     		ite	ne
 1986 0018 0123     		movne	r3, #1
 1987 001a 0023     		moveq	r3, #0
 1988 001c DBB2     		uxtb	r3, r3
 1989 001e 002B     		cmp	r3, #0
 1990 0020 00D0     		beq	.L111
 1991 0022 1AE0     		b	.L110
 1992              	.L111:
 1993              		.loc 10 219 0
 1994 0024 029B     		ldr	r3, [sp, #8]
 1995 0026 0593     		str	r3, [sp, #20]
 1996              	.LBB42:
 1997              		.loc 10 221 0
 1998 0028 059B     		ldr	r3, [sp, #20]
 1999 002a 93F82130 		ldrb	r3, [r3, #33]	@ zero_extendqisi2
 2000 002e 213B     		subs	r3, r3, #33
 2001 0030 022B     		cmp	r3, #2
 2002 0032 12D8     		bhi	.L110
 2003              	.LBB43:
 2004              	.LBB44:
 2005              		.loc 10 226 0
 2006 0034 059B     		ldr	r3, [sp, #20]
 2007 0036 0233     		adds	r3, r3, #2
 2008 0038 0948     		ldr	r0, .L115
 2009 003a 1946     		mov	r1, r3
 2010 003c FFF7FEFF 		bl	_ZN3r2p10Middleware10find_topicEPKc
 2011 0040 0490     		str	r0, [sp, #16]
 2012              		.loc 10 227 0
 2013 0042 049B     		ldr	r3, [sp, #16]
 2014 0044 002B     		cmp	r3, #0
 2015 0046 07D0     		beq	.L114
 2016              		.loc 10 228 0
 2017 0048 019B     		ldr	r3, [sp, #4]
 2018 004a 1B68     		ldr	r3, [r3]
 2019 004c 1B68     		ldr	r3, [r3]
 2020 004e 059A     		ldr	r2, [sp, #20]
 2021 0050 1632     		adds	r2, r2, #22
 2022 0052 0198     		ldr	r0, [sp, #4]
 2023 0054 0499     		ldr	r1, [sp, #16]
 2024 0056 9847     		blx	r3
 2025              	.L114:
 2026              		.loc 10 230 0
ARM GAS  /tmp/cc9AvIGf.s 			page 37


 2027 0058 00BF     		nop
 2028              	.L110:
 2029              	.LBE44:
 2030              	.LBE43:
 2031              	.LBE42:
 2032              	.LBE41:
 2033              		.loc 10 233 0
 2034 005a 07B0     		add	sp, sp, #28
 2035              		.cfi_def_cfa_offset 4
 2036              		@ sp needed
 2037 005c 5DF804FB 		ldr	pc, [sp], #4
 2038              	.L116:
 2039              		.align	2
 2040              	.L115:
 2041 0060 00000000 		.word	_ZN3r2p10Middleware8instanceE
 2042              		.cfi_endproc
 2043              	.LFE607:
 2044              		.size	_ZNK3r2p5Topic16patch_pubsub_msgERNS_7MessageERNS_9TransportE, .-_ZNK3r2p5Topic16patch_pubsu
 2045              		.section	.text._ZN3r2p5TopicC2EPKcjb,"ax",%progbits
 2046              		.align	2
 2047              		.p2align 4,,15
 2048              		.global	_ZN3r2p5TopicC2EPKcjb
 2049              		.thumb
 2050              		.thumb_func
 2051              		.type	_ZN3r2p5TopicC2EPKcjb, %function
 2052              	_ZN3r2p5TopicC2EPKcjb:
 2053              	.LFB618:
 2054              		.loc 10 236 0
 2055              		.cfi_startproc
 2056              		@ args = 0, pretend = 0, frame = 16
 2057              		@ frame_needed = 0, uses_anonymous_args = 0
 2058 0000 00B5     		push	{lr}
 2059              		.cfi_def_cfa_offset 4
 2060              		.cfi_offset 14, -4
 2061 0002 85B0     		sub	sp, sp, #20
 2062              		.cfi_def_cfa_offset 24
 2063 0004 0390     		str	r0, [sp, #12]
 2064 0006 0291     		str	r1, [sp, #8]
 2065 0008 0192     		str	r2, [sp, #4]
 2066 000a 8DF80330 		strb	r3, [sp, #3]
 2067              	.LBB45:
 2068              		.loc 10 247 0
 2069 000e 0398     		ldr	r0, [sp, #12]
 2070 0010 FFF7FEFF 		bl	_ZN3r2p10UncopyableC2Ev
 2071 0014 039B     		ldr	r3, [sp, #12]
 2072 0016 029A     		ldr	r2, [sp, #8]
 2073 0018 1A60     		str	r2, [r3]
 2074 001a 039B     		ldr	r3, [sp, #12]
 2075 001c 0433     		adds	r3, r3, #4
 2076 001e 1846     		mov	r0, r3
 2077 0020 1949     		ldr	r1, .L120
 2078 0022 FFF7FEFF 		bl	_ZN3r2p4TimeC1ERKS0_
 2079 0026 039B     		ldr	r3, [sp, #12]
 2080 0028 0833     		adds	r3, r3, #8
 2081 002a 1846     		mov	r0, r3
 2082 002c 0199     		ldr	r1, [sp, #4]
 2083 002e FFF7FEFF 		bl	_ZN3r2p11MemoryPool_C1Ej
ARM GAS  /tmp/cc9AvIGf.s 			page 38


 2084 0032 039B     		ldr	r3, [sp, #12]
 2085 0034 0022     		movs	r2, #0
 2086 0036 5A61     		str	r2, [r3, #20]
 2087 0038 039B     		ldr	r3, [sp, #12]
 2088 003a 0022     		movs	r2, #0
 2089 003c 9A61     		str	r2, [r3, #24]
 2090 003e 039B     		ldr	r3, [sp, #12]
 2091 0040 1C33     		adds	r3, r3, #28
 2092 0042 1846     		mov	r0, r3
 2093 0044 FFF7FEFF 		bl	_ZN3r2p10StaticListINS_15LocalSubscriberEEC1Ev
 2094 0048 039B     		ldr	r3, [sp, #12]
 2095 004a 2033     		adds	r3, r3, #32
 2096 004c 1846     		mov	r0, r3
 2097 004e FFF7FEFF 		bl	_ZN3r2p10StaticListINS_16RemoteSubscriberEEC1Ev
 2098 0052 039B     		ldr	r3, [sp, #12]
 2099 0054 0022     		movs	r2, #0
 2100 0056 5A62     		str	r2, [r3, #36]
 2101 0058 039B     		ldr	r3, [sp, #12]
 2102 005a 2833     		adds	r3, r3, #40
 2103 005c 1846     		mov	r0, r3
 2104 005e 0399     		ldr	r1, [sp, #12]
 2105 0060 FFF7FEFF 		bl	_ZN3r2p10StaticListINS_5TopicEE4LinkC1ERS1_
 2106              		.loc 10 249 0
 2107 0064 0298     		ldr	r0, [sp, #8]
 2108 0066 1021     		movs	r1, #16
 2109 0068 FFF7FEFF 		bl	_ZN3r2p13is_identifierEPKcj
 2110 006c 0346     		mov	r3, r0
 2111 006e 83F00103 		eor	r3, r3, #1
 2112 0072 DBB2     		uxtb	r3, r3
 2113 0074 002B     		cmp	r3, #0
 2114 0076 02D0     		beq	.L118
 2115              		.loc 10 249 0 is_stmt 0 discriminator 1
 2116 0078 0448     		ldr	r0, .L120+4
 2117 007a FFF7FEFF 		bl	chDbgPanic
 2118              	.L118:
 2119              	.LBE45:
 2120              		.loc 10 252 0 is_stmt 1
 2121 007e 039B     		ldr	r3, [sp, #12]
 2122 0080 1846     		mov	r0, r3
 2123 0082 05B0     		add	sp, sp, #20
 2124              		.cfi_def_cfa_offset 4
 2125              		@ sp needed
 2126 0084 5DF804FB 		ldr	pc, [sp], #4
 2127              	.L121:
 2128              		.align	2
 2129              	.L120:
 2130 0088 00000000 		.word	_ZN3r2p4Time8INFINITEE
 2131 008c 00000000 		.word	.LC0
 2132              		.cfi_endproc
 2133              	.LFE618:
 2134              		.size	_ZN3r2p5TopicC2EPKcjb, .-_ZN3r2p5TopicC2EPKcjb
 2135              		.global	_ZN3r2p5TopicC1EPKcjb
 2136              		.thumb_set _ZN3r2p5TopicC1EPKcjb,_ZN3r2p5TopicC2EPKcjb
 2137              		.section	.text._ZNK3r2p10StaticListINS_15LocalSubscriberEE15is_empty_unsafeEv,"axG",%progbits,_ZNK
 2138              		.align	2
 2139              		.p2align 4,,15
 2140              		.weak	_ZNK3r2p10StaticListINS_15LocalSubscriberEE15is_empty_unsafeEv
ARM GAS  /tmp/cc9AvIGf.s 			page 39


 2141              		.thumb
 2142              		.thumb_func
 2143              		.type	_ZNK3r2p10StaticListINS_15LocalSubscriberEE15is_empty_unsafeEv, %function
 2144              	_ZNK3r2p10StaticListINS_15LocalSubscriberEE15is_empty_unsafeEv:
 2145              	.LFB632:
 2146              		.file 11 "/home/ergae/r2p-sdk/core/Middleware/include/r2p/StaticList.hpp"
 2147              		.loc 11 401 0
 2148              		.cfi_startproc
 2149              		@ args = 0, pretend = 0, frame = 8
 2150              		@ frame_needed = 0, uses_anonymous_args = 0
 2151              		@ link register save eliminated.
 2152 0000 82B0     		sub	sp, sp, #8
 2153              		.cfi_def_cfa_offset 8
 2154 0002 0190     		str	r0, [sp, #4]
 2155              		.loc 11 402 0
 2156 0004 019B     		ldr	r3, [sp, #4]
 2157 0006 1B68     		ldr	r3, [r3]
 2158 0008 002B     		cmp	r3, #0
 2159 000a 0CBF     		ite	eq
 2160 000c 0123     		moveq	r3, #1
 2161 000e 0023     		movne	r3, #0
 2162 0010 DBB2     		uxtb	r3, r3
 2163              		.loc 11 403 0
 2164 0012 1846     		mov	r0, r3
 2165 0014 02B0     		add	sp, sp, #8
 2166              		.cfi_def_cfa_offset 0
 2167              		@ sp needed
 2168 0016 7047     		bx	lr
 2169              		.cfi_endproc
 2170              	.LFE632:
 2171              		.size	_ZNK3r2p10StaticListINS_15LocalSubscriberEE15is_empty_unsafeEv, .-_ZNK3r2p10StaticListINS_15
 2172 0018 AFF30080 		.section	.text._ZNK3r2p10StaticListINS_16RemoteSubscriberEE15is_empty_unsafeEv,"axG",%progbits,_ZN
 2172      AFF30080 
 2173              		.align	2
 2174              		.p2align 4,,15
 2175              		.weak	_ZNK3r2p10StaticListINS_16RemoteSubscriberEE15is_empty_unsafeEv
 2176              		.thumb
 2177              		.thumb_func
 2178              		.type	_ZNK3r2p10StaticListINS_16RemoteSubscriberEE15is_empty_unsafeEv, %function
 2179              	_ZNK3r2p10StaticListINS_16RemoteSubscriberEE15is_empty_unsafeEv:
 2180              	.LFB633:
 2181              		.loc 11 401 0
 2182              		.cfi_startproc
 2183              		@ args = 0, pretend = 0, frame = 8
 2184              		@ frame_needed = 0, uses_anonymous_args = 0
 2185              		@ link register save eliminated.
 2186 0000 82B0     		sub	sp, sp, #8
 2187              		.cfi_def_cfa_offset 8
 2188 0002 0190     		str	r0, [sp, #4]
 2189              		.loc 11 402 0
 2190 0004 019B     		ldr	r3, [sp, #4]
 2191 0006 1B68     		ldr	r3, [r3]
 2192 0008 002B     		cmp	r3, #0
 2193 000a 0CBF     		ite	eq
 2194 000c 0123     		moveq	r3, #1
 2195 000e 0023     		movne	r3, #0
 2196 0010 DBB2     		uxtb	r3, r3
ARM GAS  /tmp/cc9AvIGf.s 			page 40


 2197              		.loc 11 403 0
 2198 0012 1846     		mov	r0, r3
 2199 0014 02B0     		add	sp, sp, #8
 2200              		.cfi_def_cfa_offset 0
 2201              		@ sp needed
 2202 0016 7047     		bx	lr
 2203              		.cfi_endproc
 2204              	.LFE633:
 2205              		.size	_ZNK3r2p10StaticListINS_16RemoteSubscriberEE15is_empty_unsafeEv, .-_ZNK3r2p10StaticListINS_1
 2206 0018 AFF30080 		.section	.text._ZN3r2p10StaticListINS_15LocalSubscriberEE12begin_unsafeEv,"axG",%progbits,_ZN3r2p1
 2206      AFF30080 
 2207              		.align	2
 2208              		.p2align 4,,15
 2209              		.weak	_ZN3r2p10StaticListINS_15LocalSubscriberEE12begin_unsafeEv
 2210              		.thumb
 2211              		.thumb_func
 2212              		.type	_ZN3r2p10StaticListINS_15LocalSubscriberEE12begin_unsafeEv, %function
 2213              	_ZN3r2p10StaticListINS_15LocalSubscriberEE12begin_unsafeEv:
 2214              	.LFB641:
 2215              		.loc 11 435 0
 2216              		.cfi_startproc
 2217              		@ args = 0, pretend = 0, frame = 8
 2218              		@ frame_needed = 0, uses_anonymous_args = 0
 2219 0000 00B5     		push	{lr}
 2220              		.cfi_def_cfa_offset 4
 2221              		.cfi_offset 14, -4
 2222 0002 83B0     		sub	sp, sp, #12
 2223              		.cfi_def_cfa_offset 16
 2224 0004 0190     		str	r0, [sp, #4]
 2225 0006 0091     		str	r1, [sp]
 2226              		.loc 11 436 0
 2227 0008 0098     		ldr	r0, [sp]
 2228 000a FFF7FEFF 		bl	_ZNK3r2p10StaticListINS_15LocalSubscriberEE15get_head_unsafeEv
 2229 000e 0346     		mov	r3, r0
 2230 0010 0198     		ldr	r0, [sp, #4]
 2231 0012 1946     		mov	r1, r3
 2232 0014 FFF7FEFF 		bl	_ZN3r2p10StaticListINS_15LocalSubscriberEE14IteratorUnsafeC1EPKNS2_4LinkE
 2233              		.loc 11 437 0
 2234 0018 0198     		ldr	r0, [sp, #4]
 2235 001a 03B0     		add	sp, sp, #12
 2236              		.cfi_def_cfa_offset 4
 2237              		@ sp needed
 2238 001c 5DF804FB 		ldr	pc, [sp], #4
 2239              		.cfi_endproc
 2240              	.LFE641:
 2241              		.size	_ZN3r2p10StaticListINS_15LocalSubscriberEE12begin_unsafeEv, .-_ZN3r2p10StaticListINS_15Local
 2242              		.section	.text._ZN3r2p10StaticListINS_15LocalSubscriberEE10end_unsafeEv,"axG",%progbits,_ZN3r2p10S
 2243              		.align	2
 2244              		.p2align 4,,15
 2245              		.weak	_ZN3r2p10StaticListINS_15LocalSubscriberEE10end_unsafeEv
 2246              		.thumb
 2247              		.thumb_func
 2248              		.type	_ZN3r2p10StaticListINS_15LocalSubscriberEE10end_unsafeEv, %function
 2249              	_ZN3r2p10StaticListINS_15LocalSubscriberEE10end_unsafeEv:
 2250              	.LFB645:
 2251              		.loc 11 439 0
 2252              		.cfi_startproc
ARM GAS  /tmp/cc9AvIGf.s 			page 41


 2253              		@ args = 0, pretend = 0, frame = 8
 2254              		@ frame_needed = 0, uses_anonymous_args = 0
 2255 0000 00B5     		push	{lr}
 2256              		.cfi_def_cfa_offset 4
 2257              		.cfi_offset 14, -4
 2258 0002 83B0     		sub	sp, sp, #12
 2259              		.cfi_def_cfa_offset 16
 2260 0004 0190     		str	r0, [sp, #4]
 2261 0006 0091     		str	r1, [sp]
 2262              		.loc 11 440 0
 2263 0008 0198     		ldr	r0, [sp, #4]
 2264 000a 0021     		movs	r1, #0
 2265 000c FFF7FEFF 		bl	_ZN3r2p10StaticListINS_15LocalSubscriberEE14IteratorUnsafeC1EPKNS2_4LinkE
 2266              		.loc 11 441 0
 2267 0010 0198     		ldr	r0, [sp, #4]
 2268 0012 03B0     		add	sp, sp, #12
 2269              		.cfi_def_cfa_offset 4
 2270              		@ sp needed
 2271 0014 5DF804FB 		ldr	pc, [sp], #4
 2272              		.cfi_endproc
 2273              	.LFE645:
 2274              		.size	_ZN3r2p10StaticListINS_15LocalSubscriberEE10end_unsafeEv, .-_ZN3r2p10StaticListINS_15LocalSu
 2275 0018 AFF30080 		.section	.text._ZNK3r2p10StaticListINS_15LocalSubscriberEE14IteratorUnsafeneERKS3_,"axG",%progbits
 2275      AFF30080 
 2276              		.align	2
 2277              		.p2align 4,,15
 2278              		.weak	_ZNK3r2p10StaticListINS_15LocalSubscriberEE14IteratorUnsafeneERKS3_
 2279              		.thumb
 2280              		.thumb_func
 2281              		.type	_ZNK3r2p10StaticListINS_15LocalSubscriberEE14IteratorUnsafeneERKS3_, %function
 2282              	_ZNK3r2p10StaticListINS_15LocalSubscriberEE14IteratorUnsafeneERKS3_:
 2283              	.LFB646:
 2284              		.loc 11 75 0
 2285              		.cfi_startproc
 2286              		@ args = 0, pretend = 0, frame = 8
 2287              		@ frame_needed = 0, uses_anonymous_args = 0
 2288              		@ link register save eliminated.
 2289 0000 82B0     		sub	sp, sp, #8
 2290              		.cfi_def_cfa_offset 8
 2291 0002 0190     		str	r0, [sp, #4]
 2292 0004 0091     		str	r1, [sp]
 2293              		.loc 11 76 0
 2294 0006 019B     		ldr	r3, [sp, #4]
 2295 0008 1A68     		ldr	r2, [r3]
 2296 000a 009B     		ldr	r3, [sp]
 2297 000c 1B68     		ldr	r3, [r3]
 2298 000e 9A42     		cmp	r2, r3
 2299 0010 14BF     		ite	ne
 2300 0012 0123     		movne	r3, #1
 2301 0014 0023     		moveq	r3, #0
 2302 0016 DBB2     		uxtb	r3, r3
 2303              		.loc 11 77 0
 2304 0018 1846     		mov	r0, r3
 2305 001a 02B0     		add	sp, sp, #8
 2306              		.cfi_def_cfa_offset 0
 2307              		@ sp needed
 2308 001c 7047     		bx	lr
ARM GAS  /tmp/cc9AvIGf.s 			page 42


 2309              		.cfi_endproc
 2310              	.LFE646:
 2311              		.size	_ZNK3r2p10StaticListINS_15LocalSubscriberEE14IteratorUnsafeneERKS3_, .-_ZNK3r2p10StaticListI
 2312 001e 00BF     		.section	.text._ZN3r2p10StaticListINS_15LocalSubscriberEE14IteratorUnsafeppEv,"axG",%progbits,_ZN3
 2313              		.align	2
 2314              		.p2align 4,,15
 2315              		.weak	_ZN3r2p10StaticListINS_15LocalSubscriberEE14IteratorUnsafeppEv
 2316              		.thumb
 2317              		.thumb_func
 2318              		.type	_ZN3r2p10StaticListINS_15LocalSubscriberEE14IteratorUnsafeppEv, %function
 2319              	_ZN3r2p10StaticListINS_15LocalSubscriberEE14IteratorUnsafeppEv:
 2320              	.LFB647:
 2321              		.loc 11 60 0
 2322              		.cfi_startproc
 2323              		@ args = 0, pretend = 0, frame = 8
 2324              		@ frame_needed = 0, uses_anonymous_args = 0
 2325              		@ link register save eliminated.
 2326 0000 82B0     		sub	sp, sp, #8
 2327              		.cfi_def_cfa_offset 8
 2328 0002 0190     		str	r0, [sp, #4]
 2329              		.loc 11 61 0
 2330 0004 019B     		ldr	r3, [sp, #4]
 2331 0006 1B68     		ldr	r3, [r3]
 2332 0008 1A68     		ldr	r2, [r3]
 2333 000a 019B     		ldr	r3, [sp, #4]
 2334 000c 1A60     		str	r2, [r3]
 2335              		.loc 11 62 0
 2336 000e 019B     		ldr	r3, [sp, #4]
 2337              		.loc 11 63 0
 2338 0010 1846     		mov	r0, r3
 2339 0012 02B0     		add	sp, sp, #8
 2340              		.cfi_def_cfa_offset 0
 2341              		@ sp needed
 2342 0014 7047     		bx	lr
 2343              		.cfi_endproc
 2344              	.LFE647:
 2345              		.size	_ZN3r2p10StaticListINS_15LocalSubscriberEE14IteratorUnsafeppEv, .-_ZN3r2p10StaticListINS_15L
 2346 0016 00BFAFF3 		.section	.text._ZNK3r2p10StaticListINS_15LocalSubscriberEE14IteratorUnsafeptEv,"axG",%progbits,_ZN
 2346      0080AFF3 
 2346      0080
 2347              		.align	2
 2348              		.p2align 4,,15
 2349              		.weak	_ZNK3r2p10StaticListINS_15LocalSubscriberEE14IteratorUnsafeptEv
 2350              		.thumb
 2351              		.thumb_func
 2352              		.type	_ZNK3r2p10StaticListINS_15LocalSubscriberEE14IteratorUnsafeptEv, %function
 2353              	_ZNK3r2p10StaticListINS_15LocalSubscriberEE14IteratorUnsafeptEv:
 2354              	.LFB648:
 2355              		.loc 11 52 0
 2356              		.cfi_startproc
 2357              		@ args = 0, pretend = 0, frame = 8
 2358              		@ frame_needed = 0, uses_anonymous_args = 0
 2359              		@ link register save eliminated.
 2360 0000 82B0     		sub	sp, sp, #8
 2361              		.cfi_def_cfa_offset 8
 2362 0002 0190     		str	r0, [sp, #4]
 2363              		.loc 11 53 0
ARM GAS  /tmp/cc9AvIGf.s 			page 43


 2364 0004 019B     		ldr	r3, [sp, #4]
 2365 0006 1B68     		ldr	r3, [r3]
 2366 0008 5B68     		ldr	r3, [r3, #4]
 2367              		.loc 11 54 0
 2368 000a 1846     		mov	r0, r3
 2369 000c 02B0     		add	sp, sp, #8
 2370              		.cfi_def_cfa_offset 0
 2371              		@ sp needed
 2372 000e 7047     		bx	lr
 2373              		.cfi_endproc
 2374              	.LFE648:
 2375              		.size	_ZNK3r2p10StaticListINS_15LocalSubscriberEE14IteratorUnsafeptEv, .-_ZNK3r2p10StaticListINS_1
 2376              		.section	.text._ZN3r2p10StaticListINS_16RemoteSubscriberEE12begin_unsafeEv,"axG",%progbits,_ZN3r2p
 2377              		.align	2
 2378              		.p2align 4,,15
 2379              		.weak	_ZN3r2p10StaticListINS_16RemoteSubscriberEE12begin_unsafeEv
 2380              		.thumb
 2381              		.thumb_func
 2382              		.type	_ZN3r2p10StaticListINS_16RemoteSubscriberEE12begin_unsafeEv, %function
 2383              	_ZN3r2p10StaticListINS_16RemoteSubscriberEE12begin_unsafeEv:
 2384              	.LFB649:
 2385              		.loc 11 435 0
 2386              		.cfi_startproc
 2387              		@ args = 0, pretend = 0, frame = 8
 2388              		@ frame_needed = 0, uses_anonymous_args = 0
 2389 0000 00B5     		push	{lr}
 2390              		.cfi_def_cfa_offset 4
 2391              		.cfi_offset 14, -4
 2392 0002 83B0     		sub	sp, sp, #12
 2393              		.cfi_def_cfa_offset 16
 2394 0004 0190     		str	r0, [sp, #4]
 2395 0006 0091     		str	r1, [sp]
 2396              		.loc 11 436 0
 2397 0008 0098     		ldr	r0, [sp]
 2398 000a FFF7FEFF 		bl	_ZNK3r2p10StaticListINS_16RemoteSubscriberEE15get_head_unsafeEv
 2399 000e 0346     		mov	r3, r0
 2400 0010 0198     		ldr	r0, [sp, #4]
 2401 0012 1946     		mov	r1, r3
 2402 0014 FFF7FEFF 		bl	_ZN3r2p10StaticListINS_16RemoteSubscriberEE14IteratorUnsafeC1EPKNS2_4LinkE
 2403              		.loc 11 437 0
 2404 0018 0198     		ldr	r0, [sp, #4]
 2405 001a 03B0     		add	sp, sp, #12
 2406              		.cfi_def_cfa_offset 4
 2407              		@ sp needed
 2408 001c 5DF804FB 		ldr	pc, [sp], #4
 2409              		.cfi_endproc
 2410              	.LFE649:
 2411              		.size	_ZN3r2p10StaticListINS_16RemoteSubscriberEE12begin_unsafeEv, .-_ZN3r2p10StaticListINS_16Remo
 2412              		.section	.text._ZN3r2p10StaticListINS_16RemoteSubscriberEE10end_unsafeEv,"axG",%progbits,_ZN3r2p10
 2413              		.align	2
 2414              		.p2align 4,,15
 2415              		.weak	_ZN3r2p10StaticListINS_16RemoteSubscriberEE10end_unsafeEv
 2416              		.thumb
 2417              		.thumb_func
 2418              		.type	_ZN3r2p10StaticListINS_16RemoteSubscriberEE10end_unsafeEv, %function
 2419              	_ZN3r2p10StaticListINS_16RemoteSubscriberEE10end_unsafeEv:
 2420              	.LFB653:
ARM GAS  /tmp/cc9AvIGf.s 			page 44


 2421              		.loc 11 439 0
 2422              		.cfi_startproc
 2423              		@ args = 0, pretend = 0, frame = 8
 2424              		@ frame_needed = 0, uses_anonymous_args = 0
 2425 0000 00B5     		push	{lr}
 2426              		.cfi_def_cfa_offset 4
 2427              		.cfi_offset 14, -4
 2428 0002 83B0     		sub	sp, sp, #12
 2429              		.cfi_def_cfa_offset 16
 2430 0004 0190     		str	r0, [sp, #4]
 2431 0006 0091     		str	r1, [sp]
 2432              		.loc 11 440 0
 2433 0008 0198     		ldr	r0, [sp, #4]
 2434 000a 0021     		movs	r1, #0
 2435 000c FFF7FEFF 		bl	_ZN3r2p10StaticListINS_16RemoteSubscriberEE14IteratorUnsafeC1EPKNS2_4LinkE
 2436              		.loc 11 441 0
 2437 0010 0198     		ldr	r0, [sp, #4]
 2438 0012 03B0     		add	sp, sp, #12
 2439              		.cfi_def_cfa_offset 4
 2440              		@ sp needed
 2441 0014 5DF804FB 		ldr	pc, [sp], #4
 2442              		.cfi_endproc
 2443              	.LFE653:
 2444              		.size	_ZN3r2p10StaticListINS_16RemoteSubscriberEE10end_unsafeEv, .-_ZN3r2p10StaticListINS_16Remote
 2445 0018 AFF30080 		.section	.text._ZNK3r2p10StaticListINS_16RemoteSubscriberEE14IteratorUnsafeneERKS3_,"axG",%progbit
 2445      AFF30080 
 2446              		.align	2
 2447              		.p2align 4,,15
 2448              		.weak	_ZNK3r2p10StaticListINS_16RemoteSubscriberEE14IteratorUnsafeneERKS3_
 2449              		.thumb
 2450              		.thumb_func
 2451              		.type	_ZNK3r2p10StaticListINS_16RemoteSubscriberEE14IteratorUnsafeneERKS3_, %function
 2452              	_ZNK3r2p10StaticListINS_16RemoteSubscriberEE14IteratorUnsafeneERKS3_:
 2453              	.LFB654:
 2454              		.loc 11 75 0
 2455              		.cfi_startproc
 2456              		@ args = 0, pretend = 0, frame = 8
 2457              		@ frame_needed = 0, uses_anonymous_args = 0
 2458              		@ link register save eliminated.
 2459 0000 82B0     		sub	sp, sp, #8
 2460              		.cfi_def_cfa_offset 8
 2461 0002 0190     		str	r0, [sp, #4]
 2462 0004 0091     		str	r1, [sp]
 2463              		.loc 11 76 0
 2464 0006 019B     		ldr	r3, [sp, #4]
 2465 0008 1A68     		ldr	r2, [r3]
 2466 000a 009B     		ldr	r3, [sp]
 2467 000c 1B68     		ldr	r3, [r3]
 2468 000e 9A42     		cmp	r2, r3
 2469 0010 14BF     		ite	ne
 2470 0012 0123     		movne	r3, #1
 2471 0014 0023     		moveq	r3, #0
 2472 0016 DBB2     		uxtb	r3, r3
 2473              		.loc 11 77 0
 2474 0018 1846     		mov	r0, r3
 2475 001a 02B0     		add	sp, sp, #8
 2476              		.cfi_def_cfa_offset 0
ARM GAS  /tmp/cc9AvIGf.s 			page 45


 2477              		@ sp needed
 2478 001c 7047     		bx	lr
 2479              		.cfi_endproc
 2480              	.LFE654:
 2481              		.size	_ZNK3r2p10StaticListINS_16RemoteSubscriberEE14IteratorUnsafeneERKS3_, .-_ZNK3r2p10StaticList
 2482 001e 00BF     		.section	.text._ZN3r2p10StaticListINS_16RemoteSubscriberEE14IteratorUnsafeppEv,"axG",%progbits,_ZN
 2483              		.align	2
 2484              		.p2align 4,,15
 2485              		.weak	_ZN3r2p10StaticListINS_16RemoteSubscriberEE14IteratorUnsafeppEv
 2486              		.thumb
 2487              		.thumb_func
 2488              		.type	_ZN3r2p10StaticListINS_16RemoteSubscriberEE14IteratorUnsafeppEv, %function
 2489              	_ZN3r2p10StaticListINS_16RemoteSubscriberEE14IteratorUnsafeppEv:
 2490              	.LFB655:
 2491              		.loc 11 60 0
 2492              		.cfi_startproc
 2493              		@ args = 0, pretend = 0, frame = 8
 2494              		@ frame_needed = 0, uses_anonymous_args = 0
 2495              		@ link register save eliminated.
 2496 0000 82B0     		sub	sp, sp, #8
 2497              		.cfi_def_cfa_offset 8
 2498 0002 0190     		str	r0, [sp, #4]
 2499              		.loc 11 61 0
 2500 0004 019B     		ldr	r3, [sp, #4]
 2501 0006 1B68     		ldr	r3, [r3]
 2502 0008 1A68     		ldr	r2, [r3]
 2503 000a 019B     		ldr	r3, [sp, #4]
 2504 000c 1A60     		str	r2, [r3]
 2505              		.loc 11 62 0
 2506 000e 019B     		ldr	r3, [sp, #4]
 2507              		.loc 11 63 0
 2508 0010 1846     		mov	r0, r3
 2509 0012 02B0     		add	sp, sp, #8
 2510              		.cfi_def_cfa_offset 0
 2511              		@ sp needed
 2512 0014 7047     		bx	lr
 2513              		.cfi_endproc
 2514              	.LFE655:
 2515              		.size	_ZN3r2p10StaticListINS_16RemoteSubscriberEE14IteratorUnsafeppEv, .-_ZN3r2p10StaticListINS_16
 2516 0016 00BFAFF3 		.section	.text._ZNK3r2p10StaticListINS_16RemoteSubscriberEE14IteratorUnsafeptEv,"axG",%progbits,_Z
 2516      0080AFF3 
 2516      0080
 2517              		.align	2
 2518              		.p2align 4,,15
 2519              		.weak	_ZNK3r2p10StaticListINS_16RemoteSubscriberEE14IteratorUnsafeptEv
 2520              		.thumb
 2521              		.thumb_func
 2522              		.type	_ZNK3r2p10StaticListINS_16RemoteSubscriberEE14IteratorUnsafeptEv, %function
 2523              	_ZNK3r2p10StaticListINS_16RemoteSubscriberEE14IteratorUnsafeptEv:
 2524              	.LFB656:
 2525              		.loc 11 52 0
 2526              		.cfi_startproc
 2527              		@ args = 0, pretend = 0, frame = 8
 2528              		@ frame_needed = 0, uses_anonymous_args = 0
 2529              		@ link register save eliminated.
 2530 0000 82B0     		sub	sp, sp, #8
 2531              		.cfi_def_cfa_offset 8
ARM GAS  /tmp/cc9AvIGf.s 			page 46


 2532 0002 0190     		str	r0, [sp, #4]
 2533              		.loc 11 53 0
 2534 0004 019B     		ldr	r3, [sp, #4]
 2535 0006 1B68     		ldr	r3, [r3]
 2536 0008 5B68     		ldr	r3, [r3, #4]
 2537              		.loc 11 54 0
 2538 000a 1846     		mov	r0, r3
 2539 000c 02B0     		add	sp, sp, #8
 2540              		.cfi_def_cfa_offset 0
 2541              		@ sp needed
 2542 000e 7047     		bx	lr
 2543              		.cfi_endproc
 2544              	.LFE656:
 2545              		.size	_ZNK3r2p10StaticListINS_16RemoteSubscriberEE14IteratorUnsafeptEv, .-_ZNK3r2p10StaticListINS_
 2546              		.section	.text._ZN3r2p5Topic12alloc_unsafeINS_7MessageEEEbRPT_,"axG",%progbits,_ZN3r2p5Topic12allo
 2547              		.align	2
 2548              		.p2align 4,,15
 2549              		.weak	_ZN3r2p5Topic12alloc_unsafeINS_7MessageEEEbRPT_
 2550              		.thumb
 2551              		.thumb_func
 2552              		.type	_ZN3r2p5Topic12alloc_unsafeINS_7MessageEEEbRPT_, %function
 2553              	_ZN3r2p5Topic12alloc_unsafeINS_7MessageEEEbRPT_:
 2554              	.LFB657:
 2555              		.loc 8 262 0
 2556              		.cfi_startproc
 2557              		@ args = 0, pretend = 0, frame = 8
 2558              		@ frame_needed = 0, uses_anonymous_args = 0
 2559 0000 00B5     		push	{lr}
 2560              		.cfi_def_cfa_offset 4
 2561              		.cfi_offset 14, -4
 2562 0002 83B0     		sub	sp, sp, #12
 2563              		.cfi_def_cfa_offset 16
 2564 0004 0190     		str	r0, [sp, #4]
 2565 0006 0091     		str	r1, [sp]
 2566              		.loc 8 265 0
 2567 0008 0198     		ldr	r0, [sp, #4]
 2568 000a FFF7FEFF 		bl	_ZN3r2p5Topic12alloc_unsafeEv
 2569 000e 0246     		mov	r2, r0
 2570 0010 009B     		ldr	r3, [sp]
 2571 0012 1A60     		str	r2, [r3]
 2572 0014 009B     		ldr	r3, [sp]
 2573 0016 1B68     		ldr	r3, [r3]
 2574 0018 002B     		cmp	r3, #0
 2575 001a 14BF     		ite	ne
 2576 001c 0123     		movne	r3, #1
 2577 001e 0023     		moveq	r3, #0
 2578 0020 DBB2     		uxtb	r3, r3
 2579              		.loc 8 266 0
 2580 0022 1846     		mov	r0, r3
 2581 0024 03B0     		add	sp, sp, #12
 2582              		.cfi_def_cfa_offset 4
 2583              		@ sp needed
 2584 0026 5DF804FB 		ldr	pc, [sp], #4
 2585              		.cfi_endproc
 2586              	.LFE657:
 2587              		.size	_ZN3r2p5Topic12alloc_unsafeINS_7MessageEEEbRPT_, .-_ZN3r2p5Topic12alloc_unsafeINS_7MessageEE
 2588 002a 00BFAFF3 		.section	.text._ZN3r2p10StaticListINS_15LocalSubscriberEE5beginEv,"axG",%progbits,_ZN3r2p10StaticL
ARM GAS  /tmp/cc9AvIGf.s 			page 47


 2588      0080
 2589              		.align	2
 2590              		.p2align 4,,15
 2591              		.weak	_ZN3r2p10StaticListINS_15LocalSubscriberEE5beginEv
 2592              		.thumb
 2593              		.thumb_func
 2594              		.type	_ZN3r2p10StaticListINS_15LocalSubscriberEE5beginEv, %function
 2595              	_ZN3r2p10StaticListINS_15LocalSubscriberEE5beginEv:
 2596              	.LFB658:
 2597              		.loc 11 480 0
 2598              		.cfi_startproc
 2599              		@ args = 0, pretend = 0, frame = 8
 2600              		@ frame_needed = 0, uses_anonymous_args = 0
 2601 0000 00B5     		push	{lr}
 2602              		.cfi_def_cfa_offset 4
 2603              		.cfi_offset 14, -4
 2604 0002 83B0     		sub	sp, sp, #12
 2605              		.cfi_def_cfa_offset 16
 2606 0004 0190     		str	r0, [sp, #4]
 2607 0006 0091     		str	r1, [sp]
 2608              		.loc 11 481 0
 2609 0008 0098     		ldr	r0, [sp]
 2610 000a FFF7FEFF 		bl	_ZNK3r2p10StaticListINS_15LocalSubscriberEE8get_headEv
 2611 000e 0346     		mov	r3, r0
 2612 0010 0198     		ldr	r0, [sp, #4]
 2613 0012 1946     		mov	r1, r3
 2614 0014 FFF7FEFF 		bl	_ZN3r2p10StaticListINS_15LocalSubscriberEE8IteratorC1EPKNS2_4LinkE
 2615              		.loc 11 482 0
 2616 0018 0198     		ldr	r0, [sp, #4]
 2617 001a 03B0     		add	sp, sp, #12
 2618              		.cfi_def_cfa_offset 4
 2619              		@ sp needed
 2620 001c 5DF804FB 		ldr	pc, [sp], #4
 2621              		.cfi_endproc
 2622              	.LFE658:
 2623              		.size	_ZN3r2p10StaticListINS_15LocalSubscriberEE5beginEv, .-_ZN3r2p10StaticListINS_15LocalSubscrib
 2624              		.section	.text._ZN3r2p10StaticListINS_15LocalSubscriberEE3endEv,"axG",%progbits,_ZN3r2p10StaticLis
 2625              		.align	2
 2626              		.p2align 4,,15
 2627              		.weak	_ZN3r2p10StaticListINS_15LocalSubscriberEE3endEv
 2628              		.thumb
 2629              		.thumb_func
 2630              		.type	_ZN3r2p10StaticListINS_15LocalSubscriberEE3endEv, %function
 2631              	_ZN3r2p10StaticListINS_15LocalSubscriberEE3endEv:
 2632              	.LFB662:
 2633              		.loc 11 484 0
 2634              		.cfi_startproc
 2635              		@ args = 0, pretend = 0, frame = 8
 2636              		@ frame_needed = 0, uses_anonymous_args = 0
 2637 0000 00B5     		push	{lr}
 2638              		.cfi_def_cfa_offset 4
 2639              		.cfi_offset 14, -4
 2640 0002 83B0     		sub	sp, sp, #12
 2641              		.cfi_def_cfa_offset 16
 2642 0004 0190     		str	r0, [sp, #4]
 2643 0006 0091     		str	r1, [sp]
 2644              		.loc 11 485 0
ARM GAS  /tmp/cc9AvIGf.s 			page 48


 2645 0008 0198     		ldr	r0, [sp, #4]
 2646 000a 0021     		movs	r1, #0
 2647 000c FFF7FEFF 		bl	_ZN3r2p10StaticListINS_15LocalSubscriberEE8IteratorC1EPKNS2_4LinkE
 2648              		.loc 11 486 0
 2649 0010 0198     		ldr	r0, [sp, #4]
 2650 0012 03B0     		add	sp, sp, #12
 2651              		.cfi_def_cfa_offset 4
 2652              		@ sp needed
 2653 0014 5DF804FB 		ldr	pc, [sp], #4
 2654              		.cfi_endproc
 2655              	.LFE662:
 2656              		.size	_ZN3r2p10StaticListINS_15LocalSubscriberEE3endEv, .-_ZN3r2p10StaticListINS_15LocalSubscriber
 2657 0018 AFF30080 		.section	.text._ZNK3r2p10StaticListINS_15LocalSubscriberEE8IteratorneERKS3_,"axG",%progbits,_ZNK3r
 2657      AFF30080 
 2658              		.align	2
 2659              		.p2align 4,,15
 2660              		.weak	_ZNK3r2p10StaticListINS_15LocalSubscriberEE8IteratorneERKS3_
 2661              		.thumb
 2662              		.thumb_func
 2663              		.type	_ZNK3r2p10StaticListINS_15LocalSubscriberEE8IteratorneERKS3_, %function
 2664              	_ZNK3r2p10StaticListINS_15LocalSubscriberEE8IteratorneERKS3_:
 2665              	.LFB663:
 2666              		.loc 11 183 0
 2667              		.cfi_startproc
 2668              		@ args = 0, pretend = 0, frame = 8
 2669              		@ frame_needed = 0, uses_anonymous_args = 0
 2670              		@ link register save eliminated.
 2671 0000 82B0     		sub	sp, sp, #8
 2672              		.cfi_def_cfa_offset 8
 2673 0002 0190     		str	r0, [sp, #4]
 2674 0004 0091     		str	r1, [sp]
 2675              		.loc 11 184 0
 2676 0006 019B     		ldr	r3, [sp, #4]
 2677 0008 1A68     		ldr	r2, [r3]
 2678 000a 009B     		ldr	r3, [sp]
 2679 000c 1B68     		ldr	r3, [r3]
 2680 000e 9A42     		cmp	r2, r3
 2681 0010 14BF     		ite	ne
 2682 0012 0123     		movne	r3, #1
 2683 0014 0023     		moveq	r3, #0
 2684 0016 DBB2     		uxtb	r3, r3
 2685              		.loc 11 185 0
 2686 0018 1846     		mov	r0, r3
 2687 001a 02B0     		add	sp, sp, #8
 2688              		.cfi_def_cfa_offset 0
 2689              		@ sp needed
 2690 001c 7047     		bx	lr
 2691              		.cfi_endproc
 2692              	.LFE663:
 2693              		.size	_ZNK3r2p10StaticListINS_15LocalSubscriberEE8IteratorneERKS3_, .-_ZNK3r2p10StaticListINS_15Lo
 2694 001e 00BF     		.section	.text._ZN3r2p10StaticListINS_15LocalSubscriberEE8IteratorppEv,"axG",%progbits,_ZN3r2p10St
 2695              		.align	2
 2696              		.p2align 4,,15
 2697              		.weak	_ZN3r2p10StaticListINS_15LocalSubscriberEE8IteratorppEv
 2698              		.thumb
 2699              		.thumb_func
 2700              		.type	_ZN3r2p10StaticListINS_15LocalSubscriberEE8IteratorppEv, %function
ARM GAS  /tmp/cc9AvIGf.s 			page 49


 2701              	_ZN3r2p10StaticListINS_15LocalSubscriberEE8IteratorppEv:
 2702              	.LFB664:
 2703              		.loc 11 164 0
 2704              		.cfi_startproc
 2705              		@ args = 0, pretend = 0, frame = 8
 2706              		@ frame_needed = 0, uses_anonymous_args = 0
 2707 0000 00B5     		push	{lr}
 2708              		.cfi_def_cfa_offset 4
 2709              		.cfi_offset 14, -4
 2710 0002 83B0     		sub	sp, sp, #12
 2711              		.cfi_def_cfa_offset 16
 2712 0004 0190     		str	r0, [sp, #4]
 2713              		.loc 11 165 0
 2714 0006 FFF7FEFF 		bl	_ZN3r2p7SysLock7acquireEv
 2715              		.loc 11 166 0
 2716 000a 019B     		ldr	r3, [sp, #4]
 2717 000c 1B68     		ldr	r3, [r3]
 2718 000e 1A68     		ldr	r2, [r3]
 2719 0010 019B     		ldr	r3, [sp, #4]
 2720 0012 1A60     		str	r2, [r3]
 2721              		.loc 11 167 0
 2722 0014 FFF7FEFF 		bl	_ZN3r2p7SysLock7releaseEv
 2723              		.loc 11 168 0
 2724 0018 019B     		ldr	r3, [sp, #4]
 2725              		.loc 11 169 0
 2726 001a 1846     		mov	r0, r3
 2727 001c 03B0     		add	sp, sp, #12
 2728              		.cfi_def_cfa_offset 4
 2729              		@ sp needed
 2730 001e 5DF804FB 		ldr	pc, [sp], #4
 2731              		.cfi_endproc
 2732              	.LFE664:
 2733              		.size	_ZN3r2p10StaticListINS_15LocalSubscriberEE8IteratorppEv, .-_ZN3r2p10StaticListINS_15LocalSub
 2734 0022 00BFAFF3 		.section	.text._ZNK3r2p10StaticListINS_15LocalSubscriberEE8IteratorptEv,"axG",%progbits,_ZNK3r2p10
 2734      0080AFF3 
 2734      0080AFF3 
 2734      0080
 2735              		.align	2
 2736              		.p2align 4,,15
 2737              		.weak	_ZNK3r2p10StaticListINS_15LocalSubscriberEE8IteratorptEv
 2738              		.thumb
 2739              		.thumb_func
 2740              		.type	_ZNK3r2p10StaticListINS_15LocalSubscriberEE8IteratorptEv, %function
 2741              	_ZNK3r2p10StaticListINS_15LocalSubscriberEE8IteratorptEv:
 2742              	.LFB665:
 2743              		.loc 11 156 0
 2744              		.cfi_startproc
 2745              		@ args = 0, pretend = 0, frame = 8
 2746              		@ frame_needed = 0, uses_anonymous_args = 0
 2747              		@ link register save eliminated.
 2748 0000 82B0     		sub	sp, sp, #8
 2749              		.cfi_def_cfa_offset 8
 2750 0002 0190     		str	r0, [sp, #4]
 2751              		.loc 11 157 0
 2752 0004 019B     		ldr	r3, [sp, #4]
 2753 0006 1B68     		ldr	r3, [r3]
 2754 0008 5B68     		ldr	r3, [r3, #4]
ARM GAS  /tmp/cc9AvIGf.s 			page 50


 2755              		.loc 11 158 0
 2756 000a 1846     		mov	r0, r3
 2757 000c 02B0     		add	sp, sp, #8
 2758              		.cfi_def_cfa_offset 0
 2759              		@ sp needed
 2760 000e 7047     		bx	lr
 2761              		.cfi_endproc
 2762              	.LFE665:
 2763              		.size	_ZNK3r2p10StaticListINS_15LocalSubscriberEE8IteratorptEv, .-_ZNK3r2p10StaticListINS_15LocalS
 2764              		.section	.text._ZN3r2p10StaticListINS_16RemoteSubscriberEE5beginEv,"axG",%progbits,_ZN3r2p10Static
 2765              		.align	2
 2766              		.p2align 4,,15
 2767              		.weak	_ZN3r2p10StaticListINS_16RemoteSubscriberEE5beginEv
 2768              		.thumb
 2769              		.thumb_func
 2770              		.type	_ZN3r2p10StaticListINS_16RemoteSubscriberEE5beginEv, %function
 2771              	_ZN3r2p10StaticListINS_16RemoteSubscriberEE5beginEv:
 2772              	.LFB666:
 2773              		.loc 11 480 0
 2774              		.cfi_startproc
 2775              		@ args = 0, pretend = 0, frame = 8
 2776              		@ frame_needed = 0, uses_anonymous_args = 0
 2777 0000 00B5     		push	{lr}
 2778              		.cfi_def_cfa_offset 4
 2779              		.cfi_offset 14, -4
 2780 0002 83B0     		sub	sp, sp, #12
 2781              		.cfi_def_cfa_offset 16
 2782 0004 0190     		str	r0, [sp, #4]
 2783 0006 0091     		str	r1, [sp]
 2784              		.loc 11 481 0
 2785 0008 0098     		ldr	r0, [sp]
 2786 000a FFF7FEFF 		bl	_ZNK3r2p10StaticListINS_16RemoteSubscriberEE8get_headEv
 2787 000e 0346     		mov	r3, r0
 2788 0010 0198     		ldr	r0, [sp, #4]
 2789 0012 1946     		mov	r1, r3
 2790 0014 FFF7FEFF 		bl	_ZN3r2p10StaticListINS_16RemoteSubscriberEE8IteratorC1EPKNS2_4LinkE
 2791              		.loc 11 482 0
 2792 0018 0198     		ldr	r0, [sp, #4]
 2793 001a 03B0     		add	sp, sp, #12
 2794              		.cfi_def_cfa_offset 4
 2795              		@ sp needed
 2796 001c 5DF804FB 		ldr	pc, [sp], #4
 2797              		.cfi_endproc
 2798              	.LFE666:
 2799              		.size	_ZN3r2p10StaticListINS_16RemoteSubscriberEE5beginEv, .-_ZN3r2p10StaticListINS_16RemoteSubscr
 2800              		.section	.text._ZN3r2p10StaticListINS_16RemoteSubscriberEE3endEv,"axG",%progbits,_ZN3r2p10StaticLi
 2801              		.align	2
 2802              		.p2align 4,,15
 2803              		.weak	_ZN3r2p10StaticListINS_16RemoteSubscriberEE3endEv
 2804              		.thumb
 2805              		.thumb_func
 2806              		.type	_ZN3r2p10StaticListINS_16RemoteSubscriberEE3endEv, %function
 2807              	_ZN3r2p10StaticListINS_16RemoteSubscriberEE3endEv:
 2808              	.LFB670:
 2809              		.loc 11 484 0
 2810              		.cfi_startproc
 2811              		@ args = 0, pretend = 0, frame = 8
ARM GAS  /tmp/cc9AvIGf.s 			page 51


 2812              		@ frame_needed = 0, uses_anonymous_args = 0
 2813 0000 00B5     		push	{lr}
 2814              		.cfi_def_cfa_offset 4
 2815              		.cfi_offset 14, -4
 2816 0002 83B0     		sub	sp, sp, #12
 2817              		.cfi_def_cfa_offset 16
 2818 0004 0190     		str	r0, [sp, #4]
 2819 0006 0091     		str	r1, [sp]
 2820              		.loc 11 485 0
 2821 0008 0198     		ldr	r0, [sp, #4]
 2822 000a 0021     		movs	r1, #0
 2823 000c FFF7FEFF 		bl	_ZN3r2p10StaticListINS_16RemoteSubscriberEE8IteratorC1EPKNS2_4LinkE
 2824              		.loc 11 486 0
 2825 0010 0198     		ldr	r0, [sp, #4]
 2826 0012 03B0     		add	sp, sp, #12
 2827              		.cfi_def_cfa_offset 4
 2828              		@ sp needed
 2829 0014 5DF804FB 		ldr	pc, [sp], #4
 2830              		.cfi_endproc
 2831              	.LFE670:
 2832              		.size	_ZN3r2p10StaticListINS_16RemoteSubscriberEE3endEv, .-_ZN3r2p10StaticListINS_16RemoteSubscrib
 2833 0018 AFF30080 		.section	.text._ZNK3r2p10StaticListINS_16RemoteSubscriberEE8IteratorneERKS3_,"axG",%progbits,_ZNK3
 2833      AFF30080 
 2834              		.align	2
 2835              		.p2align 4,,15
 2836              		.weak	_ZNK3r2p10StaticListINS_16RemoteSubscriberEE8IteratorneERKS3_
 2837              		.thumb
 2838              		.thumb_func
 2839              		.type	_ZNK3r2p10StaticListINS_16RemoteSubscriberEE8IteratorneERKS3_, %function
 2840              	_ZNK3r2p10StaticListINS_16RemoteSubscriberEE8IteratorneERKS3_:
 2841              	.LFB671:
 2842              		.loc 11 183 0
 2843              		.cfi_startproc
 2844              		@ args = 0, pretend = 0, frame = 8
 2845              		@ frame_needed = 0, uses_anonymous_args = 0
 2846              		@ link register save eliminated.
 2847 0000 82B0     		sub	sp, sp, #8
 2848              		.cfi_def_cfa_offset 8
 2849 0002 0190     		str	r0, [sp, #4]
 2850 0004 0091     		str	r1, [sp]
 2851              		.loc 11 184 0
 2852 0006 019B     		ldr	r3, [sp, #4]
 2853 0008 1A68     		ldr	r2, [r3]
 2854 000a 009B     		ldr	r3, [sp]
 2855 000c 1B68     		ldr	r3, [r3]
 2856 000e 9A42     		cmp	r2, r3
 2857 0010 14BF     		ite	ne
 2858 0012 0123     		movne	r3, #1
 2859 0014 0023     		moveq	r3, #0
 2860 0016 DBB2     		uxtb	r3, r3
 2861              		.loc 11 185 0
 2862 0018 1846     		mov	r0, r3
 2863 001a 02B0     		add	sp, sp, #8
 2864              		.cfi_def_cfa_offset 0
 2865              		@ sp needed
 2866 001c 7047     		bx	lr
 2867              		.cfi_endproc
ARM GAS  /tmp/cc9AvIGf.s 			page 52


 2868              	.LFE671:
 2869              		.size	_ZNK3r2p10StaticListINS_16RemoteSubscriberEE8IteratorneERKS3_, .-_ZNK3r2p10StaticListINS_16R
 2870 001e 00BF     		.section	.text._ZN3r2p10StaticListINS_16RemoteSubscriberEE8IteratorppEv,"axG",%progbits,_ZN3r2p10S
 2871              		.align	2
 2872              		.p2align 4,,15
 2873              		.weak	_ZN3r2p10StaticListINS_16RemoteSubscriberEE8IteratorppEv
 2874              		.thumb
 2875              		.thumb_func
 2876              		.type	_ZN3r2p10StaticListINS_16RemoteSubscriberEE8IteratorppEv, %function
 2877              	_ZN3r2p10StaticListINS_16RemoteSubscriberEE8IteratorppEv:
 2878              	.LFB672:
 2879              		.loc 11 164 0
 2880              		.cfi_startproc
 2881              		@ args = 0, pretend = 0, frame = 8
 2882              		@ frame_needed = 0, uses_anonymous_args = 0
 2883 0000 00B5     		push	{lr}
 2884              		.cfi_def_cfa_offset 4
 2885              		.cfi_offset 14, -4
 2886 0002 83B0     		sub	sp, sp, #12
 2887              		.cfi_def_cfa_offset 16
 2888 0004 0190     		str	r0, [sp, #4]
 2889              		.loc 11 165 0
 2890 0006 FFF7FEFF 		bl	_ZN3r2p7SysLock7acquireEv
 2891              		.loc 11 166 0
 2892 000a 019B     		ldr	r3, [sp, #4]
 2893 000c 1B68     		ldr	r3, [r3]
 2894 000e 1A68     		ldr	r2, [r3]
 2895 0010 019B     		ldr	r3, [sp, #4]
 2896 0012 1A60     		str	r2, [r3]
 2897              		.loc 11 167 0
 2898 0014 FFF7FEFF 		bl	_ZN3r2p7SysLock7releaseEv
 2899              		.loc 11 168 0
 2900 0018 019B     		ldr	r3, [sp, #4]
 2901              		.loc 11 169 0
 2902 001a 1846     		mov	r0, r3
 2903 001c 03B0     		add	sp, sp, #12
 2904              		.cfi_def_cfa_offset 4
 2905              		@ sp needed
 2906 001e 5DF804FB 		ldr	pc, [sp], #4
 2907              		.cfi_endproc
 2908              	.LFE672:
 2909              		.size	_ZN3r2p10StaticListINS_16RemoteSubscriberEE8IteratorppEv, .-_ZN3r2p10StaticListINS_16RemoteS
 2910 0022 00BFAFF3 		.section	.text._ZNK3r2p10StaticListINS_16RemoteSubscriberEE8IteratorptEv,"axG",%progbits,_ZNK3r2p1
 2910      0080AFF3 
 2910      0080AFF3 
 2910      0080
 2911              		.align	2
 2912              		.p2align 4,,15
 2913              		.weak	_ZNK3r2p10StaticListINS_16RemoteSubscriberEE8IteratorptEv
 2914              		.thumb
 2915              		.thumb_func
 2916              		.type	_ZNK3r2p10StaticListINS_16RemoteSubscriberEE8IteratorptEv, %function
 2917              	_ZNK3r2p10StaticListINS_16RemoteSubscriberEE8IteratorptEv:
 2918              	.LFB673:
 2919              		.loc 11 156 0
 2920              		.cfi_startproc
 2921              		@ args = 0, pretend = 0, frame = 8
ARM GAS  /tmp/cc9AvIGf.s 			page 53


 2922              		@ frame_needed = 0, uses_anonymous_args = 0
 2923              		@ link register save eliminated.
 2924 0000 82B0     		sub	sp, sp, #8
 2925              		.cfi_def_cfa_offset 8
 2926 0002 0190     		str	r0, [sp, #4]
 2927              		.loc 11 157 0
 2928 0004 019B     		ldr	r3, [sp, #4]
 2929 0006 1B68     		ldr	r3, [r3]
 2930 0008 5B68     		ldr	r3, [r3, #4]
 2931              		.loc 11 158 0
 2932 000a 1846     		mov	r0, r3
 2933 000c 02B0     		add	sp, sp, #8
 2934              		.cfi_def_cfa_offset 0
 2935              		@ sp needed
 2936 000e 7047     		bx	lr
 2937              		.cfi_endproc
 2938              	.LFE673:
 2939              		.size	_ZNK3r2p10StaticListINS_16RemoteSubscriberEE8IteratorptEv, .-_ZNK3r2p10StaticListINS_16Remot
 2940              		.section	.text._ZN3r2p5Topic5allocINS_7MessageEEEbRPT_,"axG",%progbits,_ZN3r2p5Topic5allocINS_7Mes
 2941              		.align	2
 2942              		.p2align 4,,15
 2943              		.weak	_ZN3r2p5Topic5allocINS_7MessageEEEbRPT_
 2944              		.thumb
 2945              		.thumb_func
 2946              		.type	_ZN3r2p5Topic5allocINS_7MessageEEEbRPT_, %function
 2947              	_ZN3r2p5Topic5allocINS_7MessageEEEbRPT_:
 2948              	.LFB674:
 2949              		.loc 8 305 0
 2950              		.cfi_startproc
 2951              		@ args = 0, pretend = 0, frame = 8
 2952              		@ frame_needed = 0, uses_anonymous_args = 0
 2953 0000 00B5     		push	{lr}
 2954              		.cfi_def_cfa_offset 4
 2955              		.cfi_offset 14, -4
 2956 0002 83B0     		sub	sp, sp, #12
 2957              		.cfi_def_cfa_offset 16
 2958 0004 0190     		str	r0, [sp, #4]
 2959 0006 0091     		str	r1, [sp]
 2960              		.loc 8 308 0
 2961 0008 0198     		ldr	r0, [sp, #4]
 2962 000a FFF7FEFF 		bl	_ZN3r2p5Topic5allocEv
 2963 000e 0246     		mov	r2, r0
 2964 0010 009B     		ldr	r3, [sp]
 2965 0012 1A60     		str	r2, [r3]
 2966 0014 009B     		ldr	r3, [sp]
 2967 0016 1B68     		ldr	r3, [r3]
 2968 0018 002B     		cmp	r3, #0
 2969 001a 14BF     		ite	ne
 2970 001c 0123     		movne	r3, #1
 2971 001e 0023     		moveq	r3, #0
 2972 0020 DBB2     		uxtb	r3, r3
 2973              		.loc 8 309 0
 2974 0022 1846     		mov	r0, r3
 2975 0024 03B0     		add	sp, sp, #12
 2976              		.cfi_def_cfa_offset 4
 2977              		@ sp needed
 2978 0026 5DF804FB 		ldr	pc, [sp], #4
ARM GAS  /tmp/cc9AvIGf.s 			page 54


 2979              		.cfi_endproc
 2980              	.LFE674:
 2981              		.size	_ZN3r2p5Topic5allocINS_7MessageEEEbRPT_, .-_ZN3r2p5Topic5allocINS_7MessageEEEbRPT_
 2982 002a 00BFAFF3 		.section	.text._ZN3r2p10StaticListINS_15LocalSubscriberEE11link_unsafeERNS2_4LinkE,"axG",%progbits
 2982      0080
 2983              		.align	2
 2984              		.p2align 4,,15
 2985              		.weak	_ZN3r2p10StaticListINS_15LocalSubscriberEE11link_unsafeERNS2_4LinkE
 2986              		.thumb
 2987              		.thumb_func
 2988              		.type	_ZN3r2p10StaticListINS_15LocalSubscriberEE11link_unsafeERNS2_4LinkE, %function
 2989              	_ZN3r2p10StaticListINS_15LocalSubscriberEE11link_unsafeERNS2_4LinkE:
 2990              	.LFB675:
 2991              		.loc 11 407 0
 2992              		.cfi_startproc
 2993              		@ args = 0, pretend = 0, frame = 8
 2994              		@ frame_needed = 0, uses_anonymous_args = 0
 2995 0000 00B5     		push	{lr}
 2996              		.cfi_def_cfa_offset 4
 2997              		.cfi_offset 14, -4
 2998 0002 83B0     		sub	sp, sp, #12
 2999              		.cfi_def_cfa_offset 16
 3000 0004 0190     		str	r0, [sp, #4]
 3001 0006 0091     		str	r1, [sp]
 3002              		.loc 11 408 0
 3003 0008 009B     		ldr	r3, [sp]
 3004 000a 1B68     		ldr	r3, [r3]
 3005 000c 002B     		cmp	r3, #0
 3006 000e 02D0     		beq	.L171
 3007              		.loc 11 408 0 is_stmt 0 discriminator 1
 3008 0010 0B48     		ldr	r0, .L173
 3009 0012 FFF7FEFF 		bl	chDbgPanic
 3010              	.L171:
 3011              		.loc 11 409 0 is_stmt 1
 3012 0016 0198     		ldr	r0, [sp, #4]
 3013 0018 0099     		ldr	r1, [sp]
 3014 001a FFF7FEFF 		bl	_ZN3r2p10StaticListINS_15LocalSubscriberEE13unlink_unsafeERNS2_4LinkE
 3015 001e 0346     		mov	r3, r0
 3016 0020 002B     		cmp	r3, #0
 3017 0022 02D0     		beq	.L172
 3018              		.loc 11 409 0 is_stmt 0 discriminator 1
 3019 0024 0648     		ldr	r0, .L173
 3020 0026 FFF7FEFF 		bl	chDbgPanic
 3021              	.L172:
 3022              		.loc 11 411 0 is_stmt 1
 3023 002a 019B     		ldr	r3, [sp, #4]
 3024 002c 1A68     		ldr	r2, [r3]
 3025 002e 009B     		ldr	r3, [sp]
 3026 0030 1A60     		str	r2, [r3]
 3027              		.loc 11 412 0
 3028 0032 019B     		ldr	r3, [sp, #4]
 3029 0034 009A     		ldr	r2, [sp]
 3030 0036 1A60     		str	r2, [r3]
 3031              		.loc 11 413 0
 3032 0038 03B0     		add	sp, sp, #12
 3033              		.cfi_def_cfa_offset 4
 3034              		@ sp needed
ARM GAS  /tmp/cc9AvIGf.s 			page 55


 3035 003a 5DF804FB 		ldr	pc, [sp], #4
 3036              	.L174:
 3037 003e 00BF     		.align	2
 3038              	.L173:
 3039 0040 00000000 		.word	.LC0
 3040              		.cfi_endproc
 3041              	.LFE675:
 3042              		.size	_ZN3r2p10StaticListINS_15LocalSubscriberEE11link_unsafeERNS2_4LinkE, .-_ZN3r2p10StaticListIN
 3043 0044 AFF30080 		.section	.text._ZN3r2p10StaticListINS_16RemoteSubscriberEE11link_unsafeERNS2_4LinkE,"axG",%progbit
 3043      AFF30080 
 3043      AFF30080 
 3044              		.align	2
 3045              		.p2align 4,,15
 3046              		.weak	_ZN3r2p10StaticListINS_16RemoteSubscriberEE11link_unsafeERNS2_4LinkE
 3047              		.thumb
 3048              		.thumb_func
 3049              		.type	_ZN3r2p10StaticListINS_16RemoteSubscriberEE11link_unsafeERNS2_4LinkE, %function
 3050              	_ZN3r2p10StaticListINS_16RemoteSubscriberEE11link_unsafeERNS2_4LinkE:
 3051              	.LFB676:
 3052              		.loc 11 407 0
 3053              		.cfi_startproc
 3054              		@ args = 0, pretend = 0, frame = 8
 3055              		@ frame_needed = 0, uses_anonymous_args = 0
 3056 0000 00B5     		push	{lr}
 3057              		.cfi_def_cfa_offset 4
 3058              		.cfi_offset 14, -4
 3059 0002 83B0     		sub	sp, sp, #12
 3060              		.cfi_def_cfa_offset 16
 3061 0004 0190     		str	r0, [sp, #4]
 3062 0006 0091     		str	r1, [sp]
 3063              		.loc 11 408 0
 3064 0008 009B     		ldr	r3, [sp]
 3065 000a 1B68     		ldr	r3, [r3]
 3066 000c 002B     		cmp	r3, #0
 3067 000e 02D0     		beq	.L176
 3068              		.loc 11 408 0 is_stmt 0 discriminator 1
 3069 0010 0B48     		ldr	r0, .L178
 3070 0012 FFF7FEFF 		bl	chDbgPanic
 3071              	.L176:
 3072              		.loc 11 409 0 is_stmt 1
 3073 0016 0198     		ldr	r0, [sp, #4]
 3074 0018 0099     		ldr	r1, [sp]
 3075 001a FFF7FEFF 		bl	_ZN3r2p10StaticListINS_16RemoteSubscriberEE13unlink_unsafeERNS2_4LinkE
 3076 001e 0346     		mov	r3, r0
 3077 0020 002B     		cmp	r3, #0
 3078 0022 02D0     		beq	.L177
 3079              		.loc 11 409 0 is_stmt 0 discriminator 1
 3080 0024 0648     		ldr	r0, .L178
 3081 0026 FFF7FEFF 		bl	chDbgPanic
 3082              	.L177:
 3083              		.loc 11 411 0 is_stmt 1
 3084 002a 019B     		ldr	r3, [sp, #4]
 3085 002c 1A68     		ldr	r2, [r3]
 3086 002e 009B     		ldr	r3, [sp]
 3087 0030 1A60     		str	r2, [r3]
 3088              		.loc 11 412 0
 3089 0032 019B     		ldr	r3, [sp, #4]
ARM GAS  /tmp/cc9AvIGf.s 			page 56


 3090 0034 009A     		ldr	r2, [sp]
 3091 0036 1A60     		str	r2, [r3]
 3092              		.loc 11 413 0
 3093 0038 03B0     		add	sp, sp, #12
 3094              		.cfi_def_cfa_offset 4
 3095              		@ sp needed
 3096 003a 5DF804FB 		ldr	pc, [sp], #4
 3097              	.L179:
 3098 003e 00BF     		.align	2
 3099              	.L178:
 3100 0040 00000000 		.word	.LC0
 3101              		.cfi_endproc
 3102              	.LFE676:
 3103              		.size	_ZN3r2p10StaticListINS_16RemoteSubscriberEE11link_unsafeERNS2_4LinkE, .-_ZN3r2p10StaticListI
 3104 0044 AFF30080 		.section	.text._ZN3r2p10StaticListINS_15LocalSubscriberEEC2Ev,"axG",%progbits,_ZN3r2p10StaticListI
 3104      AFF30080 
 3104      AFF30080 
 3105              		.align	2
 3106              		.p2align 4,,15
 3107              		.weak	_ZN3r2p10StaticListINS_15LocalSubscriberEEC2Ev
 3108              		.thumb
 3109              		.thumb_func
 3110              		.type	_ZN3r2p10StaticListINS_15LocalSubscriberEEC2Ev, %function
 3111              	_ZN3r2p10StaticListINS_15LocalSubscriberEEC2Ev:
 3112              	.LFB678:
 3113              		.loc 11 506 0
 3114              		.cfi_startproc
 3115              		@ args = 0, pretend = 0, frame = 8
 3116              		@ frame_needed = 0, uses_anonymous_args = 0
 3117 0000 00B5     		push	{lr}
 3118              		.cfi_def_cfa_offset 4
 3119              		.cfi_offset 14, -4
 3120 0002 83B0     		sub	sp, sp, #12
 3121              		.cfi_def_cfa_offset 16
 3122 0004 0190     		str	r0, [sp, #4]
 3123              	.LBB46:
 3124              		.loc 11 506 0
 3125 0006 0198     		ldr	r0, [sp, #4]
 3126 0008 FFF7FEFF 		bl	_ZN3r2p10UncopyableC2Ev
 3127 000c 019B     		ldr	r3, [sp, #4]
 3128 000e 0022     		movs	r2, #0
 3129 0010 1A60     		str	r2, [r3]
 3130              	.LBE46:
 3131 0012 019B     		ldr	r3, [sp, #4]
 3132 0014 1846     		mov	r0, r3
 3133 0016 03B0     		add	sp, sp, #12
 3134              		.cfi_def_cfa_offset 4
 3135              		@ sp needed
 3136 0018 5DF804FB 		ldr	pc, [sp], #4
 3137              		.cfi_endproc
 3138              	.LFE678:
 3139              		.size	_ZN3r2p10StaticListINS_15LocalSubscriberEEC2Ev, .-_ZN3r2p10StaticListINS_15LocalSubscriberEE
 3140              		.weak	_ZN3r2p10StaticListINS_15LocalSubscriberEEC1Ev
 3141              		.thumb_set _ZN3r2p10StaticListINS_15LocalSubscriberEEC1Ev,_ZN3r2p10StaticListINS_15LocalSubscriber
 3142 001c AFF30080 		.section	.text._ZN3r2p10StaticListINS_16RemoteSubscriberEEC2Ev,"axG",%progbits,_ZN3r2p10StaticList
 3143              		.align	2
 3144              		.p2align 4,,15
ARM GAS  /tmp/cc9AvIGf.s 			page 57


 3145              		.weak	_ZN3r2p10StaticListINS_16RemoteSubscriberEEC2Ev
 3146              		.thumb
 3147              		.thumb_func
 3148              		.type	_ZN3r2p10StaticListINS_16RemoteSubscriberEEC2Ev, %function
 3149              	_ZN3r2p10StaticListINS_16RemoteSubscriberEEC2Ev:
 3150              	.LFB681:
 3151              		.loc 11 506 0
 3152              		.cfi_startproc
 3153              		@ args = 0, pretend = 0, frame = 8
 3154              		@ frame_needed = 0, uses_anonymous_args = 0
 3155 0000 00B5     		push	{lr}
 3156              		.cfi_def_cfa_offset 4
 3157              		.cfi_offset 14, -4
 3158 0002 83B0     		sub	sp, sp, #12
 3159              		.cfi_def_cfa_offset 16
 3160 0004 0190     		str	r0, [sp, #4]
 3161              	.LBB47:
 3162              		.loc 11 506 0
 3163 0006 0198     		ldr	r0, [sp, #4]
 3164 0008 FFF7FEFF 		bl	_ZN3r2p10UncopyableC2Ev
 3165 000c 019B     		ldr	r3, [sp, #4]
 3166 000e 0022     		movs	r2, #0
 3167 0010 1A60     		str	r2, [r3]
 3168              	.LBE47:
 3169 0012 019B     		ldr	r3, [sp, #4]
 3170 0014 1846     		mov	r0, r3
 3171 0016 03B0     		add	sp, sp, #12
 3172              		.cfi_def_cfa_offset 4
 3173              		@ sp needed
 3174 0018 5DF804FB 		ldr	pc, [sp], #4
 3175              		.cfi_endproc
 3176              	.LFE681:
 3177              		.size	_ZN3r2p10StaticListINS_16RemoteSubscriberEEC2Ev, .-_ZN3r2p10StaticListINS_16RemoteSubscriber
 3178              		.weak	_ZN3r2p10StaticListINS_16RemoteSubscriberEEC1Ev
 3179              		.thumb_set _ZN3r2p10StaticListINS_16RemoteSubscriberEEC1Ev,_ZN3r2p10StaticListINS_16RemoteSubscrib
 3180 001c AFF30080 		.section	.text._ZN3r2p10StaticListINS_5TopicEE4LinkC2ERS1_,"axG",%progbits,_ZN3r2p10StaticListINS_
 3181              		.align	2
 3182              		.p2align 4,,15
 3183              		.weak	_ZN3r2p10StaticListINS_5TopicEE4LinkC2ERS1_
 3184              		.thumb
 3185              		.thumb_func
 3186              		.type	_ZN3r2p10StaticListINS_5TopicEE4LinkC2ERS1_, %function
 3187              	_ZN3r2p10StaticListINS_5TopicEE4LinkC2ERS1_:
 3188              	.LFB684:
 3189              		.loc 11 21 0
 3190              		.cfi_startproc
 3191              		@ args = 0, pretend = 0, frame = 8
 3192              		@ frame_needed = 0, uses_anonymous_args = 0
 3193              		@ link register save eliminated.
 3194 0000 82B0     		sub	sp, sp, #8
 3195              		.cfi_def_cfa_offset 8
 3196 0002 0190     		str	r0, [sp, #4]
 3197 0004 0091     		str	r1, [sp]
 3198              	.LBB48:
 3199              		.loc 11 21 0
 3200 0006 019B     		ldr	r3, [sp, #4]
 3201 0008 0022     		movs	r2, #0
ARM GAS  /tmp/cc9AvIGf.s 			page 58


 3202 000a 1A60     		str	r2, [r3]
 3203 000c 019B     		ldr	r3, [sp, #4]
 3204 000e 009A     		ldr	r2, [sp]
 3205 0010 5A60     		str	r2, [r3, #4]
 3206              	.LBE48:
 3207 0012 019B     		ldr	r3, [sp, #4]
 3208 0014 1846     		mov	r0, r3
 3209 0016 02B0     		add	sp, sp, #8
 3210              		.cfi_def_cfa_offset 0
 3211              		@ sp needed
 3212 0018 7047     		bx	lr
 3213              		.cfi_endproc
 3214              	.LFE684:
 3215              		.size	_ZN3r2p10StaticListINS_5TopicEE4LinkC2ERS1_, .-_ZN3r2p10StaticListINS_5TopicEE4LinkC2ERS1_
 3216              		.weak	_ZN3r2p10StaticListINS_5TopicEE4LinkC1ERS1_
 3217              		.thumb_set _ZN3r2p10StaticListINS_5TopicEE4LinkC1ERS1_,_ZN3r2p10StaticListINS_5TopicEE4LinkC2ERS1_
 3218 001a 00BFAFF3 		.section	.text._ZNK3r2p10StaticListINS_15LocalSubscriberEE15get_head_unsafeEv,"axG",%progbits,_ZNK
 3218      0080
 3219              		.align	2
 3220              		.p2align 4,,15
 3221              		.weak	_ZNK3r2p10StaticListINS_15LocalSubscriberEE15get_head_unsafeEv
 3222              		.thumb
 3223              		.thumb_func
 3224              		.type	_ZNK3r2p10StaticListINS_15LocalSubscriberEE15get_head_unsafeEv, %function
 3225              	_ZNK3r2p10StaticListINS_15LocalSubscriberEE15get_head_unsafeEv:
 3226              	.LFB686:
 3227              		.loc 11 397 0
 3228              		.cfi_startproc
 3229              		@ args = 0, pretend = 0, frame = 8
 3230              		@ frame_needed = 0, uses_anonymous_args = 0
 3231              		@ link register save eliminated.
 3232 0000 82B0     		sub	sp, sp, #8
 3233              		.cfi_def_cfa_offset 8
 3234 0002 0190     		str	r0, [sp, #4]
 3235              		.loc 11 398 0
 3236 0004 019B     		ldr	r3, [sp, #4]
 3237 0006 1B68     		ldr	r3, [r3]
 3238              		.loc 11 399 0
 3239 0008 1846     		mov	r0, r3
 3240 000a 02B0     		add	sp, sp, #8
 3241              		.cfi_def_cfa_offset 0
 3242              		@ sp needed
 3243 000c 7047     		bx	lr
 3244              		.cfi_endproc
 3245              	.LFE686:
 3246              		.size	_ZNK3r2p10StaticListINS_15LocalSubscriberEE15get_head_unsafeEv, .-_ZNK3r2p10StaticListINS_15
 3247 000e 00BF     		.section	.text._ZN3r2p10StaticListINS_15LocalSubscriberEE14IteratorUnsafeC2EPKNS2_4LinkE,"axG",%pr
 3248              		.align	2
 3249              		.p2align 4,,15
 3250              		.weak	_ZN3r2p10StaticListINS_15LocalSubscriberEE14IteratorUnsafeC2EPKNS2_4LinkE
 3251              		.thumb
 3252              		.thumb_func
 3253              		.type	_ZN3r2p10StaticListINS_15LocalSubscriberEE14IteratorUnsafeC2EPKNS2_4LinkE, %function
 3254              	_ZN3r2p10StaticListINS_15LocalSubscriberEE14IteratorUnsafeC2EPKNS2_4LinkE:
 3255              	.LFB688:
 3256              		.loc 11 43 0
 3257              		.cfi_startproc
ARM GAS  /tmp/cc9AvIGf.s 			page 59


 3258              		@ args = 0, pretend = 0, frame = 8
 3259              		@ frame_needed = 0, uses_anonymous_args = 0
 3260              		@ link register save eliminated.
 3261 0000 82B0     		sub	sp, sp, #8
 3262              		.cfi_def_cfa_offset 8
 3263 0002 0190     		str	r0, [sp, #4]
 3264 0004 0091     		str	r1, [sp]
 3265              	.LBB49:
 3266              		.loc 11 43 0
 3267 0006 019B     		ldr	r3, [sp, #4]
 3268 0008 009A     		ldr	r2, [sp]
 3269 000a 1A60     		str	r2, [r3]
 3270              	.LBE49:
 3271 000c 019B     		ldr	r3, [sp, #4]
 3272 000e 1846     		mov	r0, r3
 3273 0010 02B0     		add	sp, sp, #8
 3274              		.cfi_def_cfa_offset 0
 3275              		@ sp needed
 3276 0012 7047     		bx	lr
 3277              		.cfi_endproc
 3278              	.LFE688:
 3279              		.size	_ZN3r2p10StaticListINS_15LocalSubscriberEE14IteratorUnsafeC2EPKNS2_4LinkE, .-_ZN3r2p10Static
 3280              		.weak	_ZN3r2p10StaticListINS_15LocalSubscriberEE14IteratorUnsafeC1EPKNS2_4LinkE
 3281              		.thumb_set _ZN3r2p10StaticListINS_15LocalSubscriberEE14IteratorUnsafeC1EPKNS2_4LinkE,_ZN3r2p10Stat
 3282 0014 AFF30080 		.section	.text._ZNK3r2p10StaticListINS_16RemoteSubscriberEE15get_head_unsafeEv,"axG",%progbits,_ZN
 3282      AFF30080 
 3282      AFF30080 
 3283              		.align	2
 3284              		.p2align 4,,15
 3285              		.weak	_ZNK3r2p10StaticListINS_16RemoteSubscriberEE15get_head_unsafeEv
 3286              		.thumb
 3287              		.thumb_func
 3288              		.type	_ZNK3r2p10StaticListINS_16RemoteSubscriberEE15get_head_unsafeEv, %function
 3289              	_ZNK3r2p10StaticListINS_16RemoteSubscriberEE15get_head_unsafeEv:
 3290              	.LFB690:
 3291              		.loc 11 397 0
 3292              		.cfi_startproc
 3293              		@ args = 0, pretend = 0, frame = 8
 3294              		@ frame_needed = 0, uses_anonymous_args = 0
 3295              		@ link register save eliminated.
 3296 0000 82B0     		sub	sp, sp, #8
 3297              		.cfi_def_cfa_offset 8
 3298 0002 0190     		str	r0, [sp, #4]
 3299              		.loc 11 398 0
 3300 0004 019B     		ldr	r3, [sp, #4]
 3301 0006 1B68     		ldr	r3, [r3]
 3302              		.loc 11 399 0
 3303 0008 1846     		mov	r0, r3
 3304 000a 02B0     		add	sp, sp, #8
 3305              		.cfi_def_cfa_offset 0
 3306              		@ sp needed
 3307 000c 7047     		bx	lr
 3308              		.cfi_endproc
 3309              	.LFE690:
 3310              		.size	_ZNK3r2p10StaticListINS_16RemoteSubscriberEE15get_head_unsafeEv, .-_ZNK3r2p10StaticListINS_1
 3311 000e 00BF     		.section	.text._ZN3r2p10StaticListINS_16RemoteSubscriberEE14IteratorUnsafeC2EPKNS2_4LinkE,"axG",%p
 3312              		.align	2
ARM GAS  /tmp/cc9AvIGf.s 			page 60


 3313              		.p2align 4,,15
 3314              		.weak	_ZN3r2p10StaticListINS_16RemoteSubscriberEE14IteratorUnsafeC2EPKNS2_4LinkE
 3315              		.thumb
 3316              		.thumb_func
 3317              		.type	_ZN3r2p10StaticListINS_16RemoteSubscriberEE14IteratorUnsafeC2EPKNS2_4LinkE, %function
 3318              	_ZN3r2p10StaticListINS_16RemoteSubscriberEE14IteratorUnsafeC2EPKNS2_4LinkE:
 3319              	.LFB692:
 3320              		.loc 11 43 0
 3321              		.cfi_startproc
 3322              		@ args = 0, pretend = 0, frame = 8
 3323              		@ frame_needed = 0, uses_anonymous_args = 0
 3324              		@ link register save eliminated.
 3325 0000 82B0     		sub	sp, sp, #8
 3326              		.cfi_def_cfa_offset 8
 3327 0002 0190     		str	r0, [sp, #4]
 3328 0004 0091     		str	r1, [sp]
 3329              	.LBB50:
 3330              		.loc 11 43 0
 3331 0006 019B     		ldr	r3, [sp, #4]
 3332 0008 009A     		ldr	r2, [sp]
 3333 000a 1A60     		str	r2, [r3]
 3334              	.LBE50:
 3335 000c 019B     		ldr	r3, [sp, #4]
 3336 000e 1846     		mov	r0, r3
 3337 0010 02B0     		add	sp, sp, #8
 3338              		.cfi_def_cfa_offset 0
 3339              		@ sp needed
 3340 0012 7047     		bx	lr
 3341              		.cfi_endproc
 3342              	.LFE692:
 3343              		.size	_ZN3r2p10StaticListINS_16RemoteSubscriberEE14IteratorUnsafeC2EPKNS2_4LinkE, .-_ZN3r2p10Stati
 3344              		.weak	_ZN3r2p10StaticListINS_16RemoteSubscriberEE14IteratorUnsafeC1EPKNS2_4LinkE
 3345              		.thumb_set _ZN3r2p10StaticListINS_16RemoteSubscriberEE14IteratorUnsafeC1EPKNS2_4LinkE,_ZN3r2p10Sta
 3346 0014 AFF30080 		.section	.text._ZNK3r2p10StaticListINS_15LocalSubscriberEE8get_headEv,"axG",%progbits,_ZNK3r2p10St
 3346      AFF30080 
 3346      AFF30080 
 3347              		.align	2
 3348              		.p2align 4,,15
 3349              		.weak	_ZNK3r2p10StaticListINS_15LocalSubscriberEE8get_headEv
 3350              		.thumb
 3351              		.thumb_func
 3352              		.type	_ZNK3r2p10StaticListINS_15LocalSubscriberEE8get_headEv, %function
 3353              	_ZNK3r2p10StaticListINS_15LocalSubscriberEE8get_headEv:
 3354              	.LFB695:
 3355              		.loc 11 595 0
 3356              		.cfi_startproc
 3357              		@ args = 0, pretend = 0, frame = 16
 3358              		@ frame_needed = 0, uses_anonymous_args = 0
 3359 0000 00B5     		push	{lr}
 3360              		.cfi_def_cfa_offset 4
 3361              		.cfi_offset 14, -4
 3362 0002 85B0     		sub	sp, sp, #20
 3363              		.cfi_def_cfa_offset 24
 3364 0004 0190     		str	r0, [sp, #4]
 3365              	.LBB51:
 3366              		.loc 11 597 0
 3367 0006 FFF7FEFF 		bl	_ZN3r2p7SysLock7acquireEv
ARM GAS  /tmp/cc9AvIGf.s 			page 61


 3368              		.loc 11 598 0
 3369 000a 0198     		ldr	r0, [sp, #4]
 3370 000c FFF7FEFF 		bl	_ZNK3r2p10StaticListINS_15LocalSubscriberEE15get_head_unsafeEv
 3371 0010 0390     		str	r0, [sp, #12]
 3372              		.loc 11 599 0
 3373 0012 FFF7FEFF 		bl	_ZN3r2p7SysLock7releaseEv
 3374              		.loc 11 600 0
 3375 0016 039B     		ldr	r3, [sp, #12]
 3376              	.LBE51:
 3377              		.loc 11 601 0
 3378 0018 1846     		mov	r0, r3
 3379 001a 05B0     		add	sp, sp, #20
 3380              		.cfi_def_cfa_offset 4
 3381              		@ sp needed
 3382 001c 5DF804FB 		ldr	pc, [sp], #4
 3383              		.cfi_endproc
 3384              	.LFE695:
 3385              		.size	_ZNK3r2p10StaticListINS_15LocalSubscriberEE8get_headEv, .-_ZNK3r2p10StaticListINS_15LocalSub
 3386              		.section	.text._ZN3r2p10StaticListINS_15LocalSubscriberEE8IteratorC2EPKNS2_4LinkE,"axG",%progbits,
 3387              		.align	2
 3388              		.p2align 4,,15
 3389              		.weak	_ZN3r2p10StaticListINS_15LocalSubscriberEE8IteratorC2EPKNS2_4LinkE
 3390              		.thumb
 3391              		.thumb_func
 3392              		.type	_ZN3r2p10StaticListINS_15LocalSubscriberEE8IteratorC2EPKNS2_4LinkE, %function
 3393              	_ZN3r2p10StaticListINS_15LocalSubscriberEE8IteratorC2EPKNS2_4LinkE:
 3394              	.LFB697:
 3395              		.loc 11 147 0
 3396              		.cfi_startproc
 3397              		@ args = 0, pretend = 0, frame = 8
 3398              		@ frame_needed = 0, uses_anonymous_args = 0
 3399              		@ link register save eliminated.
 3400 0000 82B0     		sub	sp, sp, #8
 3401              		.cfi_def_cfa_offset 8
 3402 0002 0190     		str	r0, [sp, #4]
 3403 0004 0091     		str	r1, [sp]
 3404              	.LBB52:
 3405              		.loc 11 147 0
 3406 0006 019B     		ldr	r3, [sp, #4]
 3407 0008 009A     		ldr	r2, [sp]
 3408 000a 1A60     		str	r2, [r3]
 3409              	.LBE52:
 3410 000c 019B     		ldr	r3, [sp, #4]
 3411 000e 1846     		mov	r0, r3
 3412 0010 02B0     		add	sp, sp, #8
 3413              		.cfi_def_cfa_offset 0
 3414              		@ sp needed
 3415 0012 7047     		bx	lr
 3416              		.cfi_endproc
 3417              	.LFE697:
 3418              		.size	_ZN3r2p10StaticListINS_15LocalSubscriberEE8IteratorC2EPKNS2_4LinkE, .-_ZN3r2p10StaticListINS
 3419              		.weak	_ZN3r2p10StaticListINS_15LocalSubscriberEE8IteratorC1EPKNS2_4LinkE
 3420              		.thumb_set _ZN3r2p10StaticListINS_15LocalSubscriberEE8IteratorC1EPKNS2_4LinkE,_ZN3r2p10StaticListI
 3421 0014 AFF30080 		.section	.text._ZNK3r2p10StaticListINS_16RemoteSubscriberEE8get_headEv,"axG",%progbits,_ZNK3r2p10S
 3421      AFF30080 
 3421      AFF30080 
 3422              		.align	2
ARM GAS  /tmp/cc9AvIGf.s 			page 62


 3423              		.p2align 4,,15
 3424              		.weak	_ZNK3r2p10StaticListINS_16RemoteSubscriberEE8get_headEv
 3425              		.thumb
 3426              		.thumb_func
 3427              		.type	_ZNK3r2p10StaticListINS_16RemoteSubscriberEE8get_headEv, %function
 3428              	_ZNK3r2p10StaticListINS_16RemoteSubscriberEE8get_headEv:
 3429              	.LFB699:
 3430              		.loc 11 595 0
 3431              		.cfi_startproc
 3432              		@ args = 0, pretend = 0, frame = 16
 3433              		@ frame_needed = 0, uses_anonymous_args = 0
 3434 0000 00B5     		push	{lr}
 3435              		.cfi_def_cfa_offset 4
 3436              		.cfi_offset 14, -4
 3437 0002 85B0     		sub	sp, sp, #20
 3438              		.cfi_def_cfa_offset 24
 3439 0004 0190     		str	r0, [sp, #4]
 3440              	.LBB53:
 3441              		.loc 11 597 0
 3442 0006 FFF7FEFF 		bl	_ZN3r2p7SysLock7acquireEv
 3443              		.loc 11 598 0
 3444 000a 0198     		ldr	r0, [sp, #4]
 3445 000c FFF7FEFF 		bl	_ZNK3r2p10StaticListINS_16RemoteSubscriberEE15get_head_unsafeEv
 3446 0010 0390     		str	r0, [sp, #12]
 3447              		.loc 11 599 0
 3448 0012 FFF7FEFF 		bl	_ZN3r2p7SysLock7releaseEv
 3449              		.loc 11 600 0
 3450 0016 039B     		ldr	r3, [sp, #12]
 3451              	.LBE53:
 3452              		.loc 11 601 0
 3453 0018 1846     		mov	r0, r3
 3454 001a 05B0     		add	sp, sp, #20
 3455              		.cfi_def_cfa_offset 4
 3456              		@ sp needed
 3457 001c 5DF804FB 		ldr	pc, [sp], #4
 3458              		.cfi_endproc
 3459              	.LFE699:
 3460              		.size	_ZNK3r2p10StaticListINS_16RemoteSubscriberEE8get_headEv, .-_ZNK3r2p10StaticListINS_16RemoteS
 3461              		.section	.text._ZN3r2p10StaticListINS_16RemoteSubscriberEE8IteratorC2EPKNS2_4LinkE,"axG",%progbits
 3462              		.align	2
 3463              		.p2align 4,,15
 3464              		.weak	_ZN3r2p10StaticListINS_16RemoteSubscriberEE8IteratorC2EPKNS2_4LinkE
 3465              		.thumb
 3466              		.thumb_func
 3467              		.type	_ZN3r2p10StaticListINS_16RemoteSubscriberEE8IteratorC2EPKNS2_4LinkE, %function
 3468              	_ZN3r2p10StaticListINS_16RemoteSubscriberEE8IteratorC2EPKNS2_4LinkE:
 3469              	.LFB701:
 3470              		.loc 11 147 0
 3471              		.cfi_startproc
 3472              		@ args = 0, pretend = 0, frame = 8
 3473              		@ frame_needed = 0, uses_anonymous_args = 0
 3474              		@ link register save eliminated.
 3475 0000 82B0     		sub	sp, sp, #8
 3476              		.cfi_def_cfa_offset 8
 3477 0002 0190     		str	r0, [sp, #4]
 3478 0004 0091     		str	r1, [sp]
 3479              	.LBB54:
ARM GAS  /tmp/cc9AvIGf.s 			page 63


 3480              		.loc 11 147 0
 3481 0006 019B     		ldr	r3, [sp, #4]
 3482 0008 009A     		ldr	r2, [sp]
 3483 000a 1A60     		str	r2, [r3]
 3484              	.LBE54:
 3485 000c 019B     		ldr	r3, [sp, #4]
 3486 000e 1846     		mov	r0, r3
 3487 0010 02B0     		add	sp, sp, #8
 3488              		.cfi_def_cfa_offset 0
 3489              		@ sp needed
 3490 0012 7047     		bx	lr
 3491              		.cfi_endproc
 3492              	.LFE701:
 3493              		.size	_ZN3r2p10StaticListINS_16RemoteSubscriberEE8IteratorC2EPKNS2_4LinkE, .-_ZN3r2p10StaticListIN
 3494              		.weak	_ZN3r2p10StaticListINS_16RemoteSubscriberEE8IteratorC1EPKNS2_4LinkE
 3495              		.thumb_set _ZN3r2p10StaticListINS_16RemoteSubscriberEE8IteratorC1EPKNS2_4LinkE,_ZN3r2p10StaticList
 3496 0014 AFF30080 		.section	.text._ZN3r2p10StaticListINS_15LocalSubscriberEE13unlink_unsafeERNS2_4LinkE,"axG",%progbi
 3496      AFF30080 
 3496      AFF30080 
 3497              		.align	2
 3498              		.p2align 4,,15
 3499              		.weak	_ZN3r2p10StaticListINS_15LocalSubscriberEE13unlink_unsafeERNS2_4LinkE
 3500              		.thumb
 3501              		.thumb_func
 3502              		.type	_ZN3r2p10StaticListINS_15LocalSubscriberEE13unlink_unsafeERNS2_4LinkE, %function
 3503              	_ZN3r2p10StaticListINS_15LocalSubscriberEE13unlink_unsafeERNS2_4LinkE:
 3504              	.LFB703:
 3505              		.loc 11 526 0
 3506              		.cfi_startproc
 3507              		@ args = 0, pretend = 0, frame = 16
 3508              		@ frame_needed = 0, uses_anonymous_args = 0
 3509              		@ link register save eliminated.
 3510 0000 84B0     		sub	sp, sp, #16
 3511              		.cfi_def_cfa_offset 16
 3512 0002 0190     		str	r0, [sp, #4]
 3513 0004 0091     		str	r1, [sp]
 3514              	.LBB55:
 3515              	.LBB56:
 3516              		.loc 11 528 0
 3517 0006 019B     		ldr	r3, [sp, #4]
 3518 0008 1B68     		ldr	r3, [r3]
 3519 000a 0393     		str	r3, [sp, #12]
 3520 000c 0023     		movs	r3, #0
 3521 000e 0293     		str	r3, [sp, #8]
 3522 0010 19E0     		b	.L210
 3523              	.L215:
 3524              		.loc 11 531 0
 3525 0012 039A     		ldr	r2, [sp, #12]
 3526 0014 009B     		ldr	r3, [sp]
 3527 0016 9A42     		cmp	r2, r3
 3528 0018 10D1     		bne	.L211
 3529              		.loc 11 532 0
 3530 001a 029B     		ldr	r3, [sp, #8]
 3531 001c 002B     		cmp	r3, #0
 3532 001e 04D0     		beq	.L212
 3533              		.loc 11 532 0 is_stmt 0 discriminator 1
 3534 0020 039B     		ldr	r3, [sp, #12]
ARM GAS  /tmp/cc9AvIGf.s 			page 64


 3535 0022 1A68     		ldr	r2, [r3]
 3536 0024 029B     		ldr	r3, [sp, #8]
 3537 0026 1A60     		str	r2, [r3]
 3538 0028 03E0     		b	.L213
 3539              	.L212:
 3540              		.loc 11 533 0 is_stmt 1
 3541 002a 039B     		ldr	r3, [sp, #12]
 3542 002c 1A68     		ldr	r2, [r3]
 3543 002e 019B     		ldr	r3, [sp, #4]
 3544 0030 1A60     		str	r2, [r3]
 3545              	.L213:
 3546              		.loc 11 534 0
 3547 0032 039B     		ldr	r3, [sp, #12]
 3548 0034 0022     		movs	r2, #0
 3549 0036 1A60     		str	r2, [r3]
 3550              		.loc 11 535 0
 3551 0038 0123     		movs	r3, #1
 3552 003a 08E0     		b	.L214
 3553              	.L211:
 3554              		.loc 11 528 0 discriminator 2
 3555 003c 039B     		ldr	r3, [sp, #12]
 3556 003e 0293     		str	r3, [sp, #8]
 3557 0040 039B     		ldr	r3, [sp, #12]
 3558 0042 1B68     		ldr	r3, [r3]
 3559 0044 0393     		str	r3, [sp, #12]
 3560              	.L210:
 3561              		.loc 11 528 0 is_stmt 0 discriminator 1
 3562 0046 039B     		ldr	r3, [sp, #12]
 3563 0048 002B     		cmp	r3, #0
 3564 004a E2D1     		bne	.L215
 3565              	.LBE56:
 3566              		.loc 11 538 0 is_stmt 1
 3567 004c 0023     		movs	r3, #0
 3568              	.L214:
 3569              	.LBE55:
 3570              		.loc 11 539 0
 3571 004e 1846     		mov	r0, r3
 3572 0050 04B0     		add	sp, sp, #16
 3573              		.cfi_def_cfa_offset 0
 3574              		@ sp needed
 3575 0052 7047     		bx	lr
 3576              		.cfi_endproc
 3577              	.LFE703:
 3578              		.size	_ZN3r2p10StaticListINS_15LocalSubscriberEE13unlink_unsafeERNS2_4LinkE, .-_ZN3r2p10StaticList
 3579              		.section	.text._ZN3r2p10StaticListINS_16RemoteSubscriberEE13unlink_unsafeERNS2_4LinkE,"axG",%progb
 3580              		.align	2
 3581              		.p2align 4,,15
 3582              		.weak	_ZN3r2p10StaticListINS_16RemoteSubscriberEE13unlink_unsafeERNS2_4LinkE
 3583              		.thumb
 3584              		.thumb_func
 3585              		.type	_ZN3r2p10StaticListINS_16RemoteSubscriberEE13unlink_unsafeERNS2_4LinkE, %function
 3586              	_ZN3r2p10StaticListINS_16RemoteSubscriberEE13unlink_unsafeERNS2_4LinkE:
 3587              	.LFB704:
 3588              		.loc 11 526 0
 3589              		.cfi_startproc
 3590              		@ args = 0, pretend = 0, frame = 16
 3591              		@ frame_needed = 0, uses_anonymous_args = 0
ARM GAS  /tmp/cc9AvIGf.s 			page 65


 3592              		@ link register save eliminated.
 3593 0000 84B0     		sub	sp, sp, #16
 3594              		.cfi_def_cfa_offset 16
 3595 0002 0190     		str	r0, [sp, #4]
 3596 0004 0091     		str	r1, [sp]
 3597              	.LBB57:
 3598              	.LBB58:
 3599              		.loc 11 528 0
 3600 0006 019B     		ldr	r3, [sp, #4]
 3601 0008 1B68     		ldr	r3, [r3]
 3602 000a 0393     		str	r3, [sp, #12]
 3603 000c 0023     		movs	r3, #0
 3604 000e 0293     		str	r3, [sp, #8]
 3605 0010 19E0     		b	.L217
 3606              	.L222:
 3607              		.loc 11 531 0
 3608 0012 039A     		ldr	r2, [sp, #12]
 3609 0014 009B     		ldr	r3, [sp]
 3610 0016 9A42     		cmp	r2, r3
 3611 0018 10D1     		bne	.L218
 3612              		.loc 11 532 0
 3613 001a 029B     		ldr	r3, [sp, #8]
 3614 001c 002B     		cmp	r3, #0
 3615 001e 04D0     		beq	.L219
 3616              		.loc 11 532 0 is_stmt 0 discriminator 1
 3617 0020 039B     		ldr	r3, [sp, #12]
 3618 0022 1A68     		ldr	r2, [r3]
 3619 0024 029B     		ldr	r3, [sp, #8]
 3620 0026 1A60     		str	r2, [r3]
 3621 0028 03E0     		b	.L220
 3622              	.L219:
 3623              		.loc 11 533 0 is_stmt 1
 3624 002a 039B     		ldr	r3, [sp, #12]
 3625 002c 1A68     		ldr	r2, [r3]
 3626 002e 019B     		ldr	r3, [sp, #4]
 3627 0030 1A60     		str	r2, [r3]
 3628              	.L220:
 3629              		.loc 11 534 0
 3630 0032 039B     		ldr	r3, [sp, #12]
 3631 0034 0022     		movs	r2, #0
 3632 0036 1A60     		str	r2, [r3]
 3633              		.loc 11 535 0
 3634 0038 0123     		movs	r3, #1
 3635 003a 08E0     		b	.L221
 3636              	.L218:
 3637              		.loc 11 528 0 discriminator 2
 3638 003c 039B     		ldr	r3, [sp, #12]
 3639 003e 0293     		str	r3, [sp, #8]
 3640 0040 039B     		ldr	r3, [sp, #12]
 3641 0042 1B68     		ldr	r3, [r3]
 3642 0044 0393     		str	r3, [sp, #12]
 3643              	.L217:
 3644              		.loc 11 528 0 is_stmt 0 discriminator 1
 3645 0046 039B     		ldr	r3, [sp, #12]
 3646 0048 002B     		cmp	r3, #0
 3647 004a E2D1     		bne	.L222
 3648              	.LBE58:
ARM GAS  /tmp/cc9AvIGf.s 			page 66


 3649              		.loc 11 538 0 is_stmt 1
 3650 004c 0023     		movs	r3, #0
 3651              	.L221:
 3652              	.LBE57:
 3653              		.loc 11 539 0
 3654 004e 1846     		mov	r0, r3
 3655 0050 04B0     		add	sp, sp, #16
 3656              		.cfi_def_cfa_offset 0
 3657              		@ sp needed
 3658 0052 7047     		bx	lr
 3659              		.cfi_endproc
 3660              	.LFE704:
 3661              		.size	_ZN3r2p10StaticListINS_16RemoteSubscriberEE13unlink_unsafeERNS2_4LinkE, .-_ZN3r2p10StaticLis
 3662              		.text
 3663              	.Letext0:
 3664              		.file 12 "/home/ergae/r2p-sdk/tools/gcc-arm-none-eabi-4_9-2014q4/lib/gcc/arm-none-eabi/4.9.3/inclu
 3665              		.file 13 "/home/ergae/r2p-sdk/tools/gcc-arm-none-eabi-4_9-2014q4/arm-none-eabi/include/machine/_de
 3666              		.file 14 "/home/ergae/r2p-sdk/tools/gcc-arm-none-eabi-4_9-2014q4/arm-none-eabi/include/c++/4.9.3/c
 3667              		.file 15 "/home/ergae/r2p-sdk/tools/gcc-arm-none-eabi-4_9-2014q4/arm-none-eabi/include/string.h"
 3668              		.file 16 "<built-in>"
 3669              		.file 17 "/home/ergae/r2p-sdk/core/Middleware/port/chibios/include/r2p/impl/Thread_.hpp"
 3670              		.file 18 "/home/ergae/r2p-sdk/core/Middleware/include/r2p/Thread.hpp"
 3671              		.file 19 "/home/ergae/r2p-sdk/core/Middleware/port/chibios/include/r2p/impl/SpinEvent_.hpp"
 3672              		.file 20 "/home/ergae/r2p-sdk/core/Middleware/include/r2p/SpinEvent.hpp"
 3673              		.file 21 "/home/ergae/r2p-sdk/core/Middleware/include/r2p/MgmtMsg.hpp"
 3674              		.file 22 "/home/ergae/r2p-sdk/core/Middleware/include/r2p/Node.hpp"
 3675              		.file 23 "/home/ergae/r2p-sdk/core/Middleware/port/chibios/include/r2p/impl/Mutex_.hpp"
 3676              		.file 24 "/home/ergae/r2p-sdk/core/Middleware/include/r2p/Mutex.hpp"
 3677              		.file 25 "/home/ergae/r2p-sdk/core/Middleware/include/r2p/ReMutex.hpp"
 3678              		.file 26 "/home/ergae/r2p-sdk/tools/gcc-arm-none-eabi-4_9-2014q4/arm-none-eabi/include/stdint.h"
 3679              		.file 27 "/home/ergae/r2p-sdk/core/ChibiOS/os/ports/GCC/ARMCMx/chtypes.h"
 3680              		.file 28 "/home/ergae/r2p-sdk/core/ChibiOS/os/kernel/include/chlists.h"
 3681              		.file 29 "/home/ergae/r2p-sdk/core/ChibiOS/os/kernel/include/chthreads.h"
 3682              		.file 30 "/home/ergae/r2p-sdk/core/ChibiOS/os/ports/GCC/ARMCMx/chcore_v7m.h"
 3683              		.file 31 "/home/ergae/r2p-sdk/core/ChibiOS/os/kernel/include/chschd.h"
 3684              		.file 32 "/home/ergae/r2p-sdk/core/ChibiOS/os/kernel/include/chmtx.h"
 3685              		.file 33 "/home/ergae/r2p-sdk/core/ChibiOS/os/kernel/include/chmemcore.h"
 3686              		.file 34 "/home/ergae/r2p-sdk/core/ChibiOS/os/kernel/include/chmempools.h"
 3687              		.file 35 "/home/ergae/r2p-sdk/core/Middleware/include/r2p/common.hpp"
 3688              		.file 36 "/home/ergae/r2p-sdk/core/ChibiOS/os/ports/common/ARMCMx/CMSIS/include/core_cm4.h"
 3689              		.section	.debug_info,"",%progbits
 3690              	.Ldebug_info0:
 3691 0000 71640000 		.4byte	0x6471
 3692 0004 0400     		.2byte	0x4
 3693 0006 00000000 		.4byte	.Ldebug_abbrev0
 3694 000a 04       		.byte	0x4
 3695 000b 01       		.uleb128 0x1
 3696 000c 9E090000 		.4byte	.LASF801
 3697 0010 04       		.byte	0x4
 3698 0011 450B0000 		.4byte	.LASF802
 3699 0015 435F0000 		.4byte	.LASF803
 3700 0019 00000000 		.4byte	.Ldebug_ranges0+0
 3701 001d 00000000 		.4byte	0
 3702 0021 00000000 		.4byte	.Ldebug_line0
 3703 0025 02       		.uleb128 0x2
 3704 0026 04       		.byte	0x4
 3705 0027 05       		.byte	0x5
ARM GAS  /tmp/cc9AvIGf.s 			page 67


 3706 0028 696E7400 		.ascii	"int\000"
 3707 002c 03       		.uleb128 0x3
 3708 002d 68200000 		.4byte	.LASF2
 3709 0031 0C       		.byte	0xc
 3710 0032 D4       		.byte	0xd4
 3711 0033 37000000 		.4byte	0x37
 3712 0037 04       		.uleb128 0x4
 3713 0038 04       		.byte	0x4
 3714 0039 07       		.byte	0x7
 3715 003a 17630000 		.4byte	.LASF0
 3716 003e 04       		.uleb128 0x4
 3717 003f 01       		.byte	0x1
 3718 0040 06       		.byte	0x6
 3719 0041 46330000 		.4byte	.LASF1
 3720 0045 03       		.uleb128 0x3
 3721 0046 20020000 		.4byte	.LASF3
 3722 004a 0D       		.byte	0xd
 3723 004b 1D       		.byte	0x1d
 3724 004c 50000000 		.4byte	0x50
 3725 0050 04       		.uleb128 0x4
 3726 0051 01       		.byte	0x1
 3727 0052 08       		.byte	0x8
 3728 0053 33170000 		.4byte	.LASF4
 3729 0057 04       		.uleb128 0x4
 3730 0058 02       		.byte	0x2
 3731 0059 05       		.byte	0x5
 3732 005a 03640000 		.4byte	.LASF5
 3733 005e 03       		.uleb128 0x3
 3734 005f 51140000 		.4byte	.LASF6
 3735 0063 0D       		.byte	0xd
 3736 0064 2B       		.byte	0x2b
 3737 0065 69000000 		.4byte	0x69
 3738 0069 04       		.uleb128 0x4
 3739 006a 02       		.byte	0x2
 3740 006b 07       		.byte	0x7
 3741 006c 33330000 		.4byte	.LASF7
 3742 0070 03       		.uleb128 0x3
 3743 0071 2E4D0000 		.4byte	.LASF8
 3744 0075 0D       		.byte	0xd
 3745 0076 3F       		.byte	0x3f
 3746 0077 7B000000 		.4byte	0x7b
 3747 007b 04       		.uleb128 0x4
 3748 007c 04       		.byte	0x4
 3749 007d 05       		.byte	0x5
 3750 007e 913C0000 		.4byte	.LASF9
 3751 0082 03       		.uleb128 0x3
 3752 0083 734D0000 		.4byte	.LASF10
 3753 0087 0D       		.byte	0xd
 3754 0088 41       		.byte	0x41
 3755 0089 8D000000 		.4byte	0x8d
 3756 008d 04       		.uleb128 0x4
 3757 008e 04       		.byte	0x4
 3758 008f 07       		.byte	0x7
 3759 0090 FE400000 		.4byte	.LASF11
 3760 0094 04       		.uleb128 0x4
 3761 0095 08       		.byte	0x8
 3762 0096 05       		.byte	0x5
ARM GAS  /tmp/cc9AvIGf.s 			page 68


 3763 0097 C15B0000 		.4byte	.LASF12
 3764 009b 03       		.uleb128 0x3
 3765 009c 12280000 		.4byte	.LASF13
 3766 00a0 0D       		.byte	0xd
 3767 00a1 5B       		.byte	0x5b
 3768 00a2 A6000000 		.4byte	0xa6
 3769 00a6 04       		.uleb128 0x4
 3770 00a7 08       		.byte	0x8
 3771 00a8 07       		.byte	0x7
 3772 00a9 31530000 		.4byte	.LASF14
 3773 00ad 04       		.uleb128 0x4
 3774 00ae 04       		.byte	0x4
 3775 00af 07       		.byte	0x7
 3776 00b0 7B320000 		.4byte	.LASF15
 3777 00b4 05       		.uleb128 0x5
 3778 00b5 04       		.byte	0x4
 3779 00b6 06       		.uleb128 0x6
 3780 00b7 04       		.byte	0x4
 3781 00b8 BC000000 		.4byte	0xbc
 3782 00bc 04       		.uleb128 0x4
 3783 00bd 01       		.byte	0x1
 3784 00be 08       		.byte	0x8
 3785 00bf 1D430000 		.4byte	.LASF16
 3786 00c3 06       		.uleb128 0x6
 3787 00c4 04       		.byte	0x4
 3788 00c5 C9000000 		.4byte	0xc9
 3789 00c9 07       		.uleb128 0x7
 3790 00ca BC000000 		.4byte	0xbc
 3791 00ce 08       		.uleb128 0x8
 3792 00cf BC000000 		.4byte	0xbc
 3793 00d3 DE000000 		.4byte	0xde
 3794 00d7 09       		.uleb128 0x9
 3795 00d8 AD000000 		.4byte	0xad
 3796 00dc 07       		.byte	0x7
 3797 00dd 00       		.byte	0
 3798 00de 0A       		.uleb128 0xa
 3799 00df 73746400 		.ascii	"std\000"
 3800 00e3 10       		.byte	0x10
 3801 00e4 00       		.byte	0
 3802 00e5 06010000 		.4byte	0x106
 3803 00e9 0B       		.uleb128 0xb
 3804 00ea 0E       		.byte	0xe
 3805 00eb 52       		.byte	0x52
 3806 00ec 06010000 		.4byte	0x106
 3807 00f0 0B       		.uleb128 0xb
 3808 00f1 0E       		.byte	0xe
 3809 00f2 55       		.byte	0x55
 3810 00f3 20010000 		.4byte	0x120
 3811 00f7 0B       		.uleb128 0xb
 3812 00f8 0E       		.byte	0xe
 3813 00f9 5B       		.byte	0x5b
 3814 00fa 35010000 		.4byte	0x135
 3815 00fe 0B       		.uleb128 0xb
 3816 00ff 0E       		.byte	0xe
 3817 0100 5C       		.byte	0x5c
 3818 0101 4F010000 		.4byte	0x14f
 3819 0105 00       		.byte	0
ARM GAS  /tmp/cc9AvIGf.s 			page 69


 3820 0106 0C       		.uleb128 0xc
 3821 0107 2D0B0000 		.4byte	.LASF17
 3822 010b 0F       		.byte	0xf
 3823 010c 1D       		.byte	0x1d
 3824 010d 25000000 		.4byte	0x25
 3825 0111 20010000 		.4byte	0x120
 3826 0115 0D       		.uleb128 0xd
 3827 0116 C3000000 		.4byte	0xc3
 3828 011a 0D       		.uleb128 0xd
 3829 011b C3000000 		.4byte	0xc3
 3830 011f 00       		.byte	0
 3831 0120 0C       		.uleb128 0xc
 3832 0121 5B2B0000 		.4byte	.LASF18
 3833 0125 0F       		.byte	0xf
 3834 0126 20       		.byte	0x20
 3835 0127 B6000000 		.4byte	0xb6
 3836 012b 35010000 		.4byte	0x135
 3837 012f 0D       		.uleb128 0xd
 3838 0130 25000000 		.4byte	0x25
 3839 0134 00       		.byte	0
 3840 0135 0C       		.uleb128 0xc
 3841 0136 1B400000 		.4byte	.LASF19
 3842 013a 0F       		.byte	0xf
 3843 013b 2A       		.byte	0x2a
 3844 013c B6000000 		.4byte	0xb6
 3845 0140 4F010000 		.4byte	0x14f
 3846 0144 0D       		.uleb128 0xd
 3847 0145 B6000000 		.4byte	0xb6
 3848 0149 0D       		.uleb128 0xd
 3849 014a C3000000 		.4byte	0xc3
 3850 014e 00       		.byte	0
 3851 014f 0C       		.uleb128 0xc
 3852 0150 CC2B0000 		.4byte	.LASF20
 3853 0154 0F       		.byte	0xf
 3854 0155 2C       		.byte	0x2c
 3855 0156 2C000000 		.4byte	0x2c
 3856 015a 6E010000 		.4byte	0x16e
 3857 015e 0D       		.uleb128 0xd
 3858 015f B6000000 		.4byte	0xb6
 3859 0163 0D       		.uleb128 0xd
 3860 0164 C3000000 		.4byte	0xc3
 3861 0168 0D       		.uleb128 0xd
 3862 0169 2C000000 		.4byte	0x2c
 3863 016d 00       		.byte	0
 3864 016e 0A       		.uleb128 0xa
 3865 016f 72327000 		.ascii	"r2p\000"
 3866 0173 01       		.byte	0x1
 3867 0174 03       		.byte	0x3
 3868 0175 5A470000 		.4byte	0x475a
 3869 0179 0E       		.uleb128 0xe
 3870 017a 122D0000 		.4byte	.LASF21
 3871 017e 01       		.byte	0x1
 3872 017f 01       		.byte	0x1
 3873 0180 06       		.byte	0x6
 3874 0181 D9010000 		.4byte	0x1d9
 3875 0185 0F       		.uleb128 0xf
 3876 0186 122D0000 		.4byte	.LASF21
ARM GAS  /tmp/cc9AvIGf.s 			page 70


 3877 018a 01       		.byte	0x1
 3878 018b 09       		.byte	0x9
 3879 018c 5A470000 		.4byte	0x475a
 3880 0190 98010000 		.4byte	0x198
 3881 0194 A3010000 		.4byte	0x1a3
 3882 0198 10       		.uleb128 0x10
 3883 0199 5A470000 		.4byte	0x475a
 3884 019d 0D       		.uleb128 0xd
 3885 019e 60470000 		.4byte	0x4760
 3886 01a2 00       		.byte	0
 3887 01a3 11       		.uleb128 0x11
 3888 01a4 122D0000 		.4byte	.LASF21
 3889 01a8 01       		.byte	0x1
 3890 01a9 14       		.byte	0x14
 3891 01aa 5A470000 		.4byte	0x475a
 3892 01ae 02       		.byte	0x2
 3893 01af B7010000 		.4byte	0x1b7
 3894 01b3 BD010000 		.4byte	0x1bd
 3895 01b7 10       		.uleb128 0x10
 3896 01b8 5A470000 		.4byte	0x475a
 3897 01bc 00       		.byte	0
 3898 01bd 12       		.uleb128 0x12
 3899 01be 47630000 		.4byte	.LASF22
 3900 01c2 01       		.byte	0x1
 3901 01c3 15       		.byte	0x15
 3902 01c4 B4000000 		.4byte	0xb4
 3903 01c8 02       		.byte	0x2
 3904 01c9 CD010000 		.4byte	0x1cd
 3905 01cd 10       		.uleb128 0x10
 3906 01ce 5A470000 		.4byte	0x475a
 3907 01d2 10       		.uleb128 0x10
 3908 01d3 25000000 		.4byte	0x25
 3909 01d7 00       		.byte	0
 3910 01d8 00       		.byte	0
 3911 01d9 07       		.uleb128 0x7
 3912 01da 79010000 		.4byte	0x179
 3913 01de 0E       		.uleb128 0xe
 3914 01df 44430000 		.4byte	.LASF23
 3915 01e3 01       		.byte	0x1
 3916 01e4 02       		.byte	0x2
 3917 01e5 09       		.byte	0x9
 3918 01e6 22020000 		.4byte	0x222
 3919 01ea 13       		.uleb128 0x13
 3920 01eb 79010000 		.4byte	0x179
 3921 01ef 00       		.byte	0
 3922 01f0 0F       		.uleb128 0xf
 3923 01f1 44430000 		.4byte	.LASF23
 3924 01f5 02       		.byte	0x2
 3925 01f6 0B       		.byte	0xb
 3926 01f7 814C0000 		.4byte	0x4c81
 3927 01fb 03020000 		.4byte	0x203
 3928 01ff 09020000 		.4byte	0x209
 3929 0203 10       		.uleb128 0x10
 3930 0204 814C0000 		.4byte	0x4c81
 3931 0208 00       		.byte	0
 3932 0209 14       		.uleb128 0x14
 3933 020a BA1F0000 		.4byte	.LASF24
ARM GAS  /tmp/cc9AvIGf.s 			page 71


 3934 020e 02       		.byte	0x2
 3935 020f 0E       		.byte	0xe
 3936 0210 C2130000 		.4byte	.LASF26
 3937 0214 01       		.byte	0x1
 3938 0215 14       		.uleb128 0x14
 3939 0216 9E4B0000 		.4byte	.LASF25
 3940 021a 02       		.byte	0x2
 3941 021b 0F       		.byte	0xf
 3942 021c FA170000 		.4byte	.LASF27
 3943 0220 01       		.byte	0x1
 3944 0221 00       		.byte	0
 3945 0222 0E       		.uleb128 0xe
 3946 0223 83540000 		.4byte	.LASF28
 3947 0227 01       		.byte	0x1
 3948 0228 03       		.byte	0x3
 3949 0229 09       		.byte	0x9
 3950 022a AF020000 		.4byte	0x2af
 3951 022e 15       		.uleb128 0x15
 3952 022f AB130000 		.4byte	.LASF29
 3953 0233 01       		.byte	0x1
 3954 0234 03       		.byte	0x3
 3955 0235 0B       		.byte	0xb
 3956 0236 01       		.byte	0x1
 3957 0237 77020000 		.4byte	0x277
 3958 023b 13       		.uleb128 0x13
 3959 023c 79010000 		.4byte	0x179
 3960 0240 00       		.byte	0
 3961 0241 11       		.uleb128 0x11
 3962 0242 AB130000 		.4byte	.LASF29
 3963 0246 03       		.byte	0x3
 3964 0247 0D       		.byte	0xd
 3965 0248 874C0000 		.4byte	0x4c87
 3966 024c 01       		.byte	0x1
 3967 024d 55020000 		.4byte	0x255
 3968 0251 5B020000 		.4byte	0x25b
 3969 0255 10       		.uleb128 0x10
 3970 0256 874C0000 		.4byte	0x4c87
 3971 025a 00       		.byte	0
 3972 025b 12       		.uleb128 0x12
 3973 025c 284B0000 		.4byte	.LASF30
 3974 0260 03       		.byte	0x3
 3975 0261 0E       		.byte	0xe
 3976 0262 B4000000 		.4byte	0xb4
 3977 0266 01       		.byte	0x1
 3978 0267 6B020000 		.4byte	0x26b
 3979 026b 10       		.uleb128 0x10
 3980 026c 874C0000 		.4byte	0x4c87
 3981 0270 10       		.uleb128 0x10
 3982 0271 25000000 		.4byte	0x25
 3983 0275 00       		.byte	0
 3984 0276 00       		.byte	0
 3985 0277 13       		.uleb128 0x13
 3986 0278 79010000 		.4byte	0x179
 3987 027c 00       		.byte	0
 3988 027d 0F       		.uleb128 0xf
 3989 027e 83540000 		.4byte	.LASF28
 3990 0282 03       		.byte	0x3
ARM GAS  /tmp/cc9AvIGf.s 			page 72


 3991 0283 12       		.byte	0x12
 3992 0284 8D4C0000 		.4byte	0x4c8d
 3993 0288 90020000 		.4byte	0x290
 3994 028c 96020000 		.4byte	0x296
 3995 0290 10       		.uleb128 0x10
 3996 0291 8D4C0000 		.4byte	0x4c8d
 3997 0295 00       		.byte	0
 3998 0296 14       		.uleb128 0x14
 3999 0297 BA1F0000 		.4byte	.LASF24
 4000 029b 03       		.byte	0x3
 4001 029c 15       		.byte	0x15
 4002 029d 83470000 		.4byte	.LASF31
 4003 02a1 01       		.byte	0x1
 4004 02a2 14       		.uleb128 0x14
 4005 02a3 9E4B0000 		.4byte	.LASF25
 4006 02a7 03       		.byte	0x3
 4007 02a8 16       		.byte	0x16
 4008 02a9 FD4B0000 		.4byte	.LASF32
 4009 02ad 01       		.byte	0x1
 4010 02ae 00       		.byte	0
 4011 02af 0E       		.uleb128 0xe
 4012 02b0 B55B0000 		.4byte	.LASF33
 4013 02b4 0C       		.byte	0xc
 4014 02b5 04       		.byte	0x4
 4015 02b6 09       		.byte	0x9
 4016 02b7 68040000 		.4byte	0x468
 4017 02bb 13       		.uleb128 0x13
 4018 02bc 79010000 		.4byte	0x179
 4019 02c0 00       		.byte	0
 4020 02c1 16       		.uleb128 0x16
 4021 02c2 611C0000 		.4byte	.LASF84
 4022 02c6 04       		.byte	0x4
 4023 02c7 0E       		.byte	0xe
 4024 02c8 394C0000 		.4byte	0x4c39
 4025 02cc 00       		.byte	0
 4026 02cd 17       		.uleb128 0x17
 4027 02ce 30000000 		.4byte	.LASF51
 4028 02d2 04       		.byte	0x4
 4029 02d3 0B       		.byte	0xb
 4030 02d4 C94B0000 		.4byte	0x4bc9
 4031 02d8 01       		.byte	0x1
 4032 02d9 18       		.uleb128 0x18
 4033 02da BD460000 		.4byte	.LASF34
 4034 02de 04       		.byte	0x4
 4035 02df 11       		.byte	0x11
 4036 02e0 2F4B0000 		.4byte	.LASF36
 4037 02e4 2C000000 		.4byte	0x2c
 4038 02e8 01       		.byte	0x1
 4039 02e9 F1020000 		.4byte	0x2f1
 4040 02ed F7020000 		.4byte	0x2f7
 4041 02f1 10       		.uleb128 0x10
 4042 02f2 934C0000 		.4byte	0x4c93
 4043 02f6 00       		.byte	0
 4044 02f7 18       		.uleb128 0x18
 4045 02f8 1D280000 		.4byte	.LASF35
 4046 02fc 04       		.byte	0x4
 4047 02fd 12       		.byte	0x12
ARM GAS  /tmp/cc9AvIGf.s 			page 73


 4048 02fe 811C0000 		.4byte	.LASF37
 4049 0302 CD020000 		.4byte	0x2cd
 4050 0306 01       		.byte	0x1
 4051 0307 0F030000 		.4byte	0x30f
 4052 030b 15030000 		.4byte	0x315
 4053 030f 10       		.uleb128 0x10
 4054 0310 934C0000 		.4byte	0x4c93
 4055 0314 00       		.byte	0
 4056 0315 18       		.uleb128 0x18
 4057 0316 84380000 		.4byte	.LASF38
 4058 031a 04       		.byte	0x4
 4059 031b 14       		.byte	0x14
 4060 031c 8F390000 		.4byte	.LASF39
 4061 0320 B4000000 		.4byte	0xb4
 4062 0324 01       		.byte	0x1
 4063 0325 2D030000 		.4byte	0x32d
 4064 0329 33030000 		.4byte	0x333
 4065 032d 10       		.uleb128 0x10
 4066 032e 994C0000 		.4byte	0x4c99
 4067 0332 00       		.byte	0
 4068 0333 19       		.uleb128 0x19
 4069 0334 59160000 		.4byte	.LASF40
 4070 0338 04       		.byte	0x4
 4071 0339 15       		.byte	0x15
 4072 033a B2110000 		.4byte	.LASF44
 4073 033e 01       		.byte	0x1
 4074 033f 47030000 		.4byte	0x347
 4075 0343 52030000 		.4byte	0x352
 4076 0347 10       		.uleb128 0x10
 4077 0348 994C0000 		.4byte	0x4c99
 4078 034c 0D       		.uleb128 0xd
 4079 034d B4000000 		.4byte	0xb4
 4080 0351 00       		.byte	0
 4081 0352 18       		.uleb128 0x18
 4082 0353 8C3D0000 		.4byte	.LASF41
 4083 0357 04       		.byte	0x4
 4084 0358 17       		.byte	0x17
 4085 0359 771D0000 		.4byte	.LASF42
 4086 035d B4000000 		.4byte	0xb4
 4087 0361 01       		.byte	0x1
 4088 0362 6A030000 		.4byte	0x36a
 4089 0366 70030000 		.4byte	0x370
 4090 036a 10       		.uleb128 0x10
 4091 036b 994C0000 		.4byte	0x4c99
 4092 036f 00       		.byte	0
 4093 0370 19       		.uleb128 0x19
 4094 0371 F10F0000 		.4byte	.LASF43
 4095 0375 04       		.byte	0x4
 4096 0376 18       		.byte	0x18
 4097 0377 12250000 		.4byte	.LASF45
 4098 037b 01       		.byte	0x1
 4099 037c 84030000 		.4byte	0x384
 4100 0380 8F030000 		.4byte	0x38f
 4101 0384 10       		.uleb128 0x10
 4102 0385 994C0000 		.4byte	0x4c99
 4103 0389 0D       		.uleb128 0xd
 4104 038a B4000000 		.4byte	0xb4
ARM GAS  /tmp/cc9AvIGf.s 			page 74


 4105 038e 00       		.byte	0
 4106 038f 19       		.uleb128 0x19
 4107 0390 7C540000 		.4byte	.LASF46
 4108 0394 04       		.byte	0x4
 4109 0395 19       		.byte	0x19
 4110 0396 55410000 		.4byte	.LASF47
 4111 039a 01       		.byte	0x1
 4112 039b A3030000 		.4byte	0x3a3
 4113 039f B3030000 		.4byte	0x3b3
 4114 03a3 10       		.uleb128 0x10
 4115 03a4 994C0000 		.4byte	0x4c99
 4116 03a8 0D       		.uleb128 0xd
 4117 03a9 B4000000 		.4byte	0xb4
 4118 03ad 0D       		.uleb128 0xd
 4119 03ae 2C000000 		.4byte	0x2c
 4120 03b2 00       		.byte	0
 4121 03b3 18       		.uleb128 0x18
 4122 03b4 E4240000 		.4byte	.LASF48
 4123 03b8 04       		.byte	0x4
 4124 03b9 1B       		.byte	0x1b
 4125 03ba 41170000 		.4byte	.LASF49
 4126 03be 9F4C0000 		.4byte	0x4c9f
 4127 03c2 01       		.byte	0x1
 4128 03c3 CB030000 		.4byte	0x3cb
 4129 03c7 D1030000 		.4byte	0x3d1
 4130 03cb 10       		.uleb128 0x10
 4131 03cc 994C0000 		.4byte	0x4c99
 4132 03d0 00       		.byte	0
 4133 03d1 11       		.uleb128 0x11
 4134 03d2 B55B0000 		.4byte	.LASF33
 4135 03d6 04       		.byte	0x4
 4136 03d7 1E       		.byte	0x1e
 4137 03d8 994C0000 		.4byte	0x4c99
 4138 03dc 01       		.byte	0x1
 4139 03dd E5030000 		.4byte	0x3e5
 4140 03e1 F0030000 		.4byte	0x3f0
 4141 03e5 10       		.uleb128 0x10
 4142 03e6 994C0000 		.4byte	0x4c99
 4143 03ea 0D       		.uleb128 0xd
 4144 03eb 2C000000 		.4byte	0x2c
 4145 03ef 00       		.byte	0
 4146 03f0 11       		.uleb128 0x11
 4147 03f1 B55B0000 		.4byte	.LASF33
 4148 03f5 04       		.byte	0x4
 4149 03f6 1F       		.byte	0x1f
 4150 03f7 994C0000 		.4byte	0x4c99
 4151 03fb 01       		.byte	0x1
 4152 03fc 04040000 		.4byte	0x404
 4153 0400 19040000 		.4byte	0x419
 4154 0404 10       		.uleb128 0x10
 4155 0405 994C0000 		.4byte	0x4c99
 4156 0409 0D       		.uleb128 0xd
 4157 040a B4000000 		.4byte	0xb4
 4158 040e 0D       		.uleb128 0xd
 4159 040f 2C000000 		.4byte	0x2c
 4160 0413 0D       		.uleb128 0xd
 4161 0414 2C000000 		.4byte	0x2c
ARM GAS  /tmp/cc9AvIGf.s 			page 75


 4162 0418 00       		.byte	0
 4163 0419 11       		.uleb128 0x11
 4164 041a B55B0000 		.4byte	.LASF33
 4165 041e 04       		.byte	0x4
 4166 041f 20       		.byte	0x20
 4167 0420 994C0000 		.4byte	0x4c99
 4168 0424 01       		.byte	0x1
 4169 0425 2D040000 		.4byte	0x42d
 4170 0429 3D040000 		.4byte	0x43d
 4171 042d 10       		.uleb128 0x10
 4172 042e 994C0000 		.4byte	0x4c99
 4173 0432 0D       		.uleb128 0xd
 4174 0433 2C000000 		.4byte	0x2c
 4175 0437 0D       		.uleb128 0xd
 4176 0438 CD020000 		.4byte	0x2cd
 4177 043c 00       		.byte	0
 4178 043d 12       		.uleb128 0x12
 4179 043e B55B0000 		.4byte	.LASF33
 4180 0442 04       		.byte	0x4
 4181 0443 21       		.byte	0x21
 4182 0444 994C0000 		.4byte	0x4c99
 4183 0448 01       		.byte	0x1
 4184 0449 4D040000 		.4byte	0x44d
 4185 044d 10       		.uleb128 0x10
 4186 044e 994C0000 		.4byte	0x4c99
 4187 0452 0D       		.uleb128 0xd
 4188 0453 B4000000 		.4byte	0xb4
 4189 0457 0D       		.uleb128 0xd
 4190 0458 2C000000 		.4byte	0x2c
 4191 045c 0D       		.uleb128 0xd
 4192 045d 2C000000 		.4byte	0x2c
 4193 0461 0D       		.uleb128 0xd
 4194 0462 CD020000 		.4byte	0x2cd
 4195 0466 00       		.byte	0
 4196 0467 00       		.byte	0
 4197 0468 07       		.uleb128 0x7
 4198 0469 AF020000 		.4byte	0x2af
 4199 046d 0E       		.uleb128 0xe
 4200 046e A4480000 		.4byte	.LASF50
 4201 0472 04       		.byte	0x4
 4202 0473 05       		.byte	0x5
 4203 0474 08       		.byte	0x8
 4204 0475 F3060000 		.4byte	0x6f3
 4205 0479 17       		.uleb128 0x17
 4206 047a 471F0000 		.4byte	.LASF52
 4207 047e 05       		.byte	0x5
 4208 047f 0A       		.byte	0xa
 4209 0480 7C470000 		.4byte	0x477c
 4210 0484 01       		.byte	0x1
 4211 0485 1A       		.uleb128 0x1a
 4212 0486 72617700 		.ascii	"raw\000"
 4213 048a 05       		.byte	0x5
 4214 048b 1B       		.byte	0x1b
 4215 048c 79040000 		.4byte	0x479
 4216 0490 00       		.byte	0
 4217 0491 01       		.byte	0x1
 4218 0492 1B       		.uleb128 0x1b
ARM GAS  /tmp/cc9AvIGf.s 			page 76


 4219 0493 06210000 		.4byte	.LASF53
 4220 0497 05       		.byte	0x5
 4221 0498 3B       		.byte	0x3b
 4222 0499 F3060000 		.4byte	0x6f3
 4223 049d 01       		.byte	0x1
 4224 049e 1B       		.uleb128 0x1b
 4225 049f 871E0000 		.4byte	.LASF54
 4226 04a3 05       		.byte	0x5
 4227 04a4 3C       		.byte	0x3c
 4228 04a5 F3060000 		.4byte	0x6f3
 4229 04a9 01       		.byte	0x1
 4230 04aa 1B       		.uleb128 0x1b
 4231 04ab BA640000 		.4byte	.LASF55
 4232 04af 05       		.byte	0x5
 4233 04b0 3D       		.byte	0x3d
 4234 04b1 F3060000 		.4byte	0x6f3
 4235 04b5 01       		.byte	0x1
 4236 04b6 18       		.uleb128 0x18
 4237 04b7 12260000 		.4byte	.LASF56
 4238 04bb 05       		.byte	0x5
 4239 04bc 1E       		.byte	0x1e
 4240 04bd 5C600000 		.4byte	.LASF57
 4241 04c1 79040000 		.4byte	0x479
 4242 04c5 01       		.byte	0x1
 4243 04c6 CE040000 		.4byte	0x4ce
 4244 04ca D4040000 		.4byte	0x4d4
 4245 04ce 10       		.uleb128 0x10
 4246 04cf AC4C0000 		.4byte	0x4cac
 4247 04d3 00       		.byte	0
 4248 04d4 18       		.uleb128 0x18
 4249 04d5 73400000 		.4byte	.LASF58
 4250 04d9 05       		.byte	0x5
 4251 04da 1F       		.byte	0x1f
 4252 04db 111F0000 		.4byte	.LASF59
 4253 04df 79040000 		.4byte	0x479
 4254 04e3 01       		.byte	0x1
 4255 04e4 EC040000 		.4byte	0x4ec
 4256 04e8 F2040000 		.4byte	0x4f2
 4257 04ec 10       		.uleb128 0x10
 4258 04ed AC4C0000 		.4byte	0x4cac
 4259 04f1 00       		.byte	0
 4260 04f2 18       		.uleb128 0x18
 4261 04f3 5E050000 		.4byte	.LASF60
 4262 04f7 05       		.byte	0x5
 4263 04f8 20       		.byte	0x20
 4264 04f9 63590000 		.4byte	.LASF61
 4265 04fd 79040000 		.4byte	0x479
 4266 0501 01       		.byte	0x1
 4267 0502 0A050000 		.4byte	0x50a
 4268 0506 10050000 		.4byte	0x510
 4269 050a 10       		.uleb128 0x10
 4270 050b AC4C0000 		.4byte	0x4cac
 4271 050f 00       		.byte	0
 4272 0510 18       		.uleb128 0x18
 4273 0511 DF110000 		.4byte	.LASF62
 4274 0515 05       		.byte	0x5
 4275 0516 21       		.byte	0x21
ARM GAS  /tmp/cc9AvIGf.s 			page 77


 4276 0517 503C0000 		.4byte	.LASF63
 4277 051b 79040000 		.4byte	0x479
 4278 051f 01       		.byte	0x1
 4279 0520 28050000 		.4byte	0x528
 4280 0524 2E050000 		.4byte	0x52e
 4281 0528 10       		.uleb128 0x10
 4282 0529 AC4C0000 		.4byte	0x4cac
 4283 052d 00       		.byte	0
 4284 052e 18       		.uleb128 0x18
 4285 052f 5B1C0000 		.4byte	.LASF64
 4286 0533 05       		.byte	0x5
 4287 0534 23       		.byte	0x23
 4288 0535 9C060000 		.4byte	.LASF65
 4289 0539 B24C0000 		.4byte	0x4cb2
 4290 053d 01       		.byte	0x1
 4291 053e 46050000 		.4byte	0x546
 4292 0542 4C050000 		.4byte	0x54c
 4293 0546 10       		.uleb128 0x10
 4294 0547 AC4C0000 		.4byte	0x4cac
 4295 054b 00       		.byte	0
 4296 054c 18       		.uleb128 0x18
 4297 054d F4100000 		.4byte	.LASF66
 4298 0551 05       		.byte	0x5
 4299 0552 24       		.byte	0x24
 4300 0553 C5140000 		.4byte	.LASF67
 4301 0557 B24C0000 		.4byte	0x4cb2
 4302 055b 01       		.byte	0x1
 4303 055c 64050000 		.4byte	0x564
 4304 0560 6A050000 		.4byte	0x56a
 4305 0564 10       		.uleb128 0x10
 4306 0565 AC4C0000 		.4byte	0x4cac
 4307 0569 00       		.byte	0
 4308 056a 18       		.uleb128 0x18
 4309 056b 2C620000 		.4byte	.LASF68
 4310 056f 05       		.byte	0x5
 4311 0570 25       		.byte	0x25
 4312 0571 F1560000 		.4byte	.LASF69
 4313 0575 B24C0000 		.4byte	0x4cb2
 4314 0579 01       		.byte	0x1
 4315 057a 82050000 		.4byte	0x582
 4316 057e 88050000 		.4byte	0x588
 4317 0582 10       		.uleb128 0x10
 4318 0583 AC4C0000 		.4byte	0x4cac
 4319 0587 00       		.byte	0
 4320 0588 18       		.uleb128 0x18
 4321 0589 07620000 		.4byte	.LASF70
 4322 058d 05       		.byte	0x5
 4323 058e 26       		.byte	0x26
 4324 058f 841A0000 		.4byte	.LASF71
 4325 0593 B24C0000 		.4byte	0x4cb2
 4326 0597 01       		.byte	0x1
 4327 0598 A0050000 		.4byte	0x5a0
 4328 059c A6050000 		.4byte	0x5a6
 4329 05a0 10       		.uleb128 0x10
 4330 05a1 AC4C0000 		.4byte	0x4cac
 4331 05a5 00       		.byte	0
 4332 05a6 18       		.uleb128 0x18
ARM GAS  /tmp/cc9AvIGf.s 			page 78


 4333 05a7 FD130000 		.4byte	.LASF72
 4334 05ab 05       		.byte	0x5
 4335 05ac 28       		.byte	0x28
 4336 05ad 413A0000 		.4byte	.LASF73
 4337 05b1 B94C0000 		.4byte	0x4cb9
 4338 05b5 01       		.byte	0x1
 4339 05b6 BE050000 		.4byte	0x5be
 4340 05ba C9050000 		.4byte	0x5c9
 4341 05be 10       		.uleb128 0x10
 4342 05bf BF4C0000 		.4byte	0x4cbf
 4343 05c3 0D       		.uleb128 0xd
 4344 05c4 C54C0000 		.4byte	0x4cc5
 4345 05c8 00       		.byte	0
 4346 05c9 18       		.uleb128 0x18
 4347 05ca 75410000 		.4byte	.LASF74
 4348 05ce 05       		.byte	0x5
 4349 05cf 29       		.byte	0x29
 4350 05d0 7B570000 		.4byte	.LASF75
 4351 05d4 B94C0000 		.4byte	0x4cb9
 4352 05d8 01       		.byte	0x1
 4353 05d9 E1050000 		.4byte	0x5e1
 4354 05dd EC050000 		.4byte	0x5ec
 4355 05e1 10       		.uleb128 0x10
 4356 05e2 BF4C0000 		.4byte	0x4cbf
 4357 05e6 0D       		.uleb128 0xd
 4358 05e7 C54C0000 		.4byte	0x4cc5
 4359 05eb 00       		.byte	0
 4360 05ec 18       		.uleb128 0x18
 4361 05ed A1440000 		.4byte	.LASF76
 4362 05f1 05       		.byte	0x5
 4363 05f2 2A       		.byte	0x2a
 4364 05f3 86100000 		.4byte	.LASF77
 4365 05f7 B94C0000 		.4byte	0x4cb9
 4366 05fb 01       		.byte	0x1
 4367 05fc 04060000 		.4byte	0x604
 4368 0600 0F060000 		.4byte	0x60f
 4369 0604 10       		.uleb128 0x10
 4370 0605 BF4C0000 		.4byte	0x4cbf
 4371 0609 0D       		.uleb128 0xd
 4372 060a C54C0000 		.4byte	0x4cc5
 4373 060e 00       		.byte	0
 4374 060f 11       		.uleb128 0x11
 4375 0610 A4480000 		.4byte	.LASF50
 4376 0614 05       		.byte	0x5
 4377 0615 2D       		.byte	0x2d
 4378 0616 BF4C0000 		.4byte	0x4cbf
 4379 061a 01       		.byte	0x1
 4380 061b 23060000 		.4byte	0x623
 4381 061f 29060000 		.4byte	0x629
 4382 0623 10       		.uleb128 0x10
 4383 0624 BF4C0000 		.4byte	0x4cbf
 4384 0628 00       		.byte	0
 4385 0629 1C       		.uleb128 0x1c
 4386 062a A4480000 		.4byte	.LASF50
 4387 062e 05       		.byte	0x5
 4388 062f 2F       		.byte	0x2f
 4389 0630 BF4C0000 		.4byte	0x4cbf
ARM GAS  /tmp/cc9AvIGf.s 			page 79


 4390 0634 01       		.byte	0x1
 4391 0635 3D060000 		.4byte	0x63d
 4392 0639 48060000 		.4byte	0x648
 4393 063d 10       		.uleb128 0x10
 4394 063e BF4C0000 		.4byte	0x4cbf
 4395 0642 0D       		.uleb128 0xd
 4396 0643 B24C0000 		.4byte	0x4cb2
 4397 0647 00       		.byte	0
 4398 0648 11       		.uleb128 0x11
 4399 0649 A4480000 		.4byte	.LASF50
 4400 064d 05       		.byte	0x5
 4401 064e 30       		.byte	0x30
 4402 064f BF4C0000 		.4byte	0x4cbf
 4403 0653 01       		.byte	0x1
 4404 0654 5C060000 		.4byte	0x65c
 4405 0658 67060000 		.4byte	0x667
 4406 065c 10       		.uleb128 0x10
 4407 065d BF4C0000 		.4byte	0x4cbf
 4408 0661 0D       		.uleb128 0xd
 4409 0662 C54C0000 		.4byte	0x4cc5
 4410 0666 00       		.byte	0
 4411 0667 1D       		.uleb128 0x1d
 4412 0668 757300   		.ascii	"us\000"
 4413 066b 05       		.byte	0x5
 4414 066c 33       		.byte	0x33
 4415 066d 84320000 		.4byte	.LASF78
 4416 0671 6D040000 		.4byte	0x46d
 4417 0675 01       		.byte	0x1
 4418 0676 80060000 		.4byte	0x680
 4419 067a 0D       		.uleb128 0xd
 4420 067b 79040000 		.4byte	0x479
 4421 067f 00       		.byte	0
 4422 0680 1D       		.uleb128 0x1d
 4423 0681 6D7300   		.ascii	"ms\000"
 4424 0684 05       		.byte	0x5
 4425 0685 34       		.byte	0x34
 4426 0686 23420000 		.4byte	.LASF79
 4427 068a 6D040000 		.4byte	0x46d
 4428 068e 01       		.byte	0x1
 4429 068f 99060000 		.4byte	0x699
 4430 0693 0D       		.uleb128 0xd
 4431 0694 79040000 		.4byte	0x479
 4432 0698 00       		.byte	0
 4433 0699 1D       		.uleb128 0x1d
 4434 069a 7300     		.ascii	"s\000"
 4435 069c 05       		.byte	0x5
 4436 069d 35       		.byte	0x35
 4437 069e 774B0000 		.4byte	.LASF80
 4438 06a2 6D040000 		.4byte	0x46d
 4439 06a6 01       		.byte	0x1
 4440 06a7 B1060000 		.4byte	0x6b1
 4441 06ab 0D       		.uleb128 0xd
 4442 06ac 79040000 		.4byte	0x479
 4443 06b0 00       		.byte	0
 4444 06b1 1D       		.uleb128 0x1d
 4445 06b2 6D00     		.ascii	"m\000"
 4446 06b4 05       		.byte	0x5
ARM GAS  /tmp/cc9AvIGf.s 			page 80


 4447 06b5 36       		.byte	0x36
 4448 06b6 9D120000 		.4byte	.LASF81
 4449 06ba 6D040000 		.4byte	0x46d
 4450 06be 01       		.byte	0x1
 4451 06bf C9060000 		.4byte	0x6c9
 4452 06c3 0D       		.uleb128 0xd
 4453 06c4 79040000 		.4byte	0x479
 4454 06c8 00       		.byte	0
 4455 06c9 1D       		.uleb128 0x1d
 4456 06ca 687A00   		.ascii	"hz\000"
 4457 06cd 05       		.byte	0x5
 4458 06ce 37       		.byte	0x37
 4459 06cf 725F0000 		.4byte	.LASF82
 4460 06d3 6D040000 		.4byte	0x46d
 4461 06d7 01       		.byte	0x1
 4462 06d8 E2060000 		.4byte	0x6e2
 4463 06dc 0D       		.uleb128 0xd
 4464 06dd B24C0000 		.4byte	0x4cb2
 4465 06e1 00       		.byte	0
 4466 06e2 1E       		.uleb128 0x1e
 4467 06e3 6E6F7700 		.ascii	"now\000"
 4468 06e7 05       		.byte	0x5
 4469 06e8 38       		.byte	0x38
 4470 06e9 305F0000 		.4byte	.LASF804
 4471 06ed 6D040000 		.4byte	0x46d
 4472 06f1 01       		.byte	0x1
 4473 06f2 00       		.byte	0
 4474 06f3 07       		.uleb128 0x7
 4475 06f4 6D040000 		.4byte	0x46d
 4476 06f8 0E       		.uleb128 0xe
 4477 06f9 F12C0000 		.4byte	.LASF83
 4478 06fd 04       		.byte	0x4
 4479 06fe 0B       		.byte	0xb
 4480 06ff 0F       		.byte	0xf
 4481 0700 10100000 		.4byte	0x1010
 4482 0704 13       		.uleb128 0x13
 4483 0705 79010000 		.4byte	0x179
 4484 0709 00       		.byte	0
 4485 070a 1F       		.uleb128 0x1f
 4486 070b F45A0000 		.4byte	.LASF87
 4487 070f 08       		.byte	0x8
 4488 0710 0B       		.byte	0xb
 4489 0711 11       		.byte	0x11
 4490 0712 01       		.byte	0x1
 4491 0713 4A070000 		.4byte	0x74a
 4492 0717 16       		.uleb128 0x16
 4493 0718 1D2D0000 		.4byte	.LASF85
 4494 071c 0B       		.byte	0xb
 4495 071d 12       		.byte	0x12
 4496 071e CB4C0000 		.4byte	0x4ccb
 4497 0722 00       		.byte	0
 4498 0723 16       		.uleb128 0x16
 4499 0724 FB190000 		.4byte	.LASF86
 4500 0728 0B       		.byte	0xb
 4501 0729 13       		.byte	0x13
 4502 072a E64E0000 		.4byte	0x4ee6
 4503 072e 04       		.byte	0x4
ARM GAS  /tmp/cc9AvIGf.s 			page 81


 4504 072f 20       		.uleb128 0x20
 4505 0730 F45A0000 		.4byte	.LASF87
 4506 0734 0B       		.byte	0xb
 4507 0735 15       		.byte	0x15
 4508 0736 CB4C0000 		.4byte	0x4ccb
 4509 073a 3E070000 		.4byte	0x73e
 4510 073e 10       		.uleb128 0x10
 4511 073f CB4C0000 		.4byte	0x4ccb
 4512 0743 0D       		.uleb128 0xd
 4513 0744 524E0000 		.4byte	0x4e52
 4514 0748 00       		.byte	0
 4515 0749 00       		.byte	0
 4516 074a 21       		.uleb128 0x21
 4517 074b 34130000 		.4byte	.LASF88
 4518 074f 0B       		.byte	0xb
 4519 0750 8A01     		.2byte	0x18a
 4520 0752 CB4C0000 		.4byte	0x4ccb
 4521 0756 00       		.byte	0
 4522 0757 22       		.uleb128 0x22
 4523 0758 2B280000 		.4byte	.LASF368
 4524 075c 15       		.uleb128 0x15
 4525 075d AB1F0000 		.4byte	.LASF89
 4526 0761 04       		.byte	0x4
 4527 0762 0B       		.byte	0xb
 4528 0763 20       		.byte	0x20
 4529 0764 01       		.byte	0x1
 4530 0765 CC080000 		.4byte	0x8cc
 4531 0769 16       		.uleb128 0x16
 4532 076a A9140000 		.4byte	.LASF90
 4533 076e 0B       		.byte	0xb
 4534 076f 24       		.byte	0x24
 4535 0770 064D0000 		.4byte	0x4d06
 4536 0774 00       		.byte	0
 4537 0775 11       		.uleb128 0x11
 4538 0776 AB1F0000 		.4byte	.LASF89
 4539 077a 0B       		.byte	0xb
 4540 077b 27       		.byte	0x27
 4541 077c 3D510000 		.4byte	0x513d
 4542 0780 01       		.byte	0x1
 4543 0781 89070000 		.4byte	0x789
 4544 0785 8F070000 		.4byte	0x78f
 4545 0789 10       		.uleb128 0x10
 4546 078a 3D510000 		.4byte	0x513d
 4547 078e 00       		.byte	0
 4548 078f 11       		.uleb128 0x11
 4549 0790 AB1F0000 		.4byte	.LASF89
 4550 0794 0B       		.byte	0xb
 4551 0795 28       		.byte	0x28
 4552 0796 3D510000 		.4byte	0x513d
 4553 079a 01       		.byte	0x1
 4554 079b A3070000 		.4byte	0x7a3
 4555 079f AE070000 		.4byte	0x7ae
 4556 07a3 10       		.uleb128 0x10
 4557 07a4 3D510000 		.4byte	0x513d
 4558 07a8 0D       		.uleb128 0xd
 4559 07a9 43510000 		.4byte	0x5143
 4560 07ad 00       		.byte	0
ARM GAS  /tmp/cc9AvIGf.s 			page 82


 4561 07ae 0F       		.uleb128 0xf
 4562 07af AB1F0000 		.4byte	.LASF89
 4563 07b3 0B       		.byte	0xb
 4564 07b4 2B       		.byte	0x2b
 4565 07b5 3D510000 		.4byte	0x513d
 4566 07b9 C1070000 		.4byte	0x7c1
 4567 07bd CC070000 		.4byte	0x7cc
 4568 07c1 10       		.uleb128 0x10
 4569 07c2 3D510000 		.4byte	0x513d
 4570 07c6 0D       		.uleb128 0xd
 4571 07c7 064D0000 		.4byte	0x4d06
 4572 07cb 00       		.byte	0
 4573 07cc 23       		.uleb128 0x23
 4574 07cd FD130000 		.4byte	.LASF72
 4575 07d1 0B       		.byte	0xb
 4576 07d2 2E       		.byte	0x2e
 4577 07d3 13270000 		.4byte	.LASF91
 4578 07d7 244D0000 		.4byte	0x4d24
 4579 07db E3070000 		.4byte	0x7e3
 4580 07df EE070000 		.4byte	0x7ee
 4581 07e3 10       		.uleb128 0x10
 4582 07e4 3D510000 		.4byte	0x513d
 4583 07e8 0D       		.uleb128 0xd
 4584 07e9 43510000 		.4byte	0x5143
 4585 07ed 00       		.byte	0
 4586 07ee 18       		.uleb128 0x18
 4587 07ef AC440000 		.4byte	.LASF92
 4588 07f3 0B       		.byte	0xb
 4589 07f4 34       		.byte	0x34
 4590 07f5 11140000 		.4byte	.LASF93
 4591 07f9 1E4D0000 		.4byte	0x4d1e
 4592 07fd 01       		.byte	0x1
 4593 07fe 06080000 		.4byte	0x806
 4594 0802 0C080000 		.4byte	0x80c
 4595 0806 10       		.uleb128 0x10
 4596 0807 49510000 		.4byte	0x5149
 4597 080b 00       		.byte	0
 4598 080c 18       		.uleb128 0x18
 4599 080d B8130000 		.4byte	.LASF94
 4600 0811 0B       		.byte	0xb
 4601 0812 38       		.byte	0x38
 4602 0813 53630000 		.4byte	.LASF95
 4603 0817 524E0000 		.4byte	0x4e52
 4604 081b 01       		.byte	0x1
 4605 081c 24080000 		.4byte	0x824
 4606 0820 2A080000 		.4byte	0x82a
 4607 0824 10       		.uleb128 0x10
 4608 0825 49510000 		.4byte	0x5149
 4609 0829 00       		.byte	0
 4610 082a 18       		.uleb128 0x18
 4611 082b 86420000 		.4byte	.LASF96
 4612 082f 0B       		.byte	0xb
 4613 0830 3C       		.byte	0x3c
 4614 0831 5A4A0000 		.4byte	.LASF97
 4615 0835 244D0000 		.4byte	0x4d24
 4616 0839 01       		.byte	0x1
 4617 083a 42080000 		.4byte	0x842
ARM GAS  /tmp/cc9AvIGf.s 			page 83


 4618 083e 48080000 		.4byte	0x848
 4619 0842 10       		.uleb128 0x10
 4620 0843 3D510000 		.4byte	0x513d
 4621 0847 00       		.byte	0
 4622 0848 18       		.uleb128 0x18
 4623 0849 86420000 		.4byte	.LASF96
 4624 084d 0B       		.byte	0xb
 4625 084e 41       		.byte	0x41
 4626 084f 134A0000 		.4byte	.LASF98
 4627 0853 430D0000 		.4byte	0xd43
 4628 0857 01       		.byte	0x1
 4629 0858 60080000 		.4byte	0x860
 4630 085c 6B080000 		.4byte	0x86b
 4631 0860 10       		.uleb128 0x10
 4632 0861 3D510000 		.4byte	0x513d
 4633 0865 0D       		.uleb128 0xd
 4634 0866 25000000 		.4byte	0x25
 4635 086a 00       		.byte	0
 4636 086b 18       		.uleb128 0x18
 4637 086c 31620000 		.4byte	.LASF99
 4638 0870 0B       		.byte	0xb
 4639 0871 47       		.byte	0x47
 4640 0872 6A360000 		.4byte	.LASF100
 4641 0876 9D470000 		.4byte	0x479d
 4642 087a 01       		.byte	0x1
 4643 087b 83080000 		.4byte	0x883
 4644 087f 8E080000 		.4byte	0x88e
 4645 0883 10       		.uleb128 0x10
 4646 0884 49510000 		.4byte	0x5149
 4647 0888 0D       		.uleb128 0xd
 4648 0889 43510000 		.4byte	0x5143
 4649 088d 00       		.byte	0
 4650 088e 18       		.uleb128 0x18
 4651 088f 67300000 		.4byte	.LASF101
 4652 0893 0B       		.byte	0xb
 4653 0894 4B       		.byte	0x4b
 4654 0895 773F0000 		.4byte	.LASF102
 4655 0899 9D470000 		.4byte	0x479d
 4656 089d 01       		.byte	0x1
 4657 089e A6080000 		.4byte	0x8a6
 4658 08a2 B1080000 		.4byte	0x8b1
 4659 08a6 10       		.uleb128 0x10
 4660 08a7 49510000 		.4byte	0x5149
 4661 08ab 0D       		.uleb128 0xd
 4662 08ac 43510000 		.4byte	0x5143
 4663 08b0 00       		.byte	0
 4664 08b1 24       		.uleb128 0x24
 4665 08b2 14430000 		.4byte	.LASF103
 4666 08b6 0B       		.byte	0xb
 4667 08b7 4F       		.byte	0x4f
 4668 08b8 D8350000 		.4byte	.LASF104
 4669 08bc 9D470000 		.4byte	0x479d
 4670 08c0 01       		.byte	0x1
 4671 08c1 C5080000 		.4byte	0x8c5
 4672 08c5 10       		.uleb128 0x10
 4673 08c6 49510000 		.4byte	0x5149
 4674 08ca 00       		.byte	0
ARM GAS  /tmp/cc9AvIGf.s 			page 84


 4675 08cb 00       		.byte	0
 4676 08cc 25       		.uleb128 0x25
 4677 08cd A82E0000 		.4byte	.LASF179
 4678 08d1 15       		.uleb128 0x15
 4679 08d2 0E530000 		.4byte	.LASF105
 4680 08d6 04       		.byte	0x4
 4681 08d7 0B       		.byte	0xb
 4682 08d8 88       		.byte	0x88
 4683 08d9 01       		.byte	0x1
 4684 08da 410A0000 		.4byte	0xa41
 4685 08de 16       		.uleb128 0x16
 4686 08df A9140000 		.4byte	.LASF90
 4687 08e3 0B       		.byte	0xb
 4688 08e4 8C       		.byte	0x8c
 4689 08e5 064D0000 		.4byte	0x4d06
 4690 08e9 00       		.byte	0
 4691 08ea 11       		.uleb128 0x11
 4692 08eb 0E530000 		.4byte	.LASF105
 4693 08ef 0B       		.byte	0xb
 4694 08f0 8F       		.byte	0x8f
 4695 08f1 61510000 		.4byte	0x5161
 4696 08f5 01       		.byte	0x1
 4697 08f6 FE080000 		.4byte	0x8fe
 4698 08fa 04090000 		.4byte	0x904
 4699 08fe 10       		.uleb128 0x10
 4700 08ff 61510000 		.4byte	0x5161
 4701 0903 00       		.byte	0
 4702 0904 11       		.uleb128 0x11
 4703 0905 0E530000 		.4byte	.LASF105
 4704 0909 0B       		.byte	0xb
 4705 090a 90       		.byte	0x90
 4706 090b 61510000 		.4byte	0x5161
 4707 090f 01       		.byte	0x1
 4708 0910 18090000 		.4byte	0x918
 4709 0914 23090000 		.4byte	0x923
 4710 0918 10       		.uleb128 0x10
 4711 0919 61510000 		.4byte	0x5161
 4712 091d 0D       		.uleb128 0xd
 4713 091e 67510000 		.4byte	0x5167
 4714 0922 00       		.byte	0
 4715 0923 0F       		.uleb128 0xf
 4716 0924 0E530000 		.4byte	.LASF105
 4717 0928 0B       		.byte	0xb
 4718 0929 93       		.byte	0x93
 4719 092a 61510000 		.4byte	0x5161
 4720 092e 36090000 		.4byte	0x936
 4721 0932 41090000 		.4byte	0x941
 4722 0936 10       		.uleb128 0x10
 4723 0937 61510000 		.4byte	0x5161
 4724 093b 0D       		.uleb128 0xd
 4725 093c 064D0000 		.4byte	0x4d06
 4726 0940 00       		.byte	0
 4727 0941 23       		.uleb128 0x23
 4728 0942 FD130000 		.4byte	.LASF72
 4729 0946 0B       		.byte	0xb
 4730 0947 96       		.byte	0x96
 4731 0948 053A0000 		.4byte	.LASF106
ARM GAS  /tmp/cc9AvIGf.s 			page 85


 4732 094c 304D0000 		.4byte	0x4d30
 4733 0950 58090000 		.4byte	0x958
 4734 0954 63090000 		.4byte	0x963
 4735 0958 10       		.uleb128 0x10
 4736 0959 61510000 		.4byte	0x5161
 4737 095d 0D       		.uleb128 0xd
 4738 095e 67510000 		.4byte	0x5167
 4739 0962 00       		.byte	0
 4740 0963 18       		.uleb128 0x18
 4741 0964 AC440000 		.4byte	.LASF92
 4742 0968 0B       		.byte	0xb
 4743 0969 9C       		.byte	0x9c
 4744 096a D92E0000 		.4byte	.LASF107
 4745 096e 1E4D0000 		.4byte	0x4d1e
 4746 0972 01       		.byte	0x1
 4747 0973 7B090000 		.4byte	0x97b
 4748 0977 81090000 		.4byte	0x981
 4749 097b 10       		.uleb128 0x10
 4750 097c 6D510000 		.4byte	0x516d
 4751 0980 00       		.byte	0
 4752 0981 18       		.uleb128 0x18
 4753 0982 B8130000 		.4byte	.LASF94
 4754 0986 0B       		.byte	0xb
 4755 0987 A0       		.byte	0xa0
 4756 0988 91170000 		.4byte	.LASF108
 4757 098c 524E0000 		.4byte	0x4e52
 4758 0990 01       		.byte	0x1
 4759 0991 99090000 		.4byte	0x999
 4760 0995 9F090000 		.4byte	0x99f
 4761 0999 10       		.uleb128 0x10
 4762 099a 6D510000 		.4byte	0x516d
 4763 099e 00       		.byte	0
 4764 099f 18       		.uleb128 0x18
 4765 09a0 86420000 		.4byte	.LASF96
 4766 09a4 0B       		.byte	0xb
 4767 09a5 A4       		.byte	0xa4
 4768 09a6 52330000 		.4byte	.LASF109
 4769 09aa 304D0000 		.4byte	0x4d30
 4770 09ae 01       		.byte	0x1
 4771 09af B7090000 		.4byte	0x9b7
 4772 09b3 BD090000 		.4byte	0x9bd
 4773 09b7 10       		.uleb128 0x10
 4774 09b8 61510000 		.4byte	0x5161
 4775 09bc 00       		.byte	0
 4776 09bd 18       		.uleb128 0x18
 4777 09be 86420000 		.4byte	.LASF96
 4778 09c2 0B       		.byte	0xb
 4779 09c3 AB       		.byte	0xab
 4780 09c4 FB320000 		.4byte	.LASF110
 4781 09c8 3F0F0000 		.4byte	0xf3f
 4782 09cc 01       		.byte	0x1
 4783 09cd D5090000 		.4byte	0x9d5
 4784 09d1 E0090000 		.4byte	0x9e0
 4785 09d5 10       		.uleb128 0x10
 4786 09d6 61510000 		.4byte	0x5161
 4787 09da 0D       		.uleb128 0xd
 4788 09db 25000000 		.4byte	0x25
ARM GAS  /tmp/cc9AvIGf.s 			page 86


 4789 09df 00       		.byte	0
 4790 09e0 18       		.uleb128 0x18
 4791 09e1 31620000 		.4byte	.LASF99
 4792 09e5 0B       		.byte	0xb
 4793 09e6 B3       		.byte	0xb3
 4794 09e7 D03D0000 		.4byte	.LASF111
 4795 09eb 9D470000 		.4byte	0x479d
 4796 09ef 01       		.byte	0x1
 4797 09f0 F8090000 		.4byte	0x9f8
 4798 09f4 030A0000 		.4byte	0xa03
 4799 09f8 10       		.uleb128 0x10
 4800 09f9 6D510000 		.4byte	0x516d
 4801 09fd 0D       		.uleb128 0xd
 4802 09fe 67510000 		.4byte	0x5167
 4803 0a02 00       		.byte	0
 4804 0a03 18       		.uleb128 0x18
 4805 0a04 67300000 		.4byte	.LASF101
 4806 0a08 0B       		.byte	0xb
 4807 0a09 B7       		.byte	0xb7
 4808 0a0a 08190000 		.4byte	.LASF112
 4809 0a0e 9D470000 		.4byte	0x479d
 4810 0a12 01       		.byte	0x1
 4811 0a13 1B0A0000 		.4byte	0xa1b
 4812 0a17 260A0000 		.4byte	0xa26
 4813 0a1b 10       		.uleb128 0x10
 4814 0a1c 6D510000 		.4byte	0x516d
 4815 0a20 0D       		.uleb128 0xd
 4816 0a21 67510000 		.4byte	0x5167
 4817 0a25 00       		.byte	0
 4818 0a26 24       		.uleb128 0x24
 4819 0a27 14430000 		.4byte	.LASF103
 4820 0a2b 0B       		.byte	0xb
 4821 0a2c BB       		.byte	0xbb
 4822 0a2d C04F0000 		.4byte	.LASF113
 4823 0a31 9D470000 		.4byte	0x479d
 4824 0a35 01       		.byte	0x1
 4825 0a36 3A0A0000 		.4byte	0xa3a
 4826 0a3a 10       		.uleb128 0x10
 4827 0a3b 6D510000 		.4byte	0x516d
 4828 0a3f 00       		.byte	0
 4829 0a40 00       		.byte	0
 4830 0a41 15       		.uleb128 0x15
 4831 0a42 2A3F0000 		.4byte	.LASF114
 4832 0a46 04       		.byte	0x4
 4833 0a47 0B       		.byte	0xb
 4834 0a48 C0       		.byte	0xc0
 4835 0a49 01       		.byte	0x1
 4836 0a4a B10B0000 		.4byte	0xbb1
 4837 0a4e 16       		.uleb128 0x16
 4838 0a4f A9140000 		.4byte	.LASF90
 4839 0a53 0B       		.byte	0xb
 4840 0a54 C4       		.byte	0xc4
 4841 0a55 D5500000 		.4byte	0x50d5
 4842 0a59 00       		.byte	0
 4843 0a5a 11       		.uleb128 0x11
 4844 0a5b 2A3F0000 		.4byte	.LASF114
 4845 0a5f 0B       		.byte	0xb
ARM GAS  /tmp/cc9AvIGf.s 			page 87


 4846 0a60 C7       		.byte	0xc7
 4847 0a61 DB500000 		.4byte	0x50db
 4848 0a65 01       		.byte	0x1
 4849 0a66 6E0A0000 		.4byte	0xa6e
 4850 0a6a 740A0000 		.4byte	0xa74
 4851 0a6e 10       		.uleb128 0x10
 4852 0a6f DB500000 		.4byte	0x50db
 4853 0a73 00       		.byte	0
 4854 0a74 11       		.uleb128 0x11
 4855 0a75 2A3F0000 		.4byte	.LASF114
 4856 0a79 0B       		.byte	0xb
 4857 0a7a C8       		.byte	0xc8
 4858 0a7b DB500000 		.4byte	0x50db
 4859 0a7f 01       		.byte	0x1
 4860 0a80 880A0000 		.4byte	0xa88
 4861 0a84 930A0000 		.4byte	0xa93
 4862 0a88 10       		.uleb128 0x10
 4863 0a89 DB500000 		.4byte	0x50db
 4864 0a8d 0D       		.uleb128 0xd
 4865 0a8e E1500000 		.4byte	0x50e1
 4866 0a92 00       		.byte	0
 4867 0a93 0F       		.uleb128 0xf
 4868 0a94 2A3F0000 		.4byte	.LASF114
 4869 0a98 0B       		.byte	0xb
 4870 0a99 CB       		.byte	0xcb
 4871 0a9a DB500000 		.4byte	0x50db
 4872 0a9e A60A0000 		.4byte	0xaa6
 4873 0aa2 B10A0000 		.4byte	0xab1
 4874 0aa6 10       		.uleb128 0x10
 4875 0aa7 DB500000 		.4byte	0x50db
 4876 0aab 0D       		.uleb128 0xd
 4877 0aac D5500000 		.4byte	0x50d5
 4878 0ab0 00       		.byte	0
 4879 0ab1 23       		.uleb128 0x23
 4880 0ab2 FD130000 		.4byte	.LASF72
 4881 0ab6 0B       		.byte	0xb
 4882 0ab7 CE       		.byte	0xce
 4883 0ab8 52250000 		.4byte	.LASF115
 4884 0abc 364D0000 		.4byte	0x4d36
 4885 0ac0 C80A0000 		.4byte	0xac8
 4886 0ac4 D30A0000 		.4byte	0xad3
 4887 0ac8 10       		.uleb128 0x10
 4888 0ac9 DB500000 		.4byte	0x50db
 4889 0acd 0D       		.uleb128 0xd
 4890 0ace E1500000 		.4byte	0x50e1
 4891 0ad2 00       		.byte	0
 4892 0ad3 18       		.uleb128 0x18
 4893 0ad4 AC440000 		.4byte	.LASF92
 4894 0ad8 0B       		.byte	0xb
 4895 0ad9 D4       		.byte	0xd4
 4896 0ada 35560000 		.4byte	.LASF116
 4897 0ade E7500000 		.4byte	0x50e7
 4898 0ae2 01       		.byte	0x1
 4899 0ae3 EB0A0000 		.4byte	0xaeb
 4900 0ae7 F10A0000 		.4byte	0xaf1
 4901 0aeb 10       		.uleb128 0x10
 4902 0aec ED500000 		.4byte	0x50ed
ARM GAS  /tmp/cc9AvIGf.s 			page 88


 4903 0af0 00       		.byte	0
 4904 0af1 18       		.uleb128 0x18
 4905 0af2 B8130000 		.4byte	.LASF94
 4906 0af6 0B       		.byte	0xb
 4907 0af7 D8       		.byte	0xd8
 4908 0af8 4D3D0000 		.4byte	.LASF117
 4909 0afc E64C0000 		.4byte	0x4ce6
 4910 0b00 01       		.byte	0x1
 4911 0b01 090B0000 		.4byte	0xb09
 4912 0b05 0F0B0000 		.4byte	0xb0f
 4913 0b09 10       		.uleb128 0x10
 4914 0b0a ED500000 		.4byte	0x50ed
 4915 0b0e 00       		.byte	0
 4916 0b0f 18       		.uleb128 0x18
 4917 0b10 86420000 		.4byte	.LASF96
 4918 0b14 0B       		.byte	0xb
 4919 0b15 DC       		.byte	0xdc
 4920 0b16 CB460000 		.4byte	.LASF118
 4921 0b1a 364D0000 		.4byte	0x4d36
 4922 0b1e 01       		.byte	0x1
 4923 0b1f 270B0000 		.4byte	0xb27
 4924 0b23 2D0B0000 		.4byte	0xb2d
 4925 0b27 10       		.uleb128 0x10
 4926 0b28 DB500000 		.4byte	0x50db
 4927 0b2c 00       		.byte	0
 4928 0b2d 18       		.uleb128 0x18
 4929 0b2e 86420000 		.4byte	.LASF96
 4930 0b32 0B       		.byte	0xb
 4931 0b33 E3       		.byte	0xe3
 4932 0b34 04460000 		.4byte	.LASF119
 4933 0b38 A20F0000 		.4byte	0xfa2
 4934 0b3c 01       		.byte	0x1
 4935 0b3d 450B0000 		.4byte	0xb45
 4936 0b41 500B0000 		.4byte	0xb50
 4937 0b45 10       		.uleb128 0x10
 4938 0b46 DB500000 		.4byte	0x50db
 4939 0b4a 0D       		.uleb128 0xd
 4940 0b4b 25000000 		.4byte	0x25
 4941 0b4f 00       		.byte	0
 4942 0b50 18       		.uleb128 0x18
 4943 0b51 31620000 		.4byte	.LASF99
 4944 0b55 0B       		.byte	0xb
 4945 0b56 EB       		.byte	0xeb
 4946 0b57 685C0000 		.4byte	.LASF120
 4947 0b5b 9D470000 		.4byte	0x479d
 4948 0b5f 01       		.byte	0x1
 4949 0b60 680B0000 		.4byte	0xb68
 4950 0b64 730B0000 		.4byte	0xb73
 4951 0b68 10       		.uleb128 0x10
 4952 0b69 ED500000 		.4byte	0x50ed
 4953 0b6d 0D       		.uleb128 0xd
 4954 0b6e E1500000 		.4byte	0x50e1
 4955 0b72 00       		.byte	0
 4956 0b73 18       		.uleb128 0x18
 4957 0b74 67300000 		.4byte	.LASF101
 4958 0b78 0B       		.byte	0xb
 4959 0b79 EF       		.byte	0xef
ARM GAS  /tmp/cc9AvIGf.s 			page 89


 4960 0b7a 51340000 		.4byte	.LASF121
 4961 0b7e 9D470000 		.4byte	0x479d
 4962 0b82 01       		.byte	0x1
 4963 0b83 8B0B0000 		.4byte	0xb8b
 4964 0b87 960B0000 		.4byte	0xb96
 4965 0b8b 10       		.uleb128 0x10
 4966 0b8c ED500000 		.4byte	0x50ed
 4967 0b90 0D       		.uleb128 0xd
 4968 0b91 E1500000 		.4byte	0x50e1
 4969 0b95 00       		.byte	0
 4970 0b96 24       		.uleb128 0x24
 4971 0b97 14430000 		.4byte	.LASF103
 4972 0b9b 0B       		.byte	0xb
 4973 0b9c F3       		.byte	0xf3
 4974 0b9d 9C260000 		.4byte	.LASF122
 4975 0ba1 9D470000 		.4byte	0x479d
 4976 0ba5 01       		.byte	0x1
 4977 0ba6 AA0B0000 		.4byte	0xbaa
 4978 0baa 10       		.uleb128 0x10
 4979 0bab ED500000 		.4byte	0x50ed
 4980 0baf 00       		.byte	0
 4981 0bb0 00       		.byte	0
 4982 0bb1 26       		.uleb128 0x26
 4983 0bb2 011A0000 		.4byte	.LASF123
 4984 0bb6 0B       		.byte	0xb
 4985 0bb7 8601     		.2byte	0x186
 4986 0bb9 D14C0000 		.4byte	0x4cd1
 4987 0bbd 26       		.uleb128 0x26
 4988 0bbe AE120000 		.4byte	.LASF124
 4989 0bc2 0B       		.byte	0xb
 4990 0bc3 8701     		.2byte	0x187
 4991 0bc5 EC4C0000 		.4byte	0x4cec
 4992 0bc9 27       		.uleb128 0x27
 4993 0bca 8A640000 		.4byte	.LASF125
 4994 0bce 0B       		.byte	0xb
 4995 0bcf 8D01     		.2byte	0x18d
 4996 0bd1 BB3F0000 		.4byte	.LASF127
 4997 0bd5 064D0000 		.4byte	0x4d06
 4998 0bd9 01       		.byte	0x1
 4999 0bda E20B0000 		.4byte	0xbe2
 5000 0bde E80B0000 		.4byte	0xbe8
 5001 0be2 10       		.uleb128 0x10
 5002 0be3 0C4D0000 		.4byte	0x4d0c
 5003 0be7 00       		.byte	0
 5004 0be8 07       		.uleb128 0x7
 5005 0be9 0A070000 		.4byte	0x70a
 5006 0bed 27       		.uleb128 0x27
 5007 0bee 845F0000 		.4byte	.LASF126
 5008 0bf2 0B       		.byte	0xb
 5009 0bf3 9101     		.2byte	0x191
 5010 0bf5 AD5E0000 		.4byte	.LASF128
 5011 0bf9 9D470000 		.4byte	0x479d
 5012 0bfd 01       		.byte	0x1
 5013 0bfe 060C0000 		.4byte	0xc06
 5014 0c02 0C0C0000 		.4byte	0xc0c
 5015 0c06 10       		.uleb128 0x10
 5016 0c07 0C4D0000 		.4byte	0x4d0c
ARM GAS  /tmp/cc9AvIGf.s 			page 90


 5017 0c0b 00       		.byte	0
 5018 0c0c 27       		.uleb128 0x27
 5019 0c0d FF1E0000 		.4byte	.LASF129
 5020 0c11 0B       		.byte	0xb
 5021 0c12 0302     		.2byte	0x203
 5022 0c14 50500000 		.4byte	.LASF130
 5023 0c18 2C000000 		.4byte	0x2c
 5024 0c1c 01       		.byte	0x1
 5025 0c1d 250C0000 		.4byte	0xc25
 5026 0c21 2B0C0000 		.4byte	0xc2b
 5027 0c25 10       		.uleb128 0x10
 5028 0c26 0C4D0000 		.4byte	0x4d0c
 5029 0c2a 00       		.byte	0
 5030 0c2b 28       		.uleb128 0x28
 5031 0c2c D3480000 		.4byte	.LASF131
 5032 0c30 0B       		.byte	0xb
 5033 0c31 9701     		.2byte	0x197
 5034 0c33 1B1D0000 		.4byte	.LASF133
 5035 0c37 01       		.byte	0x1
 5036 0c38 400C0000 		.4byte	0xc40
 5037 0c3c 4B0C0000 		.4byte	0xc4b
 5038 0c40 10       		.uleb128 0x10
 5039 0c41 124D0000 		.4byte	0x4d12
 5040 0c45 0D       		.uleb128 0xd
 5041 0c46 184D0000 		.4byte	0x4d18
 5042 0c4a 00       		.byte	0
 5043 0c4b 28       		.uleb128 0x28
 5044 0c4c 38520000 		.4byte	.LASF132
 5045 0c50 0B       		.byte	0xb
 5046 0c51 9F01     		.2byte	0x19f
 5047 0c53 D5120000 		.4byte	.LASF134
 5048 0c57 01       		.byte	0x1
 5049 0c58 600C0000 		.4byte	0xc60
 5050 0c5c 6B0C0000 		.4byte	0xc6b
 5051 0c60 10       		.uleb128 0x10
 5052 0c61 124D0000 		.4byte	0x4d12
 5053 0c65 0D       		.uleb128 0xd
 5054 0c66 184D0000 		.4byte	0x4d18
 5055 0c6a 00       		.byte	0
 5056 0c6b 27       		.uleb128 0x27
 5057 0c6c DD280000 		.4byte	.LASF135
 5058 0c70 0B       		.byte	0xb
 5059 0c71 0E02     		.2byte	0x20e
 5060 0c73 54480000 		.4byte	.LASF136
 5061 0c77 9D470000 		.4byte	0x479d
 5062 0c7b 01       		.byte	0x1
 5063 0c7c 840C0000 		.4byte	0xc84
 5064 0c80 8F0C0000 		.4byte	0xc8f
 5065 0c84 10       		.uleb128 0x10
 5066 0c85 124D0000 		.4byte	0x4d12
 5067 0c89 0D       		.uleb128 0xd
 5068 0c8a 184D0000 		.4byte	0x4d18
 5069 0c8e 00       		.byte	0
 5070 0c8f 27       		.uleb128 0x27
 5071 0c90 11380000 		.4byte	.LASF137
 5072 0c94 0B       		.byte	0xb
 5073 0c95 1F02     		.2byte	0x21f
ARM GAS  /tmp/cc9AvIGf.s 			page 91


 5074 0c97 A2410000 		.4byte	.LASF138
 5075 0c9b 25000000 		.4byte	0x25
 5076 0c9f 01       		.byte	0x1
 5077 0ca0 A80C0000 		.4byte	0xca8
 5078 0ca4 B30C0000 		.4byte	0xcb3
 5079 0ca8 10       		.uleb128 0x10
 5080 0ca9 0C4D0000 		.4byte	0x4d0c
 5081 0cad 0D       		.uleb128 0xd
 5082 0cae E64C0000 		.4byte	0x4ce6
 5083 0cb2 00       		.byte	0
 5084 0cb3 27       		.uleb128 0x27
 5085 0cb4 374E0000 		.4byte	.LASF139
 5086 0cb8 0B       		.byte	0xb
 5087 0cb9 2C02     		.2byte	0x22c
 5088 0cbb 51440000 		.4byte	.LASF140
 5089 0cbf 9D470000 		.4byte	0x479d
 5090 0cc3 01       		.byte	0x1
 5091 0cc4 CC0C0000 		.4byte	0xccc
 5092 0cc8 D70C0000 		.4byte	0xcd7
 5093 0ccc 10       		.uleb128 0x10
 5094 0ccd 0C4D0000 		.4byte	0x4d0c
 5095 0cd1 0D       		.uleb128 0xd
 5096 0cd2 E64C0000 		.4byte	0x4ce6
 5097 0cd6 00       		.byte	0
 5098 0cd7 27       		.uleb128 0x27
 5099 0cd8 E1330000 		.4byte	.LASF141
 5100 0cdc 0B       		.byte	0xb
 5101 0cdd 3802     		.2byte	0x238
 5102 0cdf 0A010000 		.4byte	.LASF142
 5103 0ce3 1E4D0000 		.4byte	0x4d1e
 5104 0ce7 01       		.byte	0x1
 5105 0ce8 F00C0000 		.4byte	0xcf0
 5106 0cec FB0C0000 		.4byte	0xcfb
 5107 0cf0 10       		.uleb128 0x10
 5108 0cf1 0C4D0000 		.4byte	0x4d0c
 5109 0cf5 0D       		.uleb128 0xd
 5110 0cf6 B10B0000 		.4byte	0xbb1
 5111 0cfa 00       		.byte	0
 5112 0cfb 27       		.uleb128 0x27
 5113 0cfc E1330000 		.4byte	.LASF141
 5114 0d00 0B       		.byte	0xb
 5115 0d01 4402     		.2byte	0x244
 5116 0d03 780D0000 		.4byte	.LASF143
 5117 0d07 1E4D0000 		.4byte	0x4d1e
 5118 0d0b 01       		.byte	0x1
 5119 0d0c 140D0000 		.4byte	0xd14
 5120 0d10 240D0000 		.4byte	0xd24
 5121 0d14 10       		.uleb128 0x10
 5122 0d15 0C4D0000 		.4byte	0x4d0c
 5123 0d19 0D       		.uleb128 0xd
 5124 0d1a BD0B0000 		.4byte	0xbbd
 5125 0d1e 0D       		.uleb128 0xd
 5126 0d1f A54C0000 		.4byte	0x4ca5
 5127 0d23 00       		.byte	0
 5128 0d24 27       		.uleb128 0x27
 5129 0d25 C20F0000 		.4byte	.LASF144
 5130 0d29 0B       		.byte	0xb
ARM GAS  /tmp/cc9AvIGf.s 			page 92


 5131 0d2a B301     		.2byte	0x1b3
 5132 0d2c C1390000 		.4byte	.LASF145
 5133 0d30 430D0000 		.4byte	0xd43
 5134 0d34 01       		.byte	0x1
 5135 0d35 3D0D0000 		.4byte	0xd3d
 5136 0d39 430D0000 		.4byte	0xd43
 5137 0d3d 10       		.uleb128 0x10
 5138 0d3e 124D0000 		.4byte	0x4d12
 5139 0d42 00       		.byte	0
 5140 0d43 07       		.uleb128 0x7
 5141 0d44 5C070000 		.4byte	0x75c
 5142 0d48 27       		.uleb128 0x27
 5143 0d49 72300000 		.4byte	.LASF146
 5144 0d4d 0B       		.byte	0xb
 5145 0d4e B701     		.2byte	0x1b7
 5146 0d50 1E300000 		.4byte	.LASF147
 5147 0d54 430D0000 		.4byte	0xd43
 5148 0d58 01       		.byte	0x1
 5149 0d59 610D0000 		.4byte	0xd61
 5150 0d5d 670D0000 		.4byte	0xd67
 5151 0d61 10       		.uleb128 0x10
 5152 0d62 124D0000 		.4byte	0x4d12
 5153 0d66 00       		.byte	0
 5154 0d67 28       		.uleb128 0x28
 5155 0d68 C4640000 		.4byte	.LASF148
 5156 0d6c 0B       		.byte	0xb
 5157 0d6d BB01     		.2byte	0x1bb
 5158 0d6f A8290000 		.4byte	.LASF149
 5159 0d73 01       		.byte	0x1
 5160 0d74 7C0D0000 		.4byte	0xd7c
 5161 0d78 870D0000 		.4byte	0xd87
 5162 0d7c 10       		.uleb128 0x10
 5163 0d7d 124D0000 		.4byte	0x4d12
 5164 0d81 0D       		.uleb128 0xd
 5165 0d82 244D0000 		.4byte	0x4d24
 5166 0d86 00       		.byte	0
 5167 0d87 27       		.uleb128 0x27
 5168 0d88 C20F0000 		.4byte	.LASF144
 5169 0d8c 0B       		.byte	0xb
 5170 0d8d BF01     		.2byte	0x1bf
 5171 0d8f 1F3E0000 		.4byte	.LASF150
 5172 0d93 A60D0000 		.4byte	0xda6
 5173 0d97 01       		.byte	0x1
 5174 0d98 A00D0000 		.4byte	0xda0
 5175 0d9c A60D0000 		.4byte	0xda6
 5176 0da0 10       		.uleb128 0x10
 5177 0da1 0C4D0000 		.4byte	0x4d0c
 5178 0da5 00       		.byte	0
 5179 0da6 07       		.uleb128 0x7
 5180 0da7 CC080000 		.4byte	0x8cc
 5181 0dab 27       		.uleb128 0x27
 5182 0dac 72300000 		.4byte	.LASF146
 5183 0db0 0B       		.byte	0xb
 5184 0db1 C301     		.2byte	0x1c3
 5185 0db3 112E0000 		.4byte	.LASF151
 5186 0db7 A60D0000 		.4byte	0xda6
 5187 0dbb 01       		.byte	0x1
ARM GAS  /tmp/cc9AvIGf.s 			page 93


 5188 0dbc C40D0000 		.4byte	0xdc4
 5189 0dc0 CA0D0000 		.4byte	0xdca
 5190 0dc4 10       		.uleb128 0x10
 5191 0dc5 0C4D0000 		.4byte	0x4d0c
 5192 0dc9 00       		.byte	0
 5193 0dca 28       		.uleb128 0x28
 5194 0dcb C4640000 		.4byte	.LASF148
 5195 0dcf 0B       		.byte	0xb
 5196 0dd0 C701     		.2byte	0x1c7
 5197 0dd2 241E0000 		.4byte	.LASF152
 5198 0dd6 01       		.byte	0x1
 5199 0dd7 DF0D0000 		.4byte	0xddf
 5200 0ddb EA0D0000 		.4byte	0xdea
 5201 0ddf 10       		.uleb128 0x10
 5202 0de0 0C4D0000 		.4byte	0x4d0c
 5203 0de4 0D       		.uleb128 0xd
 5204 0de5 2A4D0000 		.4byte	0x4d2a
 5205 0de9 00       		.byte	0
 5206 0dea 27       		.uleb128 0x27
 5207 0deb 5D5B0000 		.4byte	.LASF153
 5208 0def 0B       		.byte	0xb
 5209 0df0 5302     		.2byte	0x253
 5210 0df2 E0600000 		.4byte	.LASF154
 5211 0df6 064D0000 		.4byte	0x4d06
 5212 0dfa 01       		.byte	0x1
 5213 0dfb 030E0000 		.4byte	0xe03
 5214 0dff 090E0000 		.4byte	0xe09
 5215 0e03 10       		.uleb128 0x10
 5216 0e04 0C4D0000 		.4byte	0x4d0c
 5217 0e08 00       		.byte	0
 5218 0e09 27       		.uleb128 0x27
 5219 0e0a 47500000 		.4byte	.LASF155
 5220 0e0e 0B       		.byte	0xb
 5221 0e0f 5D02     		.2byte	0x25d
 5222 0e11 A81A0000 		.4byte	.LASF156
 5223 0e15 9D470000 		.4byte	0x479d
 5224 0e19 01       		.byte	0x1
 5225 0e1a 220E0000 		.4byte	0xe22
 5226 0e1e 280E0000 		.4byte	0xe28
 5227 0e22 10       		.uleb128 0x10
 5228 0e23 0C4D0000 		.4byte	0x4d0c
 5229 0e27 00       		.byte	0
 5230 0e28 27       		.uleb128 0x27
 5231 0e29 4B340000 		.4byte	.LASF157
 5232 0e2d 0B       		.byte	0xb
 5233 0e2e 6702     		.2byte	0x267
 5234 0e30 98000000 		.4byte	.LASF158
 5235 0e34 2C000000 		.4byte	0x2c
 5236 0e38 01       		.byte	0x1
 5237 0e39 410E0000 		.4byte	0xe41
 5238 0e3d 470E0000 		.4byte	0xe47
 5239 0e41 10       		.uleb128 0x10
 5240 0e42 0C4D0000 		.4byte	0x4d0c
 5241 0e46 00       		.byte	0
 5242 0e47 28       		.uleb128 0x28
 5243 0e48 0C1F0000 		.4byte	.LASF159
 5244 0e4c 0B       		.byte	0xb
ARM GAS  /tmp/cc9AvIGf.s 			page 94


 5245 0e4d 7602     		.2byte	0x276
 5246 0e4f 85310000 		.4byte	.LASF160
 5247 0e53 01       		.byte	0x1
 5248 0e54 5C0E0000 		.4byte	0xe5c
 5249 0e58 670E0000 		.4byte	0xe67
 5250 0e5c 10       		.uleb128 0x10
 5251 0e5d 124D0000 		.4byte	0x4d12
 5252 0e61 0D       		.uleb128 0xd
 5253 0e62 184D0000 		.4byte	0x4d18
 5254 0e66 00       		.byte	0
 5255 0e67 27       		.uleb128 0x27
 5256 0e68 B1130000 		.4byte	.LASF161
 5257 0e6c 0B       		.byte	0xb
 5258 0e6d 8002     		.2byte	0x280
 5259 0e6f 923D0000 		.4byte	.LASF162
 5260 0e73 9D470000 		.4byte	0x479d
 5261 0e77 01       		.byte	0x1
 5262 0e78 800E0000 		.4byte	0xe80
 5263 0e7c 8B0E0000 		.4byte	0xe8b
 5264 0e80 10       		.uleb128 0x10
 5265 0e81 124D0000 		.4byte	0x4d12
 5266 0e85 0D       		.uleb128 0xd
 5267 0e86 184D0000 		.4byte	0x4d18
 5268 0e8a 00       		.byte	0
 5269 0e8b 27       		.uleb128 0x27
 5270 0e8c FC390000 		.4byte	.LASF163
 5271 0e90 0B       		.byte	0xb
 5272 0e91 8A02     		.2byte	0x28a
 5273 0e93 07220000 		.4byte	.LASF164
 5274 0e97 25000000 		.4byte	0x25
 5275 0e9b 01       		.byte	0x1
 5276 0e9c A40E0000 		.4byte	0xea4
 5277 0ea0 AF0E0000 		.4byte	0xeaf
 5278 0ea4 10       		.uleb128 0x10
 5279 0ea5 0C4D0000 		.4byte	0x4d0c
 5280 0ea9 0D       		.uleb128 0xd
 5281 0eaa E64C0000 		.4byte	0x4ce6
 5282 0eae 00       		.byte	0
 5283 0eaf 27       		.uleb128 0x27
 5284 0eb0 76240000 		.4byte	.LASF165
 5285 0eb4 0B       		.byte	0xb
 5286 0eb5 9B02     		.2byte	0x29b
 5287 0eb7 E03E0000 		.4byte	.LASF166
 5288 0ebb 9D470000 		.4byte	0x479d
 5289 0ebf 01       		.byte	0x1
 5290 0ec0 C80E0000 		.4byte	0xec8
 5291 0ec4 D30E0000 		.4byte	0xed3
 5292 0ec8 10       		.uleb128 0x10
 5293 0ec9 0C4D0000 		.4byte	0x4d0c
 5294 0ecd 0D       		.uleb128 0xd
 5295 0ece E64C0000 		.4byte	0x4ce6
 5296 0ed2 00       		.byte	0
 5297 0ed3 27       		.uleb128 0x27
 5298 0ed4 0D3E0000 		.4byte	.LASF167
 5299 0ed8 0B       		.byte	0xb
 5300 0ed9 AC02     		.2byte	0x2ac
 5301 0edb D5530000 		.4byte	.LASF168
ARM GAS  /tmp/cc9AvIGf.s 			page 95


 5302 0edf 1E4D0000 		.4byte	0x4d1e
 5303 0ee3 01       		.byte	0x1
 5304 0ee4 EC0E0000 		.4byte	0xeec
 5305 0ee8 F70E0000 		.4byte	0xef7
 5306 0eec 10       		.uleb128 0x10
 5307 0eed 0C4D0000 		.4byte	0x4d0c
 5308 0ef1 0D       		.uleb128 0xd
 5309 0ef2 B10B0000 		.4byte	0xbb1
 5310 0ef6 00       		.byte	0
 5311 0ef7 27       		.uleb128 0x27
 5312 0ef8 0D3E0000 		.4byte	.LASF167
 5313 0efc 0B       		.byte	0xb
 5314 0efd BC02     		.2byte	0x2bc
 5315 0eff EB160000 		.4byte	.LASF169
 5316 0f03 1E4D0000 		.4byte	0x4d1e
 5317 0f07 01       		.byte	0x1
 5318 0f08 100F0000 		.4byte	0xf10
 5319 0f0c 200F0000 		.4byte	0xf20
 5320 0f10 10       		.uleb128 0x10
 5321 0f11 0C4D0000 		.4byte	0x4d0c
 5322 0f15 0D       		.uleb128 0xd
 5323 0f16 BD0B0000 		.4byte	0xbbd
 5324 0f1a 0D       		.uleb128 0xd
 5325 0f1b A54C0000 		.4byte	0x4ca5
 5326 0f1f 00       		.byte	0
 5327 0f20 27       		.uleb128 0x27
 5328 0f21 0D640000 		.4byte	.LASF170
 5329 0f25 0B       		.byte	0xb
 5330 0f26 E001     		.2byte	0x1e0
 5331 0f28 1F2A0000 		.4byte	.LASF171
 5332 0f2c 3F0F0000 		.4byte	0xf3f
 5333 0f30 01       		.byte	0x1
 5334 0f31 390F0000 		.4byte	0xf39
 5335 0f35 3F0F0000 		.4byte	0xf3f
 5336 0f39 10       		.uleb128 0x10
 5337 0f3a 124D0000 		.4byte	0x4d12
 5338 0f3e 00       		.byte	0
 5339 0f3f 07       		.uleb128 0x7
 5340 0f40 D1080000 		.4byte	0x8d1
 5341 0f44 29       		.uleb128 0x29
 5342 0f45 656E6400 		.ascii	"end\000"
 5343 0f49 0B       		.byte	0xb
 5344 0f4a E401     		.2byte	0x1e4
 5345 0f4c E2260000 		.4byte	.LASF175
 5346 0f50 3F0F0000 		.4byte	0xf3f
 5347 0f54 01       		.byte	0x1
 5348 0f55 5D0F0000 		.4byte	0xf5d
 5349 0f59 630F0000 		.4byte	0xf63
 5350 0f5d 10       		.uleb128 0x10
 5351 0f5e 124D0000 		.4byte	0x4d12
 5352 0f62 00       		.byte	0
 5353 0f63 28       		.uleb128 0x28
 5354 0f64 D7110000 		.4byte	.LASF172
 5355 0f68 0B       		.byte	0xb
 5356 0f69 E801     		.2byte	0x1e8
 5357 0f6b 7D300000 		.4byte	.LASF173
 5358 0f6f 01       		.byte	0x1
ARM GAS  /tmp/cc9AvIGf.s 			page 96


 5359 0f70 780F0000 		.4byte	0xf78
 5360 0f74 830F0000 		.4byte	0xf83
 5361 0f78 10       		.uleb128 0x10
 5362 0f79 124D0000 		.4byte	0x4d12
 5363 0f7d 0D       		.uleb128 0xd
 5364 0f7e 304D0000 		.4byte	0x4d30
 5365 0f82 00       		.byte	0
 5366 0f83 27       		.uleb128 0x27
 5367 0f84 0D640000 		.4byte	.LASF170
 5368 0f88 0B       		.byte	0xb
 5369 0f89 EC01     		.2byte	0x1ec
 5370 0f8b 37180000 		.4byte	.LASF174
 5371 0f8f A20F0000 		.4byte	0xfa2
 5372 0f93 01       		.byte	0x1
 5373 0f94 9C0F0000 		.4byte	0xf9c
 5374 0f98 A20F0000 		.4byte	0xfa2
 5375 0f9c 10       		.uleb128 0x10
 5376 0f9d 0C4D0000 		.4byte	0x4d0c
 5377 0fa1 00       		.byte	0
 5378 0fa2 07       		.uleb128 0x7
 5379 0fa3 410A0000 		.4byte	0xa41
 5380 0fa7 29       		.uleb128 0x29
 5381 0fa8 656E6400 		.ascii	"end\000"
 5382 0fac 0B       		.byte	0xb
 5383 0fad F201     		.2byte	0x1f2
 5384 0faf D1630000 		.4byte	.LASF176
 5385 0fb3 A20F0000 		.4byte	0xfa2
 5386 0fb7 01       		.byte	0x1
 5387 0fb8 C00F0000 		.4byte	0xfc0
 5388 0fbc C60F0000 		.4byte	0xfc6
 5389 0fc0 10       		.uleb128 0x10
 5390 0fc1 0C4D0000 		.4byte	0x4d0c
 5391 0fc5 00       		.byte	0
 5392 0fc6 28       		.uleb128 0x28
 5393 0fc7 D7110000 		.4byte	.LASF172
 5394 0fcb 0B       		.byte	0xb
 5395 0fcc F601     		.2byte	0x1f6
 5396 0fce F3580000 		.4byte	.LASF177
 5397 0fd2 01       		.byte	0x1
 5398 0fd3 DB0F0000 		.4byte	0xfdb
 5399 0fd7 E60F0000 		.4byte	0xfe6
 5400 0fdb 10       		.uleb128 0x10
 5401 0fdc 0C4D0000 		.4byte	0x4d0c
 5402 0fe0 0D       		.uleb128 0xd
 5403 0fe1 364D0000 		.4byte	0x4d36
 5404 0fe5 00       		.byte	0
 5405 0fe6 2A       		.uleb128 0x2a
 5406 0fe7 F60F0000 		.4byte	.LASF178
 5407 0feb 0B       		.byte	0xb
 5408 0fec FA01     		.2byte	0x1fa
 5409 0fee 124D0000 		.4byte	0x4d12
 5410 0ff2 01       		.byte	0x1
 5411 0ff3 FB0F0000 		.4byte	0xffb
 5412 0ff7 01100000 		.4byte	0x1001
 5413 0ffb 10       		.uleb128 0x10
 5414 0ffc 124D0000 		.4byte	0x4d12
 5415 1000 00       		.byte	0
ARM GAS  /tmp/cc9AvIGf.s 			page 97


 5416 1001 07       		.uleb128 0x7
 5417 1002 57070000 		.4byte	0x757
 5418 1006 2B       		.uleb128 0x2b
 5419 1007 351C0000 		.4byte	.LASF229
 5420 100b 15100000 		.4byte	0x1015
 5421 100f 00       		.byte	0
 5422 1010 07       		.uleb128 0x7
 5423 1011 15100000 		.4byte	0x1015
 5424 1015 25       		.uleb128 0x25
 5425 1016 0C620000 		.4byte	.LASF180
 5426 101a 07       		.uleb128 0x7
 5427 101b F8060000 		.4byte	0x6f8
 5428 101f 0E       		.uleb128 0xe
 5429 1020 05520000 		.4byte	.LASF181
 5430 1024 04       		.byte	0x4
 5431 1025 0B       		.byte	0xb
 5432 1026 0F       		.byte	0xf
 5433 1027 C2170000 		.4byte	0x17c2
 5434 102b 13       		.uleb128 0x13
 5435 102c 79010000 		.4byte	0x179
 5436 1030 00       		.byte	0
 5437 1031 1F       		.uleb128 0x1f
 5438 1032 F45A0000 		.4byte	.LASF87
 5439 1036 08       		.byte	0x8
 5440 1037 0B       		.byte	0xb
 5441 1038 11       		.byte	0x11
 5442 1039 01       		.byte	0x1
 5443 103a 71100000 		.4byte	0x1071
 5444 103e 16       		.uleb128 0x16
 5445 103f 1D2D0000 		.4byte	.LASF85
 5446 1043 0B       		.byte	0xb
 5447 1044 12       		.byte	0x12
 5448 1045 3C4D0000 		.4byte	0x4d3c
 5449 1049 00       		.byte	0
 5450 104a 16       		.uleb128 0x16
 5451 104b FB190000 		.4byte	.LASF86
 5452 104f 0B       		.byte	0xb
 5453 1050 13       		.byte	0x13
 5454 1051 01500000 		.4byte	0x5001
 5455 1055 04       		.byte	0x4
 5456 1056 20       		.uleb128 0x20
 5457 1057 F45A0000 		.4byte	.LASF87
 5458 105b 0B       		.byte	0xb
 5459 105c 15       		.byte	0x15
 5460 105d 3C4D0000 		.4byte	0x4d3c
 5461 1061 65100000 		.4byte	0x1065
 5462 1065 10       		.uleb128 0x10
 5463 1066 3C4D0000 		.4byte	0x4d3c
 5464 106a 0D       		.uleb128 0xd
 5465 106b 584E0000 		.4byte	0x4e58
 5466 106f 00       		.byte	0
 5467 1070 00       		.byte	0
 5468 1071 21       		.uleb128 0x21
 5469 1072 34130000 		.4byte	.LASF88
 5470 1076 0B       		.byte	0xb
 5471 1077 8A01     		.2byte	0x18a
 5472 1079 3C4D0000 		.4byte	0x4d3c
ARM GAS  /tmp/cc9AvIGf.s 			page 98


 5473 107d 00       		.byte	0
 5474 107e 15       		.uleb128 0x15
 5475 107f AB1F0000 		.4byte	.LASF89
 5476 1083 04       		.byte	0x4
 5477 1084 0B       		.byte	0xb
 5478 1085 20       		.byte	0x20
 5479 1086 01       		.byte	0x1
 5480 1087 EE110000 		.4byte	0x11ee
 5481 108b 16       		.uleb128 0x16
 5482 108c A9140000 		.4byte	.LASF90
 5483 1090 0B       		.byte	0xb
 5484 1091 24       		.byte	0x24
 5485 1092 774D0000 		.4byte	0x4d77
 5486 1096 00       		.byte	0
 5487 1097 11       		.uleb128 0x11
 5488 1098 AB1F0000 		.4byte	.LASF89
 5489 109c 0B       		.byte	0xb
 5490 109d 27       		.byte	0x27
 5491 109e 4F510000 		.4byte	0x514f
 5492 10a2 01       		.byte	0x1
 5493 10a3 AB100000 		.4byte	0x10ab
 5494 10a7 B1100000 		.4byte	0x10b1
 5495 10ab 10       		.uleb128 0x10
 5496 10ac 4F510000 		.4byte	0x514f
 5497 10b0 00       		.byte	0
 5498 10b1 11       		.uleb128 0x11
 5499 10b2 AB1F0000 		.4byte	.LASF89
 5500 10b6 0B       		.byte	0xb
 5501 10b7 28       		.byte	0x28
 5502 10b8 4F510000 		.4byte	0x514f
 5503 10bc 01       		.byte	0x1
 5504 10bd C5100000 		.4byte	0x10c5
 5505 10c1 D0100000 		.4byte	0x10d0
 5506 10c5 10       		.uleb128 0x10
 5507 10c6 4F510000 		.4byte	0x514f
 5508 10ca 0D       		.uleb128 0xd
 5509 10cb 55510000 		.4byte	0x5155
 5510 10cf 00       		.byte	0
 5511 10d0 0F       		.uleb128 0xf
 5512 10d1 AB1F0000 		.4byte	.LASF89
 5513 10d5 0B       		.byte	0xb
 5514 10d6 2B       		.byte	0x2b
 5515 10d7 4F510000 		.4byte	0x514f
 5516 10db E3100000 		.4byte	0x10e3
 5517 10df EE100000 		.4byte	0x10ee
 5518 10e3 10       		.uleb128 0x10
 5519 10e4 4F510000 		.4byte	0x514f
 5520 10e8 0D       		.uleb128 0xd
 5521 10e9 774D0000 		.4byte	0x4d77
 5522 10ed 00       		.byte	0
 5523 10ee 23       		.uleb128 0x23
 5524 10ef FD130000 		.4byte	.LASF72
 5525 10f3 0B       		.byte	0xb
 5526 10f4 2E       		.byte	0x2e
 5527 10f5 6E110000 		.4byte	.LASF182
 5528 10f9 954D0000 		.4byte	0x4d95
 5529 10fd 05110000 		.4byte	0x1105
ARM GAS  /tmp/cc9AvIGf.s 			page 99


 5530 1101 10110000 		.4byte	0x1110
 5531 1105 10       		.uleb128 0x10
 5532 1106 4F510000 		.4byte	0x514f
 5533 110a 0D       		.uleb128 0xd
 5534 110b 55510000 		.4byte	0x5155
 5535 110f 00       		.byte	0
 5536 1110 18       		.uleb128 0x18
 5537 1111 AC440000 		.4byte	.LASF92
 5538 1115 0B       		.byte	0xb
 5539 1116 34       		.byte	0x34
 5540 1117 44280000 		.4byte	.LASF183
 5541 111b 8F4D0000 		.4byte	0x4d8f
 5542 111f 01       		.byte	0x1
 5543 1120 28110000 		.4byte	0x1128
 5544 1124 2E110000 		.4byte	0x112e
 5545 1128 10       		.uleb128 0x10
 5546 1129 5B510000 		.4byte	0x515b
 5547 112d 00       		.byte	0
 5548 112e 18       		.uleb128 0x18
 5549 112f B8130000 		.4byte	.LASF94
 5550 1133 0B       		.byte	0xb
 5551 1134 38       		.byte	0x38
 5552 1135 6A130000 		.4byte	.LASF184
 5553 1139 584E0000 		.4byte	0x4e58
 5554 113d 01       		.byte	0x1
 5555 113e 46110000 		.4byte	0x1146
 5556 1142 4C110000 		.4byte	0x114c
 5557 1146 10       		.uleb128 0x10
 5558 1147 5B510000 		.4byte	0x515b
 5559 114b 00       		.byte	0
 5560 114c 18       		.uleb128 0x18
 5561 114d 86420000 		.4byte	.LASF96
 5562 1151 0B       		.byte	0xb
 5563 1152 3C       		.byte	0x3c
 5564 1153 91150000 		.4byte	.LASF185
 5565 1157 954D0000 		.4byte	0x4d95
 5566 115b 01       		.byte	0x1
 5567 115c 64110000 		.4byte	0x1164
 5568 1160 6A110000 		.4byte	0x116a
 5569 1164 10       		.uleb128 0x10
 5570 1165 4F510000 		.4byte	0x514f
 5571 1169 00       		.byte	0
 5572 116a 18       		.uleb128 0x18
 5573 116b 86420000 		.4byte	.LASF96
 5574 116f 0B       		.byte	0xb
 5575 1170 41       		.byte	0x41
 5576 1171 DB140000 		.4byte	.LASF186
 5577 1175 FA140000 		.4byte	0x14fa
 5578 1179 01       		.byte	0x1
 5579 117a 82110000 		.4byte	0x1182
 5580 117e 8D110000 		.4byte	0x118d
 5581 1182 10       		.uleb128 0x10
 5582 1183 4F510000 		.4byte	0x514f
 5583 1187 0D       		.uleb128 0xd
 5584 1188 25000000 		.4byte	0x25
 5585 118c 00       		.byte	0
 5586 118d 18       		.uleb128 0x18
ARM GAS  /tmp/cc9AvIGf.s 			page 100


 5587 118e 31620000 		.4byte	.LASF99
 5588 1192 0B       		.byte	0xb
 5589 1193 47       		.byte	0x47
 5590 1194 D4500000 		.4byte	.LASF187
 5591 1198 9D470000 		.4byte	0x479d
 5592 119c 01       		.byte	0x1
 5593 119d A5110000 		.4byte	0x11a5
 5594 11a1 B0110000 		.4byte	0x11b0
 5595 11a5 10       		.uleb128 0x10
 5596 11a6 5B510000 		.4byte	0x515b
 5597 11aa 0D       		.uleb128 0xd
 5598 11ab 55510000 		.4byte	0x5155
 5599 11af 00       		.byte	0
 5600 11b0 18       		.uleb128 0x18
 5601 11b1 67300000 		.4byte	.LASF101
 5602 11b5 0B       		.byte	0xb
 5603 11b6 4B       		.byte	0x4b
 5604 11b7 302C0000 		.4byte	.LASF188
 5605 11bb 9D470000 		.4byte	0x479d
 5606 11bf 01       		.byte	0x1
 5607 11c0 C8110000 		.4byte	0x11c8
 5608 11c4 D3110000 		.4byte	0x11d3
 5609 11c8 10       		.uleb128 0x10
 5610 11c9 5B510000 		.4byte	0x515b
 5611 11cd 0D       		.uleb128 0xd
 5612 11ce 55510000 		.4byte	0x5155
 5613 11d2 00       		.byte	0
 5614 11d3 24       		.uleb128 0x24
 5615 11d4 14430000 		.4byte	.LASF103
 5616 11d8 0B       		.byte	0xb
 5617 11d9 4F       		.byte	0x4f
 5618 11da DC2B0000 		.4byte	.LASF189
 5619 11de 9D470000 		.4byte	0x479d
 5620 11e2 01       		.byte	0x1
 5621 11e3 E7110000 		.4byte	0x11e7
 5622 11e7 10       		.uleb128 0x10
 5623 11e8 5B510000 		.4byte	0x515b
 5624 11ec 00       		.byte	0
 5625 11ed 00       		.byte	0
 5626 11ee 25       		.uleb128 0x25
 5627 11ef A82E0000 		.4byte	.LASF179
 5628 11f3 15       		.uleb128 0x15
 5629 11f4 0E530000 		.4byte	.LASF105
 5630 11f8 04       		.byte	0x4
 5631 11f9 0B       		.byte	0xb
 5632 11fa 88       		.byte	0x88
 5633 11fb 01       		.byte	0x1
 5634 11fc 63130000 		.4byte	0x1363
 5635 1200 16       		.uleb128 0x16
 5636 1201 A9140000 		.4byte	.LASF90
 5637 1205 0B       		.byte	0xb
 5638 1206 8C       		.byte	0x8c
 5639 1207 774D0000 		.4byte	0x4d77
 5640 120b 00       		.byte	0
 5641 120c 11       		.uleb128 0x11
 5642 120d 0E530000 		.4byte	.LASF105
 5643 1211 0B       		.byte	0xb
ARM GAS  /tmp/cc9AvIGf.s 			page 101


 5644 1212 8F       		.byte	0x8f
 5645 1213 73510000 		.4byte	0x5173
 5646 1217 01       		.byte	0x1
 5647 1218 20120000 		.4byte	0x1220
 5648 121c 26120000 		.4byte	0x1226
 5649 1220 10       		.uleb128 0x10
 5650 1221 73510000 		.4byte	0x5173
 5651 1225 00       		.byte	0
 5652 1226 11       		.uleb128 0x11
 5653 1227 0E530000 		.4byte	.LASF105
 5654 122b 0B       		.byte	0xb
 5655 122c 90       		.byte	0x90
 5656 122d 73510000 		.4byte	0x5173
 5657 1231 01       		.byte	0x1
 5658 1232 3A120000 		.4byte	0x123a
 5659 1236 45120000 		.4byte	0x1245
 5660 123a 10       		.uleb128 0x10
 5661 123b 73510000 		.4byte	0x5173
 5662 123f 0D       		.uleb128 0xd
 5663 1240 79510000 		.4byte	0x5179
 5664 1244 00       		.byte	0
 5665 1245 0F       		.uleb128 0xf
 5666 1246 0E530000 		.4byte	.LASF105
 5667 124a 0B       		.byte	0xb
 5668 124b 93       		.byte	0x93
 5669 124c 73510000 		.4byte	0x5173
 5670 1250 58120000 		.4byte	0x1258
 5671 1254 63120000 		.4byte	0x1263
 5672 1258 10       		.uleb128 0x10
 5673 1259 73510000 		.4byte	0x5173
 5674 125d 0D       		.uleb128 0xd
 5675 125e 774D0000 		.4byte	0x4d77
 5676 1262 00       		.byte	0
 5677 1263 23       		.uleb128 0x23
 5678 1264 FD130000 		.4byte	.LASF72
 5679 1268 0B       		.byte	0xb
 5680 1269 96       		.byte	0x96
 5681 126a A4610000 		.4byte	.LASF190
 5682 126e A14D0000 		.4byte	0x4da1
 5683 1272 7A120000 		.4byte	0x127a
 5684 1276 85120000 		.4byte	0x1285
 5685 127a 10       		.uleb128 0x10
 5686 127b 73510000 		.4byte	0x5173
 5687 127f 0D       		.uleb128 0xd
 5688 1280 79510000 		.4byte	0x5179
 5689 1284 00       		.byte	0
 5690 1285 18       		.uleb128 0x18
 5691 1286 AC440000 		.4byte	.LASF92
 5692 128a 0B       		.byte	0xb
 5693 128b 9C       		.byte	0x9c
 5694 128c A63E0000 		.4byte	.LASF191
 5695 1290 8F4D0000 		.4byte	0x4d8f
 5696 1294 01       		.byte	0x1
 5697 1295 9D120000 		.4byte	0x129d
 5698 1299 A3120000 		.4byte	0x12a3
 5699 129d 10       		.uleb128 0x10
 5700 129e 7F510000 		.4byte	0x517f
ARM GAS  /tmp/cc9AvIGf.s 			page 102


 5701 12a2 00       		.byte	0
 5702 12a3 18       		.uleb128 0x18
 5703 12a4 B8130000 		.4byte	.LASF94
 5704 12a8 0B       		.byte	0xb
 5705 12a9 A0       		.byte	0xa0
 5706 12aa 8D240000 		.4byte	.LASF192
 5707 12ae 584E0000 		.4byte	0x4e58
 5708 12b2 01       		.byte	0x1
 5709 12b3 BB120000 		.4byte	0x12bb
 5710 12b7 C1120000 		.4byte	0x12c1
 5711 12bb 10       		.uleb128 0x10
 5712 12bc 7F510000 		.4byte	0x517f
 5713 12c0 00       		.byte	0
 5714 12c1 18       		.uleb128 0x18
 5715 12c2 86420000 		.4byte	.LASF96
 5716 12c6 0B       		.byte	0xb
 5717 12c7 A4       		.byte	0xa4
 5718 12c8 CC510000 		.4byte	.LASF193
 5719 12cc A14D0000 		.4byte	0x4da1
 5720 12d0 01       		.byte	0x1
 5721 12d1 D9120000 		.4byte	0x12d9
 5722 12d5 DF120000 		.4byte	0x12df
 5723 12d9 10       		.uleb128 0x10
 5724 12da 73510000 		.4byte	0x5173
 5725 12de 00       		.byte	0
 5726 12df 18       		.uleb128 0x18
 5727 12e0 86420000 		.4byte	.LASF96
 5728 12e4 0B       		.byte	0xb
 5729 12e5 AB       		.byte	0xab
 5730 12e6 56510000 		.4byte	.LASF194
 5731 12ea F6160000 		.4byte	0x16f6
 5732 12ee 01       		.byte	0x1
 5733 12ef F7120000 		.4byte	0x12f7
 5734 12f3 02130000 		.4byte	0x1302
 5735 12f7 10       		.uleb128 0x10
 5736 12f8 73510000 		.4byte	0x5173
 5737 12fc 0D       		.uleb128 0xd
 5738 12fd 25000000 		.4byte	0x25
 5739 1301 00       		.byte	0
 5740 1302 18       		.uleb128 0x18
 5741 1303 31620000 		.4byte	.LASF99
 5742 1307 0B       		.byte	0xb
 5743 1308 B3       		.byte	0xb3
 5744 1309 781B0000 		.4byte	.LASF195
 5745 130d 9D470000 		.4byte	0x479d
 5746 1311 01       		.byte	0x1
 5747 1312 1A130000 		.4byte	0x131a
 5748 1316 25130000 		.4byte	0x1325
 5749 131a 10       		.uleb128 0x10
 5750 131b 7F510000 		.4byte	0x517f
 5751 131f 0D       		.uleb128 0xd
 5752 1320 79510000 		.4byte	0x5179
 5753 1324 00       		.byte	0
 5754 1325 18       		.uleb128 0x18
 5755 1326 67300000 		.4byte	.LASF101
 5756 132a 0B       		.byte	0xb
 5757 132b B7       		.byte	0xb7
ARM GAS  /tmp/cc9AvIGf.s 			page 103


 5758 132c 93630000 		.4byte	.LASF196
 5759 1330 9D470000 		.4byte	0x479d
 5760 1334 01       		.byte	0x1
 5761 1335 3D130000 		.4byte	0x133d
 5762 1339 48130000 		.4byte	0x1348
 5763 133d 10       		.uleb128 0x10
 5764 133e 7F510000 		.4byte	0x517f
 5765 1342 0D       		.uleb128 0xd
 5766 1343 79510000 		.4byte	0x5179
 5767 1347 00       		.byte	0
 5768 1348 24       		.uleb128 0x24
 5769 1349 14430000 		.4byte	.LASF103
 5770 134d 0B       		.byte	0xb
 5771 134e BB       		.byte	0xbb
 5772 134f 6F030000 		.4byte	.LASF197
 5773 1353 9D470000 		.4byte	0x479d
 5774 1357 01       		.byte	0x1
 5775 1358 5C130000 		.4byte	0x135c
 5776 135c 10       		.uleb128 0x10
 5777 135d 7F510000 		.4byte	0x517f
 5778 1361 00       		.byte	0
 5779 1362 00       		.byte	0
 5780 1363 25       		.uleb128 0x25
 5781 1364 2A3F0000 		.4byte	.LASF114
 5782 1368 26       		.uleb128 0x26
 5783 1369 011A0000 		.4byte	.LASF123
 5784 136d 0B       		.byte	0xb
 5785 136e 8601     		.2byte	0x186
 5786 1370 424D0000 		.4byte	0x4d42
 5787 1374 26       		.uleb128 0x26
 5788 1375 AE120000 		.4byte	.LASF124
 5789 1379 0B       		.byte	0xb
 5790 137a 8701     		.2byte	0x187
 5791 137c 5D4D0000 		.4byte	0x4d5d
 5792 1380 27       		.uleb128 0x27
 5793 1381 8A640000 		.4byte	.LASF125
 5794 1385 0B       		.byte	0xb
 5795 1386 8D01     		.2byte	0x18d
 5796 1388 4C1F0000 		.4byte	.LASF198
 5797 138c 774D0000 		.4byte	0x4d77
 5798 1390 01       		.byte	0x1
 5799 1391 99130000 		.4byte	0x1399
 5800 1395 9F130000 		.4byte	0x139f
 5801 1399 10       		.uleb128 0x10
 5802 139a 7D4D0000 		.4byte	0x4d7d
 5803 139e 00       		.byte	0
 5804 139f 07       		.uleb128 0x7
 5805 13a0 31100000 		.4byte	0x1031
 5806 13a4 27       		.uleb128 0x27
 5807 13a5 845F0000 		.4byte	.LASF126
 5808 13a9 0B       		.byte	0xb
 5809 13aa 9101     		.2byte	0x191
 5810 13ac 0D3D0000 		.4byte	.LASF199
 5811 13b0 9D470000 		.4byte	0x479d
 5812 13b4 01       		.byte	0x1
 5813 13b5 BD130000 		.4byte	0x13bd
 5814 13b9 C3130000 		.4byte	0x13c3
ARM GAS  /tmp/cc9AvIGf.s 			page 104


 5815 13bd 10       		.uleb128 0x10
 5816 13be 7D4D0000 		.4byte	0x4d7d
 5817 13c2 00       		.byte	0
 5818 13c3 27       		.uleb128 0x27
 5819 13c4 FF1E0000 		.4byte	.LASF129
 5820 13c8 0B       		.byte	0xb
 5821 13c9 0302     		.2byte	0x203
 5822 13cb DF1A0000 		.4byte	.LASF200
 5823 13cf 2C000000 		.4byte	0x2c
 5824 13d3 01       		.byte	0x1
 5825 13d4 DC130000 		.4byte	0x13dc
 5826 13d8 E2130000 		.4byte	0x13e2
 5827 13dc 10       		.uleb128 0x10
 5828 13dd 7D4D0000 		.4byte	0x4d7d
 5829 13e1 00       		.byte	0
 5830 13e2 28       		.uleb128 0x28
 5831 13e3 D3480000 		.4byte	.LASF131
 5832 13e7 0B       		.byte	0xb
 5833 13e8 9701     		.2byte	0x197
 5834 13ea 1C1B0000 		.4byte	.LASF201
 5835 13ee 01       		.byte	0x1
 5836 13ef F7130000 		.4byte	0x13f7
 5837 13f3 02140000 		.4byte	0x1402
 5838 13f7 10       		.uleb128 0x10
 5839 13f8 834D0000 		.4byte	0x4d83
 5840 13fc 0D       		.uleb128 0xd
 5841 13fd 894D0000 		.4byte	0x4d89
 5842 1401 00       		.byte	0
 5843 1402 28       		.uleb128 0x28
 5844 1403 38520000 		.4byte	.LASF132
 5845 1407 0B       		.byte	0xb
 5846 1408 9F01     		.2byte	0x19f
 5847 140a D5080000 		.4byte	.LASF202
 5848 140e 01       		.byte	0x1
 5849 140f 17140000 		.4byte	0x1417
 5850 1413 22140000 		.4byte	0x1422
 5851 1417 10       		.uleb128 0x10
 5852 1418 834D0000 		.4byte	0x4d83
 5853 141c 0D       		.uleb128 0xd
 5854 141d 894D0000 		.4byte	0x4d89
 5855 1421 00       		.byte	0
 5856 1422 27       		.uleb128 0x27
 5857 1423 DD280000 		.4byte	.LASF135
 5858 1427 0B       		.byte	0xb
 5859 1428 0E02     		.2byte	0x20e
 5860 142a 642B0000 		.4byte	.LASF203
 5861 142e 9D470000 		.4byte	0x479d
 5862 1432 01       		.byte	0x1
 5863 1433 3B140000 		.4byte	0x143b
 5864 1437 46140000 		.4byte	0x1446
 5865 143b 10       		.uleb128 0x10
 5866 143c 834D0000 		.4byte	0x4d83
 5867 1440 0D       		.uleb128 0xd
 5868 1441 894D0000 		.4byte	0x4d89
 5869 1445 00       		.byte	0
 5870 1446 27       		.uleb128 0x27
 5871 1447 11380000 		.4byte	.LASF137
ARM GAS  /tmp/cc9AvIGf.s 			page 105


 5872 144b 0B       		.byte	0xb
 5873 144c 1F02     		.2byte	0x21f
 5874 144e AE360000 		.4byte	.LASF204
 5875 1452 25000000 		.4byte	0x25
 5876 1456 01       		.byte	0x1
 5877 1457 5F140000 		.4byte	0x145f
 5878 145b 6A140000 		.4byte	0x146a
 5879 145f 10       		.uleb128 0x10
 5880 1460 7D4D0000 		.4byte	0x4d7d
 5881 1464 0D       		.uleb128 0xd
 5882 1465 574D0000 		.4byte	0x4d57
 5883 1469 00       		.byte	0
 5884 146a 27       		.uleb128 0x27
 5885 146b 374E0000 		.4byte	.LASF139
 5886 146f 0B       		.byte	0xb
 5887 1470 2C02     		.2byte	0x22c
 5888 1472 833A0000 		.4byte	.LASF205
 5889 1476 9D470000 		.4byte	0x479d
 5890 147a 01       		.byte	0x1
 5891 147b 83140000 		.4byte	0x1483
 5892 147f 8E140000 		.4byte	0x148e
 5893 1483 10       		.uleb128 0x10
 5894 1484 7D4D0000 		.4byte	0x4d7d
 5895 1488 0D       		.uleb128 0xd
 5896 1489 574D0000 		.4byte	0x4d57
 5897 148d 00       		.byte	0
 5898 148e 27       		.uleb128 0x27
 5899 148f E1330000 		.4byte	.LASF141
 5900 1493 0B       		.byte	0xb
 5901 1494 3802     		.2byte	0x238
 5902 1496 F5050000 		.4byte	.LASF206
 5903 149a 8F4D0000 		.4byte	0x4d8f
 5904 149e 01       		.byte	0x1
 5905 149f A7140000 		.4byte	0x14a7
 5906 14a3 B2140000 		.4byte	0x14b2
 5907 14a7 10       		.uleb128 0x10
 5908 14a8 7D4D0000 		.4byte	0x4d7d
 5909 14ac 0D       		.uleb128 0xd
 5910 14ad 68130000 		.4byte	0x1368
 5911 14b1 00       		.byte	0
 5912 14b2 27       		.uleb128 0x27
 5913 14b3 E1330000 		.4byte	.LASF141
 5914 14b7 0B       		.byte	0xb
 5915 14b8 4402     		.2byte	0x244
 5916 14ba E4480000 		.4byte	.LASF207
 5917 14be 8F4D0000 		.4byte	0x4d8f
 5918 14c2 01       		.byte	0x1
 5919 14c3 CB140000 		.4byte	0x14cb
 5920 14c7 DB140000 		.4byte	0x14db
 5921 14cb 10       		.uleb128 0x10
 5922 14cc 7D4D0000 		.4byte	0x4d7d
 5923 14d0 0D       		.uleb128 0xd
 5924 14d1 74130000 		.4byte	0x1374
 5925 14d5 0D       		.uleb128 0xd
 5926 14d6 A54C0000 		.4byte	0x4ca5
 5927 14da 00       		.byte	0
 5928 14db 27       		.uleb128 0x27
ARM GAS  /tmp/cc9AvIGf.s 			page 106


 5929 14dc C20F0000 		.4byte	.LASF144
 5930 14e0 0B       		.byte	0xb
 5931 14e1 B301     		.2byte	0x1b3
 5932 14e3 85550000 		.4byte	.LASF208
 5933 14e7 FA140000 		.4byte	0x14fa
 5934 14eb 01       		.byte	0x1
 5935 14ec F4140000 		.4byte	0x14f4
 5936 14f0 FA140000 		.4byte	0x14fa
 5937 14f4 10       		.uleb128 0x10
 5938 14f5 834D0000 		.4byte	0x4d83
 5939 14f9 00       		.byte	0
 5940 14fa 07       		.uleb128 0x7
 5941 14fb 7E100000 		.4byte	0x107e
 5942 14ff 27       		.uleb128 0x27
 5943 1500 72300000 		.4byte	.LASF146
 5944 1504 0B       		.byte	0xb
 5945 1505 B701     		.2byte	0x1b7
 5946 1507 AD070000 		.4byte	.LASF209
 5947 150b FA140000 		.4byte	0x14fa
 5948 150f 01       		.byte	0x1
 5949 1510 18150000 		.4byte	0x1518
 5950 1514 1E150000 		.4byte	0x151e
 5951 1518 10       		.uleb128 0x10
 5952 1519 834D0000 		.4byte	0x4d83
 5953 151d 00       		.byte	0
 5954 151e 28       		.uleb128 0x28
 5955 151f C4640000 		.4byte	.LASF148
 5956 1523 0B       		.byte	0xb
 5957 1524 BB01     		.2byte	0x1bb
 5958 1526 20320000 		.4byte	.LASF210
 5959 152a 01       		.byte	0x1
 5960 152b 33150000 		.4byte	0x1533
 5961 152f 3E150000 		.4byte	0x153e
 5962 1533 10       		.uleb128 0x10
 5963 1534 834D0000 		.4byte	0x4d83
 5964 1538 0D       		.uleb128 0xd
 5965 1539 954D0000 		.4byte	0x4d95
 5966 153d 00       		.byte	0
 5967 153e 27       		.uleb128 0x27
 5968 153f C20F0000 		.4byte	.LASF144
 5969 1543 0B       		.byte	0xb
 5970 1544 BF01     		.2byte	0x1bf
 5971 1546 98080000 		.4byte	.LASF211
 5972 154a 5D150000 		.4byte	0x155d
 5973 154e 01       		.byte	0x1
 5974 154f 57150000 		.4byte	0x1557
 5975 1553 5D150000 		.4byte	0x155d
 5976 1557 10       		.uleb128 0x10
 5977 1558 7D4D0000 		.4byte	0x4d7d
 5978 155c 00       		.byte	0
 5979 155d 07       		.uleb128 0x7
 5980 155e EE110000 		.4byte	0x11ee
 5981 1562 27       		.uleb128 0x27
 5982 1563 72300000 		.4byte	.LASF146
 5983 1567 0B       		.byte	0xb
 5984 1568 C301     		.2byte	0x1c3
 5985 156a C41E0000 		.4byte	.LASF212
ARM GAS  /tmp/cc9AvIGf.s 			page 107


 5986 156e 5D150000 		.4byte	0x155d
 5987 1572 01       		.byte	0x1
 5988 1573 7B150000 		.4byte	0x157b
 5989 1577 81150000 		.4byte	0x1581
 5990 157b 10       		.uleb128 0x10
 5991 157c 7D4D0000 		.4byte	0x4d7d
 5992 1580 00       		.byte	0
 5993 1581 28       		.uleb128 0x28
 5994 1582 C4640000 		.4byte	.LASF148
 5995 1586 0B       		.byte	0xb
 5996 1587 C701     		.2byte	0x1c7
 5997 1589 A6490000 		.4byte	.LASF213
 5998 158d 01       		.byte	0x1
 5999 158e 96150000 		.4byte	0x1596
 6000 1592 A1150000 		.4byte	0x15a1
 6001 1596 10       		.uleb128 0x10
 6002 1597 7D4D0000 		.4byte	0x4d7d
 6003 159b 0D       		.uleb128 0xd
 6004 159c 9B4D0000 		.4byte	0x4d9b
 6005 15a0 00       		.byte	0
 6006 15a1 27       		.uleb128 0x27
 6007 15a2 5D5B0000 		.4byte	.LASF153
 6008 15a6 0B       		.byte	0xb
 6009 15a7 5302     		.2byte	0x253
 6010 15a9 A1230000 		.4byte	.LASF214
 6011 15ad 774D0000 		.4byte	0x4d77
 6012 15b1 01       		.byte	0x1
 6013 15b2 BA150000 		.4byte	0x15ba
 6014 15b6 C0150000 		.4byte	0x15c0
 6015 15ba 10       		.uleb128 0x10
 6016 15bb 7D4D0000 		.4byte	0x4d7d
 6017 15bf 00       		.byte	0
 6018 15c0 27       		.uleb128 0x27
 6019 15c1 47500000 		.4byte	.LASF155
 6020 15c5 0B       		.byte	0xb
 6021 15c6 5D02     		.2byte	0x25d
 6022 15c8 09470000 		.4byte	.LASF215
 6023 15cc 9D470000 		.4byte	0x479d
 6024 15d0 01       		.byte	0x1
 6025 15d1 D9150000 		.4byte	0x15d9
 6026 15d5 DF150000 		.4byte	0x15df
 6027 15d9 10       		.uleb128 0x10
 6028 15da 7D4D0000 		.4byte	0x4d7d
 6029 15de 00       		.byte	0
 6030 15df 27       		.uleb128 0x27
 6031 15e0 4B340000 		.4byte	.LASF157
 6032 15e4 0B       		.byte	0xb
 6033 15e5 6702     		.2byte	0x267
 6034 15e7 DD540000 		.4byte	.LASF216
 6035 15eb 2C000000 		.4byte	0x2c
 6036 15ef 01       		.byte	0x1
 6037 15f0 F8150000 		.4byte	0x15f8
 6038 15f4 FE150000 		.4byte	0x15fe
 6039 15f8 10       		.uleb128 0x10
 6040 15f9 7D4D0000 		.4byte	0x4d7d
 6041 15fd 00       		.byte	0
 6042 15fe 28       		.uleb128 0x28
ARM GAS  /tmp/cc9AvIGf.s 			page 108


 6043 15ff 0C1F0000 		.4byte	.LASF159
 6044 1603 0B       		.byte	0xb
 6045 1604 7602     		.2byte	0x276
 6046 1606 C5590000 		.4byte	.LASF217
 6047 160a 01       		.byte	0x1
 6048 160b 13160000 		.4byte	0x1613
 6049 160f 1E160000 		.4byte	0x161e
 6050 1613 10       		.uleb128 0x10
 6051 1614 834D0000 		.4byte	0x4d83
 6052 1618 0D       		.uleb128 0xd
 6053 1619 894D0000 		.4byte	0x4d89
 6054 161d 00       		.byte	0
 6055 161e 27       		.uleb128 0x27
 6056 161f B1130000 		.4byte	.LASF161
 6057 1623 0B       		.byte	0xb
 6058 1624 8002     		.2byte	0x280
 6059 1626 85280000 		.4byte	.LASF218
 6060 162a 9D470000 		.4byte	0x479d
 6061 162e 01       		.byte	0x1
 6062 162f 37160000 		.4byte	0x1637
 6063 1633 42160000 		.4byte	0x1642
 6064 1637 10       		.uleb128 0x10
 6065 1638 834D0000 		.4byte	0x4d83
 6066 163c 0D       		.uleb128 0xd
 6067 163d 894D0000 		.4byte	0x4d89
 6068 1641 00       		.byte	0
 6069 1642 27       		.uleb128 0x27
 6070 1643 FC390000 		.4byte	.LASF163
 6071 1647 0B       		.byte	0xb
 6072 1648 8A02     		.2byte	0x28a
 6073 164a 12550000 		.4byte	.LASF219
 6074 164e 25000000 		.4byte	0x25
 6075 1652 01       		.byte	0x1
 6076 1653 5B160000 		.4byte	0x165b
 6077 1657 66160000 		.4byte	0x1666
 6078 165b 10       		.uleb128 0x10
 6079 165c 7D4D0000 		.4byte	0x4d7d
 6080 1660 0D       		.uleb128 0xd
 6081 1661 574D0000 		.4byte	0x4d57
 6082 1665 00       		.byte	0
 6083 1666 27       		.uleb128 0x27
 6084 1667 76240000 		.4byte	.LASF165
 6085 166b 0B       		.byte	0xb
 6086 166c 9B02     		.2byte	0x29b
 6087 166e 8F5D0000 		.4byte	.LASF220
 6088 1672 9D470000 		.4byte	0x479d
 6089 1676 01       		.byte	0x1
 6090 1677 7F160000 		.4byte	0x167f
 6091 167b 8A160000 		.4byte	0x168a
 6092 167f 10       		.uleb128 0x10
 6093 1680 7D4D0000 		.4byte	0x4d7d
 6094 1684 0D       		.uleb128 0xd
 6095 1685 574D0000 		.4byte	0x4d57
 6096 1689 00       		.byte	0
 6097 168a 27       		.uleb128 0x27
 6098 168b 0D3E0000 		.4byte	.LASF167
 6099 168f 0B       		.byte	0xb
ARM GAS  /tmp/cc9AvIGf.s 			page 109


 6100 1690 AC02     		.2byte	0x2ac
 6101 1692 B15A0000 		.4byte	.LASF221
 6102 1696 8F4D0000 		.4byte	0x4d8f
 6103 169a 01       		.byte	0x1
 6104 169b A3160000 		.4byte	0x16a3
 6105 169f AE160000 		.4byte	0x16ae
 6106 16a3 10       		.uleb128 0x10
 6107 16a4 7D4D0000 		.4byte	0x4d7d
 6108 16a8 0D       		.uleb128 0xd
 6109 16a9 68130000 		.4byte	0x1368
 6110 16ad 00       		.byte	0
 6111 16ae 27       		.uleb128 0x27
 6112 16af 0D3E0000 		.4byte	.LASF167
 6113 16b3 0B       		.byte	0xb
 6114 16b4 BC02     		.2byte	0x2bc
 6115 16b6 B44B0000 		.4byte	.LASF222
 6116 16ba 8F4D0000 		.4byte	0x4d8f
 6117 16be 01       		.byte	0x1
 6118 16bf C7160000 		.4byte	0x16c7
 6119 16c3 D7160000 		.4byte	0x16d7
 6120 16c7 10       		.uleb128 0x10
 6121 16c8 7D4D0000 		.4byte	0x4d7d
 6122 16cc 0D       		.uleb128 0xd
 6123 16cd 74130000 		.4byte	0x1374
 6124 16d1 0D       		.uleb128 0xd
 6125 16d2 A54C0000 		.4byte	0x4ca5
 6126 16d6 00       		.byte	0
 6127 16d7 27       		.uleb128 0x27
 6128 16d8 0D640000 		.4byte	.LASF170
 6129 16dc 0B       		.byte	0xb
 6130 16dd E001     		.2byte	0x1e0
 6131 16df 5D150000 		.4byte	.LASF223
 6132 16e3 F6160000 		.4byte	0x16f6
 6133 16e7 01       		.byte	0x1
 6134 16e8 F0160000 		.4byte	0x16f0
 6135 16ec F6160000 		.4byte	0x16f6
 6136 16f0 10       		.uleb128 0x10
 6137 16f1 834D0000 		.4byte	0x4d83
 6138 16f5 00       		.byte	0
 6139 16f6 07       		.uleb128 0x7
 6140 16f7 F3110000 		.4byte	0x11f3
 6141 16fb 29       		.uleb128 0x29
 6142 16fc 656E6400 		.ascii	"end\000"
 6143 1700 0B       		.byte	0xb
 6144 1701 E401     		.2byte	0x1e4
 6145 1703 D6150000 		.4byte	.LASF224
 6146 1707 F6160000 		.4byte	0x16f6
 6147 170b 01       		.byte	0x1
 6148 170c 14170000 		.4byte	0x1714
 6149 1710 1A170000 		.4byte	0x171a
 6150 1714 10       		.uleb128 0x10
 6151 1715 834D0000 		.4byte	0x4d83
 6152 1719 00       		.byte	0
 6153 171a 28       		.uleb128 0x28
 6154 171b D7110000 		.4byte	.LASF172
 6155 171f 0B       		.byte	0xb
 6156 1720 E801     		.2byte	0x1e8
ARM GAS  /tmp/cc9AvIGf.s 			page 110


 6157 1722 6B180000 		.4byte	.LASF225
 6158 1726 01       		.byte	0x1
 6159 1727 2F170000 		.4byte	0x172f
 6160 172b 3A170000 		.4byte	0x173a
 6161 172f 10       		.uleb128 0x10
 6162 1730 834D0000 		.4byte	0x4d83
 6163 1734 0D       		.uleb128 0xd
 6164 1735 A14D0000 		.4byte	0x4da1
 6165 1739 00       		.byte	0
 6166 173a 27       		.uleb128 0x27
 6167 173b 0D640000 		.4byte	.LASF170
 6168 173f 0B       		.byte	0xb
 6169 1740 EC01     		.2byte	0x1ec
 6170 1742 A6400000 		.4byte	.LASF226
 6171 1746 59170000 		.4byte	0x1759
 6172 174a 01       		.byte	0x1
 6173 174b 53170000 		.4byte	0x1753
 6174 174f 59170000 		.4byte	0x1759
 6175 1753 10       		.uleb128 0x10
 6176 1754 7D4D0000 		.4byte	0x4d7d
 6177 1758 00       		.byte	0
 6178 1759 07       		.uleb128 0x7
 6179 175a 63130000 		.4byte	0x1363
 6180 175e 29       		.uleb128 0x29
 6181 175f 656E6400 		.ascii	"end\000"
 6182 1763 0B       		.byte	0xb
 6183 1764 F201     		.2byte	0x1f2
 6184 1766 F9380000 		.4byte	.LASF227
 6185 176a 59170000 		.4byte	0x1759
 6186 176e 01       		.byte	0x1
 6187 176f 77170000 		.4byte	0x1777
 6188 1773 7D170000 		.4byte	0x177d
 6189 1777 10       		.uleb128 0x10
 6190 1778 7D4D0000 		.4byte	0x4d7d
 6191 177c 00       		.byte	0
 6192 177d 28       		.uleb128 0x28
 6193 177e D7110000 		.4byte	.LASF172
 6194 1782 0B       		.byte	0xb
 6195 1783 F601     		.2byte	0x1f6
 6196 1785 FB300000 		.4byte	.LASF228
 6197 1789 01       		.byte	0x1
 6198 178a 92170000 		.4byte	0x1792
 6199 178e 9D170000 		.4byte	0x179d
 6200 1792 10       		.uleb128 0x10
 6201 1793 7D4D0000 		.4byte	0x4d7d
 6202 1797 0D       		.uleb128 0xd
 6203 1798 A74D0000 		.4byte	0x4da7
 6204 179c 00       		.byte	0
 6205 179d 2A       		.uleb128 0x2a
 6206 179e F60F0000 		.4byte	.LASF178
 6207 17a2 0B       		.byte	0xb
 6208 17a3 FA01     		.2byte	0x1fa
 6209 17a5 834D0000 		.4byte	0x4d83
 6210 17a9 01       		.byte	0x1
 6211 17aa B2170000 		.4byte	0x17b2
 6212 17ae B8170000 		.4byte	0x17b8
 6213 17b2 10       		.uleb128 0x10
ARM GAS  /tmp/cc9AvIGf.s 			page 111


 6214 17b3 834D0000 		.4byte	0x4d83
 6215 17b7 00       		.byte	0
 6216 17b8 2B       		.uleb128 0x2b
 6217 17b9 351C0000 		.4byte	.LASF229
 6218 17bd C7170000 		.4byte	0x17c7
 6219 17c1 00       		.byte	0
 6220 17c2 07       		.uleb128 0x7
 6221 17c3 C7170000 		.4byte	0x17c7
 6222 17c7 2C       		.uleb128 0x2c
 6223 17c8 27520000 		.4byte	.LASF698
 6224 17cc EB170000 		.4byte	0x17eb
 6225 17d0 24       		.uleb128 0x24
 6226 17d1 90090000 		.4byte	.LASF230
 6227 17d5 07       		.byte	0x7
 6228 17d6 1F       		.byte	0x1f
 6229 17d7 70210000 		.4byte	.LASF231
 6230 17db 71500000 		.4byte	0x5071
 6231 17df 01       		.byte	0x1
 6232 17e0 E4170000 		.4byte	0x17e4
 6233 17e4 10       		.uleb128 0x10
 6234 17e5 95550000 		.4byte	0x5595
 6235 17e9 00       		.byte	0
 6236 17ea 00       		.byte	0
 6237 17eb 07       		.uleb128 0x7
 6238 17ec 1F100000 		.4byte	0x101f
 6239 17f0 0E       		.uleb128 0xe
 6240 17f1 BE530000 		.4byte	.LASF232
 6241 17f5 04       		.byte	0x4
 6242 17f6 0B       		.byte	0xb
 6243 17f7 0F       		.byte	0xf
 6244 17f8 BD1C0000 		.4byte	0x1cbd
 6245 17fc 13       		.uleb128 0x13
 6246 17fd 79010000 		.4byte	0x179
 6247 1801 00       		.byte	0
 6248 1802 1F       		.uleb128 0x1f
 6249 1803 F45A0000 		.4byte	.LASF87
 6250 1807 08       		.byte	0x8
 6251 1808 0B       		.byte	0xb
 6252 1809 11       		.byte	0x11
 6253 180a 01       		.byte	0x1
 6254 180b 42180000 		.4byte	0x1842
 6255 180f 16       		.uleb128 0x16
 6256 1810 1D2D0000 		.4byte	.LASF85
 6257 1814 0B       		.byte	0xb
 6258 1815 12       		.byte	0x12
 6259 1816 AD4D0000 		.4byte	0x4dad
 6260 181a 00       		.byte	0
 6261 181b 16       		.uleb128 0x16
 6262 181c FB190000 		.4byte	.LASF86
 6263 1820 0B       		.byte	0xb
 6264 1821 13       		.byte	0x13
 6265 1822 1E4E0000 		.4byte	0x4e1e
 6266 1826 04       		.byte	0x4
 6267 1827 20       		.uleb128 0x20
 6268 1828 F45A0000 		.4byte	.LASF87
 6269 182c 0B       		.byte	0xb
 6270 182d 15       		.byte	0x15
ARM GAS  /tmp/cc9AvIGf.s 			page 112


 6271 182e AD4D0000 		.4byte	0x4dad
 6272 1832 36180000 		.4byte	0x1836
 6273 1836 10       		.uleb128 0x10
 6274 1837 AD4D0000 		.4byte	0x4dad
 6275 183b 0D       		.uleb128 0xd
 6276 183c 234E0000 		.4byte	0x4e23
 6277 1840 00       		.byte	0
 6278 1841 00       		.byte	0
 6279 1842 21       		.uleb128 0x21
 6280 1843 34130000 		.4byte	.LASF88
 6281 1847 0B       		.byte	0xb
 6282 1848 8A01     		.2byte	0x18a
 6283 184a AD4D0000 		.4byte	0x4dad
 6284 184e 00       		.byte	0
 6285 184f 25       		.uleb128 0x25
 6286 1850 AB1F0000 		.4byte	.LASF89
 6287 1854 25       		.uleb128 0x25
 6288 1855 A82E0000 		.4byte	.LASF179
 6289 1859 25       		.uleb128 0x25
 6290 185a 0E530000 		.4byte	.LASF105
 6291 185e 25       		.uleb128 0x25
 6292 185f 2A3F0000 		.4byte	.LASF114
 6293 1863 26       		.uleb128 0x26
 6294 1864 011A0000 		.4byte	.LASF123
 6295 1868 0B       		.byte	0xb
 6296 1869 8601     		.2byte	0x186
 6297 186b B34D0000 		.4byte	0x4db3
 6298 186f 26       		.uleb128 0x26
 6299 1870 AE120000 		.4byte	.LASF124
 6300 1874 0B       		.byte	0xb
 6301 1875 8701     		.2byte	0x187
 6302 1877 CE4D0000 		.4byte	0x4dce
 6303 187b 27       		.uleb128 0x27
 6304 187c 8A640000 		.4byte	.LASF125
 6305 1880 0B       		.byte	0xb
 6306 1881 8D01     		.2byte	0x18d
 6307 1883 AD330000 		.4byte	.LASF233
 6308 1887 E84D0000 		.4byte	0x4de8
 6309 188b 01       		.byte	0x1
 6310 188c 94180000 		.4byte	0x1894
 6311 1890 9A180000 		.4byte	0x189a
 6312 1894 10       		.uleb128 0x10
 6313 1895 EE4D0000 		.4byte	0x4dee
 6314 1899 00       		.byte	0
 6315 189a 07       		.uleb128 0x7
 6316 189b 02180000 		.4byte	0x1802
 6317 189f 27       		.uleb128 0x27
 6318 18a0 845F0000 		.4byte	.LASF126
 6319 18a4 0B       		.byte	0xb
 6320 18a5 9101     		.2byte	0x191
 6321 18a7 DD2D0000 		.4byte	.LASF234
 6322 18ab 9D470000 		.4byte	0x479d
 6323 18af 01       		.byte	0x1
 6324 18b0 B8180000 		.4byte	0x18b8
 6325 18b4 BE180000 		.4byte	0x18be
 6326 18b8 10       		.uleb128 0x10
 6327 18b9 EE4D0000 		.4byte	0x4dee
ARM GAS  /tmp/cc9AvIGf.s 			page 113


 6328 18bd 00       		.byte	0
 6329 18be 27       		.uleb128 0x27
 6330 18bf FF1E0000 		.4byte	.LASF129
 6331 18c3 0B       		.byte	0xb
 6332 18c4 0302     		.2byte	0x203
 6333 18c6 31110000 		.4byte	.LASF235
 6334 18ca 2C000000 		.4byte	0x2c
 6335 18ce 01       		.byte	0x1
 6336 18cf D7180000 		.4byte	0x18d7
 6337 18d3 DD180000 		.4byte	0x18dd
 6338 18d7 10       		.uleb128 0x10
 6339 18d8 EE4D0000 		.4byte	0x4dee
 6340 18dc 00       		.byte	0
 6341 18dd 28       		.uleb128 0x28
 6342 18de D3480000 		.4byte	.LASF131
 6343 18e2 0B       		.byte	0xb
 6344 18e3 9701     		.2byte	0x197
 6345 18e5 BC4D0000 		.4byte	.LASF236
 6346 18e9 01       		.byte	0x1
 6347 18ea F2180000 		.4byte	0x18f2
 6348 18ee FD180000 		.4byte	0x18fd
 6349 18f2 10       		.uleb128 0x10
 6350 18f3 F44D0000 		.4byte	0x4df4
 6351 18f7 0D       		.uleb128 0xd
 6352 18f8 FA4D0000 		.4byte	0x4dfa
 6353 18fc 00       		.byte	0
 6354 18fd 28       		.uleb128 0x28
 6355 18fe 38520000 		.4byte	.LASF132
 6356 1902 0B       		.byte	0xb
 6357 1903 9F01     		.2byte	0x19f
 6358 1905 1D2B0000 		.4byte	.LASF237
 6359 1909 01       		.byte	0x1
 6360 190a 12190000 		.4byte	0x1912
 6361 190e 1D190000 		.4byte	0x191d
 6362 1912 10       		.uleb128 0x10
 6363 1913 F44D0000 		.4byte	0x4df4
 6364 1917 0D       		.uleb128 0xd
 6365 1918 FA4D0000 		.4byte	0x4dfa
 6366 191c 00       		.byte	0
 6367 191d 27       		.uleb128 0x27
 6368 191e DD280000 		.4byte	.LASF135
 6369 1922 0B       		.byte	0xb
 6370 1923 0E02     		.2byte	0x20e
 6371 1925 C0200000 		.4byte	.LASF238
 6372 1929 9D470000 		.4byte	0x479d
 6373 192d 01       		.byte	0x1
 6374 192e 36190000 		.4byte	0x1936
 6375 1932 41190000 		.4byte	0x1941
 6376 1936 10       		.uleb128 0x10
 6377 1937 F44D0000 		.4byte	0x4df4
 6378 193b 0D       		.uleb128 0xd
 6379 193c FA4D0000 		.4byte	0x4dfa
 6380 1940 00       		.byte	0
 6381 1941 27       		.uleb128 0x27
 6382 1942 11380000 		.4byte	.LASF137
 6383 1946 0B       		.byte	0xb
 6384 1947 1F02     		.2byte	0x21f
ARM GAS  /tmp/cc9AvIGf.s 			page 114


 6385 1949 8E520000 		.4byte	.LASF239
 6386 194d 25000000 		.4byte	0x25
 6387 1951 01       		.byte	0x1
 6388 1952 5A190000 		.4byte	0x195a
 6389 1956 65190000 		.4byte	0x1965
 6390 195a 10       		.uleb128 0x10
 6391 195b EE4D0000 		.4byte	0x4dee
 6392 195f 0D       		.uleb128 0xd
 6393 1960 C84D0000 		.4byte	0x4dc8
 6394 1964 00       		.byte	0
 6395 1965 27       		.uleb128 0x27
 6396 1966 374E0000 		.4byte	.LASF139
 6397 196a 0B       		.byte	0xb
 6398 196b 2C02     		.2byte	0x22c
 6399 196d C9550000 		.4byte	.LASF240
 6400 1971 9D470000 		.4byte	0x479d
 6401 1975 01       		.byte	0x1
 6402 1976 7E190000 		.4byte	0x197e
 6403 197a 89190000 		.4byte	0x1989
 6404 197e 10       		.uleb128 0x10
 6405 197f EE4D0000 		.4byte	0x4dee
 6406 1983 0D       		.uleb128 0xd
 6407 1984 C84D0000 		.4byte	0x4dc8
 6408 1988 00       		.byte	0
 6409 1989 27       		.uleb128 0x27
 6410 198a E1330000 		.4byte	.LASF141
 6411 198e 0B       		.byte	0xb
 6412 198f 3802     		.2byte	0x238
 6413 1991 D3370000 		.4byte	.LASF241
 6414 1995 004E0000 		.4byte	0x4e00
 6415 1999 01       		.byte	0x1
 6416 199a A2190000 		.4byte	0x19a2
 6417 199e AD190000 		.4byte	0x19ad
 6418 19a2 10       		.uleb128 0x10
 6419 19a3 EE4D0000 		.4byte	0x4dee
 6420 19a7 0D       		.uleb128 0xd
 6421 19a8 63180000 		.4byte	0x1863
 6422 19ac 00       		.byte	0
 6423 19ad 27       		.uleb128 0x27
 6424 19ae E1330000 		.4byte	.LASF141
 6425 19b2 0B       		.byte	0xb
 6426 19b3 4402     		.2byte	0x244
 6427 19b5 522A0000 		.4byte	.LASF242
 6428 19b9 004E0000 		.4byte	0x4e00
 6429 19bd 01       		.byte	0x1
 6430 19be C6190000 		.4byte	0x19c6
 6431 19c2 D6190000 		.4byte	0x19d6
 6432 19c6 10       		.uleb128 0x10
 6433 19c7 EE4D0000 		.4byte	0x4dee
 6434 19cb 0D       		.uleb128 0xd
 6435 19cc 6F180000 		.4byte	0x186f
 6436 19d0 0D       		.uleb128 0xd
 6437 19d1 A54C0000 		.4byte	0x4ca5
 6438 19d5 00       		.byte	0
 6439 19d6 27       		.uleb128 0x27
 6440 19d7 C20F0000 		.4byte	.LASF144
 6441 19db 0B       		.byte	0xb
ARM GAS  /tmp/cc9AvIGf.s 			page 115


 6442 19dc B301     		.2byte	0x1b3
 6443 19de 7A040000 		.4byte	.LASF243
 6444 19e2 F5190000 		.4byte	0x19f5
 6445 19e6 01       		.byte	0x1
 6446 19e7 EF190000 		.4byte	0x19ef
 6447 19eb F5190000 		.4byte	0x19f5
 6448 19ef 10       		.uleb128 0x10
 6449 19f0 F44D0000 		.4byte	0x4df4
 6450 19f4 00       		.byte	0
 6451 19f5 07       		.uleb128 0x7
 6452 19f6 4F180000 		.4byte	0x184f
 6453 19fa 27       		.uleb128 0x27
 6454 19fb 72300000 		.4byte	.LASF146
 6455 19ff 0B       		.byte	0xb
 6456 1a00 B701     		.2byte	0x1b7
 6457 1a02 BA2A0000 		.4byte	.LASF244
 6458 1a06 F5190000 		.4byte	0x19f5
 6459 1a0a 01       		.byte	0x1
 6460 1a0b 131A0000 		.4byte	0x1a13
 6461 1a0f 191A0000 		.4byte	0x1a19
 6462 1a13 10       		.uleb128 0x10
 6463 1a14 F44D0000 		.4byte	0x4df4
 6464 1a18 00       		.byte	0
 6465 1a19 28       		.uleb128 0x28
 6466 1a1a C4640000 		.4byte	.LASF148
 6467 1a1e 0B       		.byte	0xb
 6468 1a1f BB01     		.2byte	0x1bb
 6469 1a21 62140000 		.4byte	.LASF245
 6470 1a25 01       		.byte	0x1
 6471 1a26 2E1A0000 		.4byte	0x1a2e
 6472 1a2a 391A0000 		.4byte	0x1a39
 6473 1a2e 10       		.uleb128 0x10
 6474 1a2f F44D0000 		.4byte	0x4df4
 6475 1a33 0D       		.uleb128 0xd
 6476 1a34 064E0000 		.4byte	0x4e06
 6477 1a38 00       		.byte	0
 6478 1a39 27       		.uleb128 0x27
 6479 1a3a C20F0000 		.4byte	.LASF144
 6480 1a3e 0B       		.byte	0xb
 6481 1a3f BF01     		.2byte	0x1bf
 6482 1a41 7E190000 		.4byte	.LASF246
 6483 1a45 581A0000 		.4byte	0x1a58
 6484 1a49 01       		.byte	0x1
 6485 1a4a 521A0000 		.4byte	0x1a52
 6486 1a4e 581A0000 		.4byte	0x1a58
 6487 1a52 10       		.uleb128 0x10
 6488 1a53 EE4D0000 		.4byte	0x4dee
 6489 1a57 00       		.byte	0
 6490 1a58 07       		.uleb128 0x7
 6491 1a59 54180000 		.4byte	0x1854
 6492 1a5d 27       		.uleb128 0x27
 6493 1a5e 72300000 		.4byte	.LASF146
 6494 1a62 0B       		.byte	0xb
 6495 1a63 C301     		.2byte	0x1c3
 6496 1a65 A04E0000 		.4byte	.LASF247
 6497 1a69 581A0000 		.4byte	0x1a58
 6498 1a6d 01       		.byte	0x1
ARM GAS  /tmp/cc9AvIGf.s 			page 116


 6499 1a6e 761A0000 		.4byte	0x1a76
 6500 1a72 7C1A0000 		.4byte	0x1a7c
 6501 1a76 10       		.uleb128 0x10
 6502 1a77 EE4D0000 		.4byte	0x4dee
 6503 1a7b 00       		.byte	0
 6504 1a7c 28       		.uleb128 0x28
 6505 1a7d C4640000 		.4byte	.LASF148
 6506 1a81 0B       		.byte	0xb
 6507 1a82 C701     		.2byte	0x1c7
 6508 1a84 E35B0000 		.4byte	.LASF248
 6509 1a88 01       		.byte	0x1
 6510 1a89 911A0000 		.4byte	0x1a91
 6511 1a8d 9C1A0000 		.4byte	0x1a9c
 6512 1a91 10       		.uleb128 0x10
 6513 1a92 EE4D0000 		.4byte	0x4dee
 6514 1a96 0D       		.uleb128 0xd
 6515 1a97 0C4E0000 		.4byte	0x4e0c
 6516 1a9b 00       		.byte	0
 6517 1a9c 27       		.uleb128 0x27
 6518 1a9d 5D5B0000 		.4byte	.LASF153
 6519 1aa1 0B       		.byte	0xb
 6520 1aa2 5302     		.2byte	0x253
 6521 1aa4 D8450000 		.4byte	.LASF249
 6522 1aa8 E84D0000 		.4byte	0x4de8
 6523 1aac 01       		.byte	0x1
 6524 1aad B51A0000 		.4byte	0x1ab5
 6525 1ab1 BB1A0000 		.4byte	0x1abb
 6526 1ab5 10       		.uleb128 0x10
 6527 1ab6 EE4D0000 		.4byte	0x4dee
 6528 1aba 00       		.byte	0
 6529 1abb 27       		.uleb128 0x27
 6530 1abc 47500000 		.4byte	.LASF155
 6531 1ac0 0B       		.byte	0xb
 6532 1ac1 5D02     		.2byte	0x25d
 6533 1ac3 1E040000 		.4byte	.LASF250
 6534 1ac7 9D470000 		.4byte	0x479d
 6535 1acb 01       		.byte	0x1
 6536 1acc D41A0000 		.4byte	0x1ad4
 6537 1ad0 DA1A0000 		.4byte	0x1ada
 6538 1ad4 10       		.uleb128 0x10
 6539 1ad5 EE4D0000 		.4byte	0x4dee
 6540 1ad9 00       		.byte	0
 6541 1ada 27       		.uleb128 0x27
 6542 1adb 4B340000 		.4byte	.LASF157
 6543 1adf 0B       		.byte	0xb
 6544 1ae0 6702     		.2byte	0x267
 6545 1ae2 6F000000 		.4byte	.LASF251
 6546 1ae6 2C000000 		.4byte	0x2c
 6547 1aea 01       		.byte	0x1
 6548 1aeb F31A0000 		.4byte	0x1af3
 6549 1aef F91A0000 		.4byte	0x1af9
 6550 1af3 10       		.uleb128 0x10
 6551 1af4 EE4D0000 		.4byte	0x4dee
 6552 1af8 00       		.byte	0
 6553 1af9 28       		.uleb128 0x28
 6554 1afa 0C1F0000 		.4byte	.LASF159
 6555 1afe 0B       		.byte	0xb
ARM GAS  /tmp/cc9AvIGf.s 			page 117


 6556 1aff 7602     		.2byte	0x276
 6557 1b01 0C200000 		.4byte	.LASF252
 6558 1b05 01       		.byte	0x1
 6559 1b06 0E1B0000 		.4byte	0x1b0e
 6560 1b0a 191B0000 		.4byte	0x1b19
 6561 1b0e 10       		.uleb128 0x10
 6562 1b0f F44D0000 		.4byte	0x4df4
 6563 1b13 0D       		.uleb128 0xd
 6564 1b14 FA4D0000 		.4byte	0x4dfa
 6565 1b18 00       		.byte	0
 6566 1b19 27       		.uleb128 0x27
 6567 1b1a B1130000 		.4byte	.LASF161
 6568 1b1e 0B       		.byte	0xb
 6569 1b1f 8002     		.2byte	0x280
 6570 1b21 50370000 		.4byte	.LASF253
 6571 1b25 9D470000 		.4byte	0x479d
 6572 1b29 01       		.byte	0x1
 6573 1b2a 321B0000 		.4byte	0x1b32
 6574 1b2e 3D1B0000 		.4byte	0x1b3d
 6575 1b32 10       		.uleb128 0x10
 6576 1b33 F44D0000 		.4byte	0x4df4
 6577 1b37 0D       		.uleb128 0xd
 6578 1b38 FA4D0000 		.4byte	0x4dfa
 6579 1b3c 00       		.byte	0
 6580 1b3d 27       		.uleb128 0x27
 6581 1b3e FC390000 		.4byte	.LASF163
 6582 1b42 0B       		.byte	0xb
 6583 1b43 8A02     		.2byte	0x28a
 6584 1b45 3F060000 		.4byte	.LASF254
 6585 1b49 25000000 		.4byte	0x25
 6586 1b4d 01       		.byte	0x1
 6587 1b4e 561B0000 		.4byte	0x1b56
 6588 1b52 611B0000 		.4byte	0x1b61
 6589 1b56 10       		.uleb128 0x10
 6590 1b57 EE4D0000 		.4byte	0x4dee
 6591 1b5b 0D       		.uleb128 0xd
 6592 1b5c C84D0000 		.4byte	0x4dc8
 6593 1b60 00       		.byte	0
 6594 1b61 27       		.uleb128 0x27
 6595 1b62 76240000 		.4byte	.LASF165
 6596 1b66 0B       		.byte	0xb
 6597 1b67 9B02     		.2byte	0x29b
 6598 1b69 5F0E0000 		.4byte	.LASF255
 6599 1b6d 9D470000 		.4byte	0x479d
 6600 1b71 01       		.byte	0x1
 6601 1b72 7A1B0000 		.4byte	0x1b7a
 6602 1b76 851B0000 		.4byte	0x1b85
 6603 1b7a 10       		.uleb128 0x10
 6604 1b7b EE4D0000 		.4byte	0x4dee
 6605 1b7f 0D       		.uleb128 0xd
 6606 1b80 C84D0000 		.4byte	0x4dc8
 6607 1b84 00       		.byte	0
 6608 1b85 27       		.uleb128 0x27
 6609 1b86 0D3E0000 		.4byte	.LASF167
 6610 1b8a 0B       		.byte	0xb
 6611 1b8b AC02     		.2byte	0x2ac
 6612 1b8d 4B2D0000 		.4byte	.LASF256
ARM GAS  /tmp/cc9AvIGf.s 			page 118


 6613 1b91 004E0000 		.4byte	0x4e00
 6614 1b95 01       		.byte	0x1
 6615 1b96 9E1B0000 		.4byte	0x1b9e
 6616 1b9a A91B0000 		.4byte	0x1ba9
 6617 1b9e 10       		.uleb128 0x10
 6618 1b9f EE4D0000 		.4byte	0x4dee
 6619 1ba3 0D       		.uleb128 0xd
 6620 1ba4 63180000 		.4byte	0x1863
 6621 1ba8 00       		.byte	0
 6622 1ba9 27       		.uleb128 0x27
 6623 1baa 0D3E0000 		.4byte	.LASF167
 6624 1bae 0B       		.byte	0xb
 6625 1baf BC02     		.2byte	0x2bc
 6626 1bb1 CB5D0000 		.4byte	.LASF257
 6627 1bb5 004E0000 		.4byte	0x4e00
 6628 1bb9 01       		.byte	0x1
 6629 1bba C21B0000 		.4byte	0x1bc2
 6630 1bbe D21B0000 		.4byte	0x1bd2
 6631 1bc2 10       		.uleb128 0x10
 6632 1bc3 EE4D0000 		.4byte	0x4dee
 6633 1bc7 0D       		.uleb128 0xd
 6634 1bc8 6F180000 		.4byte	0x186f
 6635 1bcc 0D       		.uleb128 0xd
 6636 1bcd A54C0000 		.4byte	0x4ca5
 6637 1bd1 00       		.byte	0
 6638 1bd2 27       		.uleb128 0x27
 6639 1bd3 0D640000 		.4byte	.LASF170
 6640 1bd7 0B       		.byte	0xb
 6641 1bd8 E001     		.2byte	0x1e0
 6642 1bda B0350000 		.4byte	.LASF258
 6643 1bde F11B0000 		.4byte	0x1bf1
 6644 1be2 01       		.byte	0x1
 6645 1be3 EB1B0000 		.4byte	0x1beb
 6646 1be7 F11B0000 		.4byte	0x1bf1
 6647 1beb 10       		.uleb128 0x10
 6648 1bec F44D0000 		.4byte	0x4df4
 6649 1bf0 00       		.byte	0
 6650 1bf1 07       		.uleb128 0x7
 6651 1bf2 59180000 		.4byte	0x1859
 6652 1bf6 29       		.uleb128 0x29
 6653 1bf7 656E6400 		.ascii	"end\000"
 6654 1bfb 0B       		.byte	0xb
 6655 1bfc E401     		.2byte	0x1e4
 6656 1bfe 7B230000 		.4byte	.LASF259
 6657 1c02 F11B0000 		.4byte	0x1bf1
 6658 1c06 01       		.byte	0x1
 6659 1c07 0F1C0000 		.4byte	0x1c0f
 6660 1c0b 151C0000 		.4byte	0x1c15
 6661 1c0f 10       		.uleb128 0x10
 6662 1c10 F44D0000 		.4byte	0x4df4
 6663 1c14 00       		.byte	0
 6664 1c15 28       		.uleb128 0x28
 6665 1c16 D7110000 		.4byte	.LASF172
 6666 1c1a 0B       		.byte	0xb
 6667 1c1b E801     		.2byte	0x1e8
 6668 1c1d 1B0D0000 		.4byte	.LASF260
 6669 1c21 01       		.byte	0x1
ARM GAS  /tmp/cc9AvIGf.s 			page 119


 6670 1c22 2A1C0000 		.4byte	0x1c2a
 6671 1c26 351C0000 		.4byte	0x1c35
 6672 1c2a 10       		.uleb128 0x10
 6673 1c2b F44D0000 		.4byte	0x4df4
 6674 1c2f 0D       		.uleb128 0xd
 6675 1c30 124E0000 		.4byte	0x4e12
 6676 1c34 00       		.byte	0
 6677 1c35 27       		.uleb128 0x27
 6678 1c36 0D640000 		.4byte	.LASF170
 6679 1c3a 0B       		.byte	0xb
 6680 1c3b EC01     		.2byte	0x1ec
 6681 1c3d 2A3B0000 		.4byte	.LASF261
 6682 1c41 541C0000 		.4byte	0x1c54
 6683 1c45 01       		.byte	0x1
 6684 1c46 4E1C0000 		.4byte	0x1c4e
 6685 1c4a 541C0000 		.4byte	0x1c54
 6686 1c4e 10       		.uleb128 0x10
 6687 1c4f EE4D0000 		.4byte	0x4dee
 6688 1c53 00       		.byte	0
 6689 1c54 07       		.uleb128 0x7
 6690 1c55 5E180000 		.4byte	0x185e
 6691 1c59 29       		.uleb128 0x29
 6692 1c5a 656E6400 		.ascii	"end\000"
 6693 1c5e 0B       		.byte	0xb
 6694 1c5f F201     		.2byte	0x1f2
 6695 1c61 365B0000 		.4byte	.LASF262
 6696 1c65 541C0000 		.4byte	0x1c54
 6697 1c69 01       		.byte	0x1
 6698 1c6a 721C0000 		.4byte	0x1c72
 6699 1c6e 781C0000 		.4byte	0x1c78
 6700 1c72 10       		.uleb128 0x10
 6701 1c73 EE4D0000 		.4byte	0x4dee
 6702 1c77 00       		.byte	0
 6703 1c78 28       		.uleb128 0x28
 6704 1c79 D7110000 		.4byte	.LASF172
 6705 1c7d 0B       		.byte	0xb
 6706 1c7e F601     		.2byte	0x1f6
 6707 1c80 7F530000 		.4byte	.LASF263
 6708 1c84 01       		.byte	0x1
 6709 1c85 8D1C0000 		.4byte	0x1c8d
 6710 1c89 981C0000 		.4byte	0x1c98
 6711 1c8d 10       		.uleb128 0x10
 6712 1c8e EE4D0000 		.4byte	0x4dee
 6713 1c92 0D       		.uleb128 0xd
 6714 1c93 184E0000 		.4byte	0x4e18
 6715 1c97 00       		.byte	0
 6716 1c98 2A       		.uleb128 0x2a
 6717 1c99 F60F0000 		.4byte	.LASF178
 6718 1c9d 0B       		.byte	0xb
 6719 1c9e FA01     		.2byte	0x1fa
 6720 1ca0 F44D0000 		.4byte	0x4df4
 6721 1ca4 01       		.byte	0x1
 6722 1ca5 AD1C0000 		.4byte	0x1cad
 6723 1ca9 B31C0000 		.4byte	0x1cb3
 6724 1cad 10       		.uleb128 0x10
 6725 1cae F44D0000 		.4byte	0x4df4
 6726 1cb2 00       		.byte	0
ARM GAS  /tmp/cc9AvIGf.s 			page 120


 6727 1cb3 2B       		.uleb128 0x2b
 6728 1cb4 351C0000 		.4byte	.LASF229
 6729 1cb8 C21C0000 		.4byte	0x1cc2
 6730 1cbc 00       		.byte	0
 6731 1cbd 07       		.uleb128 0x7
 6732 1cbe C21C0000 		.4byte	0x1cc2
 6733 1cc2 0E       		.uleb128 0xe
 6734 1cc3 771A0000 		.4byte	.LASF264
 6735 1cc7 30       		.byte	0x30
 6736 1cc8 08       		.byte	0x8
 6737 1cc9 17       		.byte	0x17
 6738 1cca 8C220000 		.4byte	0x228c
 6739 1cce 13       		.uleb128 0x13
 6740 1ccf 79010000 		.4byte	0x179
 6741 1cd3 00       		.byte	0
 6742 1cd4 16       		.uleb128 0x16
 6743 1cd5 BE1E0000 		.4byte	.LASF265
 6744 1cd9 08       		.byte	0x8
 6745 1cda 1B       		.byte	0x1b
 6746 1cdb 294E0000 		.4byte	0x4e29
 6747 1cdf 00       		.byte	0
 6748 1ce0 16       		.uleb128 0x16
 6749 1ce1 96620000 		.4byte	.LASF266
 6750 1ce5 08       		.byte	0x8
 6751 1ce6 1C       		.byte	0x1c
 6752 1ce7 6D040000 		.4byte	0x46d
 6753 1ceb 04       		.byte	0x4
 6754 1cec 16       		.uleb128 0x16
 6755 1ced F9230000 		.4byte	.LASF267
 6756 1cf1 08       		.byte	0x8
 6757 1cf2 1D       		.byte	0x1d
 6758 1cf3 AF020000 		.4byte	0x2af
 6759 1cf7 08       		.byte	0x8
 6760 1cf8 16       		.uleb128 0x16
 6761 1cf9 0E5D0000 		.4byte	.LASF268
 6762 1cfd 08       		.byte	0x8
 6763 1cfe 1E       		.byte	0x1e
 6764 1cff 2C000000 		.4byte	0x2c
 6765 1d03 14       		.byte	0x14
 6766 1d04 16       		.uleb128 0x16
 6767 1d05 0E0F0000 		.4byte	.LASF269
 6768 1d09 08       		.byte	0x8
 6769 1d0a 1F       		.byte	0x1f
 6770 1d0b 2C000000 		.4byte	0x2c
 6771 1d0f 18       		.byte	0x18
 6772 1d10 16       		.uleb128 0x16
 6773 1d11 FA290000 		.4byte	.LASF270
 6774 1d15 08       		.byte	0x8
 6775 1d16 20       		.byte	0x20
 6776 1d17 F8060000 		.4byte	0x6f8
 6777 1d1b 1C       		.byte	0x1c
 6778 1d1c 16       		.uleb128 0x16
 6779 1d1d C3010000 		.4byte	.LASF271
 6780 1d21 08       		.byte	0x8
 6781 1d22 21       		.byte	0x21
 6782 1d23 1F100000 		.4byte	0x101f
 6783 1d27 20       		.byte	0x20
ARM GAS  /tmp/cc9AvIGf.s 			page 121


 6784 1d28 16       		.uleb128 0x16
 6785 1d29 5C430000 		.4byte	.LASF272
 6786 1d2d 08       		.byte	0x8
 6787 1d2e 22       		.byte	0x22
 6788 1d2f 2C000000 		.4byte	0x2c
 6789 1d33 24       		.byte	0x24
 6790 1d34 16       		.uleb128 0x16
 6791 1d35 D9560000 		.4byte	.LASF273
 6792 1d39 08       		.byte	0x8
 6793 1d3a 27       		.byte	0x27
 6794 1d3b 02180000 		.4byte	0x1802
 6795 1d3f 28       		.byte	0x28
 6796 1d40 18       		.uleb128 0x18
 6797 1d41 B83B0000 		.4byte	.LASF274
 6798 1d45 08       		.byte	0x8
 6799 1d46 2A       		.byte	0x2a
 6800 1d47 C73A0000 		.4byte	.LASF275
 6801 1d4b C3000000 		.4byte	0xc3
 6802 1d4f 01       		.byte	0x1
 6803 1d50 581D0000 		.4byte	0x1d58
 6804 1d54 5E1D0000 		.4byte	0x1d5e
 6805 1d58 10       		.uleb128 0x10
 6806 1d59 2E4E0000 		.4byte	0x4e2e
 6807 1d5d 00       		.byte	0
 6808 1d5e 18       		.uleb128 0x18
 6809 1d5f CF5B0000 		.4byte	.LASF276
 6810 1d63 08       		.byte	0x8
 6811 1d64 2B       		.byte	0x2b
 6812 1d65 3D590000 		.4byte	.LASF277
 6813 1d69 C54C0000 		.4byte	0x4cc5
 6814 1d6d 01       		.byte	0x1
 6815 1d6e 761D0000 		.4byte	0x1d76
 6816 1d72 7C1D0000 		.4byte	0x1d7c
 6817 1d76 10       		.uleb128 0x10
 6818 1d77 2E4E0000 		.4byte	0x4e2e
 6819 1d7b 00       		.byte	0
 6820 1d7c 18       		.uleb128 0x18
 6821 1d7d 61580000 		.4byte	.LASF278
 6822 1d81 08       		.byte	0x8
 6823 1d82 2C       		.byte	0x2c
 6824 1d83 01100000 		.4byte	.LASF279
 6825 1d87 2C000000 		.4byte	0x2c
 6826 1d8b 01       		.byte	0x1
 6827 1d8c 941D0000 		.4byte	0x1d94
 6828 1d90 9A1D0000 		.4byte	0x1d9a
 6829 1d94 10       		.uleb128 0x10
 6830 1d95 2E4E0000 		.4byte	0x4e2e
 6831 1d99 00       		.byte	0
 6832 1d9a 18       		.uleb128 0x18
 6833 1d9b 1E600000 		.4byte	.LASF280
 6834 1d9f 08       		.byte	0x8
 6835 1da0 2D       		.byte	0x2d
 6836 1da1 EB4A0000 		.4byte	.LASF281
 6837 1da5 2C000000 		.4byte	0x2c
 6838 1da9 01       		.byte	0x1
 6839 1daa B21D0000 		.4byte	0x1db2
 6840 1dae B81D0000 		.4byte	0x1db8
ARM GAS  /tmp/cc9AvIGf.s 			page 122


 6841 1db2 10       		.uleb128 0x10
 6842 1db3 2E4E0000 		.4byte	0x4e2e
 6843 1db7 00       		.byte	0
 6844 1db8 18       		.uleb128 0x18
 6845 1db9 621A0000 		.4byte	.LASF282
 6846 1dbd 08       		.byte	0x8
 6847 1dbe 2E       		.byte	0x2e
 6848 1dbf B2570000 		.4byte	.LASF283
 6849 1dc3 2C000000 		.4byte	0x2c
 6850 1dc7 01       		.byte	0x1
 6851 1dc8 D01D0000 		.4byte	0x1dd0
 6852 1dcc D61D0000 		.4byte	0x1dd6
 6853 1dd0 10       		.uleb128 0x10
 6854 1dd1 2E4E0000 		.4byte	0x4e2e
 6855 1dd5 00       		.byte	0
 6856 1dd6 18       		.uleb128 0x18
 6857 1dd7 CD220000 		.4byte	.LASF284
 6858 1ddb 08       		.byte	0x8
 6859 1ddc 2F       		.byte	0x2f
 6860 1ddd 3A000000 		.4byte	.LASF285
 6861 1de1 9D470000 		.4byte	0x479d
 6862 1de5 01       		.byte	0x1
 6863 1de6 EE1D0000 		.4byte	0x1dee
 6864 1dea F41D0000 		.4byte	0x1df4
 6865 1dee 10       		.uleb128 0x10
 6866 1def 2E4E0000 		.4byte	0x4e2e
 6867 1df3 00       		.byte	0
 6868 1df4 18       		.uleb128 0x18
 6869 1df5 70310000 		.4byte	.LASF286
 6870 1df9 08       		.byte	0x8
 6871 1dfa 31       		.byte	0x31
 6872 1dfb 025A0000 		.4byte	.LASF287
 6873 1dff 9D470000 		.4byte	0x479d
 6874 1e03 01       		.byte	0x1
 6875 1e04 0C1E0000 		.4byte	0x1e0c
 6876 1e08 121E0000 		.4byte	0x1e12
 6877 1e0c 10       		.uleb128 0x10
 6878 1e0d 2E4E0000 		.4byte	0x4e2e
 6879 1e11 00       		.byte	0
 6880 1e12 18       		.uleb128 0x18
 6881 1e13 5C070000 		.4byte	.LASF288
 6882 1e17 08       		.byte	0x8
 6883 1e18 32       		.byte	0x32
 6884 1e19 232D0000 		.4byte	.LASF289
 6885 1e1d 9D470000 		.4byte	0x479d
 6886 1e21 01       		.byte	0x1
 6887 1e22 2A1E0000 		.4byte	0x1e2a
 6888 1e26 301E0000 		.4byte	0x1e30
 6889 1e2a 10       		.uleb128 0x10
 6890 1e2b 2E4E0000 		.4byte	0x4e2e
 6891 1e2f 00       		.byte	0
 6892 1e30 18       		.uleb128 0x18
 6893 1e31 35280000 		.4byte	.LASF290
 6894 1e35 08       		.byte	0x8
 6895 1e36 33       		.byte	0x33
 6896 1e37 59450000 		.4byte	.LASF291
 6897 1e3b 9D470000 		.4byte	0x479d
ARM GAS  /tmp/cc9AvIGf.s 			page 123


 6898 1e3f 01       		.byte	0x1
 6899 1e40 481E0000 		.4byte	0x1e48
 6900 1e44 4E1E0000 		.4byte	0x1e4e
 6901 1e48 10       		.uleb128 0x10
 6902 1e49 2E4E0000 		.4byte	0x4e2e
 6903 1e4d 00       		.byte	0
 6904 1e4e 18       		.uleb128 0x18
 6905 1e4f 5B3E0000 		.4byte	.LASF292
 6906 1e53 08       		.byte	0x8
 6907 1e54 34       		.byte	0x34
 6908 1e55 DE3B0000 		.4byte	.LASF293
 6909 1e59 9D470000 		.4byte	0x479d
 6910 1e5d 01       		.byte	0x1
 6911 1e5e 661E0000 		.4byte	0x1e66
 6912 1e62 6C1E0000 		.4byte	0x1e6c
 6913 1e66 10       		.uleb128 0x10
 6914 1e67 2E4E0000 		.4byte	0x4e2e
 6915 1e6b 00       		.byte	0
 6916 1e6c 18       		.uleb128 0x18
 6917 1e6d 45600000 		.4byte	.LASF294
 6918 1e71 08       		.byte	0x8
 6919 1e72 35       		.byte	0x35
 6920 1e73 E50E0000 		.4byte	.LASF295
 6921 1e77 9D470000 		.4byte	0x479d
 6922 1e7b 01       		.byte	0x1
 6923 1e7c 841E0000 		.4byte	0x1e84
 6924 1e80 8A1E0000 		.4byte	0x1e8a
 6925 1e84 10       		.uleb128 0x10
 6926 1e85 2E4E0000 		.4byte	0x4e2e
 6927 1e89 00       		.byte	0
 6928 1e8a 18       		.uleb128 0x18
 6929 1e8b 48240000 		.4byte	.LASF296
 6930 1e8f 08       		.byte	0x8
 6931 1e90 36       		.byte	0x36
 6932 1e91 CF0F0000 		.4byte	.LASF297
 6933 1e95 9D470000 		.4byte	0x479d
 6934 1e99 01       		.byte	0x1
 6935 1e9a A21E0000 		.4byte	0x1ea2
 6936 1e9e A81E0000 		.4byte	0x1ea8
 6937 1ea2 10       		.uleb128 0x10
 6938 1ea3 2E4E0000 		.4byte	0x4e2e
 6939 1ea7 00       		.byte	0
 6940 1ea8 18       		.uleb128 0x18
 6941 1ea9 A24C0000 		.4byte	.LASF298
 6942 1ead 08       		.byte	0x8
 6943 1eae 37       		.byte	0x37
 6944 1eaf 98590000 		.4byte	.LASF299
 6945 1eb3 9D470000 		.4byte	0x479d
 6946 1eb7 01       		.byte	0x1
 6947 1eb8 C01E0000 		.4byte	0x1ec0
 6948 1ebc C61E0000 		.4byte	0x1ec6
 6949 1ec0 10       		.uleb128 0x10
 6950 1ec1 2E4E0000 		.4byte	0x4e2e
 6951 1ec5 00       		.byte	0
 6952 1ec6 18       		.uleb128 0x18
 6953 1ec7 842F0000 		.4byte	.LASF300
 6954 1ecb 08       		.byte	0x8
ARM GAS  /tmp/cc9AvIGf.s 			page 124


 6955 1ecc 38       		.byte	0x38
 6956 1ecd 474D0000 		.4byte	.LASF301
 6957 1ed1 9D470000 		.4byte	0x479d
 6958 1ed5 01       		.byte	0x1
 6959 1ed6 DE1E0000 		.4byte	0x1ede
 6960 1eda E41E0000 		.4byte	0x1ee4
 6961 1ede 10       		.uleb128 0x10
 6962 1edf 2E4E0000 		.4byte	0x4e2e
 6963 1ee3 00       		.byte	0
 6964 1ee4 18       		.uleb128 0x18
 6965 1ee5 7D430000 		.4byte	.LASF302
 6966 1ee9 08       		.byte	0x8
 6967 1eea 3A       		.byte	0x3a
 6968 1eeb FC280000 		.4byte	.LASF303
 6969 1eef F3060000 		.4byte	0x6f3
 6970 1ef3 01       		.byte	0x1
 6971 1ef4 FC1E0000 		.4byte	0x1efc
 6972 1ef8 071F0000 		.4byte	0x1f07
 6973 1efc 10       		.uleb128 0x10
 6974 1efd 2E4E0000 		.4byte	0x4e2e
 6975 1f01 0D       		.uleb128 0xd
 6976 1f02 C54C0000 		.4byte	0x4cc5
 6977 1f06 00       		.byte	0
 6978 1f07 18       		.uleb128 0x18
 6979 1f08 7D430000 		.4byte	.LASF302
 6980 1f0c 08       		.byte	0x8
 6981 1f0d 3B       		.byte	0x3b
 6982 1f0e 003B0000 		.4byte	.LASF304
 6983 1f12 F3060000 		.4byte	0x6f3
 6984 1f16 01       		.byte	0x1
 6985 1f17 1F1F0000 		.4byte	0x1f1f
 6986 1f1b 251F0000 		.4byte	0x1f25
 6987 1f1f 10       		.uleb128 0x10
 6988 1f20 2E4E0000 		.4byte	0x4e2e
 6989 1f24 00       		.byte	0
 6990 1f25 18       		.uleb128 0x18
 6991 1f26 84380000 		.4byte	.LASF38
 6992 1f2a 08       		.byte	0x8
 6993 1f2b 3C       		.byte	0x3c
 6994 1f2c 982C0000 		.4byte	.LASF305
 6995 1f30 344E0000 		.4byte	0x4e34
 6996 1f34 01       		.byte	0x1
 6997 1f35 3D1F0000 		.4byte	0x1f3d
 6998 1f39 431F0000 		.4byte	0x1f43
 6999 1f3d 10       		.uleb128 0x10
 7000 1f3e 004E0000 		.4byte	0x4e00
 7001 1f42 00       		.byte	0
 7002 1f43 18       		.uleb128 0x18
 7003 1f44 80270000 		.4byte	.LASF306
 7004 1f48 08       		.byte	0x8
 7005 1f49 3E       		.byte	0x3e
 7006 1f4a 39100000 		.4byte	.LASF307
 7007 1f4e 9D470000 		.4byte	0x479d
 7008 1f52 01       		.byte	0x1
 7009 1f53 5B1F0000 		.4byte	0x1f5b
 7010 1f57 661F0000 		.4byte	0x1f66
 7011 1f5b 10       		.uleb128 0x10
ARM GAS  /tmp/cc9AvIGf.s 			page 125


 7012 1f5c 004E0000 		.4byte	0x4e00
 7013 1f60 0D       		.uleb128 0xd
 7014 1f61 3A4E0000 		.4byte	0x4e3a
 7015 1f65 00       		.byte	0
 7016 1f66 19       		.uleb128 0x19
 7017 1f67 59160000 		.4byte	.LASF40
 7018 1f6b 08       		.byte	0x8
 7019 1f6c 3F       		.byte	0x3f
 7020 1f6d 7D400000 		.4byte	.LASF308
 7021 1f71 01       		.byte	0x1
 7022 1f72 7A1F0000 		.4byte	0x1f7a
 7023 1f76 851F0000 		.4byte	0x1f85
 7024 1f7a 10       		.uleb128 0x10
 7025 1f7b 004E0000 		.4byte	0x4e00
 7026 1f7f 0D       		.uleb128 0xd
 7027 1f80 3A4E0000 		.4byte	0x4e3a
 7028 1f84 00       		.byte	0
 7029 1f85 18       		.uleb128 0x18
 7030 1f86 46470000 		.4byte	.LASF309
 7031 1f8a 08       		.byte	0x8
 7032 1f8b 40       		.byte	0x40
 7033 1f8c AF340000 		.4byte	.LASF310
 7034 1f90 9D470000 		.4byte	0x479d
 7035 1f94 01       		.byte	0x1
 7036 1f95 9D1F0000 		.4byte	0x1f9d
 7037 1f99 AD1F0000 		.4byte	0x1fad
 7038 1f9d 10       		.uleb128 0x10
 7039 1f9e 004E0000 		.4byte	0x4e00
 7040 1fa2 0D       		.uleb128 0xd
 7041 1fa3 3A4E0000 		.4byte	0x4e3a
 7042 1fa7 0D       		.uleb128 0xd
 7043 1fa8 C54C0000 		.4byte	0x4cc5
 7044 1fac 00       		.byte	0
 7045 1fad 18       		.uleb128 0x18
 7046 1fae 2F600000 		.4byte	.LASF311
 7047 1fb2 08       		.byte	0x8
 7048 1fb3 41       		.byte	0x41
 7049 1fb4 E5410000 		.4byte	.LASF312
 7050 1fb8 9D470000 		.4byte	0x479d
 7051 1fbc 01       		.byte	0x1
 7052 1fbd C51F0000 		.4byte	0x1fc5
 7053 1fc1 D51F0000 		.4byte	0x1fd5
 7054 1fc5 10       		.uleb128 0x10
 7055 1fc6 004E0000 		.4byte	0x4e00
 7056 1fca 0D       		.uleb128 0xd
 7057 1fcb 3A4E0000 		.4byte	0x4e3a
 7058 1fcf 0D       		.uleb128 0xd
 7059 1fd0 C54C0000 		.4byte	0x4cc5
 7060 1fd4 00       		.byte	0
 7061 1fd5 18       		.uleb128 0x18
 7062 1fd6 050C0000 		.4byte	.LASF313
 7063 1fda 08       		.byte	0x8
 7064 1fdb 42       		.byte	0x42
 7065 1fdc 3F5E0000 		.4byte	.LASF314
 7066 1fe0 9D470000 		.4byte	0x479d
 7067 1fe4 01       		.byte	0x1
 7068 1fe5 ED1F0000 		.4byte	0x1fed
ARM GAS  /tmp/cc9AvIGf.s 			page 126


 7069 1fe9 FD1F0000 		.4byte	0x1ffd
 7070 1fed 10       		.uleb128 0x10
 7071 1fee 004E0000 		.4byte	0x4e00
 7072 1ff2 0D       		.uleb128 0xd
 7073 1ff3 404E0000 		.4byte	0x4e40
 7074 1ff7 0D       		.uleb128 0xd
 7075 1ff8 C54C0000 		.4byte	0x4cc5
 7076 1ffc 00       		.byte	0
 7077 1ffd 18       		.uleb128 0x18
 7078 1ffe EF270000 		.4byte	.LASF315
 7079 2002 08       		.byte	0x8
 7080 2003 45       		.byte	0x45
 7081 2004 1A500000 		.4byte	.LASF316
 7082 2008 F3060000 		.4byte	0x6f3
 7083 200c 01       		.byte	0x1
 7084 200d 15200000 		.4byte	0x2015
 7085 2011 20200000 		.4byte	0x2020
 7086 2015 10       		.uleb128 0x10
 7087 2016 2E4E0000 		.4byte	0x4e2e
 7088 201a 0D       		.uleb128 0xd
 7089 201b C54C0000 		.4byte	0x4cc5
 7090 201f 00       		.byte	0
 7091 2020 18       		.uleb128 0x18
 7092 2021 EF270000 		.4byte	.LASF315
 7093 2025 08       		.byte	0x8
 7094 2026 46       		.byte	0x46
 7095 2027 DB310000 		.4byte	.LASF317
 7096 202b F3060000 		.4byte	0x6f3
 7097 202f 01       		.byte	0x1
 7098 2030 38200000 		.4byte	0x2038
 7099 2034 3E200000 		.4byte	0x203e
 7100 2038 10       		.uleb128 0x10
 7101 2039 2E4E0000 		.4byte	0x4e2e
 7102 203d 00       		.byte	0
 7103 203e 18       		.uleb128 0x18
 7104 203f 8C3D0000 		.4byte	.LASF41
 7105 2043 08       		.byte	0x8
 7106 2044 47       		.byte	0x47
 7107 2045 1E130000 		.4byte	.LASF318
 7108 2049 344E0000 		.4byte	0x4e34
 7109 204d 01       		.byte	0x1
 7110 204e 56200000 		.4byte	0x2056
 7111 2052 5C200000 		.4byte	0x205c
 7112 2056 10       		.uleb128 0x10
 7113 2057 004E0000 		.4byte	0x4e00
 7114 205b 00       		.byte	0
 7115 205c 18       		.uleb128 0x18
 7116 205d 9E4B0000 		.4byte	.LASF25
 7117 2061 08       		.byte	0x8
 7118 2062 49       		.byte	0x49
 7119 2063 962A0000 		.4byte	.LASF319
 7120 2067 9D470000 		.4byte	0x479d
 7121 206b 01       		.byte	0x1
 7122 206c 74200000 		.4byte	0x2074
 7123 2070 7F200000 		.4byte	0x207f
 7124 2074 10       		.uleb128 0x10
 7125 2075 004E0000 		.4byte	0x4e00
ARM GAS  /tmp/cc9AvIGf.s 			page 127


 7126 2079 0D       		.uleb128 0xd
 7127 207a 3A4E0000 		.4byte	0x4e3a
 7128 207e 00       		.byte	0
 7129 207f 19       		.uleb128 0x19
 7130 2080 F10F0000 		.4byte	.LASF43
 7131 2084 08       		.byte	0x8
 7132 2085 4A       		.byte	0x4a
 7133 2086 FA3F0000 		.4byte	.LASF320
 7134 208a 01       		.byte	0x1
 7135 208b 93200000 		.4byte	0x2093
 7136 208f 9E200000 		.4byte	0x209e
 7137 2093 10       		.uleb128 0x10
 7138 2094 004E0000 		.4byte	0x4e00
 7139 2098 0D       		.uleb128 0xd
 7140 2099 3A4E0000 		.4byte	0x4e3a
 7141 209d 00       		.byte	0
 7142 209e 18       		.uleb128 0x18
 7143 209f 235D0000 		.4byte	.LASF321
 7144 20a3 08       		.byte	0x8
 7145 20a4 4B       		.byte	0x4b
 7146 20a5 71350000 		.4byte	.LASF322
 7147 20a9 9D470000 		.4byte	0x479d
 7148 20ad 01       		.byte	0x1
 7149 20ae B6200000 		.4byte	0x20b6
 7150 20b2 C6200000 		.4byte	0x20c6
 7151 20b6 10       		.uleb128 0x10
 7152 20b7 004E0000 		.4byte	0x4e00
 7153 20bb 0D       		.uleb128 0xd
 7154 20bc 3A4E0000 		.4byte	0x4e3a
 7155 20c0 0D       		.uleb128 0xd
 7156 20c1 C54C0000 		.4byte	0x4cc5
 7157 20c5 00       		.byte	0
 7158 20c6 18       		.uleb128 0x18
 7159 20c7 991A0000 		.4byte	.LASF323
 7160 20cb 08       		.byte	0x8
 7161 20cc 4C       		.byte	0x4c
 7162 20cd 44230000 		.4byte	.LASF324
 7163 20d1 9D470000 		.4byte	0x479d
 7164 20d5 01       		.byte	0x1
 7165 20d6 DE200000 		.4byte	0x20de
 7166 20da EE200000 		.4byte	0x20ee
 7167 20de 10       		.uleb128 0x10
 7168 20df 004E0000 		.4byte	0x4e00
 7169 20e3 0D       		.uleb128 0xd
 7170 20e4 3A4E0000 		.4byte	0x4e3a
 7171 20e8 0D       		.uleb128 0xd
 7172 20e9 C54C0000 		.4byte	0x4cc5
 7173 20ed 00       		.byte	0
 7174 20ee 18       		.uleb128 0x18
 7175 20ef AA040000 		.4byte	.LASF325
 7176 20f3 08       		.byte	0x8
 7177 20f4 4D       		.byte	0x4d
 7178 20f5 80600000 		.4byte	.LASF326
 7179 20f9 9D470000 		.4byte	0x479d
 7180 20fd 01       		.byte	0x1
 7181 20fe 06210000 		.4byte	0x2106
 7182 2102 16210000 		.4byte	0x2116
ARM GAS  /tmp/cc9AvIGf.s 			page 128


 7183 2106 10       		.uleb128 0x10
 7184 2107 004E0000 		.4byte	0x4e00
 7185 210b 0D       		.uleb128 0xd
 7186 210c 404E0000 		.4byte	0x4e40
 7187 2110 0D       		.uleb128 0xd
 7188 2111 C54C0000 		.4byte	0x4cc5
 7189 2115 00       		.byte	0
 7190 2116 19       		.uleb128 0x19
 7191 2117 EE070000 		.4byte	.LASF327
 7192 211b 08       		.byte	0x8
 7193 211c 4E       		.byte	0x4e
 7194 211d A9480000 		.4byte	.LASF328
 7195 2121 01       		.byte	0x1
 7196 2122 2A210000 		.4byte	0x212a
 7197 2126 3A210000 		.4byte	0x213a
 7198 212a 10       		.uleb128 0x10
 7199 212b 004E0000 		.4byte	0x4e00
 7200 212f 0D       		.uleb128 0xd
 7201 2130 344E0000 		.4byte	0x4e34
 7202 2134 0D       		.uleb128 0xd
 7203 2135 2C000000 		.4byte	0x2c
 7204 2139 00       		.byte	0
 7205 213a 19       		.uleb128 0x19
 7206 213b 9A480000 		.4byte	.LASF329
 7207 213f 08       		.byte	0x8
 7208 2140 50       		.byte	0x50
 7209 2141 F40A0000 		.4byte	.LASF330
 7210 2145 01       		.byte	0x1
 7211 2146 4E210000 		.4byte	0x214e
 7212 214a 5E210000 		.4byte	0x215e
 7213 214e 10       		.uleb128 0x10
 7214 214f 004E0000 		.4byte	0x4e00
 7215 2153 0D       		.uleb128 0xd
 7216 2154 464E0000 		.4byte	0x4e46
 7217 2158 0D       		.uleb128 0xd
 7218 2159 C54C0000 		.4byte	0x4cc5
 7219 215d 00       		.byte	0
 7220 215e 19       		.uleb128 0x19
 7221 215f 9A480000 		.4byte	.LASF329
 7222 2163 08       		.byte	0x8
 7223 2164 51       		.byte	0x51
 7224 2165 E6010000 		.4byte	.LASF331
 7225 2169 01       		.byte	0x1
 7226 216a 72210000 		.4byte	0x2172
 7227 216e 82210000 		.4byte	0x2182
 7228 2172 10       		.uleb128 0x10
 7229 2173 004E0000 		.4byte	0x4e00
 7230 2177 0D       		.uleb128 0xd
 7231 2178 4C4E0000 		.4byte	0x4e4c
 7232 217c 0D       		.uleb128 0xd
 7233 217d C54C0000 		.4byte	0x4cc5
 7234 2181 00       		.byte	0
 7235 2182 19       		.uleb128 0x19
 7236 2183 76600000 		.4byte	.LASF332
 7237 2187 08       		.byte	0x8
 7238 2188 52       		.byte	0x52
 7239 2189 00000000 		.4byte	.LASF333
ARM GAS  /tmp/cc9AvIGf.s 			page 129


 7240 218d 01       		.byte	0x1
 7241 218e 96210000 		.4byte	0x2196
 7242 2192 A6210000 		.4byte	0x21a6
 7243 2196 10       		.uleb128 0x10
 7244 2197 004E0000 		.4byte	0x4e00
 7245 219b 0D       		.uleb128 0xd
 7246 219c 524E0000 		.4byte	0x4e52
 7247 21a0 0D       		.uleb128 0xd
 7248 21a1 2C000000 		.4byte	0x2c
 7249 21a5 00       		.byte	0
 7250 21a6 19       		.uleb128 0x19
 7251 21a7 76600000 		.4byte	.LASF332
 7252 21ab 08       		.byte	0x8
 7253 21ac 53       		.byte	0x53
 7254 21ad 34490000 		.4byte	.LASF334
 7255 21b1 01       		.byte	0x1
 7256 21b2 BA210000 		.4byte	0x21ba
 7257 21b6 CA210000 		.4byte	0x21ca
 7258 21ba 10       		.uleb128 0x10
 7259 21bb 004E0000 		.4byte	0x4e00
 7260 21bf 0D       		.uleb128 0xd
 7261 21c0 584E0000 		.4byte	0x4e58
 7262 21c4 0D       		.uleb128 0xd
 7263 21c5 2C000000 		.4byte	0x2c
 7264 21c9 00       		.byte	0
 7265 21ca 2D       		.uleb128 0x2d
 7266 21cb 633B0000 		.4byte	.LASF335
 7267 21cf 08       		.byte	0x8
 7268 21d0 56       		.byte	0x56
 7269 21d1 CF4E0000 		.4byte	.LASF358
 7270 21d5 DD210000 		.4byte	0x21dd
 7271 21d9 ED210000 		.4byte	0x21ed
 7272 21dd 10       		.uleb128 0x10
 7273 21de 2E4E0000 		.4byte	0x4e2e
 7274 21e2 0D       		.uleb128 0xd
 7275 21e3 3A4E0000 		.4byte	0x4e3a
 7276 21e7 0D       		.uleb128 0xd
 7277 21e8 5E4E0000 		.4byte	0x4e5e
 7278 21ec 00       		.byte	0
 7279 21ed 11       		.uleb128 0x11
 7280 21ee 771A0000 		.4byte	.LASF264
 7281 21f2 08       		.byte	0x8
 7282 21f3 59       		.byte	0x59
 7283 21f4 004E0000 		.4byte	0x4e00
 7284 21f8 01       		.byte	0x1
 7285 21f9 01220000 		.4byte	0x2201
 7286 21fd 16220000 		.4byte	0x2216
 7287 2201 10       		.uleb128 0x10
 7288 2202 004E0000 		.4byte	0x4e00
 7289 2206 0D       		.uleb128 0xd
 7290 2207 C3000000 		.4byte	0xc3
 7291 220b 0D       		.uleb128 0xd
 7292 220c 2C000000 		.4byte	0x2c
 7293 2210 0D       		.uleb128 0xd
 7294 2211 9D470000 		.4byte	0x479d
 7295 2215 00       		.byte	0
 7296 2216 2E       		.uleb128 0x2e
ARM GAS  /tmp/cc9AvIGf.s 			page 130


 7297 2217 034D0000 		.4byte	.LASF336
 7298 221b 08       		.byte	0x8
 7299 221c 5D       		.byte	0x5d
 7300 221d A2210000 		.4byte	.LASF337
 7301 2221 9D470000 		.4byte	0x479d
 7302 2225 01       		.byte	0x1
 7303 2226 35220000 		.4byte	0x2235
 7304 222a 0D       		.uleb128 0xd
 7305 222b C84D0000 		.4byte	0x4dc8
 7306 222f 0D       		.uleb128 0xd
 7307 2230 C3000000 		.4byte	0xc3
 7308 2234 00       		.byte	0
 7309 2235 27       		.uleb128 0x27
 7310 2236 94340000 		.4byte	.LASF338
 7311 223a 08       		.byte	0x8
 7312 223b 0601     		.2byte	0x106
 7313 223d 3A130000 		.4byte	.LASF339
 7314 2241 9D470000 		.4byte	0x479d
 7315 2245 01       		.byte	0x1
 7316 2246 57220000 		.4byte	0x2257
 7317 224a 62220000 		.4byte	0x2262
 7318 224e 2B       		.uleb128 0x2b
 7319 224f 62110000 		.4byte	.LASF340
 7320 2253 91220000 		.4byte	0x2291
 7321 2257 10       		.uleb128 0x10
 7322 2258 004E0000 		.4byte	0x4e00
 7323 225c 0D       		.uleb128 0xd
 7324 225d E04E0000 		.4byte	0x4ee0
 7325 2261 00       		.byte	0
 7326 2262 2F       		.uleb128 0x2f
 7327 2263 971F0000 		.4byte	.LASF341
 7328 2267 08       		.byte	0x8
 7329 2268 3101     		.2byte	0x131
 7330 226a C7270000 		.4byte	.LASF342
 7331 226e 9D470000 		.4byte	0x479d
 7332 2272 01       		.byte	0x1
 7333 2273 80220000 		.4byte	0x2280
 7334 2277 2B       		.uleb128 0x2b
 7335 2278 62110000 		.4byte	.LASF340
 7336 227c 91220000 		.4byte	0x2291
 7337 2280 10       		.uleb128 0x10
 7338 2281 004E0000 		.4byte	0x4e00
 7339 2285 0D       		.uleb128 0xd
 7340 2286 E04E0000 		.4byte	0x4ee0
 7341 228a 00       		.byte	0
 7342 228b 00       		.byte	0
 7343 228c 07       		.uleb128 0x7
 7344 228d F0170000 		.4byte	0x17f0
 7345 2291 0E       		.uleb128 0xe
 7346 2292 524A0000 		.4byte	.LASF343
 7347 2296 02       		.byte	0x2
 7348 2297 06       		.byte	0x6
 7349 2298 14       		.byte	0x14
 7350 2299 FC230000 		.4byte	0x23fc
 7351 229d 17       		.uleb128 0x17
 7352 229e 8B080000 		.4byte	.LASF344
 7353 22a2 06       		.byte	0x6
ARM GAS  /tmp/cc9AvIGf.s 			page 131


 7354 22a3 16       		.byte	0x16
 7355 22a4 71470000 		.4byte	0x4771
 7356 22a8 01       		.byte	0x1
 7357 22a9 16       		.uleb128 0x16
 7358 22aa 09280000 		.4byte	.LASF345
 7359 22ae 06       		.byte	0x6
 7360 22af 1D       		.byte	0x1d
 7361 22b0 9D220000 		.4byte	0x229d
 7362 22b4 00       		.byte	0
 7363 22b5 18       		.uleb128 0x18
 7364 22b6 4A040000 		.4byte	.LASF346
 7365 22ba 06       		.byte	0x6
 7366 22bb 20       		.byte	0x20
 7367 22bc 8F0E0000 		.4byte	.LASF347
 7368 22c0 764C0000 		.4byte	0x4c76
 7369 22c4 01       		.byte	0x1
 7370 22c5 CD220000 		.4byte	0x22cd
 7371 22c9 D3220000 		.4byte	0x22d3
 7372 22cd 10       		.uleb128 0x10
 7373 22ce 644E0000 		.4byte	0x4e64
 7374 22d2 00       		.byte	0
 7375 22d3 19       		.uleb128 0x19
 7376 22d4 384D0000 		.4byte	.LASF348
 7377 22d8 06       		.byte	0x6
 7378 22d9 26       		.byte	0x26
 7379 22da 15180000 		.4byte	.LASF349
 7380 22de 01       		.byte	0x1
 7381 22df E7220000 		.4byte	0x22e7
 7382 22e3 ED220000 		.4byte	0x22ed
 7383 22e7 10       		.uleb128 0x10
 7384 22e8 344E0000 		.4byte	0x4e34
 7385 22ec 00       		.byte	0
 7386 22ed 18       		.uleb128 0x18
 7387 22ee 80270000 		.4byte	.LASF306
 7388 22f2 06       		.byte	0x6
 7389 22f3 27       		.byte	0x27
 7390 22f4 CF2C0000 		.4byte	.LASF350
 7391 22f8 9D470000 		.4byte	0x479d
 7392 22fc 01       		.byte	0x1
 7393 22fd 05230000 		.4byte	0x2305
 7394 2301 0B230000 		.4byte	0x230b
 7395 2305 10       		.uleb128 0x10
 7396 2306 344E0000 		.4byte	0x4e34
 7397 230a 00       		.byte	0
 7398 230b 19       		.uleb128 0x19
 7399 230c 0D320000 		.4byte	.LASF351
 7400 2310 06       		.byte	0x6
 7401 2311 28       		.byte	0x28
 7402 2312 4F020000 		.4byte	.LASF352
 7403 2316 01       		.byte	0x1
 7404 2317 1F230000 		.4byte	0x231f
 7405 231b 25230000 		.4byte	0x2325
 7406 231f 10       		.uleb128 0x10
 7407 2320 344E0000 		.4byte	0x4e34
 7408 2324 00       		.byte	0
 7409 2325 19       		.uleb128 0x19
 7410 2326 BA1F0000 		.4byte	.LASF24
ARM GAS  /tmp/cc9AvIGf.s 			page 132


 7411 232a 06       		.byte	0x6
 7412 232b 2A       		.byte	0x2a
 7413 232c 00500000 		.4byte	.LASF353
 7414 2330 01       		.byte	0x1
 7415 2331 39230000 		.4byte	0x2339
 7416 2335 3F230000 		.4byte	0x233f
 7417 2339 10       		.uleb128 0x10
 7418 233a 344E0000 		.4byte	0x4e34
 7419 233e 00       		.byte	0
 7420 233f 18       		.uleb128 0x18
 7421 2340 9E4B0000 		.4byte	.LASF25
 7422 2344 06       		.byte	0x6
 7423 2345 2B       		.byte	0x2b
 7424 2346 76090000 		.4byte	.LASF354
 7425 234a 9D470000 		.4byte	0x479d
 7426 234e 01       		.byte	0x1
 7427 234f 57230000 		.4byte	0x2357
 7428 2353 5D230000 		.4byte	0x235d
 7429 2357 10       		.uleb128 0x10
 7430 2358 344E0000 		.4byte	0x4e34
 7431 235c 00       		.byte	0
 7432 235d 19       		.uleb128 0x19
 7433 235e 1A320000 		.4byte	.LASF355
 7434 2362 06       		.byte	0x6
 7435 2363 2C       		.byte	0x2c
 7436 2364 D6320000 		.4byte	.LASF356
 7437 2368 01       		.byte	0x1
 7438 2369 71230000 		.4byte	0x2371
 7439 236d 77230000 		.4byte	0x2377
 7440 2371 10       		.uleb128 0x10
 7441 2372 344E0000 		.4byte	0x4e34
 7442 2376 00       		.byte	0
 7443 2377 11       		.uleb128 0x11
 7444 2378 524A0000 		.4byte	.LASF343
 7445 237c 06       		.byte	0x6
 7446 237d 2F       		.byte	0x2f
 7447 237e 344E0000 		.4byte	0x4e34
 7448 2382 02       		.byte	0x2
 7449 2383 8B230000 		.4byte	0x238b
 7450 2387 91230000 		.4byte	0x2391
 7451 238b 10       		.uleb128 0x10
 7452 238c 344E0000 		.4byte	0x4e34
 7453 2390 00       		.byte	0
 7454 2391 30       		.uleb128 0x30
 7455 2392 C13B0000 		.4byte	.LASF357
 7456 2396 06       		.byte	0x6
 7457 2397 32       		.byte	0x32
 7458 2398 B3370000 		.4byte	.LASF359
 7459 239c 01       		.byte	0x1
 7460 239d B1230000 		.4byte	0x23b1
 7461 23a1 0D       		.uleb128 0xd
 7462 23a2 3A4E0000 		.4byte	0x4e3a
 7463 23a6 0D       		.uleb128 0xd
 7464 23a7 404E0000 		.4byte	0x4e40
 7465 23ab 0D       		.uleb128 0xd
 7466 23ac 2C000000 		.4byte	0x2c
 7467 23b0 00       		.byte	0
ARM GAS  /tmp/cc9AvIGf.s 			page 133


 7468 23b1 2E       		.uleb128 0x2e
 7469 23b2 DF050000 		.4byte	.LASF360
 7470 23b6 06       		.byte	0x6
 7471 23b7 33       		.byte	0x33
 7472 23b8 3D200000 		.4byte	.LASF361
 7473 23bc 404E0000 		.4byte	0x4e40
 7474 23c0 01       		.byte	0x1
 7475 23c1 CB230000 		.4byte	0x23cb
 7476 23c5 0D       		.uleb128 0xd
 7477 23c6 764C0000 		.4byte	0x4c76
 7478 23ca 00       		.byte	0
 7479 23cb 2E       		.uleb128 0x2e
 7480 23cc 1E600000 		.4byte	.LASF280
 7481 23d0 06       		.byte	0x6
 7482 23d1 34       		.byte	0x34
 7483 23d2 9F010000 		.4byte	.LASF362
 7484 23d6 2C000000 		.4byte	0x2c
 7485 23da 01       		.byte	0x1
 7486 23db E5230000 		.4byte	0x23e5
 7487 23df 0D       		.uleb128 0xd
 7488 23e0 2C000000 		.4byte	0x2c
 7489 23e4 00       		.byte	0
 7490 23e5 31       		.uleb128 0x31
 7491 23e6 61580000 		.4byte	.LASF278
 7492 23ea 06       		.byte	0x6
 7493 23eb 35       		.byte	0x35
 7494 23ec 6F200000 		.4byte	.LASF363
 7495 23f0 2C000000 		.4byte	0x2c
 7496 23f4 01       		.byte	0x1
 7497 23f5 0D       		.uleb128 0xd
 7498 23f6 2C000000 		.4byte	0x2c
 7499 23fa 00       		.byte	0
 7500 23fb 00       		.byte	0
 7501 23fc 07       		.uleb128 0x7
 7502 23fd 91220000 		.4byte	0x2291
 7503 2401 25       		.uleb128 0x25
 7504 2402 22110000 		.4byte	.LASF364
 7505 2406 25       		.uleb128 0x25
 7506 2407 D6010000 		.4byte	.LASF365
 7507 240b 25       		.uleb128 0x25
 7508 240c 91420000 		.4byte	.LASF366
 7509 2410 0E       		.uleb128 0xe
 7510 2411 5E010000 		.4byte	.LASF367
 7511 2415 04       		.byte	0x4
 7512 2416 0B       		.byte	0xb
 7513 2417 0F       		.byte	0xf
 7514 2418 522A0000 		.4byte	0x2a52
 7515 241c 13       		.uleb128 0x13
 7516 241d 79010000 		.4byte	0x179
 7517 2421 00       		.byte	0
 7518 2422 1F       		.uleb128 0x1f
 7519 2423 F45A0000 		.4byte	.LASF87
 7520 2427 08       		.byte	0x8
 7521 2428 0B       		.byte	0xb
 7522 2429 11       		.byte	0x11
 7523 242a 01       		.byte	0x1
 7524 242b 62240000 		.4byte	0x2462
ARM GAS  /tmp/cc9AvIGf.s 			page 134


 7525 242f 16       		.uleb128 0x16
 7526 2430 1D2D0000 		.4byte	.LASF85
 7527 2434 0B       		.byte	0xb
 7528 2435 12       		.byte	0x12
 7529 2436 6A4E0000 		.4byte	0x4e6a
 7530 243a 00       		.byte	0
 7531 243b 16       		.uleb128 0x16
 7532 243c FB190000 		.4byte	.LASF86
 7533 2440 0B       		.byte	0xb
 7534 2441 13       		.byte	0x13
 7535 2442 DB4E0000 		.4byte	0x4edb
 7536 2446 04       		.byte	0x4
 7537 2447 20       		.uleb128 0x20
 7538 2448 F45A0000 		.4byte	.LASF87
 7539 244c 0B       		.byte	0xb
 7540 244d 15       		.byte	0x15
 7541 244e 6A4E0000 		.4byte	0x4e6a
 7542 2452 56240000 		.4byte	0x2456
 7543 2456 10       		.uleb128 0x10
 7544 2457 6A4E0000 		.4byte	0x4e6a
 7545 245b 0D       		.uleb128 0xd
 7546 245c 464E0000 		.4byte	0x4e46
 7547 2460 00       		.byte	0
 7548 2461 00       		.byte	0
 7549 2462 21       		.uleb128 0x21
 7550 2463 34130000 		.4byte	.LASF88
 7551 2467 0B       		.byte	0xb
 7552 2468 8A01     		.2byte	0x18a
 7553 246a 6A4E0000 		.4byte	0x4e6a
 7554 246e 00       		.byte	0
 7555 246f 22       		.uleb128 0x22
 7556 2470 2B280000 		.4byte	.LASF368
 7557 2474 25       		.uleb128 0x25
 7558 2475 AB1F0000 		.4byte	.LASF89
 7559 2479 25       		.uleb128 0x25
 7560 247a A82E0000 		.4byte	.LASF179
 7561 247e 25       		.uleb128 0x25
 7562 247f 0E530000 		.4byte	.LASF105
 7563 2483 15       		.uleb128 0x15
 7564 2484 2A3F0000 		.4byte	.LASF114
 7565 2488 04       		.byte	0x4
 7566 2489 0B       		.byte	0xb
 7567 248a C0       		.byte	0xc0
 7568 248b 01       		.byte	0x1
 7569 248c F3250000 		.4byte	0x25f3
 7570 2490 16       		.uleb128 0x16
 7571 2491 A9140000 		.4byte	.LASF90
 7572 2495 0B       		.byte	0xb
 7573 2496 C4       		.byte	0xc4
 7574 2497 B7500000 		.4byte	0x50b7
 7575 249b 00       		.byte	0
 7576 249c 11       		.uleb128 0x11
 7577 249d 2A3F0000 		.4byte	.LASF114
 7578 24a1 0B       		.byte	0xb
 7579 24a2 C7       		.byte	0xc7
 7580 24a3 BD500000 		.4byte	0x50bd
 7581 24a7 01       		.byte	0x1
ARM GAS  /tmp/cc9AvIGf.s 			page 135


 7582 24a8 B0240000 		.4byte	0x24b0
 7583 24ac B6240000 		.4byte	0x24b6
 7584 24b0 10       		.uleb128 0x10
 7585 24b1 BD500000 		.4byte	0x50bd
 7586 24b5 00       		.byte	0
 7587 24b6 11       		.uleb128 0x11
 7588 24b7 2A3F0000 		.4byte	.LASF114
 7589 24bb 0B       		.byte	0xb
 7590 24bc C8       		.byte	0xc8
 7591 24bd BD500000 		.4byte	0x50bd
 7592 24c1 01       		.byte	0x1
 7593 24c2 CA240000 		.4byte	0x24ca
 7594 24c6 D5240000 		.4byte	0x24d5
 7595 24ca 10       		.uleb128 0x10
 7596 24cb BD500000 		.4byte	0x50bd
 7597 24cf 0D       		.uleb128 0xd
 7598 24d0 C3500000 		.4byte	0x50c3
 7599 24d4 00       		.byte	0
 7600 24d5 0F       		.uleb128 0xf
 7601 24d6 2A3F0000 		.4byte	.LASF114
 7602 24da 0B       		.byte	0xb
 7603 24db CB       		.byte	0xcb
 7604 24dc BD500000 		.4byte	0x50bd
 7605 24e0 E8240000 		.4byte	0x24e8
 7606 24e4 F3240000 		.4byte	0x24f3
 7607 24e8 10       		.uleb128 0x10
 7608 24e9 BD500000 		.4byte	0x50bd
 7609 24ed 0D       		.uleb128 0xd
 7610 24ee B7500000 		.4byte	0x50b7
 7611 24f2 00       		.byte	0
 7612 24f3 23       		.uleb128 0x23
 7613 24f4 FD130000 		.4byte	.LASF72
 7614 24f8 0B       		.byte	0xb
 7615 24f9 CE       		.byte	0xce
 7616 24fa 3B4F0000 		.4byte	.LASF369
 7617 24fe D54E0000 		.4byte	0x4ed5
 7618 2502 0A250000 		.4byte	0x250a
 7619 2506 15250000 		.4byte	0x2515
 7620 250a 10       		.uleb128 0x10
 7621 250b BD500000 		.4byte	0x50bd
 7622 250f 0D       		.uleb128 0xd
 7623 2510 C3500000 		.4byte	0x50c3
 7624 2514 00       		.byte	0
 7625 2515 18       		.uleb128 0x18
 7626 2516 AC440000 		.4byte	.LASF92
 7627 251a 0B       		.byte	0xb
 7628 251b D4       		.byte	0xd4
 7629 251c 7E4D0000 		.4byte	.LASF370
 7630 2520 C9500000 		.4byte	0x50c9
 7631 2524 01       		.byte	0x1
 7632 2525 2D250000 		.4byte	0x252d
 7633 2529 33250000 		.4byte	0x2533
 7634 252d 10       		.uleb128 0x10
 7635 252e CF500000 		.4byte	0x50cf
 7636 2532 00       		.byte	0
 7637 2533 18       		.uleb128 0x18
 7638 2534 B8130000 		.4byte	.LASF94
ARM GAS  /tmp/cc9AvIGf.s 			page 136


 7639 2538 0B       		.byte	0xb
 7640 2539 D8       		.byte	0xd8
 7641 253a F3330000 		.4byte	.LASF371
 7642 253e 854E0000 		.4byte	0x4e85
 7643 2542 01       		.byte	0x1
 7644 2543 4B250000 		.4byte	0x254b
 7645 2547 51250000 		.4byte	0x2551
 7646 254b 10       		.uleb128 0x10
 7647 254c CF500000 		.4byte	0x50cf
 7648 2550 00       		.byte	0
 7649 2551 18       		.uleb128 0x18
 7650 2552 86420000 		.4byte	.LASF96
 7651 2556 0B       		.byte	0xb
 7652 2557 DC       		.byte	0xdc
 7653 2558 8F510000 		.4byte	.LASF372
 7654 255c D54E0000 		.4byte	0x4ed5
 7655 2560 01       		.byte	0x1
 7656 2561 69250000 		.4byte	0x2569
 7657 2565 6F250000 		.4byte	0x256f
 7658 2569 10       		.uleb128 0x10
 7659 256a BD500000 		.4byte	0x50bd
 7660 256e 00       		.byte	0
 7661 256f 18       		.uleb128 0x18
 7662 2570 86420000 		.4byte	.LASF96
 7663 2574 0B       		.byte	0xb
 7664 2575 E3       		.byte	0xe3
 7665 2576 19510000 		.4byte	.LASF373
 7666 257a E4290000 		.4byte	0x29e4
 7667 257e 01       		.byte	0x1
 7668 257f 87250000 		.4byte	0x2587
 7669 2583 92250000 		.4byte	0x2592
 7670 2587 10       		.uleb128 0x10
 7671 2588 BD500000 		.4byte	0x50bd
 7672 258c 0D       		.uleb128 0xd
 7673 258d 25000000 		.4byte	0x25
 7674 2591 00       		.byte	0
 7675 2592 18       		.uleb128 0x18
 7676 2593 31620000 		.4byte	.LASF99
 7677 2597 0B       		.byte	0xb
 7678 2598 EB       		.byte	0xeb
 7679 2599 4C5A0000 		.4byte	.LASF374
 7680 259d 9D470000 		.4byte	0x479d
 7681 25a1 01       		.byte	0x1
 7682 25a2 AA250000 		.4byte	0x25aa
 7683 25a6 B5250000 		.4byte	0x25b5
 7684 25aa 10       		.uleb128 0x10
 7685 25ab CF500000 		.4byte	0x50cf
 7686 25af 0D       		.uleb128 0xd
 7687 25b0 C3500000 		.4byte	0x50c3
 7688 25b4 00       		.byte	0
 7689 25b5 18       		.uleb128 0x18
 7690 25b6 67300000 		.4byte	.LASF101
 7691 25ba 0B       		.byte	0xb
 7692 25bb EF       		.byte	0xef
 7693 25bc B61B0000 		.4byte	.LASF375
 7694 25c0 9D470000 		.4byte	0x479d
 7695 25c4 01       		.byte	0x1
ARM GAS  /tmp/cc9AvIGf.s 			page 137


 7696 25c5 CD250000 		.4byte	0x25cd
 7697 25c9 D8250000 		.4byte	0x25d8
 7698 25cd 10       		.uleb128 0x10
 7699 25ce CF500000 		.4byte	0x50cf
 7700 25d2 0D       		.uleb128 0xd
 7701 25d3 C3500000 		.4byte	0x50c3
 7702 25d7 00       		.byte	0
 7703 25d8 24       		.uleb128 0x24
 7704 25d9 14430000 		.4byte	.LASF103
 7705 25dd 0B       		.byte	0xb
 7706 25de F3       		.byte	0xf3
 7707 25df 4A5D0000 		.4byte	.LASF376
 7708 25e3 9D470000 		.4byte	0x479d
 7709 25e7 01       		.byte	0x1
 7710 25e8 EC250000 		.4byte	0x25ec
 7711 25ec 10       		.uleb128 0x10
 7712 25ed CF500000 		.4byte	0x50cf
 7713 25f1 00       		.byte	0
 7714 25f2 00       		.byte	0
 7715 25f3 26       		.uleb128 0x26
 7716 25f4 011A0000 		.4byte	.LASF123
 7717 25f8 0B       		.byte	0xb
 7718 25f9 8601     		.2byte	0x186
 7719 25fb 704E0000 		.4byte	0x4e70
 7720 25ff 26       		.uleb128 0x26
 7721 2600 AE120000 		.4byte	.LASF124
 7722 2604 0B       		.byte	0xb
 7723 2605 8701     		.2byte	0x187
 7724 2607 8B4E0000 		.4byte	0x4e8b
 7725 260b 27       		.uleb128 0x27
 7726 260c 8A640000 		.4byte	.LASF125
 7727 2610 0B       		.byte	0xb
 7728 2611 8D01     		.2byte	0x18d
 7729 2613 91380000 		.4byte	.LASF377
 7730 2617 A54E0000 		.4byte	0x4ea5
 7731 261b 01       		.byte	0x1
 7732 261c 24260000 		.4byte	0x2624
 7733 2620 2A260000 		.4byte	0x262a
 7734 2624 10       		.uleb128 0x10
 7735 2625 AB4E0000 		.4byte	0x4eab
 7736 2629 00       		.byte	0
 7737 262a 07       		.uleb128 0x7
 7738 262b 22240000 		.4byte	0x2422
 7739 262f 27       		.uleb128 0x27
 7740 2630 845F0000 		.4byte	.LASF126
 7741 2634 0B       		.byte	0xb
 7742 2635 9101     		.2byte	0x191
 7743 2637 644C0000 		.4byte	.LASF378
 7744 263b 9D470000 		.4byte	0x479d
 7745 263f 01       		.byte	0x1
 7746 2640 48260000 		.4byte	0x2648
 7747 2644 4E260000 		.4byte	0x264e
 7748 2648 10       		.uleb128 0x10
 7749 2649 AB4E0000 		.4byte	0x4eab
 7750 264d 00       		.byte	0
 7751 264e 27       		.uleb128 0x27
 7752 264f FF1E0000 		.4byte	.LASF129
ARM GAS  /tmp/cc9AvIGf.s 			page 138


 7753 2653 0B       		.byte	0xb
 7754 2654 0302     		.2byte	0x203
 7755 2656 1E450000 		.4byte	.LASF379
 7756 265a 2C000000 		.4byte	0x2c
 7757 265e 01       		.byte	0x1
 7758 265f 67260000 		.4byte	0x2667
 7759 2663 6D260000 		.4byte	0x266d
 7760 2667 10       		.uleb128 0x10
 7761 2668 AB4E0000 		.4byte	0x4eab
 7762 266c 00       		.byte	0
 7763 266d 28       		.uleb128 0x28
 7764 266e D3480000 		.4byte	.LASF131
 7765 2672 0B       		.byte	0xb
 7766 2673 9701     		.2byte	0x197
 7767 2675 59290000 		.4byte	.LASF380
 7768 2679 01       		.byte	0x1
 7769 267a 82260000 		.4byte	0x2682
 7770 267e 8D260000 		.4byte	0x268d
 7771 2682 10       		.uleb128 0x10
 7772 2683 B14E0000 		.4byte	0x4eb1
 7773 2687 0D       		.uleb128 0xd
 7774 2688 B74E0000 		.4byte	0x4eb7
 7775 268c 00       		.byte	0
 7776 268d 28       		.uleb128 0x28
 7777 268e 38520000 		.4byte	.LASF132
 7778 2692 0B       		.byte	0xb
 7779 2693 9F01     		.2byte	0x19f
 7780 2695 230C0000 		.4byte	.LASF381
 7781 2699 01       		.byte	0x1
 7782 269a A2260000 		.4byte	0x26a2
 7783 269e AD260000 		.4byte	0x26ad
 7784 26a2 10       		.uleb128 0x10
 7785 26a3 B14E0000 		.4byte	0x4eb1
 7786 26a7 0D       		.uleb128 0xd
 7787 26a8 B74E0000 		.4byte	0x4eb7
 7788 26ac 00       		.byte	0
 7789 26ad 27       		.uleb128 0x27
 7790 26ae DD280000 		.4byte	.LASF135
 7791 26b2 0B       		.byte	0xb
 7792 26b3 0E02     		.2byte	0x20e
 7793 26b5 C2210000 		.4byte	.LASF382
 7794 26b9 9D470000 		.4byte	0x479d
 7795 26bd 01       		.byte	0x1
 7796 26be C6260000 		.4byte	0x26c6
 7797 26c2 D1260000 		.4byte	0x26d1
 7798 26c6 10       		.uleb128 0x10
 7799 26c7 B14E0000 		.4byte	0x4eb1
 7800 26cb 0D       		.uleb128 0xd
 7801 26cc B74E0000 		.4byte	0x4eb7
 7802 26d0 00       		.byte	0
 7803 26d1 27       		.uleb128 0x27
 7804 26d2 11380000 		.4byte	.LASF137
 7805 26d6 0B       		.byte	0xb
 7806 26d7 1F02     		.2byte	0x21f
 7807 26d9 31400000 		.4byte	.LASF383
 7808 26dd 25000000 		.4byte	0x25
 7809 26e1 01       		.byte	0x1
ARM GAS  /tmp/cc9AvIGf.s 			page 139


 7810 26e2 EA260000 		.4byte	0x26ea
 7811 26e6 F5260000 		.4byte	0x26f5
 7812 26ea 10       		.uleb128 0x10
 7813 26eb AB4E0000 		.4byte	0x4eab
 7814 26ef 0D       		.uleb128 0xd
 7815 26f0 854E0000 		.4byte	0x4e85
 7816 26f4 00       		.byte	0
 7817 26f5 27       		.uleb128 0x27
 7818 26f6 374E0000 		.4byte	.LASF139
 7819 26fa 0B       		.byte	0xb
 7820 26fb 2C02     		.2byte	0x22c
 7821 26fd 1B150000 		.4byte	.LASF384
 7822 2701 9D470000 		.4byte	0x479d
 7823 2705 01       		.byte	0x1
 7824 2706 0E270000 		.4byte	0x270e
 7825 270a 19270000 		.4byte	0x2719
 7826 270e 10       		.uleb128 0x10
 7827 270f AB4E0000 		.4byte	0x4eab
 7828 2713 0D       		.uleb128 0xd
 7829 2714 854E0000 		.4byte	0x4e85
 7830 2718 00       		.byte	0
 7831 2719 27       		.uleb128 0x27
 7832 271a E1330000 		.4byte	.LASF141
 7833 271e 0B       		.byte	0xb
 7834 271f 3802     		.2byte	0x238
 7835 2721 CC420000 		.4byte	.LASF385
 7836 2725 BD4E0000 		.4byte	0x4ebd
 7837 2729 01       		.byte	0x1
 7838 272a 32270000 		.4byte	0x2732
 7839 272e 3D270000 		.4byte	0x273d
 7840 2732 10       		.uleb128 0x10
 7841 2733 AB4E0000 		.4byte	0x4eab
 7842 2737 0D       		.uleb128 0xd
 7843 2738 F3250000 		.4byte	0x25f3
 7844 273c 00       		.byte	0
 7845 273d 27       		.uleb128 0x27
 7846 273e E1330000 		.4byte	.LASF141
 7847 2742 0B       		.byte	0xb
 7848 2743 4402     		.2byte	0x244
 7849 2745 9A1D0000 		.4byte	.LASF386
 7850 2749 BD4E0000 		.4byte	0x4ebd
 7851 274d 01       		.byte	0x1
 7852 274e 56270000 		.4byte	0x2756
 7853 2752 66270000 		.4byte	0x2766
 7854 2756 10       		.uleb128 0x10
 7855 2757 AB4E0000 		.4byte	0x4eab
 7856 275b 0D       		.uleb128 0xd
 7857 275c FF250000 		.4byte	0x25ff
 7858 2760 0D       		.uleb128 0xd
 7859 2761 A54C0000 		.4byte	0x4ca5
 7860 2765 00       		.byte	0
 7861 2766 27       		.uleb128 0x27
 7862 2767 C20F0000 		.4byte	.LASF144
 7863 276b 0B       		.byte	0xb
 7864 276c B301     		.2byte	0x1b3
 7865 276e 0E240000 		.4byte	.LASF387
 7866 2772 85270000 		.4byte	0x2785
ARM GAS  /tmp/cc9AvIGf.s 			page 140


 7867 2776 01       		.byte	0x1
 7868 2777 7F270000 		.4byte	0x277f
 7869 277b 85270000 		.4byte	0x2785
 7870 277f 10       		.uleb128 0x10
 7871 2780 B14E0000 		.4byte	0x4eb1
 7872 2784 00       		.byte	0
 7873 2785 07       		.uleb128 0x7
 7874 2786 74240000 		.4byte	0x2474
 7875 278a 27       		.uleb128 0x27
 7876 278b 72300000 		.4byte	.LASF146
 7877 278f 0B       		.byte	0xb
 7878 2790 B701     		.2byte	0x1b7
 7879 2792 8A0F0000 		.4byte	.LASF388
 7880 2796 85270000 		.4byte	0x2785
 7881 279a 01       		.byte	0x1
 7882 279b A3270000 		.4byte	0x27a3
 7883 279f A9270000 		.4byte	0x27a9
 7884 27a3 10       		.uleb128 0x10
 7885 27a4 B14E0000 		.4byte	0x4eb1
 7886 27a8 00       		.byte	0
 7887 27a9 28       		.uleb128 0x28
 7888 27aa C4640000 		.4byte	.LASF148
 7889 27ae 0B       		.byte	0xb
 7890 27af BB01     		.2byte	0x1bb
 7891 27b1 35420000 		.4byte	.LASF389
 7892 27b5 01       		.byte	0x1
 7893 27b6 BE270000 		.4byte	0x27be
 7894 27ba C9270000 		.4byte	0x27c9
 7895 27be 10       		.uleb128 0x10
 7896 27bf B14E0000 		.4byte	0x4eb1
 7897 27c3 0D       		.uleb128 0xd
 7898 27c4 C34E0000 		.4byte	0x4ec3
 7899 27c8 00       		.byte	0
 7900 27c9 27       		.uleb128 0x27
 7901 27ca C20F0000 		.4byte	.LASF144
 7902 27ce 0B       		.byte	0xb
 7903 27cf BF01     		.2byte	0x1bf
 7904 27d1 17610000 		.4byte	.LASF390
 7905 27d5 E8270000 		.4byte	0x27e8
 7906 27d9 01       		.byte	0x1
 7907 27da E2270000 		.4byte	0x27e2
 7908 27de E8270000 		.4byte	0x27e8
 7909 27e2 10       		.uleb128 0x10
 7910 27e3 AB4E0000 		.4byte	0x4eab
 7911 27e7 00       		.byte	0
 7912 27e8 07       		.uleb128 0x7
 7913 27e9 79240000 		.4byte	0x2479
 7914 27ed 27       		.uleb128 0x27
 7915 27ee 72300000 		.4byte	.LASF146
 7916 27f2 0B       		.byte	0xb
 7917 27f3 C301     		.2byte	0x1c3
 7918 27f5 84460000 		.4byte	.LASF391
 7919 27f9 E8270000 		.4byte	0x27e8
 7920 27fd 01       		.byte	0x1
 7921 27fe 06280000 		.4byte	0x2806
 7922 2802 0C280000 		.4byte	0x280c
 7923 2806 10       		.uleb128 0x10
ARM GAS  /tmp/cc9AvIGf.s 			page 141


 7924 2807 AB4E0000 		.4byte	0x4eab
 7925 280b 00       		.byte	0
 7926 280c 28       		.uleb128 0x28
 7927 280d C4640000 		.4byte	.LASF148
 7928 2811 0B       		.byte	0xb
 7929 2812 C701     		.2byte	0x1c7
 7930 2814 E8220000 		.4byte	.LASF392
 7931 2818 01       		.byte	0x1
 7932 2819 21280000 		.4byte	0x2821
 7933 281d 2C280000 		.4byte	0x282c
 7934 2821 10       		.uleb128 0x10
 7935 2822 AB4E0000 		.4byte	0x4eab
 7936 2826 0D       		.uleb128 0xd
 7937 2827 C94E0000 		.4byte	0x4ec9
 7938 282b 00       		.byte	0
 7939 282c 27       		.uleb128 0x27
 7940 282d 5D5B0000 		.4byte	.LASF153
 7941 2831 0B       		.byte	0xb
 7942 2832 5302     		.2byte	0x253
 7943 2834 CD4C0000 		.4byte	.LASF393
 7944 2838 A54E0000 		.4byte	0x4ea5
 7945 283c 01       		.byte	0x1
 7946 283d 45280000 		.4byte	0x2845
 7947 2841 4B280000 		.4byte	0x284b
 7948 2845 10       		.uleb128 0x10
 7949 2846 AB4E0000 		.4byte	0x4eab
 7950 284a 00       		.byte	0
 7951 284b 27       		.uleb128 0x27
 7952 284c 47500000 		.4byte	.LASF155
 7953 2850 0B       		.byte	0xb
 7954 2851 5D02     		.2byte	0x25d
 7955 2853 780C0000 		.4byte	.LASF394
 7956 2857 9D470000 		.4byte	0x479d
 7957 285b 01       		.byte	0x1
 7958 285c 64280000 		.4byte	0x2864
 7959 2860 6A280000 		.4byte	0x286a
 7960 2864 10       		.uleb128 0x10
 7961 2865 AB4E0000 		.4byte	0x4eab
 7962 2869 00       		.byte	0
 7963 286a 27       		.uleb128 0x27
 7964 286b 4B340000 		.4byte	.LASF157
 7965 286f 0B       		.byte	0xb
 7966 2870 6702     		.2byte	0x267
 7967 2872 B7440000 		.4byte	.LASF395
 7968 2876 2C000000 		.4byte	0x2c
 7969 287a 01       		.byte	0x1
 7970 287b 83280000 		.4byte	0x2883
 7971 287f 89280000 		.4byte	0x2889
 7972 2883 10       		.uleb128 0x10
 7973 2884 AB4E0000 		.4byte	0x4eab
 7974 2888 00       		.byte	0
 7975 2889 28       		.uleb128 0x28
 7976 288a 0C1F0000 		.4byte	.LASF159
 7977 288e 0B       		.byte	0xb
 7978 288f 7602     		.2byte	0x276
 7979 2891 72070000 		.4byte	.LASF396
 7980 2895 01       		.byte	0x1
ARM GAS  /tmp/cc9AvIGf.s 			page 142


 7981 2896 9E280000 		.4byte	0x289e
 7982 289a A9280000 		.4byte	0x28a9
 7983 289e 10       		.uleb128 0x10
 7984 289f B14E0000 		.4byte	0x4eb1
 7985 28a3 0D       		.uleb128 0xd
 7986 28a4 B74E0000 		.4byte	0x4eb7
 7987 28a8 00       		.byte	0
 7988 28a9 27       		.uleb128 0x27
 7989 28aa B1130000 		.4byte	.LASF161
 7990 28ae 0B       		.byte	0xb
 7991 28af 8002     		.2byte	0x280
 7992 28b1 F81B0000 		.4byte	.LASF397
 7993 28b5 9D470000 		.4byte	0x479d
 7994 28b9 01       		.byte	0x1
 7995 28ba C2280000 		.4byte	0x28c2
 7996 28be CD280000 		.4byte	0x28cd
 7997 28c2 10       		.uleb128 0x10
 7998 28c3 B14E0000 		.4byte	0x4eb1
 7999 28c7 0D       		.uleb128 0xd
 8000 28c8 B74E0000 		.4byte	0x4eb7
 8001 28cc 00       		.byte	0
 8002 28cd 27       		.uleb128 0x27
 8003 28ce FC390000 		.4byte	.LASF163
 8004 28d2 0B       		.byte	0xb
 8005 28d3 8A02     		.2byte	0x28a
 8006 28d5 6F020000 		.4byte	.LASF398
 8007 28d9 25000000 		.4byte	0x25
 8008 28dd 01       		.byte	0x1
 8009 28de E6280000 		.4byte	0x28e6
 8010 28e2 F1280000 		.4byte	0x28f1
 8011 28e6 10       		.uleb128 0x10
 8012 28e7 AB4E0000 		.4byte	0x4eab
 8013 28eb 0D       		.uleb128 0xd
 8014 28ec 854E0000 		.4byte	0x4e85
 8015 28f0 00       		.byte	0
 8016 28f1 27       		.uleb128 0x27
 8017 28f2 76240000 		.4byte	.LASF165
 8018 28f6 0B       		.byte	0xb
 8019 28f7 9B02     		.2byte	0x29b
 8020 28f9 1F090000 		.4byte	.LASF399
 8021 28fd 9D470000 		.4byte	0x479d
 8022 2901 01       		.byte	0x1
 8023 2902 0A290000 		.4byte	0x290a
 8024 2906 15290000 		.4byte	0x2915
 8025 290a 10       		.uleb128 0x10
 8026 290b AB4E0000 		.4byte	0x4eab
 8027 290f 0D       		.uleb128 0xd
 8028 2910 854E0000 		.4byte	0x4e85
 8029 2914 00       		.byte	0
 8030 2915 27       		.uleb128 0x27
 8031 2916 0D3E0000 		.4byte	.LASF167
 8032 291a 0B       		.byte	0xb
 8033 291b AC02     		.2byte	0x2ac
 8034 291d CD520000 		.4byte	.LASF400
 8035 2921 BD4E0000 		.4byte	0x4ebd
 8036 2925 01       		.byte	0x1
 8037 2926 2E290000 		.4byte	0x292e
ARM GAS  /tmp/cc9AvIGf.s 			page 143


 8038 292a 39290000 		.4byte	0x2939
 8039 292e 10       		.uleb128 0x10
 8040 292f AB4E0000 		.4byte	0x4eab
 8041 2933 0D       		.uleb128 0xd
 8042 2934 F3250000 		.4byte	0x25f3
 8043 2938 00       		.byte	0
 8044 2939 27       		.uleb128 0x27
 8045 293a 0D3E0000 		.4byte	.LASF167
 8046 293e 0B       		.byte	0xb
 8047 293f BC02     		.2byte	0x2bc
 8048 2941 43640000 		.4byte	.LASF401
 8049 2945 BD4E0000 		.4byte	0x4ebd
 8050 2949 01       		.byte	0x1
 8051 294a 52290000 		.4byte	0x2952
 8052 294e 62290000 		.4byte	0x2962
 8053 2952 10       		.uleb128 0x10
 8054 2953 AB4E0000 		.4byte	0x4eab
 8055 2957 0D       		.uleb128 0xd
 8056 2958 FF250000 		.4byte	0x25ff
 8057 295c 0D       		.uleb128 0xd
 8058 295d A54C0000 		.4byte	0x4ca5
 8059 2961 00       		.byte	0
 8060 2962 27       		.uleb128 0x27
 8061 2963 0D640000 		.4byte	.LASF170
 8062 2967 0B       		.byte	0xb
 8063 2968 E001     		.2byte	0x1e0
 8064 296a 5D390000 		.4byte	.LASF402
 8065 296e 81290000 		.4byte	0x2981
 8066 2972 01       		.byte	0x1
 8067 2973 7B290000 		.4byte	0x297b
 8068 2977 81290000 		.4byte	0x2981
 8069 297b 10       		.uleb128 0x10
 8070 297c B14E0000 		.4byte	0x4eb1
 8071 2980 00       		.byte	0
 8072 2981 07       		.uleb128 0x7
 8073 2982 7E240000 		.4byte	0x247e
 8074 2986 29       		.uleb128 0x29
 8075 2987 656E6400 		.ascii	"end\000"
 8076 298b 0B       		.byte	0xb
 8077 298c E401     		.2byte	0x1e4
 8078 298e 89450000 		.4byte	.LASF403
 8079 2992 81290000 		.4byte	0x2981
 8080 2996 01       		.byte	0x1
 8081 2997 9F290000 		.4byte	0x299f
 8082 299b A5290000 		.4byte	0x29a5
 8083 299f 10       		.uleb128 0x10
 8084 29a0 B14E0000 		.4byte	0x4eb1
 8085 29a4 00       		.byte	0
 8086 29a5 28       		.uleb128 0x28
 8087 29a6 D7110000 		.4byte	.LASF172
 8088 29aa 0B       		.byte	0xb
 8089 29ab E801     		.2byte	0x1e8
 8090 29ad 42460000 		.4byte	.LASF404
 8091 29b1 01       		.byte	0x1
 8092 29b2 BA290000 		.4byte	0x29ba
 8093 29b6 C5290000 		.4byte	0x29c5
 8094 29ba 10       		.uleb128 0x10
ARM GAS  /tmp/cc9AvIGf.s 			page 144


 8095 29bb B14E0000 		.4byte	0x4eb1
 8096 29bf 0D       		.uleb128 0xd
 8097 29c0 CF4E0000 		.4byte	0x4ecf
 8098 29c4 00       		.byte	0
 8099 29c5 27       		.uleb128 0x27
 8100 29c6 0D640000 		.4byte	.LASF170
 8101 29ca 0B       		.byte	0xb
 8102 29cb EC01     		.2byte	0x1ec
 8103 29cd C0300000 		.4byte	.LASF405
 8104 29d1 E4290000 		.4byte	0x29e4
 8105 29d5 01       		.byte	0x1
 8106 29d6 DE290000 		.4byte	0x29de
 8107 29da E4290000 		.4byte	0x29e4
 8108 29de 10       		.uleb128 0x10
 8109 29df AB4E0000 		.4byte	0x4eab
 8110 29e3 00       		.byte	0
 8111 29e4 07       		.uleb128 0x7
 8112 29e5 83240000 		.4byte	0x2483
 8113 29e9 29       		.uleb128 0x29
 8114 29ea 656E6400 		.ascii	"end\000"
 8115 29ee 0B       		.byte	0xb
 8116 29ef F201     		.2byte	0x1f2
 8117 29f1 7C5E0000 		.4byte	.LASF406
 8118 29f5 E4290000 		.4byte	0x29e4
 8119 29f9 01       		.byte	0x1
 8120 29fa 022A0000 		.4byte	0x2a02
 8121 29fe 082A0000 		.4byte	0x2a08
 8122 2a02 10       		.uleb128 0x10
 8123 2a03 AB4E0000 		.4byte	0x4eab
 8124 2a07 00       		.byte	0
 8125 2a08 28       		.uleb128 0x28
 8126 2a09 D7110000 		.4byte	.LASF172
 8127 2a0d 0B       		.byte	0xb
 8128 2a0e F601     		.2byte	0x1f6
 8129 2a10 3B380000 		.4byte	.LASF407
 8130 2a14 01       		.byte	0x1
 8131 2a15 1D2A0000 		.4byte	0x2a1d
 8132 2a19 282A0000 		.4byte	0x2a28
 8133 2a1d 10       		.uleb128 0x10
 8134 2a1e AB4E0000 		.4byte	0x4eab
 8135 2a22 0D       		.uleb128 0xd
 8136 2a23 D54E0000 		.4byte	0x4ed5
 8137 2a27 00       		.byte	0
 8138 2a28 2A       		.uleb128 0x2a
 8139 2a29 F60F0000 		.4byte	.LASF178
 8140 2a2d 0B       		.byte	0xb
 8141 2a2e FA01     		.2byte	0x1fa
 8142 2a30 B14E0000 		.4byte	0x4eb1
 8143 2a34 01       		.byte	0x1
 8144 2a35 3D2A0000 		.4byte	0x2a3d
 8145 2a39 432A0000 		.4byte	0x2a43
 8146 2a3d 10       		.uleb128 0x10
 8147 2a3e B14E0000 		.4byte	0x4eb1
 8148 2a42 00       		.byte	0
 8149 2a43 07       		.uleb128 0x7
 8150 2a44 6F240000 		.4byte	0x246f
 8151 2a48 2B       		.uleb128 0x2b
ARM GAS  /tmp/cc9AvIGf.s 			page 145


 8152 2a49 351C0000 		.4byte	.LASF229
 8153 2a4d 01240000 		.4byte	0x2401
 8154 2a51 00       		.byte	0
 8155 2a52 07       		.uleb128 0x7
 8156 2a53 01240000 		.4byte	0x2401
 8157 2a57 07       		.uleb128 0x7
 8158 2a58 10240000 		.4byte	0x2410
 8159 2a5c 0E       		.uleb128 0xe
 8160 2a5d 73320000 		.4byte	.LASF408
 8161 2a61 4C       		.byte	0x4c
 8162 2a62 11       		.byte	0x11
 8163 2a63 0C       		.byte	0xc
 8164 2a64 162C0000 		.4byte	0x2c16
 8165 2a68 16       		.uleb128 0x16
 8166 2a69 611C0000 		.4byte	.LASF84
 8167 2a6d 11       		.byte	0x11
 8168 2a6e 0E       		.byte	0xe
 8169 2a6f FC470000 		.4byte	0x47fc
 8170 2a73 00       		.byte	0
 8171 2a74 17       		.uleb128 0x17
 8172 2a75 F5400000 		.4byte	.LASF409
 8173 2a79 11       		.byte	0x11
 8174 2a7a 1C       		.byte	0x1c
 8175 2a7b D0470000 		.4byte	0x47d0
 8176 2a7f 01       		.byte	0x1
 8177 2a80 17       		.uleb128 0x17
 8178 2a81 A7350000 		.4byte	.LASF410
 8179 2a85 11       		.byte	0x11
 8180 2a86 1D       		.byte	0x1d
 8181 2a87 564C0000 		.4byte	0x4c56
 8182 2a8b 01       		.byte	0x1
 8183 2a8c 17       		.uleb128 0x17
 8184 2a8d ED100000 		.4byte	.LASF411
 8185 2a91 11       		.byte	0x11
 8186 2a92 1E       		.byte	0x1e
 8187 2a93 DB470000 		.4byte	0x47db
 8188 2a97 01       		.byte	0x1
 8189 2a98 17       		.uleb128 0x17
 8190 2a99 AB2B0000 		.4byte	.LASF412
 8191 2a9d 11       		.byte	0x11
 8192 2a9e 1F       		.byte	0x1f
 8193 2a9f B4000000 		.4byte	0xb4
 8194 2aa3 01       		.byte	0x1
 8195 2aa4 18       		.uleb128 0x18
 8196 2aa5 B83B0000 		.4byte	.LASF274
 8197 2aa9 11       		.byte	0x11
 8198 2aaa 22       		.byte	0x22
 8199 2aab F01F0000 		.4byte	.LASF413
 8200 2aaf C3000000 		.4byte	0xc3
 8201 2ab3 01       		.byte	0x1
 8202 2ab4 BC2A0000 		.4byte	0x2abc
 8203 2ab8 C22A0000 		.4byte	0x2ac2
 8204 2abc 10       		.uleb128 0x10
 8205 2abd EB4E0000 		.4byte	0x4eeb
 8206 2ac1 00       		.byte	0
 8207 2ac2 18       		.uleb128 0x18
 8208 2ac3 E4240000 		.4byte	.LASF48
ARM GAS  /tmp/cc9AvIGf.s 			page 146


 8209 2ac7 11       		.byte	0x11
 8210 2ac8 24       		.byte	0x24
 8211 2ac9 49520000 		.4byte	.LASF414
 8212 2acd F14E0000 		.4byte	0x4ef1
 8213 2ad1 01       		.byte	0x1
 8214 2ad2 DA2A0000 		.4byte	0x2ada
 8215 2ad6 E02A0000 		.4byte	0x2ae0
 8216 2ada 10       		.uleb128 0x10
 8217 2adb F74E0000 		.4byte	0x4ef7
 8218 2adf 00       		.byte	0
 8219 2ae0 0F       		.uleb128 0xf
 8220 2ae1 73320000 		.4byte	.LASF408
 8221 2ae5 11       		.byte	0x11
 8222 2ae6 27       		.byte	0x27
 8223 2ae7 F74E0000 		.4byte	0x4ef7
 8224 2aeb F32A0000 		.4byte	0x2af3
 8225 2aef F92A0000 		.4byte	0x2af9
 8226 2af3 10       		.uleb128 0x10
 8227 2af4 F74E0000 		.4byte	0x4ef7
 8228 2af8 00       		.byte	0
 8229 2af9 2E       		.uleb128 0x2e
 8230 2afa EF180000 		.4byte	.LASF415
 8231 2afe 11       		.byte	0x11
 8232 2aff 2A       		.byte	0x2a
 8233 2b00 E1610000 		.4byte	.LASF416
 8234 2b04 2C000000 		.4byte	0x2c
 8235 2b08 01       		.byte	0x1
 8236 2b09 132B0000 		.4byte	0x2b13
 8237 2b0d 0D       		.uleb128 0xd
 8238 2b0e 2C000000 		.4byte	0x2c
 8239 2b12 00       		.byte	0
 8240 2b13 2E       		.uleb128 0x2e
 8241 2b14 30290000 		.4byte	.LASF417
 8242 2b18 11       		.byte	0x11
 8243 2b19 2B       		.byte	0x2b
 8244 2b1a 9B420000 		.4byte	.LASF418
 8245 2b1e F74E0000 		.4byte	0x4ef7
 8246 2b22 01       		.byte	0x1
 8247 2b23 462B0000 		.4byte	0x2b46
 8248 2b27 0D       		.uleb128 0xd
 8249 2b28 B4000000 		.4byte	0xb4
 8250 2b2c 0D       		.uleb128 0xd
 8251 2b2d 2C000000 		.4byte	0x2c
 8252 2b31 0D       		.uleb128 0xd
 8253 2b32 742A0000 		.4byte	0x2a74
 8254 2b36 0D       		.uleb128 0xd
 8255 2b37 802A0000 		.4byte	0x2a80
 8256 2b3b 0D       		.uleb128 0xd
 8257 2b3c B4000000 		.4byte	0xb4
 8258 2b40 0D       		.uleb128 0xd
 8259 2b41 C3000000 		.4byte	0xc3
 8260 2b45 00       		.byte	0
 8261 2b46 2E       		.uleb128 0x2e
 8262 2b47 603F0000 		.4byte	.LASF419
 8263 2b4b 11       		.byte	0x11
 8264 2b4c 2F       		.byte	0x2f
 8265 2b4d 305C0000 		.4byte	.LASF420
ARM GAS  /tmp/cc9AvIGf.s 			page 147


 8266 2b51 F74E0000 		.4byte	0x4ef7
 8267 2b55 01       		.byte	0x1
 8268 2b56 792B0000 		.4byte	0x2b79
 8269 2b5a 0D       		.uleb128 0xd
 8270 2b5b B4000000 		.4byte	0xb4
 8271 2b5f 0D       		.uleb128 0xd
 8272 2b60 2C000000 		.4byte	0x2c
 8273 2b64 0D       		.uleb128 0xd
 8274 2b65 742A0000 		.4byte	0x2a74
 8275 2b69 0D       		.uleb128 0xd
 8276 2b6a 802A0000 		.4byte	0x2a80
 8277 2b6e 0D       		.uleb128 0xd
 8278 2b6f B4000000 		.4byte	0xb4
 8279 2b73 0D       		.uleb128 0xd
 8280 2b74 C3000000 		.4byte	0xc3
 8281 2b78 00       		.byte	0
 8282 2b79 2E       		.uleb128 0x2e
 8283 2b7a D23B0000 		.4byte	.LASF421
 8284 2b7e 11       		.byte	0x11
 8285 2b7f 32       		.byte	0x32
 8286 2b80 122F0000 		.4byte	.LASF422
 8287 2b84 F74E0000 		.4byte	0x4ef7
 8288 2b88 01       		.byte	0x1
 8289 2b89 A72B0000 		.4byte	0x2ba7
 8290 2b8d 0D       		.uleb128 0xd
 8291 2b8e FD4E0000 		.4byte	0x4efd
 8292 2b92 0D       		.uleb128 0xd
 8293 2b93 742A0000 		.4byte	0x2a74
 8294 2b97 0D       		.uleb128 0xd
 8295 2b98 802A0000 		.4byte	0x2a80
 8296 2b9c 0D       		.uleb128 0xd
 8297 2b9d B4000000 		.4byte	0xb4
 8298 2ba1 0D       		.uleb128 0xd
 8299 2ba2 C3000000 		.4byte	0xc3
 8300 2ba6 00       		.byte	0
 8301 2ba7 32       		.uleb128 0x32
 8302 2ba8 41470000 		.4byte	.LASF423
 8303 2bac 11       		.byte	0x11
 8304 2bad 35       		.byte	0x35
 8305 2bae 06080000 		.4byte	.LASF425
 8306 2bb2 034F0000 		.4byte	0x4f03
 8307 2bb6 01       		.byte	0x1
 8308 2bb7 32       		.uleb128 0x32
 8309 2bb8 94440000 		.4byte	.LASF424
 8310 2bbc 11       		.byte	0x11
 8311 2bbd 36       		.byte	0x36
 8312 2bbe B2430000 		.4byte	.LASF426
 8313 2bc2 742A0000 		.4byte	0x2a74
 8314 2bc6 01       		.byte	0x1
 8315 2bc7 30       		.uleb128 0x30
 8316 2bc8 6B0C0000 		.4byte	.LASF427
 8317 2bcc 11       		.byte	0x11
 8318 2bcd 37       		.byte	0x37
 8319 2bce D9230000 		.4byte	.LASF428
 8320 2bd2 01       		.byte	0x1
 8321 2bd3 DD2B0000 		.4byte	0x2bdd
 8322 2bd7 0D       		.uleb128 0xd
ARM GAS  /tmp/cc9AvIGf.s 			page 148


 8323 2bd8 742A0000 		.4byte	0x2a74
 8324 2bdc 00       		.byte	0
 8325 2bdd 14       		.uleb128 0x14
 8326 2bde ED240000 		.4byte	.LASF429
 8327 2be2 11       		.byte	0x11
 8328 2be3 38       		.byte	0x38
 8329 2be4 2C390000 		.4byte	.LASF430
 8330 2be8 01       		.byte	0x1
 8331 2be9 30       		.uleb128 0x30
 8332 2bea 01560000 		.4byte	.LASF431
 8333 2bee 11       		.byte	0x11
 8334 2bef 39       		.byte	0x39
 8335 2bf0 32480000 		.4byte	.LASF432
 8336 2bf4 01       		.byte	0x1
 8337 2bf5 FF2B0000 		.4byte	0x2bff
 8338 2bf9 0D       		.uleb128 0xd
 8339 2bfa C54C0000 		.4byte	0x4cc5
 8340 2bfe 00       		.byte	0
 8341 2bff 31       		.uleb128 0x31
 8342 2c00 D4560000 		.4byte	.LASF433
 8343 2c04 11       		.byte	0x11
 8344 2c05 3A       		.byte	0x3a
 8345 2c06 31340000 		.4byte	.LASF434
 8346 2c0a 9D470000 		.4byte	0x479d
 8347 2c0e 01       		.byte	0x1
 8348 2c0f 0D       		.uleb128 0xd
 8349 2c10 034F0000 		.4byte	0x4f03
 8350 2c14 00       		.byte	0
 8351 2c15 00       		.byte	0
 8352 2c16 07       		.uleb128 0x7
 8353 2c17 5C2A0000 		.4byte	0x2a5c
 8354 2c1b 0E       		.uleb128 0xe
 8355 2c1c 7D1A0000 		.4byte	.LASF435
 8356 2c20 4C       		.byte	0x4c
 8357 2c21 12       		.byte	0x12
 8358 2c22 0C       		.byte	0xc
 8359 2c23 8F2D0000 		.4byte	0x2d8f
 8360 2c27 13       		.uleb128 0x13
 8361 2c28 79010000 		.4byte	0x179
 8362 2c2c 00       		.byte	0
 8363 2c2d 16       		.uleb128 0x16
 8364 2c2e 611C0000 		.4byte	.LASF84
 8365 2c32 12       		.byte	0x12
 8366 2c33 1F       		.byte	0x1f
 8367 2c34 5C2A0000 		.4byte	0x2a5c
 8368 2c38 00       		.byte	0
 8369 2c39 17       		.uleb128 0x17
 8370 2c3a F5400000 		.4byte	.LASF409
 8371 2c3e 12       		.byte	0x12
 8372 2c3f 19       		.byte	0x19
 8373 2c40 742A0000 		.4byte	0x2a74
 8374 2c44 01       		.byte	0x1
 8375 2c45 17       		.uleb128 0x17
 8376 2c46 A7350000 		.4byte	.LASF410
 8377 2c4a 12       		.byte	0x12
 8378 2c4b 1A       		.byte	0x1a
 8379 2c4c 802A0000 		.4byte	0x2a80
ARM GAS  /tmp/cc9AvIGf.s 			page 149


 8380 2c50 01       		.byte	0x1
 8381 2c51 17       		.uleb128 0x17
 8382 2c52 ED100000 		.4byte	.LASF411
 8383 2c56 12       		.byte	0x12
 8384 2c57 1B       		.byte	0x1b
 8385 2c58 8C2A0000 		.4byte	0x2a8c
 8386 2c5c 01       		.byte	0x1
 8387 2c5d 17       		.uleb128 0x17
 8388 2c5e AB2B0000 		.4byte	.LASF412
 8389 2c62 12       		.byte	0x12
 8390 2c63 1C       		.byte	0x1c
 8391 2c64 982A0000 		.4byte	0x2a98
 8392 2c68 01       		.byte	0x1
 8393 2c69 18       		.uleb128 0x18
 8394 2c6a B83B0000 		.4byte	.LASF274
 8395 2c6e 12       		.byte	0x12
 8396 2c6f 23       		.byte	0x23
 8397 2c70 3E290000 		.4byte	.LASF436
 8398 2c74 C3000000 		.4byte	0xc3
 8399 2c78 01       		.byte	0x1
 8400 2c79 812C0000 		.4byte	0x2c81
 8401 2c7d 872C0000 		.4byte	0x2c87
 8402 2c81 10       		.uleb128 0x10
 8403 2c82 094F0000 		.4byte	0x4f09
 8404 2c86 00       		.byte	0
 8405 2c87 0F       		.uleb128 0xf
 8406 2c88 7D1A0000 		.4byte	.LASF435
 8407 2c8c 12       		.byte	0x12
 8408 2c8d 26       		.byte	0x26
 8409 2c8e 0F4F0000 		.4byte	0x4f0f
 8410 2c92 9A2C0000 		.4byte	0x2c9a
 8411 2c96 A02C0000 		.4byte	0x2ca0
 8412 2c9a 10       		.uleb128 0x10
 8413 2c9b 0F4F0000 		.4byte	0x4f0f
 8414 2c9f 00       		.byte	0
 8415 2ca0 2E       		.uleb128 0x2e
 8416 2ca1 EF180000 		.4byte	.LASF415
 8417 2ca5 12       		.byte	0x12
 8418 2ca6 29       		.byte	0x29
 8419 2ca7 D4380000 		.4byte	.LASF437
 8420 2cab 2C000000 		.4byte	0x2c
 8421 2caf 01       		.byte	0x1
 8422 2cb0 BA2C0000 		.4byte	0x2cba
 8423 2cb4 0D       		.uleb128 0xd
 8424 2cb5 2C000000 		.4byte	0x2c
 8425 2cb9 00       		.byte	0
 8426 2cba 2E       		.uleb128 0x2e
 8427 2cbb 30290000 		.4byte	.LASF417
 8428 2cbf 12       		.byte	0x12
 8429 2cc0 2A       		.byte	0x2a
 8430 2cc1 13640000 		.4byte	.LASF438
 8431 2cc5 0F4F0000 		.4byte	0x4f0f
 8432 2cc9 01       		.byte	0x1
 8433 2cca ED2C0000 		.4byte	0x2ced
 8434 2cce 0D       		.uleb128 0xd
 8435 2ccf B4000000 		.4byte	0xb4
 8436 2cd3 0D       		.uleb128 0xd
ARM GAS  /tmp/cc9AvIGf.s 			page 150


 8437 2cd4 2C000000 		.4byte	0x2c
 8438 2cd8 0D       		.uleb128 0xd
 8439 2cd9 392C0000 		.4byte	0x2c39
 8440 2cdd 0D       		.uleb128 0xd
 8441 2cde 452C0000 		.4byte	0x2c45
 8442 2ce2 0D       		.uleb128 0xd
 8443 2ce3 B4000000 		.4byte	0xb4
 8444 2ce7 0D       		.uleb128 0xd
 8445 2ce8 C3000000 		.4byte	0xc3
 8446 2cec 00       		.byte	0
 8447 2ced 2E       		.uleb128 0x2e
 8448 2cee 603F0000 		.4byte	.LASF419
 8449 2cf2 12       		.byte	0x12
 8450 2cf3 2D       		.byte	0x2d
 8451 2cf4 BE1C0000 		.4byte	.LASF439
 8452 2cf8 0F4F0000 		.4byte	0x4f0f
 8453 2cfc 01       		.byte	0x1
 8454 2cfd 202D0000 		.4byte	0x2d20
 8455 2d01 0D       		.uleb128 0xd
 8456 2d02 B4000000 		.4byte	0xb4
 8457 2d06 0D       		.uleb128 0xd
 8458 2d07 2C000000 		.4byte	0x2c
 8459 2d0b 0D       		.uleb128 0xd
 8460 2d0c 392C0000 		.4byte	0x2c39
 8461 2d10 0D       		.uleb128 0xd
 8462 2d11 452C0000 		.4byte	0x2c45
 8463 2d15 0D       		.uleb128 0xd
 8464 2d16 B4000000 		.4byte	0xb4
 8465 2d1a 0D       		.uleb128 0xd
 8466 2d1b C3000000 		.4byte	0xc3
 8467 2d1f 00       		.byte	0
 8468 2d20 32       		.uleb128 0x32
 8469 2d21 41470000 		.4byte	.LASF423
 8470 2d25 12       		.byte	0x12
 8471 2d26 36       		.byte	0x36
 8472 2d27 A81C0000 		.4byte	.LASF440
 8473 2d2b 154F0000 		.4byte	0x4f15
 8474 2d2f 01       		.byte	0x1
 8475 2d30 32       		.uleb128 0x32
 8476 2d31 94440000 		.4byte	.LASF424
 8477 2d35 12       		.byte	0x12
 8478 2d36 37       		.byte	0x37
 8479 2d37 F3240000 		.4byte	.LASF441
 8480 2d3b 392C0000 		.4byte	0x2c39
 8481 2d3f 01       		.byte	0x1
 8482 2d40 30       		.uleb128 0x30
 8483 2d41 6B0C0000 		.4byte	.LASF427
 8484 2d45 12       		.byte	0x12
 8485 2d46 38       		.byte	0x38
 8486 2d47 10410000 		.4byte	.LASF442
 8487 2d4b 01       		.byte	0x1
 8488 2d4c 562D0000 		.4byte	0x2d56
 8489 2d50 0D       		.uleb128 0xd
 8490 2d51 392C0000 		.4byte	0x2c39
 8491 2d55 00       		.byte	0
 8492 2d56 14       		.uleb128 0x14
 8493 2d57 ED240000 		.4byte	.LASF429
ARM GAS  /tmp/cc9AvIGf.s 			page 151


 8494 2d5b 12       		.byte	0x12
 8495 2d5c 39       		.byte	0x39
 8496 2d5d AE140000 		.4byte	.LASF443
 8497 2d61 01       		.byte	0x1
 8498 2d62 30       		.uleb128 0x30
 8499 2d63 01560000 		.4byte	.LASF431
 8500 2d67 12       		.byte	0x12
 8501 2d68 3A       		.byte	0x3a
 8502 2d69 564B0000 		.4byte	.LASF444
 8503 2d6d 01       		.byte	0x1
 8504 2d6e 782D0000 		.4byte	0x2d78
 8505 2d72 0D       		.uleb128 0xd
 8506 2d73 C54C0000 		.4byte	0x4cc5
 8507 2d77 00       		.byte	0
 8508 2d78 31       		.uleb128 0x31
 8509 2d79 D4560000 		.4byte	.LASF433
 8510 2d7d 12       		.byte	0x12
 8511 2d7e 3B       		.byte	0x3b
 8512 2d7f 44390000 		.4byte	.LASF445
 8513 2d83 9D470000 		.4byte	0x479d
 8514 2d87 01       		.byte	0x1
 8515 2d88 0D       		.uleb128 0xd
 8516 2d89 154F0000 		.4byte	0x4f15
 8517 2d8d 00       		.byte	0
 8518 2d8e 00       		.byte	0
 8519 2d8f 07       		.uleb128 0x7
 8520 2d90 1B2C0000 		.4byte	0x2c1b
 8521 2d94 0E       		.uleb128 0xe
 8522 2d95 CC180000 		.4byte	.LASF446
 8523 2d99 04       		.byte	0x4
 8524 2d9a 13       		.byte	0x13
 8525 2d9b 0B       		.byte	0xb
 8526 2d9c 722E0000 		.4byte	0x2e72
 8527 2da0 16       		.uleb128 0x16
 8528 2da1 08160000 		.4byte	.LASF447
 8529 2da5 13       		.byte	0x13
 8530 2da6 13       		.byte	0x13
 8531 2da7 0F4F0000 		.4byte	0x4f0f
 8532 2dab 00       		.byte	0
 8533 2dac 17       		.uleb128 0x17
 8534 2dad 78430000 		.4byte	.LASF448
 8535 2db1 13       		.byte	0x13
 8536 2db2 0D       		.byte	0xd
 8537 2db3 E6470000 		.4byte	0x47e6
 8538 2db7 01       		.byte	0x1
 8539 2db8 18       		.uleb128 0x18
 8540 2db9 44020000 		.4byte	.LASF449
 8541 2dbd 13       		.byte	0x13
 8542 2dbe 16       		.byte	0x16
 8543 2dbf 57040000 		.4byte	.LASF450
 8544 2dc3 0F4F0000 		.4byte	0x4f0f
 8545 2dc7 01       		.byte	0x1
 8546 2dc8 D02D0000 		.4byte	0x2dd0
 8547 2dcc D62D0000 		.4byte	0x2dd6
 8548 2dd0 10       		.uleb128 0x10
 8549 2dd1 1B4F0000 		.4byte	0x4f1b
 8550 2dd5 00       		.byte	0
ARM GAS  /tmp/cc9AvIGf.s 			page 152


 8551 2dd6 19       		.uleb128 0x19
 8552 2dd7 7C1E0000 		.4byte	.LASF451
 8553 2ddb 13       		.byte	0x13
 8554 2ddc 17       		.byte	0x17
 8555 2ddd 793E0000 		.4byte	.LASF452
 8556 2de1 01       		.byte	0x1
 8557 2de2 EA2D0000 		.4byte	0x2dea
 8558 2de6 F52D0000 		.4byte	0x2df5
 8559 2dea 10       		.uleb128 0x10
 8560 2deb 214F0000 		.4byte	0x4f21
 8561 2def 0D       		.uleb128 0xd
 8562 2df0 0F4F0000 		.4byte	0x4f0f
 8563 2df4 00       		.byte	0
 8564 2df5 19       		.uleb128 0x19
 8565 2df6 4B160000 		.4byte	.LASF453
 8566 2dfa 13       		.byte	0x13
 8567 2dfb 19       		.byte	0x19
 8568 2dfc 75490000 		.4byte	.LASF454
 8569 2e00 01       		.byte	0x1
 8570 2e01 092E0000 		.4byte	0x2e09
 8571 2e05 142E0000 		.4byte	0x2e14
 8572 2e09 10       		.uleb128 0x10
 8573 2e0a 214F0000 		.4byte	0x4f21
 8574 2e0e 0D       		.uleb128 0xd
 8575 2e0f 37000000 		.4byte	0x37
 8576 2e13 00       		.byte	0
 8577 2e14 19       		.uleb128 0x19
 8578 2e15 E7070000 		.4byte	.LASF455
 8579 2e19 13       		.byte	0x13
 8580 2e1a 1B       		.byte	0x1b
 8581 2e1b BC2E0000 		.4byte	.LASF456
 8582 2e1f 01       		.byte	0x1
 8583 2e20 282E0000 		.4byte	0x2e28
 8584 2e24 332E0000 		.4byte	0x2e33
 8585 2e28 10       		.uleb128 0x10
 8586 2e29 214F0000 		.4byte	0x4f21
 8587 2e2d 0D       		.uleb128 0xd
 8588 2e2e 37000000 		.4byte	0x37
 8589 2e32 00       		.byte	0
 8590 2e33 18       		.uleb128 0x18
 8591 2e34 67050000 		.4byte	.LASF457
 8592 2e38 13       		.byte	0x13
 8593 2e39 1C       		.byte	0x1c
 8594 2e3a 6F060000 		.4byte	.LASF458
 8595 2e3e AC2D0000 		.4byte	0x2dac
 8596 2e42 01       		.byte	0x1
 8597 2e43 4B2E0000 		.4byte	0x2e4b
 8598 2e47 562E0000 		.4byte	0x2e56
 8599 2e4b 10       		.uleb128 0x10
 8600 2e4c 214F0000 		.4byte	0x4f21
 8601 2e50 0D       		.uleb128 0xd
 8602 2e51 C54C0000 		.4byte	0x4cc5
 8603 2e55 00       		.byte	0
 8604 2e56 12       		.uleb128 0x12
 8605 2e57 CC180000 		.4byte	.LASF446
 8606 2e5b 13       		.byte	0x13
 8607 2e5c 1F       		.byte	0x1f
ARM GAS  /tmp/cc9AvIGf.s 			page 153


 8608 2e5d 214F0000 		.4byte	0x4f21
 8609 2e61 01       		.byte	0x1
 8610 2e62 662E0000 		.4byte	0x2e66
 8611 2e66 10       		.uleb128 0x10
 8612 2e67 214F0000 		.4byte	0x4f21
 8613 2e6b 0D       		.uleb128 0xd
 8614 2e6c 0F4F0000 		.4byte	0x4f0f
 8615 2e70 00       		.byte	0
 8616 2e71 00       		.byte	0
 8617 2e72 07       		.uleb128 0x7
 8618 2e73 942D0000 		.4byte	0x2d94
 8619 2e77 0E       		.uleb128 0xe
 8620 2e78 BD4C0000 		.4byte	.LASF459
 8621 2e7c 04       		.byte	0x4
 8622 2e7d 14       		.byte	0x14
 8623 2e7e 0B       		.byte	0xb
 8624 2e7f 5B2F0000 		.4byte	0x2f5b
 8625 2e83 13       		.uleb128 0x13
 8626 2e84 79010000 		.4byte	0x179
 8627 2e88 00       		.byte	0
 8628 2e89 16       		.uleb128 0x16
 8629 2e8a 611C0000 		.4byte	.LASF84
 8630 2e8e 14       		.byte	0x14
 8631 2e8f 12       		.byte	0x12
 8632 2e90 942D0000 		.4byte	0x2d94
 8633 2e94 00       		.byte	0
 8634 2e95 17       		.uleb128 0x17
 8635 2e96 78430000 		.4byte	.LASF448
 8636 2e9a 14       		.byte	0x14
 8637 2e9b 0D       		.byte	0xd
 8638 2e9c AC2D0000 		.4byte	0x2dac
 8639 2ea0 01       		.byte	0x1
 8640 2ea1 18       		.uleb128 0x18
 8641 2ea2 44020000 		.4byte	.LASF449
 8642 2ea6 14       		.byte	0x14
 8643 2ea7 15       		.byte	0x15
 8644 2ea8 7E010000 		.4byte	.LASF460
 8645 2eac 0F4F0000 		.4byte	0x4f0f
 8646 2eb0 01       		.byte	0x1
 8647 2eb1 B92E0000 		.4byte	0x2eb9
 8648 2eb5 BF2E0000 		.4byte	0x2ebf
 8649 2eb9 10       		.uleb128 0x10
 8650 2eba 274F0000 		.4byte	0x4f27
 8651 2ebe 00       		.byte	0
 8652 2ebf 19       		.uleb128 0x19
 8653 2ec0 7C1E0000 		.4byte	.LASF451
 8654 2ec4 14       		.byte	0x14
 8655 2ec5 16       		.byte	0x16
 8656 2ec6 4F2F0000 		.4byte	.LASF461
 8657 2eca 01       		.byte	0x1
 8658 2ecb D32E0000 		.4byte	0x2ed3
 8659 2ecf DE2E0000 		.4byte	0x2ede
 8660 2ed3 10       		.uleb128 0x10
 8661 2ed4 2D4F0000 		.4byte	0x4f2d
 8662 2ed8 0D       		.uleb128 0xd
 8663 2ed9 0F4F0000 		.4byte	0x4f0f
 8664 2edd 00       		.byte	0
ARM GAS  /tmp/cc9AvIGf.s 			page 154


 8665 2ede 19       		.uleb128 0x19
 8666 2edf 4B160000 		.4byte	.LASF453
 8667 2ee3 14       		.byte	0x14
 8668 2ee4 18       		.byte	0x18
 8669 2ee5 852E0000 		.4byte	.LASF462
 8670 2ee9 01       		.byte	0x1
 8671 2eea F22E0000 		.4byte	0x2ef2
 8672 2eee FD2E0000 		.4byte	0x2efd
 8673 2ef2 10       		.uleb128 0x10
 8674 2ef3 2D4F0000 		.4byte	0x4f2d
 8675 2ef7 0D       		.uleb128 0xd
 8676 2ef8 37000000 		.4byte	0x37
 8677 2efc 00       		.byte	0
 8678 2efd 19       		.uleb128 0x19
 8679 2efe E7070000 		.4byte	.LASF455
 8680 2f02 14       		.byte	0x14
 8681 2f03 1A       		.byte	0x1a
 8682 2f04 661C0000 		.4byte	.LASF463
 8683 2f08 01       		.byte	0x1
 8684 2f09 112F0000 		.4byte	0x2f11
 8685 2f0d 1C2F0000 		.4byte	0x2f1c
 8686 2f11 10       		.uleb128 0x10
 8687 2f12 2D4F0000 		.4byte	0x4f2d
 8688 2f16 0D       		.uleb128 0xd
 8689 2f17 37000000 		.4byte	0x37
 8690 2f1b 00       		.byte	0
 8691 2f1c 18       		.uleb128 0x18
 8692 2f1d 67050000 		.4byte	.LASF457
 8693 2f21 14       		.byte	0x14
 8694 2f22 1B       		.byte	0x1b
 8695 2f23 24630000 		.4byte	.LASF464
 8696 2f27 952E0000 		.4byte	0x2e95
 8697 2f2b 01       		.byte	0x1
 8698 2f2c 342F0000 		.4byte	0x2f34
 8699 2f30 3F2F0000 		.4byte	0x2f3f
 8700 2f34 10       		.uleb128 0x10
 8701 2f35 2D4F0000 		.4byte	0x4f2d
 8702 2f39 0D       		.uleb128 0xd
 8703 2f3a C54C0000 		.4byte	0x4cc5
 8704 2f3e 00       		.byte	0
 8705 2f3f 12       		.uleb128 0x12
 8706 2f40 BD4C0000 		.4byte	.LASF459
 8707 2f44 14       		.byte	0x14
 8708 2f45 1E       		.byte	0x1e
 8709 2f46 2D4F0000 		.4byte	0x4f2d
 8710 2f4a 01       		.byte	0x1
 8711 2f4b 4F2F0000 		.4byte	0x2f4f
 8712 2f4f 10       		.uleb128 0x10
 8713 2f50 2D4F0000 		.4byte	0x4f2d
 8714 2f54 0D       		.uleb128 0xd
 8715 2f55 0F4F0000 		.4byte	0x4f0f
 8716 2f59 00       		.byte	0
 8717 2f5a 00       		.byte	0
 8718 2f5b 07       		.uleb128 0x7
 8719 2f5c 772E0000 		.4byte	0x2e77
 8720 2f60 0E       		.uleb128 0xe
 8721 2f61 533B0000 		.4byte	.LASF465
ARM GAS  /tmp/cc9AvIGf.s 			page 155


 8722 2f65 22       		.byte	0x22
 8723 2f66 15       		.byte	0x15
 8724 2f67 0C       		.byte	0xc
 8725 2f68 E9300000 		.4byte	0x30e9
 8726 2f6c 33       		.uleb128 0x33
 8727 2f6d C20B0000 		.4byte	.LASF805
 8728 2f71 01       		.byte	0x1
 8729 2f72 15       		.byte	0x15
 8730 2f73 0E       		.byte	0xe
 8731 2f74 01       		.byte	0x1
 8732 2f75 B02F0000 		.4byte	0x2fb0
 8733 2f79 34       		.uleb128 0x34
 8734 2f7a 52415700 		.ascii	"RAW\000"
 8735 2f7e 00       		.sleb128 0
 8736 2f7f 35       		.uleb128 0x35
 8737 2f80 9C210000 		.4byte	.LASF466
 8738 2f84 11       		.sleb128 17
 8739 2f85 35       		.uleb128 0x35
 8740 2f86 5B470000 		.4byte	.LASF467
 8741 2f8a 12       		.sleb128 18
 8742 2f8b 35       		.uleb128 0x35
 8743 2f8c 364C0000 		.4byte	.LASF468
 8744 2f90 13       		.sleb128 19
 8745 2f91 35       		.uleb128 0x35
 8746 2f92 A9570000 		.4byte	.LASF469
 8747 2f96 14       		.sleb128 20
 8748 2f97 35       		.uleb128 0x35
 8749 2f98 7A2F0000 		.4byte	.LASF470
 8750 2f9c 21       		.sleb128 33
 8751 2f9d 35       		.uleb128 0x35
 8752 2f9e 61170000 		.4byte	.LASF471
 8753 2fa2 22       		.sleb128 34
 8754 2fa3 35       		.uleb128 0x35
 8755 2fa4 4C0E0000 		.4byte	.LASF472
 8756 2fa8 23       		.sleb128 35
 8757 2fa9 35       		.uleb128 0x35
 8758 2faa FE310000 		.4byte	.LASF473
 8759 2fae 31       		.sleb128 49
 8760 2faf 00       		.byte	0
 8761 2fb0 1F       		.uleb128 0x1f
 8762 2fb1 330F0000 		.4byte	.LASF474
 8763 2fb5 1F       		.byte	0x1f
 8764 2fb6 15       		.byte	0x15
 8765 2fb7 22       		.byte	0x22
 8766 2fb8 01       		.byte	0x1
 8767 2fb9 E22F0000 		.4byte	0x2fe2
 8768 2fbd 16       		.uleb128 0x16
 8769 2fbe 7C3A0000 		.4byte	.LASF475
 8770 2fc2 15       		.byte	0x15
 8771 2fc3 23       		.byte	0x23
 8772 2fc4 334F0000 		.4byte	0x4f33
 8773 2fc8 00       		.byte	0
 8774 2fc9 16       		.uleb128 0x16
 8775 2fca D3450000 		.4byte	.LASF476
 8776 2fce 15       		.byte	0x15
 8777 2fcf 24       		.byte	0x24
 8778 2fd0 CE000000 		.4byte	0xce
ARM GAS  /tmp/cc9AvIGf.s 			page 156


 8779 2fd4 07       		.byte	0x7
 8780 2fd5 16       		.uleb128 0x16
 8781 2fd6 65490000 		.4byte	.LASF477
 8782 2fda 15       		.byte	0x15
 8783 2fdb 25       		.byte	0x25
 8784 2fdc 434F0000 		.4byte	0x4f43
 8785 2fe0 0F       		.byte	0xf
 8786 2fe1 00       		.byte	0
 8787 2fe2 1F       		.uleb128 0x1f
 8788 2fe3 32540000 		.4byte	.LASF478
 8789 2fe7 1E       		.byte	0x1e
 8790 2fe8 15       		.byte	0x15
 8791 2fe9 28       		.byte	0x28
 8792 2fea 01       		.byte	0x1
 8793 2feb 20300000 		.4byte	0x3020
 8794 2fef 16       		.uleb128 0x16
 8795 2ff0 65490000 		.4byte	.LASF477
 8796 2ff4 15       		.byte	0x15
 8797 2ff5 2B       		.byte	0x2b
 8798 2ff6 434F0000 		.4byte	0x4f43
 8799 2ffa 00       		.byte	0
 8800 2ffb 16       		.uleb128 0x16
 8801 2ffc E5130000 		.4byte	.LASF479
 8802 3000 15       		.byte	0x15
 8803 3001 2C       		.byte	0x2c
 8804 3002 71470000 		.4byte	0x4771
 8805 3006 10       		.byte	0x10
 8806 3007 16       		.uleb128 0x16
 8807 3008 B4390000 		.4byte	.LASF480
 8808 300c 15       		.byte	0x15
 8809 300d 2D       		.byte	0x2d
 8810 300e 71470000 		.4byte	0x4771
 8811 3012 12       		.byte	0x12
 8812 3013 16       		.uleb128 0x16
 8813 3014 D9570000 		.4byte	.LASF481
 8814 3018 15       		.byte	0x15
 8815 3019 2E       		.byte	0x2e
 8816 301a 534F0000 		.4byte	0x4f53
 8817 301e 14       		.byte	0x14
 8818 301f 00       		.byte	0
 8819 3020 1F       		.uleb128 0x1f
 8820 3021 4D430000 		.4byte	.LASF482
 8821 3025 09       		.byte	0x9
 8822 3026 15       		.byte	0x15
 8823 3027 31       		.byte	0x31
 8824 3028 01       		.byte	0x1
 8825 3029 97300000 		.4byte	0x3097
 8826 302d 36       		.uleb128 0x36
 8827 302e 01       		.byte	0x1
 8828 302f 15       		.byte	0x15
 8829 3030 34       		.byte	0x34
 8830 3031 72300000 		.4byte	0x3072
 8831 3035 37       		.uleb128 0x37
 8832 3036 0A260000 		.4byte	.LASF483
 8833 303a 15       		.byte	0x15
 8834 303b 35       		.byte	0x35
 8835 303c 37000000 		.4byte	0x37
ARM GAS  /tmp/cc9AvIGf.s 			page 157


 8836 3040 04       		.byte	0x4
 8837 3041 01       		.byte	0x1
 8838 3042 1F       		.byte	0x1f
 8839 3043 00       		.byte	0
 8840 3044 37       		.uleb128 0x37
 8841 3045 68350000 		.4byte	.LASF484
 8842 3049 15       		.byte	0x15
 8843 304a 36       		.byte	0x36
 8844 304b 37000000 		.4byte	0x37
 8845 304f 04       		.byte	0x4
 8846 3050 01       		.byte	0x1
 8847 3051 1E       		.byte	0x1e
 8848 3052 00       		.byte	0
 8849 3053 37       		.uleb128 0x37
 8850 3054 B62C0000 		.4byte	.LASF485
 8851 3058 15       		.byte	0x15
 8852 3059 37       		.byte	0x37
 8853 305a 37000000 		.4byte	0x37
 8854 305e 04       		.byte	0x4
 8855 305f 01       		.byte	0x1
 8856 3060 1D       		.byte	0x1d
 8857 3061 00       		.byte	0
 8858 3062 37       		.uleb128 0x37
 8859 3063 54050000 		.4byte	.LASF486
 8860 3067 15       		.byte	0x15
 8861 3068 38       		.byte	0x38
 8862 3069 37000000 		.4byte	0x37
 8863 306d 04       		.byte	0x4
 8864 306e 05       		.byte	0x5
 8865 306f 18       		.byte	0x18
 8866 3070 00       		.byte	0
 8867 3071 00       		.byte	0
 8868 3072 16       		.uleb128 0x16
 8869 3073 57300000 		.4byte	.LASF487
 8870 3077 15       		.byte	0x15
 8871 3078 32       		.byte	0x32
 8872 3079 334F0000 		.4byte	0x4f33
 8873 307d 00       		.byte	0
 8874 307e 16       		.uleb128 0x16
 8875 307f 54050000 		.4byte	.LASF486
 8876 3083 15       		.byte	0x15
 8877 3084 33       		.byte	0x33
 8878 3085 66470000 		.4byte	0x4766
 8879 3089 07       		.byte	0x7
 8880 308a 16       		.uleb128 0x16
 8881 308b D3640000 		.4byte	.LASF488
 8882 308f 15       		.byte	0x15
 8883 3090 39       		.byte	0x39
 8884 3091 2D300000 		.4byte	0x302d
 8885 3095 08       		.byte	0x8
 8886 3096 00       		.byte	0
 8887 3097 38       		.uleb128 0x38
 8888 3098 1F       		.byte	0x1f
 8889 3099 15       		.byte	0x15
 8890 309a 3D       		.byte	0x3d
 8891 309b 01       		.byte	0x1
 8892 309c CD300000 		.4byte	0x30cd
ARM GAS  /tmp/cc9AvIGf.s 			page 158


 8893 30a0 39       		.uleb128 0x39
 8894 30a1 94250000 		.4byte	.LASF489
 8895 30a5 15       		.byte	0x15
 8896 30a6 3E       		.byte	0x3e
 8897 30a7 634F0000 		.4byte	0x4f63
 8898 30ab 39       		.uleb128 0x39
 8899 30ac CF380000 		.4byte	.LASF490
 8900 30b0 15       		.byte	0x15
 8901 30b1 3F       		.byte	0x3f
 8902 30b2 B02F0000 		.4byte	0x2fb0
 8903 30b6 39       		.uleb128 0x39
 8904 30b7 8B540000 		.4byte	.LASF491
 8905 30bb 15       		.byte	0x15
 8906 30bc 40       		.byte	0x40
 8907 30bd E22F0000 		.4byte	0x2fe2
 8908 30c1 39       		.uleb128 0x39
 8909 30c2 7C3A0000 		.4byte	.LASF475
 8910 30c6 15       		.byte	0x15
 8911 30c7 41       		.byte	0x41
 8912 30c8 20300000 		.4byte	0x3020
 8913 30cc 00       		.byte	0
 8914 30cd 3A       		.uleb128 0x3a
 8915 30ce 91220000 		.4byte	0x2291
 8916 30d2 00       		.byte	0
 8917 30d3 01       		.byte	0x1
 8918 30d4 3B       		.uleb128 0x3b
 8919 30d5 97300000 		.4byte	0x3097
 8920 30d9 02       		.byte	0x2
 8921 30da 01       		.byte	0x1
 8922 30db 3C       		.uleb128 0x3c
 8923 30dc 6B310000 		.4byte	.LASF492
 8924 30e0 15       		.byte	0x15
 8925 30e1 43       		.byte	0x43
 8926 30e2 66470000 		.4byte	0x4766
 8927 30e6 21       		.byte	0x21
 8928 30e7 01       		.byte	0x1
 8929 30e8 00       		.byte	0
 8930 30e9 0E       		.uleb128 0xe
 8931 30ea EC5C0000 		.4byte	.LASF493
 8932 30ee 04       		.byte	0x4
 8933 30ef 0B       		.byte	0xb
 8934 30f0 0F       		.byte	0xf
 8935 30f1 2B370000 		.4byte	0x372b
 8936 30f5 13       		.uleb128 0x13
 8937 30f6 79010000 		.4byte	0x179
 8938 30fa 00       		.byte	0
 8939 30fb 1F       		.uleb128 0x1f
 8940 30fc F45A0000 		.4byte	.LASF87
 8941 3100 08       		.byte	0x8
 8942 3101 0B       		.byte	0xb
 8943 3102 11       		.byte	0x11
 8944 3103 01       		.byte	0x1
 8945 3104 3B310000 		.4byte	0x313b
 8946 3108 16       		.uleb128 0x16
 8947 3109 1D2D0000 		.4byte	.LASF85
 8948 310d 0B       		.byte	0xb
 8949 310e 12       		.byte	0x12
ARM GAS  /tmp/cc9AvIGf.s 			page 159


 8950 310f 734F0000 		.4byte	0x4f73
 8951 3113 00       		.byte	0
 8952 3114 16       		.uleb128 0x16
 8953 3115 FB190000 		.4byte	.LASF86
 8954 3119 0B       		.byte	0xb
 8955 311a 13       		.byte	0x13
 8956 311b E44F0000 		.4byte	0x4fe4
 8957 311f 04       		.byte	0x4
 8958 3120 20       		.uleb128 0x20
 8959 3121 F45A0000 		.4byte	.LASF87
 8960 3125 0B       		.byte	0xb
 8961 3126 15       		.byte	0x15
 8962 3127 734F0000 		.4byte	0x4f73
 8963 312b 2F310000 		.4byte	0x312f
 8964 312f 10       		.uleb128 0x10
 8965 3130 734F0000 		.4byte	0x4f73
 8966 3134 0D       		.uleb128 0xd
 8967 3135 E94F0000 		.4byte	0x4fe9
 8968 3139 00       		.byte	0
 8969 313a 00       		.byte	0
 8970 313b 21       		.uleb128 0x21
 8971 313c 34130000 		.4byte	.LASF88
 8972 3140 0B       		.byte	0xb
 8973 3141 8A01     		.2byte	0x18a
 8974 3143 734F0000 		.4byte	0x4f73
 8975 3147 00       		.byte	0
 8976 3148 22       		.uleb128 0x22
 8977 3149 2B280000 		.4byte	.LASF368
 8978 314d 25       		.uleb128 0x25
 8979 314e AB1F0000 		.4byte	.LASF89
 8980 3152 25       		.uleb128 0x25
 8981 3153 A82E0000 		.4byte	.LASF179
 8982 3157 25       		.uleb128 0x25
 8983 3158 0E530000 		.4byte	.LASF105
 8984 315c 15       		.uleb128 0x15
 8985 315d 2A3F0000 		.4byte	.LASF114
 8986 3161 04       		.byte	0x4
 8987 3162 0B       		.byte	0xb
 8988 3163 C0       		.byte	0xc0
 8989 3164 01       		.byte	0x1
 8990 3165 CC320000 		.4byte	0x32cc
 8991 3169 16       		.uleb128 0x16
 8992 316a A9140000 		.4byte	.LASF90
 8993 316e 0B       		.byte	0xb
 8994 316f C4       		.byte	0xc4
 8995 3170 9F500000 		.4byte	0x509f
 8996 3174 00       		.byte	0
 8997 3175 11       		.uleb128 0x11
 8998 3176 2A3F0000 		.4byte	.LASF114
 8999 317a 0B       		.byte	0xb
 9000 317b C7       		.byte	0xc7
 9001 317c A5500000 		.4byte	0x50a5
 9002 3180 01       		.byte	0x1
 9003 3181 89310000 		.4byte	0x3189
 9004 3185 8F310000 		.4byte	0x318f
 9005 3189 10       		.uleb128 0x10
 9006 318a A5500000 		.4byte	0x50a5
ARM GAS  /tmp/cc9AvIGf.s 			page 160


 9007 318e 00       		.byte	0
 9008 318f 11       		.uleb128 0x11
 9009 3190 2A3F0000 		.4byte	.LASF114
 9010 3194 0B       		.byte	0xb
 9011 3195 C8       		.byte	0xc8
 9012 3196 A5500000 		.4byte	0x50a5
 9013 319a 01       		.byte	0x1
 9014 319b A3310000 		.4byte	0x31a3
 9015 319f AE310000 		.4byte	0x31ae
 9016 31a3 10       		.uleb128 0x10
 9017 31a4 A5500000 		.4byte	0x50a5
 9018 31a8 0D       		.uleb128 0xd
 9019 31a9 AB500000 		.4byte	0x50ab
 9020 31ad 00       		.byte	0
 9021 31ae 0F       		.uleb128 0xf
 9022 31af 2A3F0000 		.4byte	.LASF114
 9023 31b3 0B       		.byte	0xb
 9024 31b4 CB       		.byte	0xcb
 9025 31b5 A5500000 		.4byte	0x50a5
 9026 31b9 C1310000 		.4byte	0x31c1
 9027 31bd CC310000 		.4byte	0x31cc
 9028 31c1 10       		.uleb128 0x10
 9029 31c2 A5500000 		.4byte	0x50a5
 9030 31c6 0D       		.uleb128 0xd
 9031 31c7 9F500000 		.4byte	0x509f
 9032 31cb 00       		.byte	0
 9033 31cc 23       		.uleb128 0x23
 9034 31cd FD130000 		.4byte	.LASF72
 9035 31d1 0B       		.byte	0xb
 9036 31d2 CE       		.byte	0xce
 9037 31d3 06570000 		.4byte	.LASF494
 9038 31d7 DE4F0000 		.4byte	0x4fde
 9039 31db E3310000 		.4byte	0x31e3
 9040 31df EE310000 		.4byte	0x31ee
 9041 31e3 10       		.uleb128 0x10
 9042 31e4 A5500000 		.4byte	0x50a5
 9043 31e8 0D       		.uleb128 0xd
 9044 31e9 AB500000 		.4byte	0x50ab
 9045 31ed 00       		.byte	0
 9046 31ee 18       		.uleb128 0x18
 9047 31ef AC440000 		.4byte	.LASF92
 9048 31f3 0B       		.byte	0xb
 9049 31f4 D4       		.byte	0xd4
 9050 31f5 AF190000 		.4byte	.LASF495
 9051 31f9 EF4F0000 		.4byte	0x4fef
 9052 31fd 01       		.byte	0x1
 9053 31fe 06320000 		.4byte	0x3206
 9054 3202 0C320000 		.4byte	0x320c
 9055 3206 10       		.uleb128 0x10
 9056 3207 B1500000 		.4byte	0x50b1
 9057 320b 00       		.byte	0
 9058 320c 18       		.uleb128 0x18
 9059 320d B8130000 		.4byte	.LASF94
 9060 3211 0B       		.byte	0xb
 9061 3212 D8       		.byte	0xd8
 9062 3213 D8020000 		.4byte	.LASF496
 9063 3217 8E4F0000 		.4byte	0x4f8e
ARM GAS  /tmp/cc9AvIGf.s 			page 161


 9064 321b 01       		.byte	0x1
 9065 321c 24320000 		.4byte	0x3224
 9066 3220 2A320000 		.4byte	0x322a
 9067 3224 10       		.uleb128 0x10
 9068 3225 B1500000 		.4byte	0x50b1
 9069 3229 00       		.byte	0
 9070 322a 18       		.uleb128 0x18
 9071 322b 86420000 		.4byte	.LASF96
 9072 322f 0B       		.byte	0xb
 9073 3230 DC       		.byte	0xdc
 9074 3231 E5620000 		.4byte	.LASF497
 9075 3235 DE4F0000 		.4byte	0x4fde
 9076 3239 01       		.byte	0x1
 9077 323a 42320000 		.4byte	0x3242
 9078 323e 48320000 		.4byte	0x3248
 9079 3242 10       		.uleb128 0x10
 9080 3243 A5500000 		.4byte	0x50a5
 9081 3247 00       		.byte	0
 9082 3248 18       		.uleb128 0x18
 9083 3249 86420000 		.4byte	.LASF96
 9084 324d 0B       		.byte	0xb
 9085 324e E3       		.byte	0xe3
 9086 324f 64620000 		.4byte	.LASF498
 9087 3253 BD360000 		.4byte	0x36bd
 9088 3257 01       		.byte	0x1
 9089 3258 60320000 		.4byte	0x3260
 9090 325c 6B320000 		.4byte	0x326b
 9091 3260 10       		.uleb128 0x10
 9092 3261 A5500000 		.4byte	0x50a5
 9093 3265 0D       		.uleb128 0xd
 9094 3266 25000000 		.4byte	0x25
 9095 326a 00       		.byte	0
 9096 326b 18       		.uleb128 0x18
 9097 326c 31620000 		.4byte	.LASF99
 9098 3270 0B       		.byte	0xb
 9099 3271 EB       		.byte	0xeb
 9100 3272 48530000 		.4byte	.LASF499
 9101 3276 9D470000 		.4byte	0x479d
 9102 327a 01       		.byte	0x1
 9103 327b 83320000 		.4byte	0x3283
 9104 327f 8E320000 		.4byte	0x328e
 9105 3283 10       		.uleb128 0x10
 9106 3284 B1500000 		.4byte	0x50b1
 9107 3288 0D       		.uleb128 0xd
 9108 3289 AB500000 		.4byte	0x50ab
 9109 328d 00       		.byte	0
 9110 328e 18       		.uleb128 0x18
 9111 328f 67300000 		.4byte	.LASF101
 9112 3293 0B       		.byte	0xb
 9113 3294 EF       		.byte	0xef
 9114 3295 A62D0000 		.4byte	.LASF500
 9115 3299 9D470000 		.4byte	0x479d
 9116 329d 01       		.byte	0x1
 9117 329e A6320000 		.4byte	0x32a6
 9118 32a2 B1320000 		.4byte	0x32b1
 9119 32a6 10       		.uleb128 0x10
 9120 32a7 B1500000 		.4byte	0x50b1
ARM GAS  /tmp/cc9AvIGf.s 			page 162


 9121 32ab 0D       		.uleb128 0xd
 9122 32ac AB500000 		.4byte	0x50ab
 9123 32b0 00       		.byte	0
 9124 32b1 24       		.uleb128 0x24
 9125 32b2 14430000 		.4byte	.LASF103
 9126 32b6 0B       		.byte	0xb
 9127 32b7 F3       		.byte	0xf3
 9128 32b8 CB0B0000 		.4byte	.LASF501
 9129 32bc 9D470000 		.4byte	0x479d
 9130 32c0 01       		.byte	0x1
 9131 32c1 C5320000 		.4byte	0x32c5
 9132 32c5 10       		.uleb128 0x10
 9133 32c6 B1500000 		.4byte	0x50b1
 9134 32ca 00       		.byte	0
 9135 32cb 00       		.byte	0
 9136 32cc 26       		.uleb128 0x26
 9137 32cd 011A0000 		.4byte	.LASF123
 9138 32d1 0B       		.byte	0xb
 9139 32d2 8601     		.2byte	0x186
 9140 32d4 794F0000 		.4byte	0x4f79
 9141 32d8 26       		.uleb128 0x26
 9142 32d9 AE120000 		.4byte	.LASF124
 9143 32dd 0B       		.byte	0xb
 9144 32de 8701     		.2byte	0x187
 9145 32e0 944F0000 		.4byte	0x4f94
 9146 32e4 27       		.uleb128 0x27
 9147 32e5 8A640000 		.4byte	.LASF125
 9148 32e9 0B       		.byte	0xb
 9149 32ea 8D01     		.2byte	0x18d
 9150 32ec 6C050000 		.4byte	.LASF502
 9151 32f0 AE4F0000 		.4byte	0x4fae
 9152 32f4 01       		.byte	0x1
 9153 32f5 FD320000 		.4byte	0x32fd
 9154 32f9 03330000 		.4byte	0x3303
 9155 32fd 10       		.uleb128 0x10
 9156 32fe B44F0000 		.4byte	0x4fb4
 9157 3302 00       		.byte	0
 9158 3303 07       		.uleb128 0x7
 9159 3304 FB300000 		.4byte	0x30fb
 9160 3308 27       		.uleb128 0x27
 9161 3309 845F0000 		.4byte	.LASF126
 9162 330d 0B       		.byte	0xb
 9163 330e 9101     		.2byte	0x191
 9164 3310 AB5C0000 		.4byte	.LASF503
 9165 3314 9D470000 		.4byte	0x479d
 9166 3318 01       		.byte	0x1
 9167 3319 21330000 		.4byte	0x3321
 9168 331d 27330000 		.4byte	0x3327
 9169 3321 10       		.uleb128 0x10
 9170 3322 B44F0000 		.4byte	0x4fb4
 9171 3326 00       		.byte	0
 9172 3327 27       		.uleb128 0x27
 9173 3328 FF1E0000 		.4byte	.LASF129
 9174 332c 0B       		.byte	0xb
 9175 332d 0302     		.2byte	0x203
 9176 332f 83370000 		.4byte	.LASF504
 9177 3333 2C000000 		.4byte	0x2c
ARM GAS  /tmp/cc9AvIGf.s 			page 163


 9178 3337 01       		.byte	0x1
 9179 3338 40330000 		.4byte	0x3340
 9180 333c 46330000 		.4byte	0x3346
 9181 3340 10       		.uleb128 0x10
 9182 3341 B44F0000 		.4byte	0x4fb4
 9183 3345 00       		.byte	0
 9184 3346 28       		.uleb128 0x28
 9185 3347 D3480000 		.4byte	.LASF131
 9186 334b 0B       		.byte	0xb
 9187 334c 9701     		.2byte	0x197
 9188 334e 8F270000 		.4byte	.LASF505
 9189 3352 01       		.byte	0x1
 9190 3353 5B330000 		.4byte	0x335b
 9191 3357 66330000 		.4byte	0x3366
 9192 335b 10       		.uleb128 0x10
 9193 335c BA4F0000 		.4byte	0x4fba
 9194 3360 0D       		.uleb128 0xd
 9195 3361 C04F0000 		.4byte	0x4fc0
 9196 3365 00       		.byte	0
 9197 3366 28       		.uleb128 0x28
 9198 3367 38520000 		.4byte	.LASF132
 9199 336b 0B       		.byte	0xb
 9200 336c 9F01     		.2byte	0x19f
 9201 336e 5F260000 		.4byte	.LASF506
 9202 3372 01       		.byte	0x1
 9203 3373 7B330000 		.4byte	0x337b
 9204 3377 86330000 		.4byte	0x3386
 9205 337b 10       		.uleb128 0x10
 9206 337c BA4F0000 		.4byte	0x4fba
 9207 3380 0D       		.uleb128 0xd
 9208 3381 C04F0000 		.4byte	0x4fc0
 9209 3385 00       		.byte	0
 9210 3386 27       		.uleb128 0x27
 9211 3387 DD280000 		.4byte	.LASF135
 9212 338b 0B       		.byte	0xb
 9213 338c 0E02     		.2byte	0x20e
 9214 338e 4B2E0000 		.4byte	.LASF507
 9215 3392 9D470000 		.4byte	0x479d
 9216 3396 01       		.byte	0x1
 9217 3397 9F330000 		.4byte	0x339f
 9218 339b AA330000 		.4byte	0x33aa
 9219 339f 10       		.uleb128 0x10
 9220 33a0 BA4F0000 		.4byte	0x4fba
 9221 33a4 0D       		.uleb128 0xd
 9222 33a5 C04F0000 		.4byte	0x4fc0
 9223 33a9 00       		.byte	0
 9224 33aa 27       		.uleb128 0x27
 9225 33ab 11380000 		.4byte	.LASF137
 9226 33af 0B       		.byte	0xb
 9227 33b0 1F02     		.2byte	0x21f
 9228 33b2 0B030000 		.4byte	.LASF508
 9229 33b6 25000000 		.4byte	0x25
 9230 33ba 01       		.byte	0x1
 9231 33bb C3330000 		.4byte	0x33c3
 9232 33bf CE330000 		.4byte	0x33ce
 9233 33c3 10       		.uleb128 0x10
 9234 33c4 B44F0000 		.4byte	0x4fb4
ARM GAS  /tmp/cc9AvIGf.s 			page 164


 9235 33c8 0D       		.uleb128 0xd
 9236 33c9 8E4F0000 		.4byte	0x4f8e
 9237 33cd 00       		.byte	0
 9238 33ce 27       		.uleb128 0x27
 9239 33cf 374E0000 		.4byte	.LASF139
 9240 33d3 0B       		.byte	0xb
 9241 33d4 2C02     		.2byte	0x22c
 9242 33d6 A8050000 		.4byte	.LASF509
 9243 33da 9D470000 		.4byte	0x479d
 9244 33de 01       		.byte	0x1
 9245 33df E7330000 		.4byte	0x33e7
 9246 33e3 F2330000 		.4byte	0x33f2
 9247 33e7 10       		.uleb128 0x10
 9248 33e8 B44F0000 		.4byte	0x4fb4
 9249 33ec 0D       		.uleb128 0xd
 9250 33ed 8E4F0000 		.4byte	0x4f8e
 9251 33f1 00       		.byte	0
 9252 33f2 27       		.uleb128 0x27
 9253 33f3 E1330000 		.4byte	.LASF141
 9254 33f7 0B       		.byte	0xb
 9255 33f8 3802     		.2byte	0x238
 9256 33fa 7D0B0000 		.4byte	.LASF510
 9257 33fe C64F0000 		.4byte	0x4fc6
 9258 3402 01       		.byte	0x1
 9259 3403 0B340000 		.4byte	0x340b
 9260 3407 16340000 		.4byte	0x3416
 9261 340b 10       		.uleb128 0x10
 9262 340c B44F0000 		.4byte	0x4fb4
 9263 3410 0D       		.uleb128 0xd
 9264 3411 CC320000 		.4byte	0x32cc
 9265 3415 00       		.byte	0
 9266 3416 27       		.uleb128 0x27
 9267 3417 E1330000 		.4byte	.LASF141
 9268 341b 0B       		.byte	0xb
 9269 341c 4402     		.2byte	0x244
 9270 341e 11050000 		.4byte	.LASF511
 9271 3422 C64F0000 		.4byte	0x4fc6
 9272 3426 01       		.byte	0x1
 9273 3427 2F340000 		.4byte	0x342f
 9274 342b 3F340000 		.4byte	0x343f
 9275 342f 10       		.uleb128 0x10
 9276 3430 B44F0000 		.4byte	0x4fb4
 9277 3434 0D       		.uleb128 0xd
 9278 3435 D8320000 		.4byte	0x32d8
 9279 3439 0D       		.uleb128 0xd
 9280 343a A54C0000 		.4byte	0x4ca5
 9281 343e 00       		.byte	0
 9282 343f 27       		.uleb128 0x27
 9283 3440 C20F0000 		.4byte	.LASF144
 9284 3444 0B       		.byte	0xb
 9285 3445 B301     		.2byte	0x1b3
 9286 3447 AE0C0000 		.4byte	.LASF512
 9287 344b 5E340000 		.4byte	0x345e
 9288 344f 01       		.byte	0x1
 9289 3450 58340000 		.4byte	0x3458
 9290 3454 5E340000 		.4byte	0x345e
 9291 3458 10       		.uleb128 0x10
ARM GAS  /tmp/cc9AvIGf.s 			page 165


 9292 3459 BA4F0000 		.4byte	0x4fba
 9293 345d 00       		.byte	0
 9294 345e 07       		.uleb128 0x7
 9295 345f 4D310000 		.4byte	0x314d
 9296 3463 27       		.uleb128 0x27
 9297 3464 72300000 		.4byte	.LASF146
 9298 3468 0B       		.byte	0xb
 9299 3469 B701     		.2byte	0x1b7
 9300 346b 380F0000 		.4byte	.LASF513
 9301 346f 5E340000 		.4byte	0x345e
 9302 3473 01       		.byte	0x1
 9303 3474 7C340000 		.4byte	0x347c
 9304 3478 82340000 		.4byte	0x3482
 9305 347c 10       		.uleb128 0x10
 9306 347d BA4F0000 		.4byte	0x4fba
 9307 3481 00       		.byte	0
 9308 3482 28       		.uleb128 0x28
 9309 3483 C4640000 		.4byte	.LASF148
 9310 3487 0B       		.byte	0xb
 9311 3488 BB01     		.2byte	0x1bb
 9312 348a AD580000 		.4byte	.LASF514
 9313 348e 01       		.byte	0x1
 9314 348f 97340000 		.4byte	0x3497
 9315 3493 A2340000 		.4byte	0x34a2
 9316 3497 10       		.uleb128 0x10
 9317 3498 BA4F0000 		.4byte	0x4fba
 9318 349c 0D       		.uleb128 0xd
 9319 349d CC4F0000 		.4byte	0x4fcc
 9320 34a1 00       		.byte	0
 9321 34a2 27       		.uleb128 0x27
 9322 34a3 C20F0000 		.4byte	.LASF144
 9323 34a7 0B       		.byte	0xb
 9324 34a8 BF01     		.2byte	0x1bf
 9325 34aa 0F5E0000 		.4byte	.LASF515
 9326 34ae C1340000 		.4byte	0x34c1
 9327 34b2 01       		.byte	0x1
 9328 34b3 BB340000 		.4byte	0x34bb
 9329 34b7 C1340000 		.4byte	0x34c1
 9330 34bb 10       		.uleb128 0x10
 9331 34bc B44F0000 		.4byte	0x4fb4
 9332 34c0 00       		.byte	0
 9333 34c1 07       		.uleb128 0x7
 9334 34c2 52310000 		.4byte	0x3152
 9335 34c6 27       		.uleb128 0x27
 9336 34c7 72300000 		.4byte	.LASF146
 9337 34cb 0B       		.byte	0xb
 9338 34cc C301     		.2byte	0x1c3
 9339 34ce C21F0000 		.4byte	.LASF516
 9340 34d2 C1340000 		.4byte	0x34c1
 9341 34d6 01       		.byte	0x1
 9342 34d7 DF340000 		.4byte	0x34df
 9343 34db E5340000 		.4byte	0x34e5
 9344 34df 10       		.uleb128 0x10
 9345 34e0 B44F0000 		.4byte	0x4fb4
 9346 34e4 00       		.byte	0
 9347 34e5 28       		.uleb128 0x28
 9348 34e6 C4640000 		.4byte	.LASF148
ARM GAS  /tmp/cc9AvIGf.s 			page 166


 9349 34ea 0B       		.byte	0xb
 9350 34eb C701     		.2byte	0x1c7
 9351 34ed C5040000 		.4byte	.LASF517
 9352 34f1 01       		.byte	0x1
 9353 34f2 FA340000 		.4byte	0x34fa
 9354 34f6 05350000 		.4byte	0x3505
 9355 34fa 10       		.uleb128 0x10
 9356 34fb B44F0000 		.4byte	0x4fb4
 9357 34ff 0D       		.uleb128 0xd
 9358 3500 D24F0000 		.4byte	0x4fd2
 9359 3504 00       		.byte	0
 9360 3505 27       		.uleb128 0x27
 9361 3506 5D5B0000 		.4byte	.LASF153
 9362 350a 0B       		.byte	0xb
 9363 350b 5302     		.2byte	0x253
 9364 350d 3D350000 		.4byte	.LASF518
 9365 3511 AE4F0000 		.4byte	0x4fae
 9366 3515 01       		.byte	0x1
 9367 3516 1E350000 		.4byte	0x351e
 9368 351a 24350000 		.4byte	0x3524
 9369 351e 10       		.uleb128 0x10
 9370 351f B44F0000 		.4byte	0x4fb4
 9371 3523 00       		.byte	0
 9372 3524 27       		.uleb128 0x27
 9373 3525 47500000 		.4byte	.LASF155
 9374 3529 0B       		.byte	0xb
 9375 352a 5D02     		.2byte	0x25d
 9376 352c F95A0000 		.4byte	.LASF519
 9377 3530 9D470000 		.4byte	0x479d
 9378 3534 01       		.byte	0x1
 9379 3535 3D350000 		.4byte	0x353d
 9380 3539 43350000 		.4byte	0x3543
 9381 353d 10       		.uleb128 0x10
 9382 353e B44F0000 		.4byte	0x4fb4
 9383 3542 00       		.byte	0
 9384 3543 27       		.uleb128 0x27
 9385 3544 4B340000 		.4byte	.LASF157
 9386 3548 0B       		.byte	0xb
 9387 3549 6702     		.2byte	0x267
 9388 354b 42220000 		.4byte	.LASF520
 9389 354f 2C000000 		.4byte	0x2c
 9390 3553 01       		.byte	0x1
 9391 3554 5C350000 		.4byte	0x355c
 9392 3558 62350000 		.4byte	0x3562
 9393 355c 10       		.uleb128 0x10
 9394 355d B44F0000 		.4byte	0x4fb4
 9395 3561 00       		.byte	0
 9396 3562 28       		.uleb128 0x28
 9397 3563 0C1F0000 		.4byte	.LASF159
 9398 3567 0B       		.byte	0xb
 9399 3568 7602     		.2byte	0x276
 9400 356a 945F0000 		.4byte	.LASF521
 9401 356e 01       		.byte	0x1
 9402 356f 77350000 		.4byte	0x3577
 9403 3573 82350000 		.4byte	0x3582
 9404 3577 10       		.uleb128 0x10
 9405 3578 BA4F0000 		.4byte	0x4fba
ARM GAS  /tmp/cc9AvIGf.s 			page 167


 9406 357c 0D       		.uleb128 0xd
 9407 357d C04F0000 		.4byte	0x4fc0
 9408 3581 00       		.byte	0
 9409 3582 27       		.uleb128 0x27
 9410 3583 B1130000 		.4byte	.LASF161
 9411 3587 0B       		.byte	0xb
 9412 3588 8002     		.2byte	0x280
 9413 358a E4570000 		.4byte	.LASF522
 9414 358e 9D470000 		.4byte	0x479d
 9415 3592 01       		.byte	0x1
 9416 3593 9B350000 		.4byte	0x359b
 9417 3597 A6350000 		.4byte	0x35a6
 9418 359b 10       		.uleb128 0x10
 9419 359c BA4F0000 		.4byte	0x4fba
 9420 35a0 0D       		.uleb128 0xd
 9421 35a1 C04F0000 		.4byte	0x4fc0
 9422 35a5 00       		.byte	0
 9423 35a6 27       		.uleb128 0x27
 9424 35a7 FC390000 		.4byte	.LASF163
 9425 35ab 0B       		.byte	0xb
 9426 35ac 8A02     		.2byte	0x28a
 9427 35ae EC1C0000 		.4byte	.LASF523
 9428 35b2 25000000 		.4byte	0x25
 9429 35b6 01       		.byte	0x1
 9430 35b7 BF350000 		.4byte	0x35bf
 9431 35bb CA350000 		.4byte	0x35ca
 9432 35bf 10       		.uleb128 0x10
 9433 35c0 B44F0000 		.4byte	0x4fb4
 9434 35c4 0D       		.uleb128 0xd
 9435 35c5 8E4F0000 		.4byte	0x4f8e
 9436 35c9 00       		.byte	0
 9437 35ca 27       		.uleb128 0x27
 9438 35cb 76240000 		.4byte	.LASF165
 9439 35cf 0B       		.byte	0xb
 9440 35d0 9B02     		.2byte	0x29b
 9441 35d2 73220000 		.4byte	.LASF524
 9442 35d6 9D470000 		.4byte	0x479d
 9443 35da 01       		.byte	0x1
 9444 35db E3350000 		.4byte	0x35e3
 9445 35df EE350000 		.4byte	0x35ee
 9446 35e3 10       		.uleb128 0x10
 9447 35e4 B44F0000 		.4byte	0x4fb4
 9448 35e8 0D       		.uleb128 0xd
 9449 35e9 8E4F0000 		.4byte	0x4f8e
 9450 35ed 00       		.byte	0
 9451 35ee 27       		.uleb128 0x27
 9452 35ef 0D3E0000 		.4byte	.LASF167
 9453 35f3 0B       		.byte	0xb
 9454 35f4 AC02     		.2byte	0x2ac
 9455 35f6 3C570000 		.4byte	.LASF525
 9456 35fa C64F0000 		.4byte	0x4fc6
 9457 35fe 01       		.byte	0x1
 9458 35ff 07360000 		.4byte	0x3607
 9459 3603 12360000 		.4byte	0x3612
 9460 3607 10       		.uleb128 0x10
 9461 3608 B44F0000 		.4byte	0x4fb4
 9462 360c 0D       		.uleb128 0xd
ARM GAS  /tmp/cc9AvIGf.s 			page 168


 9463 360d CC320000 		.4byte	0x32cc
 9464 3611 00       		.byte	0
 9465 3612 27       		.uleb128 0x27
 9466 3613 0D3E0000 		.4byte	.LASF167
 9467 3617 0B       		.byte	0xb
 9468 3618 BC02     		.2byte	0x2bc
 9469 361a E2030000 		.4byte	.LASF526
 9470 361e C64F0000 		.4byte	0x4fc6
 9471 3622 01       		.byte	0x1
 9472 3623 2B360000 		.4byte	0x362b
 9473 3627 3B360000 		.4byte	0x363b
 9474 362b 10       		.uleb128 0x10
 9475 362c B44F0000 		.4byte	0x4fb4
 9476 3630 0D       		.uleb128 0xd
 9477 3631 D8320000 		.4byte	0x32d8
 9478 3635 0D       		.uleb128 0xd
 9479 3636 A54C0000 		.4byte	0x4ca5
 9480 363a 00       		.byte	0
 9481 363b 27       		.uleb128 0x27
 9482 363c 0D640000 		.4byte	.LASF170
 9483 3640 0B       		.byte	0xb
 9484 3641 E001     		.2byte	0x1e0
 9485 3643 3D4C0000 		.4byte	.LASF527
 9486 3647 5A360000 		.4byte	0x365a
 9487 364b 01       		.byte	0x1
 9488 364c 54360000 		.4byte	0x3654
 9489 3650 5A360000 		.4byte	0x365a
 9490 3654 10       		.uleb128 0x10
 9491 3655 BA4F0000 		.4byte	0x4fba
 9492 3659 00       		.byte	0
 9493 365a 07       		.uleb128 0x7
 9494 365b 57310000 		.4byte	0x3157
 9495 365f 29       		.uleb128 0x29
 9496 3660 656E6400 		.ascii	"end\000"
 9497 3664 0B       		.byte	0xb
 9498 3665 E401     		.2byte	0x1e4
 9499 3667 530D0000 		.4byte	.LASF528
 9500 366b 5A360000 		.4byte	0x365a
 9501 366f 01       		.byte	0x1
 9502 3670 78360000 		.4byte	0x3678
 9503 3674 7E360000 		.4byte	0x367e
 9504 3678 10       		.uleb128 0x10
 9505 3679 BA4F0000 		.4byte	0x4fba
 9506 367d 00       		.byte	0
 9507 367e 28       		.uleb128 0x28
 9508 367f D7110000 		.4byte	.LASF172
 9509 3683 0B       		.byte	0xb
 9510 3684 E801     		.2byte	0x1e8
 9511 3686 4E550000 		.4byte	.LASF529
 9512 368a 01       		.byte	0x1
 9513 368b 93360000 		.4byte	0x3693
 9514 368f 9E360000 		.4byte	0x369e
 9515 3693 10       		.uleb128 0x10
 9516 3694 BA4F0000 		.4byte	0x4fba
 9517 3698 0D       		.uleb128 0xd
 9518 3699 D84F0000 		.4byte	0x4fd8
 9519 369d 00       		.byte	0
ARM GAS  /tmp/cc9AvIGf.s 			page 169


 9520 369e 27       		.uleb128 0x27
 9521 369f 0D640000 		.4byte	.LASF170
 9522 36a3 0B       		.byte	0xb
 9523 36a4 EC01     		.2byte	0x1ec
 9524 36a6 693C0000 		.4byte	.LASF530
 9525 36aa BD360000 		.4byte	0x36bd
 9526 36ae 01       		.byte	0x1
 9527 36af B7360000 		.4byte	0x36b7
 9528 36b3 BD360000 		.4byte	0x36bd
 9529 36b7 10       		.uleb128 0x10
 9530 36b8 B44F0000 		.4byte	0x4fb4
 9531 36bc 00       		.byte	0
 9532 36bd 07       		.uleb128 0x7
 9533 36be 5C310000 		.4byte	0x315c
 9534 36c2 29       		.uleb128 0x29
 9535 36c3 656E6400 		.ascii	"end\000"
 9536 36c7 0B       		.byte	0xb
 9537 36c8 F201     		.2byte	0x1f2
 9538 36ca 39260000 		.4byte	.LASF531
 9539 36ce BD360000 		.4byte	0x36bd
 9540 36d2 01       		.byte	0x1
 9541 36d3 DB360000 		.4byte	0x36db
 9542 36d7 E1360000 		.4byte	0x36e1
 9543 36db 10       		.uleb128 0x10
 9544 36dc B44F0000 		.4byte	0x4fb4
 9545 36e0 00       		.byte	0
 9546 36e1 28       		.uleb128 0x28
 9547 36e2 D7110000 		.4byte	.LASF172
 9548 36e6 0B       		.byte	0xb
 9549 36e7 F601     		.2byte	0x1f6
 9550 36e9 DD0C0000 		.4byte	.LASF532
 9551 36ed 01       		.byte	0x1
 9552 36ee F6360000 		.4byte	0x36f6
 9553 36f2 01370000 		.4byte	0x3701
 9554 36f6 10       		.uleb128 0x10
 9555 36f7 B44F0000 		.4byte	0x4fb4
 9556 36fb 0D       		.uleb128 0xd
 9557 36fc DE4F0000 		.4byte	0x4fde
 9558 3700 00       		.byte	0
 9559 3701 2A       		.uleb128 0x2a
 9560 3702 F60F0000 		.4byte	.LASF178
 9561 3706 0B       		.byte	0xb
 9562 3707 FA01     		.2byte	0x1fa
 9563 3709 BA4F0000 		.4byte	0x4fba
 9564 370d 01       		.byte	0x1
 9565 370e 16370000 		.4byte	0x3716
 9566 3712 1C370000 		.4byte	0x371c
 9567 3716 10       		.uleb128 0x10
 9568 3717 BA4F0000 		.4byte	0x4fba
 9569 371b 00       		.byte	0
 9570 371c 07       		.uleb128 0x7
 9571 371d 48310000 		.4byte	0x3148
 9572 3721 2B       		.uleb128 0x2b
 9573 3722 351C0000 		.4byte	.LASF229
 9574 3726 30370000 		.4byte	0x3730
 9575 372a 00       		.byte	0
 9576 372b 07       		.uleb128 0x7
ARM GAS  /tmp/cc9AvIGf.s 			page 170


 9577 372c 30370000 		.4byte	0x3730
 9578 3730 0E       		.uleb128 0xe
 9579 3731 E2190000 		.4byte	.LASF533
 9580 3735 1C       		.byte	0x1c
 9581 3736 16       		.byte	0x16
 9582 3737 15       		.byte	0x15
 9583 3738 77390000 		.4byte	0x3977
 9584 373c 13       		.uleb128 0x13
 9585 373d 79010000 		.4byte	0x179
 9586 3741 00       		.byte	0
 9587 3742 16       		.uleb128 0x16
 9588 3743 BE1E0000 		.4byte	.LASF265
 9589 3747 16       		.byte	0x16
 9590 3748 19       		.byte	0x19
 9591 3749 294E0000 		.4byte	0x4e29
 9592 374d 00       		.byte	0
 9593 374e 16       		.uleb128 0x16
 9594 374f 5C300000 		.4byte	.LASF534
 9595 3753 16       		.byte	0x16
 9596 3754 1A       		.byte	0x1a
 9597 3755 10240000 		.4byte	0x2410
 9598 3759 04       		.byte	0x4
 9599 375a 16       		.uleb128 0x16
 9600 375b 6C1B0000 		.4byte	.LASF535
 9601 375f 16       		.byte	0x16
 9602 3760 1B       		.byte	0x1b
 9603 3761 F8060000 		.4byte	0x6f8
 9604 3765 08       		.byte	0x8
 9605 3766 16       		.uleb128 0x16
 9606 3767 62000000 		.4byte	.LASF536
 9607 376b 16       		.byte	0x16
 9608 376c 1C       		.byte	0x1c
 9609 376d 772E0000 		.4byte	0x2e77
 9610 3771 0C       		.byte	0xc
 9611 3772 16       		.uleb128 0x16
 9612 3773 F3190000 		.4byte	.LASF537
 9613 3777 16       		.byte	0x16
 9614 3778 1D       		.byte	0x1d
 9615 3779 6D040000 		.4byte	0x46d
 9616 377d 10       		.byte	0x10
 9617 377e 16       		.uleb128 0x16
 9618 377f D9560000 		.4byte	.LASF273
 9619 3783 16       		.byte	0x16
 9620 3784 1F       		.byte	0x1f
 9621 3785 FB300000 		.4byte	0x30fb
 9622 3789 14       		.byte	0x14
 9623 378a 18       		.uleb128 0x18
 9624 378b B83B0000 		.4byte	.LASF274
 9625 378f 16       		.byte	0x16
 9626 3790 22       		.byte	0x22
 9627 3791 315D0000 		.4byte	.LASF538
 9628 3795 C3000000 		.4byte	0xc3
 9629 3799 01       		.byte	0x1
 9630 379a A2370000 		.4byte	0x37a2
 9631 379e A8370000 		.4byte	0x37a8
 9632 37a2 10       		.uleb128 0x10
 9633 37a3 EF4F0000 		.4byte	0x4fef
ARM GAS  /tmp/cc9AvIGf.s 			page 171


 9634 37a7 00       		.byte	0
 9635 37a8 18       		.uleb128 0x18
 9636 37a9 DA5F0000 		.4byte	.LASF539
 9637 37ad 16       		.byte	0x16
 9638 37ae 23       		.byte	0x23
 9639 37af 60270000 		.4byte	.LASF540
 9640 37b3 F54F0000 		.4byte	0x4ff5
 9641 37b7 01       		.byte	0x1
 9642 37b8 C0370000 		.4byte	0x37c0
 9643 37bc C6370000 		.4byte	0x37c6
 9644 37c0 10       		.uleb128 0x10
 9645 37c1 EF4F0000 		.4byte	0x4fef
 9646 37c5 00       		.byte	0
 9647 37c6 18       		.uleb128 0x18
 9648 37c7 BC320000 		.4byte	.LASF541
 9649 37cb 16       		.byte	0x16
 9650 37cc 24       		.byte	0x24
 9651 37cd 34410000 		.4byte	.LASF542
 9652 37d1 FB4F0000 		.4byte	0x4ffb
 9653 37d5 01       		.byte	0x1
 9654 37d6 DE370000 		.4byte	0x37de
 9655 37da E4370000 		.4byte	0x37e4
 9656 37de 10       		.uleb128 0x10
 9657 37df EF4F0000 		.4byte	0x4fef
 9658 37e3 00       		.byte	0
 9659 37e4 18       		.uleb128 0x18
 9660 37e5 3C620000 		.4byte	.LASF543
 9661 37e9 16       		.byte	0x16
 9662 37ea 25       		.byte	0x25
 9663 37eb 59090000 		.4byte	.LASF544
 9664 37ef 9D470000 		.4byte	0x479d
 9665 37f3 01       		.byte	0x1
 9666 37f4 FC370000 		.4byte	0x37fc
 9667 37f8 02380000 		.4byte	0x3802
 9668 37fc 10       		.uleb128 0x10
 9669 37fd EF4F0000 		.4byte	0x4fef
 9670 3801 00       		.byte	0
 9671 3802 19       		.uleb128 0x19
 9672 3803 2F380000 		.4byte	.LASF545
 9673 3807 16       		.byte	0x16
 9674 3808 26       		.byte	0x26
 9675 3809 2B1F0000 		.4byte	.LASF546
 9676 380d 01       		.byte	0x1
 9677 380e 16380000 		.4byte	0x3816
 9678 3812 21380000 		.4byte	0x3821
 9679 3816 10       		.uleb128 0x10
 9680 3817 C64F0000 		.4byte	0x4fc6
 9681 381b 0D       		.uleb128 0xd
 9682 381c 9D470000 		.4byte	0x479d
 9683 3820 00       		.byte	0
 9684 3821 19       		.uleb128 0x19
 9685 3822 7F240000 		.4byte	.LASF547
 9686 3826 16       		.byte	0x16
 9687 3827 32       		.byte	0x32
 9688 3828 73170000 		.4byte	.LASF548
 9689 382c 01       		.byte	0x1
 9690 382d 35380000 		.4byte	0x3835
ARM GAS  /tmp/cc9AvIGf.s 			page 172


 9691 3831 40380000 		.4byte	0x3840
 9692 3835 10       		.uleb128 0x10
 9693 3836 C64F0000 		.4byte	0x4fc6
 9694 383a 0D       		.uleb128 0xd
 9695 383b 37000000 		.4byte	0x37
 9696 383f 00       		.byte	0
 9697 3840 19       		.uleb128 0x19
 9698 3841 F7250000 		.4byte	.LASF549
 9699 3845 16       		.byte	0x16
 9700 3846 33       		.byte	0x33
 9701 3847 5B190000 		.4byte	.LASF550
 9702 384b 01       		.byte	0x1
 9703 384c 54380000 		.4byte	0x3854
 9704 3850 5A380000 		.4byte	0x385a
 9705 3854 10       		.uleb128 0x10
 9706 3855 C64F0000 		.4byte	0x4fc6
 9707 3859 00       		.byte	0
 9708 385a 19       		.uleb128 0x19
 9709 385b C82C0000 		.4byte	.LASF551
 9710 385f 16       		.byte	0x16
 9711 3860 35       		.byte	0x35
 9712 3861 884B0000 		.4byte	.LASF552
 9713 3865 01       		.byte	0x1
 9714 3866 6E380000 		.4byte	0x386e
 9715 386a 79380000 		.4byte	0x3879
 9716 386e 10       		.uleb128 0x10
 9717 386f C64F0000 		.4byte	0x4fc6
 9718 3873 0D       		.uleb128 0xd
 9719 3874 37000000 		.4byte	0x37
 9720 3878 00       		.byte	0
 9721 3879 19       		.uleb128 0x19
 9722 387a 45190000 		.4byte	.LASF553
 9723 387e 16       		.byte	0x16
 9724 387f 36       		.byte	0x36
 9725 3880 7C590000 		.4byte	.LASF554
 9726 3884 01       		.byte	0x1
 9727 3885 8D380000 		.4byte	0x388d
 9728 3889 93380000 		.4byte	0x3893
 9729 388d 10       		.uleb128 0x10
 9730 388e C64F0000 		.4byte	0x4fc6
 9731 3892 00       		.byte	0
 9732 3893 18       		.uleb128 0x18
 9733 3894 DF480000 		.4byte	.LASF555
 9734 3898 16       		.byte	0x16
 9735 3899 38       		.byte	0x38
 9736 389a 58240000 		.4byte	.LASF556
 9737 389e 9D470000 		.4byte	0x479d
 9738 38a2 01       		.byte	0x1
 9739 38a3 AB380000 		.4byte	0x38ab
 9740 38a7 B6380000 		.4byte	0x38b6
 9741 38ab 10       		.uleb128 0x10
 9742 38ac C64F0000 		.4byte	0x4fc6
 9743 38b0 0D       		.uleb128 0xd
 9744 38b1 C54C0000 		.4byte	0x4cc5
 9745 38b5 00       		.byte	0
 9746 38b6 23       		.uleb128 0x23
 9747 38b7 9A480000 		.4byte	.LASF329
ARM GAS  /tmp/cc9AvIGf.s 			page 173


 9748 38bb 16       		.byte	0x16
 9749 38bc 3B       		.byte	0x3b
 9750 38bd AF160000 		.4byte	.LASF557
 9751 38c1 9D470000 		.4byte	0x479d
 9752 38c5 CD380000 		.4byte	0x38cd
 9753 38c9 E7380000 		.4byte	0x38e7
 9754 38cd 10       		.uleb128 0x10
 9755 38ce C64F0000 		.4byte	0x4fc6
 9756 38d2 0D       		.uleb128 0xd
 9757 38d3 464E0000 		.4byte	0x4e46
 9758 38d7 0D       		.uleb128 0xd
 9759 38d8 C3000000 		.4byte	0xc3
 9760 38dc 0D       		.uleb128 0xd
 9761 38dd C54C0000 		.4byte	0x4cc5
 9762 38e1 0D       		.uleb128 0xd
 9763 38e2 2C000000 		.4byte	0x2c
 9764 38e6 00       		.byte	0
 9765 38e7 23       		.uleb128 0x23
 9766 38e8 76600000 		.4byte	.LASF332
 9767 38ec 16       		.byte	0x16
 9768 38ed 3D       		.byte	0x3d
 9769 38ee A6620000 		.4byte	.LASF558
 9770 38f2 9D470000 		.4byte	0x479d
 9771 38f6 FE380000 		.4byte	0x38fe
 9772 38fa 18390000 		.4byte	0x3918
 9773 38fe 10       		.uleb128 0x10
 9774 38ff C64F0000 		.4byte	0x4fc6
 9775 3903 0D       		.uleb128 0xd
 9776 3904 524E0000 		.4byte	0x4e52
 9777 3908 0D       		.uleb128 0xd
 9778 3909 C3000000 		.4byte	0xc3
 9779 390d 0D       		.uleb128 0xd
 9780 390e 344E0000 		.4byte	0x4e34
 9781 3912 0D       		.uleb128 0xd
 9782 3913 2C000000 		.4byte	0x2c
 9783 3917 00       		.byte	0
 9784 3918 11       		.uleb128 0x11
 9785 3919 E2190000 		.4byte	.LASF533
 9786 391d 16       		.byte	0x16
 9787 391e 41       		.byte	0x41
 9788 391f C64F0000 		.4byte	0x4fc6
 9789 3923 01       		.byte	0x1
 9790 3924 2C390000 		.4byte	0x392c
 9791 3928 3C390000 		.4byte	0x393c
 9792 392c 10       		.uleb128 0x10
 9793 392d C64F0000 		.4byte	0x4fc6
 9794 3931 0D       		.uleb128 0xd
 9795 3932 C3000000 		.4byte	0xc3
 9796 3936 0D       		.uleb128 0xd
 9797 3937 9D470000 		.4byte	0x479d
 9798 393b 00       		.byte	0
 9799 393c 11       		.uleb128 0x11
 9800 393d C74C0000 		.4byte	.LASF559
 9801 3941 16       		.byte	0x16
 9802 3942 42       		.byte	0x42
 9803 3943 B4000000 		.4byte	0xb4
 9804 3947 01       		.byte	0x1
ARM GAS  /tmp/cc9AvIGf.s 			page 174


 9805 3948 50390000 		.4byte	0x3950
 9806 394c 5B390000 		.4byte	0x395b
 9807 3950 10       		.uleb128 0x10
 9808 3951 C64F0000 		.4byte	0x4fc6
 9809 3955 10       		.uleb128 0x10
 9810 3956 25000000 		.4byte	0x25
 9811 395a 00       		.byte	0
 9812 395b 31       		.uleb128 0x31
 9813 395c 034D0000 		.4byte	.LASF336
 9814 3960 16       		.byte	0x16
 9815 3961 45       		.byte	0x45
 9816 3962 E13A0000 		.4byte	.LASF560
 9817 3966 9D470000 		.4byte	0x479d
 9818 396a 01       		.byte	0x1
 9819 396b 0D       		.uleb128 0xd
 9820 396c 8E4F0000 		.4byte	0x4f8e
 9821 3970 0D       		.uleb128 0xd
 9822 3971 C3000000 		.4byte	0xc3
 9823 3975 00       		.byte	0
 9824 3976 00       		.byte	0
 9825 3977 07       		.uleb128 0x7
 9826 3978 E9300000 		.4byte	0x30e9
 9827 397c 0E       		.uleb128 0xe
 9828 397d 085E0000 		.4byte	.LASF561
 9829 3981 10       		.byte	0x10
 9830 3982 17       		.byte	0x17
 9831 3983 09       		.byte	0x9
 9832 3984 703A0000 		.4byte	0x3a70
 9833 3988 13       		.uleb128 0x13
 9834 3989 79010000 		.4byte	0x179
 9835 398d 00       		.byte	0
 9836 398e 16       		.uleb128 0x16
 9837 398f 611C0000 		.4byte	.LASF84
 9838 3993 17       		.byte	0x17
 9839 3994 0B       		.byte	0xb
 9840 3995 BE4B0000 		.4byte	0x4bbe
 9841 3999 00       		.byte	0
 9842 399a 19       		.uleb128 0x19
 9843 399b 1D4B0000 		.4byte	.LASF562
 9844 399f 17       		.byte	0x17
 9845 39a0 0E       		.byte	0xe
 9846 39a1 C7240000 		.4byte	.LASF563
 9847 39a5 01       		.byte	0x1
 9848 39a6 AE390000 		.4byte	0x39ae
 9849 39aa B4390000 		.4byte	0x39b4
 9850 39ae 10       		.uleb128 0x10
 9851 39af 06500000 		.4byte	0x5006
 9852 39b3 00       		.byte	0
 9853 39b4 19       		.uleb128 0x19
 9854 39b5 384D0000 		.4byte	.LASF348
 9855 39b9 17       		.byte	0x17
 9856 39ba 10       		.byte	0x10
 9857 39bb B2060000 		.4byte	.LASF564
 9858 39bf 01       		.byte	0x1
 9859 39c0 C8390000 		.4byte	0x39c8
 9860 39c4 CE390000 		.4byte	0x39ce
 9861 39c8 10       		.uleb128 0x10
ARM GAS  /tmp/cc9AvIGf.s 			page 175


 9862 39c9 06500000 		.4byte	0x5006
 9863 39cd 00       		.byte	0
 9864 39ce 19       		.uleb128 0x19
 9865 39cf 80270000 		.4byte	.LASF306
 9866 39d3 17       		.byte	0x17
 9867 39d4 11       		.byte	0x11
 9868 39d5 3A1C0000 		.4byte	.LASF565
 9869 39d9 01       		.byte	0x1
 9870 39da E2390000 		.4byte	0x39e2
 9871 39de E8390000 		.4byte	0x39e8
 9872 39e2 10       		.uleb128 0x10
 9873 39e3 06500000 		.4byte	0x5006
 9874 39e7 00       		.byte	0
 9875 39e8 19       		.uleb128 0x19
 9876 39e9 BA1F0000 		.4byte	.LASF24
 9877 39ed 17       		.byte	0x17
 9878 39ee 13       		.byte	0x13
 9879 39ef 90570000 		.4byte	.LASF566
 9880 39f3 01       		.byte	0x1
 9881 39f4 FC390000 		.4byte	0x39fc
 9882 39f8 023A0000 		.4byte	0x3a02
 9883 39fc 10       		.uleb128 0x10
 9884 39fd 06500000 		.4byte	0x5006
 9885 3a01 00       		.byte	0
 9886 3a02 19       		.uleb128 0x19
 9887 3a03 9E4B0000 		.4byte	.LASF25
 9888 3a07 17       		.byte	0x17
 9889 3a08 14       		.byte	0x14
 9890 3a09 822D0000 		.4byte	.LASF567
 9891 3a0d 01       		.byte	0x1
 9892 3a0e 163A0000 		.4byte	0x3a16
 9893 3a12 1C3A0000 		.4byte	0x3a1c
 9894 3a16 10       		.uleb128 0x10
 9895 3a17 06500000 		.4byte	0x5006
 9896 3a1b 00       		.byte	0
 9897 3a1c 18       		.uleb128 0x18
 9898 3a1d E4240000 		.4byte	.LASF48
 9899 3a21 17       		.byte	0x17
 9900 3a22 16       		.byte	0x16
 9901 3a23 93580000 		.4byte	.LASF568
 9902 3a27 0C500000 		.4byte	0x500c
 9903 3a2b 01       		.byte	0x1
 9904 3a2c 343A0000 		.4byte	0x3a34
 9905 3a30 3A3A0000 		.4byte	0x3a3a
 9906 3a34 10       		.uleb128 0x10
 9907 3a35 06500000 		.4byte	0x5006
 9908 3a39 00       		.byte	0
 9909 3a3a 11       		.uleb128 0x11
 9910 3a3b 085E0000 		.4byte	.LASF561
 9911 3a3f 17       		.byte	0x17
 9912 3a40 19       		.byte	0x19
 9913 3a41 06500000 		.4byte	0x5006
 9914 3a45 01       		.byte	0x1
 9915 3a46 4E3A0000 		.4byte	0x3a4e
 9916 3a4a 543A0000 		.4byte	0x3a54
 9917 3a4e 10       		.uleb128 0x10
 9918 3a4f 06500000 		.4byte	0x5006
ARM GAS  /tmp/cc9AvIGf.s 			page 176


 9919 3a53 00       		.byte	0
 9920 3a54 3D       		.uleb128 0x3d
 9921 3a55 085E0000 		.4byte	.LASF561
 9922 3a59 17       		.byte	0x17
 9923 3a5a 1A       		.byte	0x1a
 9924 3a5b 06500000 		.4byte	0x5006
 9925 3a5f 01       		.byte	0x1
 9926 3a60 643A0000 		.4byte	0x3a64
 9927 3a64 10       		.uleb128 0x10
 9928 3a65 06500000 		.4byte	0x5006
 9929 3a69 0D       		.uleb128 0xd
 9930 3a6a 9D470000 		.4byte	0x479d
 9931 3a6e 00       		.byte	0
 9932 3a6f 00       		.byte	0
 9933 3a70 0E       		.uleb128 0xe
 9934 3a71 941D0000 		.4byte	.LASF569
 9935 3a75 14       		.byte	0x14
 9936 3a76 18       		.byte	0x18
 9937 3a77 09       		.byte	0x9
 9938 3a78 463B0000 		.4byte	0x3b46
 9939 3a7c 13       		.uleb128 0x13
 9940 3a7d 79010000 		.4byte	0x179
 9941 3a81 00       		.byte	0
 9942 3a82 16       		.uleb128 0x16
 9943 3a83 611C0000 		.4byte	.LASF84
 9944 3a87 18       		.byte	0x18
 9945 3a88 0B       		.byte	0xb
 9946 3a89 7C390000 		.4byte	0x397c
 9947 3a8d 04       		.byte	0x4
 9948 3a8e 19       		.uleb128 0x19
 9949 3a8f 1D4B0000 		.4byte	.LASF562
 9950 3a93 18       		.byte	0x18
 9951 3a94 0E       		.byte	0xe
 9952 3a95 48620000 		.4byte	.LASF570
 9953 3a99 01       		.byte	0x1
 9954 3a9a A23A0000 		.4byte	0x3aa2
 9955 3a9e A83A0000 		.4byte	0x3aa8
 9956 3aa2 10       		.uleb128 0x10
 9957 3aa3 12500000 		.4byte	0x5012
 9958 3aa7 00       		.byte	0
 9959 3aa8 19       		.uleb128 0x19
 9960 3aa9 384D0000 		.4byte	.LASF348
 9961 3aad 18       		.byte	0x18
 9962 3aae 10       		.byte	0x10
 9963 3aaf 9A640000 		.4byte	.LASF571
 9964 3ab3 01       		.byte	0x1
 9965 3ab4 BC3A0000 		.4byte	0x3abc
 9966 3ab8 C23A0000 		.4byte	0x3ac2
 9967 3abc 10       		.uleb128 0x10
 9968 3abd 12500000 		.4byte	0x5012
 9969 3ac1 00       		.byte	0
 9970 3ac2 19       		.uleb128 0x19
 9971 3ac3 80270000 		.4byte	.LASF306
 9972 3ac7 18       		.byte	0x18
 9973 3ac8 11       		.byte	0x11
 9974 3ac9 D5470000 		.4byte	.LASF572
 9975 3acd 01       		.byte	0x1
ARM GAS  /tmp/cc9AvIGf.s 			page 177


 9976 3ace D63A0000 		.4byte	0x3ad6
 9977 3ad2 DC3A0000 		.4byte	0x3adc
 9978 3ad6 10       		.uleb128 0x10
 9979 3ad7 12500000 		.4byte	0x5012
 9980 3adb 00       		.byte	0
 9981 3adc 19       		.uleb128 0x19
 9982 3add BA1F0000 		.4byte	.LASF24
 9983 3ae1 18       		.byte	0x18
 9984 3ae2 13       		.byte	0x13
 9985 3ae3 D7180000 		.4byte	.LASF573
 9986 3ae7 01       		.byte	0x1
 9987 3ae8 F03A0000 		.4byte	0x3af0
 9988 3aec F63A0000 		.4byte	0x3af6
 9989 3af0 10       		.uleb128 0x10
 9990 3af1 12500000 		.4byte	0x5012
 9991 3af5 00       		.byte	0
 9992 3af6 19       		.uleb128 0x19
 9993 3af7 9E4B0000 		.4byte	.LASF25
 9994 3afb 18       		.byte	0x18
 9995 3afc 14       		.byte	0x14
 9996 3afd 5F1D0000 		.4byte	.LASF574
 9997 3b01 01       		.byte	0x1
 9998 3b02 0A3B0000 		.4byte	0x3b0a
 9999 3b06 103B0000 		.4byte	0x3b10
 10000 3b0a 10       		.uleb128 0x10
 10001 3b0b 12500000 		.4byte	0x5012
 10002 3b0f 00       		.byte	0
 10003 3b10 11       		.uleb128 0x11
 10004 3b11 941D0000 		.4byte	.LASF569
 10005 3b15 18       		.byte	0x18
 10006 3b16 17       		.byte	0x17
 10007 3b17 12500000 		.4byte	0x5012
 10008 3b1b 01       		.byte	0x1
 10009 3b1c 243B0000 		.4byte	0x3b24
 10010 3b20 2A3B0000 		.4byte	0x3b2a
 10011 3b24 10       		.uleb128 0x10
 10012 3b25 12500000 		.4byte	0x5012
 10013 3b29 00       		.byte	0
 10014 3b2a 3D       		.uleb128 0x3d
 10015 3b2b 941D0000 		.4byte	.LASF569
 10016 3b2f 18       		.byte	0x18
 10017 3b30 18       		.byte	0x18
 10018 3b31 12500000 		.4byte	0x5012
 10019 3b35 01       		.byte	0x1
 10020 3b36 3A3B0000 		.4byte	0x3b3a
 10021 3b3a 10       		.uleb128 0x10
 10022 3b3b 12500000 		.4byte	0x5012
 10023 3b3f 0D       		.uleb128 0xd
 10024 3b40 9D470000 		.4byte	0x479d
 10025 3b44 00       		.byte	0
 10026 3b45 00       		.byte	0
 10027 3b46 0E       		.uleb128 0xe
 10028 3b47 49440000 		.4byte	.LASF575
 10029 3b4b 18       		.byte	0x18
 10030 3b4c 19       		.byte	0x19
 10031 3b4d 09       		.byte	0x9
 10032 3b4e 283C0000 		.4byte	0x3c28
ARM GAS  /tmp/cc9AvIGf.s 			page 178


 10033 3b52 13       		.uleb128 0x13
 10034 3b53 79010000 		.4byte	0x179
 10035 3b57 00       		.byte	0
 10036 3b58 16       		.uleb128 0x16
 10037 3b59 94060000 		.4byte	.LASF576
 10038 3b5d 19       		.byte	0x19
 10039 3b5e 0B       		.byte	0xb
 10040 3b5f 2C000000 		.4byte	0x2c
 10041 3b63 00       		.byte	0
 10042 3b64 16       		.uleb128 0x16
 10043 3b65 CF120000 		.4byte	.LASF577
 10044 3b69 19       		.byte	0x19
 10045 3b6a 0C       		.byte	0xc
 10046 3b6b 703A0000 		.4byte	0x3a70
 10047 3b6f 04       		.byte	0x4
 10048 3b70 19       		.uleb128 0x19
 10049 3b71 1D4B0000 		.4byte	.LASF562
 10050 3b75 19       		.byte	0x19
 10051 3b76 0F       		.byte	0xf
 10052 3b77 FF060000 		.4byte	.LASF578
 10053 3b7b 01       		.byte	0x1
 10054 3b7c 843B0000 		.4byte	0x3b84
 10055 3b80 8A3B0000 		.4byte	0x3b8a
 10056 3b84 10       		.uleb128 0x10
 10057 3b85 18500000 		.4byte	0x5018
 10058 3b89 00       		.byte	0
 10059 3b8a 19       		.uleb128 0x19
 10060 3b8b 384D0000 		.4byte	.LASF348
 10061 3b8f 19       		.byte	0x19
 10062 3b90 11       		.byte	0x11
 10063 3b91 26370000 		.4byte	.LASF579
 10064 3b95 01       		.byte	0x1
 10065 3b96 9E3B0000 		.4byte	0x3b9e
 10066 3b9a A43B0000 		.4byte	0x3ba4
 10067 3b9e 10       		.uleb128 0x10
 10068 3b9f 18500000 		.4byte	0x5018
 10069 3ba3 00       		.byte	0
 10070 3ba4 19       		.uleb128 0x19
 10071 3ba5 80270000 		.4byte	.LASF306
 10072 3ba9 19       		.byte	0x19
 10073 3baa 12       		.byte	0x12
 10074 3bab 0C4D0000 		.4byte	.LASF580
 10075 3baf 01       		.byte	0x1
 10076 3bb0 B83B0000 		.4byte	0x3bb8
 10077 3bb4 BE3B0000 		.4byte	0x3bbe
 10078 3bb8 10       		.uleb128 0x10
 10079 3bb9 18500000 		.4byte	0x5018
 10080 3bbd 00       		.byte	0
 10081 3bbe 19       		.uleb128 0x19
 10082 3bbf BA1F0000 		.4byte	.LASF24
 10083 3bc3 19       		.byte	0x19
 10084 3bc4 14       		.byte	0x14
 10085 3bc5 DB400000 		.4byte	.LASF581
 10086 3bc9 01       		.byte	0x1
 10087 3bca D23B0000 		.4byte	0x3bd2
 10088 3bce D83B0000 		.4byte	0x3bd8
 10089 3bd2 10       		.uleb128 0x10
ARM GAS  /tmp/cc9AvIGf.s 			page 179


 10090 3bd3 18500000 		.4byte	0x5018
 10091 3bd7 00       		.byte	0
 10092 3bd8 19       		.uleb128 0x19
 10093 3bd9 9E4B0000 		.4byte	.LASF25
 10094 3bdd 19       		.byte	0x19
 10095 3bde 15       		.byte	0x15
 10096 3bdf B9450000 		.4byte	.LASF582
 10097 3be3 01       		.byte	0x1
 10098 3be4 EC3B0000 		.4byte	0x3bec
 10099 3be8 F23B0000 		.4byte	0x3bf2
 10100 3bec 10       		.uleb128 0x10
 10101 3bed 18500000 		.4byte	0x5018
 10102 3bf1 00       		.byte	0
 10103 3bf2 11       		.uleb128 0x11
 10104 3bf3 49440000 		.4byte	.LASF575
 10105 3bf7 19       		.byte	0x19
 10106 3bf8 18       		.byte	0x18
 10107 3bf9 18500000 		.4byte	0x5018
 10108 3bfd 01       		.byte	0x1
 10109 3bfe 063C0000 		.4byte	0x3c06
 10110 3c02 0C3C0000 		.4byte	0x3c0c
 10111 3c06 10       		.uleb128 0x10
 10112 3c07 18500000 		.4byte	0x5018
 10113 3c0b 00       		.byte	0
 10114 3c0c 3D       		.uleb128 0x3d
 10115 3c0d 49440000 		.4byte	.LASF575
 10116 3c11 19       		.byte	0x19
 10117 3c12 19       		.byte	0x19
 10118 3c13 18500000 		.4byte	0x5018
 10119 3c17 01       		.byte	0x1
 10120 3c18 1C3C0000 		.4byte	0x3c1c
 10121 3c1c 10       		.uleb128 0x10
 10122 3c1d 18500000 		.4byte	0x5018
 10123 3c21 0D       		.uleb128 0xd
 10124 3c22 9D470000 		.4byte	0x479d
 10125 3c26 00       		.byte	0
 10126 3c27 00       		.byte	0
 10127 3c28 0E       		.uleb128 0xe
 10128 3c29 6B100000 		.4byte	.LASF583
 10129 3c2d 04       		.byte	0x4
 10130 3c2e 0B       		.byte	0xb
 10131 3c2f 0F       		.byte	0xf
 10132 3c30 F5400000 		.4byte	0x40f5
 10133 3c34 13       		.uleb128 0x13
 10134 3c35 79010000 		.4byte	0x179
 10135 3c39 00       		.byte	0
 10136 3c3a 1F       		.uleb128 0x1f
 10137 3c3b F45A0000 		.4byte	.LASF87
 10138 3c3f 08       		.byte	0x8
 10139 3c40 0B       		.byte	0xb
 10140 3c41 11       		.byte	0x11
 10141 3c42 01       		.byte	0x1
 10142 3c43 7A3C0000 		.4byte	0x3c7a
 10143 3c47 16       		.uleb128 0x16
 10144 3c48 1D2D0000 		.4byte	.LASF85
 10145 3c4c 0B       		.byte	0xb
 10146 3c4d 12       		.byte	0x12
ARM GAS  /tmp/cc9AvIGf.s 			page 180


 10147 3c4e 1E500000 		.4byte	0x501e
 10148 3c52 00       		.byte	0
 10149 3c53 16       		.uleb128 0x16
 10150 3c54 FB190000 		.4byte	.LASF86
 10151 3c58 0B       		.byte	0xb
 10152 3c59 13       		.byte	0x13
 10153 3c5a 8F500000 		.4byte	0x508f
 10154 3c5e 04       		.byte	0x4
 10155 3c5f 20       		.uleb128 0x20
 10156 3c60 F45A0000 		.4byte	.LASF87
 10157 3c64 0B       		.byte	0xb
 10158 3c65 15       		.byte	0x15
 10159 3c66 1E500000 		.4byte	0x501e
 10160 3c6a 6E3C0000 		.4byte	0x3c6e
 10161 3c6e 10       		.uleb128 0x10
 10162 3c6f 1E500000 		.4byte	0x501e
 10163 3c73 0D       		.uleb128 0xd
 10164 3c74 5E4E0000 		.4byte	0x4e5e
 10165 3c78 00       		.byte	0
 10166 3c79 00       		.byte	0
 10167 3c7a 21       		.uleb128 0x21
 10168 3c7b 34130000 		.4byte	.LASF88
 10169 3c7f 0B       		.byte	0xb
 10170 3c80 8A01     		.2byte	0x18a
 10171 3c82 1E500000 		.4byte	0x501e
 10172 3c86 00       		.byte	0
 10173 3c87 25       		.uleb128 0x25
 10174 3c88 AB1F0000 		.4byte	.LASF89
 10175 3c8c 25       		.uleb128 0x25
 10176 3c8d A82E0000 		.4byte	.LASF179
 10177 3c91 25       		.uleb128 0x25
 10178 3c92 0E530000 		.4byte	.LASF105
 10179 3c96 25       		.uleb128 0x25
 10180 3c97 2A3F0000 		.4byte	.LASF114
 10181 3c9b 26       		.uleb128 0x26
 10182 3c9c 011A0000 		.4byte	.LASF123
 10183 3ca0 0B       		.byte	0xb
 10184 3ca1 8601     		.2byte	0x186
 10185 3ca3 24500000 		.4byte	0x5024
 10186 3ca7 26       		.uleb128 0x26
 10187 3ca8 AE120000 		.4byte	.LASF124
 10188 3cac 0B       		.byte	0xb
 10189 3cad 8701     		.2byte	0x187
 10190 3caf 3F500000 		.4byte	0x503f
 10191 3cb3 27       		.uleb128 0x27
 10192 3cb4 8A640000 		.4byte	.LASF125
 10193 3cb8 0B       		.byte	0xb
 10194 3cb9 8D01     		.2byte	0x18d
 10195 3cbb B5100000 		.4byte	.LASF584
 10196 3cbf 59500000 		.4byte	0x5059
 10197 3cc3 01       		.byte	0x1
 10198 3cc4 CC3C0000 		.4byte	0x3ccc
 10199 3cc8 D23C0000 		.4byte	0x3cd2
 10200 3ccc 10       		.uleb128 0x10
 10201 3ccd 5F500000 		.4byte	0x505f
 10202 3cd1 00       		.byte	0
 10203 3cd2 07       		.uleb128 0x7
ARM GAS  /tmp/cc9AvIGf.s 			page 181


 10204 3cd3 3A3C0000 		.4byte	0x3c3a
 10205 3cd7 27       		.uleb128 0x27
 10206 3cd8 845F0000 		.4byte	.LASF126
 10207 3cdc 0B       		.byte	0xb
 10208 3cdd 9101     		.2byte	0x191
 10209 3cdf D2000000 		.4byte	.LASF585
 10210 3ce3 9D470000 		.4byte	0x479d
 10211 3ce7 01       		.byte	0x1
 10212 3ce8 F03C0000 		.4byte	0x3cf0
 10213 3cec F63C0000 		.4byte	0x3cf6
 10214 3cf0 10       		.uleb128 0x10
 10215 3cf1 5F500000 		.4byte	0x505f
 10216 3cf5 00       		.byte	0
 10217 3cf6 27       		.uleb128 0x27
 10218 3cf7 FF1E0000 		.4byte	.LASF129
 10219 3cfb 0B       		.byte	0xb
 10220 3cfc 0302     		.2byte	0x203
 10221 3cfe E8110000 		.4byte	.LASF586
 10222 3d02 2C000000 		.4byte	0x2c
 10223 3d06 01       		.byte	0x1
 10224 3d07 0F3D0000 		.4byte	0x3d0f
 10225 3d0b 153D0000 		.4byte	0x3d15
 10226 3d0f 10       		.uleb128 0x10
 10227 3d10 5F500000 		.4byte	0x505f
 10228 3d14 00       		.byte	0
 10229 3d15 28       		.uleb128 0x28
 10230 3d16 D3480000 		.4byte	.LASF131
 10231 3d1a 0B       		.byte	0xb
 10232 3d1b 9701     		.2byte	0x197
 10233 3d1d F5470000 		.4byte	.LASF587
 10234 3d21 01       		.byte	0x1
 10235 3d22 2A3D0000 		.4byte	0x3d2a
 10236 3d26 353D0000 		.4byte	0x3d35
 10237 3d2a 10       		.uleb128 0x10
 10238 3d2b 65500000 		.4byte	0x5065
 10239 3d2f 0D       		.uleb128 0xd
 10240 3d30 6B500000 		.4byte	0x506b
 10241 3d34 00       		.byte	0
 10242 3d35 28       		.uleb128 0x28
 10243 3d36 38520000 		.4byte	.LASF132
 10244 3d3a 0B       		.byte	0xb
 10245 3d3b 9F01     		.2byte	0x19f
 10246 3d3d F54D0000 		.4byte	.LASF588
 10247 3d41 01       		.byte	0x1
 10248 3d42 4A3D0000 		.4byte	0x3d4a
 10249 3d46 553D0000 		.4byte	0x3d55
 10250 3d4a 10       		.uleb128 0x10
 10251 3d4b 65500000 		.4byte	0x5065
 10252 3d4f 0D       		.uleb128 0xd
 10253 3d50 6B500000 		.4byte	0x506b
 10254 3d54 00       		.byte	0
 10255 3d55 27       		.uleb128 0x27
 10256 3d56 DD280000 		.4byte	.LASF135
 10257 3d5a 0B       		.byte	0xb
 10258 3d5b 0E02     		.2byte	0x20e
 10259 3d5d 1D070000 		.4byte	.LASF589
 10260 3d61 9D470000 		.4byte	0x479d
ARM GAS  /tmp/cc9AvIGf.s 			page 182


 10261 3d65 01       		.byte	0x1
 10262 3d66 6E3D0000 		.4byte	0x3d6e
 10263 3d6a 793D0000 		.4byte	0x3d79
 10264 3d6e 10       		.uleb128 0x10
 10265 3d6f 65500000 		.4byte	0x5065
 10266 3d73 0D       		.uleb128 0xd
 10267 3d74 6B500000 		.4byte	0x506b
 10268 3d78 00       		.byte	0
 10269 3d79 27       		.uleb128 0x27
 10270 3d7a 11380000 		.4byte	.LASF137
 10271 3d7e 0B       		.byte	0xb
 10272 3d7f 1F02     		.2byte	0x21f
 10273 3d81 795B0000 		.4byte	.LASF590
 10274 3d85 25000000 		.4byte	0x25
 10275 3d89 01       		.byte	0x1
 10276 3d8a 923D0000 		.4byte	0x3d92
 10277 3d8e 9D3D0000 		.4byte	0x3d9d
 10278 3d92 10       		.uleb128 0x10
 10279 3d93 5F500000 		.4byte	0x505f
 10280 3d97 0D       		.uleb128 0xd
 10281 3d98 39500000 		.4byte	0x5039
 10282 3d9c 00       		.byte	0
 10283 3d9d 27       		.uleb128 0x27
 10284 3d9e 374E0000 		.4byte	.LASF139
 10285 3da2 0B       		.byte	0xb
 10286 3da3 2C02     		.2byte	0x22c
 10287 3da5 E81D0000 		.4byte	.LASF591
 10288 3da9 9D470000 		.4byte	0x479d
 10289 3dad 01       		.byte	0x1
 10290 3dae B63D0000 		.4byte	0x3db6
 10291 3db2 C13D0000 		.4byte	0x3dc1
 10292 3db6 10       		.uleb128 0x10
 10293 3db7 5F500000 		.4byte	0x505f
 10294 3dbb 0D       		.uleb128 0xd
 10295 3dbc 39500000 		.4byte	0x5039
 10296 3dc0 00       		.byte	0
 10297 3dc1 27       		.uleb128 0x27
 10298 3dc2 E1330000 		.4byte	.LASF141
 10299 3dc6 0B       		.byte	0xb
 10300 3dc7 3802     		.2byte	0x238
 10301 3dc9 52610000 		.4byte	.LASF592
 10302 3dcd 71500000 		.4byte	0x5071
 10303 3dd1 01       		.byte	0x1
 10304 3dd2 DA3D0000 		.4byte	0x3dda
 10305 3dd6 E53D0000 		.4byte	0x3de5
 10306 3dda 10       		.uleb128 0x10
 10307 3ddb 5F500000 		.4byte	0x505f
 10308 3ddf 0D       		.uleb128 0xd
 10309 3de0 9B3C0000 		.4byte	0x3c9b
 10310 3de4 00       		.byte	0
 10311 3de5 27       		.uleb128 0x27
 10312 3de6 E1330000 		.4byte	.LASF141
 10313 3dea 0B       		.byte	0xb
 10314 3deb 4402     		.2byte	0x244
 10315 3ded 43080000 		.4byte	.LASF593
 10316 3df1 71500000 		.4byte	0x5071
 10317 3df5 01       		.byte	0x1
ARM GAS  /tmp/cc9AvIGf.s 			page 183


 10318 3df6 FE3D0000 		.4byte	0x3dfe
 10319 3dfa 0E3E0000 		.4byte	0x3e0e
 10320 3dfe 10       		.uleb128 0x10
 10321 3dff 5F500000 		.4byte	0x505f
 10322 3e03 0D       		.uleb128 0xd
 10323 3e04 A73C0000 		.4byte	0x3ca7
 10324 3e08 0D       		.uleb128 0xd
 10325 3e09 A54C0000 		.4byte	0x4ca5
 10326 3e0d 00       		.byte	0
 10327 3e0e 27       		.uleb128 0x27
 10328 3e0f C20F0000 		.4byte	.LASF144
 10329 3e13 0B       		.byte	0xb
 10330 3e14 B301     		.2byte	0x1b3
 10331 3e16 EA440000 		.4byte	.LASF594
 10332 3e1a 2D3E0000 		.4byte	0x3e2d
 10333 3e1e 01       		.byte	0x1
 10334 3e1f 273E0000 		.4byte	0x3e27
 10335 3e23 2D3E0000 		.4byte	0x3e2d
 10336 3e27 10       		.uleb128 0x10
 10337 3e28 65500000 		.4byte	0x5065
 10338 3e2c 00       		.byte	0
 10339 3e2d 07       		.uleb128 0x7
 10340 3e2e 873C0000 		.4byte	0x3c87
 10341 3e32 27       		.uleb128 0x27
 10342 3e33 72300000 		.4byte	.LASF146
 10343 3e37 0B       		.byte	0xb
 10344 3e38 B701     		.2byte	0x1b7
 10345 3e3a A2560000 		.4byte	.LASF595
 10346 3e3e 2D3E0000 		.4byte	0x3e2d
 10347 3e42 01       		.byte	0x1
 10348 3e43 4B3E0000 		.4byte	0x3e4b
 10349 3e47 513E0000 		.4byte	0x3e51
 10350 3e4b 10       		.uleb128 0x10
 10351 3e4c 65500000 		.4byte	0x5065
 10352 3e50 00       		.byte	0
 10353 3e51 28       		.uleb128 0x28
 10354 3e52 C4640000 		.4byte	.LASF148
 10355 3e56 0B       		.byte	0xb
 10356 3e57 BB01     		.2byte	0x1bb
 10357 3e59 1F360000 		.4byte	.LASF596
 10358 3e5d 01       		.byte	0x1
 10359 3e5e 663E0000 		.4byte	0x3e66
 10360 3e62 713E0000 		.4byte	0x3e71
 10361 3e66 10       		.uleb128 0x10
 10362 3e67 65500000 		.4byte	0x5065
 10363 3e6b 0D       		.uleb128 0xd
 10364 3e6c 77500000 		.4byte	0x5077
 10365 3e70 00       		.byte	0
 10366 3e71 27       		.uleb128 0x27
 10367 3e72 C20F0000 		.4byte	.LASF144
 10368 3e76 0B       		.byte	0xb
 10369 3e77 BF01     		.2byte	0x1bf
 10370 3e79 B00E0000 		.4byte	.LASF597
 10371 3e7d 903E0000 		.4byte	0x3e90
 10372 3e81 01       		.byte	0x1
 10373 3e82 8A3E0000 		.4byte	0x3e8a
 10374 3e86 903E0000 		.4byte	0x3e90
ARM GAS  /tmp/cc9AvIGf.s 			page 184


 10375 3e8a 10       		.uleb128 0x10
 10376 3e8b 5F500000 		.4byte	0x505f
 10377 3e8f 00       		.byte	0
 10378 3e90 07       		.uleb128 0x7
 10379 3e91 8C3C0000 		.4byte	0x3c8c
 10380 3e95 27       		.uleb128 0x27
 10381 3e96 72300000 		.4byte	.LASF146
 10382 3e9a 0B       		.byte	0xb
 10383 3e9b C301     		.2byte	0x1c3
 10384 3e9d 2E580000 		.4byte	.LASF598
 10385 3ea1 903E0000 		.4byte	0x3e90
 10386 3ea5 01       		.byte	0x1
 10387 3ea6 AE3E0000 		.4byte	0x3eae
 10388 3eaa B43E0000 		.4byte	0x3eb4
 10389 3eae 10       		.uleb128 0x10
 10390 3eaf 5F500000 		.4byte	0x505f
 10391 3eb3 00       		.byte	0
 10392 3eb4 28       		.uleb128 0x28
 10393 3eb5 C4640000 		.4byte	.LASF148
 10394 3eb9 0B       		.byte	0xb
 10395 3eba C701     		.2byte	0x1c7
 10396 3ebc EC340000 		.4byte	.LASF599
 10397 3ec0 01       		.byte	0x1
 10398 3ec1 C93E0000 		.4byte	0x3ec9
 10399 3ec5 D43E0000 		.4byte	0x3ed4
 10400 3ec9 10       		.uleb128 0x10
 10401 3eca 5F500000 		.4byte	0x505f
 10402 3ece 0D       		.uleb128 0xd
 10403 3ecf 7D500000 		.4byte	0x507d
 10404 3ed3 00       		.byte	0
 10405 3ed4 27       		.uleb128 0x27
 10406 3ed5 5D5B0000 		.4byte	.LASF153
 10407 3ed9 0B       		.byte	0xb
 10408 3eda 5302     		.2byte	0x253
 10409 3edc 90200000 		.4byte	.LASF600
 10410 3ee0 59500000 		.4byte	0x5059
 10411 3ee4 01       		.byte	0x1
 10412 3ee5 ED3E0000 		.4byte	0x3eed
 10413 3ee9 F33E0000 		.4byte	0x3ef3
 10414 3eed 10       		.uleb128 0x10
 10415 3eee 5F500000 		.4byte	0x505f
 10416 3ef2 00       		.byte	0
 10417 3ef3 27       		.uleb128 0x27
 10418 3ef4 47500000 		.4byte	.LASF155
 10419 3ef8 0B       		.byte	0xb
 10420 3ef9 5D02     		.2byte	0x25d
 10421 3efb D2430000 		.4byte	.LASF601
 10422 3eff 9D470000 		.4byte	0x479d
 10423 3f03 01       		.byte	0x1
 10424 3f04 0C3F0000 		.4byte	0x3f0c
 10425 3f08 123F0000 		.4byte	0x3f12
 10426 3f0c 10       		.uleb128 0x10
 10427 3f0d 5F500000 		.4byte	0x505f
 10428 3f11 00       		.byte	0
 10429 3f12 27       		.uleb128 0x27
 10430 3f13 4B340000 		.4byte	.LASF157
 10431 3f17 0B       		.byte	0xb
ARM GAS  /tmp/cc9AvIGf.s 			page 185


 10432 3f18 6702     		.2byte	0x267
 10433 3f1a 42030000 		.4byte	.LASF602
 10434 3f1e 2C000000 		.4byte	0x2c
 10435 3f22 01       		.byte	0x1
 10436 3f23 2B3F0000 		.4byte	0x3f2b
 10437 3f27 313F0000 		.4byte	0x3f31
 10438 3f2b 10       		.uleb128 0x10
 10439 3f2c 5F500000 		.4byte	0x505f
 10440 3f30 00       		.byte	0
 10441 3f31 28       		.uleb128 0x28
 10442 3f32 0C1F0000 		.4byte	.LASF159
 10443 3f36 0B       		.byte	0xb
 10444 3f37 7602     		.2byte	0x276
 10445 3f39 E82A0000 		.4byte	.LASF603
 10446 3f3d 01       		.byte	0x1
 10447 3f3e 463F0000 		.4byte	0x3f46
 10448 3f42 513F0000 		.4byte	0x3f51
 10449 3f46 10       		.uleb128 0x10
 10450 3f47 65500000 		.4byte	0x5065
 10451 3f4b 0D       		.uleb128 0xd
 10452 3f4c 6B500000 		.4byte	0x506b
 10453 3f50 00       		.byte	0
 10454 3f51 27       		.uleb128 0x27
 10455 3f52 B1130000 		.4byte	.LASF161
 10456 3f56 0B       		.byte	0xb
 10457 3f57 8002     		.2byte	0x280
 10458 3f59 C63C0000 		.4byte	.LASF604
 10459 3f5d 9D470000 		.4byte	0x479d
 10460 3f61 01       		.byte	0x1
 10461 3f62 6A3F0000 		.4byte	0x3f6a
 10462 3f66 753F0000 		.4byte	0x3f75
 10463 3f6a 10       		.uleb128 0x10
 10464 3f6b 65500000 		.4byte	0x5065
 10465 3f6f 0D       		.uleb128 0xd
 10466 3f70 6B500000 		.4byte	0x506b
 10467 3f74 00       		.byte	0
 10468 3f75 27       		.uleb128 0x27
 10469 3f76 FC390000 		.4byte	.LASF163
 10470 3f7a 0B       		.byte	0xb
 10471 3f7b 8A02     		.2byte	0x28a
 10472 3f7d 9E2F0000 		.4byte	.LASF605
 10473 3f81 25000000 		.4byte	0x25
 10474 3f85 01       		.byte	0x1
 10475 3f86 8E3F0000 		.4byte	0x3f8e
 10476 3f8a 993F0000 		.4byte	0x3f99
 10477 3f8e 10       		.uleb128 0x10
 10478 3f8f 5F500000 		.4byte	0x505f
 10479 3f93 0D       		.uleb128 0xd
 10480 3f94 39500000 		.4byte	0x5039
 10481 3f98 00       		.byte	0
 10482 3f99 27       		.uleb128 0x27
 10483 3f9a 76240000 		.4byte	.LASF165
 10484 3f9e 0B       		.byte	0xb
 10485 3f9f 9B02     		.2byte	0x29b
 10486 3fa1 F2360000 		.4byte	.LASF606
 10487 3fa5 9D470000 		.4byte	0x479d
 10488 3fa9 01       		.byte	0x1
ARM GAS  /tmp/cc9AvIGf.s 			page 186


 10489 3faa B23F0000 		.4byte	0x3fb2
 10490 3fae BD3F0000 		.4byte	0x3fbd
 10491 3fb2 10       		.uleb128 0x10
 10492 3fb3 5F500000 		.4byte	0x505f
 10493 3fb7 0D       		.uleb128 0xd
 10494 3fb8 39500000 		.4byte	0x5039
 10495 3fbc 00       		.byte	0
 10496 3fbd 27       		.uleb128 0x27
 10497 3fbe 0D3E0000 		.4byte	.LASF167
 10498 3fc2 0B       		.byte	0xb
 10499 3fc3 AC02     		.2byte	0x2ac
 10500 3fc5 110E0000 		.4byte	.LASF607
 10501 3fc9 71500000 		.4byte	0x5071
 10502 3fcd 01       		.byte	0x1
 10503 3fce D63F0000 		.4byte	0x3fd6
 10504 3fd2 E13F0000 		.4byte	0x3fe1
 10505 3fd6 10       		.uleb128 0x10
 10506 3fd7 5F500000 		.4byte	0x505f
 10507 3fdb 0D       		.uleb128 0xd
 10508 3fdc 9B3C0000 		.4byte	0x3c9b
 10509 3fe0 00       		.byte	0
 10510 3fe1 27       		.uleb128 0x27
 10511 3fe2 0D3E0000 		.4byte	.LASF167
 10512 3fe6 0B       		.byte	0xb
 10513 3fe7 BC02     		.2byte	0x2bc
 10514 3fe9 A34A0000 		.4byte	.LASF608
 10515 3fed 71500000 		.4byte	0x5071
 10516 3ff1 01       		.byte	0x1
 10517 3ff2 FA3F0000 		.4byte	0x3ffa
 10518 3ff6 0A400000 		.4byte	0x400a
 10519 3ffa 10       		.uleb128 0x10
 10520 3ffb 5F500000 		.4byte	0x505f
 10521 3fff 0D       		.uleb128 0xd
 10522 4000 A73C0000 		.4byte	0x3ca7
 10523 4004 0D       		.uleb128 0xd
 10524 4005 A54C0000 		.4byte	0x4ca5
 10525 4009 00       		.byte	0
 10526 400a 27       		.uleb128 0x27
 10527 400b 0D640000 		.4byte	.LASF170
 10528 400f 0B       		.byte	0xb
 10529 4010 E001     		.2byte	0x1e0
 10530 4012 D3060000 		.4byte	.LASF609
 10531 4016 29400000 		.4byte	0x4029
 10532 401a 01       		.byte	0x1
 10533 401b 23400000 		.4byte	0x4023
 10534 401f 29400000 		.4byte	0x4029
 10535 4023 10       		.uleb128 0x10
 10536 4024 65500000 		.4byte	0x5065
 10537 4028 00       		.byte	0
 10538 4029 07       		.uleb128 0x7
 10539 402a 913C0000 		.4byte	0x3c91
 10540 402e 29       		.uleb128 0x29
 10541 402f 656E6400 		.ascii	"end\000"
 10542 4033 0B       		.byte	0xb
 10543 4034 E401     		.2byte	0x1e4
 10544 4036 64520000 		.4byte	.LASF610
 10545 403a 29400000 		.4byte	0x4029
ARM GAS  /tmp/cc9AvIGf.s 			page 187


 10546 403e 01       		.byte	0x1
 10547 403f 47400000 		.4byte	0x4047
 10548 4043 4D400000 		.4byte	0x404d
 10549 4047 10       		.uleb128 0x10
 10550 4048 65500000 		.4byte	0x5065
 10551 404c 00       		.byte	0
 10552 404d 28       		.uleb128 0x28
 10553 404e D7110000 		.4byte	.LASF172
 10554 4052 0B       		.byte	0xb
 10555 4053 E801     		.2byte	0x1e8
 10556 4055 F45E0000 		.4byte	.LASF611
 10557 4059 01       		.byte	0x1
 10558 405a 62400000 		.4byte	0x4062
 10559 405e 6D400000 		.4byte	0x406d
 10560 4062 10       		.uleb128 0x10
 10561 4063 65500000 		.4byte	0x5065
 10562 4067 0D       		.uleb128 0xd
 10563 4068 83500000 		.4byte	0x5083
 10564 406c 00       		.byte	0
 10565 406d 27       		.uleb128 0x27
 10566 406e 0D640000 		.4byte	.LASF170
 10567 4072 0B       		.byte	0xb
 10568 4073 EC01     		.2byte	0x1ec
 10569 4075 0B1A0000 		.4byte	.LASF612
 10570 4079 8C400000 		.4byte	0x408c
 10571 407d 01       		.byte	0x1
 10572 407e 86400000 		.4byte	0x4086
 10573 4082 8C400000 		.4byte	0x408c
 10574 4086 10       		.uleb128 0x10
 10575 4087 5F500000 		.4byte	0x505f
 10576 408b 00       		.byte	0
 10577 408c 07       		.uleb128 0x7
 10578 408d 963C0000 		.4byte	0x3c96
 10579 4091 29       		.uleb128 0x29
 10580 4092 656E6400 		.ascii	"end\000"
 10581 4096 0B       		.byte	0xb
 10582 4097 F201     		.2byte	0x1f2
 10583 4099 A2220000 		.4byte	.LASF613
 10584 409d 8C400000 		.4byte	0x408c
 10585 40a1 01       		.byte	0x1
 10586 40a2 AA400000 		.4byte	0x40aa
 10587 40a6 B0400000 		.4byte	0x40b0
 10588 40aa 10       		.uleb128 0x10
 10589 40ab 5F500000 		.4byte	0x505f
 10590 40af 00       		.byte	0
 10591 40b0 28       		.uleb128 0x28
 10592 40b1 D7110000 		.4byte	.LASF172
 10593 40b5 0B       		.byte	0xb
 10594 40b6 F601     		.2byte	0x1f6
 10595 40b8 C70D0000 		.4byte	.LASF614
 10596 40bc 01       		.byte	0x1
 10597 40bd C5400000 		.4byte	0x40c5
 10598 40c1 D0400000 		.4byte	0x40d0
 10599 40c5 10       		.uleb128 0x10
 10600 40c6 5F500000 		.4byte	0x505f
 10601 40ca 0D       		.uleb128 0xd
 10602 40cb 89500000 		.4byte	0x5089
ARM GAS  /tmp/cc9AvIGf.s 			page 188


 10603 40cf 00       		.byte	0
 10604 40d0 2A       		.uleb128 0x2a
 10605 40d1 F60F0000 		.4byte	.LASF178
 10606 40d5 0B       		.byte	0xb
 10607 40d6 FA01     		.2byte	0x1fa
 10608 40d8 65500000 		.4byte	0x5065
 10609 40dc 01       		.byte	0x1
 10610 40dd E5400000 		.4byte	0x40e5
 10611 40e1 EB400000 		.4byte	0x40eb
 10612 40e5 10       		.uleb128 0x10
 10613 40e6 65500000 		.4byte	0x5065
 10614 40ea 00       		.byte	0
 10615 40eb 2B       		.uleb128 0x2b
 10616 40ec 351C0000 		.4byte	.LASF229
 10617 40f0 0B240000 		.4byte	0x240b
 10618 40f4 00       		.byte	0
 10619 40f5 07       		.uleb128 0x7
 10620 40f6 0B240000 		.4byte	0x240b
 10621 40fa 07       		.uleb128 0x7
 10622 40fb 283C0000 		.4byte	0x3c28
 10623 40ff 3E       		.uleb128 0x3e
 10624 4100 6C3F0000 		.4byte	.LASF615
 10625 4104 6002     		.2byte	0x260
 10626 4106 09       		.byte	0x9
 10627 4107 22       		.byte	0x22
 10628 4108 F1460000 		.4byte	0x46f1
 10629 410c 1F       		.uleb128 0x1f
 10630 410d F2130000 		.4byte	.LASF616
 10631 4111 24       		.byte	0x24
 10632 4112 09       		.byte	0x9
 10633 4113 25       		.byte	0x25
 10634 4114 01       		.byte	0x1
 10635 4115 6E410000 		.4byte	0x416e
 10636 4119 16       		.uleb128 0x16
 10637 411a 1D2D0000 		.4byte	.LASF85
 10638 411e 09       		.byte	0x9
 10639 411f 26       		.byte	0x26
 10640 4120 99500000 		.4byte	0x5099
 10641 4124 00       		.byte	0
 10642 4125 16       		.uleb128 0x16
 10643 4126 56270000 		.4byte	.LASF617
 10644 412a 09       		.byte	0x9
 10645 412b 27       		.byte	0x27
 10646 412c 6D040000 		.4byte	0x46d
 10647 4130 04       		.byte	0x4
 10648 4131 16       		.uleb128 0x16
 10649 4132 46310000 		.4byte	.LASF618
 10650 4136 09       		.byte	0x9
 10651 4137 28       		.byte	0x28
 10652 4138 71500000 		.4byte	0x5071
 10653 413c 08       		.byte	0x8
 10654 413d 16       		.uleb128 0x16
 10655 413e E5130000 		.4byte	.LASF479
 10656 4142 09       		.byte	0x9
 10657 4143 29       		.byte	0x29
 10658 4144 71470000 		.4byte	0x4771
 10659 4148 0C       		.byte	0xc
ARM GAS  /tmp/cc9AvIGf.s 			page 189


 10660 4149 16       		.uleb128 0x16
 10661 414a B4390000 		.4byte	.LASF480
 10662 414e 09       		.byte	0x9
 10663 414f 2A       		.byte	0x2a
 10664 4150 71470000 		.4byte	0x4771
 10665 4154 0E       		.byte	0xe
 10666 4155 16       		.uleb128 0x16
 10667 4156 65490000 		.4byte	.LASF477
 10668 415a 09       		.byte	0x9
 10669 415b 2B       		.byte	0x2b
 10670 415c 434F0000 		.4byte	0x4f43
 10671 4160 10       		.byte	0x10
 10672 4161 16       		.uleb128 0x16
 10673 4162 6B310000 		.4byte	.LASF492
 10674 4166 09       		.byte	0x9
 10675 4167 2C       		.byte	0x2c
 10676 4168 66470000 		.4byte	0x4766
 10677 416c 20       		.byte	0x20
 10678 416d 00       		.byte	0
 10679 416e 13       		.uleb128 0x13
 10680 416f 79010000 		.4byte	0x179
 10681 4173 00       		.byte	0
 10682 4174 16       		.uleb128 0x16
 10683 4175 23260000 		.4byte	.LASF619
 10684 4179 09       		.byte	0x9
 10685 417a 30       		.byte	0x30
 10686 417b 294E0000 		.4byte	0x4e29
 10687 417f 00       		.byte	0
 10688 4180 16       		.uleb128 0x16
 10689 4181 770B0000 		.4byte	.LASF620
 10690 4185 09       		.byte	0x9
 10691 4186 31       		.byte	0x31
 10692 4187 E9300000 		.4byte	0x30e9
 10693 418b 04       		.byte	0x4
 10694 418c 16       		.uleb128 0x16
 10695 418d 2B540000 		.4byte	.LASF621
 10696 4191 09       		.byte	0x9
 10697 4192 32       		.byte	0x32
 10698 4193 F0170000 		.4byte	0x17f0
 10699 4197 08       		.byte	0x8
 10700 4198 16       		.uleb128 0x16
 10701 4199 51310000 		.4byte	.LASF622
 10702 419d 09       		.byte	0x9
 10703 419e 33       		.byte	0x33
 10704 419f 283C0000 		.4byte	0x3c28
 10705 41a3 0C       		.byte	0xc
 10706 41a4 16       		.uleb128 0x16
 10707 41a5 A2330000 		.4byte	.LASF623
 10708 41a9 09       		.byte	0x9
 10709 41aa 34       		.byte	0x34
 10710 41ab 463B0000 		.4byte	0x3b46
 10711 41af 10       		.byte	0x10
 10712 41b0 16       		.uleb128 0x16
 10713 41b1 5B120000 		.4byte	.LASF624
 10714 41b5 09       		.byte	0x9
 10715 41b6 39       		.byte	0x39
 10716 41b7 C21C0000 		.4byte	0x1cc2
ARM GAS  /tmp/cc9AvIGf.s 			page 190


 10717 41bb 28       		.byte	0x28
 10718 41bc 16       		.uleb128 0x16
 10719 41bd 02240000 		.4byte	.LASF625
 10720 41c1 09       		.byte	0x9
 10721 41c2 3A       		.byte	0x3a
 10722 41c3 B4000000 		.4byte	0xb4
 10723 41c7 58       		.byte	0x58
 10724 41c8 16       		.uleb128 0x16
 10725 41c9 21100000 		.4byte	.LASF626
 10726 41cd 09       		.byte	0x9
 10727 41ce 3B       		.byte	0x3b
 10728 41cf 2C000000 		.4byte	0x2c
 10729 41d3 5C       		.byte	0x5c
 10730 41d4 16       		.uleb128 0x16
 10731 41d5 17540000 		.4byte	.LASF627
 10732 41d9 09       		.byte	0x9
 10733 41da 3C       		.byte	0x3c
 10734 41db 0F4F0000 		.4byte	0x4f0f
 10735 41df 60       		.byte	0x60
 10736 41e0 16       		.uleb128 0x16
 10737 41e1 112A0000 		.4byte	.LASF628
 10738 41e5 09       		.byte	0x9
 10739 41e6 3D       		.byte	0x3d
 10740 41e7 392C0000 		.4byte	0x2c39
 10741 41eb 64       		.byte	0x64
 10742 41ec 16       		.uleb128 0x16
 10743 41ed C45F0000 		.4byte	.LASF629
 10744 41f1 09       		.byte	0x9
 10745 41f2 3E       		.byte	0x3e
 10746 41f3 30370000 		.4byte	0x3730
 10747 41f7 68       		.byte	0x68
 10748 41f8 16       		.uleb128 0x16
 10749 41f9 FF490000 		.4byte	.LASF630
 10750 41fd 09       		.byte	0x9
 10751 41fe 3F       		.byte	0x3f
 10752 41ff F1460000 		.4byte	0x46f1
 10753 4203 84       		.byte	0x84
 10754 4204 16       		.uleb128 0x16
 10755 4205 CC030000 		.4byte	.LASF631
 10756 4209 09       		.byte	0x9
 10757 420a 40       		.byte	0x40
 10758 420b 04470000 		.4byte	0x4704
 10759 420f 94       		.byte	0x94
 10760 4210 16       		.uleb128 0x16
 10761 4211 E1640000 		.4byte	.LASF632
 10762 4215 09       		.byte	0x9
 10763 4216 41       		.byte	0x41
 10764 4217 F3500000 		.4byte	0x50f3
 10765 421b CC       		.byte	0xcc
 10766 421c 16       		.uleb128 0x16
 10767 421d EE320000 		.4byte	.LASF633
 10768 4221 09       		.byte	0x9
 10769 4222 42       		.byte	0x42
 10770 4223 09510000 		.4byte	0x5109
 10771 4227 F4       		.byte	0xf4
 10772 4228 3F       		.uleb128 0x3f
 10773 4229 FB200000 		.4byte	.LASF634
ARM GAS  /tmp/cc9AvIGf.s 			page 191


 10774 422d 09       		.byte	0x9
 10775 422e 56       		.byte	0x56
 10776 422f 5C310000 		.4byte	0x315c
 10777 4233 4802     		.2byte	0x248
 10778 4235 3F       		.uleb128 0x3f
 10779 4236 1C620000 		.4byte	.LASF635
 10780 423a 09       		.byte	0x9
 10781 423b 57       		.byte	0x57
 10782 423c 83240000 		.4byte	0x2483
 10783 4240 4C02     		.2byte	0x24c
 10784 4242 3F       		.uleb128 0x3f
 10785 4243 474E0000 		.4byte	.LASF636
 10786 4247 09       		.byte	0x9
 10787 4248 58       		.byte	0x58
 10788 4249 410A0000 		.4byte	0xa41
 10789 424d 5002     		.2byte	0x250
 10790 424f 3F       		.uleb128 0x3f
 10791 4250 DE5C0000 		.4byte	.LASF637
 10792 4254 09       		.byte	0x9
 10793 4255 59       		.byte	0x59
 10794 4256 6D040000 		.4byte	0x46d
 10795 425a 5402     		.2byte	0x254
 10796 425c 3F       		.uleb128 0x3f
 10797 425d 0A260000 		.4byte	.LASF483
 10798 4261 09       		.byte	0x9
 10799 4262 5C       		.byte	0x5c
 10800 4263 9D470000 		.4byte	0x479d
 10801 4267 5802     		.2byte	0x258
 10802 4269 3F       		.uleb128 0x3f
 10803 426a 245B0000 		.4byte	.LASF638
 10804 426e 09       		.byte	0x9
 10805 426f 5D       		.byte	0x5d
 10806 4270 2C000000 		.4byte	0x2c
 10807 4274 5C02     		.2byte	0x25c
 10808 4276 1B       		.uleb128 0x1b
 10809 4277 30260000 		.4byte	.LASF639
 10810 427b 09       		.byte	0x9
 10811 427c 60       		.byte	0x60
 10812 427d FF400000 		.4byte	0x40ff
 10813 4281 01       		.byte	0x1
 10814 4282 1B       		.uleb128 0x1b
 10815 4283 0E4B0000 		.4byte	.LASF640
 10816 4287 09       		.byte	0x9
 10817 4288 61       		.byte	0x61
 10818 4289 87470000 		.4byte	0x4787
 10819 428d 01       		.byte	0x1
 10820 428e 1B       		.uleb128 0x1b
 10821 428f 350B0000 		.4byte	.LASF641
 10822 4293 09       		.byte	0x9
 10823 4294 62       		.byte	0x62
 10824 4295 87470000 		.4byte	0x4787
 10825 4299 01       		.byte	0x1
 10826 429a 18       		.uleb128 0x18
 10827 429b 94610000 		.4byte	.LASF642
 10828 429f 09       		.byte	0x9
 10829 42a0 65       		.byte	0x65
 10830 42a1 383F0000 		.4byte	.LASF643
ARM GAS  /tmp/cc9AvIGf.s 			page 192


 10831 42a5 C3000000 		.4byte	0xc3
 10832 42a9 01       		.byte	0x1
 10833 42aa B2420000 		.4byte	0x42b2
 10834 42ae B8420000 		.4byte	0x42b8
 10835 42b2 10       		.uleb128 0x10
 10836 42b3 19510000 		.4byte	0x5119
 10837 42b7 00       		.byte	0
 10838 42b8 18       		.uleb128 0x18
 10839 42b9 93120000 		.4byte	.LASF644
 10840 42bd 09       		.byte	0x9
 10841 42be 66       		.byte	0x66
 10842 42bf 411A0000 		.4byte	.LASF645
 10843 42c3 1F510000 		.4byte	0x511f
 10844 42c7 01       		.byte	0x1
 10845 42c8 D0420000 		.4byte	0x42d0
 10846 42cc D6420000 		.4byte	0x42d6
 10847 42d0 10       		.uleb128 0x10
 10848 42d1 19510000 		.4byte	0x5119
 10849 42d5 00       		.byte	0
 10850 42d6 18       		.uleb128 0x18
 10851 42d7 6D430000 		.4byte	.LASF646
 10852 42db 09       		.byte	0x9
 10853 42dc 67       		.byte	0x67
 10854 42dd 752C0000 		.4byte	.LASF647
 10855 42e1 25510000 		.4byte	0x5125
 10856 42e5 01       		.byte	0x1
 10857 42e6 EE420000 		.4byte	0x42ee
 10858 42ea F4420000 		.4byte	0x42f4
 10859 42ee 10       		.uleb128 0x10
 10860 42ef 19510000 		.4byte	0x5119
 10861 42f3 00       		.byte	0
 10862 42f4 18       		.uleb128 0x18
 10863 42f5 5C310000 		.4byte	.LASF648
 10864 42f9 09       		.byte	0x9
 10865 42fa 68       		.byte	0x68
 10866 42fb 07560000 		.4byte	.LASF649
 10867 42ff 2B510000 		.4byte	0x512b
 10868 4303 01       		.byte	0x1
 10869 4304 0C430000 		.4byte	0x430c
 10870 4308 12430000 		.4byte	0x4312
 10871 430c 10       		.uleb128 0x10
 10872 430d 19510000 		.4byte	0x5119
 10873 4311 00       		.byte	0
 10874 4312 18       		.uleb128 0x18
 10875 4313 B6120000 		.4byte	.LASF650
 10876 4317 09       		.byte	0x9
 10877 4318 69       		.byte	0x69
 10878 4319 A2250000 		.4byte	.LASF651
 10879 431d 234E0000 		.4byte	0x4e23
 10880 4321 01       		.byte	0x1
 10881 4322 2A430000 		.4byte	0x432a
 10882 4326 30430000 		.4byte	0x4330
 10883 432a 10       		.uleb128 0x10
 10884 432b 31510000 		.4byte	0x5131
 10885 432f 00       		.byte	0
 10886 4330 18       		.uleb128 0x18
 10887 4331 240F0000 		.4byte	.LASF652
ARM GAS  /tmp/cc9AvIGf.s 			page 193


 10888 4335 09       		.byte	0x9
 10889 4336 6A       		.byte	0x6a
 10890 4337 96320000 		.4byte	.LASF653
 10891 433b 234E0000 		.4byte	0x4e23
 10892 433f 01       		.byte	0x1
 10893 4340 48430000 		.4byte	0x4348
 10894 4344 4E430000 		.4byte	0x434e
 10895 4348 10       		.uleb128 0x10
 10896 4349 31510000 		.4byte	0x5131
 10897 434d 00       		.byte	0
 10898 434e 18       		.uleb128 0x18
 10899 434f 8B160000 		.4byte	.LASF654
 10900 4353 09       		.byte	0x9
 10901 4354 6B       		.byte	0x6b
 10902 4355 0D4F0000 		.4byte	.LASF655
 10903 4359 9D470000 		.4byte	0x479d
 10904 435d 01       		.byte	0x1
 10905 435e 66430000 		.4byte	0x4366
 10906 4362 6C430000 		.4byte	0x436c
 10907 4366 10       		.uleb128 0x10
 10908 4367 19510000 		.4byte	0x5119
 10909 436b 00       		.byte	0
 10910 436c 19       		.uleb128 0x19
 10911 436d 1D4B0000 		.4byte	.LASF562
 10912 4371 09       		.byte	0x9
 10913 4372 6D       		.byte	0x6d
 10914 4373 B6600000 		.4byte	.LASF656
 10915 4377 01       		.byte	0x1
 10916 4378 80430000 		.4byte	0x4380
 10917 437c A4430000 		.4byte	0x43a4
 10918 4380 10       		.uleb128 0x10
 10919 4381 31510000 		.4byte	0x5131
 10920 4385 0D       		.uleb128 0xd
 10921 4386 B4000000 		.4byte	0xb4
 10922 438a 0D       		.uleb128 0xd
 10923 438b 2C000000 		.4byte	0x2c
 10924 438f 0D       		.uleb128 0xd
 10925 4390 392C0000 		.4byte	0x2c39
 10926 4394 0D       		.uleb128 0xd
 10927 4395 B4000000 		.4byte	0xb4
 10928 4399 0D       		.uleb128 0xd
 10929 439a 2C000000 		.4byte	0x2c
 10930 439e 0D       		.uleb128 0xd
 10931 439f 392C0000 		.4byte	0x2c39
 10932 43a3 00       		.byte	0
 10933 43a4 19       		.uleb128 0x19
 10934 43a5 95330000 		.4byte	.LASF657
 10935 43a9 09       		.byte	0x9
 10936 43aa 71       		.byte	0x71
 10937 43ab B0030000 		.4byte	.LASF658
 10938 43af 01       		.byte	0x1
 10939 43b0 B8430000 		.4byte	0x43b8
 10940 43b4 BE430000 		.4byte	0x43be
 10941 43b8 10       		.uleb128 0x10
 10942 43b9 31510000 		.4byte	0x5131
 10943 43bd 00       		.byte	0
 10944 43be 19       		.uleb128 0x19
ARM GAS  /tmp/cc9AvIGf.s 			page 194


 10945 43bf D1150000 		.4byte	.LASF659
 10946 43c3 09       		.byte	0x9
 10947 43c4 72       		.byte	0x72
 10948 43c5 70160000 		.4byte	.LASF660
 10949 43c9 01       		.byte	0x1
 10950 43ca D2430000 		.4byte	0x43d2
 10951 43ce D8430000 		.4byte	0x43d8
 10952 43d2 10       		.uleb128 0x10
 10953 43d3 31510000 		.4byte	0x5131
 10954 43d7 00       		.byte	0
 10955 43d8 19       		.uleb128 0x19
 10956 43d9 A64B0000 		.4byte	.LASF661
 10957 43dd 09       		.byte	0x9
 10958 43de 73       		.byte	0x73
 10959 43df 95430000 		.4byte	.LASF662
 10960 43e3 01       		.byte	0x1
 10961 43e4 EC430000 		.4byte	0x43ec
 10962 43e8 F2430000 		.4byte	0x43f2
 10963 43ec 10       		.uleb128 0x10
 10964 43ed 31510000 		.4byte	0x5131
 10965 43f1 00       		.byte	0
 10966 43f2 19       		.uleb128 0x19
 10967 43f3 8A410000 		.4byte	.LASF663
 10968 43f7 09       		.byte	0x9
 10969 43f8 74       		.byte	0x74
 10970 43f9 C8250000 		.4byte	.LASF664
 10971 43fd 01       		.byte	0x1
 10972 43fe 06440000 		.4byte	0x4406
 10973 4402 11440000 		.4byte	0x4411
 10974 4406 10       		.uleb128 0x10
 10975 4407 31510000 		.4byte	0x5131
 10976 440b 0D       		.uleb128 0xd
 10977 440c 9D470000 		.4byte	0x479d
 10978 4410 00       		.byte	0
 10979 4411 18       		.uleb128 0x18
 10980 4412 E7190000 		.4byte	.LASF665
 10981 4416 09       		.byte	0x9
 10982 4417 76       		.byte	0x76
 10983 4418 6E120000 		.4byte	.LASF666
 10984 441c 9D470000 		.4byte	0x479d
 10985 4420 01       		.byte	0x1
 10986 4421 29440000 		.4byte	0x4429
 10987 4425 34440000 		.4byte	0x4434
 10988 4429 10       		.uleb128 0x10
 10989 442a 31510000 		.4byte	0x5131
 10990 442e 0D       		.uleb128 0xd
 10991 442f C3000000 		.4byte	0xc3
 10992 4433 00       		.byte	0
 10993 4434 18       		.uleb128 0x18
 10994 4435 21380000 		.4byte	.LASF667
 10995 4439 09       		.byte	0x9
 10996 443a 77       		.byte	0x77
 10997 443b FA100000 		.4byte	.LASF668
 10998 443f 9D470000 		.4byte	0x479d
 10999 4443 01       		.byte	0x1
 11000 4444 4C440000 		.4byte	0x444c
 11001 4448 5C440000 		.4byte	0x445c
ARM GAS  /tmp/cc9AvIGf.s 			page 195


 11002 444c 10       		.uleb128 0x10
 11003 444d 31510000 		.4byte	0x5131
 11004 4451 0D       		.uleb128 0xd
 11005 4452 C3000000 		.4byte	0xc3
 11006 4456 0D       		.uleb128 0xd
 11007 4457 9D470000 		.4byte	0x479d
 11008 445b 00       		.byte	0
 11009 445c 40       		.uleb128 0x40
 11010 445d 61646400 		.ascii	"add\000"
 11011 4461 09       		.byte	0x9
 11012 4462 79       		.byte	0x79
 11013 4463 8E5A0000 		.4byte	.LASF669
 11014 4467 01       		.byte	0x1
 11015 4468 70440000 		.4byte	0x4470
 11016 446c 7B440000 		.4byte	0x447b
 11017 4470 10       		.uleb128 0x10
 11018 4471 31510000 		.4byte	0x5131
 11019 4475 0D       		.uleb128 0xd
 11020 4476 E94F0000 		.4byte	0x4fe9
 11021 447a 00       		.byte	0
 11022 447b 40       		.uleb128 0x40
 11023 447c 61646400 		.ascii	"add\000"
 11024 4480 09       		.byte	0x9
 11025 4481 7A       		.byte	0x7a
 11026 4482 A8470000 		.4byte	.LASF670
 11027 4486 01       		.byte	0x1
 11028 4487 8F440000 		.4byte	0x448f
 11029 448b 9A440000 		.4byte	0x449a
 11030 448f 10       		.uleb128 0x10
 11031 4490 31510000 		.4byte	0x5131
 11032 4494 0D       		.uleb128 0xd
 11033 4495 5E4E0000 		.4byte	0x4e5e
 11034 4499 00       		.byte	0
 11035 449a 40       		.uleb128 0x40
 11036 449b 61646400 		.ascii	"add\000"
 11037 449f 09       		.byte	0x9
 11038 44a0 7B       		.byte	0x7b
 11039 44a1 6F580000 		.4byte	.LASF671
 11040 44a5 01       		.byte	0x1
 11041 44a6 AE440000 		.4byte	0x44ae
 11042 44aa B9440000 		.4byte	0x44b9
 11043 44ae 10       		.uleb128 0x10
 11044 44af 31510000 		.4byte	0x5131
 11045 44b3 0D       		.uleb128 0xd
 11046 44b4 234E0000 		.4byte	0x4e23
 11047 44b8 00       		.byte	0
 11048 44b9 18       		.uleb128 0x18
 11049 44ba 9A480000 		.4byte	.LASF329
 11050 44be 09       		.byte	0x9
 11051 44bf 7D       		.byte	0x7d
 11052 44c0 5D4E0000 		.4byte	.LASF672
 11053 44c4 9D470000 		.4byte	0x479d
 11054 44c8 01       		.byte	0x1
 11055 44c9 D1440000 		.4byte	0x44d1
 11056 44cd EB440000 		.4byte	0x44eb
 11057 44d1 10       		.uleb128 0x10
 11058 44d2 31510000 		.4byte	0x5131
ARM GAS  /tmp/cc9AvIGf.s 			page 196


 11059 44d6 0D       		.uleb128 0xd
 11060 44d7 464E0000 		.4byte	0x4e46
 11061 44db 0D       		.uleb128 0xd
 11062 44dc C3000000 		.4byte	0xc3
 11063 44e0 0D       		.uleb128 0xd
 11064 44e1 C54C0000 		.4byte	0x4cc5
 11065 44e5 0D       		.uleb128 0xd
 11066 44e6 2C000000 		.4byte	0x2c
 11067 44ea 00       		.byte	0
 11068 44eb 18       		.uleb128 0x18
 11069 44ec 9A480000 		.4byte	.LASF329
 11070 44f0 09       		.byte	0x9
 11071 44f1 7F       		.byte	0x7f
 11072 44f2 7C4F0000 		.4byte	.LASF673
 11073 44f6 9D470000 		.4byte	0x479d
 11074 44fa 01       		.byte	0x1
 11075 44fb 03450000 		.4byte	0x4503
 11076 44ff 1D450000 		.4byte	0x451d
 11077 4503 10       		.uleb128 0x10
 11078 4504 31510000 		.4byte	0x5131
 11079 4508 0D       		.uleb128 0xd
 11080 4509 4C4E0000 		.4byte	0x4e4c
 11081 450d 0D       		.uleb128 0xd
 11082 450e C3000000 		.4byte	0xc3
 11083 4512 0D       		.uleb128 0xd
 11084 4513 C54C0000 		.4byte	0x4cc5
 11085 4517 0D       		.uleb128 0xd
 11086 4518 2C000000 		.4byte	0x2c
 11087 451c 00       		.byte	0
 11088 451d 18       		.uleb128 0x18
 11089 451e 76600000 		.4byte	.LASF332
 11090 4522 09       		.byte	0x9
 11091 4523 81       		.byte	0x81
 11092 4524 02440000 		.4byte	.LASF674
 11093 4528 9D470000 		.4byte	0x479d
 11094 452c 01       		.byte	0x1
 11095 452d 35450000 		.4byte	0x4535
 11096 4531 54450000 		.4byte	0x4554
 11097 4535 10       		.uleb128 0x10
 11098 4536 31510000 		.4byte	0x5131
 11099 453a 0D       		.uleb128 0xd
 11100 453b 524E0000 		.4byte	0x4e52
 11101 453f 0D       		.uleb128 0xd
 11102 4540 C3000000 		.4byte	0xc3
 11103 4544 0D       		.uleb128 0xd
 11104 4545 344E0000 		.4byte	0x4e34
 11105 4549 0D       		.uleb128 0xd
 11106 454a 2C000000 		.4byte	0x2c
 11107 454e 0D       		.uleb128 0xd
 11108 454f 2C000000 		.4byte	0x2c
 11109 4553 00       		.byte	0
 11110 4554 18       		.uleb128 0x18
 11111 4555 76600000 		.4byte	.LASF332
 11112 4559 09       		.byte	0x9
 11113 455a 84       		.byte	0x84
 11114 455b 8C500000 		.4byte	.LASF675
 11115 455f 9D470000 		.4byte	0x479d
ARM GAS  /tmp/cc9AvIGf.s 			page 197


 11116 4563 01       		.byte	0x1
 11117 4564 6C450000 		.4byte	0x456c
 11118 4568 8B450000 		.4byte	0x458b
 11119 456c 10       		.uleb128 0x10
 11120 456d 31510000 		.4byte	0x5131
 11121 4571 0D       		.uleb128 0xd
 11122 4572 584E0000 		.4byte	0x4e58
 11123 4576 0D       		.uleb128 0xd
 11124 4577 C3000000 		.4byte	0xc3
 11125 457b 0D       		.uleb128 0xd
 11126 457c 344E0000 		.4byte	0x4e34
 11127 4580 0D       		.uleb128 0xd
 11128 4581 2C000000 		.4byte	0x2c
 11129 4585 0D       		.uleb128 0xd
 11130 4586 2C000000 		.4byte	0x2c
 11131 458a 00       		.byte	0
 11132 458b 19       		.uleb128 0x19
 11133 458c DB220000 		.4byte	.LASF676
 11134 4590 09       		.byte	0x9
 11135 4591 88       		.byte	0x88
 11136 4592 74560000 		.4byte	.LASF677
 11137 4596 01       		.byte	0x1
 11138 4597 9F450000 		.4byte	0x459f
 11139 459b AA450000 		.4byte	0x45aa
 11140 459f 10       		.uleb128 0x10
 11141 45a0 31510000 		.4byte	0x5131
 11142 45a4 0D       		.uleb128 0xd
 11143 45a5 8E4F0000 		.4byte	0x4f8e
 11144 45a9 00       		.byte	0
 11145 45aa 18       		.uleb128 0x18
 11146 45ab 8A330000 		.4byte	.LASF678
 11147 45af 09       		.byte	0x9
 11148 45b0 8A       		.byte	0x8a
 11149 45b1 4C210000 		.4byte	.LASF679
 11150 45b5 004E0000 		.4byte	0x4e00
 11151 45b9 01       		.byte	0x1
 11152 45ba C2450000 		.4byte	0x45c2
 11153 45be CD450000 		.4byte	0x45cd
 11154 45c2 10       		.uleb128 0x10
 11155 45c3 31510000 		.4byte	0x5131
 11156 45c7 0D       		.uleb128 0xd
 11157 45c8 C3000000 		.4byte	0xc3
 11158 45cc 00       		.byte	0
 11159 45cd 18       		.uleb128 0x18
 11160 45ce C5120000 		.4byte	.LASF680
 11161 45d2 09       		.byte	0x9
 11162 45d3 8B       		.byte	0x8b
 11163 45d4 22430000 		.4byte	.LASF681
 11164 45d8 C64F0000 		.4byte	0x4fc6
 11165 45dc 01       		.byte	0x1
 11166 45dd E5450000 		.4byte	0x45e5
 11167 45e1 F0450000 		.4byte	0x45f0
 11168 45e5 10       		.uleb128 0x10
 11169 45e6 31510000 		.4byte	0x5131
 11170 45ea 0D       		.uleb128 0xd
 11171 45eb C3000000 		.4byte	0xc3
 11172 45ef 00       		.byte	0
ARM GAS  /tmp/cc9AvIGf.s 			page 198


 11173 45f0 23       		.uleb128 0x23
 11174 45f1 9A490000 		.4byte	.LASF682
 11175 45f5 09       		.byte	0x9
 11176 45f6 8E       		.byte	0x8e
 11177 45f7 1D080000 		.4byte	.LASF683
 11178 45fb 004E0000 		.4byte	0x4e00
 11179 45ff 07460000 		.4byte	0x4607
 11180 4603 17460000 		.4byte	0x4617
 11181 4607 10       		.uleb128 0x10
 11182 4608 31510000 		.4byte	0x5131
 11183 460c 0D       		.uleb128 0xd
 11184 460d C3000000 		.4byte	0xc3
 11185 4611 0D       		.uleb128 0xd
 11186 4612 2C000000 		.4byte	0x2c
 11187 4616 00       		.byte	0
 11188 4617 0F       		.uleb128 0xf
 11189 4618 6C3F0000 		.4byte	.LASF615
 11190 461c 09       		.byte	0x9
 11191 461d 91       		.byte	0x91
 11192 461e 31510000 		.4byte	0x5131
 11193 4622 2A460000 		.4byte	0x462a
 11194 4626 44460000 		.4byte	0x4644
 11195 462a 10       		.uleb128 0x10
 11196 462b 31510000 		.4byte	0x5131
 11197 462f 0D       		.uleb128 0xd
 11198 4630 C3000000 		.4byte	0xc3
 11199 4634 0D       		.uleb128 0xd
 11200 4635 C3000000 		.4byte	0xc3
 11201 4639 0D       		.uleb128 0xd
 11202 463a 99500000 		.4byte	0x5099
 11203 463e 0D       		.uleb128 0xd
 11204 463f 2C000000 		.4byte	0x2c
 11205 4643 00       		.byte	0
 11206 4644 41       		.uleb128 0x41
 11207 4645 2F250000 		.4byte	.LASF684
 11208 4649 09       		.byte	0x9
 11209 464a 95       		.byte	0x95
 11210 464b 650F0000 		.4byte	.LASF685
 11211 464f 512C0000 		.4byte	0x2c51
 11212 4653 5D460000 		.4byte	0x465d
 11213 4657 0D       		.uleb128 0xd
 11214 4658 5D2C0000 		.4byte	0x2c5d
 11215 465c 00       		.byte	0
 11216 465d 2D       		.uleb128 0x2d
 11217 465e 1B3F0000 		.4byte	.LASF686
 11218 4662 09       		.byte	0x9
 11219 4663 96       		.byte	0x96
 11220 4664 563A0000 		.4byte	.LASF687
 11221 4668 70460000 		.4byte	0x4670
 11222 466c 76460000 		.4byte	0x4676
 11223 4670 10       		.uleb128 0x10
 11224 4671 31510000 		.4byte	0x5131
 11225 4675 00       		.byte	0
 11226 4676 2D       		.uleb128 0x2d
 11227 4677 EB280000 		.4byte	.LASF688
 11228 467b 09       		.byte	0x9
 11229 467c 97       		.byte	0x97
ARM GAS  /tmp/cc9AvIGf.s 			page 199


 11230 467d E95F0000 		.4byte	.LASF689
 11231 4681 89460000 		.4byte	0x4689
 11232 4685 94460000 		.4byte	0x4694
 11233 4689 10       		.uleb128 0x10
 11234 468a 31510000 		.4byte	0x5131
 11235 468e 0D       		.uleb128 0xd
 11236 468f 37510000 		.4byte	0x5137
 11237 4693 00       		.byte	0
 11238 4694 2D       		.uleb128 0x2d
 11239 4695 C4280000 		.4byte	.LASF690
 11240 4699 09       		.byte	0x9
 11241 469a 98       		.byte	0x98
 11242 469b D22F0000 		.4byte	.LASF691
 11243 469f A7460000 		.4byte	0x46a7
 11244 46a3 B2460000 		.4byte	0x46b2
 11245 46a7 10       		.uleb128 0x10
 11246 46a8 31510000 		.4byte	0x5131
 11247 46ac 0D       		.uleb128 0xd
 11248 46ad 37510000 		.4byte	0x5137
 11249 46b1 00       		.byte	0
 11250 46b2 2D       		.uleb128 0x2d
 11251 46b3 2A020000 		.4byte	.LASF692
 11252 46b7 09       		.byte	0x9
 11253 46b8 99       		.byte	0x99
 11254 46b9 1D120000 		.4byte	.LASF693
 11255 46bd C5460000 		.4byte	0x46c5
 11256 46c1 D0460000 		.4byte	0x46d0
 11257 46c5 10       		.uleb128 0x10
 11258 46c6 31510000 		.4byte	0x5131
 11259 46ca 0D       		.uleb128 0xd
 11260 46cb 37510000 		.4byte	0x5137
 11261 46cf 00       		.byte	0
 11262 46d0 32       		.uleb128 0x32
 11263 46d1 242C0000 		.4byte	.LASF694
 11264 46d5 09       		.byte	0x9
 11265 46d6 A4       		.byte	0xa4
 11266 46d7 60470000 		.4byte	.LASF695
 11267 46db 9D470000 		.4byte	0x479d
 11268 46df 01       		.byte	0x1
 11269 46e0 32       		.uleb128 0x32
 11270 46e1 665B0000 		.4byte	.LASF696
 11271 46e5 09       		.byte	0x9
 11272 46e6 A5       		.byte	0xa5
 11273 46e7 AE020000 		.4byte	.LASF697
 11274 46eb 9D470000 		.4byte	0x479d
 11275 46ef 01       		.byte	0x1
 11276 46f0 00       		.byte	0
 11277 46f1 2C       		.uleb128 0x2c
 11278 46f2 B42B0000 		.4byte	.LASF699
 11279 46f6 04470000 		.4byte	0x4704
 11280 46fa 2B       		.uleb128 0x2b
 11281 46fb 62110000 		.4byte	.LASF340
 11282 46ff 602F0000 		.4byte	0x2f60
 11283 4703 00       		.byte	0
 11284 4704 2C       		.uleb128 0x2c
 11285 4705 174C0000 		.4byte	.LASF700
 11286 4709 17470000 		.4byte	0x4717
ARM GAS  /tmp/cc9AvIGf.s 			page 200


 11287 470d 2B       		.uleb128 0x2b
 11288 470e 62110000 		.4byte	.LASF340
 11289 4712 602F0000 		.4byte	0x2f60
 11290 4716 00       		.byte	0
 11291 4717 07       		.uleb128 0x7
 11292 4718 FF400000 		.4byte	0x40ff
 11293 471c 07       		.uleb128 0x7
 11294 471d 602F0000 		.4byte	0x2f60
 11295 4721 42       		.uleb128 0x42
 11296 4722 901E0000 		.4byte	.LASF806
 11297 4726 23       		.byte	0x23
 11298 4727 1F       		.byte	0x1f
 11299 4728 3F470000 		.4byte	0x473f
 11300 472c 2B       		.uleb128 0x2b
 11301 472d 0C2A0000 		.4byte	.LASF701
 11302 4731 91220000 		.4byte	0x2291
 11303 4735 2B       		.uleb128 0x2b
 11304 4736 3F230000 		.4byte	.LASF702
 11305 473a 91220000 		.4byte	0x2291
 11306 473e 00       		.byte	0
 11307 473f 43       		.uleb128 0x43
 11308 4740 07140000 		.4byte	.LASF703
 11309 4744 05       		.byte	0x5
 11310 4745 E4       		.byte	0xe4
 11311 4746 96160000 		.4byte	.LASF807
 11312 474a 9D470000 		.4byte	0x479d
 11313 474e 0D       		.uleb128 0xd
 11314 474f C54C0000 		.4byte	0x4cc5
 11315 4753 0D       		.uleb128 0xd
 11316 4754 C54C0000 		.4byte	0x4cc5
 11317 4758 00       		.byte	0
 11318 4759 00       		.byte	0
 11319 475a 06       		.uleb128 0x6
 11320 475b 04       		.byte	0x4
 11321 475c 79010000 		.4byte	0x179
 11322 4760 44       		.uleb128 0x44
 11323 4761 04       		.byte	0x4
 11324 4762 D9010000 		.4byte	0x1d9
 11325 4766 03       		.uleb128 0x3
 11326 4767 1D210000 		.4byte	.LASF704
 11327 476b 1A       		.byte	0x1a
 11328 476c 15       		.byte	0x15
 11329 476d 45000000 		.4byte	0x45
 11330 4771 03       		.uleb128 0x3
 11331 4772 9F050000 		.4byte	.LASF705
 11332 4776 1A       		.byte	0x1a
 11333 4777 21       		.byte	0x21
 11334 4778 5E000000 		.4byte	0x5e
 11335 477c 03       		.uleb128 0x3
 11336 477d BA0B0000 		.4byte	.LASF706
 11337 4781 1A       		.byte	0x1a
 11338 4782 2C       		.byte	0x2c
 11339 4783 70000000 		.4byte	0x70
 11340 4787 03       		.uleb128 0x3
 11341 4788 EB0A0000 		.4byte	.LASF707
 11342 478c 1A       		.byte	0x1a
 11343 478d 2D       		.byte	0x2d
ARM GAS  /tmp/cc9AvIGf.s 			page 201


 11344 478e 82000000 		.4byte	0x82
 11345 4792 03       		.uleb128 0x3
 11346 4793 381A0000 		.4byte	.LASF708
 11347 4797 1A       		.byte	0x1a
 11348 4798 39       		.byte	0x39
 11349 4799 9B000000 		.4byte	0x9b
 11350 479d 04       		.uleb128 0x4
 11351 479e 01       		.byte	0x1
 11352 479f 02       		.byte	0x2
 11353 47a0 46160000 		.4byte	.LASF709
 11354 47a4 03       		.uleb128 0x3
 11355 47a5 C02C0000 		.4byte	.LASF710
 11356 47a9 1B       		.byte	0x1b
 11357 47aa 2C       		.byte	0x2c
 11358 47ab 66470000 		.4byte	0x4766
 11359 47af 03       		.uleb128 0x3
 11360 47b0 72570000 		.4byte	.LASF711
 11361 47b4 1B       		.byte	0x1b
 11362 47b5 2D       		.byte	0x2d
 11363 47b6 66470000 		.4byte	0x4766
 11364 47ba 03       		.uleb128 0x3
 11365 47bb D42B0000 		.4byte	.LASF712
 11366 47bf 1B       		.byte	0x1b
 11367 47c0 2E       		.byte	0x2e
 11368 47c1 66470000 		.4byte	0x4766
 11369 47c5 03       		.uleb128 0x3
 11370 47c6 03320000 		.4byte	.LASF713
 11371 47ca 1B       		.byte	0x1b
 11372 47cb 2F       		.byte	0x2f
 11373 47cc 66470000 		.4byte	0x4766
 11374 47d0 03       		.uleb128 0x3
 11375 47d1 66120000 		.4byte	.LASF714
 11376 47d5 1B       		.byte	0x1b
 11377 47d6 30       		.byte	0x30
 11378 47d7 87470000 		.4byte	0x4787
 11379 47db 03       		.uleb128 0x3
 11380 47dc CC000000 		.4byte	.LASF715
 11381 47e0 1B       		.byte	0x1b
 11382 47e1 31       		.byte	0x31
 11383 47e2 7C470000 		.4byte	0x477c
 11384 47e6 03       		.uleb128 0x3
 11385 47e7 025D0000 		.4byte	.LASF716
 11386 47eb 1B       		.byte	0x1b
 11387 47ec 33       		.byte	0x33
 11388 47ed 87470000 		.4byte	0x4787
 11389 47f1 03       		.uleb128 0x3
 11390 47f2 190C0000 		.4byte	.LASF717
 11391 47f6 1B       		.byte	0x1b
 11392 47f7 35       		.byte	0x35
 11393 47f8 87470000 		.4byte	0x4787
 11394 47fc 03       		.uleb128 0x3
 11395 47fd 7D1A0000 		.4byte	.LASF435
 11396 4801 1C       		.byte	0x1c
 11397 4802 2A       		.byte	0x2a
 11398 4803 07480000 		.4byte	0x4807
 11399 4807 45       		.uleb128 0x45
 11400 4808 7D1A0000 		.4byte	.LASF435
ARM GAS  /tmp/cc9AvIGf.s 			page 202


 11401 480c 4C       		.byte	0x4c
 11402 480d 1D       		.byte	0x1d
 11403 480e 5E       		.byte	0x5e
 11404 480f 45490000 		.4byte	0x4945
 11405 4813 46       		.uleb128 0x46
 11406 4814 04       		.byte	0x4
 11407 4815 1D       		.byte	0x1d
 11408 4816 96       		.byte	0x96
 11409 4817 48480000 		.4byte	0x4848
 11410 481b 39       		.uleb128 0x39
 11411 481c 1C260000 		.4byte	.LASF718
 11412 4820 1D       		.byte	0x1d
 11413 4821 9D       		.byte	0x9d
 11414 4822 DB470000 		.4byte	0x47db
 11415 4826 39       		.uleb128 0x39
 11416 4827 6A220000 		.4byte	.LASF719
 11417 482b 1D       		.byte	0x1d
 11418 482c A4       		.byte	0xa4
 11419 482d DB470000 		.4byte	0x47db
 11420 4831 39       		.uleb128 0x39
 11421 4832 E44A0000 		.4byte	.LASF720
 11422 4836 1D       		.byte	0x1d
 11423 4837 AB       		.byte	0xab
 11424 4838 B4000000 		.4byte	0xb4
 11425 483c 39       		.uleb128 0x39
 11426 483d 2E560000 		.4byte	.LASF721
 11427 4841 1D       		.byte	0x1d
 11428 4842 B2       		.byte	0xb2
 11429 4843 E6470000 		.4byte	0x47e6
 11430 4847 00       		.byte	0
 11431 4848 16       		.uleb128 0x16
 11432 4849 A1290000 		.4byte	.LASF722
 11433 484d 1D       		.byte	0x1d
 11434 484e 5F       		.byte	0x5f
 11435 484f 444C0000 		.4byte	0x4c44
 11436 4853 00       		.byte	0
 11437 4854 16       		.uleb128 0x16
 11438 4855 45210000 		.4byte	.LASF723
 11439 4859 1D       		.byte	0x1d
 11440 485a 61       		.byte	0x61
 11441 485b 444C0000 		.4byte	0x4c44
 11442 485f 04       		.byte	0x4
 11443 4860 16       		.uleb128 0x16
 11444 4861 3F160000 		.4byte	.LASF724
 11445 4865 1D       		.byte	0x1d
 11446 4866 63       		.byte	0x63
 11447 4867 D0470000 		.4byte	0x47d0
 11448 486b 08       		.byte	0x8
 11449 486c 16       		.uleb128 0x16
 11450 486d 02190000 		.4byte	.LASF725
 11451 4871 1D       		.byte	0x1d
 11452 4872 64       		.byte	0x64
 11453 4873 014B0000 		.4byte	0x4b01
 11454 4877 0C       		.byte	0xc
 11455 4878 16       		.uleb128 0x16
 11456 4879 C4180000 		.4byte	.LASF726
 11457 487d 1D       		.byte	0x1d
ARM GAS  /tmp/cc9AvIGf.s 			page 203


 11458 487e 66       		.byte	0x66
 11459 487f 444C0000 		.4byte	0x4c44
 11460 4883 10       		.byte	0x10
 11461 4884 16       		.uleb128 0x16
 11462 4885 EC5E0000 		.4byte	.LASF727
 11463 4889 1D       		.byte	0x1d
 11464 488a 67       		.byte	0x67
 11465 488b 444C0000 		.4byte	0x4c44
 11466 488f 14       		.byte	0x14
 11467 4890 16       		.uleb128 0x16
 11468 4891 B7040000 		.4byte	.LASF728
 11469 4895 1D       		.byte	0x1d
 11470 4896 6E       		.byte	0x6e
 11471 4897 C3000000 		.4byte	0xc3
 11472 489b 18       		.byte	0x18
 11473 489c 16       		.uleb128 0x16
 11474 489d 9D470000 		.4byte	.LASF729
 11475 48a1 1D       		.byte	0x1d
 11476 48a2 74       		.byte	0x74
 11477 48a3 4A4C0000 		.4byte	0x4c4a
 11478 48a7 1C       		.byte	0x1c
 11479 48a8 16       		.uleb128 0x16
 11480 48a9 D9640000 		.4byte	.LASF730
 11481 48ad 1D       		.byte	0x1d
 11482 48ae 79       		.byte	0x79
 11483 48af AF470000 		.4byte	0x47af
 11484 48b3 20       		.byte	0x20
 11485 48b4 16       		.uleb128 0x16
 11486 48b5 C1550000 		.4byte	.LASF731
 11487 48b9 1D       		.byte	0x1d
 11488 48ba 7D       		.byte	0x7d
 11489 48bb A4470000 		.4byte	0x47a4
 11490 48bf 21       		.byte	0x21
 11491 48c0 16       		.uleb128 0x16
 11492 48c1 0A0E0000 		.4byte	.LASF732
 11493 48c5 1D       		.byte	0x1d
 11494 48c6 82       		.byte	0x82
 11495 48c7 BA470000 		.4byte	0x47ba
 11496 48cb 22       		.byte	0x22
 11497 48cc 16       		.uleb128 0x16
 11498 48cd 6B490000 		.4byte	.LASF733
 11499 48d1 1D       		.byte	0x1d
 11500 48d2 88       		.byte	0x88
 11501 48d3 C5470000 		.4byte	0x47c5
 11502 48d7 23       		.byte	0x23
 11503 48d8 16       		.uleb128 0x16
 11504 48d9 9B330000 		.4byte	.LASF734
 11505 48dd 1D       		.byte	0x1d
 11506 48de 8F       		.byte	0x8f
 11507 48df 224B0000 		.4byte	0x4b22
 11508 48e3 24       		.byte	0x24
 11509 48e4 47       		.uleb128 0x47
 11510 48e5 705F7500 		.ascii	"p_u\000"
 11511 48e9 1D       		.byte	0x1d
 11512 48ea B4       		.byte	0xb4
 11513 48eb 13480000 		.4byte	0x4813
 11514 48ef 28       		.byte	0x28
ARM GAS  /tmp/cc9AvIGf.s 			page 204


 11515 48f0 16       		.uleb128 0x16
 11516 48f1 2F100000 		.4byte	.LASF735
 11517 48f5 1D       		.byte	0x1d
 11518 48f6 B9       		.byte	0xb9
 11519 48f7 94490000 		.4byte	0x4994
 11520 48fb 2C       		.byte	0x2c
 11521 48fc 16       		.uleb128 0x16
 11522 48fd 8C1F0000 		.4byte	.LASF736
 11523 4901 1D       		.byte	0x1d
 11524 4902 BF       		.byte	0xbf
 11525 4903 70490000 		.4byte	0x4970
 11526 4907 30       		.byte	0x30
 11527 4908 16       		.uleb128 0x16
 11528 4909 5C140000 		.4byte	.LASF737
 11529 490d 1D       		.byte	0x1d
 11530 490e C3       		.byte	0xc3
 11531 490f DB470000 		.4byte	0x47db
 11532 4913 38       		.byte	0x38
 11533 4914 16       		.uleb128 0x16
 11534 4915 304F0000 		.4byte	.LASF738
 11535 4919 1D       		.byte	0x1d
 11536 491a C9       		.byte	0xc9
 11537 491b E6470000 		.4byte	0x47e6
 11538 491f 3C       		.byte	0x3c
 11539 4920 16       		.uleb128 0x16
 11540 4921 E7560000 		.4byte	.LASF739
 11541 4925 1D       		.byte	0x1d
 11542 4926 D0       		.byte	0xd0
 11543 4927 504C0000 		.4byte	0x4c50
 11544 492b 40       		.byte	0x40
 11545 492c 16       		.uleb128 0x16
 11546 492d 611B0000 		.4byte	.LASF740
 11547 4931 1D       		.byte	0x1d
 11548 4932 D4       		.byte	0xd4
 11549 4933 D0470000 		.4byte	0x47d0
 11550 4937 44       		.byte	0x44
 11551 4938 16       		.uleb128 0x16
 11552 4939 5A000000 		.4byte	.LASF741
 11553 493d 1D       		.byte	0x1d
 11554 493e DA       		.byte	0xda
 11555 493f B4000000 		.4byte	0xb4
 11556 4943 48       		.byte	0x48
 11557 4944 00       		.byte	0
 11558 4945 48       		.uleb128 0x48
 11559 4946 08       		.byte	0x8
 11560 4947 1C       		.byte	0x1c
 11561 4948 61       		.byte	0x61
 11562 4949 7A450000 		.4byte	.LASF743
 11563 494d 6A490000 		.4byte	0x496a
 11564 4951 16       		.uleb128 0x16
 11565 4952 A1290000 		.4byte	.LASF722
 11566 4956 1C       		.byte	0x1c
 11567 4957 62       		.byte	0x62
 11568 4958 6A490000 		.4byte	0x496a
 11569 495c 00       		.byte	0
 11570 495d 16       		.uleb128 0x16
 11571 495e 45210000 		.4byte	.LASF723
ARM GAS  /tmp/cc9AvIGf.s 			page 205


 11572 4962 1C       		.byte	0x1c
 11573 4963 64       		.byte	0x64
 11574 4964 6A490000 		.4byte	0x496a
 11575 4968 04       		.byte	0x4
 11576 4969 00       		.byte	0
 11577 496a 06       		.uleb128 0x6
 11578 496b 04       		.byte	0x4
 11579 496c FC470000 		.4byte	0x47fc
 11580 4970 03       		.uleb128 0x3
 11581 4971 10210000 		.4byte	.LASF742
 11582 4975 1C       		.byte	0x1c
 11583 4976 66       		.byte	0x66
 11584 4977 45490000 		.4byte	0x4945
 11585 497b 48       		.uleb128 0x48
 11586 497c 04       		.byte	0x4
 11587 497d 1C       		.byte	0x1c
 11588 497e 6B       		.byte	0x6b
 11589 497f F0640000 		.4byte	.LASF744
 11590 4983 94490000 		.4byte	0x4994
 11591 4987 16       		.uleb128 0x16
 11592 4988 A1290000 		.4byte	.LASF722
 11593 498c 1C       		.byte	0x1c
 11594 498d 6D       		.byte	0x6d
 11595 498e 6A490000 		.4byte	0x496a
 11596 4992 00       		.byte	0
 11597 4993 00       		.byte	0
 11598 4994 03       		.uleb128 0x3
 11599 4995 FA070000 		.4byte	.LASF745
 11600 4999 1C       		.byte	0x1c
 11601 499a 70       		.byte	0x70
 11602 499b 7B490000 		.4byte	0x497b
 11603 499f 03       		.uleb128 0x3
 11604 49a0 22400000 		.4byte	.LASF746
 11605 49a4 1E       		.byte	0x1e
 11606 49a5 E5       		.byte	0xe5
 11607 49a6 B4000000 		.4byte	0xb4
 11608 49aa 03       		.uleb128 0x3
 11609 49ab 65160000 		.4byte	.LASF747
 11610 49af 1E       		.byte	0x1e
 11611 49b0 EB       		.byte	0xeb
 11612 49b1 92470000 		.4byte	0x4792
 11613 49b5 49       		.uleb128 0x49
 11614 49b6 68000000 		.4byte	.LASF748
 11615 49ba 64       		.byte	0x64
 11616 49bb 1E       		.byte	0x1e
 11617 49bc 0C01     		.2byte	0x10c
 11618 49be 014B0000 		.4byte	0x4b01
 11619 49c2 4A       		.uleb128 0x4a
 11620 49c3 73313600 		.ascii	"s16\000"
 11621 49c7 1E       		.byte	0x1e
 11622 49c8 0E01     		.2byte	0x10e
 11623 49ca 9F490000 		.4byte	0x499f
 11624 49ce 00       		.byte	0
 11625 49cf 4A       		.uleb128 0x4a
 11626 49d0 73313700 		.ascii	"s17\000"
 11627 49d4 1E       		.byte	0x1e
 11628 49d5 0F01     		.2byte	0x10f
ARM GAS  /tmp/cc9AvIGf.s 			page 206


 11629 49d7 9F490000 		.4byte	0x499f
 11630 49db 04       		.byte	0x4
 11631 49dc 4A       		.uleb128 0x4a
 11632 49dd 73313800 		.ascii	"s18\000"
 11633 49e1 1E       		.byte	0x1e
 11634 49e2 1001     		.2byte	0x110
 11635 49e4 9F490000 		.4byte	0x499f
 11636 49e8 08       		.byte	0x8
 11637 49e9 4A       		.uleb128 0x4a
 11638 49ea 73313900 		.ascii	"s19\000"
 11639 49ee 1E       		.byte	0x1e
 11640 49ef 1101     		.2byte	0x111
 11641 49f1 9F490000 		.4byte	0x499f
 11642 49f5 0C       		.byte	0xc
 11643 49f6 4A       		.uleb128 0x4a
 11644 49f7 73323000 		.ascii	"s20\000"
 11645 49fb 1E       		.byte	0x1e
 11646 49fc 1201     		.2byte	0x112
 11647 49fe 9F490000 		.4byte	0x499f
 11648 4a02 10       		.byte	0x10
 11649 4a03 4A       		.uleb128 0x4a
 11650 4a04 73323100 		.ascii	"s21\000"
 11651 4a08 1E       		.byte	0x1e
 11652 4a09 1301     		.2byte	0x113
 11653 4a0b 9F490000 		.4byte	0x499f
 11654 4a0f 14       		.byte	0x14
 11655 4a10 4A       		.uleb128 0x4a
 11656 4a11 73323200 		.ascii	"s22\000"
 11657 4a15 1E       		.byte	0x1e
 11658 4a16 1401     		.2byte	0x114
 11659 4a18 9F490000 		.4byte	0x499f
 11660 4a1c 18       		.byte	0x18
 11661 4a1d 4A       		.uleb128 0x4a
 11662 4a1e 73323300 		.ascii	"s23\000"
 11663 4a22 1E       		.byte	0x1e
 11664 4a23 1501     		.2byte	0x115
 11665 4a25 9F490000 		.4byte	0x499f
 11666 4a29 1C       		.byte	0x1c
 11667 4a2a 4A       		.uleb128 0x4a
 11668 4a2b 73323400 		.ascii	"s24\000"
 11669 4a2f 1E       		.byte	0x1e
 11670 4a30 1601     		.2byte	0x116
 11671 4a32 9F490000 		.4byte	0x499f
 11672 4a36 20       		.byte	0x20
 11673 4a37 4A       		.uleb128 0x4a
 11674 4a38 73323500 		.ascii	"s25\000"
 11675 4a3c 1E       		.byte	0x1e
 11676 4a3d 1701     		.2byte	0x117
 11677 4a3f 9F490000 		.4byte	0x499f
 11678 4a43 24       		.byte	0x24
 11679 4a44 4A       		.uleb128 0x4a
 11680 4a45 73323600 		.ascii	"s26\000"
 11681 4a49 1E       		.byte	0x1e
 11682 4a4a 1801     		.2byte	0x118
 11683 4a4c 9F490000 		.4byte	0x499f
 11684 4a50 28       		.byte	0x28
 11685 4a51 4A       		.uleb128 0x4a
ARM GAS  /tmp/cc9AvIGf.s 			page 207


 11686 4a52 73323700 		.ascii	"s27\000"
 11687 4a56 1E       		.byte	0x1e
 11688 4a57 1901     		.2byte	0x119
 11689 4a59 9F490000 		.4byte	0x499f
 11690 4a5d 2C       		.byte	0x2c
 11691 4a5e 4A       		.uleb128 0x4a
 11692 4a5f 73323800 		.ascii	"s28\000"
 11693 4a63 1E       		.byte	0x1e
 11694 4a64 1A01     		.2byte	0x11a
 11695 4a66 9F490000 		.4byte	0x499f
 11696 4a6a 30       		.byte	0x30
 11697 4a6b 4A       		.uleb128 0x4a
 11698 4a6c 73323900 		.ascii	"s29\000"
 11699 4a70 1E       		.byte	0x1e
 11700 4a71 1B01     		.2byte	0x11b
 11701 4a73 9F490000 		.4byte	0x499f
 11702 4a77 34       		.byte	0x34
 11703 4a78 4A       		.uleb128 0x4a
 11704 4a79 73333000 		.ascii	"s30\000"
 11705 4a7d 1E       		.byte	0x1e
 11706 4a7e 1C01     		.2byte	0x11c
 11707 4a80 9F490000 		.4byte	0x499f
 11708 4a84 38       		.byte	0x38
 11709 4a85 4A       		.uleb128 0x4a
 11710 4a86 73333100 		.ascii	"s31\000"
 11711 4a8a 1E       		.byte	0x1e
 11712 4a8b 1D01     		.2byte	0x11d
 11713 4a8d 9F490000 		.4byte	0x499f
 11714 4a91 3C       		.byte	0x3c
 11715 4a92 4A       		.uleb128 0x4a
 11716 4a93 723400   		.ascii	"r4\000"
 11717 4a96 1E       		.byte	0x1e
 11718 4a97 1F01     		.2byte	0x11f
 11719 4a99 9F490000 		.4byte	0x499f
 11720 4a9d 40       		.byte	0x40
 11721 4a9e 4A       		.uleb128 0x4a
 11722 4a9f 723500   		.ascii	"r5\000"
 11723 4aa2 1E       		.byte	0x1e
 11724 4aa3 2001     		.2byte	0x120
 11725 4aa5 9F490000 		.4byte	0x499f
 11726 4aa9 44       		.byte	0x44
 11727 4aaa 4A       		.uleb128 0x4a
 11728 4aab 723600   		.ascii	"r6\000"
 11729 4aae 1E       		.byte	0x1e
 11730 4aaf 2101     		.2byte	0x121
 11731 4ab1 9F490000 		.4byte	0x499f
 11732 4ab5 48       		.byte	0x48
 11733 4ab6 4A       		.uleb128 0x4a
 11734 4ab7 723700   		.ascii	"r7\000"
 11735 4aba 1E       		.byte	0x1e
 11736 4abb 2201     		.2byte	0x122
 11737 4abd 9F490000 		.4byte	0x499f
 11738 4ac1 4C       		.byte	0x4c
 11739 4ac2 4A       		.uleb128 0x4a
 11740 4ac3 723800   		.ascii	"r8\000"
 11741 4ac6 1E       		.byte	0x1e
 11742 4ac7 2301     		.2byte	0x123
ARM GAS  /tmp/cc9AvIGf.s 			page 208


 11743 4ac9 9F490000 		.4byte	0x499f
 11744 4acd 50       		.byte	0x50
 11745 4ace 4A       		.uleb128 0x4a
 11746 4acf 723900   		.ascii	"r9\000"
 11747 4ad2 1E       		.byte	0x1e
 11748 4ad3 2401     		.2byte	0x124
 11749 4ad5 9F490000 		.4byte	0x499f
 11750 4ad9 54       		.byte	0x54
 11751 4ada 4A       		.uleb128 0x4a
 11752 4adb 72313000 		.ascii	"r10\000"
 11753 4adf 1E       		.byte	0x1e
 11754 4ae0 2501     		.2byte	0x125
 11755 4ae2 9F490000 		.4byte	0x499f
 11756 4ae6 58       		.byte	0x58
 11757 4ae7 4A       		.uleb128 0x4a
 11758 4ae8 72313100 		.ascii	"r11\000"
 11759 4aec 1E       		.byte	0x1e
 11760 4aed 2601     		.2byte	0x126
 11761 4aef 9F490000 		.4byte	0x499f
 11762 4af3 5C       		.byte	0x5c
 11763 4af4 4A       		.uleb128 0x4a
 11764 4af5 6C7200   		.ascii	"lr\000"
 11765 4af8 1E       		.byte	0x1e
 11766 4af9 2701     		.2byte	0x127
 11767 4afb 9F490000 		.4byte	0x499f
 11768 4aff 60       		.byte	0x60
 11769 4b00 00       		.byte	0
 11770 4b01 49       		.uleb128 0x49
 11771 4b02 713E0000 		.4byte	.LASF749
 11772 4b06 04       		.byte	0x4
 11773 4b07 1E       		.byte	0x1e
 11774 4b08 3101     		.2byte	0x131
 11775 4b0a 1C4B0000 		.4byte	0x4b1c
 11776 4b0e 4A       		.uleb128 0x4a
 11777 4b0f 72313300 		.ascii	"r13\000"
 11778 4b13 1E       		.byte	0x1e
 11779 4b14 3201     		.2byte	0x132
 11780 4b16 1C4B0000 		.4byte	0x4b1c
 11781 4b1a 00       		.byte	0
 11782 4b1b 00       		.byte	0
 11783 4b1c 06       		.uleb128 0x6
 11784 4b1d 04       		.byte	0x4
 11785 4b1e B5490000 		.4byte	0x49b5
 11786 4b22 4B       		.uleb128 0x4b
 11787 4b23 F1470000 		.4byte	0x47f1
 11788 4b27 48       		.uleb128 0x48
 11789 4b28 1C       		.byte	0x1c
 11790 4b29 1F       		.byte	0x1f
 11791 4b2a 5E       		.byte	0x5e
 11792 4b2b 9B2D0000 		.4byte	.LASF750
 11793 4b2f 7C4B0000 		.4byte	0x4b7c
 11794 4b33 16       		.uleb128 0x16
 11795 4b34 54430000 		.4byte	.LASF751
 11796 4b38 1F       		.byte	0x1f
 11797 4b39 5F       		.byte	0x5f
 11798 4b3a 70490000 		.4byte	0x4970
 11799 4b3e 00       		.byte	0
ARM GAS  /tmp/cc9AvIGf.s 			page 209


 11800 4b3f 16       		.uleb128 0x16
 11801 4b40 C6520000 		.4byte	.LASF752
 11802 4b44 1F       		.byte	0x1f
 11803 4b45 60       		.byte	0x60
 11804 4b46 D0470000 		.4byte	0x47d0
 11805 4b4a 08       		.byte	0x8
 11806 4b4b 16       		.uleb128 0x16
 11807 4b4c 9C250000 		.4byte	.LASF753
 11808 4b50 1F       		.byte	0x1f
 11809 4b51 62       		.byte	0x62
 11810 4b52 014B0000 		.4byte	0x4b01
 11811 4b56 0C       		.byte	0xc
 11812 4b57 16       		.uleb128 0x16
 11813 4b58 F3300000 		.4byte	.LASF754
 11814 4b5c 1F       		.byte	0x1f
 11815 4b5d 65       		.byte	0x65
 11816 4b5e 6A490000 		.4byte	0x496a
 11817 4b62 10       		.byte	0x10
 11818 4b63 16       		.uleb128 0x16
 11819 4b64 3D210000 		.4byte	.LASF755
 11820 4b68 1F       		.byte	0x1f
 11821 4b69 66       		.byte	0x66
 11822 4b6a 6A490000 		.4byte	0x496a
 11823 4b6e 14       		.byte	0x14
 11824 4b6f 16       		.uleb128 0x16
 11825 4b70 51190000 		.4byte	.LASF756
 11826 4b74 1F       		.byte	0x1f
 11827 4b75 69       		.byte	0x69
 11828 4b76 6A490000 		.4byte	0x496a
 11829 4b7a 18       		.byte	0x18
 11830 4b7b 00       		.byte	0
 11831 4b7c 03       		.uleb128 0x3
 11832 4b7d 80410000 		.4byte	.LASF757
 11833 4b81 1F       		.byte	0x1f
 11834 4b82 6B       		.byte	0x6b
 11835 4b83 274B0000 		.4byte	0x4b27
 11836 4b87 45       		.uleb128 0x45
 11837 4b88 941D0000 		.4byte	.LASF569
 11838 4b8c 10       		.byte	0x10
 11839 4b8d 20       		.byte	0x20
 11840 4b8e 2C       		.byte	0x2c
 11841 4b8f B84B0000 		.4byte	0x4bb8
 11842 4b93 16       		.uleb128 0x16
 11843 4b94 053D0000 		.4byte	.LASF758
 11844 4b98 20       		.byte	0x20
 11845 4b99 2D       		.byte	0x2d
 11846 4b9a 70490000 		.4byte	0x4970
 11847 4b9e 00       		.byte	0
 11848 4b9f 16       		.uleb128 0x16
 11849 4ba0 48370000 		.4byte	.LASF759
 11850 4ba4 20       		.byte	0x20
 11851 4ba5 2F       		.byte	0x2f
 11852 4ba6 6A490000 		.4byte	0x496a
 11853 4baa 08       		.byte	0x8
 11854 4bab 16       		.uleb128 0x16
 11855 4bac BE040000 		.4byte	.LASF760
 11856 4bb0 20       		.byte	0x20
ARM GAS  /tmp/cc9AvIGf.s 			page 210


 11857 4bb1 31       		.byte	0x31
 11858 4bb2 B84B0000 		.4byte	0x4bb8
 11859 4bb6 0C       		.byte	0xc
 11860 4bb7 00       		.byte	0
 11861 4bb8 06       		.uleb128 0x6
 11862 4bb9 04       		.byte	0x4
 11863 4bba 874B0000 		.4byte	0x4b87
 11864 4bbe 03       		.uleb128 0x3
 11865 4bbf 941D0000 		.4byte	.LASF569
 11866 4bc3 20       		.byte	0x20
 11867 4bc4 33       		.byte	0x33
 11868 4bc5 874B0000 		.4byte	0x4b87
 11869 4bc9 03       		.uleb128 0x3
 11870 4bca D5030000 		.4byte	.LASF761
 11871 4bce 21       		.byte	0x21
 11872 4bcf 2C       		.byte	0x2c
 11873 4bd0 D44B0000 		.4byte	0x4bd4
 11874 4bd4 06       		.uleb128 0x6
 11875 4bd5 04       		.byte	0x4
 11876 4bd6 DA4B0000 		.4byte	0x4bda
 11877 4bda 4C       		.uleb128 0x4c
 11878 4bdb B4000000 		.4byte	0xb4
 11879 4bdf E94B0000 		.4byte	0x4be9
 11880 4be3 0D       		.uleb128 0xd
 11881 4be4 2C000000 		.4byte	0x2c
 11882 4be8 00       		.byte	0
 11883 4be9 45       		.uleb128 0x45
 11884 4bea CE5F0000 		.4byte	.LASF762
 11885 4bee 04       		.byte	0x4
 11886 4bef 22       		.byte	0x22
 11887 4bf0 2C       		.byte	0x2c
 11888 4bf1 024C0000 		.4byte	0x4c02
 11889 4bf5 16       		.uleb128 0x16
 11890 4bf6 FD3C0000 		.4byte	.LASF763
 11891 4bfa 22       		.byte	0x22
 11892 4bfb 2D       		.byte	0x2d
 11893 4bfc 024C0000 		.4byte	0x4c02
 11894 4c00 00       		.byte	0
 11895 4c01 00       		.byte	0
 11896 4c02 06       		.uleb128 0x6
 11897 4c03 04       		.byte	0x4
 11898 4c04 E94B0000 		.4byte	0x4be9
 11899 4c08 48       		.uleb128 0x48
 11900 4c09 0C       		.byte	0xc
 11901 4c0a 22       		.byte	0x22
 11902 4c0b 34       		.byte	0x34
 11903 4c0c 24530000 		.4byte	.LASF764
 11904 4c10 394C0000 		.4byte	0x4c39
 11905 4c14 16       		.uleb128 0x16
 11906 4c15 5B3B0000 		.4byte	.LASF765
 11907 4c19 22       		.byte	0x22
 11908 4c1a 35       		.byte	0x35
 11909 4c1b 024C0000 		.4byte	0x4c02
 11910 4c1f 00       		.byte	0
 11911 4c20 16       		.uleb128 0x16
 11912 4c21 0F300000 		.4byte	.LASF766
 11913 4c25 22       		.byte	0x22
ARM GAS  /tmp/cc9AvIGf.s 			page 211


 11914 4c26 36       		.byte	0x36
 11915 4c27 2C000000 		.4byte	0x2c
 11916 4c2b 04       		.byte	0x4
 11917 4c2c 16       		.uleb128 0x16
 11918 4c2d C63B0000 		.4byte	.LASF767
 11919 4c31 22       		.byte	0x22
 11920 4c32 38       		.byte	0x38
 11921 4c33 C94B0000 		.4byte	0x4bc9
 11922 4c37 08       		.byte	0x8
 11923 4c38 00       		.byte	0
 11924 4c39 03       		.uleb128 0x3
 11925 4c3a 084A0000 		.4byte	.LASF768
 11926 4c3e 22       		.byte	0x22
 11927 4c3f 3A       		.byte	0x3a
 11928 4c40 084C0000 		.4byte	0x4c08
 11929 4c44 06       		.uleb128 0x6
 11930 4c45 04       		.byte	0x4
 11931 4c46 07480000 		.4byte	0x4807
 11932 4c4a 06       		.uleb128 0x6
 11933 4c4b 04       		.byte	0x4
 11934 4c4c AA490000 		.4byte	0x49aa
 11935 4c50 06       		.uleb128 0x6
 11936 4c51 04       		.byte	0x4
 11937 4c52 BE4B0000 		.4byte	0x4bbe
 11938 4c56 03       		.uleb128 0x3
 11939 4c57 DD130000 		.4byte	.LASF769
 11940 4c5b 1D       		.byte	0x1d
 11941 4c5c E5       		.byte	0xe5
 11942 4c5d 614C0000 		.4byte	0x4c61
 11943 4c61 06       		.uleb128 0x6
 11944 4c62 04       		.byte	0x4
 11945 4c63 674C0000 		.4byte	0x4c67
 11946 4c67 4C       		.uleb128 0x4c
 11947 4c68 DB470000 		.4byte	0x47db
 11948 4c6c 764C0000 		.4byte	0x4c76
 11949 4c70 0D       		.uleb128 0xd
 11950 4c71 B4000000 		.4byte	0xb4
 11951 4c75 00       		.byte	0
 11952 4c76 06       		.uleb128 0x6
 11953 4c77 04       		.byte	0x4
 11954 4c78 7C4C0000 		.4byte	0x4c7c
 11955 4c7c 07       		.uleb128 0x7
 11956 4c7d 66470000 		.4byte	0x4766
 11957 4c81 06       		.uleb128 0x6
 11958 4c82 04       		.byte	0x4
 11959 4c83 DE010000 		.4byte	0x1de
 11960 4c87 06       		.uleb128 0x6
 11961 4c88 04       		.byte	0x4
 11962 4c89 2E020000 		.4byte	0x22e
 11963 4c8d 06       		.uleb128 0x6
 11964 4c8e 04       		.byte	0x4
 11965 4c8f 22020000 		.4byte	0x222
 11966 4c93 06       		.uleb128 0x6
 11967 4c94 04       		.byte	0x4
 11968 4c95 68040000 		.4byte	0x468
 11969 4c99 06       		.uleb128 0x6
 11970 4c9a 04       		.byte	0x4
ARM GAS  /tmp/cc9AvIGf.s 			page 212


 11971 4c9b AF020000 		.4byte	0x2af
 11972 4c9f 44       		.uleb128 0x44
 11973 4ca0 04       		.byte	0x4
 11974 4ca1 394C0000 		.4byte	0x4c39
 11975 4ca5 06       		.uleb128 0x6
 11976 4ca6 04       		.byte	0x4
 11977 4ca7 AB4C0000 		.4byte	0x4cab
 11978 4cab 4D       		.uleb128 0x4d
 11979 4cac 06       		.uleb128 0x6
 11980 4cad 04       		.byte	0x4
 11981 4cae F3060000 		.4byte	0x6f3
 11982 4cb2 04       		.uleb128 0x4
 11983 4cb3 08       		.byte	0x8
 11984 4cb4 04       		.byte	0x4
 11985 4cb5 AD4B0000 		.4byte	.LASF770
 11986 4cb9 44       		.uleb128 0x44
 11987 4cba 04       		.byte	0x4
 11988 4cbb 6D040000 		.4byte	0x46d
 11989 4cbf 06       		.uleb128 0x6
 11990 4cc0 04       		.byte	0x4
 11991 4cc1 6D040000 		.4byte	0x46d
 11992 4cc5 44       		.uleb128 0x44
 11993 4cc6 04       		.byte	0x4
 11994 4cc7 F3060000 		.4byte	0x6f3
 11995 4ccb 06       		.uleb128 0x6
 11996 4ccc 04       		.byte	0x4
 11997 4ccd 0A070000 		.4byte	0x70a
 11998 4cd1 06       		.uleb128 0x6
 11999 4cd2 04       		.byte	0x4
 12000 4cd3 D74C0000 		.4byte	0x4cd7
 12001 4cd7 4C       		.uleb128 0x4c
 12002 4cd8 9D470000 		.4byte	0x479d
 12003 4cdc E64C0000 		.4byte	0x4ce6
 12004 4ce0 0D       		.uleb128 0xd
 12005 4ce1 E64C0000 		.4byte	0x4ce6
 12006 4ce5 00       		.byte	0
 12007 4ce6 44       		.uleb128 0x44
 12008 4ce7 04       		.byte	0x4
 12009 4ce8 10100000 		.4byte	0x1010
 12010 4cec 06       		.uleb128 0x6
 12011 4ced 04       		.byte	0x4
 12012 4cee F24C0000 		.4byte	0x4cf2
 12013 4cf2 4C       		.uleb128 0x4c
 12014 4cf3 9D470000 		.4byte	0x479d
 12015 4cf7 064D0000 		.4byte	0x4d06
 12016 4cfb 0D       		.uleb128 0xd
 12017 4cfc E64C0000 		.4byte	0x4ce6
 12018 4d00 0D       		.uleb128 0xd
 12019 4d01 A54C0000 		.4byte	0x4ca5
 12020 4d05 00       		.byte	0
 12021 4d06 06       		.uleb128 0x6
 12022 4d07 04       		.byte	0x4
 12023 4d08 E80B0000 		.4byte	0xbe8
 12024 4d0c 06       		.uleb128 0x6
 12025 4d0d 04       		.byte	0x4
 12026 4d0e 1A100000 		.4byte	0x101a
 12027 4d12 06       		.uleb128 0x6
ARM GAS  /tmp/cc9AvIGf.s 			page 213


 12028 4d13 04       		.byte	0x4
 12029 4d14 F8060000 		.4byte	0x6f8
 12030 4d18 44       		.uleb128 0x44
 12031 4d19 04       		.byte	0x4
 12032 4d1a 0A070000 		.4byte	0x70a
 12033 4d1e 06       		.uleb128 0x6
 12034 4d1f 04       		.byte	0x4
 12035 4d20 15100000 		.4byte	0x1015
 12036 4d24 44       		.uleb128 0x44
 12037 4d25 04       		.byte	0x4
 12038 4d26 5C070000 		.4byte	0x75c
 12039 4d2a 44       		.uleb128 0x44
 12040 4d2b 04       		.byte	0x4
 12041 4d2c CC080000 		.4byte	0x8cc
 12042 4d30 44       		.uleb128 0x44
 12043 4d31 04       		.byte	0x4
 12044 4d32 D1080000 		.4byte	0x8d1
 12045 4d36 44       		.uleb128 0x44
 12046 4d37 04       		.byte	0x4
 12047 4d38 410A0000 		.4byte	0xa41
 12048 4d3c 06       		.uleb128 0x6
 12049 4d3d 04       		.byte	0x4
 12050 4d3e 31100000 		.4byte	0x1031
 12051 4d42 06       		.uleb128 0x6
 12052 4d43 04       		.byte	0x4
 12053 4d44 484D0000 		.4byte	0x4d48
 12054 4d48 4C       		.uleb128 0x4c
 12055 4d49 9D470000 		.4byte	0x479d
 12056 4d4d 574D0000 		.4byte	0x4d57
 12057 4d51 0D       		.uleb128 0xd
 12058 4d52 574D0000 		.4byte	0x4d57
 12059 4d56 00       		.byte	0
 12060 4d57 44       		.uleb128 0x44
 12061 4d58 04       		.byte	0x4
 12062 4d59 C2170000 		.4byte	0x17c2
 12063 4d5d 06       		.uleb128 0x6
 12064 4d5e 04       		.byte	0x4
 12065 4d5f 634D0000 		.4byte	0x4d63
 12066 4d63 4C       		.uleb128 0x4c
 12067 4d64 9D470000 		.4byte	0x479d
 12068 4d68 774D0000 		.4byte	0x4d77
 12069 4d6c 0D       		.uleb128 0xd
 12070 4d6d 574D0000 		.4byte	0x4d57
 12071 4d71 0D       		.uleb128 0xd
 12072 4d72 A54C0000 		.4byte	0x4ca5
 12073 4d76 00       		.byte	0
 12074 4d77 06       		.uleb128 0x6
 12075 4d78 04       		.byte	0x4
 12076 4d79 9F130000 		.4byte	0x139f
 12077 4d7d 06       		.uleb128 0x6
 12078 4d7e 04       		.byte	0x4
 12079 4d7f EB170000 		.4byte	0x17eb
 12080 4d83 06       		.uleb128 0x6
 12081 4d84 04       		.byte	0x4
 12082 4d85 1F100000 		.4byte	0x101f
 12083 4d89 44       		.uleb128 0x44
 12084 4d8a 04       		.byte	0x4
ARM GAS  /tmp/cc9AvIGf.s 			page 214


 12085 4d8b 31100000 		.4byte	0x1031
 12086 4d8f 06       		.uleb128 0x6
 12087 4d90 04       		.byte	0x4
 12088 4d91 C7170000 		.4byte	0x17c7
 12089 4d95 44       		.uleb128 0x44
 12090 4d96 04       		.byte	0x4
 12091 4d97 7E100000 		.4byte	0x107e
 12092 4d9b 44       		.uleb128 0x44
 12093 4d9c 04       		.byte	0x4
 12094 4d9d EE110000 		.4byte	0x11ee
 12095 4da1 44       		.uleb128 0x44
 12096 4da2 04       		.byte	0x4
 12097 4da3 F3110000 		.4byte	0x11f3
 12098 4da7 44       		.uleb128 0x44
 12099 4da8 04       		.byte	0x4
 12100 4da9 63130000 		.4byte	0x1363
 12101 4dad 06       		.uleb128 0x6
 12102 4dae 04       		.byte	0x4
 12103 4daf 02180000 		.4byte	0x1802
 12104 4db3 06       		.uleb128 0x6
 12105 4db4 04       		.byte	0x4
 12106 4db5 B94D0000 		.4byte	0x4db9
 12107 4db9 4C       		.uleb128 0x4c
 12108 4dba 9D470000 		.4byte	0x479d
 12109 4dbe C84D0000 		.4byte	0x4dc8
 12110 4dc2 0D       		.uleb128 0xd
 12111 4dc3 C84D0000 		.4byte	0x4dc8
 12112 4dc7 00       		.byte	0
 12113 4dc8 44       		.uleb128 0x44
 12114 4dc9 04       		.byte	0x4
 12115 4dca BD1C0000 		.4byte	0x1cbd
 12116 4dce 06       		.uleb128 0x6
 12117 4dcf 04       		.byte	0x4
 12118 4dd0 D44D0000 		.4byte	0x4dd4
 12119 4dd4 4C       		.uleb128 0x4c
 12120 4dd5 9D470000 		.4byte	0x479d
 12121 4dd9 E84D0000 		.4byte	0x4de8
 12122 4ddd 0D       		.uleb128 0xd
 12123 4dde C84D0000 		.4byte	0x4dc8
 12124 4de2 0D       		.uleb128 0xd
 12125 4de3 A54C0000 		.4byte	0x4ca5
 12126 4de7 00       		.byte	0
 12127 4de8 06       		.uleb128 0x6
 12128 4de9 04       		.byte	0x4
 12129 4dea 9A180000 		.4byte	0x189a
 12130 4dee 06       		.uleb128 0x6
 12131 4def 04       		.byte	0x4
 12132 4df0 8C220000 		.4byte	0x228c
 12133 4df4 06       		.uleb128 0x6
 12134 4df5 04       		.byte	0x4
 12135 4df6 F0170000 		.4byte	0x17f0
 12136 4dfa 44       		.uleb128 0x44
 12137 4dfb 04       		.byte	0x4
 12138 4dfc 02180000 		.4byte	0x1802
 12139 4e00 06       		.uleb128 0x6
 12140 4e01 04       		.byte	0x4
 12141 4e02 C21C0000 		.4byte	0x1cc2
ARM GAS  /tmp/cc9AvIGf.s 			page 215


 12142 4e06 44       		.uleb128 0x44
 12143 4e07 04       		.byte	0x4
 12144 4e08 4F180000 		.4byte	0x184f
 12145 4e0c 44       		.uleb128 0x44
 12146 4e0d 04       		.byte	0x4
 12147 4e0e 54180000 		.4byte	0x1854
 12148 4e12 44       		.uleb128 0x44
 12149 4e13 04       		.byte	0x4
 12150 4e14 59180000 		.4byte	0x1859
 12151 4e18 44       		.uleb128 0x44
 12152 4e19 04       		.byte	0x4
 12153 4e1a 5E180000 		.4byte	0x185e
 12154 4e1e 07       		.uleb128 0x7
 12155 4e1f 004E0000 		.4byte	0x4e00
 12156 4e23 44       		.uleb128 0x44
 12157 4e24 04       		.byte	0x4
 12158 4e25 C21C0000 		.4byte	0x1cc2
 12159 4e29 07       		.uleb128 0x7
 12160 4e2a C3000000 		.4byte	0xc3
 12161 4e2e 06       		.uleb128 0x6
 12162 4e2f 04       		.byte	0x4
 12163 4e30 BD1C0000 		.4byte	0x1cbd
 12164 4e34 06       		.uleb128 0x6
 12165 4e35 04       		.byte	0x4
 12166 4e36 91220000 		.4byte	0x2291
 12167 4e3a 44       		.uleb128 0x44
 12168 4e3b 04       		.byte	0x4
 12169 4e3c 91220000 		.4byte	0x2291
 12170 4e40 44       		.uleb128 0x44
 12171 4e41 04       		.byte	0x4
 12172 4e42 FC230000 		.4byte	0x23fc
 12173 4e46 44       		.uleb128 0x44
 12174 4e47 04       		.byte	0x4
 12175 4e48 01240000 		.4byte	0x2401
 12176 4e4c 44       		.uleb128 0x44
 12177 4e4d 04       		.byte	0x4
 12178 4e4e 06240000 		.4byte	0x2406
 12179 4e52 44       		.uleb128 0x44
 12180 4e53 04       		.byte	0x4
 12181 4e54 15100000 		.4byte	0x1015
 12182 4e58 44       		.uleb128 0x44
 12183 4e59 04       		.byte	0x4
 12184 4e5a C7170000 		.4byte	0x17c7
 12185 4e5e 44       		.uleb128 0x44
 12186 4e5f 04       		.byte	0x4
 12187 4e60 0B240000 		.4byte	0x240b
 12188 4e64 06       		.uleb128 0x6
 12189 4e65 04       		.byte	0x4
 12190 4e66 FC230000 		.4byte	0x23fc
 12191 4e6a 06       		.uleb128 0x6
 12192 4e6b 04       		.byte	0x4
 12193 4e6c 22240000 		.4byte	0x2422
 12194 4e70 06       		.uleb128 0x6
 12195 4e71 04       		.byte	0x4
 12196 4e72 764E0000 		.4byte	0x4e76
 12197 4e76 4C       		.uleb128 0x4c
 12198 4e77 9D470000 		.4byte	0x479d
ARM GAS  /tmp/cc9AvIGf.s 			page 216


 12199 4e7b 854E0000 		.4byte	0x4e85
 12200 4e7f 0D       		.uleb128 0xd
 12201 4e80 854E0000 		.4byte	0x4e85
 12202 4e84 00       		.byte	0
 12203 4e85 44       		.uleb128 0x44
 12204 4e86 04       		.byte	0x4
 12205 4e87 522A0000 		.4byte	0x2a52
 12206 4e8b 06       		.uleb128 0x6
 12207 4e8c 04       		.byte	0x4
 12208 4e8d 914E0000 		.4byte	0x4e91
 12209 4e91 4C       		.uleb128 0x4c
 12210 4e92 9D470000 		.4byte	0x479d
 12211 4e96 A54E0000 		.4byte	0x4ea5
 12212 4e9a 0D       		.uleb128 0xd
 12213 4e9b 854E0000 		.4byte	0x4e85
 12214 4e9f 0D       		.uleb128 0xd
 12215 4ea0 A54C0000 		.4byte	0x4ca5
 12216 4ea4 00       		.byte	0
 12217 4ea5 06       		.uleb128 0x6
 12218 4ea6 04       		.byte	0x4
 12219 4ea7 2A260000 		.4byte	0x262a
 12220 4eab 06       		.uleb128 0x6
 12221 4eac 04       		.byte	0x4
 12222 4ead 572A0000 		.4byte	0x2a57
 12223 4eb1 06       		.uleb128 0x6
 12224 4eb2 04       		.byte	0x4
 12225 4eb3 10240000 		.4byte	0x2410
 12226 4eb7 44       		.uleb128 0x44
 12227 4eb8 04       		.byte	0x4
 12228 4eb9 22240000 		.4byte	0x2422
 12229 4ebd 06       		.uleb128 0x6
 12230 4ebe 04       		.byte	0x4
 12231 4ebf 01240000 		.4byte	0x2401
 12232 4ec3 44       		.uleb128 0x44
 12233 4ec4 04       		.byte	0x4
 12234 4ec5 74240000 		.4byte	0x2474
 12235 4ec9 44       		.uleb128 0x44
 12236 4eca 04       		.byte	0x4
 12237 4ecb 79240000 		.4byte	0x2479
 12238 4ecf 44       		.uleb128 0x44
 12239 4ed0 04       		.byte	0x4
 12240 4ed1 7E240000 		.4byte	0x247e
 12241 4ed5 44       		.uleb128 0x44
 12242 4ed6 04       		.byte	0x4
 12243 4ed7 83240000 		.4byte	0x2483
 12244 4edb 07       		.uleb128 0x7
 12245 4edc BD4E0000 		.4byte	0x4ebd
 12246 4ee0 44       		.uleb128 0x44
 12247 4ee1 04       		.byte	0x4
 12248 4ee2 344E0000 		.4byte	0x4e34
 12249 4ee6 07       		.uleb128 0x7
 12250 4ee7 1E4D0000 		.4byte	0x4d1e
 12251 4eeb 06       		.uleb128 0x6
 12252 4eec 04       		.byte	0x4
 12253 4eed 162C0000 		.4byte	0x2c16
 12254 4ef1 44       		.uleb128 0x44
 12255 4ef2 04       		.byte	0x4
ARM GAS  /tmp/cc9AvIGf.s 			page 217


 12256 4ef3 FC470000 		.4byte	0x47fc
 12257 4ef7 06       		.uleb128 0x6
 12258 4ef8 04       		.byte	0x4
 12259 4ef9 5C2A0000 		.4byte	0x2a5c
 12260 4efd 44       		.uleb128 0x44
 12261 4efe 04       		.byte	0x4
 12262 4eff AF020000 		.4byte	0x2af
 12263 4f03 44       		.uleb128 0x44
 12264 4f04 04       		.byte	0x4
 12265 4f05 5C2A0000 		.4byte	0x2a5c
 12266 4f09 06       		.uleb128 0x6
 12267 4f0a 04       		.byte	0x4
 12268 4f0b 8F2D0000 		.4byte	0x2d8f
 12269 4f0f 06       		.uleb128 0x6
 12270 4f10 04       		.byte	0x4
 12271 4f11 1B2C0000 		.4byte	0x2c1b
 12272 4f15 44       		.uleb128 0x44
 12273 4f16 04       		.byte	0x4
 12274 4f17 1B2C0000 		.4byte	0x2c1b
 12275 4f1b 06       		.uleb128 0x6
 12276 4f1c 04       		.byte	0x4
 12277 4f1d 722E0000 		.4byte	0x2e72
 12278 4f21 06       		.uleb128 0x6
 12279 4f22 04       		.byte	0x4
 12280 4f23 942D0000 		.4byte	0x2d94
 12281 4f27 06       		.uleb128 0x6
 12282 4f28 04       		.byte	0x4
 12283 4f29 5B2F0000 		.4byte	0x2f5b
 12284 4f2d 06       		.uleb128 0x6
 12285 4f2e 04       		.byte	0x4
 12286 4f2f 772E0000 		.4byte	0x2e77
 12287 4f33 08       		.uleb128 0x8
 12288 4f34 BC000000 		.4byte	0xbc
 12289 4f38 434F0000 		.4byte	0x4f43
 12290 4f3c 09       		.uleb128 0x9
 12291 4f3d AD000000 		.4byte	0xad
 12292 4f41 06       		.byte	0x6
 12293 4f42 00       		.byte	0
 12294 4f43 08       		.uleb128 0x8
 12295 4f44 BC000000 		.4byte	0xbc
 12296 4f48 534F0000 		.4byte	0x4f53
 12297 4f4c 09       		.uleb128 0x9
 12298 4f4d AD000000 		.4byte	0xad
 12299 4f51 0F       		.byte	0xf
 12300 4f52 00       		.byte	0
 12301 4f53 08       		.uleb128 0x8
 12302 4f54 50000000 		.4byte	0x50
 12303 4f58 634F0000 		.4byte	0x4f63
 12304 4f5c 09       		.uleb128 0x9
 12305 4f5d AD000000 		.4byte	0xad
 12306 4f61 09       		.byte	0x9
 12307 4f62 00       		.byte	0
 12308 4f63 08       		.uleb128 0x8
 12309 4f64 50000000 		.4byte	0x50
 12310 4f68 734F0000 		.4byte	0x4f73
 12311 4f6c 09       		.uleb128 0x9
 12312 4f6d AD000000 		.4byte	0xad
ARM GAS  /tmp/cc9AvIGf.s 			page 218


 12313 4f71 1E       		.byte	0x1e
 12314 4f72 00       		.byte	0
 12315 4f73 06       		.uleb128 0x6
 12316 4f74 04       		.byte	0x4
 12317 4f75 FB300000 		.4byte	0x30fb
 12318 4f79 06       		.uleb128 0x6
 12319 4f7a 04       		.byte	0x4
 12320 4f7b 7F4F0000 		.4byte	0x4f7f
 12321 4f7f 4C       		.uleb128 0x4c
 12322 4f80 9D470000 		.4byte	0x479d
 12323 4f84 8E4F0000 		.4byte	0x4f8e
 12324 4f88 0D       		.uleb128 0xd
 12325 4f89 8E4F0000 		.4byte	0x4f8e
 12326 4f8d 00       		.byte	0
 12327 4f8e 44       		.uleb128 0x44
 12328 4f8f 04       		.byte	0x4
 12329 4f90 2B370000 		.4byte	0x372b
 12330 4f94 06       		.uleb128 0x6
 12331 4f95 04       		.byte	0x4
 12332 4f96 9A4F0000 		.4byte	0x4f9a
 12333 4f9a 4C       		.uleb128 0x4c
 12334 4f9b 9D470000 		.4byte	0x479d
 12335 4f9f AE4F0000 		.4byte	0x4fae
 12336 4fa3 0D       		.uleb128 0xd
 12337 4fa4 8E4F0000 		.4byte	0x4f8e
 12338 4fa8 0D       		.uleb128 0xd
 12339 4fa9 A54C0000 		.4byte	0x4ca5
 12340 4fad 00       		.byte	0
 12341 4fae 06       		.uleb128 0x6
 12342 4faf 04       		.byte	0x4
 12343 4fb0 03330000 		.4byte	0x3303
 12344 4fb4 06       		.uleb128 0x6
 12345 4fb5 04       		.byte	0x4
 12346 4fb6 77390000 		.4byte	0x3977
 12347 4fba 06       		.uleb128 0x6
 12348 4fbb 04       		.byte	0x4
 12349 4fbc E9300000 		.4byte	0x30e9
 12350 4fc0 44       		.uleb128 0x44
 12351 4fc1 04       		.byte	0x4
 12352 4fc2 FB300000 		.4byte	0x30fb
 12353 4fc6 06       		.uleb128 0x6
 12354 4fc7 04       		.byte	0x4
 12355 4fc8 30370000 		.4byte	0x3730
 12356 4fcc 44       		.uleb128 0x44
 12357 4fcd 04       		.byte	0x4
 12358 4fce 4D310000 		.4byte	0x314d
 12359 4fd2 44       		.uleb128 0x44
 12360 4fd3 04       		.byte	0x4
 12361 4fd4 52310000 		.4byte	0x3152
 12362 4fd8 44       		.uleb128 0x44
 12363 4fd9 04       		.byte	0x4
 12364 4fda 57310000 		.4byte	0x3157
 12365 4fde 44       		.uleb128 0x44
 12366 4fdf 04       		.byte	0x4
 12367 4fe0 5C310000 		.4byte	0x315c
 12368 4fe4 07       		.uleb128 0x7
 12369 4fe5 C64F0000 		.4byte	0x4fc6
ARM GAS  /tmp/cc9AvIGf.s 			page 219


 12370 4fe9 44       		.uleb128 0x44
 12371 4fea 04       		.byte	0x4
 12372 4feb 30370000 		.4byte	0x3730
 12373 4fef 06       		.uleb128 0x6
 12374 4ff0 04       		.byte	0x4
 12375 4ff1 2B370000 		.4byte	0x372b
 12376 4ff5 44       		.uleb128 0x44
 12377 4ff6 04       		.byte	0x4
 12378 4ff7 572A0000 		.4byte	0x2a57
 12379 4ffb 44       		.uleb128 0x44
 12380 4ffc 04       		.byte	0x4
 12381 4ffd 1A100000 		.4byte	0x101a
 12382 5001 07       		.uleb128 0x7
 12383 5002 8F4D0000 		.4byte	0x4d8f
 12384 5006 06       		.uleb128 0x6
 12385 5007 04       		.byte	0x4
 12386 5008 7C390000 		.4byte	0x397c
 12387 500c 44       		.uleb128 0x44
 12388 500d 04       		.byte	0x4
 12389 500e BE4B0000 		.4byte	0x4bbe
 12390 5012 06       		.uleb128 0x6
 12391 5013 04       		.byte	0x4
 12392 5014 703A0000 		.4byte	0x3a70
 12393 5018 06       		.uleb128 0x6
 12394 5019 04       		.byte	0x4
 12395 501a 463B0000 		.4byte	0x3b46
 12396 501e 06       		.uleb128 0x6
 12397 501f 04       		.byte	0x4
 12398 5020 3A3C0000 		.4byte	0x3c3a
 12399 5024 06       		.uleb128 0x6
 12400 5025 04       		.byte	0x4
 12401 5026 2A500000 		.4byte	0x502a
 12402 502a 4C       		.uleb128 0x4c
 12403 502b 9D470000 		.4byte	0x479d
 12404 502f 39500000 		.4byte	0x5039
 12405 5033 0D       		.uleb128 0xd
 12406 5034 39500000 		.4byte	0x5039
 12407 5038 00       		.byte	0
 12408 5039 44       		.uleb128 0x44
 12409 503a 04       		.byte	0x4
 12410 503b F5400000 		.4byte	0x40f5
 12411 503f 06       		.uleb128 0x6
 12412 5040 04       		.byte	0x4
 12413 5041 45500000 		.4byte	0x5045
 12414 5045 4C       		.uleb128 0x4c
 12415 5046 9D470000 		.4byte	0x479d
 12416 504a 59500000 		.4byte	0x5059
 12417 504e 0D       		.uleb128 0xd
 12418 504f 39500000 		.4byte	0x5039
 12419 5053 0D       		.uleb128 0xd
 12420 5054 A54C0000 		.4byte	0x4ca5
 12421 5058 00       		.byte	0
 12422 5059 06       		.uleb128 0x6
 12423 505a 04       		.byte	0x4
 12424 505b D23C0000 		.4byte	0x3cd2
 12425 505f 06       		.uleb128 0x6
 12426 5060 04       		.byte	0x4
ARM GAS  /tmp/cc9AvIGf.s 			page 220


 12427 5061 FA400000 		.4byte	0x40fa
 12428 5065 06       		.uleb128 0x6
 12429 5066 04       		.byte	0x4
 12430 5067 283C0000 		.4byte	0x3c28
 12431 506b 44       		.uleb128 0x44
 12432 506c 04       		.byte	0x4
 12433 506d 3A3C0000 		.4byte	0x3c3a
 12434 5071 06       		.uleb128 0x6
 12435 5072 04       		.byte	0x4
 12436 5073 0B240000 		.4byte	0x240b
 12437 5077 44       		.uleb128 0x44
 12438 5078 04       		.byte	0x4
 12439 5079 873C0000 		.4byte	0x3c87
 12440 507d 44       		.uleb128 0x44
 12441 507e 04       		.byte	0x4
 12442 507f 8C3C0000 		.4byte	0x3c8c
 12443 5083 44       		.uleb128 0x44
 12444 5084 04       		.byte	0x4
 12445 5085 913C0000 		.4byte	0x3c91
 12446 5089 44       		.uleb128 0x44
 12447 508a 04       		.byte	0x4
 12448 508b 963C0000 		.4byte	0x3c96
 12449 508f 07       		.uleb128 0x7
 12450 5090 71500000 		.4byte	0x5071
 12451 5094 4B       		.uleb128 0x4b
 12452 5095 7C470000 		.4byte	0x477c
 12453 5099 06       		.uleb128 0x6
 12454 509a 04       		.byte	0x4
 12455 509b 0C410000 		.4byte	0x410c
 12456 509f 06       		.uleb128 0x6
 12457 50a0 04       		.byte	0x4
 12458 50a1 1C370000 		.4byte	0x371c
 12459 50a5 06       		.uleb128 0x6
 12460 50a6 04       		.byte	0x4
 12461 50a7 5C310000 		.4byte	0x315c
 12462 50ab 44       		.uleb128 0x44
 12463 50ac 04       		.byte	0x4
 12464 50ad BD360000 		.4byte	0x36bd
 12465 50b1 06       		.uleb128 0x6
 12466 50b2 04       		.byte	0x4
 12467 50b3 BD360000 		.4byte	0x36bd
 12468 50b7 06       		.uleb128 0x6
 12469 50b8 04       		.byte	0x4
 12470 50b9 432A0000 		.4byte	0x2a43
 12471 50bd 06       		.uleb128 0x6
 12472 50be 04       		.byte	0x4
 12473 50bf 83240000 		.4byte	0x2483
 12474 50c3 44       		.uleb128 0x44
 12475 50c4 04       		.byte	0x4
 12476 50c5 E4290000 		.4byte	0x29e4
 12477 50c9 06       		.uleb128 0x6
 12478 50ca 04       		.byte	0x4
 12479 50cb 522A0000 		.4byte	0x2a52
 12480 50cf 06       		.uleb128 0x6
 12481 50d0 04       		.byte	0x4
 12482 50d1 E4290000 		.4byte	0x29e4
 12483 50d5 06       		.uleb128 0x6
ARM GAS  /tmp/cc9AvIGf.s 			page 221


 12484 50d6 04       		.byte	0x4
 12485 50d7 01100000 		.4byte	0x1001
 12486 50db 06       		.uleb128 0x6
 12487 50dc 04       		.byte	0x4
 12488 50dd 410A0000 		.4byte	0xa41
 12489 50e1 44       		.uleb128 0x44
 12490 50e2 04       		.byte	0x4
 12491 50e3 A20F0000 		.4byte	0xfa2
 12492 50e7 06       		.uleb128 0x6
 12493 50e8 04       		.byte	0x4
 12494 50e9 10100000 		.4byte	0x1010
 12495 50ed 06       		.uleb128 0x6
 12496 50ee 04       		.byte	0x4
 12497 50ef A20F0000 		.4byte	0xfa2
 12498 50f3 08       		.uleb128 0x8
 12499 50f4 03510000 		.4byte	0x5103
 12500 50f8 03510000 		.4byte	0x5103
 12501 50fc 09       		.uleb128 0x9
 12502 50fd AD000000 		.4byte	0xad
 12503 5101 09       		.byte	0x9
 12504 5102 00       		.byte	0
 12505 5103 06       		.uleb128 0x6
 12506 5104 04       		.byte	0x4
 12507 5105 602F0000 		.4byte	0x2f60
 12508 5109 08       		.uleb128 0x8
 12509 510a 602F0000 		.4byte	0x2f60
 12510 510e 19510000 		.4byte	0x5119
 12511 5112 09       		.uleb128 0x9
 12512 5113 AD000000 		.4byte	0xad
 12513 5117 09       		.byte	0x9
 12514 5118 00       		.byte	0
 12515 5119 06       		.uleb128 0x6
 12516 511a 04       		.byte	0x4
 12517 511b 17470000 		.4byte	0x4717
 12518 511f 44       		.uleb128 0x44
 12519 5120 04       		.byte	0x4
 12520 5121 77390000 		.4byte	0x3977
 12521 5125 44       		.uleb128 0x44
 12522 5126 04       		.byte	0x4
 12523 5127 8C220000 		.4byte	0x228c
 12524 512b 44       		.uleb128 0x44
 12525 512c 04       		.byte	0x4
 12526 512d FA400000 		.4byte	0x40fa
 12527 5131 06       		.uleb128 0x6
 12528 5132 04       		.byte	0x4
 12529 5133 FF400000 		.4byte	0x40ff
 12530 5137 44       		.uleb128 0x44
 12531 5138 04       		.byte	0x4
 12532 5139 1C470000 		.4byte	0x471c
 12533 513d 06       		.uleb128 0x6
 12534 513e 04       		.byte	0x4
 12535 513f 5C070000 		.4byte	0x75c
 12536 5143 44       		.uleb128 0x44
 12537 5144 04       		.byte	0x4
 12538 5145 430D0000 		.4byte	0xd43
 12539 5149 06       		.uleb128 0x6
 12540 514a 04       		.byte	0x4
ARM GAS  /tmp/cc9AvIGf.s 			page 222


 12541 514b 430D0000 		.4byte	0xd43
 12542 514f 06       		.uleb128 0x6
 12543 5150 04       		.byte	0x4
 12544 5151 7E100000 		.4byte	0x107e
 12545 5155 44       		.uleb128 0x44
 12546 5156 04       		.byte	0x4
 12547 5157 FA140000 		.4byte	0x14fa
 12548 515b 06       		.uleb128 0x6
 12549 515c 04       		.byte	0x4
 12550 515d FA140000 		.4byte	0x14fa
 12551 5161 06       		.uleb128 0x6
 12552 5162 04       		.byte	0x4
 12553 5163 D1080000 		.4byte	0x8d1
 12554 5167 44       		.uleb128 0x44
 12555 5168 04       		.byte	0x4
 12556 5169 3F0F0000 		.4byte	0xf3f
 12557 516d 06       		.uleb128 0x6
 12558 516e 04       		.byte	0x4
 12559 516f 3F0F0000 		.4byte	0xf3f
 12560 5173 06       		.uleb128 0x6
 12561 5174 04       		.byte	0x4
 12562 5175 F3110000 		.4byte	0x11f3
 12563 5179 44       		.uleb128 0x44
 12564 517a 04       		.byte	0x4
 12565 517b F6160000 		.4byte	0x16f6
 12566 517f 06       		.uleb128 0x6
 12567 5180 04       		.byte	0x4
 12568 5181 F6160000 		.4byte	0x16f6
 12569 5185 4E       		.uleb128 0x4e
 12570 5186 21470000 		.4byte	0x4721
 12571 518a 03       		.byte	0x3
 12572 518b B8510000 		.4byte	0x51b8
 12573 518f 2B       		.uleb128 0x2b
 12574 5190 0C2A0000 		.4byte	.LASF701
 12575 5194 91220000 		.4byte	0x2291
 12576 5198 2B       		.uleb128 0x2b
 12577 5199 3F230000 		.4byte	.LASF702
 12578 519d 91220000 		.4byte	0x2291
 12579 51a1 4F       		.uleb128 0x4f
 12580 51a2 50       		.uleb128 0x50
 12581 51a3 706400   		.ascii	"pd\000"
 12582 51a6 23       		.byte	0x23
 12583 51a7 21       		.byte	0x21
 12584 51a8 B8510000 		.4byte	0x51b8
 12585 51ac 50       		.uleb128 0x50
 12586 51ad 706200   		.ascii	"pb\000"
 12587 51b0 23       		.byte	0x23
 12588 51b1 22       		.byte	0x22
 12589 51b2 B8510000 		.4byte	0x51b8
 12590 51b6 00       		.byte	0
 12591 51b7 00       		.byte	0
 12592 51b8 07       		.uleb128 0x7
 12593 51b9 644E0000 		.4byte	0x4e64
 12594 51bd 51       		.uleb128 0x51
 12595 51be A3010000 		.4byte	0x1a3
 12596 51c2 02       		.byte	0x2
 12597 51c3 CB510000 		.4byte	0x51cb
ARM GAS  /tmp/cc9AvIGf.s 			page 223


 12598 51c7 D5510000 		.4byte	0x51d5
 12599 51cb 52       		.uleb128 0x52
 12600 51cc 9C290000 		.4byte	.LASF771
 12601 51d0 D5510000 		.4byte	0x51d5
 12602 51d4 00       		.byte	0
 12603 51d5 07       		.uleb128 0x7
 12604 51d6 5A470000 		.4byte	0x475a
 12605 51da 53       		.uleb128 0x53
 12606 51db BD510000 		.4byte	0x51bd
 12607 51df 16580000 		.4byte	.LASF773
 12608 51e3 00000000 		.4byte	.LFB6
 12609 51e7 0C000000 		.4byte	.LFE6-.LFB6
 12610 51eb 01       		.uleb128 0x1
 12611 51ec 9C       		.byte	0x9c
 12612 51ed F5510000 		.4byte	0x51f5
 12613 51f1 FE510000 		.4byte	0x51fe
 12614 51f5 54       		.uleb128 0x54
 12615 51f6 CB510000 		.4byte	0x51cb
 12616 51fa 02       		.uleb128 0x2
 12617 51fb 91       		.byte	0x91
 12618 51fc 7C       		.sleb128 -4
 12619 51fd 00       		.byte	0
 12620 51fe 51       		.uleb128 0x51
 12621 51ff BD010000 		.4byte	0x1bd
 12622 5203 02       		.byte	0x2
 12623 5204 0C520000 		.4byte	0x520c
 12624 5208 1F520000 		.4byte	0x521f
 12625 520c 52       		.uleb128 0x52
 12626 520d 9C290000 		.4byte	.LASF771
 12627 5211 D5510000 		.4byte	0x51d5
 12628 5215 52       		.uleb128 0x52
 12629 5216 295A0000 		.4byte	.LASF772
 12630 521a 1F520000 		.4byte	0x521f
 12631 521e 00       		.byte	0
 12632 521f 07       		.uleb128 0x7
 12633 5220 25000000 		.4byte	0x25
 12634 5224 53       		.uleb128 0x53
 12635 5225 FE510000 		.4byte	0x51fe
 12636 5229 25210000 		.4byte	.LASF774
 12637 522d 00000000 		.4byte	.LFB9
 12638 5231 0C000000 		.4byte	.LFE9-.LFB9
 12639 5235 01       		.uleb128 0x1
 12640 5236 9C       		.byte	0x9c
 12641 5237 3F520000 		.4byte	0x523f
 12642 523b 48520000 		.4byte	0x5248
 12643 523f 54       		.uleb128 0x54
 12644 5240 0C520000 		.4byte	0x520c
 12645 5244 02       		.uleb128 0x2
 12646 5245 91       		.byte	0x91
 12647 5246 7C       		.sleb128 -4
 12648 5247 00       		.byte	0
 12649 5248 55       		.uleb128 0x55
 12650 5249 09020000 		.4byte	0x209
 12651 524d 14       		.byte	0x14
 12652 524e 00000000 		.4byte	.LFB18
 12653 5252 0E000000 		.4byte	.LFE18-.LFB18
 12654 5256 01       		.uleb128 0x1
ARM GAS  /tmp/cc9AvIGf.s 			page 224


 12655 5257 9C       		.byte	0x9c
 12656 5258 74520000 		.4byte	0x5274
 12657 525c 56       		.uleb128 0x56
 12658 525d 02000000 		.4byte	.LBB10
 12659 5261 06000000 		.4byte	.LBE10-.LBB10
 12660 5265 57       		.uleb128 0x57
 12661 5266 746D7000 		.ascii	"tmp\000"
 12662 526a 02       		.byte	0x2
 12663 526b 16       		.byte	0x16
 12664 526c 87470000 		.4byte	0x4787
 12665 5270 01       		.uleb128 0x1
 12666 5271 53       		.byte	0x53
 12667 5272 00       		.byte	0
 12668 5273 00       		.byte	0
 12669 5274 55       		.uleb128 0x55
 12670 5275 15020000 		.4byte	0x215
 12671 5279 1B       		.byte	0x1b
 12672 527a 00000000 		.4byte	.LFB19
 12673 527e 0E000000 		.4byte	.LFE19-.LFB19
 12674 5282 01       		.uleb128 0x1
 12675 5283 9C       		.byte	0x9c
 12676 5284 A0520000 		.4byte	0x52a0
 12677 5288 56       		.uleb128 0x56
 12678 5289 06000000 		.4byte	.LBB13
 12679 528d 06000000 		.4byte	.LBE13-.LBB13
 12680 5291 57       		.uleb128 0x57
 12681 5292 746D7000 		.ascii	"tmp\000"
 12682 5296 02       		.byte	0x2
 12683 5297 1D       		.byte	0x1d
 12684 5298 87470000 		.4byte	0x4787
 12685 529c 01       		.uleb128 0x1
 12686 529d 53       		.byte	0x53
 12687 529e 00       		.byte	0
 12688 529f 00       		.byte	0
 12689 52a0 51       		.uleb128 0x51
 12690 52a1 41020000 		.4byte	0x241
 12691 52a5 02       		.byte	0x2
 12692 52a6 AE520000 		.4byte	0x52ae
 12693 52aa B8520000 		.4byte	0x52b8
 12694 52ae 52       		.uleb128 0x52
 12695 52af 9C290000 		.4byte	.LASF771
 12696 52b3 B8520000 		.4byte	0x52b8
 12697 52b7 00       		.byte	0
 12698 52b8 07       		.uleb128 0x7
 12699 52b9 874C0000 		.4byte	0x4c87
 12700 52bd 58       		.uleb128 0x58
 12701 52be A0520000 		.4byte	0x52a0
 12702 52c2 C1310000 		.4byte	.LASF775
 12703 52c6 00000000 		.4byte	.LFB21
 12704 52ca 1A000000 		.4byte	.LFE21-.LFB21
 12705 52ce 01       		.uleb128 0x1
 12706 52cf 9C       		.byte	0x9c
 12707 52d0 D8520000 		.4byte	0x52d8
 12708 52d4 E1520000 		.4byte	0x52e1
 12709 52d8 54       		.uleb128 0x54
 12710 52d9 AE520000 		.4byte	0x52ae
 12711 52dd 02       		.uleb128 0x2
ARM GAS  /tmp/cc9AvIGf.s 			page 225


 12712 52de 91       		.byte	0x91
 12713 52df 74       		.sleb128 -12
 12714 52e0 00       		.byte	0
 12715 52e1 51       		.uleb128 0x51
 12716 52e2 5B020000 		.4byte	0x25b
 12717 52e6 02       		.byte	0x2
 12718 52e7 EF520000 		.4byte	0x52ef
 12719 52eb 02530000 		.4byte	0x5302
 12720 52ef 52       		.uleb128 0x52
 12721 52f0 9C290000 		.4byte	.LASF771
 12722 52f4 B8520000 		.4byte	0x52b8
 12723 52f8 52       		.uleb128 0x52
 12724 52f9 295A0000 		.4byte	.LASF772
 12725 52fd 02530000 		.4byte	0x5302
 12726 5301 00       		.byte	0
 12727 5302 07       		.uleb128 0x7
 12728 5303 25000000 		.4byte	0x25
 12729 5307 58       		.uleb128 0x58
 12730 5308 E1520000 		.4byte	0x52e1
 12731 530c 9B100000 		.4byte	.LASF776
 12732 5310 00000000 		.4byte	.LFB24
 12733 5314 1A000000 		.4byte	.LFE24-.LFB24
 12734 5318 01       		.uleb128 0x1
 12735 5319 9C       		.byte	0x9c
 12736 531a 22530000 		.4byte	0x5322
 12737 531e 2B530000 		.4byte	0x532b
 12738 5322 54       		.uleb128 0x54
 12739 5323 EF520000 		.4byte	0x52ef
 12740 5327 02       		.uleb128 0x2
 12741 5328 91       		.byte	0x91
 12742 5329 74       		.sleb128 -12
 12743 532a 00       		.byte	0
 12744 532b 59       		.uleb128 0x59
 12745 532c 96020000 		.4byte	0x296
 12746 5330 1B       		.byte	0x1b
 12747 5331 00000000 		.4byte	.LFB26
 12748 5335 08000000 		.4byte	.LFE26-.LFB26
 12749 5339 01       		.uleb128 0x1
 12750 533a 9C       		.byte	0x9c
 12751 533b 59       		.uleb128 0x59
 12752 533c A2020000 		.4byte	0x2a2
 12753 5340 22       		.byte	0x22
 12754 5341 00000000 		.4byte	.LFB27
 12755 5345 08000000 		.4byte	.LFE27-.LFB27
 12756 5349 01       		.uleb128 0x1
 12757 534a 9C       		.byte	0x9c
 12758 534b 5A       		.uleb128 0x5a
 12759 534c D9020000 		.4byte	0x2d9
 12760 5350 27       		.byte	0x27
 12761 5351 00000000 		.4byte	.LFB36
 12762 5355 0E000000 		.4byte	.LFE36-.LFB36
 12763 5359 01       		.uleb128 0x1
 12764 535a 9C       		.byte	0x9c
 12765 535b 63530000 		.4byte	0x5363
 12766 535f 70530000 		.4byte	0x5370
 12767 5363 5B       		.uleb128 0x5b
 12768 5364 9C290000 		.4byte	.LASF771
ARM GAS  /tmp/cc9AvIGf.s 			page 226


 12769 5368 70530000 		.4byte	0x5370
 12770 536c 02       		.uleb128 0x2
 12771 536d 91       		.byte	0x91
 12772 536e 7C       		.sleb128 -4
 12773 536f 00       		.byte	0
 12774 5370 07       		.uleb128 0x7
 12775 5371 934C0000 		.4byte	0x4c93
 12776 5375 5C       		.uleb128 0x5c
 12777 5376 15030000 		.4byte	0x315
 12778 537a 35       		.byte	0x35
 12779 537b 00000000 		.4byte	.LFB38
 12780 537f 18000000 		.4byte	.LFE38-.LFB38
 12781 5383 01       		.uleb128 0x1
 12782 5384 9C       		.byte	0x9c
 12783 5385 8D530000 		.4byte	0x538d
 12784 5389 9A530000 		.4byte	0x539a
 12785 538d 5B       		.uleb128 0x5b
 12786 538e 9C290000 		.4byte	.LASF771
 12787 5392 9A530000 		.4byte	0x539a
 12788 5396 02       		.uleb128 0x2
 12789 5397 91       		.byte	0x91
 12790 5398 74       		.sleb128 -12
 12791 5399 00       		.byte	0
 12792 539a 07       		.uleb128 0x7
 12793 539b 994C0000 		.4byte	0x4c99
 12794 539f 5C       		.uleb128 0x5c
 12795 53a0 33030000 		.4byte	0x333
 12796 53a4 3C       		.byte	0x3c
 12797 53a5 00000000 		.4byte	.LFB39
 12798 53a9 1E000000 		.4byte	.LFE39-.LFB39
 12799 53ad 01       		.uleb128 0x1
 12800 53ae 9C       		.byte	0x9c
 12801 53af B7530000 		.4byte	0x53b7
 12802 53b3 D2530000 		.4byte	0x53d2
 12803 53b7 5B       		.uleb128 0x5b
 12804 53b8 9C290000 		.4byte	.LASF771
 12805 53bc 9A530000 		.4byte	0x539a
 12806 53c0 02       		.uleb128 0x2
 12807 53c1 91       		.byte	0x91
 12808 53c2 74       		.sleb128 -12
 12809 53c3 5D       		.uleb128 0x5d
 12810 53c4 A9020000 		.4byte	.LASF777
 12811 53c8 04       		.byte	0x4
 12812 53c9 3C       		.byte	0x3c
 12813 53ca B4000000 		.4byte	0xb4
 12814 53ce 02       		.uleb128 0x2
 12815 53cf 91       		.byte	0x91
 12816 53d0 70       		.sleb128 -16
 12817 53d1 00       		.byte	0
 12818 53d2 5C       		.uleb128 0x5c
 12819 53d3 70030000 		.4byte	0x370
 12820 53d7 4C       		.byte	0x4c
 12821 53d8 00000000 		.4byte	.LFB41
 12822 53dc 1E000000 		.4byte	.LFE41-.LFB41
 12823 53e0 01       		.uleb128 0x1
 12824 53e1 9C       		.byte	0x9c
 12825 53e2 EA530000 		.4byte	0x53ea
ARM GAS  /tmp/cc9AvIGf.s 			page 227


 12826 53e6 05540000 		.4byte	0x5405
 12827 53ea 5B       		.uleb128 0x5b
 12828 53eb 9C290000 		.4byte	.LASF771
 12829 53ef 9A530000 		.4byte	0x539a
 12830 53f3 02       		.uleb128 0x2
 12831 53f4 91       		.byte	0x91
 12832 53f5 74       		.sleb128 -12
 12833 53f6 5D       		.uleb128 0x5d
 12834 53f7 A9020000 		.4byte	.LASF777
 12835 53fb 04       		.byte	0x4
 12836 53fc 4C       		.byte	0x4c
 12837 53fd B4000000 		.4byte	0xb4
 12838 5401 02       		.uleb128 0x2
 12839 5402 91       		.byte	0x91
 12840 5403 70       		.sleb128 -16
 12841 5404 00       		.byte	0
 12842 5405 5E       		.uleb128 0x5e
 12843 5406 D1030000 		.4byte	0x3d1
 12844 540a 63       		.byte	0x63
 12845 540b 02       		.byte	0x2
 12846 540c 14540000 		.4byte	0x5414
 12847 5410 29540000 		.4byte	0x5429
 12848 5414 52       		.uleb128 0x52
 12849 5415 9C290000 		.4byte	.LASF771
 12850 5419 9A530000 		.4byte	0x539a
 12851 541d 5F       		.uleb128 0x5f
 12852 541e 5F5C0000 		.4byte	.LASF778
 12853 5422 04       		.byte	0x4
 12854 5423 63       		.byte	0x63
 12855 5424 2C000000 		.4byte	0x2c
 12856 5428 00       		.byte	0
 12857 5429 58       		.uleb128 0x58
 12858 542a 05540000 		.4byte	0x5405
 12859 542e 335A0000 		.4byte	.LASF779
 12860 5432 00000000 		.4byte	.LFB45
 12861 5436 24000000 		.4byte	.LFE45-.LFB45
 12862 543a 01       		.uleb128 0x1
 12863 543b 9C       		.byte	0x9c
 12864 543c 44540000 		.4byte	0x5444
 12865 5440 55540000 		.4byte	0x5455
 12866 5444 54       		.uleb128 0x54
 12867 5445 14540000 		.4byte	0x5414
 12868 5449 02       		.uleb128 0x2
 12869 544a 91       		.byte	0x91
 12870 544b 74       		.sleb128 -12
 12871 544c 54       		.uleb128 0x54
 12872 544d 1D540000 		.4byte	0x541d
 12873 5451 02       		.uleb128 0x2
 12874 5452 91       		.byte	0x91
 12875 5453 70       		.sleb128 -16
 12876 5454 00       		.byte	0
 12877 5455 5A       		.uleb128 0x5a
 12878 5456 A6050000 		.4byte	0x5a6
 12879 545a 83       		.byte	0x83
 12880 545b 00000000 		.4byte	.LFB151
 12881 545f 16000000 		.4byte	.LFE151-.LFB151
 12882 5463 01       		.uleb128 0x1
ARM GAS  /tmp/cc9AvIGf.s 			page 228


 12883 5464 9C       		.byte	0x9c
 12884 5465 6D540000 		.4byte	0x546d
 12885 5469 88540000 		.4byte	0x5488
 12886 546d 5B       		.uleb128 0x5b
 12887 546e 9C290000 		.4byte	.LASF771
 12888 5472 88540000 		.4byte	0x5488
 12889 5476 02       		.uleb128 0x2
 12890 5477 91       		.byte	0x91
 12891 5478 7C       		.sleb128 -4
 12892 5479 60       		.uleb128 0x60
 12893 547a 72687300 		.ascii	"rhs\000"
 12894 547e 05       		.byte	0x5
 12895 547f 83       		.byte	0x83
 12896 5480 8D540000 		.4byte	0x548d
 12897 5484 02       		.uleb128 0x2
 12898 5485 91       		.byte	0x91
 12899 5486 78       		.sleb128 -8
 12900 5487 00       		.byte	0
 12901 5488 07       		.uleb128 0x7
 12902 5489 BF4C0000 		.4byte	0x4cbf
 12903 548d 07       		.uleb128 0x7
 12904 548e C54C0000 		.4byte	0x4cc5
 12905 5492 5E       		.uleb128 0x5e
 12906 5493 48060000 		.4byte	0x648
 12907 5497 AD       		.byte	0xad
 12908 5498 02       		.byte	0x2
 12909 5499 A1540000 		.4byte	0x54a1
 12910 549d B6540000 		.4byte	0x54b6
 12911 54a1 52       		.uleb128 0x52
 12912 54a2 9C290000 		.4byte	.LASF771
 12913 54a6 88540000 		.4byte	0x5488
 12914 54aa 61       		.uleb128 0x61
 12915 54ab 72687300 		.ascii	"rhs\000"
 12916 54af 05       		.byte	0x5
 12917 54b0 AD       		.byte	0xad
 12918 54b1 B6540000 		.4byte	0x54b6
 12919 54b5 00       		.byte	0
 12920 54b6 07       		.uleb128 0x7
 12921 54b7 C54C0000 		.4byte	0x4cc5
 12922 54bb 53       		.uleb128 0x53
 12923 54bc 92540000 		.4byte	0x5492
 12924 54c0 AF180000 		.4byte	.LASF780
 12925 54c4 00000000 		.4byte	.LFB162
 12926 54c8 16000000 		.4byte	.LFE162-.LFB162
 12927 54cc 01       		.uleb128 0x1
 12928 54cd 9C       		.byte	0x9c
 12929 54ce D6540000 		.4byte	0x54d6
 12930 54d2 E7540000 		.4byte	0x54e7
 12931 54d6 54       		.uleb128 0x54
 12932 54d7 A1540000 		.4byte	0x54a1
 12933 54db 02       		.uleb128 0x2
 12934 54dc 91       		.byte	0x91
 12935 54dd 7C       		.sleb128 -4
 12936 54de 54       		.uleb128 0x54
 12937 54df AA540000 		.4byte	0x54aa
 12938 54e3 02       		.uleb128 0x2
 12939 54e4 91       		.byte	0x91
ARM GAS  /tmp/cc9AvIGf.s 			page 229


 12940 54e5 78       		.sleb128 -8
 12941 54e6 00       		.byte	0
 12942 54e7 62       		.uleb128 0x62
 12943 54e8 3F470000 		.4byte	0x473f
 12944 54ec 00000000 		.4byte	.LFB171
 12945 54f0 1E000000 		.4byte	.LFE171-.LFB171
 12946 54f4 01       		.uleb128 0x1
 12947 54f5 9C       		.byte	0x9c
 12948 54f6 17550000 		.4byte	0x5517
 12949 54fa 60       		.uleb128 0x60
 12950 54fb 6C687300 		.ascii	"lhs\000"
 12951 54ff 05       		.byte	0x5
 12952 5500 E4       		.byte	0xe4
 12953 5501 17550000 		.4byte	0x5517
 12954 5505 02       		.uleb128 0x2
 12955 5506 91       		.byte	0x91
 12956 5507 7C       		.sleb128 -4
 12957 5508 60       		.uleb128 0x60
 12958 5509 72687300 		.ascii	"rhs\000"
 12959 550d 05       		.byte	0x5
 12960 550e E4       		.byte	0xe4
 12961 550f 1C550000 		.4byte	0x551c
 12962 5513 02       		.uleb128 0x2
 12963 5514 91       		.byte	0x91
 12964 5515 78       		.sleb128 -8
 12965 5516 00       		.byte	0
 12966 5517 07       		.uleb128 0x7
 12967 5518 C54C0000 		.4byte	0x4cc5
 12968 551c 07       		.uleb128 0x7
 12969 551d C54C0000 		.4byte	0x4cc5
 12970 5521 5C       		.uleb128 0x5c
 12971 5522 D3220000 		.4byte	0x22d3
 12972 5526 68       		.byte	0x68
 12973 5527 00000000 		.4byte	.LFB179
 12974 552b 3C000000 		.4byte	.LFE179-.LFB179
 12975 552f 01       		.uleb128 0x1
 12976 5530 9C       		.byte	0x9c
 12977 5531 39550000 		.4byte	0x5539
 12978 5535 46550000 		.4byte	0x5546
 12979 5539 5B       		.uleb128 0x5b
 12980 553a 9C290000 		.4byte	.LASF771
 12981 553e 46550000 		.4byte	0x5546
 12982 5542 02       		.uleb128 0x2
 12983 5543 91       		.byte	0x91
 12984 5544 74       		.sleb128 -12
 12985 5545 00       		.byte	0
 12986 5546 07       		.uleb128 0x7
 12987 5547 344E0000 		.4byte	0x4e34
 12988 554b 5C       		.uleb128 0x5c
 12989 554c ED220000 		.4byte	0x22ed
 12990 5550 71       		.byte	0x71
 12991 5551 00000000 		.4byte	.LFB180
 12992 5555 40000000 		.4byte	.LFE180-.LFB180
 12993 5559 01       		.uleb128 0x1
 12994 555a 9C       		.byte	0x9c
 12995 555b 63550000 		.4byte	0x5563
 12996 555f 70550000 		.4byte	0x5570
ARM GAS  /tmp/cc9AvIGf.s 			page 230


 12997 5563 5B       		.uleb128 0x5b
 12998 5564 9C290000 		.4byte	.LASF771
 12999 5568 46550000 		.4byte	0x5546
 13000 556c 02       		.uleb128 0x2
 13001 556d 91       		.byte	0x91
 13002 556e 74       		.sleb128 -12
 13003 556f 00       		.byte	0
 13004 5570 5A       		.uleb128 0x5a
 13005 5571 0B230000 		.4byte	0x230b
 13006 5575 7A       		.byte	0x7a
 13007 5576 00000000 		.4byte	.LFB181
 13008 557a 12000000 		.4byte	.LFE181-.LFB181
 13009 557e 01       		.uleb128 0x1
 13010 557f 9C       		.byte	0x9c
 13011 5580 88550000 		.4byte	0x5588
 13012 5584 95550000 		.4byte	0x5595
 13013 5588 5B       		.uleb128 0x5b
 13014 5589 9C290000 		.4byte	.LASF771
 13015 558d 46550000 		.4byte	0x5546
 13016 5591 02       		.uleb128 0x2
 13017 5592 91       		.byte	0x91
 13018 5593 7C       		.sleb128 -4
 13019 5594 00       		.byte	0
 13020 5595 06       		.uleb128 0x6
 13021 5596 04       		.byte	0x4
 13022 5597 C2170000 		.4byte	0x17c2
 13023 559b 63       		.uleb128 0x63
 13024 559c D0170000 		.4byte	0x17d0
 13025 55a0 00000000 		.4byte	.LFB284
 13026 55a4 0E000000 		.4byte	.LFE284-.LFB284
 13027 55a8 01       		.uleb128 0x1
 13028 55a9 9C       		.byte	0x9c
 13029 55aa B2550000 		.4byte	0x55b2
 13030 55ae BF550000 		.4byte	0x55bf
 13031 55b2 5B       		.uleb128 0x5b
 13032 55b3 9C290000 		.4byte	.LASF771
 13033 55b7 BF550000 		.4byte	0x55bf
 13034 55bb 02       		.uleb128 0x2
 13035 55bc 91       		.byte	0x91
 13036 55bd 7C       		.sleb128 -4
 13037 55be 00       		.byte	0
 13038 55bf 07       		.uleb128 0x7
 13039 55c0 95550000 		.4byte	0x5595
 13040 55c4 5C       		.uleb128 0x5c
 13041 55c5 7C1D0000 		.4byte	0x1d7c
 13042 55c9 91       		.byte	0x91
 13043 55ca 00000000 		.4byte	.LFB287
 13044 55ce 1A000000 		.4byte	.LFE287-.LFB287
 13045 55d2 01       		.uleb128 0x1
 13046 55d3 9C       		.byte	0x9c
 13047 55d4 DC550000 		.4byte	0x55dc
 13048 55d8 E9550000 		.4byte	0x55e9
 13049 55dc 5B       		.uleb128 0x5b
 13050 55dd 9C290000 		.4byte	.LASF771
 13051 55e1 E9550000 		.4byte	0x55e9
 13052 55e5 02       		.uleb128 0x2
 13053 55e6 91       		.byte	0x91
ARM GAS  /tmp/cc9AvIGf.s 			page 231


 13054 55e7 74       		.sleb128 -12
 13055 55e8 00       		.byte	0
 13056 55e9 07       		.uleb128 0x7
 13057 55ea 2E4E0000 		.4byte	0x4e2e
 13058 55ee 5C       		.uleb128 0x5c
 13059 55ef 4E1E0000 		.4byte	0x1e4e
 13060 55f3 C6       		.byte	0xc6
 13061 55f4 00000000 		.4byte	.LFB294
 13062 55f8 20000000 		.4byte	.LFE294-.LFB294
 13063 55fc 01       		.uleb128 0x1
 13064 55fd 9C       		.byte	0x9c
 13065 55fe 06560000 		.4byte	0x5606
 13066 5602 13560000 		.4byte	0x5613
 13067 5606 5B       		.uleb128 0x5b
 13068 5607 9C290000 		.4byte	.LASF771
 13069 560b E9550000 		.4byte	0x55e9
 13070 560f 02       		.uleb128 0x2
 13071 5610 91       		.byte	0x91
 13072 5611 74       		.sleb128 -12
 13073 5612 00       		.byte	0
 13074 5613 5C       		.uleb128 0x5c
 13075 5614 6C1E0000 		.4byte	0x1e6c
 13076 5618 CD       		.byte	0xcd
 13077 5619 00000000 		.4byte	.LFB295
 13078 561d 20000000 		.4byte	.LFE295-.LFB295
 13079 5621 01       		.uleb128 0x1
 13080 5622 9C       		.byte	0x9c
 13081 5623 2B560000 		.4byte	0x562b
 13082 5627 38560000 		.4byte	0x5638
 13083 562b 5B       		.uleb128 0x5b
 13084 562c 9C290000 		.4byte	.LASF771
 13085 5630 E9550000 		.4byte	0x55e9
 13086 5634 02       		.uleb128 0x2
 13087 5635 91       		.byte	0x91
 13088 5636 74       		.sleb128 -12
 13089 5637 00       		.byte	0
 13090 5638 5C       		.uleb128 0x5c
 13091 5639 251F0000 		.4byte	0x1f25
 13092 563d FA       		.byte	0xfa
 13093 563e 00000000 		.4byte	.LFB301
 13094 5642 28000000 		.4byte	.LFE301-.LFB301
 13095 5646 01       		.uleb128 0x1
 13096 5647 9C       		.byte	0x9c
 13097 5648 50560000 		.4byte	0x5650
 13098 564c 74560000 		.4byte	0x5674
 13099 5650 5B       		.uleb128 0x5b
 13100 5651 9C290000 		.4byte	.LASF771
 13101 5655 1E4E0000 		.4byte	0x4e1e
 13102 5659 02       		.uleb128 0x2
 13103 565a 91       		.byte	0x91
 13104 565b 74       		.sleb128 -12
 13105 565c 56       		.uleb128 0x56
 13106 565d 06000000 		.4byte	.LBB18
 13107 5661 1C000000 		.4byte	.LBE18-.LBB18
 13108 5665 64       		.uleb128 0x64
 13109 5666 2F410000 		.4byte	.LASF781
 13110 566a 08       		.byte	0x8
ARM GAS  /tmp/cc9AvIGf.s 			page 232


 13111 566b FC       		.byte	0xfc
 13112 566c 344E0000 		.4byte	0x4e34
 13113 5670 01       		.uleb128 0x1
 13114 5671 54       		.byte	0x54
 13115 5672 00       		.byte	0
 13116 5673 00       		.byte	0
 13117 5674 65       		.uleb128 0x65
 13118 5675 661F0000 		.4byte	0x1f66
 13119 5679 1901     		.2byte	0x119
 13120 567b 00000000 		.4byte	.LFB304
 13121 567f 1A000000 		.4byte	.LFE304-.LFB304
 13122 5683 01       		.uleb128 0x1
 13123 5684 9C       		.byte	0x9c
 13124 5685 8D560000 		.4byte	0x568d
 13125 5689 A9560000 		.4byte	0x56a9
 13126 568d 5B       		.uleb128 0x5b
 13127 568e 9C290000 		.4byte	.LASF771
 13128 5692 1E4E0000 		.4byte	0x4e1e
 13129 5696 02       		.uleb128 0x2
 13130 5697 91       		.byte	0x91
 13131 5698 74       		.sleb128 -12
 13132 5699 66       		.uleb128 0x66
 13133 569a 6D736700 		.ascii	"msg\000"
 13134 569e 08       		.byte	0x8
 13135 569f 1901     		.2byte	0x119
 13136 56a1 A9560000 		.4byte	0x56a9
 13137 56a5 02       		.uleb128 0x2
 13138 56a6 91       		.byte	0x91
 13139 56a7 70       		.sleb128 -16
 13140 56a8 00       		.byte	0
 13141 56a9 07       		.uleb128 0x7
 13142 56aa 3A4E0000 		.4byte	0x4e3a
 13143 56ae 65       		.uleb128 0x65
 13144 56af 7F200000 		.4byte	0x207f
 13145 56b3 4301     		.2byte	0x143
 13146 56b5 00000000 		.4byte	.LFB309
 13147 56b9 1A000000 		.4byte	.LFE309-.LFB309
 13148 56bd 01       		.uleb128 0x1
 13149 56be 9C       		.byte	0x9c
 13150 56bf C7560000 		.4byte	0x56c7
 13151 56c3 E3560000 		.4byte	0x56e3
 13152 56c7 5B       		.uleb128 0x5b
 13153 56c8 9C290000 		.4byte	.LASF771
 13154 56cc 1E4E0000 		.4byte	0x4e1e
 13155 56d0 02       		.uleb128 0x2
 13156 56d1 91       		.byte	0x91
 13157 56d2 74       		.sleb128 -12
 13158 56d3 66       		.uleb128 0x66
 13159 56d4 6D736700 		.ascii	"msg\000"
 13160 56d8 08       		.byte	0x8
 13161 56d9 4301     		.2byte	0x143
 13162 56db E3560000 		.4byte	0x56e3
 13163 56df 02       		.uleb128 0x2
 13164 56e0 91       		.byte	0x91
 13165 56e1 70       		.sleb128 -16
 13166 56e2 00       		.byte	0
 13167 56e3 07       		.uleb128 0x7
ARM GAS  /tmp/cc9AvIGf.s 			page 233


 13168 56e4 3A4E0000 		.4byte	0x4e3a
 13169 56e8 5A       		.uleb128 0x5a
 13170 56e9 12430000 		.4byte	0x4312
 13171 56ed C6       		.byte	0xc6
 13172 56ee 00000000 		.4byte	.LFB593
 13173 56f2 0E000000 		.4byte	.LFE593-.LFB593
 13174 56f6 01       		.uleb128 0x1
 13175 56f7 9C       		.byte	0x9c
 13176 56f8 00570000 		.4byte	0x5700
 13177 56fc 0D570000 		.4byte	0x570d
 13178 5700 5B       		.uleb128 0x5b
 13179 5701 9C290000 		.4byte	.LASF771
 13180 5705 0D570000 		.4byte	0x570d
 13181 5709 02       		.uleb128 0x2
 13182 570a 91       		.byte	0x91
 13183 570b 7C       		.sleb128 -4
 13184 570c 00       		.byte	0
 13185 570d 07       		.uleb128 0x7
 13186 570e 31510000 		.4byte	0x5131
 13187 5712 67       		.uleb128 0x67
 13188 5713 851F0000 		.4byte	0x1f85
 13189 5717 0A       		.byte	0xa
 13190 5718 0B       		.byte	0xb
 13191 5719 00000000 		.4byte	.LFB596
 13192 571d 88000000 		.4byte	.LFE596-.LFB596
 13193 5721 01       		.uleb128 0x1
 13194 5722 9C       		.byte	0x9c
 13195 5723 2B570000 		.4byte	0x572b
 13196 5727 6A570000 		.4byte	0x576a
 13197 572b 5B       		.uleb128 0x5b
 13198 572c 9C290000 		.4byte	.LASF771
 13199 5730 1E4E0000 		.4byte	0x4e1e
 13200 5734 02       		.uleb128 0x2
 13201 5735 91       		.byte	0x91
 13202 5736 6C       		.sleb128 -20
 13203 5737 60       		.uleb128 0x60
 13204 5738 6D736700 		.ascii	"msg\000"
 13205 573c 0A       		.byte	0xa
 13206 573d 0B       		.byte	0xb
 13207 573e 6A570000 		.4byte	0x576a
 13208 5742 02       		.uleb128 0x2
 13209 5743 91       		.byte	0x91
 13210 5744 68       		.sleb128 -24
 13211 5745 5D       		.uleb128 0x5d
 13212 5746 56270000 		.4byte	.LASF617
 13213 574a 0A       		.byte	0xa
 13214 574b 0B       		.byte	0xb
 13215 574c 6F570000 		.4byte	0x576f
 13216 5750 02       		.uleb128 0x2
 13217 5751 91       		.byte	0x91
 13218 5752 64       		.sleb128 -28
 13219 5753 56       		.uleb128 0x56
 13220 5754 16000000 		.4byte	.LBB22
 13221 5758 68000000 		.4byte	.LBE22-.LBB22
 13222 575c 57       		.uleb128 0x57
 13223 575d 6900     		.ascii	"i\000"
 13224 575f 0A       		.byte	0xa
ARM GAS  /tmp/cc9AvIGf.s 			page 234


 13225 5760 0E       		.byte	0xe
 13226 5761 5C070000 		.4byte	0x75c
 13227 5765 02       		.uleb128 0x2
 13228 5766 91       		.byte	0x91
 13229 5767 70       		.sleb128 -16
 13230 5768 00       		.byte	0
 13231 5769 00       		.byte	0
 13232 576a 07       		.uleb128 0x7
 13233 576b 3A4E0000 		.4byte	0x4e3a
 13234 576f 07       		.uleb128 0x7
 13235 5770 C54C0000 		.4byte	0x4cc5
 13236 5774 67       		.uleb128 0x67
 13237 5775 AD1F0000 		.4byte	0x1fad
 13238 5779 0A       		.byte	0xa
 13239 577a 1C       		.byte	0x1c
 13240 577b 00000000 		.4byte	.LFB597
 13241 577f 8A000000 		.4byte	.LFE597-.LFB597
 13242 5783 01       		.uleb128 0x1
 13243 5784 9C       		.byte	0x9c
 13244 5785 8D570000 		.4byte	0x578d
 13245 5789 CC570000 		.4byte	0x57cc
 13246 578d 5B       		.uleb128 0x5b
 13247 578e 9C290000 		.4byte	.LASF771
 13248 5792 1E4E0000 		.4byte	0x4e1e
 13249 5796 02       		.uleb128 0x2
 13250 5797 91       		.byte	0x91
 13251 5798 6C       		.sleb128 -20
 13252 5799 60       		.uleb128 0x60
 13253 579a 6D736700 		.ascii	"msg\000"
 13254 579e 0A       		.byte	0xa
 13255 579f 1C       		.byte	0x1c
 13256 57a0 CC570000 		.4byte	0x57cc
 13257 57a4 02       		.uleb128 0x2
 13258 57a5 91       		.byte	0x91
 13259 57a6 68       		.sleb128 -24
 13260 57a7 5D       		.uleb128 0x5d
 13261 57a8 56270000 		.4byte	.LASF617
 13262 57ac 0A       		.byte	0xa
 13263 57ad 1C       		.byte	0x1c
 13264 57ae D1570000 		.4byte	0x57d1
 13265 57b2 02       		.uleb128 0x2
 13266 57b3 91       		.byte	0x91
 13267 57b4 64       		.sleb128 -28
 13268 57b5 56       		.uleb128 0x56
 13269 57b6 16000000 		.4byte	.LBB26
 13270 57ba 6A000000 		.4byte	.LBE26-.LBB26
 13271 57be 57       		.uleb128 0x57
 13272 57bf 6900     		.ascii	"i\000"
 13273 57c1 0A       		.byte	0xa
 13274 57c2 1F       		.byte	0x1f
 13275 57c3 7E100000 		.4byte	0x107e
 13276 57c7 02       		.uleb128 0x2
 13277 57c8 91       		.byte	0x91
 13278 57c9 70       		.sleb128 -16
 13279 57ca 00       		.byte	0
 13280 57cb 00       		.byte	0
 13281 57cc 07       		.uleb128 0x7
ARM GAS  /tmp/cc9AvIGf.s 			page 235


 13282 57cd 3A4E0000 		.4byte	0x4e3a
 13283 57d1 07       		.uleb128 0x7
 13284 57d2 C54C0000 		.4byte	0x4cc5
 13285 57d6 67       		.uleb128 0x67
 13286 57d7 D51F0000 		.4byte	0x1fd5
 13287 57db 0A       		.byte	0xa
 13288 57dc 35       		.byte	0x35
 13289 57dd 00000000 		.4byte	.LFB598
 13290 57e1 DA000000 		.4byte	.LFE598-.LFB598
 13291 57e5 01       		.uleb128 0x1
 13292 57e6 9C       		.byte	0x9c
 13293 57e7 EF570000 		.4byte	0x57ef
 13294 57eb 5E580000 		.4byte	0x585e
 13295 57ef 5B       		.uleb128 0x5b
 13296 57f0 9C290000 		.4byte	.LASF771
 13297 57f4 1E4E0000 		.4byte	0x4e1e
 13298 57f8 02       		.uleb128 0x2
 13299 57f9 91       		.byte	0x91
 13300 57fa 64       		.sleb128 -28
 13301 57fb 60       		.uleb128 0x60
 13302 57fc 6D736700 		.ascii	"msg\000"
 13303 5800 0A       		.byte	0xa
 13304 5801 35       		.byte	0x35
 13305 5802 5E580000 		.4byte	0x585e
 13306 5806 02       		.uleb128 0x2
 13307 5807 91       		.byte	0x91
 13308 5808 60       		.sleb128 -32
 13309 5809 5D       		.uleb128 0x5d
 13310 580a 56270000 		.4byte	.LASF617
 13311 580e 0A       		.byte	0xa
 13312 580f 35       		.byte	0x35
 13313 5810 63580000 		.4byte	0x5863
 13314 5814 02       		.uleb128 0x2
 13315 5815 91       		.byte	0x91
 13316 5816 5C       		.sleb128 -36
 13317 5817 56       		.uleb128 0x56
 13318 5818 0A000000 		.4byte	.LBB27
 13319 581c CA000000 		.4byte	.LBE27-.LBB27
 13320 5820 57       		.uleb128 0x57
 13321 5821 616C6C00 		.ascii	"all\000"
 13322 5825 0A       		.byte	0xa
 13323 5826 37       		.byte	0x37
 13324 5827 9D470000 		.4byte	0x479d
 13325 582b 02       		.uleb128 0x2
 13326 582c 91       		.byte	0x91
 13327 582d 77       		.sleb128 -9
 13328 582e 56       		.uleb128 0x56
 13329 582f 10000000 		.4byte	.LBB28
 13330 5833 C0000000 		.4byte	.LBE28-.LBB28
 13331 5837 57       		.uleb128 0x57
 13332 5838 6900     		.ascii	"i\000"
 13333 583a 0A       		.byte	0xa
 13334 583b 39       		.byte	0x39
 13335 583c 7E100000 		.4byte	0x107e
 13336 5840 02       		.uleb128 0x2
 13337 5841 91       		.byte	0x91
 13338 5842 6C       		.sleb128 -20
ARM GAS  /tmp/cc9AvIGf.s 			page 236


 13339 5843 56       		.uleb128 0x56
 13340 5844 20000000 		.4byte	.LBB29
 13341 5848 88000000 		.4byte	.LBE29-.LBB29
 13342 584c 64       		.uleb128 0x64
 13343 584d 2F410000 		.4byte	.LASF781
 13344 5851 0A       		.byte	0xa
 13345 5852 44       		.byte	0x44
 13346 5853 344E0000 		.4byte	0x4e34
 13347 5857 02       		.uleb128 0x2
 13348 5858 91       		.byte	0x91
 13349 5859 68       		.sleb128 -24
 13350 585a 00       		.byte	0
 13351 585b 00       		.byte	0
 13352 585c 00       		.byte	0
 13353 585d 00       		.byte	0
 13354 585e 07       		.uleb128 0x7
 13355 585f 404E0000 		.4byte	0x4e40
 13356 5863 07       		.uleb128 0x7
 13357 5864 C54C0000 		.4byte	0x4cc5
 13358 5868 67       		.uleb128 0x67
 13359 5869 3E200000 		.4byte	0x203e
 13360 586d 0A       		.byte	0xa
 13361 586e 56       		.byte	0x56
 13362 586f 00000000 		.4byte	.LFB599
 13363 5873 20000000 		.4byte	.LFE599-.LFB599
 13364 5877 01       		.uleb128 0x1
 13365 5878 9C       		.byte	0x9c
 13366 5879 81580000 		.4byte	0x5881
 13367 587d A6580000 		.4byte	0x58a6
 13368 5881 5B       		.uleb128 0x5b
 13369 5882 9C290000 		.4byte	.LASF771
 13370 5886 1E4E0000 		.4byte	0x4e1e
 13371 588a 02       		.uleb128 0x2
 13372 588b 91       		.byte	0x91
 13373 588c 6C       		.sleb128 -20
 13374 588d 56       		.uleb128 0x56
 13375 588e 06000000 		.4byte	.LBB30
 13376 5892 12000000 		.4byte	.LBE30-.LBB30
 13377 5896 64       		.uleb128 0x64
 13378 5897 2F410000 		.4byte	.LASF781
 13379 589b 0A       		.byte	0xa
 13380 589c 59       		.byte	0x59
 13381 589d 344E0000 		.4byte	0x4e34
 13382 58a1 02       		.uleb128 0x2
 13383 58a2 91       		.byte	0x91
 13384 58a3 74       		.sleb128 -12
 13385 58a4 00       		.byte	0
 13386 58a5 00       		.byte	0
 13387 58a6 67       		.uleb128 0x67
 13388 58a7 9E200000 		.4byte	0x209e
 13389 58ab 0A       		.byte	0xa
 13390 58ac 5F       		.byte	0x5f
 13391 58ad 00000000 		.4byte	.LFB600
 13392 58b1 88000000 		.4byte	.LFE600-.LFB600
 13393 58b5 01       		.uleb128 0x1
 13394 58b6 9C       		.byte	0x9c
 13395 58b7 BF580000 		.4byte	0x58bf
ARM GAS  /tmp/cc9AvIGf.s 			page 237


 13396 58bb FE580000 		.4byte	0x58fe
 13397 58bf 5B       		.uleb128 0x5b
 13398 58c0 9C290000 		.4byte	.LASF771
 13399 58c4 1E4E0000 		.4byte	0x4e1e
 13400 58c8 02       		.uleb128 0x2
 13401 58c9 91       		.byte	0x91
 13402 58ca 6C       		.sleb128 -20
 13403 58cb 60       		.uleb128 0x60
 13404 58cc 6D736700 		.ascii	"msg\000"
 13405 58d0 0A       		.byte	0xa
 13406 58d1 5F       		.byte	0x5f
 13407 58d2 FE580000 		.4byte	0x58fe
 13408 58d6 02       		.uleb128 0x2
 13409 58d7 91       		.byte	0x91
 13410 58d8 68       		.sleb128 -24
 13411 58d9 5D       		.uleb128 0x5d
 13412 58da 56270000 		.4byte	.LASF617
 13413 58de 0A       		.byte	0xa
 13414 58df 5F       		.byte	0x5f
 13415 58e0 03590000 		.4byte	0x5903
 13416 58e4 02       		.uleb128 0x2
 13417 58e5 91       		.byte	0x91
 13418 58e6 64       		.sleb128 -28
 13419 58e7 56       		.uleb128 0x56
 13420 58e8 16000000 		.4byte	.LBB34
 13421 58ec 68000000 		.4byte	.LBE34-.LBB34
 13422 58f0 57       		.uleb128 0x57
 13423 58f1 6900     		.ascii	"i\000"
 13424 58f3 0A       		.byte	0xa
 13425 58f4 62       		.byte	0x62
 13426 58f5 D1080000 		.4byte	0x8d1
 13427 58f9 02       		.uleb128 0x2
 13428 58fa 91       		.byte	0x91
 13429 58fb 70       		.sleb128 -16
 13430 58fc 00       		.byte	0
 13431 58fd 00       		.byte	0
 13432 58fe 07       		.uleb128 0x7
 13433 58ff 3A4E0000 		.4byte	0x4e3a
 13434 5903 07       		.uleb128 0x7
 13435 5904 C54C0000 		.4byte	0x4cc5
 13436 5908 67       		.uleb128 0x67
 13437 5909 C6200000 		.4byte	0x20c6
 13438 590d 0A       		.byte	0xa
 13439 590e 6F       		.byte	0x6f
 13440 590f 00000000 		.4byte	.LFB601
 13441 5913 AE000000 		.4byte	.LFE601-.LFB601
 13442 5917 01       		.uleb128 0x1
 13443 5918 9C       		.byte	0x9c
 13444 5919 21590000 		.4byte	0x5921
 13445 591d 7C590000 		.4byte	0x597c
 13446 5921 5B       		.uleb128 0x5b
 13447 5922 9C290000 		.4byte	.LASF771
 13448 5926 1E4E0000 		.4byte	0x4e1e
 13449 592a 02       		.uleb128 0x2
 13450 592b 91       		.byte	0x91
 13451 592c 5C       		.sleb128 -36
 13452 592d 60       		.uleb128 0x60
ARM GAS  /tmp/cc9AvIGf.s 			page 238


 13453 592e 6D736700 		.ascii	"msg\000"
 13454 5932 0A       		.byte	0xa
 13455 5933 6F       		.byte	0x6f
 13456 5934 7C590000 		.4byte	0x597c
 13457 5938 02       		.uleb128 0x2
 13458 5939 91       		.byte	0x91
 13459 593a 58       		.sleb128 -40
 13460 593b 5D       		.uleb128 0x5d
 13461 593c 56270000 		.4byte	.LASF617
 13462 5940 0A       		.byte	0xa
 13463 5941 6F       		.byte	0x6f
 13464 5942 81590000 		.4byte	0x5981
 13465 5946 02       		.uleb128 0x2
 13466 5947 91       		.byte	0x91
 13467 5948 54       		.sleb128 -44
 13468 5949 68       		.uleb128 0x68
 13469 594a 0A000000 		.4byte	.LBB36
 13470 594e 30000000 		.4byte	.LBE36-.LBB36
 13471 5952 65590000 		.4byte	0x5965
 13472 5956 64       		.uleb128 0x64
 13473 5957 D0470000 		.4byte	.LASF782
 13474 595b 0A       		.byte	0xa
 13475 595c 71       		.byte	0x71
 13476 595d 2E020000 		.4byte	0x22e
 13477 5961 02       		.uleb128 0x2
 13478 5962 91       		.byte	0x91
 13479 5963 68       		.sleb128 -24
 13480 5964 00       		.byte	0
 13481 5965 56       		.uleb128 0x56
 13482 5966 3A000000 		.4byte	.LBB37
 13483 596a 6A000000 		.4byte	.LBE37-.LBB37
 13484 596e 57       		.uleb128 0x57
 13485 596f 6900     		.ascii	"i\000"
 13486 5971 0A       		.byte	0xa
 13487 5972 74       		.byte	0x74
 13488 5973 F3110000 		.4byte	0x11f3
 13489 5977 02       		.uleb128 0x2
 13490 5978 91       		.byte	0x91
 13491 5979 64       		.sleb128 -28
 13492 597a 00       		.byte	0
 13493 597b 00       		.byte	0
 13494 597c 07       		.uleb128 0x7
 13495 597d 3A4E0000 		.4byte	0x4e3a
 13496 5981 07       		.uleb128 0x7
 13497 5982 C54C0000 		.4byte	0x4cc5
 13498 5986 67       		.uleb128 0x67
 13499 5987 EE200000 		.4byte	0x20ee
 13500 598b 0A       		.byte	0xa
 13501 598c 89       		.byte	0x89
 13502 598d 00000000 		.4byte	.LFB602
 13503 5991 DA000000 		.4byte	.LFE602-.LFB602
 13504 5995 01       		.uleb128 0x1
 13505 5996 9C       		.byte	0x9c
 13506 5997 9F590000 		.4byte	0x599f
 13507 599b 0E5A0000 		.4byte	0x5a0e
 13508 599f 5B       		.uleb128 0x5b
 13509 59a0 9C290000 		.4byte	.LASF771
ARM GAS  /tmp/cc9AvIGf.s 			page 239


 13510 59a4 1E4E0000 		.4byte	0x4e1e
 13511 59a8 02       		.uleb128 0x2
 13512 59a9 91       		.byte	0x91
 13513 59aa 64       		.sleb128 -28
 13514 59ab 60       		.uleb128 0x60
 13515 59ac 6D736700 		.ascii	"msg\000"
 13516 59b0 0A       		.byte	0xa
 13517 59b1 89       		.byte	0x89
 13518 59b2 0E5A0000 		.4byte	0x5a0e
 13519 59b6 02       		.uleb128 0x2
 13520 59b7 91       		.byte	0x91
 13521 59b8 60       		.sleb128 -32
 13522 59b9 5D       		.uleb128 0x5d
 13523 59ba 56270000 		.4byte	.LASF617
 13524 59be 0A       		.byte	0xa
 13525 59bf 89       		.byte	0x89
 13526 59c0 135A0000 		.4byte	0x5a13
 13527 59c4 02       		.uleb128 0x2
 13528 59c5 91       		.byte	0x91
 13529 59c6 5C       		.sleb128 -36
 13530 59c7 56       		.uleb128 0x56
 13531 59c8 0A000000 		.4byte	.LBB38
 13532 59cc CA000000 		.4byte	.LBE38-.LBB38
 13533 59d0 57       		.uleb128 0x57
 13534 59d1 616C6C00 		.ascii	"all\000"
 13535 59d5 0A       		.byte	0xa
 13536 59d6 8B       		.byte	0x8b
 13537 59d7 9D470000 		.4byte	0x479d
 13538 59db 02       		.uleb128 0x2
 13539 59dc 91       		.byte	0x91
 13540 59dd 77       		.sleb128 -9
 13541 59de 56       		.uleb128 0x56
 13542 59df 10000000 		.4byte	.LBB39
 13543 59e3 C0000000 		.4byte	.LBE39-.LBB39
 13544 59e7 57       		.uleb128 0x57
 13545 59e8 6900     		.ascii	"i\000"
 13546 59ea 0A       		.byte	0xa
 13547 59eb 8D       		.byte	0x8d
 13548 59ec F3110000 		.4byte	0x11f3
 13549 59f0 02       		.uleb128 0x2
 13550 59f1 91       		.byte	0x91
 13551 59f2 6C       		.sleb128 -20
 13552 59f3 56       		.uleb128 0x56
 13553 59f4 20000000 		.4byte	.LBB40
 13554 59f8 88000000 		.4byte	.LBE40-.LBB40
 13555 59fc 64       		.uleb128 0x64
 13556 59fd 2F410000 		.4byte	.LASF781
 13557 5a01 0A       		.byte	0xa
 13558 5a02 97       		.byte	0x97
 13559 5a03 344E0000 		.4byte	0x4e34
 13560 5a07 02       		.uleb128 0x2
 13561 5a08 91       		.byte	0x91
 13562 5a09 68       		.sleb128 -24
 13563 5a0a 00       		.byte	0
 13564 5a0b 00       		.byte	0
 13565 5a0c 00       		.byte	0
 13566 5a0d 00       		.byte	0
ARM GAS  /tmp/cc9AvIGf.s 			page 240


 13567 5a0e 07       		.uleb128 0x7
 13568 5a0f 404E0000 		.4byte	0x4e40
 13569 5a13 07       		.uleb128 0x7
 13570 5a14 C54C0000 		.4byte	0x4cc5
 13571 5a18 67       		.uleb128 0x67
 13572 5a19 3A210000 		.4byte	0x213a
 13573 5a1d 0A       		.byte	0xa
 13574 5a1e A9       		.byte	0xa9
 13575 5a1f 00000000 		.4byte	.LFB603
 13576 5a23 40000000 		.4byte	.LFE603-.LFB603
 13577 5a27 01       		.uleb128 0x1
 13578 5a28 9C       		.byte	0x9c
 13579 5a29 315A0000 		.4byte	0x5a31
 13580 5a2d 5A5A0000 		.4byte	0x5a5a
 13581 5a31 5B       		.uleb128 0x5b
 13582 5a32 9C290000 		.4byte	.LASF771
 13583 5a36 1E4E0000 		.4byte	0x4e1e
 13584 5a3a 02       		.uleb128 0x2
 13585 5a3b 91       		.byte	0x91
 13586 5a3c 74       		.sleb128 -12
 13587 5a3d 60       		.uleb128 0x60
 13588 5a3e 70756200 		.ascii	"pub\000"
 13589 5a42 0A       		.byte	0xa
 13590 5a43 A9       		.byte	0xa9
 13591 5a44 5A5A0000 		.4byte	0x5a5a
 13592 5a48 02       		.uleb128 0x2
 13593 5a49 91       		.byte	0x91
 13594 5a4a 70       		.sleb128 -16
 13595 5a4b 5D       		.uleb128 0x5d
 13596 5a4c 96620000 		.4byte	.LASF266
 13597 5a50 0A       		.byte	0xa
 13598 5a51 A9       		.byte	0xa9
 13599 5a52 5F5A0000 		.4byte	0x5a5f
 13600 5a56 02       		.uleb128 0x2
 13601 5a57 91       		.byte	0x91
 13602 5a58 6C       		.sleb128 -20
 13603 5a59 00       		.byte	0
 13604 5a5a 07       		.uleb128 0x7
 13605 5a5b 464E0000 		.4byte	0x4e46
 13606 5a5f 07       		.uleb128 0x7
 13607 5a60 C54C0000 		.4byte	0x4cc5
 13608 5a64 67       		.uleb128 0x67
 13609 5a65 5E210000 		.4byte	0x215e
 13610 5a69 0A       		.byte	0xa
 13611 5a6a B5       		.byte	0xb5
 13612 5a6b 00000000 		.4byte	.LFB604
 13613 5a6f 40000000 		.4byte	.LFE604-.LFB604
 13614 5a73 01       		.uleb128 0x1
 13615 5a74 9C       		.byte	0x9c
 13616 5a75 7D5A0000 		.4byte	0x5a7d
 13617 5a79 A65A0000 		.4byte	0x5aa6
 13618 5a7d 5B       		.uleb128 0x5b
 13619 5a7e 9C290000 		.4byte	.LASF771
 13620 5a82 1E4E0000 		.4byte	0x4e1e
 13621 5a86 02       		.uleb128 0x2
 13622 5a87 91       		.byte	0x91
 13623 5a88 74       		.sleb128 -12
ARM GAS  /tmp/cc9AvIGf.s 			page 241


 13624 5a89 60       		.uleb128 0x60
 13625 5a8a 70756200 		.ascii	"pub\000"
 13626 5a8e 0A       		.byte	0xa
 13627 5a8f B5       		.byte	0xb5
 13628 5a90 A65A0000 		.4byte	0x5aa6
 13629 5a94 02       		.uleb128 0x2
 13630 5a95 91       		.byte	0x91
 13631 5a96 70       		.sleb128 -16
 13632 5a97 5D       		.uleb128 0x5d
 13633 5a98 96620000 		.4byte	.LASF266
 13634 5a9c 0A       		.byte	0xa
 13635 5a9d B5       		.byte	0xb5
 13636 5a9e AB5A0000 		.4byte	0x5aab
 13637 5aa2 02       		.uleb128 0x2
 13638 5aa3 91       		.byte	0x91
 13639 5aa4 6C       		.sleb128 -20
 13640 5aa5 00       		.byte	0
 13641 5aa6 07       		.uleb128 0x7
 13642 5aa7 4C4E0000 		.4byte	0x4e4c
 13643 5aab 07       		.uleb128 0x7
 13644 5aac C54C0000 		.4byte	0x4cc5
 13645 5ab0 67       		.uleb128 0x67
 13646 5ab1 82210000 		.4byte	0x2182
 13647 5ab5 0A       		.byte	0xa
 13648 5ab6 C1       		.byte	0xc1
 13649 5ab7 00000000 		.4byte	.LFB605
 13650 5abb 3A000000 		.4byte	.LFE605-.LFB605
 13651 5abf 01       		.uleb128 0x1
 13652 5ac0 9C       		.byte	0x9c
 13653 5ac1 C95A0000 		.4byte	0x5ac9
 13654 5ac5 F25A0000 		.4byte	0x5af2
 13655 5ac9 5B       		.uleb128 0x5b
 13656 5aca 9C290000 		.4byte	.LASF771
 13657 5ace 1E4E0000 		.4byte	0x4e1e
 13658 5ad2 02       		.uleb128 0x2
 13659 5ad3 91       		.byte	0x91
 13660 5ad4 74       		.sleb128 -12
 13661 5ad5 60       		.uleb128 0x60
 13662 5ad6 73756200 		.ascii	"sub\000"
 13663 5ada 0A       		.byte	0xa
 13664 5adb C1       		.byte	0xc1
 13665 5adc F25A0000 		.4byte	0x5af2
 13666 5ae0 02       		.uleb128 0x2
 13667 5ae1 91       		.byte	0x91
 13668 5ae2 70       		.sleb128 -16
 13669 5ae3 5D       		.uleb128 0x5d
 13670 5ae4 B4390000 		.4byte	.LASF480
 13671 5ae8 0A       		.byte	0xa
 13672 5ae9 C1       		.byte	0xc1
 13673 5aea 2C000000 		.4byte	0x2c
 13674 5aee 02       		.uleb128 0x2
 13675 5aef 91       		.byte	0x91
 13676 5af0 6C       		.sleb128 -20
 13677 5af1 00       		.byte	0
 13678 5af2 07       		.uleb128 0x7
 13679 5af3 524E0000 		.4byte	0x4e52
 13680 5af7 67       		.uleb128 0x67
ARM GAS  /tmp/cc9AvIGf.s 			page 242


 13681 5af8 A6210000 		.4byte	0x21a6
 13682 5afc 0A       		.byte	0xa
 13683 5afd CC       		.byte	0xcc
 13684 5afe 00000000 		.4byte	.LFB606
 13685 5b02 3A000000 		.4byte	.LFE606-.LFB606
 13686 5b06 01       		.uleb128 0x1
 13687 5b07 9C       		.byte	0x9c
 13688 5b08 105B0000 		.4byte	0x5b10
 13689 5b0c 395B0000 		.4byte	0x5b39
 13690 5b10 5B       		.uleb128 0x5b
 13691 5b11 9C290000 		.4byte	.LASF771
 13692 5b15 1E4E0000 		.4byte	0x4e1e
 13693 5b19 02       		.uleb128 0x2
 13694 5b1a 91       		.byte	0x91
 13695 5b1b 74       		.sleb128 -12
 13696 5b1c 60       		.uleb128 0x60
 13697 5b1d 73756200 		.ascii	"sub\000"
 13698 5b21 0A       		.byte	0xa
 13699 5b22 CC       		.byte	0xcc
 13700 5b23 395B0000 		.4byte	0x5b39
 13701 5b27 02       		.uleb128 0x2
 13702 5b28 91       		.byte	0x91
 13703 5b29 70       		.sleb128 -16
 13704 5b2a 5D       		.uleb128 0x5d
 13705 5b2b B4390000 		.4byte	.LASF480
 13706 5b2f 0A       		.byte	0xa
 13707 5b30 CC       		.byte	0xcc
 13708 5b31 2C000000 		.4byte	0x2c
 13709 5b35 02       		.uleb128 0x2
 13710 5b36 91       		.byte	0x91
 13711 5b37 6C       		.sleb128 -20
 13712 5b38 00       		.byte	0
 13713 5b39 07       		.uleb128 0x7
 13714 5b3a 584E0000 		.4byte	0x4e58
 13715 5b3e 67       		.uleb128 0x67
 13716 5b3f CA210000 		.4byte	0x21ca
 13717 5b43 0A       		.byte	0xa
 13718 5b44 D7       		.byte	0xd7
 13719 5b45 00000000 		.4byte	.LFB607
 13720 5b49 64000000 		.4byte	.LFE607-.LFB607
 13721 5b4d 01       		.uleb128 0x1
 13722 5b4e 9C       		.byte	0x9c
 13723 5b4f 575B0000 		.4byte	0x5b57
 13724 5b53 B05B0000 		.4byte	0x5bb0
 13725 5b57 5B       		.uleb128 0x5b
 13726 5b58 9C290000 		.4byte	.LASF771
 13727 5b5c E9550000 		.4byte	0x55e9
 13728 5b60 02       		.uleb128 0x2
 13729 5b61 91       		.byte	0x91
 13730 5b62 6C       		.sleb128 -20
 13731 5b63 60       		.uleb128 0x60
 13732 5b64 6D736700 		.ascii	"msg\000"
 13733 5b68 0A       		.byte	0xa
 13734 5b69 D7       		.byte	0xd7
 13735 5b6a B05B0000 		.4byte	0x5bb0
 13736 5b6e 02       		.uleb128 0x2
 13737 5b6f 91       		.byte	0x91
ARM GAS  /tmp/cc9AvIGf.s 			page 243


 13738 5b70 68       		.sleb128 -24
 13739 5b71 5D       		.uleb128 0x5d
 13740 5b72 994A0000 		.4byte	.LASF783
 13741 5b76 0A       		.byte	0xa
 13742 5b77 D7       		.byte	0xd7
 13743 5b78 B55B0000 		.4byte	0x5bb5
 13744 5b7c 02       		.uleb128 0x2
 13745 5b7d 91       		.byte	0x91
 13746 5b7e 64       		.sleb128 -28
 13747 5b7f 56       		.uleb128 0x56
 13748 5b80 0A000000 		.4byte	.LBB41
 13749 5b84 50000000 		.4byte	.LBE41-.LBB41
 13750 5b88 64       		.uleb128 0x64
 13751 5b89 00280000 		.4byte	.LASF784
 13752 5b8d 0A       		.byte	0xa
 13753 5b8e DB       		.byte	0xdb
 13754 5b8f BA5B0000 		.4byte	0x5bba
 13755 5b93 02       		.uleb128 0x2
 13756 5b94 91       		.byte	0x91
 13757 5b95 74       		.sleb128 -12
 13758 5b96 56       		.uleb128 0x56
 13759 5b97 34000000 		.4byte	.LBB44
 13760 5b9b 26000000 		.4byte	.LBE44-.LBB44
 13761 5b9f 64       		.uleb128 0x64
 13762 5ba0 24540000 		.4byte	.LASF785
 13763 5ba4 0A       		.byte	0xa
 13764 5ba5 E2       		.byte	0xe2
 13765 5ba6 004E0000 		.4byte	0x4e00
 13766 5baa 02       		.uleb128 0x2
 13767 5bab 91       		.byte	0x91
 13768 5bac 70       		.sleb128 -16
 13769 5bad 00       		.byte	0
 13770 5bae 00       		.byte	0
 13771 5baf 00       		.byte	0
 13772 5bb0 07       		.uleb128 0x7
 13773 5bb1 3A4E0000 		.4byte	0x4e3a
 13774 5bb5 07       		.uleb128 0x7
 13775 5bb6 5E4E0000 		.4byte	0x4e5e
 13776 5bba 07       		.uleb128 0x7
 13777 5bbb BF5B0000 		.4byte	0x5bbf
 13778 5bbf 44       		.uleb128 0x44
 13779 5bc0 04       		.byte	0x4
 13780 5bc1 602F0000 		.4byte	0x2f60
 13781 5bc5 69       		.uleb128 0x69
 13782 5bc6 ED210000 		.4byte	0x21ed
 13783 5bca 0A       		.byte	0xa
 13784 5bcb EC       		.byte	0xec
 13785 5bcc 00       		.byte	0
 13786 5bcd D55B0000 		.4byte	0x5bd5
 13787 5bd1 005C0000 		.4byte	0x5c00
 13788 5bd5 52       		.uleb128 0x52
 13789 5bd6 9C290000 		.4byte	.LASF771
 13790 5bda 1E4E0000 		.4byte	0x4e1e
 13791 5bde 5F       		.uleb128 0x5f
 13792 5bdf BE1E0000 		.4byte	.LASF265
 13793 5be3 0A       		.byte	0xa
 13794 5be4 EC       		.byte	0xec
ARM GAS  /tmp/cc9AvIGf.s 			page 244


 13795 5be5 C3000000 		.4byte	0xc3
 13796 5be9 5F       		.uleb128 0x5f
 13797 5bea CC320000 		.4byte	.LASF786
 13798 5bee 0A       		.byte	0xa
 13799 5bef EC       		.byte	0xec
 13800 5bf0 2C000000 		.4byte	0x2c
 13801 5bf4 5F       		.uleb128 0x5f
 13802 5bf5 53010000 		.4byte	.LASF787
 13803 5bf9 0A       		.byte	0xa
 13804 5bfa EC       		.byte	0xec
 13805 5bfb 9D470000 		.4byte	0x479d
 13806 5bff 00       		.byte	0
 13807 5c00 58       		.uleb128 0x58
 13808 5c01 C55B0000 		.4byte	0x5bc5
 13809 5c05 3C250000 		.4byte	.LASF788
 13810 5c09 00000000 		.4byte	.LFB618
 13811 5c0d 90000000 		.4byte	.LFE618-.LFB618
 13812 5c11 01       		.uleb128 0x1
 13813 5c12 9C       		.byte	0x9c
 13814 5c13 1B5C0000 		.4byte	0x5c1b
 13815 5c17 3C5C0000 		.4byte	0x5c3c
 13816 5c1b 54       		.uleb128 0x54
 13817 5c1c D55B0000 		.4byte	0x5bd5
 13818 5c20 02       		.uleb128 0x2
 13819 5c21 91       		.byte	0x91
 13820 5c22 74       		.sleb128 -12
 13821 5c23 54       		.uleb128 0x54
 13822 5c24 DE5B0000 		.4byte	0x5bde
 13823 5c28 02       		.uleb128 0x2
 13824 5c29 91       		.byte	0x91
 13825 5c2a 70       		.sleb128 -16
 13826 5c2b 54       		.uleb128 0x54
 13827 5c2c E95B0000 		.4byte	0x5be9
 13828 5c30 02       		.uleb128 0x2
 13829 5c31 91       		.byte	0x91
 13830 5c32 6C       		.sleb128 -20
 13831 5c33 54       		.uleb128 0x54
 13832 5c34 F45B0000 		.4byte	0x5bf4
 13833 5c38 02       		.uleb128 0x2
 13834 5c39 91       		.byte	0x91
 13835 5c3a 6B       		.sleb128 -21
 13836 5c3b 00       		.byte	0
 13837 5c3c 63       		.uleb128 0x63
 13838 5c3d ED0B0000 		.4byte	0xbed
 13839 5c41 00000000 		.4byte	.LFB632
 13840 5c45 18000000 		.4byte	.LFE632-.LFB632
 13841 5c49 01       		.uleb128 0x1
 13842 5c4a 9C       		.byte	0x9c
 13843 5c4b 535C0000 		.4byte	0x5c53
 13844 5c4f 605C0000 		.4byte	0x5c60
 13845 5c53 5B       		.uleb128 0x5b
 13846 5c54 9C290000 		.4byte	.LASF771
 13847 5c58 605C0000 		.4byte	0x5c60
 13848 5c5c 02       		.uleb128 0x2
 13849 5c5d 91       		.byte	0x91
 13850 5c5e 7C       		.sleb128 -4
 13851 5c5f 00       		.byte	0
ARM GAS  /tmp/cc9AvIGf.s 			page 245


 13852 5c60 07       		.uleb128 0x7
 13853 5c61 0C4D0000 		.4byte	0x4d0c
 13854 5c65 63       		.uleb128 0x63
 13855 5c66 A4130000 		.4byte	0x13a4
 13856 5c6a 00000000 		.4byte	.LFB633
 13857 5c6e 18000000 		.4byte	.LFE633-.LFB633
 13858 5c72 01       		.uleb128 0x1
 13859 5c73 9C       		.byte	0x9c
 13860 5c74 7C5C0000 		.4byte	0x5c7c
 13861 5c78 895C0000 		.4byte	0x5c89
 13862 5c7c 5B       		.uleb128 0x5b
 13863 5c7d 9C290000 		.4byte	.LASF771
 13864 5c81 895C0000 		.4byte	0x5c89
 13865 5c85 02       		.uleb128 0x2
 13866 5c86 91       		.byte	0x91
 13867 5c87 7C       		.sleb128 -4
 13868 5c88 00       		.byte	0
 13869 5c89 07       		.uleb128 0x7
 13870 5c8a 7D4D0000 		.4byte	0x4d7d
 13871 5c8e 6A       		.uleb128 0x6a
 13872 5c8f 240D0000 		.4byte	0xd24
 13873 5c93 00000000 		.4byte	.LFB641
 13874 5c97 20000000 		.4byte	.LFE641-.LFB641
 13875 5c9b 01       		.uleb128 0x1
 13876 5c9c 9C       		.byte	0x9c
 13877 5c9d A55C0000 		.4byte	0x5ca5
 13878 5ca1 B25C0000 		.4byte	0x5cb2
 13879 5ca5 5B       		.uleb128 0x5b
 13880 5ca6 9C290000 		.4byte	.LASF771
 13881 5caa B25C0000 		.4byte	0x5cb2
 13882 5cae 02       		.uleb128 0x2
 13883 5caf 91       		.byte	0x91
 13884 5cb0 70       		.sleb128 -16
 13885 5cb1 00       		.byte	0
 13886 5cb2 07       		.uleb128 0x7
 13887 5cb3 124D0000 		.4byte	0x4d12
 13888 5cb7 6A       		.uleb128 0x6a
 13889 5cb8 480D0000 		.4byte	0xd48
 13890 5cbc 00000000 		.4byte	.LFB645
 13891 5cc0 18000000 		.4byte	.LFE645-.LFB645
 13892 5cc4 01       		.uleb128 0x1
 13893 5cc5 9C       		.byte	0x9c
 13894 5cc6 CE5C0000 		.4byte	0x5cce
 13895 5cca DB5C0000 		.4byte	0x5cdb
 13896 5cce 5B       		.uleb128 0x5b
 13897 5ccf 9C290000 		.4byte	.LASF771
 13898 5cd3 B25C0000 		.4byte	0x5cb2
 13899 5cd7 02       		.uleb128 0x2
 13900 5cd8 91       		.byte	0x91
 13901 5cd9 70       		.sleb128 -16
 13902 5cda 00       		.byte	0
 13903 5cdb 63       		.uleb128 0x63
 13904 5cdc 8E080000 		.4byte	0x88e
 13905 5ce0 00000000 		.4byte	.LFB646
 13906 5ce4 1E000000 		.4byte	.LFE646-.LFB646
 13907 5ce8 01       		.uleb128 0x1
 13908 5ce9 9C       		.byte	0x9c
ARM GAS  /tmp/cc9AvIGf.s 			page 246


 13909 5cea F25C0000 		.4byte	0x5cf2
 13910 5cee 0D5D0000 		.4byte	0x5d0d
 13911 5cf2 5B       		.uleb128 0x5b
 13912 5cf3 9C290000 		.4byte	.LASF771
 13913 5cf7 0D5D0000 		.4byte	0x5d0d
 13914 5cfb 02       		.uleb128 0x2
 13915 5cfc 91       		.byte	0x91
 13916 5cfd 7C       		.sleb128 -4
 13917 5cfe 60       		.uleb128 0x60
 13918 5cff 72687300 		.ascii	"rhs\000"
 13919 5d03 0B       		.byte	0xb
 13920 5d04 4B       		.byte	0x4b
 13921 5d05 125D0000 		.4byte	0x5d12
 13922 5d09 02       		.uleb128 0x2
 13923 5d0a 91       		.byte	0x91
 13924 5d0b 78       		.sleb128 -8
 13925 5d0c 00       		.byte	0
 13926 5d0d 07       		.uleb128 0x7
 13927 5d0e 49510000 		.4byte	0x5149
 13928 5d12 07       		.uleb128 0x7
 13929 5d13 43510000 		.4byte	0x5143
 13930 5d17 63       		.uleb128 0x63
 13931 5d18 2A080000 		.4byte	0x82a
 13932 5d1c 00000000 		.4byte	.LFB647
 13933 5d20 16000000 		.4byte	.LFE647-.LFB647
 13934 5d24 01       		.uleb128 0x1
 13935 5d25 9C       		.byte	0x9c
 13936 5d26 2E5D0000 		.4byte	0x5d2e
 13937 5d2a 3B5D0000 		.4byte	0x5d3b
 13938 5d2e 5B       		.uleb128 0x5b
 13939 5d2f 9C290000 		.4byte	.LASF771
 13940 5d33 3B5D0000 		.4byte	0x5d3b
 13941 5d37 02       		.uleb128 0x2
 13942 5d38 91       		.byte	0x91
 13943 5d39 7C       		.sleb128 -4
 13944 5d3a 00       		.byte	0
 13945 5d3b 07       		.uleb128 0x7
 13946 5d3c 3D510000 		.4byte	0x513d
 13947 5d40 63       		.uleb128 0x63
 13948 5d41 EE070000 		.4byte	0x7ee
 13949 5d45 00000000 		.4byte	.LFB648
 13950 5d49 10000000 		.4byte	.LFE648-.LFB648
 13951 5d4d 01       		.uleb128 0x1
 13952 5d4e 9C       		.byte	0x9c
 13953 5d4f 575D0000 		.4byte	0x5d57
 13954 5d53 645D0000 		.4byte	0x5d64
 13955 5d57 5B       		.uleb128 0x5b
 13956 5d58 9C290000 		.4byte	.LASF771
 13957 5d5c 0D5D0000 		.4byte	0x5d0d
 13958 5d60 02       		.uleb128 0x2
 13959 5d61 91       		.byte	0x91
 13960 5d62 7C       		.sleb128 -4
 13961 5d63 00       		.byte	0
 13962 5d64 6A       		.uleb128 0x6a
 13963 5d65 DB140000 		.4byte	0x14db
 13964 5d69 00000000 		.4byte	.LFB649
 13965 5d6d 20000000 		.4byte	.LFE649-.LFB649
ARM GAS  /tmp/cc9AvIGf.s 			page 247


 13966 5d71 01       		.uleb128 0x1
 13967 5d72 9C       		.byte	0x9c
 13968 5d73 7B5D0000 		.4byte	0x5d7b
 13969 5d77 885D0000 		.4byte	0x5d88
 13970 5d7b 5B       		.uleb128 0x5b
 13971 5d7c 9C290000 		.4byte	.LASF771
 13972 5d80 885D0000 		.4byte	0x5d88
 13973 5d84 02       		.uleb128 0x2
 13974 5d85 91       		.byte	0x91
 13975 5d86 70       		.sleb128 -16
 13976 5d87 00       		.byte	0
 13977 5d88 07       		.uleb128 0x7
 13978 5d89 834D0000 		.4byte	0x4d83
 13979 5d8d 6A       		.uleb128 0x6a
 13980 5d8e FF140000 		.4byte	0x14ff
 13981 5d92 00000000 		.4byte	.LFB653
 13982 5d96 18000000 		.4byte	.LFE653-.LFB653
 13983 5d9a 01       		.uleb128 0x1
 13984 5d9b 9C       		.byte	0x9c
 13985 5d9c A45D0000 		.4byte	0x5da4
 13986 5da0 B15D0000 		.4byte	0x5db1
 13987 5da4 5B       		.uleb128 0x5b
 13988 5da5 9C290000 		.4byte	.LASF771
 13989 5da9 885D0000 		.4byte	0x5d88
 13990 5dad 02       		.uleb128 0x2
 13991 5dae 91       		.byte	0x91
 13992 5daf 70       		.sleb128 -16
 13993 5db0 00       		.byte	0
 13994 5db1 63       		.uleb128 0x63
 13995 5db2 B0110000 		.4byte	0x11b0
 13996 5db6 00000000 		.4byte	.LFB654
 13997 5dba 1E000000 		.4byte	.LFE654-.LFB654
 13998 5dbe 01       		.uleb128 0x1
 13999 5dbf 9C       		.byte	0x9c
 14000 5dc0 C85D0000 		.4byte	0x5dc8
 14001 5dc4 E35D0000 		.4byte	0x5de3
 14002 5dc8 5B       		.uleb128 0x5b
 14003 5dc9 9C290000 		.4byte	.LASF771
 14004 5dcd E35D0000 		.4byte	0x5de3
 14005 5dd1 02       		.uleb128 0x2
 14006 5dd2 91       		.byte	0x91
 14007 5dd3 7C       		.sleb128 -4
 14008 5dd4 60       		.uleb128 0x60
 14009 5dd5 72687300 		.ascii	"rhs\000"
 14010 5dd9 0B       		.byte	0xb
 14011 5dda 4B       		.byte	0x4b
 14012 5ddb E85D0000 		.4byte	0x5de8
 14013 5ddf 02       		.uleb128 0x2
 14014 5de0 91       		.byte	0x91
 14015 5de1 78       		.sleb128 -8
 14016 5de2 00       		.byte	0
 14017 5de3 07       		.uleb128 0x7
 14018 5de4 5B510000 		.4byte	0x515b
 14019 5de8 07       		.uleb128 0x7
 14020 5de9 55510000 		.4byte	0x5155
 14021 5ded 63       		.uleb128 0x63
 14022 5dee 4C110000 		.4byte	0x114c
ARM GAS  /tmp/cc9AvIGf.s 			page 248


 14023 5df2 00000000 		.4byte	.LFB655
 14024 5df6 16000000 		.4byte	.LFE655-.LFB655
 14025 5dfa 01       		.uleb128 0x1
 14026 5dfb 9C       		.byte	0x9c
 14027 5dfc 045E0000 		.4byte	0x5e04
 14028 5e00 115E0000 		.4byte	0x5e11
 14029 5e04 5B       		.uleb128 0x5b
 14030 5e05 9C290000 		.4byte	.LASF771
 14031 5e09 115E0000 		.4byte	0x5e11
 14032 5e0d 02       		.uleb128 0x2
 14033 5e0e 91       		.byte	0x91
 14034 5e0f 7C       		.sleb128 -4
 14035 5e10 00       		.byte	0
 14036 5e11 07       		.uleb128 0x7
 14037 5e12 4F510000 		.4byte	0x514f
 14038 5e16 63       		.uleb128 0x63
 14039 5e17 10110000 		.4byte	0x1110
 14040 5e1b 00000000 		.4byte	.LFB656
 14041 5e1f 10000000 		.4byte	.LFE656-.LFB656
 14042 5e23 01       		.uleb128 0x1
 14043 5e24 9C       		.byte	0x9c
 14044 5e25 2D5E0000 		.4byte	0x5e2d
 14045 5e29 3A5E0000 		.4byte	0x5e3a
 14046 5e2d 5B       		.uleb128 0x5b
 14047 5e2e 9C290000 		.4byte	.LASF771
 14048 5e32 E35D0000 		.4byte	0x5de3
 14049 5e36 02       		.uleb128 0x2
 14050 5e37 91       		.byte	0x91
 14051 5e38 7C       		.sleb128 -4
 14052 5e39 00       		.byte	0
 14053 5e3a 6A       		.uleb128 0x6a
 14054 5e3b 35220000 		.4byte	0x2235
 14055 5e3f 00000000 		.4byte	.LFB657
 14056 5e43 2A000000 		.4byte	.LFE657-.LFB657
 14057 5e47 01       		.uleb128 0x1
 14058 5e48 9C       		.byte	0x9c
 14059 5e49 5A5E0000 		.4byte	0x5e5a
 14060 5e4d 765E0000 		.4byte	0x5e76
 14061 5e51 2B       		.uleb128 0x2b
 14062 5e52 62110000 		.4byte	.LASF340
 14063 5e56 91220000 		.4byte	0x2291
 14064 5e5a 5B       		.uleb128 0x5b
 14065 5e5b 9C290000 		.4byte	.LASF771
 14066 5e5f 1E4E0000 		.4byte	0x4e1e
 14067 5e63 02       		.uleb128 0x2
 14068 5e64 91       		.byte	0x91
 14069 5e65 74       		.sleb128 -12
 14070 5e66 6B       		.uleb128 0x6b
 14071 5e67 2F410000 		.4byte	.LASF781
 14072 5e6b 08       		.byte	0x8
 14073 5e6c 0601     		.2byte	0x106
 14074 5e6e 765E0000 		.4byte	0x5e76
 14075 5e72 02       		.uleb128 0x2
 14076 5e73 91       		.byte	0x91
 14077 5e74 70       		.sleb128 -16
 14078 5e75 00       		.byte	0
 14079 5e76 07       		.uleb128 0x7
ARM GAS  /tmp/cc9AvIGf.s 			page 249


 14080 5e77 E04E0000 		.4byte	0x4ee0
 14081 5e7b 6A       		.uleb128 0x6a
 14082 5e7c 200F0000 		.4byte	0xf20
 14083 5e80 00000000 		.4byte	.LFB658
 14084 5e84 20000000 		.4byte	.LFE658-.LFB658
 14085 5e88 01       		.uleb128 0x1
 14086 5e89 9C       		.byte	0x9c
 14087 5e8a 925E0000 		.4byte	0x5e92
 14088 5e8e 9F5E0000 		.4byte	0x5e9f
 14089 5e92 5B       		.uleb128 0x5b
 14090 5e93 9C290000 		.4byte	.LASF771
 14091 5e97 B25C0000 		.4byte	0x5cb2
 14092 5e9b 02       		.uleb128 0x2
 14093 5e9c 91       		.byte	0x91
 14094 5e9d 70       		.sleb128 -16
 14095 5e9e 00       		.byte	0
 14096 5e9f 6A       		.uleb128 0x6a
 14097 5ea0 440F0000 		.4byte	0xf44
 14098 5ea4 00000000 		.4byte	.LFB662
 14099 5ea8 18000000 		.4byte	.LFE662-.LFB662
 14100 5eac 01       		.uleb128 0x1
 14101 5ead 9C       		.byte	0x9c
 14102 5eae B65E0000 		.4byte	0x5eb6
 14103 5eb2 C35E0000 		.4byte	0x5ec3
 14104 5eb6 5B       		.uleb128 0x5b
 14105 5eb7 9C290000 		.4byte	.LASF771
 14106 5ebb B25C0000 		.4byte	0x5cb2
 14107 5ebf 02       		.uleb128 0x2
 14108 5ec0 91       		.byte	0x91
 14109 5ec1 70       		.sleb128 -16
 14110 5ec2 00       		.byte	0
 14111 5ec3 63       		.uleb128 0x63
 14112 5ec4 030A0000 		.4byte	0xa03
 14113 5ec8 00000000 		.4byte	.LFB663
 14114 5ecc 1E000000 		.4byte	.LFE663-.LFB663
 14115 5ed0 01       		.uleb128 0x1
 14116 5ed1 9C       		.byte	0x9c
 14117 5ed2 DA5E0000 		.4byte	0x5eda
 14118 5ed6 F55E0000 		.4byte	0x5ef5
 14119 5eda 5B       		.uleb128 0x5b
 14120 5edb 9C290000 		.4byte	.LASF771
 14121 5edf F55E0000 		.4byte	0x5ef5
 14122 5ee3 02       		.uleb128 0x2
 14123 5ee4 91       		.byte	0x91
 14124 5ee5 7C       		.sleb128 -4
 14125 5ee6 60       		.uleb128 0x60
 14126 5ee7 72687300 		.ascii	"rhs\000"
 14127 5eeb 0B       		.byte	0xb
 14128 5eec B7       		.byte	0xb7
 14129 5eed FA5E0000 		.4byte	0x5efa
 14130 5ef1 02       		.uleb128 0x2
 14131 5ef2 91       		.byte	0x91
 14132 5ef3 78       		.sleb128 -8
 14133 5ef4 00       		.byte	0
 14134 5ef5 07       		.uleb128 0x7
 14135 5ef6 6D510000 		.4byte	0x516d
 14136 5efa 07       		.uleb128 0x7
ARM GAS  /tmp/cc9AvIGf.s 			page 250


 14137 5efb 67510000 		.4byte	0x5167
 14138 5eff 6A       		.uleb128 0x6a
 14139 5f00 9F090000 		.4byte	0x99f
 14140 5f04 00000000 		.4byte	.LFB664
 14141 5f08 22000000 		.4byte	.LFE664-.LFB664
 14142 5f0c 01       		.uleb128 0x1
 14143 5f0d 9C       		.byte	0x9c
 14144 5f0e 165F0000 		.4byte	0x5f16
 14145 5f12 235F0000 		.4byte	0x5f23
 14146 5f16 5B       		.uleb128 0x5b
 14147 5f17 9C290000 		.4byte	.LASF771
 14148 5f1b 235F0000 		.4byte	0x5f23
 14149 5f1f 02       		.uleb128 0x2
 14150 5f20 91       		.byte	0x91
 14151 5f21 74       		.sleb128 -12
 14152 5f22 00       		.byte	0
 14153 5f23 07       		.uleb128 0x7
 14154 5f24 61510000 		.4byte	0x5161
 14155 5f28 63       		.uleb128 0x63
 14156 5f29 63090000 		.4byte	0x963
 14157 5f2d 00000000 		.4byte	.LFB665
 14158 5f31 10000000 		.4byte	.LFE665-.LFB665
 14159 5f35 01       		.uleb128 0x1
 14160 5f36 9C       		.byte	0x9c
 14161 5f37 3F5F0000 		.4byte	0x5f3f
 14162 5f3b 4C5F0000 		.4byte	0x5f4c
 14163 5f3f 5B       		.uleb128 0x5b
 14164 5f40 9C290000 		.4byte	.LASF771
 14165 5f44 F55E0000 		.4byte	0x5ef5
 14166 5f48 02       		.uleb128 0x2
 14167 5f49 91       		.byte	0x91
 14168 5f4a 7C       		.sleb128 -4
 14169 5f4b 00       		.byte	0
 14170 5f4c 6A       		.uleb128 0x6a
 14171 5f4d D7160000 		.4byte	0x16d7
 14172 5f51 00000000 		.4byte	.LFB666
 14173 5f55 20000000 		.4byte	.LFE666-.LFB666
 14174 5f59 01       		.uleb128 0x1
 14175 5f5a 9C       		.byte	0x9c
 14176 5f5b 635F0000 		.4byte	0x5f63
 14177 5f5f 705F0000 		.4byte	0x5f70
 14178 5f63 5B       		.uleb128 0x5b
 14179 5f64 9C290000 		.4byte	.LASF771
 14180 5f68 885D0000 		.4byte	0x5d88
 14181 5f6c 02       		.uleb128 0x2
 14182 5f6d 91       		.byte	0x91
 14183 5f6e 70       		.sleb128 -16
 14184 5f6f 00       		.byte	0
 14185 5f70 6A       		.uleb128 0x6a
 14186 5f71 FB160000 		.4byte	0x16fb
 14187 5f75 00000000 		.4byte	.LFB670
 14188 5f79 18000000 		.4byte	.LFE670-.LFB670
 14189 5f7d 01       		.uleb128 0x1
 14190 5f7e 9C       		.byte	0x9c
 14191 5f7f 875F0000 		.4byte	0x5f87
 14192 5f83 945F0000 		.4byte	0x5f94
 14193 5f87 5B       		.uleb128 0x5b
ARM GAS  /tmp/cc9AvIGf.s 			page 251


 14194 5f88 9C290000 		.4byte	.LASF771
 14195 5f8c 885D0000 		.4byte	0x5d88
 14196 5f90 02       		.uleb128 0x2
 14197 5f91 91       		.byte	0x91
 14198 5f92 70       		.sleb128 -16
 14199 5f93 00       		.byte	0
 14200 5f94 63       		.uleb128 0x63
 14201 5f95 25130000 		.4byte	0x1325
 14202 5f99 00000000 		.4byte	.LFB671
 14203 5f9d 1E000000 		.4byte	.LFE671-.LFB671
 14204 5fa1 01       		.uleb128 0x1
 14205 5fa2 9C       		.byte	0x9c
 14206 5fa3 AB5F0000 		.4byte	0x5fab
 14207 5fa7 C65F0000 		.4byte	0x5fc6
 14208 5fab 5B       		.uleb128 0x5b
 14209 5fac 9C290000 		.4byte	.LASF771
 14210 5fb0 C65F0000 		.4byte	0x5fc6
 14211 5fb4 02       		.uleb128 0x2
 14212 5fb5 91       		.byte	0x91
 14213 5fb6 7C       		.sleb128 -4
 14214 5fb7 60       		.uleb128 0x60
 14215 5fb8 72687300 		.ascii	"rhs\000"
 14216 5fbc 0B       		.byte	0xb
 14217 5fbd B7       		.byte	0xb7
 14218 5fbe CB5F0000 		.4byte	0x5fcb
 14219 5fc2 02       		.uleb128 0x2
 14220 5fc3 91       		.byte	0x91
 14221 5fc4 78       		.sleb128 -8
 14222 5fc5 00       		.byte	0
 14223 5fc6 07       		.uleb128 0x7
 14224 5fc7 7F510000 		.4byte	0x517f
 14225 5fcb 07       		.uleb128 0x7
 14226 5fcc 79510000 		.4byte	0x5179
 14227 5fd0 6A       		.uleb128 0x6a
 14228 5fd1 C1120000 		.4byte	0x12c1
 14229 5fd5 00000000 		.4byte	.LFB672
 14230 5fd9 22000000 		.4byte	.LFE672-.LFB672
 14231 5fdd 01       		.uleb128 0x1
 14232 5fde 9C       		.byte	0x9c
 14233 5fdf E75F0000 		.4byte	0x5fe7
 14234 5fe3 F45F0000 		.4byte	0x5ff4
 14235 5fe7 5B       		.uleb128 0x5b
 14236 5fe8 9C290000 		.4byte	.LASF771
 14237 5fec F45F0000 		.4byte	0x5ff4
 14238 5ff0 02       		.uleb128 0x2
 14239 5ff1 91       		.byte	0x91
 14240 5ff2 74       		.sleb128 -12
 14241 5ff3 00       		.byte	0
 14242 5ff4 07       		.uleb128 0x7
 14243 5ff5 73510000 		.4byte	0x5173
 14244 5ff9 63       		.uleb128 0x63
 14245 5ffa 85120000 		.4byte	0x1285
 14246 5ffe 00000000 		.4byte	.LFB673
 14247 6002 10000000 		.4byte	.LFE673-.LFB673
 14248 6006 01       		.uleb128 0x1
 14249 6007 9C       		.byte	0x9c
 14250 6008 10600000 		.4byte	0x6010
ARM GAS  /tmp/cc9AvIGf.s 			page 252


 14251 600c 1D600000 		.4byte	0x601d
 14252 6010 5B       		.uleb128 0x5b
 14253 6011 9C290000 		.4byte	.LASF771
 14254 6015 C65F0000 		.4byte	0x5fc6
 14255 6019 02       		.uleb128 0x2
 14256 601a 91       		.byte	0x91
 14257 601b 7C       		.sleb128 -4
 14258 601c 00       		.byte	0
 14259 601d 6A       		.uleb128 0x6a
 14260 601e 62220000 		.4byte	0x2262
 14261 6022 00000000 		.4byte	.LFB674
 14262 6026 2A000000 		.4byte	.LFE674-.LFB674
 14263 602a 01       		.uleb128 0x1
 14264 602b 9C       		.byte	0x9c
 14265 602c 3D600000 		.4byte	0x603d
 14266 6030 59600000 		.4byte	0x6059
 14267 6034 2B       		.uleb128 0x2b
 14268 6035 62110000 		.4byte	.LASF340
 14269 6039 91220000 		.4byte	0x2291
 14270 603d 5B       		.uleb128 0x5b
 14271 603e 9C290000 		.4byte	.LASF771
 14272 6042 1E4E0000 		.4byte	0x4e1e
 14273 6046 02       		.uleb128 0x2
 14274 6047 91       		.byte	0x91
 14275 6048 74       		.sleb128 -12
 14276 6049 6B       		.uleb128 0x6b
 14277 604a 2F410000 		.4byte	.LASF781
 14278 604e 08       		.byte	0x8
 14279 604f 3101     		.2byte	0x131
 14280 6051 59600000 		.4byte	0x6059
 14281 6055 02       		.uleb128 0x2
 14282 6056 91       		.byte	0x91
 14283 6057 70       		.sleb128 -16
 14284 6058 00       		.byte	0
 14285 6059 07       		.uleb128 0x7
 14286 605a E04E0000 		.4byte	0x4ee0
 14287 605e 6A       		.uleb128 0x6a
 14288 605f 2B0C0000 		.4byte	0xc2b
 14289 6063 00000000 		.4byte	.LFB675
 14290 6067 44000000 		.4byte	.LFE675-.LFB675
 14291 606b 01       		.uleb128 0x1
 14292 606c 9C       		.byte	0x9c
 14293 606d 75600000 		.4byte	0x6075
 14294 6071 91600000 		.4byte	0x6091
 14295 6075 5B       		.uleb128 0x5b
 14296 6076 9C290000 		.4byte	.LASF771
 14297 607a B25C0000 		.4byte	0x5cb2
 14298 607e 02       		.uleb128 0x2
 14299 607f 91       		.byte	0x91
 14300 6080 74       		.sleb128 -12
 14301 6081 6B       		.uleb128 0x6b
 14302 6082 0C1F0000 		.4byte	.LASF159
 14303 6086 0B       		.byte	0xb
 14304 6087 9701     		.2byte	0x197
 14305 6089 91600000 		.4byte	0x6091
 14306 608d 02       		.uleb128 0x2
 14307 608e 91       		.byte	0x91
ARM GAS  /tmp/cc9AvIGf.s 			page 253


 14308 608f 70       		.sleb128 -16
 14309 6090 00       		.byte	0
 14310 6091 07       		.uleb128 0x7
 14311 6092 184D0000 		.4byte	0x4d18
 14312 6096 6A       		.uleb128 0x6a
 14313 6097 E2130000 		.4byte	0x13e2
 14314 609b 00000000 		.4byte	.LFB676
 14315 609f 44000000 		.4byte	.LFE676-.LFB676
 14316 60a3 01       		.uleb128 0x1
 14317 60a4 9C       		.byte	0x9c
 14318 60a5 AD600000 		.4byte	0x60ad
 14319 60a9 C9600000 		.4byte	0x60c9
 14320 60ad 5B       		.uleb128 0x5b
 14321 60ae 9C290000 		.4byte	.LASF771
 14322 60b2 885D0000 		.4byte	0x5d88
 14323 60b6 02       		.uleb128 0x2
 14324 60b7 91       		.byte	0x91
 14325 60b8 74       		.sleb128 -12
 14326 60b9 6B       		.uleb128 0x6b
 14327 60ba 0C1F0000 		.4byte	.LASF159
 14328 60be 0B       		.byte	0xb
 14329 60bf 9701     		.2byte	0x197
 14330 60c1 C9600000 		.4byte	0x60c9
 14331 60c5 02       		.uleb128 0x2
 14332 60c6 91       		.byte	0x91
 14333 60c7 70       		.sleb128 -16
 14334 60c8 00       		.byte	0
 14335 60c9 07       		.uleb128 0x7
 14336 60ca 894D0000 		.4byte	0x4d89
 14337 60ce 51       		.uleb128 0x51
 14338 60cf E60F0000 		.4byte	0xfe6
 14339 60d3 02       		.byte	0x2
 14340 60d4 DC600000 		.4byte	0x60dc
 14341 60d8 E6600000 		.4byte	0x60e6
 14342 60dc 52       		.uleb128 0x52
 14343 60dd 9C290000 		.4byte	.LASF771
 14344 60e1 B25C0000 		.4byte	0x5cb2
 14345 60e5 00       		.byte	0
 14346 60e6 58       		.uleb128 0x58
 14347 60e7 CE600000 		.4byte	0x60ce
 14348 60eb 10160000 		.4byte	.LASF789
 14349 60ef 00000000 		.4byte	.LFB678
 14350 60f3 1C000000 		.4byte	.LFE678-.LFB678
 14351 60f7 01       		.uleb128 0x1
 14352 60f8 9C       		.byte	0x9c
 14353 60f9 01610000 		.4byte	0x6101
 14354 60fd 0A610000 		.4byte	0x610a
 14355 6101 54       		.uleb128 0x54
 14356 6102 DC600000 		.4byte	0x60dc
 14357 6106 02       		.uleb128 0x2
 14358 6107 91       		.byte	0x91
 14359 6108 74       		.sleb128 -12
 14360 6109 00       		.byte	0
 14361 610a 51       		.uleb128 0x51
 14362 610b 9D170000 		.4byte	0x179d
 14363 610f 02       		.byte	0x2
 14364 6110 18610000 		.4byte	0x6118
ARM GAS  /tmp/cc9AvIGf.s 			page 254


 14365 6114 22610000 		.4byte	0x6122
 14366 6118 52       		.uleb128 0x52
 14367 6119 9C290000 		.4byte	.LASF771
 14368 611d 885D0000 		.4byte	0x5d88
 14369 6121 00       		.byte	0
 14370 6122 58       		.uleb128 0x58
 14371 6123 0A610000 		.4byte	0x610a
 14372 6127 CA170000 		.4byte	.LASF790
 14373 612b 00000000 		.4byte	.LFB681
 14374 612f 1C000000 		.4byte	.LFE681-.LFB681
 14375 6133 01       		.uleb128 0x1
 14376 6134 9C       		.byte	0x9c
 14377 6135 3D610000 		.4byte	0x613d
 14378 6139 46610000 		.4byte	0x6146
 14379 613d 54       		.uleb128 0x54
 14380 613e 18610000 		.4byte	0x6118
 14381 6142 02       		.uleb128 0x2
 14382 6143 91       		.byte	0x91
 14383 6144 74       		.sleb128 -12
 14384 6145 00       		.byte	0
 14385 6146 51       		.uleb128 0x51
 14386 6147 27180000 		.4byte	0x1827
 14387 614b 02       		.byte	0x2
 14388 614c 54610000 		.4byte	0x6154
 14389 6150 69610000 		.4byte	0x6169
 14390 6154 52       		.uleb128 0x52
 14391 6155 9C290000 		.4byte	.LASF771
 14392 6159 69610000 		.4byte	0x6169
 14393 615d 5F       		.uleb128 0x5f
 14394 615e 584E0000 		.4byte	.LASF791
 14395 6162 0B       		.byte	0xb
 14396 6163 15       		.byte	0x15
 14397 6164 6E610000 		.4byte	0x616e
 14398 6168 00       		.byte	0
 14399 6169 07       		.uleb128 0x7
 14400 616a AD4D0000 		.4byte	0x4dad
 14401 616e 07       		.uleb128 0x7
 14402 616f 234E0000 		.4byte	0x4e23
 14403 6173 53       		.uleb128 0x53
 14404 6174 46610000 		.4byte	0x6146
 14405 6178 9A3C0000 		.4byte	.LASF792
 14406 617c 00000000 		.4byte	.LFB684
 14407 6180 1A000000 		.4byte	.LFE684-.LFB684
 14408 6184 01       		.uleb128 0x1
 14409 6185 9C       		.byte	0x9c
 14410 6186 8E610000 		.4byte	0x618e
 14411 618a 9F610000 		.4byte	0x619f
 14412 618e 54       		.uleb128 0x54
 14413 618f 54610000 		.4byte	0x6154
 14414 6193 02       		.uleb128 0x2
 14415 6194 91       		.byte	0x91
 14416 6195 7C       		.sleb128 -4
 14417 6196 54       		.uleb128 0x54
 14418 6197 5D610000 		.4byte	0x615d
 14419 619b 02       		.uleb128 0x2
 14420 619c 91       		.byte	0x91
 14421 619d 78       		.sleb128 -8
ARM GAS  /tmp/cc9AvIGf.s 			page 255


 14422 619e 00       		.byte	0
 14423 619f 63       		.uleb128 0x63
 14424 61a0 C90B0000 		.4byte	0xbc9
 14425 61a4 00000000 		.4byte	.LFB686
 14426 61a8 0E000000 		.4byte	.LFE686-.LFB686
 14427 61ac 01       		.uleb128 0x1
 14428 61ad 9C       		.byte	0x9c
 14429 61ae B6610000 		.4byte	0x61b6
 14430 61b2 C3610000 		.4byte	0x61c3
 14431 61b6 5B       		.uleb128 0x5b
 14432 61b7 9C290000 		.4byte	.LASF771
 14433 61bb 605C0000 		.4byte	0x5c60
 14434 61bf 02       		.uleb128 0x2
 14435 61c0 91       		.byte	0x91
 14436 61c1 7C       		.sleb128 -4
 14437 61c2 00       		.byte	0
 14438 61c3 51       		.uleb128 0x51
 14439 61c4 AE070000 		.4byte	0x7ae
 14440 61c8 02       		.byte	0x2
 14441 61c9 D1610000 		.4byte	0x61d1
 14442 61cd E6610000 		.4byte	0x61e6
 14443 61d1 52       		.uleb128 0x52
 14444 61d2 9C290000 		.4byte	.LASF771
 14445 61d6 3B5D0000 		.4byte	0x5d3b
 14446 61da 5F       		.uleb128 0x5f
 14447 61db 183E0000 		.4byte	.LASF793
 14448 61df 0B       		.byte	0xb
 14449 61e0 2B       		.byte	0x2b
 14450 61e1 064D0000 		.4byte	0x4d06
 14451 61e5 00       		.byte	0
 14452 61e6 53       		.uleb128 0x53
 14453 61e7 C3610000 		.4byte	0x61c3
 14454 61eb 063C0000 		.4byte	.LASF794
 14455 61ef 00000000 		.4byte	.LFB688
 14456 61f3 14000000 		.4byte	.LFE688-.LFB688
 14457 61f7 01       		.uleb128 0x1
 14458 61f8 9C       		.byte	0x9c
 14459 61f9 01620000 		.4byte	0x6201
 14460 61fd 12620000 		.4byte	0x6212
 14461 6201 54       		.uleb128 0x54
 14462 6202 D1610000 		.4byte	0x61d1
 14463 6206 02       		.uleb128 0x2
 14464 6207 91       		.byte	0x91
 14465 6208 7C       		.sleb128 -4
 14466 6209 54       		.uleb128 0x54
 14467 620a DA610000 		.4byte	0x61da
 14468 620e 02       		.uleb128 0x2
 14469 620f 91       		.byte	0x91
 14470 6210 78       		.sleb128 -8
 14471 6211 00       		.byte	0
 14472 6212 63       		.uleb128 0x63
 14473 6213 80130000 		.4byte	0x1380
 14474 6217 00000000 		.4byte	.LFB690
 14475 621b 0E000000 		.4byte	.LFE690-.LFB690
 14476 621f 01       		.uleb128 0x1
 14477 6220 9C       		.byte	0x9c
 14478 6221 29620000 		.4byte	0x6229
ARM GAS  /tmp/cc9AvIGf.s 			page 256


 14479 6225 36620000 		.4byte	0x6236
 14480 6229 5B       		.uleb128 0x5b
 14481 622a 9C290000 		.4byte	.LASF771
 14482 622e 895C0000 		.4byte	0x5c89
 14483 6232 02       		.uleb128 0x2
 14484 6233 91       		.byte	0x91
 14485 6234 7C       		.sleb128 -4
 14486 6235 00       		.byte	0
 14487 6236 51       		.uleb128 0x51
 14488 6237 D0100000 		.4byte	0x10d0
 14489 623b 02       		.byte	0x2
 14490 623c 44620000 		.4byte	0x6244
 14491 6240 59620000 		.4byte	0x6259
 14492 6244 52       		.uleb128 0x52
 14493 6245 9C290000 		.4byte	.LASF771
 14494 6249 115E0000 		.4byte	0x5e11
 14495 624d 5F       		.uleb128 0x5f
 14496 624e 183E0000 		.4byte	.LASF793
 14497 6252 0B       		.byte	0xb
 14498 6253 2B       		.byte	0x2b
 14499 6254 774D0000 		.4byte	0x4d77
 14500 6258 00       		.byte	0
 14501 6259 53       		.uleb128 0x53
 14502 625a 36620000 		.4byte	0x6236
 14503 625e 92540000 		.4byte	.LASF795
 14504 6262 00000000 		.4byte	.LFB692
 14505 6266 14000000 		.4byte	.LFE692-.LFB692
 14506 626a 01       		.uleb128 0x1
 14507 626b 9C       		.byte	0x9c
 14508 626c 74620000 		.4byte	0x6274
 14509 6270 85620000 		.4byte	0x6285
 14510 6274 54       		.uleb128 0x54
 14511 6275 44620000 		.4byte	0x6244
 14512 6279 02       		.uleb128 0x2
 14513 627a 91       		.byte	0x91
 14514 627b 7C       		.sleb128 -4
 14515 627c 54       		.uleb128 0x54
 14516 627d 4D620000 		.4byte	0x624d
 14517 6281 02       		.uleb128 0x2
 14518 6282 91       		.byte	0x91
 14519 6283 78       		.sleb128 -8
 14520 6284 00       		.byte	0
 14521 6285 6A       		.uleb128 0x6a
 14522 6286 EA0D0000 		.4byte	0xdea
 14523 628a 00000000 		.4byte	.LFB695
 14524 628e 20000000 		.4byte	.LFE695-.LFB695
 14525 6292 01       		.uleb128 0x1
 14526 6293 9C       		.byte	0x9c
 14527 6294 9C620000 		.4byte	0x629c
 14528 6298 C2620000 		.4byte	0x62c2
 14529 629c 5B       		.uleb128 0x5b
 14530 629d 9C290000 		.4byte	.LASF771
 14531 62a1 605C0000 		.4byte	0x5c60
 14532 62a5 02       		.uleb128 0x2
 14533 62a6 91       		.byte	0x91
 14534 62a7 6C       		.sleb128 -20
 14535 62a8 56       		.uleb128 0x56
ARM GAS  /tmp/cc9AvIGf.s 			page 257


 14536 62a9 06000000 		.4byte	.LBB51
 14537 62ad 12000000 		.4byte	.LBE51-.LBB51
 14538 62b1 6C       		.uleb128 0x6c
 14539 62b2 34130000 		.4byte	.LASF88
 14540 62b6 0B       		.byte	0xb
 14541 62b7 5602     		.2byte	0x256
 14542 62b9 064D0000 		.4byte	0x4d06
 14543 62bd 02       		.uleb128 0x2
 14544 62be 91       		.byte	0x91
 14545 62bf 74       		.sleb128 -12
 14546 62c0 00       		.byte	0
 14547 62c1 00       		.byte	0
 14548 62c2 51       		.uleb128 0x51
 14549 62c3 23090000 		.4byte	0x923
 14550 62c7 02       		.byte	0x2
 14551 62c8 D0620000 		.4byte	0x62d0
 14552 62cc E5620000 		.4byte	0x62e5
 14553 62d0 52       		.uleb128 0x52
 14554 62d1 9C290000 		.4byte	.LASF771
 14555 62d5 235F0000 		.4byte	0x5f23
 14556 62d9 5F       		.uleb128 0x5f
 14557 62da 183E0000 		.4byte	.LASF793
 14558 62de 0B       		.byte	0xb
 14559 62df 93       		.byte	0x93
 14560 62e0 064D0000 		.4byte	0x4d06
 14561 62e4 00       		.byte	0
 14562 62e5 53       		.uleb128 0x53
 14563 62e6 C2620000 		.4byte	0x62c2
 14564 62ea 39540000 		.4byte	.LASF796
 14565 62ee 00000000 		.4byte	.LFB697
 14566 62f2 14000000 		.4byte	.LFE697-.LFB697
 14567 62f6 01       		.uleb128 0x1
 14568 62f7 9C       		.byte	0x9c
 14569 62f8 00630000 		.4byte	0x6300
 14570 62fc 11630000 		.4byte	0x6311
 14571 6300 54       		.uleb128 0x54
 14572 6301 D0620000 		.4byte	0x62d0
 14573 6305 02       		.uleb128 0x2
 14574 6306 91       		.byte	0x91
 14575 6307 7C       		.sleb128 -4
 14576 6308 54       		.uleb128 0x54
 14577 6309 D9620000 		.4byte	0x62d9
 14578 630d 02       		.uleb128 0x2
 14579 630e 91       		.byte	0x91
 14580 630f 78       		.sleb128 -8
 14581 6310 00       		.byte	0
 14582 6311 6A       		.uleb128 0x6a
 14583 6312 A1150000 		.4byte	0x15a1
 14584 6316 00000000 		.4byte	.LFB699
 14585 631a 20000000 		.4byte	.LFE699-.LFB699
 14586 631e 01       		.uleb128 0x1
 14587 631f 9C       		.byte	0x9c
 14588 6320 28630000 		.4byte	0x6328
 14589 6324 4E630000 		.4byte	0x634e
 14590 6328 5B       		.uleb128 0x5b
 14591 6329 9C290000 		.4byte	.LASF771
 14592 632d 895C0000 		.4byte	0x5c89
ARM GAS  /tmp/cc9AvIGf.s 			page 258


 14593 6331 02       		.uleb128 0x2
 14594 6332 91       		.byte	0x91
 14595 6333 6C       		.sleb128 -20
 14596 6334 56       		.uleb128 0x56
 14597 6335 06000000 		.4byte	.LBB53
 14598 6339 12000000 		.4byte	.LBE53-.LBB53
 14599 633d 6C       		.uleb128 0x6c
 14600 633e 34130000 		.4byte	.LASF88
 14601 6342 0B       		.byte	0xb
 14602 6343 5602     		.2byte	0x256
 14603 6345 774D0000 		.4byte	0x4d77
 14604 6349 02       		.uleb128 0x2
 14605 634a 91       		.byte	0x91
 14606 634b 74       		.sleb128 -12
 14607 634c 00       		.byte	0
 14608 634d 00       		.byte	0
 14609 634e 51       		.uleb128 0x51
 14610 634f 45120000 		.4byte	0x1245
 14611 6353 02       		.byte	0x2
 14612 6354 5C630000 		.4byte	0x635c
 14613 6358 71630000 		.4byte	0x6371
 14614 635c 52       		.uleb128 0x52
 14615 635d 9C290000 		.4byte	.LASF771
 14616 6361 F45F0000 		.4byte	0x5ff4
 14617 6365 5F       		.uleb128 0x5f
 14618 6366 183E0000 		.4byte	.LASF793
 14619 636a 0B       		.byte	0xb
 14620 636b 93       		.byte	0x93
 14621 636c 774D0000 		.4byte	0x4d77
 14622 6370 00       		.byte	0
 14623 6371 53       		.uleb128 0x53
 14624 6372 4E630000 		.4byte	0x634e
 14625 6376 743B0000 		.4byte	.LASF797
 14626 637a 00000000 		.4byte	.LFB701
 14627 637e 14000000 		.4byte	.LFE701-.LFB701
 14628 6382 01       		.uleb128 0x1
 14629 6383 9C       		.byte	0x9c
 14630 6384 8C630000 		.4byte	0x638c
 14631 6388 9D630000 		.4byte	0x639d
 14632 638c 54       		.uleb128 0x54
 14633 638d 5C630000 		.4byte	0x635c
 14634 6391 02       		.uleb128 0x2
 14635 6392 91       		.byte	0x91
 14636 6393 7C       		.sleb128 -4
 14637 6394 54       		.uleb128 0x54
 14638 6395 65630000 		.4byte	0x6365
 14639 6399 02       		.uleb128 0x2
 14640 639a 91       		.byte	0x91
 14641 639b 78       		.sleb128 -8
 14642 639c 00       		.byte	0
 14643 639d 63       		.uleb128 0x63
 14644 639e 6B0C0000 		.4byte	0xc6b
 14645 63a2 00000000 		.4byte	.LFB703
 14646 63a6 54000000 		.4byte	.LFE703-.LFB703
 14647 63aa 01       		.uleb128 0x1
 14648 63ab 9C       		.byte	0x9c
 14649 63ac B4630000 		.4byte	0x63b4
ARM GAS  /tmp/cc9AvIGf.s 			page 259


 14650 63b0 F8630000 		.4byte	0x63f8
 14651 63b4 5B       		.uleb128 0x5b
 14652 63b5 9C290000 		.4byte	.LASF771
 14653 63b9 B25C0000 		.4byte	0x5cb2
 14654 63bd 02       		.uleb128 0x2
 14655 63be 91       		.byte	0x91
 14656 63bf 74       		.sleb128 -12
 14657 63c0 6B       		.uleb128 0x6b
 14658 63c1 0C1F0000 		.4byte	.LASF159
 14659 63c5 0B       		.byte	0xb
 14660 63c6 0E02     		.2byte	0x20e
 14661 63c8 F8630000 		.4byte	0x63f8
 14662 63cc 02       		.uleb128 0x2
 14663 63cd 91       		.byte	0x91
 14664 63ce 70       		.sleb128 -16
 14665 63cf 56       		.uleb128 0x56
 14666 63d0 06000000 		.4byte	.LBB56
 14667 63d4 46000000 		.4byte	.LBE56-.LBB56
 14668 63d8 6C       		.uleb128 0x6c
 14669 63d9 A9140000 		.4byte	.LASF90
 14670 63dd 0B       		.byte	0xb
 14671 63de 1002     		.2byte	0x210
 14672 63e0 CB4C0000 		.4byte	0x4ccb
 14673 63e4 02       		.uleb128 0x2
 14674 63e5 91       		.byte	0x91
 14675 63e6 7C       		.sleb128 -4
 14676 63e7 6C       		.uleb128 0x6c
 14677 63e8 2B400000 		.4byte	.LASF798
 14678 63ec 0B       		.byte	0xb
 14679 63ed 1002     		.2byte	0x210
 14680 63ef CB4C0000 		.4byte	0x4ccb
 14681 63f3 02       		.uleb128 0x2
 14682 63f4 91       		.byte	0x91
 14683 63f5 78       		.sleb128 -8
 14684 63f6 00       		.byte	0
 14685 63f7 00       		.byte	0
 14686 63f8 07       		.uleb128 0x7
 14687 63f9 184D0000 		.4byte	0x4d18
 14688 63fd 63       		.uleb128 0x63
 14689 63fe 22140000 		.4byte	0x1422
 14690 6402 00000000 		.4byte	.LFB704
 14691 6406 54000000 		.4byte	.LFE704-.LFB704
 14692 640a 01       		.uleb128 0x1
 14693 640b 9C       		.byte	0x9c
 14694 640c 14640000 		.4byte	0x6414
 14695 6410 58640000 		.4byte	0x6458
 14696 6414 5B       		.uleb128 0x5b
 14697 6415 9C290000 		.4byte	.LASF771
 14698 6419 885D0000 		.4byte	0x5d88
 14699 641d 02       		.uleb128 0x2
 14700 641e 91       		.byte	0x91
 14701 641f 74       		.sleb128 -12
 14702 6420 6B       		.uleb128 0x6b
 14703 6421 0C1F0000 		.4byte	.LASF159
 14704 6425 0B       		.byte	0xb
 14705 6426 0E02     		.2byte	0x20e
 14706 6428 58640000 		.4byte	0x6458
ARM GAS  /tmp/cc9AvIGf.s 			page 260


 14707 642c 02       		.uleb128 0x2
 14708 642d 91       		.byte	0x91
 14709 642e 70       		.sleb128 -16
 14710 642f 56       		.uleb128 0x56
 14711 6430 06000000 		.4byte	.LBB58
 14712 6434 46000000 		.4byte	.LBE58-.LBB58
 14713 6438 6C       		.uleb128 0x6c
 14714 6439 A9140000 		.4byte	.LASF90
 14715 643d 0B       		.byte	0xb
 14716 643e 1002     		.2byte	0x210
 14717 6440 3C4D0000 		.4byte	0x4d3c
 14718 6444 02       		.uleb128 0x2
 14719 6445 91       		.byte	0x91
 14720 6446 7C       		.sleb128 -4
 14721 6447 6C       		.uleb128 0x6c
 14722 6448 2B400000 		.4byte	.LASF798
 14723 644c 0B       		.byte	0xb
 14724 644d 1002     		.2byte	0x210
 14725 644f 3C4D0000 		.4byte	0x4d3c
 14726 6453 02       		.uleb128 0x2
 14727 6454 91       		.byte	0x91
 14728 6455 78       		.sleb128 -8
 14729 6456 00       		.byte	0
 14730 6457 00       		.byte	0
 14731 6458 07       		.uleb128 0x7
 14732 6459 894D0000 		.4byte	0x4d89
 14733 645d 6D       		.uleb128 0x6d
 14734 645e 65100000 		.4byte	.LASF799
 14735 6462 1F       		.byte	0x1f
 14736 6463 6F       		.byte	0x6f
 14737 6464 7C4B0000 		.4byte	0x4b7c
 14738 6468 6E       		.uleb128 0x6e
 14739 6469 17530000 		.4byte	.LASF800
 14740 646d 24       		.byte	0x24
 14741 646e 9806     		.2byte	0x698
 14742 6470 94500000 		.4byte	0x5094
 14743 6474 00       		.byte	0
 14744              		.section	.debug_abbrev,"",%progbits
 14745              	.Ldebug_abbrev0:
 14746 0000 01       		.uleb128 0x1
 14747 0001 11       		.uleb128 0x11
 14748 0002 01       		.byte	0x1
 14749 0003 25       		.uleb128 0x25
 14750 0004 0E       		.uleb128 0xe
 14751 0005 13       		.uleb128 0x13
 14752 0006 0B       		.uleb128 0xb
 14753 0007 03       		.uleb128 0x3
 14754 0008 0E       		.uleb128 0xe
 14755 0009 1B       		.uleb128 0x1b
 14756 000a 0E       		.uleb128 0xe
 14757 000b 55       		.uleb128 0x55
 14758 000c 17       		.uleb128 0x17
 14759 000d 11       		.uleb128 0x11
 14760 000e 01       		.uleb128 0x1
 14761 000f 10       		.uleb128 0x10
 14762 0010 17       		.uleb128 0x17
 14763 0011 00       		.byte	0
ARM GAS  /tmp/cc9AvIGf.s 			page 261


 14764 0012 00       		.byte	0
 14765 0013 02       		.uleb128 0x2
 14766 0014 24       		.uleb128 0x24
 14767 0015 00       		.byte	0
 14768 0016 0B       		.uleb128 0xb
 14769 0017 0B       		.uleb128 0xb
 14770 0018 3E       		.uleb128 0x3e
 14771 0019 0B       		.uleb128 0xb
 14772 001a 03       		.uleb128 0x3
 14773 001b 08       		.uleb128 0x8
 14774 001c 00       		.byte	0
 14775 001d 00       		.byte	0
 14776 001e 03       		.uleb128 0x3
 14777 001f 16       		.uleb128 0x16
 14778 0020 00       		.byte	0
 14779 0021 03       		.uleb128 0x3
 14780 0022 0E       		.uleb128 0xe
 14781 0023 3A       		.uleb128 0x3a
 14782 0024 0B       		.uleb128 0xb
 14783 0025 3B       		.uleb128 0x3b
 14784 0026 0B       		.uleb128 0xb
 14785 0027 49       		.uleb128 0x49
 14786 0028 13       		.uleb128 0x13
 14787 0029 00       		.byte	0
 14788 002a 00       		.byte	0
 14789 002b 04       		.uleb128 0x4
 14790 002c 24       		.uleb128 0x24
 14791 002d 00       		.byte	0
 14792 002e 0B       		.uleb128 0xb
 14793 002f 0B       		.uleb128 0xb
 14794 0030 3E       		.uleb128 0x3e
 14795 0031 0B       		.uleb128 0xb
 14796 0032 03       		.uleb128 0x3
 14797 0033 0E       		.uleb128 0xe
 14798 0034 00       		.byte	0
 14799 0035 00       		.byte	0
 14800 0036 05       		.uleb128 0x5
 14801 0037 0F       		.uleb128 0xf
 14802 0038 00       		.byte	0
 14803 0039 0B       		.uleb128 0xb
 14804 003a 0B       		.uleb128 0xb
 14805 003b 00       		.byte	0
 14806 003c 00       		.byte	0
 14807 003d 06       		.uleb128 0x6
 14808 003e 0F       		.uleb128 0xf
 14809 003f 00       		.byte	0
 14810 0040 0B       		.uleb128 0xb
 14811 0041 0B       		.uleb128 0xb
 14812 0042 49       		.uleb128 0x49
 14813 0043 13       		.uleb128 0x13
 14814 0044 00       		.byte	0
 14815 0045 00       		.byte	0
 14816 0046 07       		.uleb128 0x7
 14817 0047 26       		.uleb128 0x26
 14818 0048 00       		.byte	0
 14819 0049 49       		.uleb128 0x49
 14820 004a 13       		.uleb128 0x13
ARM GAS  /tmp/cc9AvIGf.s 			page 262


 14821 004b 00       		.byte	0
 14822 004c 00       		.byte	0
 14823 004d 08       		.uleb128 0x8
 14824 004e 01       		.uleb128 0x1
 14825 004f 01       		.byte	0x1
 14826 0050 49       		.uleb128 0x49
 14827 0051 13       		.uleb128 0x13
 14828 0052 01       		.uleb128 0x1
 14829 0053 13       		.uleb128 0x13
 14830 0054 00       		.byte	0
 14831 0055 00       		.byte	0
 14832 0056 09       		.uleb128 0x9
 14833 0057 21       		.uleb128 0x21
 14834 0058 00       		.byte	0
 14835 0059 49       		.uleb128 0x49
 14836 005a 13       		.uleb128 0x13
 14837 005b 2F       		.uleb128 0x2f
 14838 005c 0B       		.uleb128 0xb
 14839 005d 00       		.byte	0
 14840 005e 00       		.byte	0
 14841 005f 0A       		.uleb128 0xa
 14842 0060 39       		.uleb128 0x39
 14843 0061 01       		.byte	0x1
 14844 0062 03       		.uleb128 0x3
 14845 0063 08       		.uleb128 0x8
 14846 0064 3A       		.uleb128 0x3a
 14847 0065 0B       		.uleb128 0xb
 14848 0066 3B       		.uleb128 0x3b
 14849 0067 0B       		.uleb128 0xb
 14850 0068 01       		.uleb128 0x1
 14851 0069 13       		.uleb128 0x13
 14852 006a 00       		.byte	0
 14853 006b 00       		.byte	0
 14854 006c 0B       		.uleb128 0xb
 14855 006d 08       		.uleb128 0x8
 14856 006e 00       		.byte	0
 14857 006f 3A       		.uleb128 0x3a
 14858 0070 0B       		.uleb128 0xb
 14859 0071 3B       		.uleb128 0x3b
 14860 0072 0B       		.uleb128 0xb
 14861 0073 18       		.uleb128 0x18
 14862 0074 13       		.uleb128 0x13
 14863 0075 00       		.byte	0
 14864 0076 00       		.byte	0
 14865 0077 0C       		.uleb128 0xc
 14866 0078 2E       		.uleb128 0x2e
 14867 0079 01       		.byte	0x1
 14868 007a 3F       		.uleb128 0x3f
 14869 007b 19       		.uleb128 0x19
 14870 007c 03       		.uleb128 0x3
 14871 007d 0E       		.uleb128 0xe
 14872 007e 3A       		.uleb128 0x3a
 14873 007f 0B       		.uleb128 0xb
 14874 0080 3B       		.uleb128 0x3b
 14875 0081 0B       		.uleb128 0xb
 14876 0082 49       		.uleb128 0x49
 14877 0083 13       		.uleb128 0x13
ARM GAS  /tmp/cc9AvIGf.s 			page 263


 14878 0084 3C       		.uleb128 0x3c
 14879 0085 19       		.uleb128 0x19
 14880 0086 01       		.uleb128 0x1
 14881 0087 13       		.uleb128 0x13
 14882 0088 00       		.byte	0
 14883 0089 00       		.byte	0
 14884 008a 0D       		.uleb128 0xd
 14885 008b 05       		.uleb128 0x5
 14886 008c 00       		.byte	0
 14887 008d 49       		.uleb128 0x49
 14888 008e 13       		.uleb128 0x13
 14889 008f 00       		.byte	0
 14890 0090 00       		.byte	0
 14891 0091 0E       		.uleb128 0xe
 14892 0092 02       		.uleb128 0x2
 14893 0093 01       		.byte	0x1
 14894 0094 03       		.uleb128 0x3
 14895 0095 0E       		.uleb128 0xe
 14896 0096 0B       		.uleb128 0xb
 14897 0097 0B       		.uleb128 0xb
 14898 0098 3A       		.uleb128 0x3a
 14899 0099 0B       		.uleb128 0xb
 14900 009a 3B       		.uleb128 0x3b
 14901 009b 0B       		.uleb128 0xb
 14902 009c 01       		.uleb128 0x1
 14903 009d 13       		.uleb128 0x13
 14904 009e 00       		.byte	0
 14905 009f 00       		.byte	0
 14906 00a0 0F       		.uleb128 0xf
 14907 00a1 2E       		.uleb128 0x2e
 14908 00a2 01       		.byte	0x1
 14909 00a3 3F       		.uleb128 0x3f
 14910 00a4 19       		.uleb128 0x19
 14911 00a5 03       		.uleb128 0x3
 14912 00a6 0E       		.uleb128 0xe
 14913 00a7 3A       		.uleb128 0x3a
 14914 00a8 0B       		.uleb128 0xb
 14915 00a9 3B       		.uleb128 0x3b
 14916 00aa 0B       		.uleb128 0xb
 14917 00ab 49       		.uleb128 0x49
 14918 00ac 13       		.uleb128 0x13
 14919 00ad 3C       		.uleb128 0x3c
 14920 00ae 19       		.uleb128 0x19
 14921 00af 64       		.uleb128 0x64
 14922 00b0 13       		.uleb128 0x13
 14923 00b1 01       		.uleb128 0x1
 14924 00b2 13       		.uleb128 0x13
 14925 00b3 00       		.byte	0
 14926 00b4 00       		.byte	0
 14927 00b5 10       		.uleb128 0x10
 14928 00b6 05       		.uleb128 0x5
 14929 00b7 00       		.byte	0
 14930 00b8 49       		.uleb128 0x49
 14931 00b9 13       		.uleb128 0x13
 14932 00ba 34       		.uleb128 0x34
 14933 00bb 19       		.uleb128 0x19
 14934 00bc 00       		.byte	0
ARM GAS  /tmp/cc9AvIGf.s 			page 264


 14935 00bd 00       		.byte	0
 14936 00be 11       		.uleb128 0x11
 14937 00bf 2E       		.uleb128 0x2e
 14938 00c0 01       		.byte	0x1
 14939 00c1 3F       		.uleb128 0x3f
 14940 00c2 19       		.uleb128 0x19
 14941 00c3 03       		.uleb128 0x3
 14942 00c4 0E       		.uleb128 0xe
 14943 00c5 3A       		.uleb128 0x3a
 14944 00c6 0B       		.uleb128 0xb
 14945 00c7 3B       		.uleb128 0x3b
 14946 00c8 0B       		.uleb128 0xb
 14947 00c9 49       		.uleb128 0x49
 14948 00ca 13       		.uleb128 0x13
 14949 00cb 32       		.uleb128 0x32
 14950 00cc 0B       		.uleb128 0xb
 14951 00cd 3C       		.uleb128 0x3c
 14952 00ce 19       		.uleb128 0x19
 14953 00cf 64       		.uleb128 0x64
 14954 00d0 13       		.uleb128 0x13
 14955 00d1 01       		.uleb128 0x1
 14956 00d2 13       		.uleb128 0x13
 14957 00d3 00       		.byte	0
 14958 00d4 00       		.byte	0
 14959 00d5 12       		.uleb128 0x12
 14960 00d6 2E       		.uleb128 0x2e
 14961 00d7 01       		.byte	0x1
 14962 00d8 3F       		.uleb128 0x3f
 14963 00d9 19       		.uleb128 0x19
 14964 00da 03       		.uleb128 0x3
 14965 00db 0E       		.uleb128 0xe
 14966 00dc 3A       		.uleb128 0x3a
 14967 00dd 0B       		.uleb128 0xb
 14968 00de 3B       		.uleb128 0x3b
 14969 00df 0B       		.uleb128 0xb
 14970 00e0 49       		.uleb128 0x49
 14971 00e1 13       		.uleb128 0x13
 14972 00e2 32       		.uleb128 0x32
 14973 00e3 0B       		.uleb128 0xb
 14974 00e4 3C       		.uleb128 0x3c
 14975 00e5 19       		.uleb128 0x19
 14976 00e6 64       		.uleb128 0x64
 14977 00e7 13       		.uleb128 0x13
 14978 00e8 00       		.byte	0
 14979 00e9 00       		.byte	0
 14980 00ea 13       		.uleb128 0x13
 14981 00eb 1C       		.uleb128 0x1c
 14982 00ec 00       		.byte	0
 14983 00ed 49       		.uleb128 0x49
 14984 00ee 13       		.uleb128 0x13
 14985 00ef 38       		.uleb128 0x38
 14986 00f0 0B       		.uleb128 0xb
 14987 00f1 00       		.byte	0
 14988 00f2 00       		.byte	0
 14989 00f3 14       		.uleb128 0x14
 14990 00f4 2E       		.uleb128 0x2e
 14991 00f5 00       		.byte	0
ARM GAS  /tmp/cc9AvIGf.s 			page 265


 14992 00f6 3F       		.uleb128 0x3f
 14993 00f7 19       		.uleb128 0x19
 14994 00f8 03       		.uleb128 0x3
 14995 00f9 0E       		.uleb128 0xe
 14996 00fa 3A       		.uleb128 0x3a
 14997 00fb 0B       		.uleb128 0xb
 14998 00fc 3B       		.uleb128 0x3b
 14999 00fd 0B       		.uleb128 0xb
 15000 00fe 6E       		.uleb128 0x6e
 15001 00ff 0E       		.uleb128 0xe
 15002 0100 32       		.uleb128 0x32
 15003 0101 0B       		.uleb128 0xb
 15004 0102 3C       		.uleb128 0x3c
 15005 0103 19       		.uleb128 0x19
 15006 0104 00       		.byte	0
 15007 0105 00       		.byte	0
 15008 0106 15       		.uleb128 0x15
 15009 0107 02       		.uleb128 0x2
 15010 0108 01       		.byte	0x1
 15011 0109 03       		.uleb128 0x3
 15012 010a 0E       		.uleb128 0xe
 15013 010b 0B       		.uleb128 0xb
 15014 010c 0B       		.uleb128 0xb
 15015 010d 3A       		.uleb128 0x3a
 15016 010e 0B       		.uleb128 0xb
 15017 010f 3B       		.uleb128 0x3b
 15018 0110 0B       		.uleb128 0xb
 15019 0111 32       		.uleb128 0x32
 15020 0112 0B       		.uleb128 0xb
 15021 0113 01       		.uleb128 0x1
 15022 0114 13       		.uleb128 0x13
 15023 0115 00       		.byte	0
 15024 0116 00       		.byte	0
 15025 0117 16       		.uleb128 0x16
 15026 0118 0D       		.uleb128 0xd
 15027 0119 00       		.byte	0
 15028 011a 03       		.uleb128 0x3
 15029 011b 0E       		.uleb128 0xe
 15030 011c 3A       		.uleb128 0x3a
 15031 011d 0B       		.uleb128 0xb
 15032 011e 3B       		.uleb128 0x3b
 15033 011f 0B       		.uleb128 0xb
 15034 0120 49       		.uleb128 0x49
 15035 0121 13       		.uleb128 0x13
 15036 0122 38       		.uleb128 0x38
 15037 0123 0B       		.uleb128 0xb
 15038 0124 00       		.byte	0
 15039 0125 00       		.byte	0
 15040 0126 17       		.uleb128 0x17
 15041 0127 16       		.uleb128 0x16
 15042 0128 00       		.byte	0
 15043 0129 03       		.uleb128 0x3
 15044 012a 0E       		.uleb128 0xe
 15045 012b 3A       		.uleb128 0x3a
 15046 012c 0B       		.uleb128 0xb
 15047 012d 3B       		.uleb128 0x3b
 15048 012e 0B       		.uleb128 0xb
ARM GAS  /tmp/cc9AvIGf.s 			page 266


 15049 012f 49       		.uleb128 0x49
 15050 0130 13       		.uleb128 0x13
 15051 0131 32       		.uleb128 0x32
 15052 0132 0B       		.uleb128 0xb
 15053 0133 00       		.byte	0
 15054 0134 00       		.byte	0
 15055 0135 18       		.uleb128 0x18
 15056 0136 2E       		.uleb128 0x2e
 15057 0137 01       		.byte	0x1
 15058 0138 3F       		.uleb128 0x3f
 15059 0139 19       		.uleb128 0x19
 15060 013a 03       		.uleb128 0x3
 15061 013b 0E       		.uleb128 0xe
 15062 013c 3A       		.uleb128 0x3a
 15063 013d 0B       		.uleb128 0xb
 15064 013e 3B       		.uleb128 0x3b
 15065 013f 0B       		.uleb128 0xb
 15066 0140 6E       		.uleb128 0x6e
 15067 0141 0E       		.uleb128 0xe
 15068 0142 49       		.uleb128 0x49
 15069 0143 13       		.uleb128 0x13
 15070 0144 32       		.uleb128 0x32
 15071 0145 0B       		.uleb128 0xb
 15072 0146 3C       		.uleb128 0x3c
 15073 0147 19       		.uleb128 0x19
 15074 0148 64       		.uleb128 0x64
 15075 0149 13       		.uleb128 0x13
 15076 014a 01       		.uleb128 0x1
 15077 014b 13       		.uleb128 0x13
 15078 014c 00       		.byte	0
 15079 014d 00       		.byte	0
 15080 014e 19       		.uleb128 0x19
 15081 014f 2E       		.uleb128 0x2e
 15082 0150 01       		.byte	0x1
 15083 0151 3F       		.uleb128 0x3f
 15084 0152 19       		.uleb128 0x19
 15085 0153 03       		.uleb128 0x3
 15086 0154 0E       		.uleb128 0xe
 15087 0155 3A       		.uleb128 0x3a
 15088 0156 0B       		.uleb128 0xb
 15089 0157 3B       		.uleb128 0x3b
 15090 0158 0B       		.uleb128 0xb
 15091 0159 6E       		.uleb128 0x6e
 15092 015a 0E       		.uleb128 0xe
 15093 015b 32       		.uleb128 0x32
 15094 015c 0B       		.uleb128 0xb
 15095 015d 3C       		.uleb128 0x3c
 15096 015e 19       		.uleb128 0x19
 15097 015f 64       		.uleb128 0x64
 15098 0160 13       		.uleb128 0x13
 15099 0161 01       		.uleb128 0x1
 15100 0162 13       		.uleb128 0x13
 15101 0163 00       		.byte	0
 15102 0164 00       		.byte	0
 15103 0165 1A       		.uleb128 0x1a
 15104 0166 0D       		.uleb128 0xd
 15105 0167 00       		.byte	0
ARM GAS  /tmp/cc9AvIGf.s 			page 267


 15106 0168 03       		.uleb128 0x3
 15107 0169 08       		.uleb128 0x8
 15108 016a 3A       		.uleb128 0x3a
 15109 016b 0B       		.uleb128 0xb
 15110 016c 3B       		.uleb128 0x3b
 15111 016d 0B       		.uleb128 0xb
 15112 016e 49       		.uleb128 0x49
 15113 016f 13       		.uleb128 0x13
 15114 0170 38       		.uleb128 0x38
 15115 0171 0B       		.uleb128 0xb
 15116 0172 32       		.uleb128 0x32
 15117 0173 0B       		.uleb128 0xb
 15118 0174 00       		.byte	0
 15119 0175 00       		.byte	0
 15120 0176 1B       		.uleb128 0x1b
 15121 0177 0D       		.uleb128 0xd
 15122 0178 00       		.byte	0
 15123 0179 03       		.uleb128 0x3
 15124 017a 0E       		.uleb128 0xe
 15125 017b 3A       		.uleb128 0x3a
 15126 017c 0B       		.uleb128 0xb
 15127 017d 3B       		.uleb128 0x3b
 15128 017e 0B       		.uleb128 0xb
 15129 017f 49       		.uleb128 0x49
 15130 0180 13       		.uleb128 0x13
 15131 0181 3F       		.uleb128 0x3f
 15132 0182 19       		.uleb128 0x19
 15133 0183 32       		.uleb128 0x32
 15134 0184 0B       		.uleb128 0xb
 15135 0185 3C       		.uleb128 0x3c
 15136 0186 19       		.uleb128 0x19
 15137 0187 00       		.byte	0
 15138 0188 00       		.byte	0
 15139 0189 1C       		.uleb128 0x1c
 15140 018a 2E       		.uleb128 0x2e
 15141 018b 01       		.byte	0x1
 15142 018c 3F       		.uleb128 0x3f
 15143 018d 19       		.uleb128 0x19
 15144 018e 03       		.uleb128 0x3
 15145 018f 0E       		.uleb128 0xe
 15146 0190 3A       		.uleb128 0x3a
 15147 0191 0B       		.uleb128 0xb
 15148 0192 3B       		.uleb128 0x3b
 15149 0193 0B       		.uleb128 0xb
 15150 0194 49       		.uleb128 0x49
 15151 0195 13       		.uleb128 0x13
 15152 0196 32       		.uleb128 0x32
 15153 0197 0B       		.uleb128 0xb
 15154 0198 3C       		.uleb128 0x3c
 15155 0199 19       		.uleb128 0x19
 15156 019a 63       		.uleb128 0x63
 15157 019b 19       		.uleb128 0x19
 15158 019c 64       		.uleb128 0x64
 15159 019d 13       		.uleb128 0x13
 15160 019e 01       		.uleb128 0x1
 15161 019f 13       		.uleb128 0x13
 15162 01a0 00       		.byte	0
ARM GAS  /tmp/cc9AvIGf.s 			page 268


 15163 01a1 00       		.byte	0
 15164 01a2 1D       		.uleb128 0x1d
 15165 01a3 2E       		.uleb128 0x2e
 15166 01a4 01       		.byte	0x1
 15167 01a5 3F       		.uleb128 0x3f
 15168 01a6 19       		.uleb128 0x19
 15169 01a7 03       		.uleb128 0x3
 15170 01a8 08       		.uleb128 0x8
 15171 01a9 3A       		.uleb128 0x3a
 15172 01aa 0B       		.uleb128 0xb
 15173 01ab 3B       		.uleb128 0x3b
 15174 01ac 0B       		.uleb128 0xb
 15175 01ad 6E       		.uleb128 0x6e
 15176 01ae 0E       		.uleb128 0xe
 15177 01af 49       		.uleb128 0x49
 15178 01b0 13       		.uleb128 0x13
 15179 01b1 32       		.uleb128 0x32
 15180 01b2 0B       		.uleb128 0xb
 15181 01b3 3C       		.uleb128 0x3c
 15182 01b4 19       		.uleb128 0x19
 15183 01b5 01       		.uleb128 0x1
 15184 01b6 13       		.uleb128 0x13
 15185 01b7 00       		.byte	0
 15186 01b8 00       		.byte	0
 15187 01b9 1E       		.uleb128 0x1e
 15188 01ba 2E       		.uleb128 0x2e
 15189 01bb 00       		.byte	0
 15190 01bc 3F       		.uleb128 0x3f
 15191 01bd 19       		.uleb128 0x19
 15192 01be 03       		.uleb128 0x3
 15193 01bf 08       		.uleb128 0x8
 15194 01c0 3A       		.uleb128 0x3a
 15195 01c1 0B       		.uleb128 0xb
 15196 01c2 3B       		.uleb128 0x3b
 15197 01c3 0B       		.uleb128 0xb
 15198 01c4 6E       		.uleb128 0x6e
 15199 01c5 0E       		.uleb128 0xe
 15200 01c6 49       		.uleb128 0x49
 15201 01c7 13       		.uleb128 0x13
 15202 01c8 32       		.uleb128 0x32
 15203 01c9 0B       		.uleb128 0xb
 15204 01ca 3C       		.uleb128 0x3c
 15205 01cb 19       		.uleb128 0x19
 15206 01cc 00       		.byte	0
 15207 01cd 00       		.byte	0
 15208 01ce 1F       		.uleb128 0x1f
 15209 01cf 13       		.uleb128 0x13
 15210 01d0 01       		.byte	0x1
 15211 01d1 03       		.uleb128 0x3
 15212 01d2 0E       		.uleb128 0xe
 15213 01d3 0B       		.uleb128 0xb
 15214 01d4 0B       		.uleb128 0xb
 15215 01d5 3A       		.uleb128 0x3a
 15216 01d6 0B       		.uleb128 0xb
 15217 01d7 3B       		.uleb128 0x3b
 15218 01d8 0B       		.uleb128 0xb
 15219 01d9 32       		.uleb128 0x32
ARM GAS  /tmp/cc9AvIGf.s 			page 269


 15220 01da 0B       		.uleb128 0xb
 15221 01db 01       		.uleb128 0x1
 15222 01dc 13       		.uleb128 0x13
 15223 01dd 00       		.byte	0
 15224 01de 00       		.byte	0
 15225 01df 20       		.uleb128 0x20
 15226 01e0 2E       		.uleb128 0x2e
 15227 01e1 01       		.byte	0x1
 15228 01e2 3F       		.uleb128 0x3f
 15229 01e3 19       		.uleb128 0x19
 15230 01e4 03       		.uleb128 0x3
 15231 01e5 0E       		.uleb128 0xe
 15232 01e6 3A       		.uleb128 0x3a
 15233 01e7 0B       		.uleb128 0xb
 15234 01e8 3B       		.uleb128 0x3b
 15235 01e9 0B       		.uleb128 0xb
 15236 01ea 49       		.uleb128 0x49
 15237 01eb 13       		.uleb128 0x13
 15238 01ec 3C       		.uleb128 0x3c
 15239 01ed 19       		.uleb128 0x19
 15240 01ee 64       		.uleb128 0x64
 15241 01ef 13       		.uleb128 0x13
 15242 01f0 00       		.byte	0
 15243 01f1 00       		.byte	0
 15244 01f2 21       		.uleb128 0x21
 15245 01f3 0D       		.uleb128 0xd
 15246 01f4 00       		.byte	0
 15247 01f5 03       		.uleb128 0x3
 15248 01f6 0E       		.uleb128 0xe
 15249 01f7 3A       		.uleb128 0x3a
 15250 01f8 0B       		.uleb128 0xb
 15251 01f9 3B       		.uleb128 0x3b
 15252 01fa 05       		.uleb128 0x5
 15253 01fb 49       		.uleb128 0x49
 15254 01fc 13       		.uleb128 0x13
 15255 01fd 38       		.uleb128 0x38
 15256 01fe 0B       		.uleb128 0xb
 15257 01ff 00       		.byte	0
 15258 0200 00       		.byte	0
 15259 0201 22       		.uleb128 0x22
 15260 0202 13       		.uleb128 0x13
 15261 0203 00       		.byte	0
 15262 0204 03       		.uleb128 0x3
 15263 0205 0E       		.uleb128 0xe
 15264 0206 3C       		.uleb128 0x3c
 15265 0207 19       		.uleb128 0x19
 15266 0208 00       		.byte	0
 15267 0209 00       		.byte	0
 15268 020a 23       		.uleb128 0x23
 15269 020b 2E       		.uleb128 0x2e
 15270 020c 01       		.byte	0x1
 15271 020d 3F       		.uleb128 0x3f
 15272 020e 19       		.uleb128 0x19
 15273 020f 03       		.uleb128 0x3
 15274 0210 0E       		.uleb128 0xe
 15275 0211 3A       		.uleb128 0x3a
 15276 0212 0B       		.uleb128 0xb
ARM GAS  /tmp/cc9AvIGf.s 			page 270


 15277 0213 3B       		.uleb128 0x3b
 15278 0214 0B       		.uleb128 0xb
 15279 0215 6E       		.uleb128 0x6e
 15280 0216 0E       		.uleb128 0xe
 15281 0217 49       		.uleb128 0x49
 15282 0218 13       		.uleb128 0x13
 15283 0219 3C       		.uleb128 0x3c
 15284 021a 19       		.uleb128 0x19
 15285 021b 64       		.uleb128 0x64
 15286 021c 13       		.uleb128 0x13
 15287 021d 01       		.uleb128 0x1
 15288 021e 13       		.uleb128 0x13
 15289 021f 00       		.byte	0
 15290 0220 00       		.byte	0
 15291 0221 24       		.uleb128 0x24
 15292 0222 2E       		.uleb128 0x2e
 15293 0223 01       		.byte	0x1
 15294 0224 3F       		.uleb128 0x3f
 15295 0225 19       		.uleb128 0x19
 15296 0226 03       		.uleb128 0x3
 15297 0227 0E       		.uleb128 0xe
 15298 0228 3A       		.uleb128 0x3a
 15299 0229 0B       		.uleb128 0xb
 15300 022a 3B       		.uleb128 0x3b
 15301 022b 0B       		.uleb128 0xb
 15302 022c 6E       		.uleb128 0x6e
 15303 022d 0E       		.uleb128 0xe
 15304 022e 49       		.uleb128 0x49
 15305 022f 13       		.uleb128 0x13
 15306 0230 32       		.uleb128 0x32
 15307 0231 0B       		.uleb128 0xb
 15308 0232 3C       		.uleb128 0x3c
 15309 0233 19       		.uleb128 0x19
 15310 0234 64       		.uleb128 0x64
 15311 0235 13       		.uleb128 0x13
 15312 0236 00       		.byte	0
 15313 0237 00       		.byte	0
 15314 0238 25       		.uleb128 0x25
 15315 0239 02       		.uleb128 0x2
 15316 023a 00       		.byte	0
 15317 023b 03       		.uleb128 0x3
 15318 023c 0E       		.uleb128 0xe
 15319 023d 3C       		.uleb128 0x3c
 15320 023e 19       		.uleb128 0x19
 15321 023f 00       		.byte	0
 15322 0240 00       		.byte	0
 15323 0241 26       		.uleb128 0x26
 15324 0242 16       		.uleb128 0x16
 15325 0243 00       		.byte	0
 15326 0244 03       		.uleb128 0x3
 15327 0245 0E       		.uleb128 0xe
 15328 0246 3A       		.uleb128 0x3a
 15329 0247 0B       		.uleb128 0xb
 15330 0248 3B       		.uleb128 0x3b
 15331 0249 05       		.uleb128 0x5
 15332 024a 49       		.uleb128 0x49
 15333 024b 13       		.uleb128 0x13
ARM GAS  /tmp/cc9AvIGf.s 			page 271


 15334 024c 00       		.byte	0
 15335 024d 00       		.byte	0
 15336 024e 27       		.uleb128 0x27
 15337 024f 2E       		.uleb128 0x2e
 15338 0250 01       		.byte	0x1
 15339 0251 3F       		.uleb128 0x3f
 15340 0252 19       		.uleb128 0x19
 15341 0253 03       		.uleb128 0x3
 15342 0254 0E       		.uleb128 0xe
 15343 0255 3A       		.uleb128 0x3a
 15344 0256 0B       		.uleb128 0xb
 15345 0257 3B       		.uleb128 0x3b
 15346 0258 05       		.uleb128 0x5
 15347 0259 6E       		.uleb128 0x6e
 15348 025a 0E       		.uleb128 0xe
 15349 025b 49       		.uleb128 0x49
 15350 025c 13       		.uleb128 0x13
 15351 025d 32       		.uleb128 0x32
 15352 025e 0B       		.uleb128 0xb
 15353 025f 3C       		.uleb128 0x3c
 15354 0260 19       		.uleb128 0x19
 15355 0261 64       		.uleb128 0x64
 15356 0262 13       		.uleb128 0x13
 15357 0263 01       		.uleb128 0x1
 15358 0264 13       		.uleb128 0x13
 15359 0265 00       		.byte	0
 15360 0266 00       		.byte	0
 15361 0267 28       		.uleb128 0x28
 15362 0268 2E       		.uleb128 0x2e
 15363 0269 01       		.byte	0x1
 15364 026a 3F       		.uleb128 0x3f
 15365 026b 19       		.uleb128 0x19
 15366 026c 03       		.uleb128 0x3
 15367 026d 0E       		.uleb128 0xe
 15368 026e 3A       		.uleb128 0x3a
 15369 026f 0B       		.uleb128 0xb
 15370 0270 3B       		.uleb128 0x3b
 15371 0271 05       		.uleb128 0x5
 15372 0272 6E       		.uleb128 0x6e
 15373 0273 0E       		.uleb128 0xe
 15374 0274 32       		.uleb128 0x32
 15375 0275 0B       		.uleb128 0xb
 15376 0276 3C       		.uleb128 0x3c
 15377 0277 19       		.uleb128 0x19
 15378 0278 64       		.uleb128 0x64
 15379 0279 13       		.uleb128 0x13
 15380 027a 01       		.uleb128 0x1
 15381 027b 13       		.uleb128 0x13
 15382 027c 00       		.byte	0
 15383 027d 00       		.byte	0
 15384 027e 29       		.uleb128 0x29
 15385 027f 2E       		.uleb128 0x2e
 15386 0280 01       		.byte	0x1
 15387 0281 3F       		.uleb128 0x3f
 15388 0282 19       		.uleb128 0x19
 15389 0283 03       		.uleb128 0x3
 15390 0284 08       		.uleb128 0x8
ARM GAS  /tmp/cc9AvIGf.s 			page 272


 15391 0285 3A       		.uleb128 0x3a
 15392 0286 0B       		.uleb128 0xb
 15393 0287 3B       		.uleb128 0x3b
 15394 0288 05       		.uleb128 0x5
 15395 0289 6E       		.uleb128 0x6e
 15396 028a 0E       		.uleb128 0xe
 15397 028b 49       		.uleb128 0x49
 15398 028c 13       		.uleb128 0x13
 15399 028d 32       		.uleb128 0x32
 15400 028e 0B       		.uleb128 0xb
 15401 028f 3C       		.uleb128 0x3c
 15402 0290 19       		.uleb128 0x19
 15403 0291 64       		.uleb128 0x64
 15404 0292 13       		.uleb128 0x13
 15405 0293 01       		.uleb128 0x1
 15406 0294 13       		.uleb128 0x13
 15407 0295 00       		.byte	0
 15408 0296 00       		.byte	0
 15409 0297 2A       		.uleb128 0x2a
 15410 0298 2E       		.uleb128 0x2e
 15411 0299 01       		.byte	0x1
 15412 029a 3F       		.uleb128 0x3f
 15413 029b 19       		.uleb128 0x19
 15414 029c 03       		.uleb128 0x3
 15415 029d 0E       		.uleb128 0xe
 15416 029e 3A       		.uleb128 0x3a
 15417 029f 0B       		.uleb128 0xb
 15418 02a0 3B       		.uleb128 0x3b
 15419 02a1 05       		.uleb128 0x5
 15420 02a2 49       		.uleb128 0x49
 15421 02a3 13       		.uleb128 0x13
 15422 02a4 32       		.uleb128 0x32
 15423 02a5 0B       		.uleb128 0xb
 15424 02a6 3C       		.uleb128 0x3c
 15425 02a7 19       		.uleb128 0x19
 15426 02a8 64       		.uleb128 0x64
 15427 02a9 13       		.uleb128 0x13
 15428 02aa 01       		.uleb128 0x1
 15429 02ab 13       		.uleb128 0x13
 15430 02ac 00       		.byte	0
 15431 02ad 00       		.byte	0
 15432 02ae 2B       		.uleb128 0x2b
 15433 02af 2F       		.uleb128 0x2f
 15434 02b0 00       		.byte	0
 15435 02b1 03       		.uleb128 0x3
 15436 02b2 0E       		.uleb128 0xe
 15437 02b3 49       		.uleb128 0x49
 15438 02b4 13       		.uleb128 0x13
 15439 02b5 00       		.byte	0
 15440 02b6 00       		.byte	0
 15441 02b7 2C       		.uleb128 0x2c
 15442 02b8 02       		.uleb128 0x2
 15443 02b9 01       		.byte	0x1
 15444 02ba 03       		.uleb128 0x3
 15445 02bb 0E       		.uleb128 0xe
 15446 02bc 3C       		.uleb128 0x3c
 15447 02bd 19       		.uleb128 0x19
ARM GAS  /tmp/cc9AvIGf.s 			page 273


 15448 02be 01       		.uleb128 0x1
 15449 02bf 13       		.uleb128 0x13
 15450 02c0 00       		.byte	0
 15451 02c1 00       		.byte	0
 15452 02c2 2D       		.uleb128 0x2d
 15453 02c3 2E       		.uleb128 0x2e
 15454 02c4 01       		.byte	0x1
 15455 02c5 3F       		.uleb128 0x3f
 15456 02c6 19       		.uleb128 0x19
 15457 02c7 03       		.uleb128 0x3
 15458 02c8 0E       		.uleb128 0xe
 15459 02c9 3A       		.uleb128 0x3a
 15460 02ca 0B       		.uleb128 0xb
 15461 02cb 3B       		.uleb128 0x3b
 15462 02cc 0B       		.uleb128 0xb
 15463 02cd 6E       		.uleb128 0x6e
 15464 02ce 0E       		.uleb128 0xe
 15465 02cf 3C       		.uleb128 0x3c
 15466 02d0 19       		.uleb128 0x19
 15467 02d1 64       		.uleb128 0x64
 15468 02d2 13       		.uleb128 0x13
 15469 02d3 01       		.uleb128 0x1
 15470 02d4 13       		.uleb128 0x13
 15471 02d5 00       		.byte	0
 15472 02d6 00       		.byte	0
 15473 02d7 2E       		.uleb128 0x2e
 15474 02d8 2E       		.uleb128 0x2e
 15475 02d9 01       		.byte	0x1
 15476 02da 3F       		.uleb128 0x3f
 15477 02db 19       		.uleb128 0x19
 15478 02dc 03       		.uleb128 0x3
 15479 02dd 0E       		.uleb128 0xe
 15480 02de 3A       		.uleb128 0x3a
 15481 02df 0B       		.uleb128 0xb
 15482 02e0 3B       		.uleb128 0x3b
 15483 02e1 0B       		.uleb128 0xb
 15484 02e2 6E       		.uleb128 0x6e
 15485 02e3 0E       		.uleb128 0xe
 15486 02e4 49       		.uleb128 0x49
 15487 02e5 13       		.uleb128 0x13
 15488 02e6 32       		.uleb128 0x32
 15489 02e7 0B       		.uleb128 0xb
 15490 02e8 3C       		.uleb128 0x3c
 15491 02e9 19       		.uleb128 0x19
 15492 02ea 01       		.uleb128 0x1
 15493 02eb 13       		.uleb128 0x13
 15494 02ec 00       		.byte	0
 15495 02ed 00       		.byte	0
 15496 02ee 2F       		.uleb128 0x2f
 15497 02ef 2E       		.uleb128 0x2e
 15498 02f0 01       		.byte	0x1
 15499 02f1 3F       		.uleb128 0x3f
 15500 02f2 19       		.uleb128 0x19
 15501 02f3 03       		.uleb128 0x3
 15502 02f4 0E       		.uleb128 0xe
 15503 02f5 3A       		.uleb128 0x3a
 15504 02f6 0B       		.uleb128 0xb
ARM GAS  /tmp/cc9AvIGf.s 			page 274


 15505 02f7 3B       		.uleb128 0x3b
 15506 02f8 05       		.uleb128 0x5
 15507 02f9 6E       		.uleb128 0x6e
 15508 02fa 0E       		.uleb128 0xe
 15509 02fb 49       		.uleb128 0x49
 15510 02fc 13       		.uleb128 0x13
 15511 02fd 32       		.uleb128 0x32
 15512 02fe 0B       		.uleb128 0xb
 15513 02ff 3C       		.uleb128 0x3c
 15514 0300 19       		.uleb128 0x19
 15515 0301 64       		.uleb128 0x64
 15516 0302 13       		.uleb128 0x13
 15517 0303 00       		.byte	0
 15518 0304 00       		.byte	0
 15519 0305 30       		.uleb128 0x30
 15520 0306 2E       		.uleb128 0x2e
 15521 0307 01       		.byte	0x1
 15522 0308 3F       		.uleb128 0x3f
 15523 0309 19       		.uleb128 0x19
 15524 030a 03       		.uleb128 0x3
 15525 030b 0E       		.uleb128 0xe
 15526 030c 3A       		.uleb128 0x3a
 15527 030d 0B       		.uleb128 0xb
 15528 030e 3B       		.uleb128 0x3b
 15529 030f 0B       		.uleb128 0xb
 15530 0310 6E       		.uleb128 0x6e
 15531 0311 0E       		.uleb128 0xe
 15532 0312 32       		.uleb128 0x32
 15533 0313 0B       		.uleb128 0xb
 15534 0314 3C       		.uleb128 0x3c
 15535 0315 19       		.uleb128 0x19
 15536 0316 01       		.uleb128 0x1
 15537 0317 13       		.uleb128 0x13
 15538 0318 00       		.byte	0
 15539 0319 00       		.byte	0
 15540 031a 31       		.uleb128 0x31
 15541 031b 2E       		.uleb128 0x2e
 15542 031c 01       		.byte	0x1
 15543 031d 3F       		.uleb128 0x3f
 15544 031e 19       		.uleb128 0x19
 15545 031f 03       		.uleb128 0x3
 15546 0320 0E       		.uleb128 0xe
 15547 0321 3A       		.uleb128 0x3a
 15548 0322 0B       		.uleb128 0xb
 15549 0323 3B       		.uleb128 0x3b
 15550 0324 0B       		.uleb128 0xb
 15551 0325 6E       		.uleb128 0x6e
 15552 0326 0E       		.uleb128 0xe
 15553 0327 49       		.uleb128 0x49
 15554 0328 13       		.uleb128 0x13
 15555 0329 32       		.uleb128 0x32
 15556 032a 0B       		.uleb128 0xb
 15557 032b 3C       		.uleb128 0x3c
 15558 032c 19       		.uleb128 0x19
 15559 032d 00       		.byte	0
 15560 032e 00       		.byte	0
 15561 032f 32       		.uleb128 0x32
ARM GAS  /tmp/cc9AvIGf.s 			page 275


 15562 0330 2E       		.uleb128 0x2e
 15563 0331 00       		.byte	0
 15564 0332 3F       		.uleb128 0x3f
 15565 0333 19       		.uleb128 0x19
 15566 0334 03       		.uleb128 0x3
 15567 0335 0E       		.uleb128 0xe
 15568 0336 3A       		.uleb128 0x3a
 15569 0337 0B       		.uleb128 0xb
 15570 0338 3B       		.uleb128 0x3b
 15571 0339 0B       		.uleb128 0xb
 15572 033a 6E       		.uleb128 0x6e
 15573 033b 0E       		.uleb128 0xe
 15574 033c 49       		.uleb128 0x49
 15575 033d 13       		.uleb128 0x13
 15576 033e 32       		.uleb128 0x32
 15577 033f 0B       		.uleb128 0xb
 15578 0340 3C       		.uleb128 0x3c
 15579 0341 19       		.uleb128 0x19
 15580 0342 00       		.byte	0
 15581 0343 00       		.byte	0
 15582 0344 33       		.uleb128 0x33
 15583 0345 04       		.uleb128 0x4
 15584 0346 01       		.byte	0x1
 15585 0347 03       		.uleb128 0x3
 15586 0348 0E       		.uleb128 0xe
 15587 0349 0B       		.uleb128 0xb
 15588 034a 0B       		.uleb128 0xb
 15589 034b 3A       		.uleb128 0x3a
 15590 034c 0B       		.uleb128 0xb
 15591 034d 3B       		.uleb128 0x3b
 15592 034e 0B       		.uleb128 0xb
 15593 034f 32       		.uleb128 0x32
 15594 0350 0B       		.uleb128 0xb
 15595 0351 01       		.uleb128 0x1
 15596 0352 13       		.uleb128 0x13
 15597 0353 00       		.byte	0
 15598 0354 00       		.byte	0
 15599 0355 34       		.uleb128 0x34
 15600 0356 28       		.uleb128 0x28
 15601 0357 00       		.byte	0
 15602 0358 03       		.uleb128 0x3
 15603 0359 08       		.uleb128 0x8
 15604 035a 1C       		.uleb128 0x1c
 15605 035b 0D       		.uleb128 0xd
 15606 035c 00       		.byte	0
 15607 035d 00       		.byte	0
 15608 035e 35       		.uleb128 0x35
 15609 035f 28       		.uleb128 0x28
 15610 0360 00       		.byte	0
 15611 0361 03       		.uleb128 0x3
 15612 0362 0E       		.uleb128 0xe
 15613 0363 1C       		.uleb128 0x1c
 15614 0364 0D       		.uleb128 0xd
 15615 0365 00       		.byte	0
 15616 0366 00       		.byte	0
 15617 0367 36       		.uleb128 0x36
 15618 0368 13       		.uleb128 0x13
ARM GAS  /tmp/cc9AvIGf.s 			page 276


 15619 0369 01       		.byte	0x1
 15620 036a 0B       		.uleb128 0xb
 15621 036b 0B       		.uleb128 0xb
 15622 036c 3A       		.uleb128 0x3a
 15623 036d 0B       		.uleb128 0xb
 15624 036e 3B       		.uleb128 0x3b
 15625 036f 0B       		.uleb128 0xb
 15626 0370 01       		.uleb128 0x1
 15627 0371 13       		.uleb128 0x13
 15628 0372 00       		.byte	0
 15629 0373 00       		.byte	0
 15630 0374 37       		.uleb128 0x37
 15631 0375 0D       		.uleb128 0xd
 15632 0376 00       		.byte	0
 15633 0377 03       		.uleb128 0x3
 15634 0378 0E       		.uleb128 0xe
 15635 0379 3A       		.uleb128 0x3a
 15636 037a 0B       		.uleb128 0xb
 15637 037b 3B       		.uleb128 0x3b
 15638 037c 0B       		.uleb128 0xb
 15639 037d 49       		.uleb128 0x49
 15640 037e 13       		.uleb128 0x13
 15641 037f 0B       		.uleb128 0xb
 15642 0380 0B       		.uleb128 0xb
 15643 0381 0D       		.uleb128 0xd
 15644 0382 0B       		.uleb128 0xb
 15645 0383 0C       		.uleb128 0xc
 15646 0384 0B       		.uleb128 0xb
 15647 0385 38       		.uleb128 0x38
 15648 0386 0B       		.uleb128 0xb
 15649 0387 00       		.byte	0
 15650 0388 00       		.byte	0
 15651 0389 38       		.uleb128 0x38
 15652 038a 17       		.uleb128 0x17
 15653 038b 01       		.byte	0x1
 15654 038c 0B       		.uleb128 0xb
 15655 038d 0B       		.uleb128 0xb
 15656 038e 3A       		.uleb128 0x3a
 15657 038f 0B       		.uleb128 0xb
 15658 0390 3B       		.uleb128 0x3b
 15659 0391 0B       		.uleb128 0xb
 15660 0392 32       		.uleb128 0x32
 15661 0393 0B       		.uleb128 0xb
 15662 0394 01       		.uleb128 0x1
 15663 0395 13       		.uleb128 0x13
 15664 0396 00       		.byte	0
 15665 0397 00       		.byte	0
 15666 0398 39       		.uleb128 0x39
 15667 0399 0D       		.uleb128 0xd
 15668 039a 00       		.byte	0
 15669 039b 03       		.uleb128 0x3
 15670 039c 0E       		.uleb128 0xe
 15671 039d 3A       		.uleb128 0x3a
 15672 039e 0B       		.uleb128 0xb
 15673 039f 3B       		.uleb128 0x3b
 15674 03a0 0B       		.uleb128 0xb
 15675 03a1 49       		.uleb128 0x49
ARM GAS  /tmp/cc9AvIGf.s 			page 277


 15676 03a2 13       		.uleb128 0x13
 15677 03a3 00       		.byte	0
 15678 03a4 00       		.byte	0
 15679 03a5 3A       		.uleb128 0x3a
 15680 03a6 1C       		.uleb128 0x1c
 15681 03a7 00       		.byte	0
 15682 03a8 49       		.uleb128 0x49
 15683 03a9 13       		.uleb128 0x13
 15684 03aa 38       		.uleb128 0x38
 15685 03ab 0B       		.uleb128 0xb
 15686 03ac 32       		.uleb128 0x32
 15687 03ad 0B       		.uleb128 0xb
 15688 03ae 00       		.byte	0
 15689 03af 00       		.byte	0
 15690 03b0 3B       		.uleb128 0x3b
 15691 03b1 0D       		.uleb128 0xd
 15692 03b2 00       		.byte	0
 15693 03b3 49       		.uleb128 0x49
 15694 03b4 13       		.uleb128 0x13
 15695 03b5 38       		.uleb128 0x38
 15696 03b6 0B       		.uleb128 0xb
 15697 03b7 32       		.uleb128 0x32
 15698 03b8 0B       		.uleb128 0xb
 15699 03b9 00       		.byte	0
 15700 03ba 00       		.byte	0
 15701 03bb 3C       		.uleb128 0x3c
 15702 03bc 0D       		.uleb128 0xd
 15703 03bd 00       		.byte	0
 15704 03be 03       		.uleb128 0x3
 15705 03bf 0E       		.uleb128 0xe
 15706 03c0 3A       		.uleb128 0x3a
 15707 03c1 0B       		.uleb128 0xb
 15708 03c2 3B       		.uleb128 0x3b
 15709 03c3 0B       		.uleb128 0xb
 15710 03c4 49       		.uleb128 0x49
 15711 03c5 13       		.uleb128 0x13
 15712 03c6 38       		.uleb128 0x38
 15713 03c7 0B       		.uleb128 0xb
 15714 03c8 32       		.uleb128 0x32
 15715 03c9 0B       		.uleb128 0xb
 15716 03ca 00       		.byte	0
 15717 03cb 00       		.byte	0
 15718 03cc 3D       		.uleb128 0x3d
 15719 03cd 2E       		.uleb128 0x2e
 15720 03ce 01       		.byte	0x1
 15721 03cf 3F       		.uleb128 0x3f
 15722 03d0 19       		.uleb128 0x19
 15723 03d1 03       		.uleb128 0x3
 15724 03d2 0E       		.uleb128 0xe
 15725 03d3 3A       		.uleb128 0x3a
 15726 03d4 0B       		.uleb128 0xb
 15727 03d5 3B       		.uleb128 0x3b
 15728 03d6 0B       		.uleb128 0xb
 15729 03d7 49       		.uleb128 0x49
 15730 03d8 13       		.uleb128 0x13
 15731 03d9 32       		.uleb128 0x32
 15732 03da 0B       		.uleb128 0xb
ARM GAS  /tmp/cc9AvIGf.s 			page 278


 15733 03db 3C       		.uleb128 0x3c
 15734 03dc 19       		.uleb128 0x19
 15735 03dd 63       		.uleb128 0x63
 15736 03de 19       		.uleb128 0x19
 15737 03df 64       		.uleb128 0x64
 15738 03e0 13       		.uleb128 0x13
 15739 03e1 00       		.byte	0
 15740 03e2 00       		.byte	0
 15741 03e3 3E       		.uleb128 0x3e
 15742 03e4 02       		.uleb128 0x2
 15743 03e5 01       		.byte	0x1
 15744 03e6 03       		.uleb128 0x3
 15745 03e7 0E       		.uleb128 0xe
 15746 03e8 0B       		.uleb128 0xb
 15747 03e9 05       		.uleb128 0x5
 15748 03ea 3A       		.uleb128 0x3a
 15749 03eb 0B       		.uleb128 0xb
 15750 03ec 3B       		.uleb128 0x3b
 15751 03ed 0B       		.uleb128 0xb
 15752 03ee 01       		.uleb128 0x1
 15753 03ef 13       		.uleb128 0x13
 15754 03f0 00       		.byte	0
 15755 03f1 00       		.byte	0
 15756 03f2 3F       		.uleb128 0x3f
 15757 03f3 0D       		.uleb128 0xd
 15758 03f4 00       		.byte	0
 15759 03f5 03       		.uleb128 0x3
 15760 03f6 0E       		.uleb128 0xe
 15761 03f7 3A       		.uleb128 0x3a
 15762 03f8 0B       		.uleb128 0xb
 15763 03f9 3B       		.uleb128 0x3b
 15764 03fa 0B       		.uleb128 0xb
 15765 03fb 49       		.uleb128 0x49
 15766 03fc 13       		.uleb128 0x13
 15767 03fd 38       		.uleb128 0x38
 15768 03fe 05       		.uleb128 0x5
 15769 03ff 00       		.byte	0
 15770 0400 00       		.byte	0
 15771 0401 40       		.uleb128 0x40
 15772 0402 2E       		.uleb128 0x2e
 15773 0403 01       		.byte	0x1
 15774 0404 3F       		.uleb128 0x3f
 15775 0405 19       		.uleb128 0x19
 15776 0406 03       		.uleb128 0x3
 15777 0407 08       		.uleb128 0x8
 15778 0408 3A       		.uleb128 0x3a
 15779 0409 0B       		.uleb128 0xb
 15780 040a 3B       		.uleb128 0x3b
 15781 040b 0B       		.uleb128 0xb
 15782 040c 6E       		.uleb128 0x6e
 15783 040d 0E       		.uleb128 0xe
 15784 040e 32       		.uleb128 0x32
 15785 040f 0B       		.uleb128 0xb
 15786 0410 3C       		.uleb128 0x3c
 15787 0411 19       		.uleb128 0x19
 15788 0412 64       		.uleb128 0x64
 15789 0413 13       		.uleb128 0x13
ARM GAS  /tmp/cc9AvIGf.s 			page 279


 15790 0414 01       		.uleb128 0x1
 15791 0415 13       		.uleb128 0x13
 15792 0416 00       		.byte	0
 15793 0417 00       		.byte	0
 15794 0418 41       		.uleb128 0x41
 15795 0419 2E       		.uleb128 0x2e
 15796 041a 01       		.byte	0x1
 15797 041b 3F       		.uleb128 0x3f
 15798 041c 19       		.uleb128 0x19
 15799 041d 03       		.uleb128 0x3
 15800 041e 0E       		.uleb128 0xe
 15801 041f 3A       		.uleb128 0x3a
 15802 0420 0B       		.uleb128 0xb
 15803 0421 3B       		.uleb128 0x3b
 15804 0422 0B       		.uleb128 0xb
 15805 0423 6E       		.uleb128 0x6e
 15806 0424 0E       		.uleb128 0xe
 15807 0425 49       		.uleb128 0x49
 15808 0426 13       		.uleb128 0x13
 15809 0427 3C       		.uleb128 0x3c
 15810 0428 19       		.uleb128 0x19
 15811 0429 01       		.uleb128 0x1
 15812 042a 13       		.uleb128 0x13
 15813 042b 00       		.byte	0
 15814 042c 00       		.byte	0
 15815 042d 42       		.uleb128 0x42
 15816 042e 2E       		.uleb128 0x2e
 15817 042f 01       		.byte	0x1
 15818 0430 3F       		.uleb128 0x3f
 15819 0431 19       		.uleb128 0x19
 15820 0432 03       		.uleb128 0x3
 15821 0433 0E       		.uleb128 0xe
 15822 0434 3A       		.uleb128 0x3a
 15823 0435 0B       		.uleb128 0xb
 15824 0436 3B       		.uleb128 0x3b
 15825 0437 0B       		.uleb128 0xb
 15826 0438 3C       		.uleb128 0x3c
 15827 0439 19       		.uleb128 0x19
 15828 043a 01       		.uleb128 0x1
 15829 043b 13       		.uleb128 0x13
 15830 043c 00       		.byte	0
 15831 043d 00       		.byte	0
 15832 043e 43       		.uleb128 0x43
 15833 043f 2E       		.uleb128 0x2e
 15834 0440 01       		.byte	0x1
 15835 0441 3F       		.uleb128 0x3f
 15836 0442 19       		.uleb128 0x19
 15837 0443 03       		.uleb128 0x3
 15838 0444 0E       		.uleb128 0xe
 15839 0445 3A       		.uleb128 0x3a
 15840 0446 0B       		.uleb128 0xb
 15841 0447 3B       		.uleb128 0x3b
 15842 0448 0B       		.uleb128 0xb
 15843 0449 6E       		.uleb128 0x6e
 15844 044a 0E       		.uleb128 0xe
 15845 044b 49       		.uleb128 0x49
 15846 044c 13       		.uleb128 0x13
ARM GAS  /tmp/cc9AvIGf.s 			page 280


 15847 044d 3C       		.uleb128 0x3c
 15848 044e 19       		.uleb128 0x19
 15849 044f 00       		.byte	0
 15850 0450 00       		.byte	0
 15851 0451 44       		.uleb128 0x44
 15852 0452 10       		.uleb128 0x10
 15853 0453 00       		.byte	0
 15854 0454 0B       		.uleb128 0xb
 15855 0455 0B       		.uleb128 0xb
 15856 0456 49       		.uleb128 0x49
 15857 0457 13       		.uleb128 0x13
 15858 0458 00       		.byte	0
 15859 0459 00       		.byte	0
 15860 045a 45       		.uleb128 0x45
 15861 045b 13       		.uleb128 0x13
 15862 045c 01       		.byte	0x1
 15863 045d 03       		.uleb128 0x3
 15864 045e 0E       		.uleb128 0xe
 15865 045f 0B       		.uleb128 0xb
 15866 0460 0B       		.uleb128 0xb
 15867 0461 3A       		.uleb128 0x3a
 15868 0462 0B       		.uleb128 0xb
 15869 0463 3B       		.uleb128 0x3b
 15870 0464 0B       		.uleb128 0xb
 15871 0465 01       		.uleb128 0x1
 15872 0466 13       		.uleb128 0x13
 15873 0467 00       		.byte	0
 15874 0468 00       		.byte	0
 15875 0469 46       		.uleb128 0x46
 15876 046a 17       		.uleb128 0x17
 15877 046b 01       		.byte	0x1
 15878 046c 0B       		.uleb128 0xb
 15879 046d 0B       		.uleb128 0xb
 15880 046e 3A       		.uleb128 0x3a
 15881 046f 0B       		.uleb128 0xb
 15882 0470 3B       		.uleb128 0x3b
 15883 0471 0B       		.uleb128 0xb
 15884 0472 01       		.uleb128 0x1
 15885 0473 13       		.uleb128 0x13
 15886 0474 00       		.byte	0
 15887 0475 00       		.byte	0
 15888 0476 47       		.uleb128 0x47
 15889 0477 0D       		.uleb128 0xd
 15890 0478 00       		.byte	0
 15891 0479 03       		.uleb128 0x3
 15892 047a 08       		.uleb128 0x8
 15893 047b 3A       		.uleb128 0x3a
 15894 047c 0B       		.uleb128 0xb
 15895 047d 3B       		.uleb128 0x3b
 15896 047e 0B       		.uleb128 0xb
 15897 047f 49       		.uleb128 0x49
 15898 0480 13       		.uleb128 0x13
 15899 0481 38       		.uleb128 0x38
 15900 0482 0B       		.uleb128 0xb
 15901 0483 00       		.byte	0
 15902 0484 00       		.byte	0
 15903 0485 48       		.uleb128 0x48
ARM GAS  /tmp/cc9AvIGf.s 			page 281


 15904 0486 13       		.uleb128 0x13
 15905 0487 01       		.byte	0x1
 15906 0488 0B       		.uleb128 0xb
 15907 0489 0B       		.uleb128 0xb
 15908 048a 3A       		.uleb128 0x3a
 15909 048b 0B       		.uleb128 0xb
 15910 048c 3B       		.uleb128 0x3b
 15911 048d 0B       		.uleb128 0xb
 15912 048e 6E       		.uleb128 0x6e
 15913 048f 0E       		.uleb128 0xe
 15914 0490 01       		.uleb128 0x1
 15915 0491 13       		.uleb128 0x13
 15916 0492 00       		.byte	0
 15917 0493 00       		.byte	0
 15918 0494 49       		.uleb128 0x49
 15919 0495 13       		.uleb128 0x13
 15920 0496 01       		.byte	0x1
 15921 0497 03       		.uleb128 0x3
 15922 0498 0E       		.uleb128 0xe
 15923 0499 0B       		.uleb128 0xb
 15924 049a 0B       		.uleb128 0xb
 15925 049b 3A       		.uleb128 0x3a
 15926 049c 0B       		.uleb128 0xb
 15927 049d 3B       		.uleb128 0x3b
 15928 049e 05       		.uleb128 0x5
 15929 049f 01       		.uleb128 0x1
 15930 04a0 13       		.uleb128 0x13
 15931 04a1 00       		.byte	0
 15932 04a2 00       		.byte	0
 15933 04a3 4A       		.uleb128 0x4a
 15934 04a4 0D       		.uleb128 0xd
 15935 04a5 00       		.byte	0
 15936 04a6 03       		.uleb128 0x3
 15937 04a7 08       		.uleb128 0x8
 15938 04a8 3A       		.uleb128 0x3a
 15939 04a9 0B       		.uleb128 0xb
 15940 04aa 3B       		.uleb128 0x3b
 15941 04ab 05       		.uleb128 0x5
 15942 04ac 49       		.uleb128 0x49
 15943 04ad 13       		.uleb128 0x13
 15944 04ae 38       		.uleb128 0x38
 15945 04af 0B       		.uleb128 0xb
 15946 04b0 00       		.byte	0
 15947 04b1 00       		.byte	0
 15948 04b2 4B       		.uleb128 0x4b
 15949 04b3 35       		.uleb128 0x35
 15950 04b4 00       		.byte	0
 15951 04b5 49       		.uleb128 0x49
 15952 04b6 13       		.uleb128 0x13
 15953 04b7 00       		.byte	0
 15954 04b8 00       		.byte	0
 15955 04b9 4C       		.uleb128 0x4c
 15956 04ba 15       		.uleb128 0x15
 15957 04bb 01       		.byte	0x1
 15958 04bc 49       		.uleb128 0x49
 15959 04bd 13       		.uleb128 0x13
 15960 04be 01       		.uleb128 0x1
ARM GAS  /tmp/cc9AvIGf.s 			page 282


 15961 04bf 13       		.uleb128 0x13
 15962 04c0 00       		.byte	0
 15963 04c1 00       		.byte	0
 15964 04c2 4D       		.uleb128 0x4d
 15965 04c3 26       		.uleb128 0x26
 15966 04c4 00       		.byte	0
 15967 04c5 00       		.byte	0
 15968 04c6 00       		.byte	0
 15969 04c7 4E       		.uleb128 0x4e
 15970 04c8 2E       		.uleb128 0x2e
 15971 04c9 01       		.byte	0x1
 15972 04ca 47       		.uleb128 0x47
 15973 04cb 13       		.uleb128 0x13
 15974 04cc 20       		.uleb128 0x20
 15975 04cd 0B       		.uleb128 0xb
 15976 04ce 01       		.uleb128 0x1
 15977 04cf 13       		.uleb128 0x13
 15978 04d0 00       		.byte	0
 15979 04d1 00       		.byte	0
 15980 04d2 4F       		.uleb128 0x4f
 15981 04d3 0B       		.uleb128 0xb
 15982 04d4 01       		.byte	0x1
 15983 04d5 00       		.byte	0
 15984 04d6 00       		.byte	0
 15985 04d7 50       		.uleb128 0x50
 15986 04d8 34       		.uleb128 0x34
 15987 04d9 00       		.byte	0
 15988 04da 03       		.uleb128 0x3
 15989 04db 08       		.uleb128 0x8
 15990 04dc 3A       		.uleb128 0x3a
 15991 04dd 0B       		.uleb128 0xb
 15992 04de 3B       		.uleb128 0x3b
 15993 04df 0B       		.uleb128 0xb
 15994 04e0 49       		.uleb128 0x49
 15995 04e1 13       		.uleb128 0x13
 15996 04e2 00       		.byte	0
 15997 04e3 00       		.byte	0
 15998 04e4 51       		.uleb128 0x51
 15999 04e5 2E       		.uleb128 0x2e
 16000 04e6 01       		.byte	0x1
 16001 04e7 47       		.uleb128 0x47
 16002 04e8 13       		.uleb128 0x13
 16003 04e9 20       		.uleb128 0x20
 16004 04ea 0B       		.uleb128 0xb
 16005 04eb 64       		.uleb128 0x64
 16006 04ec 13       		.uleb128 0x13
 16007 04ed 01       		.uleb128 0x1
 16008 04ee 13       		.uleb128 0x13
 16009 04ef 00       		.byte	0
 16010 04f0 00       		.byte	0
 16011 04f1 52       		.uleb128 0x52
 16012 04f2 05       		.uleb128 0x5
 16013 04f3 00       		.byte	0
 16014 04f4 03       		.uleb128 0x3
 16015 04f5 0E       		.uleb128 0xe
 16016 04f6 49       		.uleb128 0x49
 16017 04f7 13       		.uleb128 0x13
ARM GAS  /tmp/cc9AvIGf.s 			page 283


 16018 04f8 34       		.uleb128 0x34
 16019 04f9 19       		.uleb128 0x19
 16020 04fa 00       		.byte	0
 16021 04fb 00       		.byte	0
 16022 04fc 53       		.uleb128 0x53
 16023 04fd 2E       		.uleb128 0x2e
 16024 04fe 01       		.byte	0x1
 16025 04ff 31       		.uleb128 0x31
 16026 0500 13       		.uleb128 0x13
 16027 0501 6E       		.uleb128 0x6e
 16028 0502 0E       		.uleb128 0xe
 16029 0503 11       		.uleb128 0x11
 16030 0504 01       		.uleb128 0x1
 16031 0505 12       		.uleb128 0x12
 16032 0506 06       		.uleb128 0x6
 16033 0507 40       		.uleb128 0x40
 16034 0508 18       		.uleb128 0x18
 16035 0509 64       		.uleb128 0x64
 16036 050a 13       		.uleb128 0x13
 16037 050b 9742     		.uleb128 0x2117
 16038 050d 19       		.uleb128 0x19
 16039 050e 01       		.uleb128 0x1
 16040 050f 13       		.uleb128 0x13
 16041 0510 00       		.byte	0
 16042 0511 00       		.byte	0
 16043 0512 54       		.uleb128 0x54
 16044 0513 05       		.uleb128 0x5
 16045 0514 00       		.byte	0
 16046 0515 31       		.uleb128 0x31
 16047 0516 13       		.uleb128 0x13
 16048 0517 02       		.uleb128 0x2
 16049 0518 18       		.uleb128 0x18
 16050 0519 00       		.byte	0
 16051 051a 00       		.byte	0
 16052 051b 55       		.uleb128 0x55
 16053 051c 2E       		.uleb128 0x2e
 16054 051d 01       		.byte	0x1
 16055 051e 47       		.uleb128 0x47
 16056 051f 13       		.uleb128 0x13
 16057 0520 3B       		.uleb128 0x3b
 16058 0521 0B       		.uleb128 0xb
 16059 0522 11       		.uleb128 0x11
 16060 0523 01       		.uleb128 0x1
 16061 0524 12       		.uleb128 0x12
 16062 0525 06       		.uleb128 0x6
 16063 0526 40       		.uleb128 0x40
 16064 0527 18       		.uleb128 0x18
 16065 0528 9642     		.uleb128 0x2116
 16066 052a 19       		.uleb128 0x19
 16067 052b 01       		.uleb128 0x1
 16068 052c 13       		.uleb128 0x13
 16069 052d 00       		.byte	0
 16070 052e 00       		.byte	0
 16071 052f 56       		.uleb128 0x56
 16072 0530 0B       		.uleb128 0xb
 16073 0531 01       		.byte	0x1
 16074 0532 11       		.uleb128 0x11
ARM GAS  /tmp/cc9AvIGf.s 			page 284


 16075 0533 01       		.uleb128 0x1
 16076 0534 12       		.uleb128 0x12
 16077 0535 06       		.uleb128 0x6
 16078 0536 00       		.byte	0
 16079 0537 00       		.byte	0
 16080 0538 57       		.uleb128 0x57
 16081 0539 34       		.uleb128 0x34
 16082 053a 00       		.byte	0
 16083 053b 03       		.uleb128 0x3
 16084 053c 08       		.uleb128 0x8
 16085 053d 3A       		.uleb128 0x3a
 16086 053e 0B       		.uleb128 0xb
 16087 053f 3B       		.uleb128 0x3b
 16088 0540 0B       		.uleb128 0xb
 16089 0541 49       		.uleb128 0x49
 16090 0542 13       		.uleb128 0x13
 16091 0543 02       		.uleb128 0x2
 16092 0544 18       		.uleb128 0x18
 16093 0545 00       		.byte	0
 16094 0546 00       		.byte	0
 16095 0547 58       		.uleb128 0x58
 16096 0548 2E       		.uleb128 0x2e
 16097 0549 01       		.byte	0x1
 16098 054a 31       		.uleb128 0x31
 16099 054b 13       		.uleb128 0x13
 16100 054c 6E       		.uleb128 0x6e
 16101 054d 0E       		.uleb128 0xe
 16102 054e 11       		.uleb128 0x11
 16103 054f 01       		.uleb128 0x1
 16104 0550 12       		.uleb128 0x12
 16105 0551 06       		.uleb128 0x6
 16106 0552 40       		.uleb128 0x40
 16107 0553 18       		.uleb128 0x18
 16108 0554 64       		.uleb128 0x64
 16109 0555 13       		.uleb128 0x13
 16110 0556 9642     		.uleb128 0x2116
 16111 0558 19       		.uleb128 0x19
 16112 0559 01       		.uleb128 0x1
 16113 055a 13       		.uleb128 0x13
 16114 055b 00       		.byte	0
 16115 055c 00       		.byte	0
 16116 055d 59       		.uleb128 0x59
 16117 055e 2E       		.uleb128 0x2e
 16118 055f 00       		.byte	0
 16119 0560 47       		.uleb128 0x47
 16120 0561 13       		.uleb128 0x13
 16121 0562 3B       		.uleb128 0x3b
 16122 0563 0B       		.uleb128 0xb
 16123 0564 11       		.uleb128 0x11
 16124 0565 01       		.uleb128 0x1
 16125 0566 12       		.uleb128 0x12
 16126 0567 06       		.uleb128 0x6
 16127 0568 40       		.uleb128 0x40
 16128 0569 18       		.uleb128 0x18
 16129 056a 9642     		.uleb128 0x2116
 16130 056c 19       		.uleb128 0x19
 16131 056d 00       		.byte	0
ARM GAS  /tmp/cc9AvIGf.s 			page 285


 16132 056e 00       		.byte	0
 16133 056f 5A       		.uleb128 0x5a
 16134 0570 2E       		.uleb128 0x2e
 16135 0571 01       		.byte	0x1
 16136 0572 47       		.uleb128 0x47
 16137 0573 13       		.uleb128 0x13
 16138 0574 3B       		.uleb128 0x3b
 16139 0575 0B       		.uleb128 0xb
 16140 0576 11       		.uleb128 0x11
 16141 0577 01       		.uleb128 0x1
 16142 0578 12       		.uleb128 0x12
 16143 0579 06       		.uleb128 0x6
 16144 057a 40       		.uleb128 0x40
 16145 057b 18       		.uleb128 0x18
 16146 057c 64       		.uleb128 0x64
 16147 057d 13       		.uleb128 0x13
 16148 057e 9742     		.uleb128 0x2117
 16149 0580 19       		.uleb128 0x19
 16150 0581 01       		.uleb128 0x1
 16151 0582 13       		.uleb128 0x13
 16152 0583 00       		.byte	0
 16153 0584 00       		.byte	0
 16154 0585 5B       		.uleb128 0x5b
 16155 0586 05       		.uleb128 0x5
 16156 0587 00       		.byte	0
 16157 0588 03       		.uleb128 0x3
 16158 0589 0E       		.uleb128 0xe
 16159 058a 49       		.uleb128 0x49
 16160 058b 13       		.uleb128 0x13
 16161 058c 34       		.uleb128 0x34
 16162 058d 19       		.uleb128 0x19
 16163 058e 02       		.uleb128 0x2
 16164 058f 18       		.uleb128 0x18
 16165 0590 00       		.byte	0
 16166 0591 00       		.byte	0
 16167 0592 5C       		.uleb128 0x5c
 16168 0593 2E       		.uleb128 0x2e
 16169 0594 01       		.byte	0x1
 16170 0595 47       		.uleb128 0x47
 16171 0596 13       		.uleb128 0x13
 16172 0597 3B       		.uleb128 0x3b
 16173 0598 0B       		.uleb128 0xb
 16174 0599 11       		.uleb128 0x11
 16175 059a 01       		.uleb128 0x1
 16176 059b 12       		.uleb128 0x12
 16177 059c 06       		.uleb128 0x6
 16178 059d 40       		.uleb128 0x40
 16179 059e 18       		.uleb128 0x18
 16180 059f 64       		.uleb128 0x64
 16181 05a0 13       		.uleb128 0x13
 16182 05a1 9642     		.uleb128 0x2116
 16183 05a3 19       		.uleb128 0x19
 16184 05a4 01       		.uleb128 0x1
 16185 05a5 13       		.uleb128 0x13
 16186 05a6 00       		.byte	0
 16187 05a7 00       		.byte	0
 16188 05a8 5D       		.uleb128 0x5d
ARM GAS  /tmp/cc9AvIGf.s 			page 286


 16189 05a9 05       		.uleb128 0x5
 16190 05aa 00       		.byte	0
 16191 05ab 03       		.uleb128 0x3
 16192 05ac 0E       		.uleb128 0xe
 16193 05ad 3A       		.uleb128 0x3a
 16194 05ae 0B       		.uleb128 0xb
 16195 05af 3B       		.uleb128 0x3b
 16196 05b0 0B       		.uleb128 0xb
 16197 05b1 49       		.uleb128 0x49
 16198 05b2 13       		.uleb128 0x13
 16199 05b3 02       		.uleb128 0x2
 16200 05b4 18       		.uleb128 0x18
 16201 05b5 00       		.byte	0
 16202 05b6 00       		.byte	0
 16203 05b7 5E       		.uleb128 0x5e
 16204 05b8 2E       		.uleb128 0x2e
 16205 05b9 01       		.byte	0x1
 16206 05ba 47       		.uleb128 0x47
 16207 05bb 13       		.uleb128 0x13
 16208 05bc 3B       		.uleb128 0x3b
 16209 05bd 0B       		.uleb128 0xb
 16210 05be 20       		.uleb128 0x20
 16211 05bf 0B       		.uleb128 0xb
 16212 05c0 64       		.uleb128 0x64
 16213 05c1 13       		.uleb128 0x13
 16214 05c2 01       		.uleb128 0x1
 16215 05c3 13       		.uleb128 0x13
 16216 05c4 00       		.byte	0
 16217 05c5 00       		.byte	0
 16218 05c6 5F       		.uleb128 0x5f
 16219 05c7 05       		.uleb128 0x5
 16220 05c8 00       		.byte	0
 16221 05c9 03       		.uleb128 0x3
 16222 05ca 0E       		.uleb128 0xe
 16223 05cb 3A       		.uleb128 0x3a
 16224 05cc 0B       		.uleb128 0xb
 16225 05cd 3B       		.uleb128 0x3b
 16226 05ce 0B       		.uleb128 0xb
 16227 05cf 49       		.uleb128 0x49
 16228 05d0 13       		.uleb128 0x13
 16229 05d1 00       		.byte	0
 16230 05d2 00       		.byte	0
 16231 05d3 60       		.uleb128 0x60
 16232 05d4 05       		.uleb128 0x5
 16233 05d5 00       		.byte	0
 16234 05d6 03       		.uleb128 0x3
 16235 05d7 08       		.uleb128 0x8
 16236 05d8 3A       		.uleb128 0x3a
 16237 05d9 0B       		.uleb128 0xb
 16238 05da 3B       		.uleb128 0x3b
 16239 05db 0B       		.uleb128 0xb
 16240 05dc 49       		.uleb128 0x49
 16241 05dd 13       		.uleb128 0x13
 16242 05de 02       		.uleb128 0x2
 16243 05df 18       		.uleb128 0x18
 16244 05e0 00       		.byte	0
 16245 05e1 00       		.byte	0
ARM GAS  /tmp/cc9AvIGf.s 			page 287


 16246 05e2 61       		.uleb128 0x61
 16247 05e3 05       		.uleb128 0x5
 16248 05e4 00       		.byte	0
 16249 05e5 03       		.uleb128 0x3
 16250 05e6 08       		.uleb128 0x8
 16251 05e7 3A       		.uleb128 0x3a
 16252 05e8 0B       		.uleb128 0xb
 16253 05e9 3B       		.uleb128 0x3b
 16254 05ea 0B       		.uleb128 0xb
 16255 05eb 49       		.uleb128 0x49
 16256 05ec 13       		.uleb128 0x13
 16257 05ed 00       		.byte	0
 16258 05ee 00       		.byte	0
 16259 05ef 62       		.uleb128 0x62
 16260 05f0 2E       		.uleb128 0x2e
 16261 05f1 01       		.byte	0x1
 16262 05f2 47       		.uleb128 0x47
 16263 05f3 13       		.uleb128 0x13
 16264 05f4 11       		.uleb128 0x11
 16265 05f5 01       		.uleb128 0x1
 16266 05f6 12       		.uleb128 0x12
 16267 05f7 06       		.uleb128 0x6
 16268 05f8 40       		.uleb128 0x40
 16269 05f9 18       		.uleb128 0x18
 16270 05fa 9742     		.uleb128 0x2117
 16271 05fc 19       		.uleb128 0x19
 16272 05fd 01       		.uleb128 0x1
 16273 05fe 13       		.uleb128 0x13
 16274 05ff 00       		.byte	0
 16275 0600 00       		.byte	0
 16276 0601 63       		.uleb128 0x63
 16277 0602 2E       		.uleb128 0x2e
 16278 0603 01       		.byte	0x1
 16279 0604 47       		.uleb128 0x47
 16280 0605 13       		.uleb128 0x13
 16281 0606 11       		.uleb128 0x11
 16282 0607 01       		.uleb128 0x1
 16283 0608 12       		.uleb128 0x12
 16284 0609 06       		.uleb128 0x6
 16285 060a 40       		.uleb128 0x40
 16286 060b 18       		.uleb128 0x18
 16287 060c 64       		.uleb128 0x64
 16288 060d 13       		.uleb128 0x13
 16289 060e 9742     		.uleb128 0x2117
 16290 0610 19       		.uleb128 0x19
 16291 0611 01       		.uleb128 0x1
 16292 0612 13       		.uleb128 0x13
 16293 0613 00       		.byte	0
 16294 0614 00       		.byte	0
 16295 0615 64       		.uleb128 0x64
 16296 0616 34       		.uleb128 0x34
 16297 0617 00       		.byte	0
 16298 0618 03       		.uleb128 0x3
 16299 0619 0E       		.uleb128 0xe
 16300 061a 3A       		.uleb128 0x3a
 16301 061b 0B       		.uleb128 0xb
 16302 061c 3B       		.uleb128 0x3b
ARM GAS  /tmp/cc9AvIGf.s 			page 288


 16303 061d 0B       		.uleb128 0xb
 16304 061e 49       		.uleb128 0x49
 16305 061f 13       		.uleb128 0x13
 16306 0620 02       		.uleb128 0x2
 16307 0621 18       		.uleb128 0x18
 16308 0622 00       		.byte	0
 16309 0623 00       		.byte	0
 16310 0624 65       		.uleb128 0x65
 16311 0625 2E       		.uleb128 0x2e
 16312 0626 01       		.byte	0x1
 16313 0627 47       		.uleb128 0x47
 16314 0628 13       		.uleb128 0x13
 16315 0629 3B       		.uleb128 0x3b
 16316 062a 05       		.uleb128 0x5
 16317 062b 11       		.uleb128 0x11
 16318 062c 01       		.uleb128 0x1
 16319 062d 12       		.uleb128 0x12
 16320 062e 06       		.uleb128 0x6
 16321 062f 40       		.uleb128 0x40
 16322 0630 18       		.uleb128 0x18
 16323 0631 64       		.uleb128 0x64
 16324 0632 13       		.uleb128 0x13
 16325 0633 9642     		.uleb128 0x2116
 16326 0635 19       		.uleb128 0x19
 16327 0636 01       		.uleb128 0x1
 16328 0637 13       		.uleb128 0x13
 16329 0638 00       		.byte	0
 16330 0639 00       		.byte	0
 16331 063a 66       		.uleb128 0x66
 16332 063b 05       		.uleb128 0x5
 16333 063c 00       		.byte	0
 16334 063d 03       		.uleb128 0x3
 16335 063e 08       		.uleb128 0x8
 16336 063f 3A       		.uleb128 0x3a
 16337 0640 0B       		.uleb128 0xb
 16338 0641 3B       		.uleb128 0x3b
 16339 0642 05       		.uleb128 0x5
 16340 0643 49       		.uleb128 0x49
 16341 0644 13       		.uleb128 0x13
 16342 0645 02       		.uleb128 0x2
 16343 0646 18       		.uleb128 0x18
 16344 0647 00       		.byte	0
 16345 0648 00       		.byte	0
 16346 0649 67       		.uleb128 0x67
 16347 064a 2E       		.uleb128 0x2e
 16348 064b 01       		.byte	0x1
 16349 064c 47       		.uleb128 0x47
 16350 064d 13       		.uleb128 0x13
 16351 064e 3A       		.uleb128 0x3a
 16352 064f 0B       		.uleb128 0xb
 16353 0650 3B       		.uleb128 0x3b
 16354 0651 0B       		.uleb128 0xb
 16355 0652 11       		.uleb128 0x11
 16356 0653 01       		.uleb128 0x1
 16357 0654 12       		.uleb128 0x12
 16358 0655 06       		.uleb128 0x6
 16359 0656 40       		.uleb128 0x40
ARM GAS  /tmp/cc9AvIGf.s 			page 289


 16360 0657 18       		.uleb128 0x18
 16361 0658 64       		.uleb128 0x64
 16362 0659 13       		.uleb128 0x13
 16363 065a 9642     		.uleb128 0x2116
 16364 065c 19       		.uleb128 0x19
 16365 065d 01       		.uleb128 0x1
 16366 065e 13       		.uleb128 0x13
 16367 065f 00       		.byte	0
 16368 0660 00       		.byte	0
 16369 0661 68       		.uleb128 0x68
 16370 0662 0B       		.uleb128 0xb
 16371 0663 01       		.byte	0x1
 16372 0664 11       		.uleb128 0x11
 16373 0665 01       		.uleb128 0x1
 16374 0666 12       		.uleb128 0x12
 16375 0667 06       		.uleb128 0x6
 16376 0668 01       		.uleb128 0x1
 16377 0669 13       		.uleb128 0x13
 16378 066a 00       		.byte	0
 16379 066b 00       		.byte	0
 16380 066c 69       		.uleb128 0x69
 16381 066d 2E       		.uleb128 0x2e
 16382 066e 01       		.byte	0x1
 16383 066f 47       		.uleb128 0x47
 16384 0670 13       		.uleb128 0x13
 16385 0671 3A       		.uleb128 0x3a
 16386 0672 0B       		.uleb128 0xb
 16387 0673 3B       		.uleb128 0x3b
 16388 0674 0B       		.uleb128 0xb
 16389 0675 20       		.uleb128 0x20
 16390 0676 0B       		.uleb128 0xb
 16391 0677 64       		.uleb128 0x64
 16392 0678 13       		.uleb128 0x13
 16393 0679 01       		.uleb128 0x1
 16394 067a 13       		.uleb128 0x13
 16395 067b 00       		.byte	0
 16396 067c 00       		.byte	0
 16397 067d 6A       		.uleb128 0x6a
 16398 067e 2E       		.uleb128 0x2e
 16399 067f 01       		.byte	0x1
 16400 0680 47       		.uleb128 0x47
 16401 0681 13       		.uleb128 0x13
 16402 0682 11       		.uleb128 0x11
 16403 0683 01       		.uleb128 0x1
 16404 0684 12       		.uleb128 0x12
 16405 0685 06       		.uleb128 0x6
 16406 0686 40       		.uleb128 0x40
 16407 0687 18       		.uleb128 0x18
 16408 0688 64       		.uleb128 0x64
 16409 0689 13       		.uleb128 0x13
 16410 068a 9642     		.uleb128 0x2116
 16411 068c 19       		.uleb128 0x19
 16412 068d 01       		.uleb128 0x1
 16413 068e 13       		.uleb128 0x13
 16414 068f 00       		.byte	0
 16415 0690 00       		.byte	0
 16416 0691 6B       		.uleb128 0x6b
ARM GAS  /tmp/cc9AvIGf.s 			page 290


 16417 0692 05       		.uleb128 0x5
 16418 0693 00       		.byte	0
 16419 0694 03       		.uleb128 0x3
 16420 0695 0E       		.uleb128 0xe
 16421 0696 3A       		.uleb128 0x3a
 16422 0697 0B       		.uleb128 0xb
 16423 0698 3B       		.uleb128 0x3b
 16424 0699 05       		.uleb128 0x5
 16425 069a 49       		.uleb128 0x49
 16426 069b 13       		.uleb128 0x13
 16427 069c 02       		.uleb128 0x2
 16428 069d 18       		.uleb128 0x18
 16429 069e 00       		.byte	0
 16430 069f 00       		.byte	0
 16431 06a0 6C       		.uleb128 0x6c
 16432 06a1 34       		.uleb128 0x34
 16433 06a2 00       		.byte	0
 16434 06a3 03       		.uleb128 0x3
 16435 06a4 0E       		.uleb128 0xe
 16436 06a5 3A       		.uleb128 0x3a
 16437 06a6 0B       		.uleb128 0xb
 16438 06a7 3B       		.uleb128 0x3b
 16439 06a8 05       		.uleb128 0x5
 16440 06a9 49       		.uleb128 0x49
 16441 06aa 13       		.uleb128 0x13
 16442 06ab 02       		.uleb128 0x2
 16443 06ac 18       		.uleb128 0x18
 16444 06ad 00       		.byte	0
 16445 06ae 00       		.byte	0
 16446 06af 6D       		.uleb128 0x6d
 16447 06b0 34       		.uleb128 0x34
 16448 06b1 00       		.byte	0
 16449 06b2 03       		.uleb128 0x3
 16450 06b3 0E       		.uleb128 0xe
 16451 06b4 3A       		.uleb128 0x3a
 16452 06b5 0B       		.uleb128 0xb
 16453 06b6 3B       		.uleb128 0x3b
 16454 06b7 0B       		.uleb128 0xb
 16455 06b8 49       		.uleb128 0x49
 16456 06b9 13       		.uleb128 0x13
 16457 06ba 3F       		.uleb128 0x3f
 16458 06bb 19       		.uleb128 0x19
 16459 06bc 3C       		.uleb128 0x3c
 16460 06bd 19       		.uleb128 0x19
 16461 06be 00       		.byte	0
 16462 06bf 00       		.byte	0
 16463 06c0 6E       		.uleb128 0x6e
 16464 06c1 34       		.uleb128 0x34
 16465 06c2 00       		.byte	0
 16466 06c3 03       		.uleb128 0x3
 16467 06c4 0E       		.uleb128 0xe
 16468 06c5 3A       		.uleb128 0x3a
 16469 06c6 0B       		.uleb128 0xb
 16470 06c7 3B       		.uleb128 0x3b
 16471 06c8 05       		.uleb128 0x5
 16472 06c9 49       		.uleb128 0x49
 16473 06ca 13       		.uleb128 0x13
ARM GAS  /tmp/cc9AvIGf.s 			page 291


 16474 06cb 3F       		.uleb128 0x3f
 16475 06cc 19       		.uleb128 0x19
 16476 06cd 3C       		.uleb128 0x3c
 16477 06ce 19       		.uleb128 0x19
 16478 06cf 00       		.byte	0
 16479 06d0 00       		.byte	0
 16480 06d1 00       		.byte	0
 16481              		.section	.debug_aranges,"",%progbits
 16482 0000 8C020000 		.4byte	0x28c
 16483 0004 0200     		.2byte	0x2
 16484 0006 00000000 		.4byte	.Ldebug_info0
 16485 000a 04       		.byte	0x4
 16486 000b 00       		.byte	0
 16487 000c 0000     		.2byte	0
 16488 000e 0000     		.2byte	0
 16489 0010 00000000 		.4byte	.LFB6
 16490 0014 0C000000 		.4byte	.LFE6-.LFB6
 16491 0018 00000000 		.4byte	.LFB9
 16492 001c 0C000000 		.4byte	.LFE9-.LFB9
 16493 0020 00000000 		.4byte	.LFB18
 16494 0024 0E000000 		.4byte	.LFE18-.LFB18
 16495 0028 00000000 		.4byte	.LFB19
 16496 002c 0E000000 		.4byte	.LFE19-.LFB19
 16497 0030 00000000 		.4byte	.LFB21
 16498 0034 1A000000 		.4byte	.LFE21-.LFB21
 16499 0038 00000000 		.4byte	.LFB24
 16500 003c 1A000000 		.4byte	.LFE24-.LFB24
 16501 0040 00000000 		.4byte	.LFB26
 16502 0044 08000000 		.4byte	.LFE26-.LFB26
 16503 0048 00000000 		.4byte	.LFB27
 16504 004c 08000000 		.4byte	.LFE27-.LFB27
 16505 0050 00000000 		.4byte	.LFB36
 16506 0054 0E000000 		.4byte	.LFE36-.LFB36
 16507 0058 00000000 		.4byte	.LFB38
 16508 005c 18000000 		.4byte	.LFE38-.LFB38
 16509 0060 00000000 		.4byte	.LFB39
 16510 0064 1E000000 		.4byte	.LFE39-.LFB39
 16511 0068 00000000 		.4byte	.LFB41
 16512 006c 1E000000 		.4byte	.LFE41-.LFB41
 16513 0070 00000000 		.4byte	.LFB45
 16514 0074 24000000 		.4byte	.LFE45-.LFB45
 16515 0078 00000000 		.4byte	.LFB151
 16516 007c 16000000 		.4byte	.LFE151-.LFB151
 16517 0080 00000000 		.4byte	.LFB162
 16518 0084 16000000 		.4byte	.LFE162-.LFB162
 16519 0088 00000000 		.4byte	.LFB171
 16520 008c 1E000000 		.4byte	.LFE171-.LFB171
 16521 0090 00000000 		.4byte	.LFB179
 16522 0094 3C000000 		.4byte	.LFE179-.LFB179
 16523 0098 00000000 		.4byte	.LFB180
 16524 009c 40000000 		.4byte	.LFE180-.LFB180
 16525 00a0 00000000 		.4byte	.LFB181
 16526 00a4 12000000 		.4byte	.LFE181-.LFB181
 16527 00a8 00000000 		.4byte	.LFB284
 16528 00ac 0E000000 		.4byte	.LFE284-.LFB284
 16529 00b0 00000000 		.4byte	.LFB287
 16530 00b4 1A000000 		.4byte	.LFE287-.LFB287
ARM GAS  /tmp/cc9AvIGf.s 			page 292


 16531 00b8 00000000 		.4byte	.LFB294
 16532 00bc 20000000 		.4byte	.LFE294-.LFB294
 16533 00c0 00000000 		.4byte	.LFB295
 16534 00c4 20000000 		.4byte	.LFE295-.LFB295
 16535 00c8 00000000 		.4byte	.LFB301
 16536 00cc 28000000 		.4byte	.LFE301-.LFB301
 16537 00d0 00000000 		.4byte	.LFB304
 16538 00d4 1A000000 		.4byte	.LFE304-.LFB304
 16539 00d8 00000000 		.4byte	.LFB309
 16540 00dc 1A000000 		.4byte	.LFE309-.LFB309
 16541 00e0 00000000 		.4byte	.LFB593
 16542 00e4 0E000000 		.4byte	.LFE593-.LFB593
 16543 00e8 00000000 		.4byte	.LFB596
 16544 00ec 88000000 		.4byte	.LFE596-.LFB596
 16545 00f0 00000000 		.4byte	.LFB597
 16546 00f4 8A000000 		.4byte	.LFE597-.LFB597
 16547 00f8 00000000 		.4byte	.LFB598
 16548 00fc DA000000 		.4byte	.LFE598-.LFB598
 16549 0100 00000000 		.4byte	.LFB599
 16550 0104 20000000 		.4byte	.LFE599-.LFB599
 16551 0108 00000000 		.4byte	.LFB600
 16552 010c 88000000 		.4byte	.LFE600-.LFB600
 16553 0110 00000000 		.4byte	.LFB601
 16554 0114 AE000000 		.4byte	.LFE601-.LFB601
 16555 0118 00000000 		.4byte	.LFB602
 16556 011c DA000000 		.4byte	.LFE602-.LFB602
 16557 0120 00000000 		.4byte	.LFB603
 16558 0124 40000000 		.4byte	.LFE603-.LFB603
 16559 0128 00000000 		.4byte	.LFB604
 16560 012c 40000000 		.4byte	.LFE604-.LFB604
 16561 0130 00000000 		.4byte	.LFB605
 16562 0134 3A000000 		.4byte	.LFE605-.LFB605
 16563 0138 00000000 		.4byte	.LFB606
 16564 013c 3A000000 		.4byte	.LFE606-.LFB606
 16565 0140 00000000 		.4byte	.LFB607
 16566 0144 64000000 		.4byte	.LFE607-.LFB607
 16567 0148 00000000 		.4byte	.LFB618
 16568 014c 90000000 		.4byte	.LFE618-.LFB618
 16569 0150 00000000 		.4byte	.LFB632
 16570 0154 18000000 		.4byte	.LFE632-.LFB632
 16571 0158 00000000 		.4byte	.LFB633
 16572 015c 18000000 		.4byte	.LFE633-.LFB633
 16573 0160 00000000 		.4byte	.LFB641
 16574 0164 20000000 		.4byte	.LFE641-.LFB641
 16575 0168 00000000 		.4byte	.LFB645
 16576 016c 18000000 		.4byte	.LFE645-.LFB645
 16577 0170 00000000 		.4byte	.LFB646
 16578 0174 1E000000 		.4byte	.LFE646-.LFB646
 16579 0178 00000000 		.4byte	.LFB647
 16580 017c 16000000 		.4byte	.LFE647-.LFB647
 16581 0180 00000000 		.4byte	.LFB648
 16582 0184 10000000 		.4byte	.LFE648-.LFB648
 16583 0188 00000000 		.4byte	.LFB649
 16584 018c 20000000 		.4byte	.LFE649-.LFB649
 16585 0190 00000000 		.4byte	.LFB653
 16586 0194 18000000 		.4byte	.LFE653-.LFB653
 16587 0198 00000000 		.4byte	.LFB654
ARM GAS  /tmp/cc9AvIGf.s 			page 293


 16588 019c 1E000000 		.4byte	.LFE654-.LFB654
 16589 01a0 00000000 		.4byte	.LFB655
 16590 01a4 16000000 		.4byte	.LFE655-.LFB655
 16591 01a8 00000000 		.4byte	.LFB656
 16592 01ac 10000000 		.4byte	.LFE656-.LFB656
 16593 01b0 00000000 		.4byte	.LFB657
 16594 01b4 2A000000 		.4byte	.LFE657-.LFB657
 16595 01b8 00000000 		.4byte	.LFB658
 16596 01bc 20000000 		.4byte	.LFE658-.LFB658
 16597 01c0 00000000 		.4byte	.LFB662
 16598 01c4 18000000 		.4byte	.LFE662-.LFB662
 16599 01c8 00000000 		.4byte	.LFB663
 16600 01cc 1E000000 		.4byte	.LFE663-.LFB663
 16601 01d0 00000000 		.4byte	.LFB664
 16602 01d4 22000000 		.4byte	.LFE664-.LFB664
 16603 01d8 00000000 		.4byte	.LFB665
 16604 01dc 10000000 		.4byte	.LFE665-.LFB665
 16605 01e0 00000000 		.4byte	.LFB666
 16606 01e4 20000000 		.4byte	.LFE666-.LFB666
 16607 01e8 00000000 		.4byte	.LFB670
 16608 01ec 18000000 		.4byte	.LFE670-.LFB670
 16609 01f0 00000000 		.4byte	.LFB671
 16610 01f4 1E000000 		.4byte	.LFE671-.LFB671
 16611 01f8 00000000 		.4byte	.LFB672
 16612 01fc 22000000 		.4byte	.LFE672-.LFB672
 16613 0200 00000000 		.4byte	.LFB673
 16614 0204 10000000 		.4byte	.LFE673-.LFB673
 16615 0208 00000000 		.4byte	.LFB674
 16616 020c 2A000000 		.4byte	.LFE674-.LFB674
 16617 0210 00000000 		.4byte	.LFB675
 16618 0214 44000000 		.4byte	.LFE675-.LFB675
 16619 0218 00000000 		.4byte	.LFB676
 16620 021c 44000000 		.4byte	.LFE676-.LFB676
 16621 0220 00000000 		.4byte	.LFB678
 16622 0224 1C000000 		.4byte	.LFE678-.LFB678
 16623 0228 00000000 		.4byte	.LFB681
 16624 022c 1C000000 		.4byte	.LFE681-.LFB681
 16625 0230 00000000 		.4byte	.LFB684
 16626 0234 1A000000 		.4byte	.LFE684-.LFB684
 16627 0238 00000000 		.4byte	.LFB686
 16628 023c 0E000000 		.4byte	.LFE686-.LFB686
 16629 0240 00000000 		.4byte	.LFB688
 16630 0244 14000000 		.4byte	.LFE688-.LFB688
 16631 0248 00000000 		.4byte	.LFB690
 16632 024c 0E000000 		.4byte	.LFE690-.LFB690
 16633 0250 00000000 		.4byte	.LFB692
 16634 0254 14000000 		.4byte	.LFE692-.LFB692
 16635 0258 00000000 		.4byte	.LFB695
 16636 025c 20000000 		.4byte	.LFE695-.LFB695
 16637 0260 00000000 		.4byte	.LFB697
 16638 0264 14000000 		.4byte	.LFE697-.LFB697
 16639 0268 00000000 		.4byte	.LFB699
 16640 026c 20000000 		.4byte	.LFE699-.LFB699
 16641 0270 00000000 		.4byte	.LFB701
 16642 0274 14000000 		.4byte	.LFE701-.LFB701
 16643 0278 00000000 		.4byte	.LFB703
 16644 027c 54000000 		.4byte	.LFE703-.LFB703
ARM GAS  /tmp/cc9AvIGf.s 			page 294


 16645 0280 00000000 		.4byte	.LFB704
 16646 0284 54000000 		.4byte	.LFE704-.LFB704
 16647 0288 00000000 		.4byte	0
 16648 028c 00000000 		.4byte	0
 16649              		.section	.debug_ranges,"",%progbits
 16650              	.Ldebug_ranges0:
 16651 0000 00000000 		.4byte	.LFB6
 16652 0004 0C000000 		.4byte	.LFE6
 16653 0008 00000000 		.4byte	.LFB9
 16654 000c 0C000000 		.4byte	.LFE9
 16655 0010 00000000 		.4byte	.LFB18
 16656 0014 0E000000 		.4byte	.LFE18
 16657 0018 00000000 		.4byte	.LFB19
 16658 001c 0E000000 		.4byte	.LFE19
 16659 0020 00000000 		.4byte	.LFB21
 16660 0024 1A000000 		.4byte	.LFE21
 16661 0028 00000000 		.4byte	.LFB24
 16662 002c 1A000000 		.4byte	.LFE24
 16663 0030 00000000 		.4byte	.LFB26
 16664 0034 08000000 		.4byte	.LFE26
 16665 0038 00000000 		.4byte	.LFB27
 16666 003c 08000000 		.4byte	.LFE27
 16667 0040 00000000 		.4byte	.LFB36
 16668 0044 0E000000 		.4byte	.LFE36
 16669 0048 00000000 		.4byte	.LFB38
 16670 004c 18000000 		.4byte	.LFE38
 16671 0050 00000000 		.4byte	.LFB39
 16672 0054 1E000000 		.4byte	.LFE39
 16673 0058 00000000 		.4byte	.LFB41
 16674 005c 1E000000 		.4byte	.LFE41
 16675 0060 00000000 		.4byte	.LFB45
 16676 0064 24000000 		.4byte	.LFE45
 16677 0068 00000000 		.4byte	.LFB151
 16678 006c 16000000 		.4byte	.LFE151
 16679 0070 00000000 		.4byte	.LFB162
 16680 0074 16000000 		.4byte	.LFE162
 16681 0078 00000000 		.4byte	.LFB171
 16682 007c 1E000000 		.4byte	.LFE171
 16683 0080 00000000 		.4byte	.LFB179
 16684 0084 3C000000 		.4byte	.LFE179
 16685 0088 00000000 		.4byte	.LFB180
 16686 008c 40000000 		.4byte	.LFE180
 16687 0090 00000000 		.4byte	.LFB181
 16688 0094 12000000 		.4byte	.LFE181
 16689 0098 00000000 		.4byte	.LFB284
 16690 009c 0E000000 		.4byte	.LFE284
 16691 00a0 00000000 		.4byte	.LFB287
 16692 00a4 1A000000 		.4byte	.LFE287
 16693 00a8 00000000 		.4byte	.LFB294
 16694 00ac 20000000 		.4byte	.LFE294
 16695 00b0 00000000 		.4byte	.LFB295
 16696 00b4 20000000 		.4byte	.LFE295
 16697 00b8 00000000 		.4byte	.LFB301
 16698 00bc 28000000 		.4byte	.LFE301
 16699 00c0 00000000 		.4byte	.LFB304
 16700 00c4 1A000000 		.4byte	.LFE304
 16701 00c8 00000000 		.4byte	.LFB309
ARM GAS  /tmp/cc9AvIGf.s 			page 295


 16702 00cc 1A000000 		.4byte	.LFE309
 16703 00d0 00000000 		.4byte	.LFB593
 16704 00d4 0E000000 		.4byte	.LFE593
 16705 00d8 00000000 		.4byte	.LFB596
 16706 00dc 88000000 		.4byte	.LFE596
 16707 00e0 00000000 		.4byte	.LFB597
 16708 00e4 8A000000 		.4byte	.LFE597
 16709 00e8 00000000 		.4byte	.LFB598
 16710 00ec DA000000 		.4byte	.LFE598
 16711 00f0 00000000 		.4byte	.LFB599
 16712 00f4 20000000 		.4byte	.LFE599
 16713 00f8 00000000 		.4byte	.LFB600
 16714 00fc 88000000 		.4byte	.LFE600
 16715 0100 00000000 		.4byte	.LFB601
 16716 0104 AE000000 		.4byte	.LFE601
 16717 0108 00000000 		.4byte	.LFB602
 16718 010c DA000000 		.4byte	.LFE602
 16719 0110 00000000 		.4byte	.LFB603
 16720 0114 40000000 		.4byte	.LFE603
 16721 0118 00000000 		.4byte	.LFB604
 16722 011c 40000000 		.4byte	.LFE604
 16723 0120 00000000 		.4byte	.LFB605
 16724 0124 3A000000 		.4byte	.LFE605
 16725 0128 00000000 		.4byte	.LFB606
 16726 012c 3A000000 		.4byte	.LFE606
 16727 0130 00000000 		.4byte	.LFB607
 16728 0134 64000000 		.4byte	.LFE607
 16729 0138 00000000 		.4byte	.LFB618
 16730 013c 90000000 		.4byte	.LFE618
 16731 0140 00000000 		.4byte	.LFB632
 16732 0144 18000000 		.4byte	.LFE632
 16733 0148 00000000 		.4byte	.LFB633
 16734 014c 18000000 		.4byte	.LFE633
 16735 0150 00000000 		.4byte	.LFB641
 16736 0154 20000000 		.4byte	.LFE641
 16737 0158 00000000 		.4byte	.LFB645
 16738 015c 18000000 		.4byte	.LFE645
 16739 0160 00000000 		.4byte	.LFB646
 16740 0164 1E000000 		.4byte	.LFE646
 16741 0168 00000000 		.4byte	.LFB647
 16742 016c 16000000 		.4byte	.LFE647
 16743 0170 00000000 		.4byte	.LFB648
 16744 0174 10000000 		.4byte	.LFE648
 16745 0178 00000000 		.4byte	.LFB649
 16746 017c 20000000 		.4byte	.LFE649
 16747 0180 00000000 		.4byte	.LFB653
 16748 0184 18000000 		.4byte	.LFE653
 16749 0188 00000000 		.4byte	.LFB654
 16750 018c 1E000000 		.4byte	.LFE654
 16751 0190 00000000 		.4byte	.LFB655
 16752 0194 16000000 		.4byte	.LFE655
 16753 0198 00000000 		.4byte	.LFB656
 16754 019c 10000000 		.4byte	.LFE656
 16755 01a0 00000000 		.4byte	.LFB657
 16756 01a4 2A000000 		.4byte	.LFE657
 16757 01a8 00000000 		.4byte	.LFB658
 16758 01ac 20000000 		.4byte	.LFE658
ARM GAS  /tmp/cc9AvIGf.s 			page 296


 16759 01b0 00000000 		.4byte	.LFB662
 16760 01b4 18000000 		.4byte	.LFE662
 16761 01b8 00000000 		.4byte	.LFB663
 16762 01bc 1E000000 		.4byte	.LFE663
 16763 01c0 00000000 		.4byte	.LFB664
 16764 01c4 22000000 		.4byte	.LFE664
 16765 01c8 00000000 		.4byte	.LFB665
 16766 01cc 10000000 		.4byte	.LFE665
 16767 01d0 00000000 		.4byte	.LFB666
 16768 01d4 20000000 		.4byte	.LFE666
 16769 01d8 00000000 		.4byte	.LFB670
 16770 01dc 18000000 		.4byte	.LFE670
 16771 01e0 00000000 		.4byte	.LFB671
 16772 01e4 1E000000 		.4byte	.LFE671
 16773 01e8 00000000 		.4byte	.LFB672
 16774 01ec 22000000 		.4byte	.LFE672
 16775 01f0 00000000 		.4byte	.LFB673
 16776 01f4 10000000 		.4byte	.LFE673
 16777 01f8 00000000 		.4byte	.LFB674
 16778 01fc 2A000000 		.4byte	.LFE674
 16779 0200 00000000 		.4byte	.LFB675
 16780 0204 44000000 		.4byte	.LFE675
 16781 0208 00000000 		.4byte	.LFB676
 16782 020c 44000000 		.4byte	.LFE676
 16783 0210 00000000 		.4byte	.LFB678
 16784 0214 1C000000 		.4byte	.LFE678
 16785 0218 00000000 		.4byte	.LFB681
 16786 021c 1C000000 		.4byte	.LFE681
 16787 0220 00000000 		.4byte	.LFB684
 16788 0224 1A000000 		.4byte	.LFE684
 16789 0228 00000000 		.4byte	.LFB686
 16790 022c 0E000000 		.4byte	.LFE686
 16791 0230 00000000 		.4byte	.LFB688
 16792 0234 14000000 		.4byte	.LFE688
 16793 0238 00000000 		.4byte	.LFB690
 16794 023c 0E000000 		.4byte	.LFE690
 16795 0240 00000000 		.4byte	.LFB692
 16796 0244 14000000 		.4byte	.LFE692
 16797 0248 00000000 		.4byte	.LFB695
 16798 024c 20000000 		.4byte	.LFE695
 16799 0250 00000000 		.4byte	.LFB697
 16800 0254 14000000 		.4byte	.LFE697
 16801 0258 00000000 		.4byte	.LFB699
 16802 025c 20000000 		.4byte	.LFE699
 16803 0260 00000000 		.4byte	.LFB701
 16804 0264 14000000 		.4byte	.LFE701
 16805 0268 00000000 		.4byte	.LFB703
 16806 026c 54000000 		.4byte	.LFE703
 16807 0270 00000000 		.4byte	.LFB704
 16808 0274 54000000 		.4byte	.LFE704
 16809 0278 00000000 		.4byte	0
 16810 027c 00000000 		.4byte	0
 16811              		.section	.debug_line,"",%progbits
 16812              	.Ldebug_line0:
 16813 0000 240C0000 		.section	.debug_str,"MS",%progbits,1
 16813      0200C504 
 16813      00000201 
ARM GAS  /tmp/cc9AvIGf.s 			page 297


 16813      FB0E0D00 
 16813      01010101 
 16814              	.LASF333:
 16815 0000 5F5A4E33 		.ascii	"_ZN3r2p5Topic9subscribeERNS_15LocalSubscriberEj\000"
 16815      72327035 
 16815      546F7069 
 16815      63397375 
 16815      62736372 
 16816              	.LASF51:
 16817 0030 416C6C6F 		.ascii	"Allocator\000"
 16817      6361746F 
 16817      7200
 16818              	.LASF285:
 16819 003a 5F5A4E4B 		.ascii	"_ZNK3r2p5Topic13is_forwardingEv\000"
 16819      33723270 
 16819      35546F70 
 16819      69633133 
 16819      69735F66 
 16820              	.LASF741:
 16821 005a 705F6D70 		.ascii	"p_mpool\000"
 16821      6F6F6C00 
 16822              	.LASF536:
 16823 0062 6576656E 		.ascii	"event\000"
 16823      7400
 16824              	.LASF748:
 16825 0068 696E7463 		.ascii	"intctx\000"
 16825      747800
 16826              	.LASF251:
 16827 006f 5F5A4E4B 		.ascii	"_ZNK3r2p10StaticListINS_5TopicEE5countEv\000"
 16827      33723270 
 16827      31305374 
 16827      61746963 
 16827      4C697374 
 16828              	.LASF158:
 16829 0098 5F5A4E4B 		.ascii	"_ZNK3r2p10StaticListINS_15LocalSubscriberEE5countEv"
 16829      33723270 
 16829      31305374 
 16829      61746963 
 16829      4C697374 
 16830 00cb 00       		.ascii	"\000"
 16831              	.LASF715:
 16832 00cc 6D73675F 		.ascii	"msg_t\000"
 16832      7400
 16833              	.LASF585:
 16834 00d2 5F5A4E4B 		.ascii	"_ZNK3r2p10StaticListINS_9TransportEE15is_empty_unsa"
 16834      33723270 
 16834      31305374 
 16834      61746963 
 16834      4C697374 
 16835 0105 66654576 		.ascii	"feEv\000"
 16835      00
 16836              	.LASF142:
 16837 010a 5F5A4E4B 		.ascii	"_ZNK3r2p10StaticListINS_15LocalSubscriberEE17find_f"
 16837      33723270 
 16837      31305374 
 16837      61746963 
 16837      4C697374 
ARM GAS  /tmp/cc9AvIGf.s 			page 298


 16838 013d 69727374 		.ascii	"irst_unsafeEPFbRKS1_E\000"
 16838      5F756E73 
 16838      61666545 
 16838      50466252 
 16838      4B53315F 
 16839              	.LASF787:
 16840 0153 666F7277 		.ascii	"forwarding\000"
 16840      61726469 
 16840      6E6700
 16841              	.LASF367:
 16842 015e 53746174 		.ascii	"StaticList<r2p::LocalPublisher>\000"
 16842      69634C69 
 16842      73743C72 
 16842      32703A3A 
 16842      4C6F6361 
 16843              	.LASF460:
 16844 017e 5F5A4E4B 		.ascii	"_ZNK3r2p9SpinEvent10get_threadEv\000"
 16844      33723270 
 16844      39537069 
 16844      6E457665 
 16844      6E743130 
 16845              	.LASF362:
 16846 019f 5F5A4E33 		.ascii	"_ZN3r2p7Message16get_payload_sizeEj\000"
 16846      72327037 
 16846      4D657373 
 16846      61676531 
 16846      36676574 
 16847              	.LASF271:
 16848 01c3 72656D6F 		.ascii	"remote_subscribers\000"
 16848      74655F73 
 16848      75627363 
 16848      72696265 
 16848      727300
 16849              	.LASF365:
 16850 01d6 52656D6F 		.ascii	"RemotePublisher\000"
 16850      74655075 
 16850      626C6973 
 16850      68657200 
 16851              	.LASF331:
 16852 01e6 5F5A4E33 		.ascii	"_ZN3r2p5Topic9advertiseERNS_15RemotePublisherERKNS_"
 16852      72327035 
 16852      546F7069 
 16852      63396164 
 16852      76657274 
 16853 0219 3454696D 		.ascii	"4TimeE\000"
 16853      654500
 16854              	.LASF3:
 16855 0220 5F5F7569 		.ascii	"__uint8_t\000"
 16855      6E74385F 
 16855      7400
 16856              	.LASF692:
 16857 022a 646F5F63 		.ascii	"do_cmd_subscribe_response\000"
 16857      6D645F73 
 16857      75627363 
 16857      72696265 
 16857      5F726573 
 16858              	.LASF449:
ARM GAS  /tmp/cc9AvIGf.s 			page 299


 16859 0244 6765745F 		.ascii	"get_thread\000"
 16859      74687265 
 16859      616400
 16860              	.LASF352:
 16861 024f 5F5A4E33 		.ascii	"_ZN3r2p7Message12reset_unsafeEv\000"
 16861      72327037 
 16861      4D657373 
 16861      61676531 
 16861      32726573 
 16862              	.LASF398:
 16863 026f 5F5A4E4B 		.ascii	"_ZNK3r2p10StaticListINS_14LocalPublisherEE8index_of"
 16863      33723270 
 16863      31305374 
 16863      61746963 
 16863      4C697374 
 16864 02a2 45524B53 		.ascii	"ERKS1_\000"
 16864      315F00
 16865              	.LASF777:
 16866 02a9 6F626A70 		.ascii	"objp\000"
 16866      00
 16867              	.LASF697:
 16868 02ae 5F5A4E33 		.ascii	"_ZN3r2p10Middleware18is_bootloader_modeEv\000"
 16868      72327031 
 16868      304D6964 
 16868      646C6577 
 16868      61726531 
 16869              	.LASF496:
 16870 02d8 5F5A4E4B 		.ascii	"_ZNK3r2p10StaticListINS_4NodeEE13ConstIteratordeEv\000"
 16870      33723270 
 16870      31305374 
 16870      61746963 
 16870      4C697374 
 16871              	.LASF508:
 16872 030b 5F5A4E4B 		.ascii	"_ZNK3r2p10StaticListINS_4NodeEE15index_of_unsafeERK"
 16872      33723270 
 16872      31305374 
 16872      61746963 
 16872      4C697374 
 16873 033e 53315F00 		.ascii	"S1_\000"
 16874              	.LASF602:
 16875 0342 5F5A4E4B 		.ascii	"_ZNK3r2p10StaticListINS_9TransportEE5countEv\000"
 16875      33723270 
 16875      31305374 
 16875      61746963 
 16875      4C697374 
 16876              	.LASF197:
 16877 036f 5F5A4E4B 		.ascii	"_ZNK3r2p10StaticListINS_16RemoteSubscriberEE8Iterat"
 16877      33723270 
 16877      31305374 
 16877      61746963 
 16877      4C697374 
 16878 03a2 6F723869 		.ascii	"or8is_validEv\000"
 16878      735F7661 
 16878      6C696445 
 16878      7600
 16879              	.LASF658:
 16880 03b0 5F5A4E33 		.ascii	"_ZN3r2p10Middleware5startEv\000"
ARM GAS  /tmp/cc9AvIGf.s 			page 300


 16880      72327031 
 16880      304D6964 
 16880      646C6577 
 16880      61726535 
 16881              	.LASF631:
 16882 03cc 6D676D74 		.ascii	"mgmt_sub\000"
 16882      5F737562 
 16882      00
 16883              	.LASF761:
 16884 03d5 6D656D67 		.ascii	"memgetfunc_t\000"
 16884      65746675 
 16884      6E635F74 
 16884      00
 16885              	.LASF526:
 16886 03e2 5F5A4E4B 		.ascii	"_ZNK3r2p10StaticListINS_4NodeEE10find_firstEPFbRKS1"
 16886      33723270 
 16886      31305374 
 16886      61746963 
 16886      4C697374 
 16887 0415 5F504B76 		.ascii	"_PKvES6_\000"
 16887      4553365F 
 16887      00
 16888              	.LASF250:
 16889 041e 5F5A4E4B 		.ascii	"_ZNK3r2p10StaticListINS_5TopicEE8is_emptyEv\000"
 16889      33723270 
 16889      31305374 
 16889      61746963 
 16889      4C697374 
 16890              	.LASF346:
 16891 044a 6765745F 		.ascii	"get_raw_data\000"
 16891      7261775F 
 16891      64617461 
 16891      00
 16892              	.LASF450:
 16893 0457 5F5A4E4B 		.ascii	"_ZNK3r2p10SpinEvent_10get_threadEv\000"
 16893      33723270 
 16893      31305370 
 16893      696E4576 
 16893      656E745F 
 16894              	.LASF243:
 16895 047a 5F5A4E33 		.ascii	"_ZN3r2p10StaticListINS_5TopicEE12begin_unsafeEv\000"
 16895      72327031 
 16895      30537461 
 16895      7469634C 
 16895      69737449 
 16896              	.LASF325:
 16897 04aa 666F7277 		.ascii	"forward_copy\000"
 16897      6172645F 
 16897      636F7079 
 16897      00
 16898              	.LASF728:
 16899 04b7 705F6E61 		.ascii	"p_name\000"
 16899      6D6500
 16900              	.LASF760:
 16901 04be 6D5F6E65 		.ascii	"m_next\000"
 16901      787400
 16902              	.LASF517:
ARM GAS  /tmp/cc9AvIGf.s 			page 301


 16903 04c5 5F5A4E4B 		.ascii	"_ZNK3r2p10StaticListINS_4NodeEE14restart_unsafeERNS"
 16903      33723270 
 16903      31305374 
 16903      61746963 
 16903      4C697374 
 16904 04f8 325F3139 		.ascii	"2_19ConstIteratorUnsafeE\000"
 16904      436F6E73 
 16904      74497465 
 16904      7261746F 
 16904      72556E73 
 16905              	.LASF511:
 16906 0511 5F5A4E4B 		.ascii	"_ZNK3r2p10StaticListINS_4NodeEE17find_first_unsafeE"
 16906      33723270 
 16906      31305374 
 16906      61746963 
 16906      4C697374 
 16907 0544 50466252 		.ascii	"PFbRKS1_PKvES6_\000"
 16907      4B53315F 
 16907      504B7645 
 16907      53365F00 
 16908              	.LASF486:
 16909 0554 72657365 		.ascii	"reserved_\000"
 16909      72766564 
 16909      5F00
 16910              	.LASF60:
 16911 055e 746F5F73 		.ascii	"to_s_raw\000"
 16911      5F726177 
 16911      00
 16912              	.LASF457:
 16913 0567 77616974 		.ascii	"wait\000"
 16913      00
 16914              	.LASF502:
 16915 056c 5F5A4E4B 		.ascii	"_ZNK3r2p10StaticListINS_4NodeEE15get_head_unsafeEv\000"
 16915      33723270 
 16915      31305374 
 16915      61746963 
 16915      4C697374 
 16916              	.LASF705:
 16917 059f 75696E74 		.ascii	"uint16_t\000"
 16917      31365F74 
 16917      00
 16918              	.LASF509:
 16919 05a8 5F5A4E4B 		.ascii	"_ZNK3r2p10StaticListINS_4NodeEE15contains_unsafeERK"
 16919      33723270 
 16919      31305374 
 16919      61746963 
 16919      4C697374 
 16920 05db 53315F00 		.ascii	"S1_\000"
 16921              	.LASF360:
 16922 05df 6765745F 		.ascii	"get_msg_from_raw_data\000"
 16922      6D73675F 
 16922      66726F6D 
 16922      5F726177 
 16922      5F646174 
 16923              	.LASF206:
 16924 05f5 5F5A4E4B 		.ascii	"_ZNK3r2p10StaticListINS_16RemoteSubscriberEE17find_"
 16924      33723270 
ARM GAS  /tmp/cc9AvIGf.s 			page 302


 16924      31305374 
 16924      61746963 
 16924      4C697374 
 16925 0628 66697273 		.ascii	"first_unsafeEPFbRKS1_E\000"
 16925      745F756E 
 16925      73616665 
 16925      45504662 
 16925      524B5331 
 16926              	.LASF254:
 16927 063f 5F5A4E4B 		.ascii	"_ZNK3r2p10StaticListINS_5TopicEE8index_ofERKS1_\000"
 16927      33723270 
 16927      31305374 
 16927      61746963 
 16927      4C697374 
 16928              	.LASF458:
 16929 066f 5F5A4E33 		.ascii	"_ZN3r2p10SpinEvent_4waitERKNS_4TimeE\000"
 16929      72327031 
 16929      30537069 
 16929      6E457665 
 16929      6E745F34 
 16930              	.LASF576:
 16931 0694 636F756E 		.ascii	"counter\000"
 16931      74657200 
 16932              	.LASF65:
 16933 069c 5F5A4E4B 		.ascii	"_ZNK3r2p4Time5to_usEv\000"
 16933      33723270 
 16933      3454696D 
 16933      6535746F 
 16933      5F757345 
 16934              	.LASF564:
 16935 06b2 5F5A4E33 		.ascii	"_ZN3r2p6Mutex_14acquire_unsafeEv\000"
 16935      72327036 
 16935      4D757465 
 16935      785F3134 
 16935      61637175 
 16936              	.LASF609:
 16937 06d3 5F5A4E33 		.ascii	"_ZN3r2p10StaticListINS_9TransportEE5beginEv\000"
 16937      72327031 
 16937      30537461 
 16937      7469634C 
 16937      69737449 
 16938              	.LASF578:
 16939 06ff 5F5A4E33 		.ascii	"_ZN3r2p7ReMutex10initializeEv\000"
 16939      72327037 
 16939      52654D75 
 16939      74657831 
 16939      30696E69 
 16940              	.LASF589:
 16941 071d 5F5A4E33 		.ascii	"_ZN3r2p10StaticListINS_9TransportEE13unlink_unsafeE"
 16941      72327031 
 16941      30537461 
 16941      7469634C 
 16941      69737449 
 16942 0750 524E5332 		.ascii	"RNS2_4LinkE\000"
 16942      5F344C69 
 16942      6E6B4500 
 16943              	.LASF288:
ARM GAS  /tmp/cc9AvIGf.s 			page 303


 16944 075c 6861735F 		.ascii	"has_remote_publishers\000"
 16944      72656D6F 
 16944      74655F70 
 16944      75626C69 
 16944      73686572 
 16945              	.LASF396:
 16946 0772 5F5A4E33 		.ascii	"_ZN3r2p10StaticListINS_14LocalPublisherEE4linkERNS2"
 16946      72327031 
 16946      30537461 
 16946      7469634C 
 16946      69737449 
 16947 07a5 5F344C69 		.ascii	"_4LinkE\000"
 16947      6E6B4500 
 16948              	.LASF209:
 16949 07ad 5F5A4E33 		.ascii	"_ZN3r2p10StaticListINS_16RemoteSubscriberEE10end_un"
 16949      72327031 
 16949      30537461 
 16949      7469634C 
 16949      69737449 
 16950 07e0 73616665 		.ascii	"safeEv\000"
 16950      457600
 16951              	.LASF455:
 16952 07e7 7369676E 		.ascii	"signal\000"
 16952      616C00
 16953              	.LASF327:
 16954 07ee 65787465 		.ascii	"extend_pool\000"
 16954      6E645F70 
 16954      6F6F6C00 
 16955              	.LASF745:
 16956 07fa 54687265 		.ascii	"ThreadsList\000"
 16956      6164734C 
 16956      69737400 
 16957              	.LASF425:
 16958 0806 5F5A4E33 		.ascii	"_ZN3r2p7Thread_4selfEv\000"
 16958      72327037 
 16958      54687265 
 16958      61645F34 
 16958      73656C66 
 16959              	.LASF683:
 16960 081d 5F5A4E33 		.ascii	"_ZN3r2p10Middleware11touch_topicEPKcj\000"
 16960      72327031 
 16960      304D6964 
 16960      646C6577 
 16960      61726531 
 16961              	.LASF593:
 16962 0843 5F5A4E4B 		.ascii	"_ZNK3r2p10StaticListINS_9TransportEE17find_first_un"
 16962      33723270 
 16962      31305374 
 16962      61746963 
 16962      4C697374 
 16963 0876 73616665 		.ascii	"safeEPFbRKS1_PKvES6_\000"
 16963      45504662 
 16963      524B5331 
 16963      5F504B76 
 16963      4553365F 
 16964              	.LASF344:
 16965 088b 52656663 		.ascii	"RefcountType\000"
ARM GAS  /tmp/cc9AvIGf.s 			page 304


 16965      6F756E74 
 16965      54797065 
 16965      00
 16966              	.LASF211:
 16967 0898 5F5A4E4B 		.ascii	"_ZNK3r2p10StaticListINS_16RemoteSubscriberEE12begin"
 16967      33723270 
 16967      31305374 
 16967      61746963 
 16967      4C697374 
 16968 08cb 5F756E73 		.ascii	"_unsafeEv\000"
 16968      61666545 
 16968      7600
 16969              	.LASF202:
 16970 08d5 5F5A4E33 		.ascii	"_ZN3r2p10StaticListINS_16RemoteSubscriberEE16link_t"
 16970      72327031 
 16970      30537461 
 16970      7469634C 
 16970      69737449 
 16971 0908 61696C5F 		.ascii	"ail_unsafeERNS2_4LinkE\000"
 16971      756E7361 
 16971      66654552 
 16971      4E53325F 
 16971      344C696E 
 16972              	.LASF399:
 16973 091f 5F5A4E4B 		.ascii	"_ZNK3r2p10StaticListINS_14LocalPublisherEE8contains"
 16973      33723270 
 16973      31305374 
 16973      61746963 
 16973      4C697374 
 16974 0952 45524B53 		.ascii	"ERKS1_\000"
 16974      315F00
 16975              	.LASF544:
 16976 0959 5F5A4E4B 		.ascii	"_ZNK3r2p4Node11get_enabledEv\000"
 16976      33723270 
 16976      344E6F64 
 16976      65313167 
 16976      65745F65 
 16977              	.LASF354:
 16978 0976 5F5A4E33 		.ascii	"_ZN3r2p7Message7releaseEv\000"
 16978      72327037 
 16978      4D657373 
 16978      61676537 
 16978      72656C65 
 16979              	.LASF230:
 16980 0990 6765745F 		.ascii	"get_transport\000"
 16980      7472616E 
 16980      73706F72 
 16980      7400
 16981              	.LASF801:
 16982 099e 474E5520 		.ascii	"GNU C++ 4.9.3 20141119 (release) [ARM/embedded-4_9-"
 16982      432B2B20 
 16982      342E392E 
 16982      33203230 
 16982      31343131 
 16983 09d1 6272616E 		.ascii	"branch revision 218278] -mcpu=cortex-m4 -mfloat-abi"
 16983      63682072 
 16983      65766973 
ARM GAS  /tmp/cc9AvIGf.s 			page 305


 16983      696F6E20 
 16983      32313832 
 16984 0a04 3D686172 		.ascii	"=hard -mfpu=fpv4-sp-d16 -mno-thumb-interwork -mthum"
 16984      64202D6D 
 16984      6670753D 
 16984      66707634 
 16984      2D73702D 
 16985 0a37 62202D67 		.ascii	"b -ggdb -O0 -fomit-frame-pointer -falign-functions="
 16985      67646220 
 16985      2D4F3020 
 16985      2D666F6D 
 16985      69742D66 
 16986 0a6a 3136202D 		.ascii	"16 -ffunction-sections -fdata-sections -fno-common "
 16986      6666756E 
 16986      6374696F 
 16986      6E2D7365 
 16986      6374696F 
 16987 0a9d 2D667369 		.ascii	"-fsingle-precision-constant -fno-rtti -fno-exceptio"
 16987      6E676C65 
 16987      2D707265 
 16987      63697369 
 16987      6F6E2D63 
 16988 0ad0 6E73202D 		.ascii	"ns -fno-threadsafe-statics\000"
 16988      666E6F2D 
 16988      74687265 
 16988      61647361 
 16988      66652D73 
 16989              	.LASF707:
 16990 0aeb 75696E74 		.ascii	"uint32_t\000"
 16990      33325F74 
 16990      00
 16991              	.LASF330:
 16992 0af4 5F5A4E33 		.ascii	"_ZN3r2p5Topic9advertiseERNS_14LocalPublisherERKNS_4"
 16992      72327035 
 16992      546F7069 
 16992      63396164 
 16992      76657274 
 16993 0b27 54696D65 		.ascii	"TimeE\000"
 16993      4500
 16994              	.LASF17:
 16995 0b2d 73747263 		.ascii	"strcoll\000"
 16995      6F6C6C00 
 16996              	.LASF641:
 16997 0b35 626F6F74 		.ascii	"boot_mode_magic\000"
 16997      5F6D6F64 
 16997      655F6D61 
 16997      67696300 
 16998              	.LASF802:
 16999 0b45 2F686F6D 		.ascii	"/home/ergae/r2p-sdk/core/Middleware/src/Topic.cpp\000"
 16999      652F6572 
 16999      6761652F 
 16999      7232702D 
 16999      73646B2F 
 17000              	.LASF620:
 17001 0b77 6E6F6465 		.ascii	"nodes\000"
 17001      7300
 17002              	.LASF510:
ARM GAS  /tmp/cc9AvIGf.s 			page 306


 17003 0b7d 5F5A4E4B 		.ascii	"_ZNK3r2p10StaticListINS_4NodeEE17find_first_unsafeE"
 17003      33723270 
 17003      31305374 
 17003      61746963 
 17003      4C697374 
 17004 0bb0 50466252 		.ascii	"PFbRKS1_E\000"
 17004      4B53315F 
 17004      4500
 17005              	.LASF706:
 17006 0bba 696E7433 		.ascii	"int32_t\000"
 17006      325F7400 
 17007              	.LASF805:
 17008 0bc2 54797065 		.ascii	"TypeEnum\000"
 17008      456E756D 
 17008      00
 17009              	.LASF501:
 17010 0bcb 5F5A4E4B 		.ascii	"_ZNK3r2p10StaticListINS_4NodeEE13ConstIterator8is_v"
 17010      33723270 
 17010      31305374 
 17010      61746963 
 17010      4C697374 
 17011 0bfe 616C6964 		.ascii	"alidEv\000"
 17011      457600
 17012              	.LASF313:
 17013 0c05 666F7277 		.ascii	"forward_copy_unsafe\000"
 17013      6172645F 
 17013      636F7079 
 17013      5F756E73 
 17013      61666500 
 17014              	.LASF717:
 17015 0c19 73797374 		.ascii	"systime_t\000"
 17015      696D655F 
 17015      7400
 17016              	.LASF381:
 17017 0c23 5F5A4E33 		.ascii	"_ZN3r2p10StaticListINS_14LocalPublisherEE16link_tai"
 17017      72327031 
 17017      30537461 
 17017      7469634C 
 17017      69737449 
 17018 0c56 6C5F756E 		.ascii	"l_unsafeERNS2_4LinkE\000"
 17018      73616665 
 17018      45524E53 
 17018      325F344C 
 17018      696E6B45 
 17019              	.LASF427:
 17020 0c6b 7365745F 		.ascii	"set_priority\000"
 17020      7072696F 
 17020      72697479 
 17020      00
 17021              	.LASF394:
 17022 0c78 5F5A4E4B 		.ascii	"_ZNK3r2p10StaticListINS_14LocalPublisherEE8is_empty"
 17022      33723270 
 17022      31305374 
 17022      61746963 
 17022      4C697374 
 17023 0cab 457600   		.ascii	"Ev\000"
 17024              	.LASF512:
ARM GAS  /tmp/cc9AvIGf.s 			page 307


 17025 0cae 5F5A4E33 		.ascii	"_ZN3r2p10StaticListINS_4NodeEE12begin_unsafeEv\000"
 17025      72327031 
 17025      30537461 
 17025      7469634C 
 17025      69737449 
 17026              	.LASF532:
 17027 0cdd 5F5A4E4B 		.ascii	"_ZNK3r2p10StaticListINS_4NodeEE7restartERNS2_13Cons"
 17027      33723270 
 17027      31305374 
 17027      61746963 
 17027      4C697374 
 17028 0d10 74497465 		.ascii	"tIteratorE\000"
 17028      7261746F 
 17028      724500
 17029              	.LASF260:
 17030 0d1b 5F5A4E33 		.ascii	"_ZN3r2p10StaticListINS_5TopicEE7restartERNS2_8Itera"
 17030      72327031 
 17030      30537461 
 17030      7469634C 
 17030      69737449 
 17031 0d4e 746F7245 		.ascii	"torE\000"
 17031      00
 17032              	.LASF528:
 17033 0d53 5F5A4E33 		.ascii	"_ZN3r2p10StaticListINS_4NodeEE3endEv\000"
 17033      72327031 
 17033      30537461 
 17033      7469634C 
 17033      69737449 
 17034              	.LASF143:
 17035 0d78 5F5A4E4B 		.ascii	"_ZNK3r2p10StaticListINS_15LocalSubscriberEE17find_f"
 17035      33723270 
 17035      31305374 
 17035      61746963 
 17035      4C697374 
 17036 0dab 69727374 		.ascii	"irst_unsafeEPFbRKS1_PKvES6_\000"
 17036      5F756E73 
 17036      61666545 
 17036      50466252 
 17036      4B53315F 
 17037              	.LASF614:
 17038 0dc7 5F5A4E4B 		.ascii	"_ZNK3r2p10StaticListINS_9TransportEE7restartERNS2_1"
 17038      33723270 
 17038      31305374 
 17038      61746963 
 17038      4C697374 
 17039 0dfa 33436F6E 		.ascii	"3ConstIteratorE\000"
 17039      73744974 
 17039      65726174 
 17039      6F724500 
 17040              	.LASF732:
 17041 0e0a 705F7265 		.ascii	"p_refs\000"
 17041      667300
 17042              	.LASF607:
 17043 0e11 5F5A4E4B 		.ascii	"_ZNK3r2p10StaticListINS_9TransportEE10find_firstEPF"
 17043      33723270 
 17043      31305374 
 17043      61746963 
ARM GAS  /tmp/cc9AvIGf.s 			page 308


 17043      4C697374 
 17044 0e44 62524B53 		.ascii	"bRKS1_E\000"
 17044      315F4500 
 17045              	.LASF472:
 17046 0e4c 53554253 		.ascii	"SUBSCRIBE_RESPONSE\000"
 17046      43524942 
 17046      455F5245 
 17046      53504F4E 
 17046      534500
 17047              	.LASF255:
 17048 0e5f 5F5A4E4B 		.ascii	"_ZNK3r2p10StaticListINS_5TopicEE8containsERKS1_\000"
 17048      33723270 
 17048      31305374 
 17048      61746963 
 17048      4C697374 
 17049              	.LASF347:
 17050 0e8f 5F5A4E4B 		.ascii	"_ZNK3r2p7Message12get_raw_dataEv\000"
 17050      33723270 
 17050      374D6573 
 17050      73616765 
 17050      31326765 
 17051              	.LASF597:
 17052 0eb0 5F5A4E4B 		.ascii	"_ZNK3r2p10StaticListINS_9TransportEE12begin_unsafeE"
 17052      33723270 
 17052      31305374 
 17052      61746963 
 17052      4C697374 
 17053 0ee3 7600     		.ascii	"v\000"
 17054              	.LASF295:
 17055 0ee5 5F5A4E4B 		.ascii	"_ZNK3r2p5Topic22has_remote_subscribersEv\000"
 17055      33723270 
 17055      35546F70 
 17055      69633232 
 17055      6861735F 
 17056              	.LASF269:
 17057 0f0e 6E756D5F 		.ascii	"num_remote_publishers\000"
 17057      72656D6F 
 17057      74655F70 
 17057      75626C69 
 17057      73686572 
 17058              	.LASF652:
 17059 0f24 6765745F 		.ascii	"get_boot_topic\000"
 17059      626F6F74 
 17059      5F746F70 
 17059      696300
 17060              	.LASF474:
 17061 0f33 50617468 		.ascii	"Path\000"
 17061      00
 17062              	.LASF513:
 17063 0f38 5F5A4E33 		.ascii	"_ZN3r2p10StaticListINS_4NodeEE10end_unsafeEv\000"
 17063      72327031 
 17063      30537461 
 17063      7469634C 
 17063      69737449 
 17064              	.LASF685:
 17065 0f65 5F5A4E33 		.ascii	"_ZN3r2p10Middleware12mgmt_threadfEPv\000"
 17065      72327031 
ARM GAS  /tmp/cc9AvIGf.s 			page 309


 17065      304D6964 
 17065      646C6577 
 17065      61726531 
 17066              	.LASF388:
 17067 0f8a 5F5A4E33 		.ascii	"_ZN3r2p10StaticListINS_14LocalPublisherEE10end_unsa"
 17067      72327031 
 17067      30537461 
 17067      7469634C 
 17067      69737449 
 17068 0fbd 66654576 		.ascii	"feEv\000"
 17068      00
 17069              	.LASF144:
 17070 0fc2 62656769 		.ascii	"begin_unsafe\000"
 17070      6E5F756E 
 17070      73616665 
 17070      00
 17071              	.LASF297:
 17072 0fcf 5F5A4E4B 		.ascii	"_ZNK3r2p5Topic15has_subscribersEv\000"
 17072      33723270 
 17072      35546F70 
 17072      69633135 
 17072      6861735F 
 17073              	.LASF43:
 17074 0ff1 66726565 		.ascii	"free\000"
 17074      00
 17075              	.LASF178:
 17076 0ff6 53746174 		.ascii	"StaticList\000"
 17076      69634C69 
 17076      737400
 17077              	.LASF279:
 17078 1001 5F5A4E4B 		.ascii	"_ZNK3r2p5Topic13get_type_sizeEv\000"
 17078      33723270 
 17078      35546F70 
 17078      69633133 
 17078      6765745F 
 17079              	.LASF626:
 17080 1021 6D676D74 		.ascii	"mgmt_stacklen\000"
 17080      5F737461 
 17080      636B6C65 
 17080      6E00
 17081              	.LASF735:
 17082 102f 705F7761 		.ascii	"p_waiting\000"
 17082      6974696E 
 17082      6700
 17083              	.LASF307:
 17084 1039 5F5A4E33 		.ascii	"_ZN3r2p5Topic14release_unsafeERNS_7MessageE\000"
 17084      72327035 
 17084      546F7069 
 17084      63313472 
 17084      656C6561 
 17085              	.LASF799:
 17086 1065 726C6973 		.ascii	"rlist\000"
 17086      7400
 17087              	.LASF583:
 17088 106b 53746174 		.ascii	"StaticList<r2p::Transport>\000"
 17088      69634C69 
 17088      73743C72 
ARM GAS  /tmp/cc9AvIGf.s 			page 310


 17088      32703A3A 
 17088      5472616E 
 17089              	.LASF77:
 17090 1086 5F5A4E33 		.ascii	"_ZN3r2p4TimemIERKS0_\000"
 17090      72327034 
 17090      54696D65 
 17090      6D494552 
 17090      4B53305F 
 17091              	.LASF776:
 17092 109b 5F5A4E33 		.ascii	"_ZN3r2p7SysLock5ScopeD2Ev\000"
 17092      72327037 
 17092      5379734C 
 17092      6F636B35 
 17092      53636F70 
 17093              	.LASF584:
 17094 10b5 5F5A4E4B 		.ascii	"_ZNK3r2p10StaticListINS_9TransportEE15get_head_unsa"
 17094      33723270 
 17094      31305374 
 17094      61746963 
 17094      4C697374 
 17095 10e8 66654576 		.ascii	"feEv\000"
 17095      00
 17096              	.LASF411:
 17097 10ed 52657475 		.ascii	"Return\000"
 17097      726E00
 17098              	.LASF66:
 17099 10f4 746F5F6D 		.ascii	"to_ms\000"
 17099      7300
 17100              	.LASF668:
 17101 10fa 5F5A4E33 		.ascii	"_ZN3r2p10Middleware13reboot_remoteEPKcb\000"
 17101      72327031 
 17101      304D6964 
 17101      646C6577 
 17101      61726531 
 17102              	.LASF364:
 17103 1122 4C6F6361 		.ascii	"LocalPublisher\000"
 17103      6C507562 
 17103      6C697368 
 17103      657200
 17104              	.LASF235:
 17105 1131 5F5A4E4B 		.ascii	"_ZNK3r2p10StaticListINS_5TopicEE12count_unsafeEv\000"
 17105      33723270 
 17105      31305374 
 17105      61746963 
 17105      4C697374 
 17106              	.LASF340:
 17107 1162 4D657373 		.ascii	"MessageType\000"
 17107      61676554 
 17107      79706500 
 17108              	.LASF182:
 17109 116e 5F5A4E33 		.ascii	"_ZN3r2p10StaticListINS_16RemoteSubscriberEE14Iterat"
 17109      72327031 
 17109      30537461 
 17109      7469634C 
 17109      69737449 
 17110 11a1 6F72556E 		.ascii	"orUnsafeaSERKS3_\000"
 17110      73616665 
ARM GAS  /tmp/cc9AvIGf.s 			page 311


 17110      61534552 
 17110      4B53335F 
 17110      00
 17111              	.LASF44:
 17112 11b2 5F5A4E33 		.ascii	"_ZN3r2p11MemoryPool_11free_unsafeEPv\000"
 17112      72327031 
 17112      314D656D 
 17112      6F727950 
 17112      6F6F6C5F 
 17113              	.LASF172:
 17114 11d7 72657374 		.ascii	"restart\000"
 17114      61727400 
 17115              	.LASF62:
 17116 11df 746F5F6D 		.ascii	"to_m_raw\000"
 17116      5F726177 
 17116      00
 17117              	.LASF586:
 17118 11e8 5F5A4E4B 		.ascii	"_ZNK3r2p10StaticListINS_9TransportEE12count_unsafeE"
 17118      33723270 
 17118      31305374 
 17118      61746963 
 17118      4C697374 
 17119 121b 7600     		.ascii	"v\000"
 17120              	.LASF693:
 17121 121d 5F5A4E33 		.ascii	"_ZN3r2p10Middleware25do_cmd_subscribe_responseERKNS"
 17121      72327031 
 17121      304D6964 
 17121      646C6577 
 17121      61726532 
 17122 1250 5F374D67 		.ascii	"_7MgmtMsgE\000"
 17122      6D744D73 
 17122      674500
 17123              	.LASF624:
 17124 125b 6D676D74 		.ascii	"mgmt_topic\000"
 17124      5F746F70 
 17124      696300
 17125              	.LASF714:
 17126 1266 74707269 		.ascii	"tprio_t\000"
 17126      6F5F7400 
 17127              	.LASF666:
 17128 126e 5F5A4E33 		.ascii	"_ZN3r2p10Middleware11stop_remoteEPKc\000"
 17128      72327031 
 17128      304D6964 
 17128      646C6577 
 17128      61726531 
 17129              	.LASF644:
 17130 1293 6765745F 		.ascii	"get_nodes\000"
 17130      6E6F6465 
 17130      7300
 17131              	.LASF81:
 17132 129d 5F5A4E33 		.ascii	"_ZN3r2p4Time1mEl\000"
 17132      72327034 
 17132      54696D65 
 17132      316D456C 
 17132      00
 17133              	.LASF124:
 17134 12ae 4D617463 		.ascii	"Matches\000"
ARM GAS  /tmp/cc9AvIGf.s 			page 312


 17134      68657300 
 17135              	.LASF650:
 17136 12b6 6765745F 		.ascii	"get_mgmt_topic\000"
 17136      6D676D74 
 17136      5F746F70 
 17136      696300
 17137              	.LASF680:
 17138 12c5 66696E64 		.ascii	"find_node\000"
 17138      5F6E6F64 
 17138      6500
 17139              	.LASF577:
 17140 12cf 6D757465 		.ascii	"mutex\000"
 17140      7800
 17141              	.LASF134:
 17142 12d5 5F5A4E33 		.ascii	"_ZN3r2p10StaticListINS_15LocalSubscriberEE16link_ta"
 17142      72327031 
 17142      30537461 
 17142      7469634C 
 17142      69737449 
 17143 1308 696C5F75 		.ascii	"il_unsafeERNS2_4LinkE\000"
 17143      6E736166 
 17143      6545524E 
 17143      53325F34 
 17143      4C696E6B 
 17144              	.LASF318:
 17145 131e 5F5A4E33 		.ascii	"_ZN3r2p5Topic5allocEv\000"
 17145      72327035 
 17145      546F7069 
 17145      6335616C 
 17145      6C6F6345 
 17146              	.LASF88:
 17147 1334 68656164 		.ascii	"headp\000"
 17147      7000
 17148              	.LASF339:
 17149 133a 5F5A4E33 		.ascii	"_ZN3r2p5Topic12alloc_unsafeINS_7MessageEEEbRPT_\000"
 17149      72327035 
 17149      546F7069 
 17149      63313261 
 17149      6C6C6F63 
 17150              	.LASF184:
 17151 136a 5F5A4E4B 		.ascii	"_ZNK3r2p10StaticListINS_16RemoteSubscriberEE14Itera"
 17151      33723270 
 17151      31305374 
 17151      61746963 
 17151      4C697374 
 17152 139d 746F7255 		.ascii	"torUnsafedeEv\000"
 17152      6E736166 
 17152      65646545 
 17152      7600
 17153              	.LASF29:
 17154 13ab 53636F70 		.ascii	"Scope\000"
 17154      6500
 17155              	.LASF161:
 17156 13b1 756E6C69 		.ascii	"unlink\000"
 17156      6E6B00
 17157              	.LASF94:
 17158 13b8 6F706572 		.ascii	"operator*\000"
ARM GAS  /tmp/cc9AvIGf.s 			page 313


 17158      61746F72 
 17158      2A00
 17159              	.LASF26:
 17160 13c2 5F5A4E33 		.ascii	"_ZN3r2p8SysLock_7acquireEv\000"
 17160      72327038 
 17160      5379734C 
 17160      6F636B5F 
 17160      37616371 
 17161              	.LASF769:
 17162 13dd 7466756E 		.ascii	"tfunc_t\000"
 17162      635F7400 
 17163              	.LASF479:
 17164 13e5 7061796C 		.ascii	"payload_size\000"
 17164      6F61645F 
 17164      73697A65 
 17164      00
 17165              	.LASF616:
 17166 13f2 50756253 		.ascii	"PubSubStep\000"
 17166      75625374 
 17166      657000
 17167              	.LASF72:
 17168 13fd 6F706572 		.ascii	"operator=\000"
 17168      61746F72 
 17168      3D00
 17169              	.LASF703:
 17170 1407 6F706572 		.ascii	"operator>\000"
 17170      61746F72 
 17170      3E00
 17171              	.LASF93:
 17172 1411 5F5A4E4B 		.ascii	"_ZNK3r2p10StaticListINS_15LocalSubscriberEE14Iterat"
 17172      33723270 
 17172      31305374 
 17172      61746963 
 17172      4C697374 
 17173 1444 6F72556E 		.ascii	"orUnsafeptEv\000"
 17173      73616665 
 17173      70744576 
 17173      00
 17174              	.LASF6:
 17175 1451 5F5F7569 		.ascii	"__uint16_t\000"
 17175      6E743136 
 17175      5F7400
 17176              	.LASF737:
 17177 145c 705F6D73 		.ascii	"p_msg\000"
 17177      6700
 17178              	.LASF245:
 17179 1462 5F5A4E33 		.ascii	"_ZN3r2p10StaticListINS_5TopicEE14restart_unsafeERNS"
 17179      72327031 
 17179      30537461 
 17179      7469634C 
 17179      69737449 
 17180 1495 325F3134 		.ascii	"2_14IteratorUnsafeE\000"
 17180      49746572 
 17180      61746F72 
 17180      556E7361 
 17180      66654500 
 17181              	.LASF90:
ARM GAS  /tmp/cc9AvIGf.s 			page 314


 17182 14a9 63757270 		.ascii	"curp\000"
 17182      00
 17183              	.LASF443:
 17184 14ae 5F5A4E33 		.ascii	"_ZN3r2p6Thread5yieldEv\000"
 17184      72327036 
 17184      54687265 
 17184      61643579 
 17184      69656C64 
 17185              	.LASF67:
 17186 14c5 5F5A4E4B 		.ascii	"_ZNK3r2p4Time5to_msEv\000"
 17186      33723270 
 17186      3454696D 
 17186      6535746F 
 17186      5F6D7345 
 17187              	.LASF186:
 17188 14db 5F5A4E33 		.ascii	"_ZN3r2p10StaticListINS_16RemoteSubscriberEE14Iterat"
 17188      72327031 
 17188      30537461 
 17188      7469634C 
 17188      69737449 
 17189 150e 6F72556E 		.ascii	"orUnsafeppEi\000"
 17189      73616665 
 17189      70704569 
 17189      00
 17190              	.LASF384:
 17191 151b 5F5A4E4B 		.ascii	"_ZNK3r2p10StaticListINS_14LocalPublisherEE15contain"
 17191      33723270 
 17191      31305374 
 17191      61746963 
 17191      4C697374 
 17192 154e 735F756E 		.ascii	"s_unsafeERKS1_\000"
 17192      73616665 
 17192      45524B53 
 17192      315F00
 17193              	.LASF223:
 17194 155d 5F5A4E33 		.ascii	"_ZN3r2p10StaticListINS_16RemoteSubscriberEE5beginEv"
 17194      72327031 
 17194      30537461 
 17194      7469634C 
 17194      69737449 
 17195 1590 00       		.ascii	"\000"
 17196              	.LASF185:
 17197 1591 5F5A4E33 		.ascii	"_ZN3r2p10StaticListINS_16RemoteSubscriberEE14Iterat"
 17197      72327031 
 17197      30537461 
 17197      7469634C 
 17197      69737449 
 17198 15c4 6F72556E 		.ascii	"orUnsafeppEv\000"
 17198      73616665 
 17198      70704576 
 17198      00
 17199              	.LASF659:
 17200 15d1 73746F70 		.ascii	"stop\000"
 17200      00
 17201              	.LASF224:
 17202 15d6 5F5A4E33 		.ascii	"_ZN3r2p10StaticListINS_16RemoteSubscriberEE3endEv\000"
 17202      72327031 
ARM GAS  /tmp/cc9AvIGf.s 			page 315


 17202      30537461 
 17202      7469634C 
 17202      69737449 
 17203              	.LASF447:
 17204 1608 74687265 		.ascii	"threadp\000"
 17204      61647000 
 17205              	.LASF789:
 17206 1610 5F5A4E33 		.ascii	"_ZN3r2p10StaticListINS_15LocalSubscriberEEC2Ev\000"
 17206      72327031 
 17206      30537461 
 17206      7469634C 
 17206      69737449 
 17207              	.LASF724:
 17208 163f 705F7072 		.ascii	"p_prio\000"
 17208      696F00
 17209              	.LASF709:
 17210 1646 626F6F6C 		.ascii	"bool\000"
 17210      00
 17211              	.LASF453:
 17212 164b 7369676E 		.ascii	"signal_unsafe\000"
 17212      616C5F75 
 17212      6E736166 
 17212      6500
 17213              	.LASF40:
 17214 1659 66726565 		.ascii	"free_unsafe\000"
 17214      5F756E73 
 17214      61666500 
 17215              	.LASF747:
 17216 1665 73746B61 		.ascii	"stkalign_t\000"
 17216      6C69676E 
 17216      5F7400
 17217              	.LASF660:
 17218 1670 5F5A4E33 		.ascii	"_ZN3r2p10Middleware4stopEv\000"
 17218      72327031 
 17218      304D6964 
 17218      646C6577 
 17218      61726534 
 17219              	.LASF654:
 17220 168b 69735F73 		.ascii	"is_stopped\000"
 17220      746F7070 
 17220      656400
 17221              	.LASF807:
 17222 1696 5F5A4E33 		.ascii	"_ZN3r2pgtERKNS_4TimeES2_\000"
 17222      72327067 
 17222      7445524B 
 17222      4E535F34 
 17222      54696D65 
 17223              	.LASF557:
 17224 16af 5F5A4E33 		.ascii	"_ZN3r2p4Node9advertiseERNS_14LocalPublisherEPKcRKNS"
 17224      72327034 
 17224      4E6F6465 
 17224      39616476 
 17224      65727469 
 17225 16e2 5F345469 		.ascii	"_4TimeEj\000"
 17225      6D65456A 
 17225      00
 17226              	.LASF169:
ARM GAS  /tmp/cc9AvIGf.s 			page 316


 17227 16eb 5F5A4E4B 		.ascii	"_ZNK3r2p10StaticListINS_15LocalSubscriberEE10find_f"
 17227      33723270 
 17227      31305374 
 17227      61746963 
 17227      4C697374 
 17228 171e 69727374 		.ascii	"irstEPFbRKS1_PKvES6_\000"
 17228      45504662 
 17228      524B5331 
 17228      5F504B76 
 17228      4553365F 
 17229              	.LASF4:
 17230 1733 756E7369 		.ascii	"unsigned char\000"
 17230      676E6564 
 17230      20636861 
 17230      7200
 17231              	.LASF49:
 17232 1741 5F5A4E33 		.ascii	"_ZN3r2p11MemoryPool_8get_implEv\000"
 17232      72327031 
 17232      314D656D 
 17232      6F727950 
 17232      6F6F6C5F 
 17233              	.LASF471:
 17234 1761 53554253 		.ascii	"SUBSCRIBE_REQUEST\000"
 17234      43524942 
 17234      455F5245 
 17234      51554553 
 17234      5400
 17235              	.LASF548:
 17236 1773 5F5A4E33 		.ascii	"_ZN3r2p4Node13notify_unsafeEj\000"
 17236      72327034 
 17236      4E6F6465 
 17236      31336E6F 
 17236      74696679 
 17237              	.LASF108:
 17238 1791 5F5A4E4B 		.ascii	"_ZNK3r2p10StaticListINS_15LocalSubscriberEE8Iterato"
 17238      33723270 
 17238      31305374 
 17238      61746963 
 17238      4C697374 
 17239 17c4 72646545 		.ascii	"rdeEv\000"
 17239      7600
 17240              	.LASF790:
 17241 17ca 5F5A4E33 		.ascii	"_ZN3r2p10StaticListINS_16RemoteSubscriberEEC2Ev\000"
 17241      72327031 
 17241      30537461 
 17241      7469634C 
 17241      69737449 
 17242              	.LASF27:
 17243 17fa 5F5A4E33 		.ascii	"_ZN3r2p8SysLock_7releaseEv\000"
 17243      72327038 
 17243      5379734C 
 17243      6F636B5F 
 17243      3772656C 
 17244              	.LASF349:
 17245 1815 5F5A4E33 		.ascii	"_ZN3r2p7Message14acquire_unsafeEv\000"
 17245      72327037 
 17245      4D657373 
ARM GAS  /tmp/cc9AvIGf.s 			page 317


 17245      61676531 
 17245      34616371 
 17246              	.LASF174:
 17247 1837 5F5A4E4B 		.ascii	"_ZNK3r2p10StaticListINS_15LocalSubscriberEE5beginEv"
 17247      33723270 
 17247      31305374 
 17247      61746963 
 17247      4C697374 
 17248 186a 00       		.ascii	"\000"
 17249              	.LASF225:
 17250 186b 5F5A4E33 		.ascii	"_ZN3r2p10StaticListINS_16RemoteSubscriberEE7restart"
 17250      72327031 
 17250      30537461 
 17250      7469634C 
 17250      69737449 
 17251 189e 45524E53 		.ascii	"ERNS2_8IteratorE\000"
 17251      325F3849 
 17251      74657261 
 17251      746F7245 
 17251      00
 17252              	.LASF780:
 17253 18af 5F5A4E33 		.ascii	"_ZN3r2p4TimeC2ERKS0_\000"
 17253      72327034 
 17253      54696D65 
 17253      43324552 
 17253      4B53305F 
 17254              	.LASF726:
 17255 18c4 705F6E65 		.ascii	"p_newer\000"
 17255      77657200 
 17256              	.LASF446:
 17257 18cc 5370696E 		.ascii	"SpinEvent_\000"
 17257      4576656E 
 17257      745F00
 17258              	.LASF573:
 17259 18d7 5F5A4E33 		.ascii	"_ZN3r2p5Mutex7acquireEv\000"
 17259      72327035 
 17259      4D757465 
 17259      78376163 
 17259      71756972 
 17260              	.LASF415:
 17261 18ef 636F6D70 		.ascii	"compute_stack_size\000"
 17261      7574655F 
 17261      73746163 
 17261      6B5F7369 
 17261      7A6500
 17262              	.LASF725:
 17263 1902 705F6374 		.ascii	"p_ctx\000"
 17263      7800
 17264              	.LASF112:
 17265 1908 5F5A4E4B 		.ascii	"_ZNK3r2p10StaticListINS_15LocalSubscriberEE8Iterato"
 17265      33723270 
 17265      31305374 
 17265      61746963 
 17265      4C697374 
 17266 193b 726E6545 		.ascii	"rneERKS3_\000"
 17266      524B5333 
 17266      5F00
ARM GAS  /tmp/cc9AvIGf.s 			page 318


 17267              	.LASF553:
 17268 1945 6E6F7469 		.ascii	"notify_stop\000"
 17268      66795F73 
 17268      746F7000 
 17269              	.LASF756:
 17270 1951 725F6375 		.ascii	"r_current\000"
 17270      7272656E 
 17270      7400
 17271              	.LASF550:
 17272 195b 5F5A4E33 		.ascii	"_ZN3r2p4Node18notify_stop_unsafeEv\000"
 17272      72327034 
 17272      4E6F6465 
 17272      31386E6F 
 17272      74696679 
 17273              	.LASF246:
 17274 197e 5F5A4E4B 		.ascii	"_ZNK3r2p10StaticListINS_5TopicEE12begin_unsafeEv\000"
 17274      33723270 
 17274      31305374 
 17274      61746963 
 17274      4C697374 
 17275              	.LASF495:
 17276 19af 5F5A4E4B 		.ascii	"_ZNK3r2p10StaticListINS_4NodeEE13ConstIteratorptEv\000"
 17276      33723270 
 17276      31305374 
 17276      61746963 
 17276      4C697374 
 17277              	.LASF533:
 17278 19e2 4E6F6465 		.ascii	"Node\000"
 17278      00
 17279              	.LASF665:
 17280 19e7 73746F70 		.ascii	"stop_remote\000"
 17280      5F72656D 
 17280      6F746500 
 17281              	.LASF537:
 17282 19f3 74696D65 		.ascii	"timeout\000"
 17282      6F757400 
 17283              	.LASF86:
 17284 19fb 6974656D 		.ascii	"itemp\000"
 17284      7000
 17285              	.LASF123:
 17286 1a01 50726564 		.ascii	"Predicate\000"
 17286      69636174 
 17286      6500
 17287              	.LASF612:
 17288 1a0b 5F5A4E4B 		.ascii	"_ZNK3r2p10StaticListINS_9TransportEE5beginEv\000"
 17288      33723270 
 17288      31305374 
 17288      61746963 
 17288      4C697374 
 17289              	.LASF708:
 17290 1a38 75696E74 		.ascii	"uint64_t\000"
 17290      36345F74 
 17290      00
 17291              	.LASF645:
 17292 1a41 5F5A4E4B 		.ascii	"_ZNK3r2p10Middleware9get_nodesEv\000"
 17292      33723270 
 17292      31304D69 
ARM GAS  /tmp/cc9AvIGf.s 			page 319


 17292      64646C65 
 17292      77617265 
 17293              	.LASF282:
 17294 1a62 6765745F 		.ascii	"get_max_queue_length\000"
 17294      6D61785F 
 17294      71756575 
 17294      655F6C65 
 17294      6E677468 
 17295              	.LASF264:
 17296 1a77 546F7069 		.ascii	"Topic\000"
 17296      6300
 17297              	.LASF435:
 17298 1a7d 54687265 		.ascii	"Thread\000"
 17298      616400
 17299              	.LASF71:
 17300 1a84 5F5A4E4B 		.ascii	"_ZNK3r2p4Time4to_mEv\000"
 17300      33723270 
 17300      3454696D 
 17300      6534746F 
 17300      5F6D4576 
 17301              	.LASF323:
 17302 1a99 6E6F7469 		.ascii	"notify_remotes\000"
 17302      66795F72 
 17302      656D6F74 
 17302      657300
 17303              	.LASF156:
 17304 1aa8 5F5A4E4B 		.ascii	"_ZNK3r2p10StaticListINS_15LocalSubscriberEE8is_empt"
 17304      33723270 
 17304      31305374 
 17304      61746963 
 17304      4C697374 
 17305 1adb 79457600 		.ascii	"yEv\000"
 17306              	.LASF200:
 17307 1adf 5F5A4E4B 		.ascii	"_ZNK3r2p10StaticListINS_16RemoteSubscriberEE12count"
 17307      33723270 
 17307      31305374 
 17307      61746963 
 17307      4C697374 
 17308 1b12 5F756E73 		.ascii	"_unsafeEv\000"
 17308      61666545 
 17308      7600
 17309              	.LASF201:
 17310 1b1c 5F5A4E33 		.ascii	"_ZN3r2p10StaticListINS_16RemoteSubscriberEE11link_u"
 17310      72327031 
 17310      30537461 
 17310      7469634C 
 17310      69737449 
 17311 1b4f 6E736166 		.ascii	"nsafeERNS2_4LinkE\000"
 17311      6545524E 
 17311      53325F34 
 17311      4C696E6B 
 17311      4500
 17312              	.LASF740:
 17313 1b61 705F7265 		.ascii	"p_realprio\000"
 17313      616C7072 
 17313      696F00
 17314              	.LASF535:
ARM GAS  /tmp/cc9AvIGf.s 			page 320


 17315 1b6c 73756273 		.ascii	"subscribers\000"
 17315      63726962 
 17315      65727300 
 17316              	.LASF195:
 17317 1b78 5F5A4E4B 		.ascii	"_ZNK3r2p10StaticListINS_16RemoteSubscriberEE8Iterat"
 17317      33723270 
 17317      31305374 
 17317      61746963 
 17317      4C697374 
 17318 1bab 6F726571 		.ascii	"oreqERKS3_\000"
 17318      45524B53 
 17318      335F00
 17319              	.LASF375:
 17320 1bb6 5F5A4E4B 		.ascii	"_ZNK3r2p10StaticListINS_14LocalPublisherEE13ConstIt"
 17320      33723270 
 17320      31305374 
 17320      61746963 
 17320      4C697374 
 17321 1be9 65726174 		.ascii	"eratorneERKS3_\000"
 17321      6F726E65 
 17321      45524B53 
 17321      335F00
 17322              	.LASF397:
 17323 1bf8 5F5A4E33 		.ascii	"_ZN3r2p10StaticListINS_14LocalPublisherEE6unlinkERN"
 17323      72327031 
 17323      30537461 
 17323      7469634C 
 17323      69737449 
 17324 1c2b 53325F34 		.ascii	"S2_4LinkE\000"
 17324      4C696E6B 
 17324      4500
 17325              	.LASF229:
 17326 1c35 4974656D 		.ascii	"Item\000"
 17326      00
 17327              	.LASF565:
 17328 1c3a 5F5A4E33 		.ascii	"_ZN3r2p6Mutex_14release_unsafeEv\000"
 17328      72327036 
 17328      4D757465 
 17328      785F3134 
 17328      72656C65 
 17329              	.LASF64:
 17330 1c5b 746F5F75 		.ascii	"to_us\000"
 17330      7300
 17331              	.LASF84:
 17332 1c61 696D706C 		.ascii	"impl\000"
 17332      00
 17333              	.LASF463:
 17334 1c66 5F5A4E33 		.ascii	"_ZN3r2p9SpinEvent6signalEj\000"
 17334      72327039 
 17334      5370696E 
 17334      4576656E 
 17334      74367369 
 17335              	.LASF37:
 17336 1c81 5F5A4E4B 		.ascii	"_ZNK3r2p11MemoryPool_13get_allocatorEv\000"
 17336      33723270 
 17336      31314D65 
 17336      6D6F7279 
ARM GAS  /tmp/cc9AvIGf.s 			page 321


 17336      506F6F6C 
 17337              	.LASF440:
 17338 1ca8 5F5A4E33 		.ascii	"_ZN3r2p6Thread4selfEv\000"
 17338      72327036 
 17338      54687265 
 17338      61643473 
 17338      656C6645 
 17339              	.LASF439:
 17340 1cbe 5F5A4E33 		.ascii	"_ZN3r2p6Thread11create_heapEPvjmPFlS1_ES1_PKc\000"
 17340      72327036 
 17340      54687265 
 17340      61643131 
 17340      63726561 
 17341              	.LASF523:
 17342 1cec 5F5A4E4B 		.ascii	"_ZNK3r2p10StaticListINS_4NodeEE8index_ofERKS1_\000"
 17342      33723270 
 17342      31305374 
 17342      61746963 
 17342      4C697374 
 17343              	.LASF133:
 17344 1d1b 5F5A4E33 		.ascii	"_ZN3r2p10StaticListINS_15LocalSubscriberEE11link_un"
 17344      72327031 
 17344      30537461 
 17344      7469634C 
 17344      69737449 
 17345 1d4e 73616665 		.ascii	"safeERNS2_4LinkE\000"
 17345      45524E53 
 17345      325F344C 
 17345      696E6B45 
 17345      00
 17346              	.LASF574:
 17347 1d5f 5F5A4E33 		.ascii	"_ZN3r2p5Mutex7releaseEv\000"
 17347      72327035 
 17347      4D757465 
 17347      78377265 
 17347      6C656173 
 17348              	.LASF42:
 17349 1d77 5F5A4E33 		.ascii	"_ZN3r2p11MemoryPool_5allocEv\000"
 17349      72327031 
 17349      314D656D 
 17349      6F727950 
 17349      6F6F6C5F 
 17350              	.LASF569:
 17351 1d94 4D757465 		.ascii	"Mutex\000"
 17351      7800
 17352              	.LASF386:
 17353 1d9a 5F5A4E4B 		.ascii	"_ZNK3r2p10StaticListINS_14LocalPublisherEE17find_fi"
 17353      33723270 
 17353      31305374 
 17353      61746963 
 17353      4C697374 
 17354 1dcd 7273745F 		.ascii	"rst_unsafeEPFbRKS1_PKvES6_\000"
 17354      756E7361 
 17354      66654550 
 17354      4662524B 
 17354      53315F50 
 17355              	.LASF591:
ARM GAS  /tmp/cc9AvIGf.s 			page 322


 17356 1de8 5F5A4E4B 		.ascii	"_ZNK3r2p10StaticListINS_9TransportEE15contains_unsa"
 17356      33723270 
 17356      31305374 
 17356      61746963 
 17356      4C697374 
 17357 1e1b 66654552 		.ascii	"feERKS1_\000"
 17357      4B53315F 
 17357      00
 17358              	.LASF152:
 17359 1e24 5F5A4E4B 		.ascii	"_ZNK3r2p10StaticListINS_15LocalSubscriberEE14restar"
 17359      33723270 
 17359      31305374 
 17359      61746963 
 17359      4C697374 
 17360 1e57 745F756E 		.ascii	"t_unsafeERNS2_19ConstIteratorUnsafeE\000"
 17360      73616665 
 17360      45524E53 
 17360      325F3139 
 17360      436F6E73 
 17361              	.LASF451:
 17362 1e7c 7365745F 		.ascii	"set_thread\000"
 17362      74687265 
 17362      616400
 17363              	.LASF54:
 17364 1e87 494E4649 		.ascii	"INFINITE\000"
 17364      4E495445 
 17364      00
 17365              	.LASF806:
 17366 1e90 73746174 		.ascii	"static_cast_check<r2p::Message, r2p::Message>\000"
 17366      69635F63 
 17366      6173745F 
 17366      63686563 
 17366      6B3C7232 
 17367              	.LASF265:
 17368 1ebe 6E616D65 		.ascii	"namep\000"
 17368      7000
 17369              	.LASF212:
 17370 1ec4 5F5A4E4B 		.ascii	"_ZNK3r2p10StaticListINS_16RemoteSubscriberEE10end_u"
 17370      33723270 
 17370      31305374 
 17370      61746963 
 17370      4C697374 
 17371 1ef7 6E736166 		.ascii	"nsafeEv\000"
 17371      65457600 
 17372              	.LASF129:
 17373 1eff 636F756E 		.ascii	"count_unsafe\000"
 17373      745F756E 
 17373      73616665 
 17373      00
 17374              	.LASF159:
 17375 1f0c 6C696E6B 		.ascii	"link\000"
 17375      00
 17376              	.LASF59:
 17377 1f11 5F5A4E4B 		.ascii	"_ZNK3r2p4Time9to_ms_rawEv\000"
 17377      33723270 
 17377      3454696D 
 17377      6539746F 
ARM GAS  /tmp/cc9AvIGf.s 			page 323


 17377      5F6D735F 
 17378              	.LASF546:
 17379 1f2b 5F5A4E33 		.ascii	"_ZN3r2p4Node11set_enabledEb\000"
 17379      72327034 
 17379      4E6F6465 
 17379      31317365 
 17379      745F656E 
 17380              	.LASF52:
 17381 1f47 54797065 		.ascii	"Type\000"
 17381      00
 17382              	.LASF198:
 17383 1f4c 5F5A4E4B 		.ascii	"_ZNK3r2p10StaticListINS_16RemoteSubscriberEE15get_h"
 17383      33723270 
 17383      31305374 
 17383      61746963 
 17383      4C697374 
 17384 1f7f 6561645F 		.ascii	"ead_unsafeEv\000"
 17384      756E7361 
 17384      66654576 
 17384      00
 17385              	.LASF736:
 17386 1f8c 705F6D73 		.ascii	"p_msgqueue\000"
 17386      67717565 
 17386      756500
 17387              	.LASF341:
 17388 1f97 616C6C6F 		.ascii	"alloc<r2p::Message>\000"
 17388      633C7232 
 17388      703A3A4D 
 17388      65737361 
 17388      67653E00 
 17389              	.LASF89:
 17390 1fab 49746572 		.ascii	"IteratorUnsafe\000"
 17390      61746F72 
 17390      556E7361 
 17390      666500
 17391              	.LASF24:
 17392 1fba 61637175 		.ascii	"acquire\000"
 17392      69726500 
 17393              	.LASF516:
 17394 1fc2 5F5A4E4B 		.ascii	"_ZNK3r2p10StaticListINS_4NodeEE10end_unsafeEv\000"
 17394      33723270 
 17394      31305374 
 17394      61746963 
 17394      4C697374 
 17395              	.LASF413:
 17396 1ff0 5F5A4E4B 		.ascii	"_ZNK3r2p7Thread_8get_nameEv\000"
 17396      33723270 
 17396      37546872 
 17396      6561645F 
 17396      38676574 
 17397              	.LASF252:
 17398 200c 5F5A4E33 		.ascii	"_ZN3r2p10StaticListINS_5TopicEE4linkERNS2_4LinkE\000"
 17398      72327031 
 17398      30537461 
 17398      7469634C 
 17398      69737449 
 17399              	.LASF361:
ARM GAS  /tmp/cc9AvIGf.s 			page 324


 17400 203d 5F5A4E33 		.ascii	"_ZN3r2p7Message21get_msg_from_raw_dataEPKh\000"
 17400      72327037 
 17400      4D657373 
 17400      61676532 
 17400      31676574 
 17401              	.LASF2:
 17402 2068 73697A65 		.ascii	"size_t\000"
 17402      5F7400
 17403              	.LASF363:
 17404 206f 5F5A4E33 		.ascii	"_ZN3r2p7Message13get_type_sizeEj\000"
 17404      72327037 
 17404      4D657373 
 17404      61676531 
 17404      33676574 
 17405              	.LASF600:
 17406 2090 5F5A4E4B 		.ascii	"_ZNK3r2p10StaticListINS_9TransportEE8get_headEv\000"
 17406      33723270 
 17406      31305374 
 17406      61746963 
 17406      4C697374 
 17407              	.LASF238:
 17408 20c0 5F5A4E33 		.ascii	"_ZN3r2p10StaticListINS_5TopicEE13unlink_unsafeERNS2"
 17408      72327031 
 17408      30537461 
 17408      7469634C 
 17408      69737449 
 17409 20f3 5F344C69 		.ascii	"_4LinkE\000"
 17409      6E6B4500 
 17410              	.LASF634:
 17411 20fb 69746572 		.ascii	"iter_nodes\000"
 17411      5F6E6F64 
 17411      657300
 17412              	.LASF53:
 17413 2106 494D4D45 		.ascii	"IMMEDIATE\000"
 17413      44494154 
 17413      4500
 17414              	.LASF742:
 17415 2110 54687265 		.ascii	"ThreadsQueue\000"
 17415      61647351 
 17415      75657565 
 17415      00
 17416              	.LASF704:
 17417 211d 75696E74 		.ascii	"uint8_t\000"
 17417      385F7400 
 17418              	.LASF774:
 17419 2125 5F5A4E33 		.ascii	"_ZN3r2p10UncopyableD2Ev\000"
 17419      72327031 
 17419      30556E63 
 17419      6F707961 
 17419      626C6544 
 17420              	.LASF755:
 17421 213d 725F6F6C 		.ascii	"r_older\000"
 17421      64657200 
 17422              	.LASF723:
 17423 2145 705F7072 		.ascii	"p_prev\000"
 17423      657600
 17424              	.LASF679:
ARM GAS  /tmp/cc9AvIGf.s 			page 325


 17425 214c 5F5A4E33 		.ascii	"_ZN3r2p10Middleware10find_topicEPKc\000"
 17425      72327031 
 17425      304D6964 
 17425      646C6577 
 17425      61726531 
 17426              	.LASF231:
 17427 2170 5F5A4E4B 		.ascii	"_ZNK3r2p16RemoteSubscriber13get_transportEv\000"
 17427      33723270 
 17427      31365265 
 17427      6D6F7465 
 17427      53756273 
 17428              	.LASF466:
 17429 219c 414C4956 		.ascii	"ALIVE\000"
 17429      4500
 17430              	.LASF337:
 17431 21a2 5F5A4E33 		.ascii	"_ZN3r2p5Topic8has_nameERKS0_PKc\000"
 17431      72327035 
 17431      546F7069 
 17431      63386861 
 17431      735F6E61 
 17432              	.LASF382:
 17433 21c2 5F5A4E33 		.ascii	"_ZN3r2p10StaticListINS_14LocalPublisherEE13unlink_u"
 17433      72327031 
 17433      30537461 
 17433      7469634C 
 17433      69737449 
 17434 21f5 6E736166 		.ascii	"nsafeERNS2_4LinkE\000"
 17434      6545524E 
 17434      53325F34 
 17434      4C696E6B 
 17434      4500
 17435              	.LASF164:
 17436 2207 5F5A4E4B 		.ascii	"_ZNK3r2p10StaticListINS_15LocalSubscriberEE8index_o"
 17436      33723270 
 17436      31305374 
 17436      61746963 
 17436      4C697374 
 17437 223a 6645524B 		.ascii	"fERKS1_\000"
 17437      53315F00 
 17438              	.LASF520:
 17439 2242 5F5A4E4B 		.ascii	"_ZNK3r2p10StaticListINS_4NodeEE5countEv\000"
 17439      33723270 
 17439      31305374 
 17439      61746963 
 17439      4C697374 
 17440              	.LASF719:
 17441 226a 65786974 		.ascii	"exitcode\000"
 17441      636F6465 
 17441      00
 17442              	.LASF524:
 17443 2273 5F5A4E4B 		.ascii	"_ZNK3r2p10StaticListINS_4NodeEE8containsERKS1_\000"
 17443      33723270 
 17443      31305374 
 17443      61746963 
 17443      4C697374 
 17444              	.LASF613:
 17445 22a2 5F5A4E4B 		.ascii	"_ZNK3r2p10StaticListINS_9TransportEE3endEv\000"
ARM GAS  /tmp/cc9AvIGf.s 			page 326


 17445      33723270 
 17445      31305374 
 17445      61746963 
 17445      4C697374 
 17446              	.LASF284:
 17447 22cd 69735F66 		.ascii	"is_forwarding\000"
 17447      6F727761 
 17447      7264696E 
 17447      6700
 17448              	.LASF676:
 17449 22db 636F6E66 		.ascii	"confirm_stop\000"
 17449      69726D5F 
 17449      73746F70 
 17449      00
 17450              	.LASF392:
 17451 22e8 5F5A4E4B 		.ascii	"_ZNK3r2p10StaticListINS_14LocalPublisherEE14restart"
 17451      33723270 
 17451      31305374 
 17451      61746963 
 17451      4C697374 
 17452 231b 5F756E73 		.ascii	"_unsafeERNS2_19ConstIteratorUnsafeE\000"
 17452      61666545 
 17452      524E5332 
 17452      5F313943 
 17452      6F6E7374 
 17453              	.LASF702:
 17454 233f 42617365 		.ascii	"Base\000"
 17454      00
 17455              	.LASF324:
 17456 2344 5F5A4E33 		.ascii	"_ZN3r2p5Topic14notify_remotesERNS_7MessageERKNS_4Ti"
 17456      72327035 
 17456      546F7069 
 17456      6331346E 
 17456      6F746966 
 17457 2377 6D654500 		.ascii	"meE\000"
 17458              	.LASF259:
 17459 237b 5F5A4E33 		.ascii	"_ZN3r2p10StaticListINS_5TopicEE3endEv\000"
 17459      72327031 
 17459      30537461 
 17459      7469634C 
 17459      69737449 
 17460              	.LASF214:
 17461 23a1 5F5A4E4B 		.ascii	"_ZNK3r2p10StaticListINS_16RemoteSubscriberEE8get_he"
 17461      33723270 
 17461      31305374 
 17461      61746963 
 17461      4C697374 
 17462 23d4 61644576 		.ascii	"adEv\000"
 17462      00
 17463              	.LASF428:
 17464 23d9 5F5A4E33 		.ascii	"_ZN3r2p7Thread_12set_priorityEm\000"
 17464      72327037 
 17464      54687265 
 17464      61645F31 
 17464      32736574 
 17465              	.LASF267:
 17466 23f9 6D73675F 		.ascii	"msg_pool\000"
ARM GAS  /tmp/cc9AvIGf.s 			page 327


 17466      706F6F6C 
 17466      00
 17467              	.LASF625:
 17468 2402 6D676D74 		.ascii	"mgmt_stackp\000"
 17468      5F737461 
 17468      636B7000 
 17469              	.LASF387:
 17470 240e 5F5A4E33 		.ascii	"_ZN3r2p10StaticListINS_14LocalPublisherEE12begin_un"
 17470      72327031 
 17470      30537461 
 17470      7469634C 
 17470      69737449 
 17471 2441 73616665 		.ascii	"safeEv\000"
 17471      457600
 17472              	.LASF296:
 17473 2448 6861735F 		.ascii	"has_subscribers\000"
 17473      73756273 
 17473      63726962 
 17473      65727300 
 17474              	.LASF556:
 17475 2458 5F5A4E33 		.ascii	"_ZN3r2p4Node4spinERKNS_4TimeE\000"
 17475      72327034 
 17475      4E6F6465 
 17475      34737069 
 17475      6E45524B 
 17476              	.LASF165:
 17477 2476 636F6E74 		.ascii	"contains\000"
 17477      61696E73 
 17477      00
 17478              	.LASF547:
 17479 247f 6E6F7469 		.ascii	"notify_unsafe\000"
 17479      66795F75 
 17479      6E736166 
 17479      6500
 17480              	.LASF192:
 17481 248d 5F5A4E4B 		.ascii	"_ZNK3r2p10StaticListINS_16RemoteSubscriberEE8Iterat"
 17481      33723270 
 17481      31305374 
 17481      61746963 
 17481      4C697374 
 17482 24c0 6F726465 		.ascii	"ordeEv\000"
 17482      457600
 17483              	.LASF563:
 17484 24c7 5F5A4E33 		.ascii	"_ZN3r2p6Mutex_10initializeEv\000"
 17484      72327036 
 17484      4D757465 
 17484      785F3130 
 17484      696E6974 
 17485              	.LASF48:
 17486 24e4 6765745F 		.ascii	"get_impl\000"
 17486      696D706C 
 17486      00
 17487              	.LASF429:
 17488 24ed 7969656C 		.ascii	"yield\000"
 17488      6400
 17489              	.LASF441:
 17490 24f3 5F5A4E33 		.ascii	"_ZN3r2p6Thread12get_priorityEv\000"
ARM GAS  /tmp/cc9AvIGf.s 			page 328


 17490      72327036 
 17490      54687265 
 17490      61643132 
 17490      6765745F 
 17491              	.LASF45:
 17492 2512 5F5A4E33 		.ascii	"_ZN3r2p11MemoryPool_4freeEPv\000"
 17492      72327031 
 17492      314D656D 
 17492      6F727950 
 17492      6F6F6C5F 
 17493              	.LASF684:
 17494 252f 6D676D74 		.ascii	"mgmt_threadf\000"
 17494      5F746872 
 17494      65616466 
 17494      00
 17495              	.LASF788:
 17496 253c 5F5A4E33 		.ascii	"_ZN3r2p5TopicC2EPKcjb\000"
 17496      72327035 
 17496      546F7069 
 17496      63433245 
 17496      504B636A 
 17497              	.LASF115:
 17498 2552 5F5A4E33 		.ascii	"_ZN3r2p10StaticListINS_15LocalSubscriberEE13ConstIt"
 17498      72327031 
 17498      30537461 
 17498      7469634C 
 17498      69737449 
 17499 2585 65726174 		.ascii	"eratoraSERKS3_\000"
 17499      6F726153 
 17499      45524B53 
 17499      335F00
 17500              	.LASF489:
 17501 2594 7061796C 		.ascii	"payload\000"
 17501      6F616400 
 17502              	.LASF753:
 17503 259c 725F6374 		.ascii	"r_ctx\000"
 17503      7800
 17504              	.LASF651:
 17505 25a2 5F5A4E33 		.ascii	"_ZN3r2p10Middleware14get_mgmt_topicEv\000"
 17505      72327031 
 17505      304D6964 
 17505      646C6577 
 17505      61726531 
 17506              	.LASF664:
 17507 25c8 5F5A4E33 		.ascii	"_ZN3r2p10Middleware23preload_bootloader_modeEb\000"
 17507      72327031 
 17507      304D6964 
 17507      646C6577 
 17507      61726532 
 17508              	.LASF549:
 17509 25f7 6E6F7469 		.ascii	"notify_stop_unsafe\000"
 17509      66795F73 
 17509      746F705F 
 17509      756E7361 
 17509      666500
 17510              	.LASF483:
 17511 260a 73746F70 		.ascii	"stopped\000"
ARM GAS  /tmp/cc9AvIGf.s 			page 329


 17511      70656400 
 17512              	.LASF56:
 17513 2612 746F5F75 		.ascii	"to_us_raw\000"
 17513      735F7261 
 17513      7700
 17514              	.LASF718:
 17515 261c 7264796D 		.ascii	"rdymsg\000"
 17515      736700
 17516              	.LASF619:
 17517 2623 6D6F6475 		.ascii	"module_namep\000"
 17517      6C655F6E 
 17517      616D6570 
 17517      00
 17518              	.LASF639:
 17519 2630 696E7374 		.ascii	"instance\000"
 17519      616E6365 
 17519      00
 17520              	.LASF531:
 17521 2639 5F5A4E4B 		.ascii	"_ZNK3r2p10StaticListINS_4NodeEE3endEv\000"
 17521      33723270 
 17521      31305374 
 17521      61746963 
 17521      4C697374 
 17522              	.LASF506:
 17523 265f 5F5A4E33 		.ascii	"_ZN3r2p10StaticListINS_4NodeEE16link_tail_unsafeERN"
 17523      72327031 
 17523      30537461 
 17523      7469634C 
 17523      69737449 
 17524 2692 53325F34 		.ascii	"S2_4LinkE\000"
 17524      4C696E6B 
 17524      4500
 17525              	.LASF122:
 17526 269c 5F5A4E4B 		.ascii	"_ZNK3r2p10StaticListINS_15LocalSubscriberEE13ConstI"
 17526      33723270 
 17526      31305374 
 17526      61746963 
 17526      4C697374 
 17527 26cf 74657261 		.ascii	"terator8is_validEv\000"
 17527      746F7238 
 17527      69735F76 
 17527      616C6964 
 17527      457600
 17528              	.LASF175:
 17529 26e2 5F5A4E33 		.ascii	"_ZN3r2p10StaticListINS_15LocalSubscriberEE3endEv\000"
 17529      72327031 
 17529      30537461 
 17529      7469634C 
 17529      69737449 
 17530              	.LASF91:
 17531 2713 5F5A4E33 		.ascii	"_ZN3r2p10StaticListINS_15LocalSubscriberEE14Iterato"
 17531      72327031 
 17531      30537461 
 17531      7469634C 
 17531      69737449 
 17532 2746 72556E73 		.ascii	"rUnsafeaSERKS3_\000"
 17532      61666561 
ARM GAS  /tmp/cc9AvIGf.s 			page 330


 17532      5345524B 
 17532      53335F00 
 17533              	.LASF617:
 17534 2756 74696D65 		.ascii	"timestamp\000"
 17534      7374616D 
 17534      7000
 17535              	.LASF540:
 17536 2760 5F5A4E4B 		.ascii	"_ZNK3r2p4Node14get_publishersEv\000"
 17536      33723270 
 17536      344E6F64 
 17536      65313467 
 17536      65745F70 
 17537              	.LASF306:
 17538 2780 72656C65 		.ascii	"release_unsafe\000"
 17538      6173655F 
 17538      756E7361 
 17538      666500
 17539              	.LASF505:
 17540 278f 5F5A4E33 		.ascii	"_ZN3r2p10StaticListINS_4NodeEE11link_unsafeERNS2_4L"
 17540      72327031 
 17540      30537461 
 17540      7469634C 
 17540      69737449 
 17541 27c2 696E6B45 		.ascii	"inkE\000"
 17541      00
 17542              	.LASF342:
 17543 27c7 5F5A4E33 		.ascii	"_ZN3r2p5Topic5allocINS_7MessageEEEbRPT_\000"
 17543      72327035 
 17543      546F7069 
 17543      6335616C 
 17543      6C6F6349 
 17544              	.LASF315:
 17545 27ef 636F6D70 		.ascii	"compute_deadline\000"
 17545      7574655F 
 17545      64656164 
 17545      6C696E65 
 17545      00
 17546              	.LASF784:
 17547 2800 6D676D74 		.ascii	"mgmt_msg\000"
 17547      5F6D7367 
 17547      00
 17548              	.LASF345:
 17549 2809 72656663 		.ascii	"refcount\000"
 17549      6F756E74 
 17549      00
 17550              	.LASF13:
 17551 2812 5F5F7569 		.ascii	"__uint64_t\000"
 17551      6E743634 
 17551      5F7400
 17552              	.LASF35:
 17553 281d 6765745F 		.ascii	"get_allocator\000"
 17553      616C6C6F 
 17553      6361746F 
 17553      7200
 17554              	.LASF368:
 17555 282b 436F6E73 		.ascii	"ConstLink\000"
 17555      744C696E 
ARM GAS  /tmp/cc9AvIGf.s 			page 331


 17555      6B00
 17556              	.LASF290:
 17557 2835 6861735F 		.ascii	"has_publishers\000"
 17557      7075626C 
 17557      69736865 
 17557      727300
 17558              	.LASF183:
 17559 2844 5F5A4E4B 		.ascii	"_ZNK3r2p10StaticListINS_16RemoteSubscriberEE14Itera"
 17559      33723270 
 17559      31305374 
 17559      61746963 
 17559      4C697374 
 17560 2877 746F7255 		.ascii	"torUnsafeptEv\000"
 17560      6E736166 
 17560      65707445 
 17560      7600
 17561              	.LASF218:
 17562 2885 5F5A4E33 		.ascii	"_ZN3r2p10StaticListINS_16RemoteSubscriberEE6unlinkE"
 17562      72327031 
 17562      30537461 
 17562      7469634C 
 17562      69737449 
 17563 28b8 524E5332 		.ascii	"RNS2_4LinkE\000"
 17563      5F344C69 
 17563      6E6B4500 
 17564              	.LASF690:
 17565 28c4 646F5F63 		.ascii	"do_cmd_subscribe_request\000"
 17565      6D645F73 
 17565      75627363 
 17565      72696265 
 17565      5F726571 
 17566              	.LASF135:
 17567 28dd 756E6C69 		.ascii	"unlink_unsafe\000"
 17567      6E6B5F75 
 17567      6E736166 
 17567      6500
 17568              	.LASF688:
 17569 28eb 646F5F63 		.ascii	"do_cmd_advertise\000"
 17569      6D645F61 
 17569      64766572 
 17569      74697365 
 17569      00
 17570              	.LASF303:
 17571 28fc 5F5A4E4B 		.ascii	"_ZNK3r2p5Topic23compute_deadline_unsafeERKNS_4TimeE"
 17571      33723270 
 17571      35546F70 
 17571      69633233 
 17571      636F6D70 
 17572 292f 00       		.ascii	"\000"
 17573              	.LASF417:
 17574 2930 63726561 		.ascii	"create_static\000"
 17574      74655F73 
 17574      74617469 
 17574      6300
 17575              	.LASF436:
 17576 293e 5F5A4E4B 		.ascii	"_ZNK3r2p6Thread8get_nameEv\000"
 17576      33723270 
ARM GAS  /tmp/cc9AvIGf.s 			page 332


 17576      36546872 
 17576      65616438 
 17576      6765745F 
 17577              	.LASF380:
 17578 2959 5F5A4E33 		.ascii	"_ZN3r2p10StaticListINS_14LocalPublisherEE11link_uns"
 17578      72327031 
 17578      30537461 
 17578      7469634C 
 17578      69737449 
 17579 298c 61666545 		.ascii	"afeERNS2_4LinkE\000"
 17579      524E5332 
 17579      5F344C69 
 17579      6E6B4500 
 17580              	.LASF771:
 17581 299c 74686973 		.ascii	"this\000"
 17581      00
 17582              	.LASF722:
 17583 29a1 705F6E65 		.ascii	"p_next\000"
 17583      787400
 17584              	.LASF149:
 17585 29a8 5F5A4E33 		.ascii	"_ZN3r2p10StaticListINS_15LocalSubscriberEE14restart"
 17585      72327031 
 17585      30537461 
 17585      7469634C 
 17585      69737449 
 17586 29db 5F756E73 		.ascii	"_unsafeERNS2_14IteratorUnsafeE\000"
 17586      61666545 
 17586      524E5332 
 17586      5F313449 
 17586      74657261 
 17587              	.LASF270:
 17588 29fa 6C6F6361 		.ascii	"local_subscribers\000"
 17588      6C5F7375 
 17588      62736372 
 17588      69626572 
 17588      7300
 17589              	.LASF701:
 17590 2a0c 54657374 		.ascii	"Test\000"
 17590      00
 17591              	.LASF628:
 17592 2a11 6D676D74 		.ascii	"mgmt_priority\000"
 17592      5F707269 
 17592      6F726974 
 17592      7900
 17593              	.LASF171:
 17594 2a1f 5F5A4E33 		.ascii	"_ZN3r2p10StaticListINS_15LocalSubscriberEE5beginEv\000"
 17594      72327031 
 17594      30537461 
 17594      7469634C 
 17594      69737449 
 17595              	.LASF242:
 17596 2a52 5F5A4E4B 		.ascii	"_ZNK3r2p10StaticListINS_5TopicEE17find_first_unsafe"
 17596      33723270 
 17596      31305374 
 17596      61746963 
 17596      4C697374 
 17597 2a85 45504662 		.ascii	"EPFbRKS1_PKvES6_\000"
ARM GAS  /tmp/cc9AvIGf.s 			page 333


 17597      524B5331 
 17597      5F504B76 
 17597      4553365F 
 17597      00
 17598              	.LASF319:
 17599 2a96 5F5A4E33 		.ascii	"_ZN3r2p5Topic7releaseERNS_7MessageE\000"
 17599      72327035 
 17599      546F7069 
 17599      63377265 
 17599      6C656173 
 17600              	.LASF244:
 17601 2aba 5F5A4E33 		.ascii	"_ZN3r2p10StaticListINS_5TopicEE10end_unsafeEv\000"
 17601      72327031 
 17601      30537461 
 17601      7469634C 
 17601      69737449 
 17602              	.LASF603:
 17603 2ae8 5F5A4E33 		.ascii	"_ZN3r2p10StaticListINS_9TransportEE4linkERNS2_4Link"
 17603      72327031 
 17603      30537461 
 17603      7469634C 
 17603      69737449 
 17604 2b1b 4500     		.ascii	"E\000"
 17605              	.LASF237:
 17606 2b1d 5F5A4E33 		.ascii	"_ZN3r2p10StaticListINS_5TopicEE16link_tail_unsafeER"
 17606      72327031 
 17606      30537461 
 17606      7469634C 
 17606      69737449 
 17607 2b50 4E53325F 		.ascii	"NS2_4LinkE\000"
 17607      344C696E 
 17607      6B4500
 17608              	.LASF18:
 17609 2b5b 73747265 		.ascii	"strerror\000"
 17609      72726F72 
 17609      00
 17610              	.LASF203:
 17611 2b64 5F5A4E33 		.ascii	"_ZN3r2p10StaticListINS_16RemoteSubscriberEE13unlink"
 17611      72327031 
 17611      30537461 
 17611      7469634C 
 17611      69737449 
 17612 2b97 5F756E73 		.ascii	"_unsafeERNS2_4LinkE\000"
 17612      61666545 
 17612      524E5332 
 17612      5F344C69 
 17612      6E6B4500 
 17613              	.LASF412:
 17614 2bab 41726775 		.ascii	"Argument\000"
 17614      6D656E74 
 17614      00
 17615              	.LASF699:
 17616 2bb4 5075626C 		.ascii	"Publisher<r2p::MgmtMsg>\000"
 17616      69736865 
 17616      723C7232 
 17616      703A3A4D 
 17616      676D744D 
ARM GAS  /tmp/cc9AvIGf.s 			page 334


 17617              	.LASF20:
 17618 2bcc 73747278 		.ascii	"strxfrm\000"
 17618      66726D00 
 17619              	.LASF712:
 17620 2bd4 74726566 		.ascii	"trefs_t\000"
 17620      735F7400 
 17621              	.LASF189:
 17622 2bdc 5F5A4E4B 		.ascii	"_ZNK3r2p10StaticListINS_16RemoteSubscriberEE14Itera"
 17622      33723270 
 17622      31305374 
 17622      61746963 
 17622      4C697374 
 17623 2c0f 746F7255 		.ascii	"torUnsafe8is_validEv\000"
 17623      6E736166 
 17623      65386973 
 17623      5F76616C 
 17623      69644576 
 17624              	.LASF694:
 17625 2c24 69735F72 		.ascii	"is_rebooted\000"
 17625      65626F6F 
 17625      74656400 
 17626              	.LASF188:
 17627 2c30 5F5A4E4B 		.ascii	"_ZNK3r2p10StaticListINS_16RemoteSubscriberEE14Itera"
 17627      33723270 
 17627      31305374 
 17627      61746963 
 17627      4C697374 
 17628 2c63 746F7255 		.ascii	"torUnsafeneERKS3_\000"
 17628      6E736166 
 17628      656E6545 
 17628      524B5333 
 17628      5F00
 17629              	.LASF647:
 17630 2c75 5F5A4E4B 		.ascii	"_ZNK3r2p10Middleware10get_topicsEv\000"
 17630      33723270 
 17630      31304D69 
 17630      64646C65 
 17630      77617265 
 17631              	.LASF305:
 17632 2c98 5F5A4E33 		.ascii	"_ZN3r2p5Topic12alloc_unsafeEv\000"
 17632      72327035 
 17632      546F7069 
 17632      63313261 
 17632      6C6C6F63 
 17633              	.LASF485:
 17634 2cb6 626F6F74 		.ascii	"boot_mode\000"
 17634      5F6D6F64 
 17634      6500
 17635              	.LASF710:
 17636 2cc0 746D6F64 		.ascii	"tmode_t\000"
 17636      655F7400 
 17637              	.LASF551:
 17638 2cc8 6E6F7469 		.ascii	"notify\000"
 17638      667900
 17639              	.LASF350:
 17640 2ccf 5F5A4E33 		.ascii	"_ZN3r2p7Message14release_unsafeEv\000"
 17640      72327037 
ARM GAS  /tmp/cc9AvIGf.s 			page 335


 17640      4D657373 
 17640      61676531 
 17640      3472656C 
 17641              	.LASF83:
 17642 2cf1 53746174 		.ascii	"StaticList<r2p::LocalSubscriber>\000"
 17642      69634C69 
 17642      73743C72 
 17642      32703A3A 
 17642      4C6F6361 
 17643              	.LASF21:
 17644 2d12 556E636F 		.ascii	"Uncopyable\000"
 17644      70796162 
 17644      6C6500
 17645              	.LASF85:
 17646 2d1d 6E657874 		.ascii	"nextp\000"
 17646      7000
 17647              	.LASF289:
 17648 2d23 5F5A4E4B 		.ascii	"_ZNK3r2p5Topic21has_remote_publishersEv\000"
 17648      33723270 
 17648      35546F70 
 17648      69633231 
 17648      6861735F 
 17649              	.LASF256:
 17650 2d4b 5F5A4E4B 		.ascii	"_ZNK3r2p10StaticListINS_5TopicEE10find_firstEPFbRKS"
 17650      33723270 
 17650      31305374 
 17650      61746963 
 17650      4C697374 
 17651 2d7e 315F4500 		.ascii	"1_E\000"
 17652              	.LASF567:
 17653 2d82 5F5A4E33 		.ascii	"_ZN3r2p6Mutex_7releaseEv\000"
 17653      72327036 
 17653      4D757465 
 17653      785F3772 
 17653      656C6561 
 17654              	.LASF750:
 17655 2d9b 39526561 		.ascii	"9ReadyList\000"
 17655      64794C69 
 17655      737400
 17656              	.LASF500:
 17657 2da6 5F5A4E4B 		.ascii	"_ZNK3r2p10StaticListINS_4NodeEE13ConstIteratorneERK"
 17657      33723270 
 17657      31305374 
 17657      61746963 
 17657      4C697374 
 17658 2dd9 53335F00 		.ascii	"S3_\000"
 17659              	.LASF234:
 17660 2ddd 5F5A4E4B 		.ascii	"_ZNK3r2p10StaticListINS_5TopicEE15is_empty_unsafeEv"
 17660      33723270 
 17660      31305374 
 17660      61746963 
 17660      4C697374 
 17661 2e10 00       		.ascii	"\000"
 17662              	.LASF151:
 17663 2e11 5F5A4E4B 		.ascii	"_ZNK3r2p10StaticListINS_15LocalSubscriberEE10end_un"
 17663      33723270 
 17663      31305374 
ARM GAS  /tmp/cc9AvIGf.s 			page 336


 17663      61746963 
 17663      4C697374 
 17664 2e44 73616665 		.ascii	"safeEv\000"
 17664      457600
 17665              	.LASF507:
 17666 2e4b 5F5A4E33 		.ascii	"_ZN3r2p10StaticListINS_4NodeEE13unlink_unsafeERNS2_"
 17666      72327031 
 17666      30537461 
 17666      7469634C 
 17666      69737449 
 17667 2e7e 344C696E 		.ascii	"4LinkE\000"
 17667      6B4500
 17668              	.LASF462:
 17669 2e85 5F5A4E33 		.ascii	"_ZN3r2p9SpinEvent13signal_unsafeEj\000"
 17669      72327039 
 17669      5370696E 
 17669      4576656E 
 17669      74313373 
 17670              	.LASF179:
 17671 2ea8 436F6E73 		.ascii	"ConstIteratorUnsafe\000"
 17671      74497465 
 17671      7261746F 
 17671      72556E73 
 17671      61666500 
 17672              	.LASF456:
 17673 2ebc 5F5A4E33 		.ascii	"_ZN3r2p10SpinEvent_6signalEj\000"
 17673      72327031 
 17673      30537069 
 17673      6E457665 
 17673      6E745F36 
 17674              	.LASF107:
 17675 2ed9 5F5A4E4B 		.ascii	"_ZNK3r2p10StaticListINS_15LocalSubscriberEE8Iterato"
 17675      33723270 
 17675      31305374 
 17675      61746963 
 17675      4C697374 
 17676 2f0c 72707445 		.ascii	"rptEv\000"
 17676      7600
 17677              	.LASF422:
 17678 2f12 5F5A4E33 		.ascii	"_ZN3r2p7Thread_11create_poolERNS_11MemoryPool_EmPFl"
 17678      72327037 
 17678      54687265 
 17678      61645F31 
 17678      31637265 
 17679 2f45 50764553 		.ascii	"PvES3_PKc\000"
 17679      335F504B 
 17679      6300
 17680              	.LASF461:
 17681 2f4f 5F5A4E33 		.ascii	"_ZN3r2p9SpinEvent10set_threadEPNS_6ThreadE\000"
 17681      72327039 
 17681      5370696E 
 17681      4576656E 
 17681      74313073 
 17682              	.LASF470:
 17683 2f7a 41445645 		.ascii	"ADVERTISE\000"
 17683      52544953 
 17683      4500
ARM GAS  /tmp/cc9AvIGf.s 			page 337


 17684              	.LASF300:
 17685 2f84 69735F61 		.ascii	"is_awaiting_subscriptions\000"
 17685      77616974 
 17685      696E675F 
 17685      73756273 
 17685      63726970 
 17686              	.LASF605:
 17687 2f9e 5F5A4E4B 		.ascii	"_ZNK3r2p10StaticListINS_9TransportEE8index_ofERKS1_"
 17687      33723270 
 17687      31305374 
 17687      61746963 
 17687      4C697374 
 17688 2fd1 00       		.ascii	"\000"
 17689              	.LASF691:
 17690 2fd2 5F5A4E33 		.ascii	"_ZN3r2p10Middleware24do_cmd_subscribe_requestERKNS_"
 17690      72327031 
 17690      304D6964 
 17690      646C6577 
 17690      61726532 
 17691 3005 374D676D 		.ascii	"7MgmtMsgE\000"
 17691      744D7367 
 17691      4500
 17692              	.LASF766:
 17693 300f 6D705F6F 		.ascii	"mp_object_size\000"
 17693      626A6563 
 17693      745F7369 
 17693      7A6500
 17694              	.LASF147:
 17695 301e 5F5A4E33 		.ascii	"_ZN3r2p10StaticListINS_15LocalSubscriberEE10end_uns"
 17695      72327031 
 17695      30537461 
 17695      7469634C 
 17695      69737449 
 17696 3051 61666545 		.ascii	"afeEv\000"
 17696      7600
 17697              	.LASF487:
 17698 3057 6E616D65 		.ascii	"name\000"
 17698      00
 17699              	.LASF534:
 17700 305c 7075626C 		.ascii	"publishers\000"
 17700      69736865 
 17700      727300
 17701              	.LASF101:
 17702 3067 6F706572 		.ascii	"operator!=\000"
 17702      61746F72 
 17702      213D00
 17703              	.LASF146:
 17704 3072 656E645F 		.ascii	"end_unsafe\000"
 17704      756E7361 
 17704      666500
 17705              	.LASF173:
 17706 307d 5F5A4E33 		.ascii	"_ZN3r2p10StaticListINS_15LocalSubscriberEE7restartE"
 17706      72327031 
 17706      30537461 
 17706      7469634C 
 17706      69737449 
 17707 30b0 524E5332 		.ascii	"RNS2_8IteratorE\000"
ARM GAS  /tmp/cc9AvIGf.s 			page 338


 17707      5F384974 
 17707      65726174 
 17707      6F724500 
 17708              	.LASF405:
 17709 30c0 5F5A4E4B 		.ascii	"_ZNK3r2p10StaticListINS_14LocalPublisherEE5beginEv\000"
 17709      33723270 
 17709      31305374 
 17709      61746963 
 17709      4C697374 
 17710              	.LASF754:
 17711 30f3 725F6E65 		.ascii	"r_newer\000"
 17711      77657200 
 17712              	.LASF228:
 17713 30fb 5F5A4E4B 		.ascii	"_ZNK3r2p10StaticListINS_16RemoteSubscriberEE7restar"
 17713      33723270 
 17713      31305374 
 17713      61746963 
 17713      4C697374 
 17714 312e 7445524E 		.ascii	"tERNS2_13ConstIteratorE\000"
 17714      53325F31 
 17714      33436F6E 
 17714      73744974 
 17714      65726174 
 17715              	.LASF618:
 17716 3146 7472616E 		.ascii	"transportp\000"
 17716      73706F72 
 17716      747000
 17717              	.LASF622:
 17718 3151 7472616E 		.ascii	"transports\000"
 17718      73706F72 
 17718      747300
 17719              	.LASF648:
 17720 315c 6765745F 		.ascii	"get_transports\000"
 17720      7472616E 
 17720      73706F72 
 17720      747300
 17721              	.LASF492:
 17722 316b 74797065 		.ascii	"type\000"
 17722      00
 17723              	.LASF286:
 17724 3170 6861735F 		.ascii	"has_local_publishers\000"
 17724      6C6F6361 
 17724      6C5F7075 
 17724      626C6973 
 17724      68657273 
 17725              	.LASF160:
 17726 3185 5F5A4E33 		.ascii	"_ZN3r2p10StaticListINS_15LocalSubscriberEE4linkERNS"
 17726      72327031 
 17726      30537461 
 17726      7469634C 
 17726      69737449 
 17727 31b8 325F344C 		.ascii	"2_4LinkE\000"
 17727      696E6B45 
 17727      00
 17728              	.LASF775:
 17729 31c1 5F5A4E33 		.ascii	"_ZN3r2p7SysLock5ScopeC2Ev\000"
 17729      72327037 
ARM GAS  /tmp/cc9AvIGf.s 			page 339


 17729      5379734C 
 17729      6F636B35 
 17729      53636F70 
 17730              	.LASF317:
 17731 31db 5F5A4E4B 		.ascii	"_ZNK3r2p5Topic16compute_deadlineEv\000"
 17731      33723270 
 17731      35546F70 
 17731      69633136 
 17731      636F6D70 
 17732              	.LASF473:
 17733 31fe 50415448 		.ascii	"PATH\000"
 17733      00
 17734              	.LASF713:
 17735 3203 74736C69 		.ascii	"tslices_t\000"
 17735      6365735F 
 17735      7400
 17736              	.LASF351:
 17737 320d 72657365 		.ascii	"reset_unsafe\000"
 17737      745F756E 
 17737      73616665 
 17737      00
 17738              	.LASF355:
 17739 321a 72657365 		.ascii	"reset\000"
 17739      7400
 17740              	.LASF210:
 17741 3220 5F5A4E33 		.ascii	"_ZN3r2p10StaticListINS_16RemoteSubscriberEE14restar"
 17741      72327031 
 17741      30537461 
 17741      7469634C 
 17741      69737449 
 17742 3253 745F756E 		.ascii	"t_unsafeERNS2_14IteratorUnsafeE\000"
 17742      73616665 
 17742      45524E53 
 17742      325F3134 
 17742      49746572 
 17743              	.LASF408:
 17744 3273 54687265 		.ascii	"Thread_\000"
 17744      61645F00 
 17745              	.LASF15:
 17746 327b 73697A65 		.ascii	"sizetype\000"
 17746      74797065 
 17746      00
 17747              	.LASF78:
 17748 3284 5F5A4E33 		.ascii	"_ZN3r2p4Time2usEl\000"
 17748      72327034 
 17748      54696D65 
 17748      32757345 
 17748      6C00
 17749              	.LASF653:
 17750 3296 5F5A4E33 		.ascii	"_ZN3r2p10Middleware14get_boot_topicEv\000"
 17750      72327031 
 17750      304D6964 
 17750      646C6577 
 17750      61726531 
 17751              	.LASF541:
 17752 32bc 6765745F 		.ascii	"get_subscribers\000"
 17752      73756273 
ARM GAS  /tmp/cc9AvIGf.s 			page 340


 17752      63726962 
 17752      65727300 
 17753              	.LASF786:
 17754 32cc 74797065 		.ascii	"type_size\000"
 17754      5F73697A 
 17754      6500
 17755              	.LASF356:
 17756 32d6 5F5A4E33 		.ascii	"_ZN3r2p7Message5resetEv\000"
 17756      72327037 
 17756      4D657373 
 17756      61676535 
 17756      72657365 
 17757              	.LASF633:
 17758 32ee 6D676D74 		.ascii	"mgmt_msg_buf\000"
 17758      5F6D7367 
 17758      5F627566 
 17758      00
 17759              	.LASF110:
 17760 32fb 5F5A4E33 		.ascii	"_ZN3r2p10StaticListINS_15LocalSubscriberEE8Iterator"
 17760      72327031 
 17760      30537461 
 17760      7469634C 
 17760      69737449 
 17761 332e 70704569 		.ascii	"ppEi\000"
 17761      00
 17762              	.LASF7:
 17763 3333 73686F72 		.ascii	"short unsigned int\000"
 17763      7420756E 
 17763      7369676E 
 17763      65642069 
 17763      6E7400
 17764              	.LASF1:
 17765 3346 7369676E 		.ascii	"signed char\000"
 17765      65642063 
 17765      68617200 
 17766              	.LASF109:
 17767 3352 5F5A4E33 		.ascii	"_ZN3r2p10StaticListINS_15LocalSubscriberEE8Iterator"
 17767      72327031 
 17767      30537461 
 17767      7469634C 
 17767      69737449 
 17768 3385 70704576 		.ascii	"ppEv\000"
 17768      00
 17769              	.LASF678:
 17770 338a 66696E64 		.ascii	"find_topic\000"
 17770      5F746F70 
 17770      696300
 17771              	.LASF657:
 17772 3395 73746172 		.ascii	"start\000"
 17772      7400
 17773              	.LASF734:
 17774 339b 705F7469 		.ascii	"p_time\000"
 17774      6D6500
 17775              	.LASF623:
 17776 33a2 6C697374 		.ascii	"lists_lock\000"
 17776      735F6C6F 
 17776      636B00
ARM GAS  /tmp/cc9AvIGf.s 			page 341


 17777              	.LASF233:
 17778 33ad 5F5A4E4B 		.ascii	"_ZNK3r2p10StaticListINS_5TopicEE15get_head_unsafeEv"
 17778      33723270 
 17778      31305374 
 17778      61746963 
 17778      4C697374 
 17779 33e0 00       		.ascii	"\000"
 17780              	.LASF141:
 17781 33e1 66696E64 		.ascii	"find_first_unsafe\000"
 17781      5F666972 
 17781      73745F75 
 17781      6E736166 
 17781      6500
 17782              	.LASF371:
 17783 33f3 5F5A4E4B 		.ascii	"_ZNK3r2p10StaticListINS_14LocalPublisherEE13ConstIt"
 17783      33723270 
 17783      31305374 
 17783      61746963 
 17783      4C697374 
 17784 3426 65726174 		.ascii	"eratordeEv\000"
 17784      6F726465 
 17784      457600
 17785              	.LASF434:
 17786 3431 5F5A4E33 		.ascii	"_ZN3r2p7Thread_4joinERS0_\000"
 17786      72327037 
 17786      54687265 
 17786      61645F34 
 17786      6A6F696E 
 17787              	.LASF157:
 17788 344b 636F756E 		.ascii	"count\000"
 17788      7400
 17789              	.LASF121:
 17790 3451 5F5A4E4B 		.ascii	"_ZNK3r2p10StaticListINS_15LocalSubscriberEE13ConstI"
 17790      33723270 
 17790      31305374 
 17790      61746963 
 17790      4C697374 
 17791 3484 74657261 		.ascii	"teratorneERKS3_\000"
 17791      746F726E 
 17791      6545524B 
 17791      53335F00 
 17792              	.LASF338:
 17793 3494 616C6C6F 		.ascii	"alloc_unsafe<r2p::Message>\000"
 17793      635F756E 
 17793      73616665 
 17793      3C723270 
 17793      3A3A4D65 
 17794              	.LASF310:
 17795 34af 5F5A4E33 		.ascii	"_ZN3r2p5Topic20notify_locals_unsafeERNS_7MessageERK"
 17795      72327035 
 17795      546F7069 
 17795      6332306E 
 17795      6F746966 
 17796 34e2 4E535F34 		.ascii	"NS_4TimeE\000"
 17796      54696D65 
 17796      4500
 17797              	.LASF599:
ARM GAS  /tmp/cc9AvIGf.s 			page 342


 17798 34ec 5F5A4E4B 		.ascii	"_ZNK3r2p10StaticListINS_9TransportEE14restart_unsaf"
 17798      33723270 
 17798      31305374 
 17798      61746963 
 17798      4C697374 
 17799 351f 6545524E 		.ascii	"eERNS2_19ConstIteratorUnsafeE\000"
 17799      53325F31 
 17799      39436F6E 
 17799      73744974 
 17799      65726174 
 17800              	.LASF518:
 17801 353d 5F5A4E4B 		.ascii	"_ZNK3r2p10StaticListINS_4NodeEE8get_headEv\000"
 17801      33723270 
 17801      31305374 
 17801      61746963 
 17801      4C697374 
 17802              	.LASF484:
 17803 3568 7265626F 		.ascii	"rebooted\000"
 17803      6F746564 
 17803      00
 17804              	.LASF322:
 17805 3571 5F5A4E33 		.ascii	"_ZN3r2p5Topic13notify_localsERNS_7MessageERKNS_4Tim"
 17805      72327035 
 17805      546F7069 
 17805      6331336E 
 17805      6F746966 
 17806 35a4 654500   		.ascii	"eE\000"
 17807              	.LASF410:
 17808 35a7 46756E63 		.ascii	"Function\000"
 17808      74696F6E 
 17808      00
 17809              	.LASF258:
 17810 35b0 5F5A4E33 		.ascii	"_ZN3r2p10StaticListINS_5TopicEE5beginEv\000"
 17810      72327031 
 17810      30537461 
 17810      7469634C 
 17810      69737449 
 17811              	.LASF104:
 17812 35d8 5F5A4E4B 		.ascii	"_ZNK3r2p10StaticListINS_15LocalSubscriberEE14Iterat"
 17812      33723270 
 17812      31305374 
 17812      61746963 
 17812      4C697374 
 17813 360b 6F72556E 		.ascii	"orUnsafe8is_validEv\000"
 17813      73616665 
 17813      3869735F 
 17813      76616C69 
 17813      64457600 
 17814              	.LASF596:
 17815 361f 5F5A4E33 		.ascii	"_ZN3r2p10StaticListINS_9TransportEE14restart_unsafe"
 17815      72327031 
 17815      30537461 
 17815      7469634C 
 17815      69737449 
 17816 3652 45524E53 		.ascii	"ERNS2_14IteratorUnsafeE\000"
 17816      325F3134 
 17816      49746572 
ARM GAS  /tmp/cc9AvIGf.s 			page 343


 17816      61746F72 
 17816      556E7361 
 17817              	.LASF100:
 17818 366a 5F5A4E4B 		.ascii	"_ZNK3r2p10StaticListINS_15LocalSubscriberEE14Iterat"
 17818      33723270 
 17818      31305374 
 17818      61746963 
 17818      4C697374 
 17819 369d 6F72556E 		.ascii	"orUnsafeeqERKS3_\000"
 17819      73616665 
 17819      65714552 
 17819      4B53335F 
 17819      00
 17820              	.LASF204:
 17821 36ae 5F5A4E4B 		.ascii	"_ZNK3r2p10StaticListINS_16RemoteSubscriberEE15index"
 17821      33723270 
 17821      31305374 
 17821      61746963 
 17821      4C697374 
 17822 36e1 5F6F665F 		.ascii	"_of_unsafeERKS1_\000"
 17822      756E7361 
 17822      66654552 
 17822      4B53315F 
 17822      00
 17823              	.LASF606:
 17824 36f2 5F5A4E4B 		.ascii	"_ZNK3r2p10StaticListINS_9TransportEE8containsERKS1_"
 17824      33723270 
 17824      31305374 
 17824      61746963 
 17824      4C697374 
 17825 3725 00       		.ascii	"\000"
 17826              	.LASF579:
 17827 3726 5F5A4E33 		.ascii	"_ZN3r2p7ReMutex14acquire_unsafeEv\000"
 17827      72327037 
 17827      52654D75 
 17827      74657831 
 17827      34616371 
 17828              	.LASF759:
 17829 3748 6D5F6F77 		.ascii	"m_owner\000"
 17829      6E657200 
 17830              	.LASF253:
 17831 3750 5F5A4E33 		.ascii	"_ZN3r2p10StaticListINS_5TopicEE6unlinkERNS2_4LinkE\000"
 17831      72327031 
 17831      30537461 
 17831      7469634C 
 17831      69737449 
 17832              	.LASF504:
 17833 3783 5F5A4E4B 		.ascii	"_ZNK3r2p10StaticListINS_4NodeEE12count_unsafeEv\000"
 17833      33723270 
 17833      31305374 
 17833      61746963 
 17833      4C697374 
 17834              	.LASF359:
 17835 37b3 5F5A4E33 		.ascii	"_ZN3r2p7Message4copyERS0_RKS0_j\000"
 17835      72327037 
 17835      4D657373 
 17835      61676534 
ARM GAS  /tmp/cc9AvIGf.s 			page 344


 17835      636F7079 
 17836              	.LASF241:
 17837 37d3 5F5A4E4B 		.ascii	"_ZNK3r2p10StaticListINS_5TopicEE17find_first_unsafe"
 17837      33723270 
 17837      31305374 
 17837      61746963 
 17837      4C697374 
 17838 3806 45504662 		.ascii	"EPFbRKS1_E\000"
 17838      524B5331 
 17838      5F4500
 17839              	.LASF137:
 17840 3811 696E6465 		.ascii	"index_of_unsafe\000"
 17840      785F6F66 
 17840      5F756E73 
 17840      61666500 
 17841              	.LASF667:
 17842 3821 7265626F 		.ascii	"reboot_remote\000"
 17842      6F745F72 
 17842      656D6F74 
 17842      6500
 17843              	.LASF545:
 17844 382f 7365745F 		.ascii	"set_enabled\000"
 17844      656E6162 
 17844      6C656400 
 17845              	.LASF407:
 17846 383b 5F5A4E4B 		.ascii	"_ZNK3r2p10StaticListINS_14LocalPublisherEE7restartE"
 17846      33723270 
 17846      31305374 
 17846      61746963 
 17846      4C697374 
 17847 386e 524E5332 		.ascii	"RNS2_13ConstIteratorE\000"
 17847      5F313343 
 17847      6F6E7374 
 17847      49746572 
 17847      61746F72 
 17848              	.LASF38:
 17849 3884 616C6C6F 		.ascii	"alloc_unsafe\000"
 17849      635F756E 
 17849      73616665 
 17849      00
 17850              	.LASF377:
 17851 3891 5F5A4E4B 		.ascii	"_ZNK3r2p10StaticListINS_14LocalPublisherEE15get_hea"
 17851      33723270 
 17851      31305374 
 17851      61746963 
 17851      4C697374 
 17852 38c4 645F756E 		.ascii	"d_unsafeEv\000"
 17852      73616665 
 17852      457600
 17853              	.LASF490:
 17854 38cf 70617468 		.ascii	"path\000"
 17854      00
 17855              	.LASF437:
 17856 38d4 5F5A4E33 		.ascii	"_ZN3r2p6Thread18compute_stack_sizeEj\000"
 17856      72327036 
 17856      54687265 
 17856      61643138 
ARM GAS  /tmp/cc9AvIGf.s 			page 345


 17856      636F6D70 
 17857              	.LASF227:
 17858 38f9 5F5A4E4B 		.ascii	"_ZNK3r2p10StaticListINS_16RemoteSubscriberEE3endEv\000"
 17858      33723270 
 17858      31305374 
 17858      61746963 
 17858      4C697374 
 17859              	.LASF430:
 17860 392c 5F5A4E33 		.ascii	"_ZN3r2p7Thread_5yieldEv\000"
 17860      72327037 
 17860      54687265 
 17860      61645F35 
 17860      7969656C 
 17861              	.LASF445:
 17862 3944 5F5A4E33 		.ascii	"_ZN3r2p6Thread4joinERS0_\000"
 17862      72327036 
 17862      54687265 
 17862      6164346A 
 17862      6F696E45 
 17863              	.LASF402:
 17864 395d 5F5A4E33 		.ascii	"_ZN3r2p10StaticListINS_14LocalPublisherEE5beginEv\000"
 17864      72327031 
 17864      30537461 
 17864      7469634C 
 17864      69737449 
 17865              	.LASF39:
 17866 398f 5F5A4E33 		.ascii	"_ZN3r2p11MemoryPool_12alloc_unsafeEv\000"
 17866      72327031 
 17866      314D656D 
 17866      6F727950 
 17866      6F6F6C5F 
 17867              	.LASF480:
 17868 39b4 71756575 		.ascii	"queue_length\000"
 17868      655F6C65 
 17868      6E677468 
 17868      00
 17869              	.LASF145:
 17870 39c1 5F5A4E33 		.ascii	"_ZN3r2p10StaticListINS_15LocalSubscriberEE12begin_u"
 17870      72327031 
 17870      30537461 
 17870      7469634C 
 17870      69737449 
 17871 39f4 6E736166 		.ascii	"nsafeEv\000"
 17871      65457600 
 17872              	.LASF163:
 17873 39fc 696E6465 		.ascii	"index_of\000"
 17873      785F6F66 
 17873      00
 17874              	.LASF106:
 17875 3a05 5F5A4E33 		.ascii	"_ZN3r2p10StaticListINS_15LocalSubscriberEE8Iterator"
 17875      72327031 
 17875      30537461 
 17875      7469634C 
 17875      69737449 
 17876 3a38 61534552 		.ascii	"aSERKS3_\000"
 17876      4B53335F 
 17876      00
ARM GAS  /tmp/cc9AvIGf.s 			page 346


 17877              	.LASF73:
 17878 3a41 5F5A4E33 		.ascii	"_ZN3r2p4TimeaSERKS0_\000"
 17878      72327034 
 17878      54696D65 
 17878      61534552 
 17878      4B53305F 
 17879              	.LASF687:
 17880 3a56 5F5A4E33 		.ascii	"_ZN3r2p10Middleware14do_mgmt_threadEv\000"
 17880      72327031 
 17880      304D6964 
 17880      646C6577 
 17880      61726531 
 17881              	.LASF475:
 17882 3a7c 6D6F6475 		.ascii	"module\000"
 17882      6C6500
 17883              	.LASF205:
 17884 3a83 5F5A4E4B 		.ascii	"_ZNK3r2p10StaticListINS_16RemoteSubscriberEE15conta"
 17884      33723270 
 17884      31305374 
 17884      61746963 
 17884      4C697374 
 17885 3ab6 696E735F 		.ascii	"ins_unsafeERKS1_\000"
 17885      756E7361 
 17885      66654552 
 17885      4B53315F 
 17885      00
 17886              	.LASF275:
 17887 3ac7 5F5A4E4B 		.ascii	"_ZNK3r2p5Topic8get_nameEv\000"
 17887      33723270 
 17887      35546F70 
 17887      69633867 
 17887      65745F6E 
 17888              	.LASF560:
 17889 3ae1 5F5A4E33 		.ascii	"_ZN3r2p4Node8has_nameERKS0_PKc\000"
 17889      72327034 
 17889      4E6F6465 
 17889      38686173 
 17889      5F6E616D 
 17890              	.LASF304:
 17891 3b00 5F5A4E4B 		.ascii	"_ZNK3r2p5Topic23compute_deadline_unsafeEv\000"
 17891      33723270 
 17891      35546F70 
 17891      69633233 
 17891      636F6D70 
 17892              	.LASF261:
 17893 3b2a 5F5A4E4B 		.ascii	"_ZNK3r2p10StaticListINS_5TopicEE5beginEv\000"
 17893      33723270 
 17893      31305374 
 17893      61746963 
 17893      4C697374 
 17894              	.LASF465:
 17895 3b53 4D676D74 		.ascii	"MgmtMsg\000"
 17895      4D736700 
 17896              	.LASF765:
 17897 3b5b 6D705F6E 		.ascii	"mp_next\000"
 17897      65787400 
 17898              	.LASF335:
ARM GAS  /tmp/cc9AvIGf.s 			page 347


 17899 3b63 70617463 		.ascii	"patch_pubsub_msg\000"
 17899      685F7075 
 17899      62737562 
 17899      5F6D7367 
 17899      00
 17900              	.LASF797:
 17901 3b74 5F5A4E33 		.ascii	"_ZN3r2p10StaticListINS_16RemoteSubscriberEE8Iterato"
 17901      72327031 
 17901      30537461 
 17901      7469634C 
 17901      69737449 
 17902 3ba7 72433245 		.ascii	"rC2EPKNS2_4LinkE\000"
 17902      504B4E53 
 17902      325F344C 
 17902      696E6B45 
 17902      00
 17903              	.LASF274:
 17904 3bb8 6765745F 		.ascii	"get_name\000"
 17904      6E616D65 
 17904      00
 17905              	.LASF357:
 17906 3bc1 636F7079 		.ascii	"copy\000"
 17906      00
 17907              	.LASF767:
 17908 3bc6 6D705F70 		.ascii	"mp_provider\000"
 17908      726F7669 
 17908      64657200 
 17909              	.LASF421:
 17910 3bd2 63726561 		.ascii	"create_pool\000"
 17910      74655F70 
 17910      6F6F6C00 
 17911              	.LASF293:
 17912 3bde 5F5A4E4B 		.ascii	"_ZNK3r2p5Topic21has_local_subscribersEv\000"
 17912      33723270 
 17912      35546F70 
 17912      69633231 
 17912      6861735F 
 17913              	.LASF794:
 17914 3c06 5F5A4E33 		.ascii	"_ZN3r2p10StaticListINS_15LocalSubscriberEE14Iterato"
 17914      72327031 
 17914      30537461 
 17914      7469634C 
 17914      69737449 
 17915 3c39 72556E73 		.ascii	"rUnsafeC2EPKNS2_4LinkE\000"
 17915      61666543 
 17915      3245504B 
 17915      4E53325F 
 17915      344C696E 
 17916              	.LASF63:
 17917 3c50 5F5A4E4B 		.ascii	"_ZNK3r2p4Time8to_m_rawEv\000"
 17917      33723270 
 17917      3454696D 
 17917      6538746F 
 17917      5F6D5F72 
 17918              	.LASF530:
 17919 3c69 5F5A4E4B 		.ascii	"_ZNK3r2p10StaticListINS_4NodeEE5beginEv\000"
 17919      33723270 
ARM GAS  /tmp/cc9AvIGf.s 			page 348


 17919      31305374 
 17919      61746963 
 17919      4C697374 
 17920              	.LASF9:
 17921 3c91 6C6F6E67 		.ascii	"long int\000"
 17921      20696E74 
 17921      00
 17922              	.LASF792:
 17923 3c9a 5F5A4E33 		.ascii	"_ZN3r2p10StaticListINS_5TopicEE4LinkC2ERS1_\000"
 17923      72327031 
 17923      30537461 
 17923      7469634C 
 17923      69737449 
 17924              	.LASF604:
 17925 3cc6 5F5A4E33 		.ascii	"_ZN3r2p10StaticListINS_9TransportEE6unlinkERNS2_4Li"
 17925      72327031 
 17925      30537461 
 17925      7469634C 
 17925      69737449 
 17926 3cf9 6E6B4500 		.ascii	"nkE\000"
 17927              	.LASF763:
 17928 3cfd 70685F6E 		.ascii	"ph_next\000"
 17928      65787400 
 17929              	.LASF758:
 17930 3d05 6D5F7175 		.ascii	"m_queue\000"
 17930      65756500 
 17931              	.LASF199:
 17932 3d0d 5F5A4E4B 		.ascii	"_ZNK3r2p10StaticListINS_16RemoteSubscriberEE15is_em"
 17932      33723270 
 17932      31305374 
 17932      61746963 
 17932      4C697374 
 17933 3d40 7074795F 		.ascii	"pty_unsafeEv\000"
 17933      756E7361 
 17933      66654576 
 17933      00
 17934              	.LASF117:
 17935 3d4d 5F5A4E4B 		.ascii	"_ZNK3r2p10StaticListINS_15LocalSubscriberEE13ConstI"
 17935      33723270 
 17935      31305374 
 17935      61746963 
 17935      4C697374 
 17936 3d80 74657261 		.ascii	"teratordeEv\000"
 17936      746F7264 
 17936      65457600 
 17937              	.LASF41:
 17938 3d8c 616C6C6F 		.ascii	"alloc\000"
 17938      6300
 17939              	.LASF162:
 17940 3d92 5F5A4E33 		.ascii	"_ZN3r2p10StaticListINS_15LocalSubscriberEE6unlinkER"
 17940      72327031 
 17940      30537461 
 17940      7469634C 
 17940      69737449 
 17941 3dc5 4E53325F 		.ascii	"NS2_4LinkE\000"
 17941      344C696E 
 17941      6B4500
ARM GAS  /tmp/cc9AvIGf.s 			page 349


 17942              	.LASF111:
 17943 3dd0 5F5A4E4B 		.ascii	"_ZNK3r2p10StaticListINS_15LocalSubscriberEE8Iterato"
 17943      33723270 
 17943      31305374 
 17943      61746963 
 17943      4C697374 
 17944 3e03 72657145 		.ascii	"reqERKS3_\000"
 17944      524B5333 
 17944      5F00
 17945              	.LASF167:
 17946 3e0d 66696E64 		.ascii	"find_first\000"
 17946      5F666972 
 17946      737400
 17947              	.LASF793:
 17948 3e18 62656769 		.ascii	"beginp\000"
 17948      6E7000
 17949              	.LASF150:
 17950 3e1f 5F5A4E4B 		.ascii	"_ZNK3r2p10StaticListINS_15LocalSubscriberEE12begin_"
 17950      33723270 
 17950      31305374 
 17950      61746963 
 17950      4C697374 
 17951 3e52 756E7361 		.ascii	"unsafeEv\000"
 17951      66654576 
 17951      00
 17952              	.LASF292:
 17953 3e5b 6861735F 		.ascii	"has_local_subscribers\000"
 17953      6C6F6361 
 17953      6C5F7375 
 17953      62736372 
 17953      69626572 
 17954              	.LASF749:
 17955 3e71 636F6E74 		.ascii	"context\000"
 17955      65787400 
 17956              	.LASF452:
 17957 3e79 5F5A4E33 		.ascii	"_ZN3r2p10SpinEvent_10set_threadEPNS_6ThreadE\000"
 17957      72327031 
 17957      30537069 
 17957      6E457665 
 17957      6E745F31 
 17958              	.LASF191:
 17959 3ea6 5F5A4E4B 		.ascii	"_ZNK3r2p10StaticListINS_16RemoteSubscriberEE8Iterat"
 17959      33723270 
 17959      31305374 
 17959      61746963 
 17959      4C697374 
 17960 3ed9 6F727074 		.ascii	"orptEv\000"
 17960      457600
 17961              	.LASF166:
 17962 3ee0 5F5A4E4B 		.ascii	"_ZNK3r2p10StaticListINS_15LocalSubscriberEE8contain"
 17962      33723270 
 17962      31305374 
 17962      61746963 
 17962      4C697374 
 17963 3f13 7345524B 		.ascii	"sERKS1_\000"
 17963      53315F00 
 17964              	.LASF686:
ARM GAS  /tmp/cc9AvIGf.s 			page 350


 17965 3f1b 646F5F6D 		.ascii	"do_mgmt_thread\000"
 17965      676D745F 
 17965      74687265 
 17965      616400
 17966              	.LASF114:
 17967 3f2a 436F6E73 		.ascii	"ConstIterator\000"
 17967      74497465 
 17967      7261746F 
 17967      7200
 17968              	.LASF643:
 17969 3f38 5F5A4E4B 		.ascii	"_ZNK3r2p10Middleware15get_module_nameEv\000"
 17969      33723270 
 17969      31304D69 
 17969      64646C65 
 17969      77617265 
 17970              	.LASF419:
 17971 3f60 63726561 		.ascii	"create_heap\000"
 17971      74655F68 
 17971      65617000 
 17972              	.LASF615:
 17973 3f6c 4D696464 		.ascii	"Middleware\000"
 17973      6C657761 
 17973      726500
 17974              	.LASF102:
 17975 3f77 5F5A4E4B 		.ascii	"_ZNK3r2p10StaticListINS_15LocalSubscriberEE14Iterat"
 17975      33723270 
 17975      31305374 
 17975      61746963 
 17975      4C697374 
 17976 3faa 6F72556E 		.ascii	"orUnsafeneERKS3_\000"
 17976      73616665 
 17976      6E654552 
 17976      4B53335F 
 17976      00
 17977              	.LASF127:
 17978 3fbb 5F5A4E4B 		.ascii	"_ZNK3r2p10StaticListINS_15LocalSubscriberEE15get_he"
 17978      33723270 
 17978      31305374 
 17978      61746963 
 17978      4C697374 
 17979 3fee 61645F75 		.ascii	"ad_unsafeEv\000"
 17979      6E736166 
 17979      65457600 
 17980              	.LASF320:
 17981 3ffa 5F5A4E33 		.ascii	"_ZN3r2p5Topic4freeERNS_7MessageE\000"
 17981      72327035 
 17981      546F7069 
 17981      63346672 
 17981      65654552 
 17982              	.LASF19:
 17983 401b 73747274 		.ascii	"strtok\000"
 17983      6F6B00
 17984              	.LASF746:
 17985 4022 72656761 		.ascii	"regarm_t\000"
 17985      726D5F74 
 17985      00
 17986              	.LASF798:
ARM GAS  /tmp/cc9AvIGf.s 			page 351


 17987 402b 70726576 		.ascii	"prevp\000"
 17987      7000
 17988              	.LASF383:
 17989 4031 5F5A4E4B 		.ascii	"_ZNK3r2p10StaticListINS_14LocalPublisherEE15index_o"
 17989      33723270 
 17989      31305374 
 17989      61746963 
 17989      4C697374 
 17990 4064 665F756E 		.ascii	"f_unsafeERKS1_\000"
 17990      73616665 
 17990      45524B53 
 17990      315F00
 17991              	.LASF58:
 17992 4073 746F5F6D 		.ascii	"to_ms_raw\000"
 17992      735F7261 
 17992      7700
 17993              	.LASF308:
 17994 407d 5F5A4E33 		.ascii	"_ZN3r2p5Topic11free_unsafeERNS_7MessageE\000"
 17994      72327035 
 17994      546F7069 
 17994      63313166 
 17994      7265655F 
 17995              	.LASF226:
 17996 40a6 5F5A4E4B 		.ascii	"_ZNK3r2p10StaticListINS_16RemoteSubscriberEE5beginE"
 17996      33723270 
 17996      31305374 
 17996      61746963 
 17996      4C697374 
 17997 40d9 7600     		.ascii	"v\000"
 17998              	.LASF581:
 17999 40db 5F5A4E33 		.ascii	"_ZN3r2p7ReMutex7acquireEv\000"
 17999      72327037 
 17999      52654D75 
 17999      74657837 
 17999      61637175 
 18000              	.LASF409:
 18001 40f5 5072696F 		.ascii	"Priority\000"
 18001      72697479 
 18001      00
 18002              	.LASF11:
 18003 40fe 6C6F6E67 		.ascii	"long unsigned int\000"
 18003      20756E73 
 18003      69676E65 
 18003      6420696E 
 18003      7400
 18004              	.LASF442:
 18005 4110 5F5A4E33 		.ascii	"_ZN3r2p6Thread12set_priorityEm\000"
 18005      72327036 
 18005      54687265 
 18005      61643132 
 18005      7365745F 
 18006              	.LASF781:
 18007 412f 6D736770 		.ascii	"msgp\000"
 18007      00
 18008              	.LASF542:
 18009 4134 5F5A4E4B 		.ascii	"_ZNK3r2p4Node15get_subscribersEv\000"
 18009      33723270 
ARM GAS  /tmp/cc9AvIGf.s 			page 352


 18009      344E6F64 
 18009      65313567 
 18009      65745F73 
 18010              	.LASF47:
 18011 4155 5F5A4E33 		.ascii	"_ZN3r2p11MemoryPool_6extendEPvj\000"
 18011      72327031 
 18011      314D656D 
 18011      6F727950 
 18011      6F6F6C5F 
 18012              	.LASF74:
 18013 4175 6F706572 		.ascii	"operator+=\000"
 18013      61746F72 
 18013      2B3D00
 18014              	.LASF757:
 18015 4180 52656164 		.ascii	"ReadyList\000"
 18015      794C6973 
 18015      7400
 18016              	.LASF663:
 18017 418a 7072656C 		.ascii	"preload_bootloader_mode\000"
 18017      6F61645F 
 18017      626F6F74 
 18017      6C6F6164 
 18017      65725F6D 
 18018              	.LASF138:
 18019 41a2 5F5A4E4B 		.ascii	"_ZNK3r2p10StaticListINS_15LocalSubscriberEE15index_"
 18019      33723270 
 18019      31305374 
 18019      61746963 
 18019      4C697374 
 18020 41d5 6F665F75 		.ascii	"of_unsafeERKS1_\000"
 18020      6E736166 
 18020      6545524B 
 18020      53315F00 
 18021              	.LASF312:
 18022 41e5 5F5A4E33 		.ascii	"_ZN3r2p5Topic21notify_remotes_unsafeERNS_7MessageER"
 18022      72327035 
 18022      546F7069 
 18022      6332316E 
 18022      6F746966 
 18023 4218 4B4E535F 		.ascii	"KNS_4TimeE\000"
 18023      3454696D 
 18023      654500
 18024              	.LASF79:
 18025 4223 5F5A4E33 		.ascii	"_ZN3r2p4Time2msEl\000"
 18025      72327034 
 18025      54696D65 
 18025      326D7345 
 18025      6C00
 18026              	.LASF389:
 18027 4235 5F5A4E33 		.ascii	"_ZN3r2p10StaticListINS_14LocalPublisherEE14restart_"
 18027      72327031 
 18027      30537461 
 18027      7469634C 
 18027      69737449 
 18028 4268 756E7361 		.ascii	"unsafeERNS2_14IteratorUnsafeE\000"
 18028      66654552 
 18028      4E53325F 
ARM GAS  /tmp/cc9AvIGf.s 			page 353


 18028      31344974 
 18028      65726174 
 18029              	.LASF96:
 18030 4286 6F706572 		.ascii	"operator++\000"
 18030      61746F72 
 18030      2B2B00
 18031              	.LASF366:
 18032 4291 5472616E 		.ascii	"Transport\000"
 18032      73706F72 
 18032      7400
 18033              	.LASF418:
 18034 429b 5F5A4E33 		.ascii	"_ZN3r2p7Thread_13create_staticEPvjmPFlS1_ES1_PKc\000"
 18034      72327037 
 18034      54687265 
 18034      61645F31 
 18034      33637265 
 18035              	.LASF385:
 18036 42cc 5F5A4E4B 		.ascii	"_ZNK3r2p10StaticListINS_14LocalPublisherEE17find_fi"
 18036      33723270 
 18036      31305374 
 18036      61746963 
 18036      4C697374 
 18037 42ff 7273745F 		.ascii	"rst_unsafeEPFbRKS1_E\000"
 18037      756E7361 
 18037      66654550 
 18037      4662524B 
 18037      53315F45 
 18038              	.LASF103:
 18039 4314 69735F76 		.ascii	"is_valid\000"
 18039      616C6964 
 18039      00
 18040              	.LASF16:
 18041 431d 63686172 		.ascii	"char\000"
 18041      00
 18042              	.LASF681:
 18043 4322 5F5A4E33 		.ascii	"_ZN3r2p10Middleware9find_nodeEPKc\000"
 18043      72327031 
 18043      304D6964 
 18043      646C6577 
 18043      61726539 
 18044              	.LASF23:
 18045 4344 5379734C 		.ascii	"SysLock_\000"
 18045      6F636B5F 
 18045      00
 18046              	.LASF482:
 18047 434d 4D6F6475 		.ascii	"Module\000"
 18047      6C6500
 18048              	.LASF751:
 18049 4354 725F7175 		.ascii	"r_queue\000"
 18049      65756500 
 18050              	.LASF272:
 18051 435c 6D61785F 		.ascii	"max_queue_length\000"
 18051      71756575 
 18051      655F6C65 
 18051      6E677468 
 18051      00
 18052              	.LASF646:
ARM GAS  /tmp/cc9AvIGf.s 			page 354


 18053 436d 6765745F 		.ascii	"get_topics\000"
 18053      746F7069 
 18053      637300
 18054              	.LASF448:
 18055 4378 4D61736B 		.ascii	"Mask\000"
 18055      00
 18056              	.LASF302:
 18057 437d 636F6D70 		.ascii	"compute_deadline_unsafe\000"
 18057      7574655F 
 18057      64656164 
 18057      6C696E65 
 18057      5F756E73 
 18058              	.LASF662:
 18059 4395 5F5A4E33 		.ascii	"_ZN3r2p10Middleware6rebootEv\000"
 18059      72327031 
 18059      304D6964 
 18059      646C6577 
 18059      61726536 
 18060              	.LASF426:
 18061 43b2 5F5A4E33 		.ascii	"_ZN3r2p7Thread_12get_priorityEv\000"
 18061      72327037 
 18061      54687265 
 18061      61645F31 
 18061      32676574 
 18062              	.LASF601:
 18063 43d2 5F5A4E4B 		.ascii	"_ZNK3r2p10StaticListINS_9TransportEE8is_emptyEv\000"
 18063      33723270 
 18063      31305374 
 18063      61746963 
 18063      4C697374 
 18064              	.LASF674:
 18065 4402 5F5A4E33 		.ascii	"_ZN3r2p10Middleware9subscribeERNS_15LocalSubscriber"
 18065      72327031 
 18065      304D6964 
 18065      646C6577 
 18065      61726539 
 18066 4435 45504B63 		.ascii	"EPKcPNS_7MessageEjj\000"
 18066      504E535F 
 18066      374D6573 
 18066      73616765 
 18066      456A6A00 
 18067              	.LASF575:
 18068 4449 52654D75 		.ascii	"ReMutex\000"
 18068      74657800 
 18069              	.LASF140:
 18070 4451 5F5A4E4B 		.ascii	"_ZNK3r2p10StaticListINS_15LocalSubscriberEE15contai"
 18070      33723270 
 18070      31305374 
 18070      61746963 
 18070      4C697374 
 18071 4484 6E735F75 		.ascii	"ns_unsafeERKS1_\000"
 18071      6E736166 
 18071      6545524B 
 18071      53315F00 
 18072              	.LASF424:
 18073 4494 6765745F 		.ascii	"get_priority\000"
 18073      7072696F 
ARM GAS  /tmp/cc9AvIGf.s 			page 355


 18073      72697479 
 18073      00
 18074              	.LASF76:
 18075 44a1 6F706572 		.ascii	"operator-=\000"
 18075      61746F72 
 18075      2D3D00
 18076              	.LASF92:
 18077 44ac 6F706572 		.ascii	"operator->\000"
 18077      61746F72 
 18077      2D3E00
 18078              	.LASF395:
 18079 44b7 5F5A4E4B 		.ascii	"_ZNK3r2p10StaticListINS_14LocalPublisherEE5countEv\000"
 18079      33723270 
 18079      31305374 
 18079      61746963 
 18079      4C697374 
 18080              	.LASF594:
 18081 44ea 5F5A4E33 		.ascii	"_ZN3r2p10StaticListINS_9TransportEE12begin_unsafeEv"
 18081      72327031 
 18081      30537461 
 18081      7469634C 
 18081      69737449 
 18082 451d 00       		.ascii	"\000"
 18083              	.LASF379:
 18084 451e 5F5A4E4B 		.ascii	"_ZNK3r2p10StaticListINS_14LocalPublisherEE12count_u"
 18084      33723270 
 18084      31305374 
 18084      61746963 
 18084      4C697374 
 18085 4551 6E736166 		.ascii	"nsafeEv\000"
 18085      65457600 
 18086              	.LASF291:
 18087 4559 5F5A4E4B 		.ascii	"_ZNK3r2p5Topic14has_publishersEv\000"
 18087      33723270 
 18087      35546F70 
 18087      69633134 
 18087      6861735F 
 18088              	.LASF743:
 18089 457a 31325468 		.ascii	"12ThreadsQueue\000"
 18089      72656164 
 18089      73517565 
 18089      756500
 18090              	.LASF403:
 18091 4589 5F5A4E33 		.ascii	"_ZN3r2p10StaticListINS_14LocalPublisherEE3endEv\000"
 18091      72327031 
 18091      30537461 
 18091      7469634C 
 18091      69737449 
 18092              	.LASF582:
 18093 45b9 5F5A4E33 		.ascii	"_ZN3r2p7ReMutex7releaseEv\000"
 18093      72327037 
 18093      52654D75 
 18093      74657837 
 18093      72656C65 
 18094              	.LASF476:
 18095 45d3 6E6F6465 		.ascii	"node\000"
 18095      00
ARM GAS  /tmp/cc9AvIGf.s 			page 356


 18096              	.LASF249:
 18097 45d8 5F5A4E4B 		.ascii	"_ZNK3r2p10StaticListINS_5TopicEE8get_headEv\000"
 18097      33723270 
 18097      31305374 
 18097      61746963 
 18097      4C697374 
 18098              	.LASF119:
 18099 4604 5F5A4E33 		.ascii	"_ZN3r2p10StaticListINS_15LocalSubscriberEE13ConstIt"
 18099      72327031 
 18099      30537461 
 18099      7469634C 
 18099      69737449 
 18100 4637 65726174 		.ascii	"eratorppEi\000"
 18100      6F727070 
 18100      456900
 18101              	.LASF404:
 18102 4642 5F5A4E33 		.ascii	"_ZN3r2p10StaticListINS_14LocalPublisherEE7restartER"
 18102      72327031 
 18102      30537461 
 18102      7469634C 
 18102      69737449 
 18103 4675 4E53325F 		.ascii	"NS2_8IteratorE\000"
 18103      38497465 
 18103      7261746F 
 18103      724500
 18104              	.LASF391:
 18105 4684 5F5A4E4B 		.ascii	"_ZNK3r2p10StaticListINS_14LocalPublisherEE10end_uns"
 18105      33723270 
 18105      31305374 
 18105      61746963 
 18105      4C697374 
 18106 46b7 61666545 		.ascii	"afeEv\000"
 18106      7600
 18107              	.LASF34:
 18108 46bd 6765745F 		.ascii	"get_item_size\000"
 18108      6974656D 
 18108      5F73697A 
 18108      6500
 18109              	.LASF118:
 18110 46cb 5F5A4E33 		.ascii	"_ZN3r2p10StaticListINS_15LocalSubscriberEE13ConstIt"
 18110      72327031 
 18110      30537461 
 18110      7469634C 
 18110      69737449 
 18111 46fe 65726174 		.ascii	"eratorppEv\000"
 18111      6F727070 
 18111      457600
 18112              	.LASF215:
 18113 4709 5F5A4E4B 		.ascii	"_ZNK3r2p10StaticListINS_16RemoteSubscriberEE8is_emp"
 18113      33723270 
 18113      31305374 
 18113      61746963 
 18113      4C697374 
 18114 473c 74794576 		.ascii	"tyEv\000"
 18114      00
 18115              	.LASF423:
 18116 4741 73656C66 		.ascii	"self\000"
ARM GAS  /tmp/cc9AvIGf.s 			page 357


 18116      00
 18117              	.LASF309:
 18118 4746 6E6F7469 		.ascii	"notify_locals_unsafe\000"
 18118      66795F6C 
 18118      6F63616C 
 18118      735F756E 
 18118      73616665 
 18119              	.LASF467:
 18120 475b 53544F50 		.ascii	"STOP\000"
 18120      00
 18121              	.LASF695:
 18122 4760 5F5A4E33 		.ascii	"_ZN3r2p10Middleware11is_rebootedEv\000"
 18122      72327031 
 18122      304D6964 
 18122      646C6577 
 18122      61726531 
 18123              	.LASF31:
 18124 4783 5F5A4E33 		.ascii	"_ZN3r2p7SysLock7acquireEv\000"
 18124      72327037 
 18124      5379734C 
 18124      6F636B37 
 18124      61637175 
 18125              	.LASF729:
 18126 479d 705F7374 		.ascii	"p_stklimit\000"
 18126      6B6C696D 
 18126      697400
 18127              	.LASF670:
 18128 47a8 5F5A4E33 		.ascii	"_ZN3r2p10Middleware3addERNS_9TransportE\000"
 18128      72327031 
 18128      304D6964 
 18128      646C6577 
 18128      61726533 
 18129              	.LASF782:
 18130 47d0 6C6F636B 		.ascii	"lock\000"
 18130      00
 18131              	.LASF572:
 18132 47d5 5F5A4E33 		.ascii	"_ZN3r2p5Mutex14release_unsafeEv\000"
 18132      72327035 
 18132      4D757465 
 18132      78313472 
 18132      656C6561 
 18133              	.LASF587:
 18134 47f5 5F5A4E33 		.ascii	"_ZN3r2p10StaticListINS_9TransportEE11link_unsafeERN"
 18134      72327031 
 18134      30537461 
 18134      7469634C 
 18134      69737449 
 18135 4828 53325F34 		.ascii	"S2_4LinkE\000"
 18135      4C696E6B 
 18135      4500
 18136              	.LASF432:
 18137 4832 5F5A4E33 		.ascii	"_ZN3r2p7Thread_5sleepERKNS_4TimeE\000"
 18137      72327037 
 18137      54687265 
 18137      61645F35 
 18137      736C6565 
 18138              	.LASF136:
ARM GAS  /tmp/cc9AvIGf.s 			page 358


 18139 4854 5F5A4E33 		.ascii	"_ZN3r2p10StaticListINS_15LocalSubscriberEE13unlink_"
 18139      72327031 
 18139      30537461 
 18139      7469634C 
 18139      69737449 
 18140 4887 756E7361 		.ascii	"unsafeERNS2_4LinkE\000"
 18140      66654552 
 18140      4E53325F 
 18140      344C696E 
 18140      6B4500
 18141              	.LASF329:
 18142 489a 61647665 		.ascii	"advertise\000"
 18142      72746973 
 18142      6500
 18143              	.LASF50:
 18144 48a4 54696D65 		.ascii	"Time\000"
 18144      00
 18145              	.LASF328:
 18146 48a9 5F5A4E33 		.ascii	"_ZN3r2p5Topic11extend_poolEPNS_7MessageEj\000"
 18146      72327035 
 18146      546F7069 
 18146      63313165 
 18146      7874656E 
 18147              	.LASF131:
 18148 48d3 6C696E6B 		.ascii	"link_unsafe\000"
 18148      5F756E73 
 18148      61666500 
 18149              	.LASF555:
 18150 48df 7370696E 		.ascii	"spin\000"
 18150      00
 18151              	.LASF207:
 18152 48e4 5F5A4E4B 		.ascii	"_ZNK3r2p10StaticListINS_16RemoteSubscriberEE17find_"
 18152      33723270 
 18152      31305374 
 18152      61746963 
 18152      4C697374 
 18153 4917 66697273 		.ascii	"first_unsafeEPFbRKS1_PKvES6_\000"
 18153      745F756E 
 18153      73616665 
 18153      45504662 
 18153      524B5331 
 18154              	.LASF334:
 18155 4934 5F5A4E33 		.ascii	"_ZN3r2p5Topic9subscribeERNS_16RemoteSubscriberEj\000"
 18155      72327035 
 18155      546F7069 
 18155      63397375 
 18155      62736372 
 18156              	.LASF477:
 18157 4965 746F7069 		.ascii	"topic\000"
 18157      6300
 18158              	.LASF733:
 18159 496b 705F7072 		.ascii	"p_preempt\000"
 18159      65656D70 
 18159      7400
 18160              	.LASF454:
 18161 4975 5F5A4E33 		.ascii	"_ZN3r2p10SpinEvent_13signal_unsafeEj\000"
 18161      72327031 
ARM GAS  /tmp/cc9AvIGf.s 			page 359


 18161      30537069 
 18161      6E457665 
 18161      6E745F31 
 18162              	.LASF682:
 18163 499a 746F7563 		.ascii	"touch_topic\000"
 18163      685F746F 
 18163      70696300 
 18164              	.LASF213:
 18165 49a6 5F5A4E4B 		.ascii	"_ZNK3r2p10StaticListINS_16RemoteSubscriberEE14resta"
 18165      33723270 
 18165      31305374 
 18165      61746963 
 18165      4C697374 
 18166 49d9 72745F75 		.ascii	"rt_unsafeERNS2_19ConstIteratorUnsafeE\000"
 18166      6E736166 
 18166      6545524E 
 18166      53325F31 
 18166      39436F6E 
 18167              	.LASF630:
 18168 49ff 6D676D74 		.ascii	"mgmt_pub\000"
 18168      5F707562 
 18168      00
 18169              	.LASF768:
 18170 4a08 4D656D6F 		.ascii	"MemoryPool\000"
 18170      7279506F 
 18170      6F6C00
 18171              	.LASF98:
 18172 4a13 5F5A4E33 		.ascii	"_ZN3r2p10StaticListINS_15LocalSubscriberEE14Iterato"
 18172      72327031 
 18172      30537461 
 18172      7469634C 
 18172      69737449 
 18173 4a46 72556E73 		.ascii	"rUnsafeppEi\000"
 18173      61666570 
 18173      70456900 
 18174              	.LASF343:
 18175 4a52 4D657373 		.ascii	"Message\000"
 18175      61676500 
 18176              	.LASF97:
 18177 4a5a 5F5A4E33 		.ascii	"_ZN3r2p10StaticListINS_15LocalSubscriberEE14Iterato"
 18177      72327031 
 18177      30537461 
 18177      7469634C 
 18177      69737449 
 18178 4a8d 72556E73 		.ascii	"rUnsafeppEv\000"
 18178      61666570 
 18178      70457600 
 18179              	.LASF783:
 18180 4a99 7472616E 		.ascii	"transport\000"
 18180      73706F72 
 18180      7400
 18181              	.LASF608:
 18182 4aa3 5F5A4E4B 		.ascii	"_ZNK3r2p10StaticListINS_9TransportEE10find_firstEPF"
 18182      33723270 
 18182      31305374 
 18182      61746963 
 18182      4C697374 
ARM GAS  /tmp/cc9AvIGf.s 			page 360


 18183 4ad6 62524B53 		.ascii	"bRKS1_PKvES6_\000"
 18183      315F504B 
 18183      76455336 
 18183      5F00
 18184              	.LASF720:
 18185 4ae4 77746F62 		.ascii	"wtobjp\000"
 18185      6A7000
 18186              	.LASF281:
 18187 4aeb 5F5A4E4B 		.ascii	"_ZNK3r2p5Topic16get_payload_sizeEv\000"
 18187      33723270 
 18187      35546F70 
 18187      69633136 
 18187      6765745F 
 18188              	.LASF640:
 18189 4b0e 7265626F 		.ascii	"rebooted_magic\000"
 18189      6F746564 
 18189      5F6D6167 
 18189      696300
 18190              	.LASF562:
 18191 4b1d 696E6974 		.ascii	"initialize\000"
 18191      69616C69 
 18191      7A6500
 18192              	.LASF30:
 18193 4b28 7E53636F 		.ascii	"~Scope\000"
 18193      706500
 18194              	.LASF36:
 18195 4b2f 5F5A4E4B 		.ascii	"_ZNK3r2p11MemoryPool_13get_item_sizeEv\000"
 18195      33723270 
 18195      31314D65 
 18195      6D6F7279 
 18195      506F6F6C 
 18196              	.LASF444:
 18197 4b56 5F5A4E33 		.ascii	"_ZN3r2p6Thread5sleepERKNS_4TimeE\000"
 18197      72327036 
 18197      54687265 
 18197      61643573 
 18197      6C656570 
 18198              	.LASF80:
 18199 4b77 5F5A4E33 		.ascii	"_ZN3r2p4Time1sEl\000"
 18199      72327034 
 18199      54696D65 
 18199      3173456C 
 18199      00
 18200              	.LASF552:
 18201 4b88 5F5A4E33 		.ascii	"_ZN3r2p4Node6notifyEj\000"
 18201      72327034 
 18201      4E6F6465 
 18201      366E6F74 
 18201      69667945 
 18202              	.LASF25:
 18203 4b9e 72656C65 		.ascii	"release\000"
 18203      61736500 
 18204              	.LASF661:
 18205 4ba6 7265626F 		.ascii	"reboot\000"
 18205      6F7400
 18206              	.LASF770:
 18207 4bad 646F7562 		.ascii	"double\000"
ARM GAS  /tmp/cc9AvIGf.s 			page 361


 18207      6C6500
 18208              	.LASF222:
 18209 4bb4 5F5A4E4B 		.ascii	"_ZNK3r2p10StaticListINS_16RemoteSubscriberEE10find_"
 18209      33723270 
 18209      31305374 
 18209      61746963 
 18209      4C697374 
 18210 4be7 66697273 		.ascii	"firstEPFbRKS1_PKvES6_\000"
 18210      74455046 
 18210      62524B53 
 18210      315F504B 
 18210      76455336 
 18211              	.LASF32:
 18212 4bfd 5F5A4E33 		.ascii	"_ZN3r2p7SysLock7releaseEv\000"
 18212      72327037 
 18212      5379734C 
 18212      6F636B37 
 18212      72656C65 
 18213              	.LASF700:
 18214 4c17 53756273 		.ascii	"SubscriberExtBuf<r2p::MgmtMsg>\000"
 18214      63726962 
 18214      65724578 
 18214      74427566 
 18214      3C723270 
 18215              	.LASF468:
 18216 4c36 5245424F 		.ascii	"REBOOT\000"
 18216      4F5400
 18217              	.LASF527:
 18218 4c3d 5F5A4E33 		.ascii	"_ZN3r2p10StaticListINS_4NodeEE5beginEv\000"
 18218      72327031 
 18218      30537461 
 18218      7469634C 
 18218      69737449 
 18219              	.LASF378:
 18220 4c64 5F5A4E4B 		.ascii	"_ZNK3r2p10StaticListINS_14LocalPublisherEE15is_empt"
 18220      33723270 
 18220      31305374 
 18220      61746963 
 18220      4C697374 
 18221 4c97 795F756E 		.ascii	"y_unsafeEv\000"
 18221      73616665 
 18221      457600
 18222              	.LASF298:
 18223 4ca2 69735F61 		.ascii	"is_awaiting_advertisements\000"
 18223      77616974 
 18223      696E675F 
 18223      61647665 
 18223      72746973 
 18224              	.LASF459:
 18225 4cbd 5370696E 		.ascii	"SpinEvent\000"
 18225      4576656E 
 18225      7400
 18226              	.LASF559:
 18227 4cc7 7E4E6F64 		.ascii	"~Node\000"
 18227      6500
 18228              	.LASF393:
 18229 4ccd 5F5A4E4B 		.ascii	"_ZNK3r2p10StaticListINS_14LocalPublisherEE8get_head"
ARM GAS  /tmp/cc9AvIGf.s 			page 362


 18229      33723270 
 18229      31305374 
 18229      61746963 
 18229      4C697374 
 18230 4d00 457600   		.ascii	"Ev\000"
 18231              	.LASF336:
 18232 4d03 6861735F 		.ascii	"has_name\000"
 18232      6E616D65 
 18232      00
 18233              	.LASF580:
 18234 4d0c 5F5A4E33 		.ascii	"_ZN3r2p7ReMutex14release_unsafeEv\000"
 18234      72327037 
 18234      52654D75 
 18234      74657831 
 18234      3472656C 
 18235              	.LASF8:
 18236 4d2e 5F5F696E 		.ascii	"__int32_t\000"
 18236      7433325F 
 18236      7400
 18237              	.LASF348:
 18238 4d38 61637175 		.ascii	"acquire_unsafe\000"
 18238      6972655F 
 18238      756E7361 
 18238      666500
 18239              	.LASF301:
 18240 4d47 5F5A4E4B 		.ascii	"_ZNK3r2p5Topic25is_awaiting_subscriptionsEv\000"
 18240      33723270 
 18240      35546F70 
 18240      69633235 
 18240      69735F61 
 18241              	.LASF10:
 18242 4d73 5F5F7569 		.ascii	"__uint32_t\000"
 18242      6E743332 
 18242      5F7400
 18243              	.LASF370:
 18244 4d7e 5F5A4E4B 		.ascii	"_ZNK3r2p10StaticListINS_14LocalPublisherEE13ConstIt"
 18244      33723270 
 18244      31305374 
 18244      61746963 
 18244      4C697374 
 18245 4db1 65726174 		.ascii	"eratorptEv\000"
 18245      6F727074 
 18245      457600
 18246              	.LASF236:
 18247 4dbc 5F5A4E33 		.ascii	"_ZN3r2p10StaticListINS_5TopicEE11link_unsafeERNS2_4"
 18247      72327031 
 18247      30537461 
 18247      7469634C 
 18247      69737449 
 18248 4def 4C696E6B 		.ascii	"LinkE\000"
 18248      4500
 18249              	.LASF588:
 18250 4df5 5F5A4E33 		.ascii	"_ZN3r2p10StaticListINS_9TransportEE16link_tail_unsa"
 18250      72327031 
 18250      30537461 
 18250      7469634C 
 18250      69737449 
ARM GAS  /tmp/cc9AvIGf.s 			page 363


 18251 4e28 66654552 		.ascii	"feERNS2_4LinkE\000"
 18251      4E53325F 
 18251      344C696E 
 18251      6B4500
 18252              	.LASF139:
 18253 4e37 636F6E74 		.ascii	"contains_unsafe\000"
 18253      61696E73 
 18253      5F756E73 
 18253      61666500 
 18254              	.LASF636:
 18255 4e47 69746572 		.ascii	"iter_subscribers\000"
 18255      5F737562 
 18255      73637269 
 18255      62657273 
 18255      00
 18256              	.LASF791:
 18257 4e58 6974656D 		.ascii	"item\000"
 18257      00
 18258              	.LASF672:
 18259 4e5d 5F5A4E33 		.ascii	"_ZN3r2p10Middleware9advertiseERNS_14LocalPublisherE"
 18259      72327031 
 18259      304D6964 
 18259      646C6577 
 18259      61726539 
 18260 4e90 504B6352 		.ascii	"PKcRKNS_4TimeEj\000"
 18260      4B4E535F 
 18260      3454696D 
 18260      65456A00 
 18261              	.LASF247:
 18262 4ea0 5F5A4E4B 		.ascii	"_ZNK3r2p10StaticListINS_5TopicEE10end_unsafeEv\000"
 18262      33723270 
 18262      31305374 
 18262      61746963 
 18262      4C697374 
 18263              	.LASF358:
 18264 4ecf 5F5A4E4B 		.ascii	"_ZNK3r2p5Topic16patch_pubsub_msgERNS_7MessageERNS_9"
 18264      33723270 
 18264      35546F70 
 18264      69633136 
 18264      70617463 
 18265 4f02 5472616E 		.ascii	"TransportE\000"
 18265      73706F72 
 18265      744500
 18266              	.LASF655:
 18267 4f0d 5F5A4E4B 		.ascii	"_ZNK3r2p10Middleware10is_stoppedEv\000"
 18267      33723270 
 18267      31304D69 
 18267      64646C65 
 18267      77617265 
 18268              	.LASF738:
 18269 4f30 705F6570 		.ascii	"p_epending\000"
 18269      656E6469 
 18269      6E6700
 18270              	.LASF369:
 18271 4f3b 5F5A4E33 		.ascii	"_ZN3r2p10StaticListINS_14LocalPublisherEE13ConstIte"
 18271      72327031 
 18271      30537461 
ARM GAS  /tmp/cc9AvIGf.s 			page 364


 18271      7469634C 
 18271      69737449 
 18272 4f6e 7261746F 		.ascii	"ratoraSERKS3_\000"
 18272      72615345 
 18272      524B5333 
 18272      5F00
 18273              	.LASF673:
 18274 4f7c 5F5A4E33 		.ascii	"_ZN3r2p10Middleware9advertiseERNS_15RemotePublisher"
 18274      72327031 
 18274      304D6964 
 18274      646C6577 
 18274      61726539 
 18275 4faf 45504B63 		.ascii	"EPKcRKNS_4TimeEj\000"
 18275      524B4E53 
 18275      5F345469 
 18275      6D65456A 
 18275      00
 18276              	.LASF113:
 18277 4fc0 5F5A4E4B 		.ascii	"_ZNK3r2p10StaticListINS_15LocalSubscriberEE8Iterato"
 18277      33723270 
 18277      31305374 
 18277      61746963 
 18277      4C697374 
 18278 4ff3 72386973 		.ascii	"r8is_validEv\000"
 18278      5F76616C 
 18278      69644576 
 18278      00
 18279              	.LASF353:
 18280 5000 5F5A4E33 		.ascii	"_ZN3r2p7Message7acquireEv\000"
 18280      72327037 
 18280      4D657373 
 18280      61676537 
 18280      61637175 
 18281              	.LASF316:
 18282 501a 5F5A4E4B 		.ascii	"_ZNK3r2p5Topic16compute_deadlineERKNS_4TimeE\000"
 18282      33723270 
 18282      35546F70 
 18282      69633136 
 18282      636F6D70 
 18283              	.LASF155:
 18284 5047 69735F65 		.ascii	"is_empty\000"
 18284      6D707479 
 18284      00
 18285              	.LASF130:
 18286 5050 5F5A4E4B 		.ascii	"_ZNK3r2p10StaticListINS_15LocalSubscriberEE12count_"
 18286      33723270 
 18286      31305374 
 18286      61746963 
 18286      4C697374 
 18287 5083 756E7361 		.ascii	"unsafeEv\000"
 18287      66654576 
 18287      00
 18288              	.LASF675:
 18289 508c 5F5A4E33 		.ascii	"_ZN3r2p10Middleware9subscribeERNS_16RemoteSubscribe"
 18289      72327031 
 18289      304D6964 
 18289      646C6577 
ARM GAS  /tmp/cc9AvIGf.s 			page 365


 18289      61726539 
 18290 50bf 7245504B 		.ascii	"rEPKcPNS_7MessageEjj\000"
 18290      63504E53 
 18290      5F374D65 
 18290      73736167 
 18290      65456A6A 
 18291              	.LASF187:
 18292 50d4 5F5A4E4B 		.ascii	"_ZNK3r2p10StaticListINS_16RemoteSubscriberEE14Itera"
 18292      33723270 
 18292      31305374 
 18292      61746963 
 18292      4C697374 
 18293 5107 746F7255 		.ascii	"torUnsafeeqERKS3_\000"
 18293      6E736166 
 18293      65657145 
 18293      524B5333 
 18293      5F00
 18294              	.LASF373:
 18295 5119 5F5A4E33 		.ascii	"_ZN3r2p10StaticListINS_14LocalPublisherEE13ConstIte"
 18295      72327031 
 18295      30537461 
 18295      7469634C 
 18295      69737449 
 18296 514c 7261746F 		.ascii	"ratorppEi\000"
 18296      72707045 
 18296      6900
 18297              	.LASF194:
 18298 5156 5F5A4E33 		.ascii	"_ZN3r2p10StaticListINS_16RemoteSubscriberEE8Iterato"
 18298      72327031 
 18298      30537461 
 18298      7469634C 
 18298      69737449 
 18299 5189 72707045 		.ascii	"rppEi\000"
 18299      6900
 18300              	.LASF372:
 18301 518f 5F5A4E33 		.ascii	"_ZN3r2p10StaticListINS_14LocalPublisherEE13ConstIte"
 18301      72327031 
 18301      30537461 
 18301      7469634C 
 18301      69737449 
 18302 51c2 7261746F 		.ascii	"ratorppEv\000"
 18302      72707045 
 18302      7600
 18303              	.LASF193:
 18304 51cc 5F5A4E33 		.ascii	"_ZN3r2p10StaticListINS_16RemoteSubscriberEE8Iterato"
 18304      72327031 
 18304      30537461 
 18304      7469634C 
 18304      69737449 
 18305 51ff 72707045 		.ascii	"rppEv\000"
 18305      7600
 18306              	.LASF181:
 18307 5205 53746174 		.ascii	"StaticList<r2p::RemoteSubscriber>\000"
 18307      69634C69 
 18307      73743C72 
 18307      32703A3A 
 18307      52656D6F 
ARM GAS  /tmp/cc9AvIGf.s 			page 366


 18308              	.LASF698:
 18309 5227 52656D6F 		.ascii	"RemoteSubscriber\000"
 18309      74655375 
 18309      62736372 
 18309      69626572 
 18309      00
 18310              	.LASF132:
 18311 5238 6C696E6B 		.ascii	"link_tail_unsafe\000"
 18311      5F746169 
 18311      6C5F756E 
 18311      73616665 
 18311      00
 18312              	.LASF414:
 18313 5249 5F5A4E33 		.ascii	"_ZN3r2p7Thread_8get_implEv\000"
 18313      72327037 
 18313      54687265 
 18313      61645F38 
 18313      6765745F 
 18314              	.LASF610:
 18315 5264 5F5A4E33 		.ascii	"_ZN3r2p10StaticListINS_9TransportEE3endEv\000"
 18315      72327031 
 18315      30537461 
 18315      7469634C 
 18315      69737449 
 18316              	.LASF239:
 18317 528e 5F5A4E4B 		.ascii	"_ZNK3r2p10StaticListINS_5TopicEE15index_of_unsafeER"
 18317      33723270 
 18317      31305374 
 18317      61746963 
 18317      4C697374 
 18318 52c1 4B53315F 		.ascii	"KS1_\000"
 18318      00
 18319              	.LASF752:
 18320 52c6 725F7072 		.ascii	"r_prio\000"
 18320      696F00
 18321              	.LASF400:
 18322 52cd 5F5A4E4B 		.ascii	"_ZNK3r2p10StaticListINS_14LocalPublisherEE10find_fi"
 18322      33723270 
 18322      31305374 
 18322      61746963 
 18322      4C697374 
 18323 5300 72737445 		.ascii	"rstEPFbRKS1_E\000"
 18323      50466252 
 18323      4B53315F 
 18323      4500
 18324              	.LASF105:
 18325 530e 49746572 		.ascii	"Iterator\000"
 18325      61746F72 
 18325      00
 18326              	.LASF800:
 18327 5317 49544D5F 		.ascii	"ITM_RxBuffer\000"
 18327      52784275 
 18327      66666572 
 18327      00
 18328              	.LASF764:
 18329 5324 31304D65 		.ascii	"10MemoryPool\000"
 18329      6D6F7279 
ARM GAS  /tmp/cc9AvIGf.s 			page 367


 18329      506F6F6C 
 18329      00
 18330              	.LASF14:
 18331 5331 6C6F6E67 		.ascii	"long long unsigned int\000"
 18331      206C6F6E 
 18331      6720756E 
 18331      7369676E 
 18331      65642069 
 18332              	.LASF499:
 18333 5348 5F5A4E4B 		.ascii	"_ZNK3r2p10StaticListINS_4NodeEE13ConstIteratoreqERK"
 18333      33723270 
 18333      31305374 
 18333      61746963 
 18333      4C697374 
 18334 537b 53335F00 		.ascii	"S3_\000"
 18335              	.LASF263:
 18336 537f 5F5A4E4B 		.ascii	"_ZNK3r2p10StaticListINS_5TopicEE7restartERNS2_13Con"
 18336      33723270 
 18336      31305374 
 18336      61746963 
 18336      4C697374 
 18337 53b2 73744974 		.ascii	"stIteratorE\000"
 18337      65726174 
 18337      6F724500 
 18338              	.LASF232:
 18339 53be 53746174 		.ascii	"StaticList<r2p::Topic>\000"
 18339      69634C69 
 18339      73743C72 
 18339      32703A3A 
 18339      546F7069 
 18340              	.LASF168:
 18341 53d5 5F5A4E4B 		.ascii	"_ZNK3r2p10StaticListINS_15LocalSubscriberEE10find_f"
 18341      33723270 
 18341      31305374 
 18341      61746963 
 18341      4C697374 
 18342 5408 69727374 		.ascii	"irstEPFbRKS1_E\000"
 18342      45504662 
 18342      524B5331 
 18342      5F4500
 18343              	.LASF627:
 18344 5417 6D676D74 		.ascii	"mgmt_threadp\000"
 18344      5F746872 
 18344      65616470 
 18344      00
 18345              	.LASF785:
 18346 5424 746F7069 		.ascii	"topicp\000"
 18346      637000
 18347              	.LASF621:
 18348 542b 746F7069 		.ascii	"topics\000"
 18348      637300
 18349              	.LASF478:
 18350 5432 50756253 		.ascii	"PubSub\000"
 18350      756200
 18351              	.LASF796:
 18352 5439 5F5A4E33 		.ascii	"_ZN3r2p10StaticListINS_15LocalSubscriberEE8Iterator"
 18352      72327031 
ARM GAS  /tmp/cc9AvIGf.s 			page 368


 18352      30537461 
 18352      7469634C 
 18352      69737449 
 18353 546c 43324550 		.ascii	"C2EPKNS2_4LinkE\000"
 18353      4B4E5332 
 18353      5F344C69 
 18353      6E6B4500 
 18354              	.LASF46:
 18355 547c 65787465 		.ascii	"extend\000"
 18355      6E6400
 18356              	.LASF28:
 18357 5483 5379734C 		.ascii	"SysLock\000"
 18357      6F636B00 
 18358              	.LASF491:
 18359 548b 70756273 		.ascii	"pubsub\000"
 18359      756200
 18360              	.LASF795:
 18361 5492 5F5A4E33 		.ascii	"_ZN3r2p10StaticListINS_16RemoteSubscriberEE14Iterat"
 18361      72327031 
 18361      30537461 
 18361      7469634C 
 18361      69737449 
 18362 54c5 6F72556E 		.ascii	"orUnsafeC2EPKNS2_4LinkE\000"
 18362      73616665 
 18362      43324550 
 18362      4B4E5332 
 18362      5F344C69 
 18363              	.LASF216:
 18364 54dd 5F5A4E4B 		.ascii	"_ZNK3r2p10StaticListINS_16RemoteSubscriberEE5countE"
 18364      33723270 
 18364      31305374 
 18364      61746963 
 18364      4C697374 
 18365 5510 7600     		.ascii	"v\000"
 18366              	.LASF219:
 18367 5512 5F5A4E4B 		.ascii	"_ZNK3r2p10StaticListINS_16RemoteSubscriberEE8index_"
 18367      33723270 
 18367      31305374 
 18367      61746963 
 18367      4C697374 
 18368 5545 6F664552 		.ascii	"ofERKS1_\000"
 18368      4B53315F 
 18368      00
 18369              	.LASF529:
 18370 554e 5F5A4E33 		.ascii	"_ZN3r2p10StaticListINS_4NodeEE7restartERNS2_8Iterat"
 18370      72327031 
 18370      30537461 
 18370      7469634C 
 18370      69737449 
 18371 5581 6F724500 		.ascii	"orE\000"
 18372              	.LASF208:
 18373 5585 5F5A4E33 		.ascii	"_ZN3r2p10StaticListINS_16RemoteSubscriberEE12begin_"
 18373      72327031 
 18373      30537461 
 18373      7469634C 
 18373      69737449 
 18374 55b8 756E7361 		.ascii	"unsafeEv\000"
ARM GAS  /tmp/cc9AvIGf.s 			page 369


 18374      66654576 
 18374      00
 18375              	.LASF731:
 18376 55c1 705F666C 		.ascii	"p_flags\000"
 18376      61677300 
 18377              	.LASF240:
 18378 55c9 5F5A4E4B 		.ascii	"_ZNK3r2p10StaticListINS_5TopicEE15contains_unsafeER"
 18378      33723270 
 18378      31305374 
 18378      61746963 
 18378      4C697374 
 18379 55fc 4B53315F 		.ascii	"KS1_\000"
 18379      00
 18380              	.LASF431:
 18381 5601 736C6565 		.ascii	"sleep\000"
 18381      7000
 18382              	.LASF649:
 18383 5607 5F5A4E4B 		.ascii	"_ZNK3r2p10Middleware14get_transportsEv\000"
 18383      33723270 
 18383      31304D69 
 18383      64646C65 
 18383      77617265 
 18384              	.LASF721:
 18385 562e 65776D61 		.ascii	"ewmask\000"
 18385      736B00
 18386              	.LASF116:
 18387 5635 5F5A4E4B 		.ascii	"_ZNK3r2p10StaticListINS_15LocalSubscriberEE13ConstI"
 18387      33723270 
 18387      31305374 
 18387      61746963 
 18387      4C697374 
 18388 5668 74657261 		.ascii	"teratorptEv\000"
 18388      746F7270 
 18388      74457600 
 18389              	.LASF677:
 18390 5674 5F5A4E33 		.ascii	"_ZN3r2p10Middleware12confirm_stopERKNS_4NodeE\000"
 18390      72327031 
 18390      304D6964 
 18390      646C6577 
 18390      61726531 
 18391              	.LASF595:
 18392 56a2 5F5A4E33 		.ascii	"_ZN3r2p10StaticListINS_9TransportEE10end_unsafeEv\000"
 18392      72327031 
 18392      30537461 
 18392      7469634C 
 18392      69737449 
 18393              	.LASF433:
 18394 56d4 6A6F696E 		.ascii	"join\000"
 18394      00
 18395              	.LASF273:
 18396 56d9 62795F6D 		.ascii	"by_middleware\000"
 18396      6964646C 
 18396      65776172 
 18396      6500
 18397              	.LASF739:
 18398 56e7 705F6D74 		.ascii	"p_mtxlist\000"
 18398      786C6973 
ARM GAS  /tmp/cc9AvIGf.s 			page 370


 18398      7400
 18399              	.LASF69:
 18400 56f1 5F5A4E4B 		.ascii	"_ZNK3r2p4Time4to_sEv\000"
 18400      33723270 
 18400      3454696D 
 18400      6534746F 
 18400      5F734576 
 18401              	.LASF494:
 18402 5706 5F5A4E33 		.ascii	"_ZN3r2p10StaticListINS_4NodeEE13ConstIteratoraSERKS"
 18402      72327031 
 18402      30537461 
 18402      7469634C 
 18402      69737449 
 18403 5739 335F00   		.ascii	"3_\000"
 18404              	.LASF525:
 18405 573c 5F5A4E4B 		.ascii	"_ZNK3r2p10StaticListINS_4NodeEE10find_firstEPFbRKS1"
 18405      33723270 
 18405      31305374 
 18405      61746963 
 18405      4C697374 
 18406 576f 5F4500   		.ascii	"_E\000"
 18407              	.LASF711:
 18408 5772 74737461 		.ascii	"tstate_t\000"
 18408      74655F74 
 18408      00
 18409              	.LASF75:
 18410 577b 5F5A4E33 		.ascii	"_ZN3r2p4TimepLERKS0_\000"
 18410      72327034 
 18410      54696D65 
 18410      704C4552 
 18410      4B53305F 
 18411              	.LASF566:
 18412 5790 5F5A4E33 		.ascii	"_ZN3r2p6Mutex_7acquireEv\000"
 18412      72327036 
 18412      4D757465 
 18412      785F3761 
 18412      63717569 
 18413              	.LASF469:
 18414 57a9 424F4F54 		.ascii	"BOOTLOAD\000"
 18414      4C4F4144 
 18414      00
 18415              	.LASF283:
 18416 57b2 5F5A4E4B 		.ascii	"_ZNK3r2p5Topic20get_max_queue_lengthEv\000"
 18416      33723270 
 18416      35546F70 
 18416      69633230 
 18416      6765745F 
 18417              	.LASF481:
 18418 57d9 7261775F 		.ascii	"raw_params\000"
 18418      70617261 
 18418      6D7300
 18419              	.LASF522:
 18420 57e4 5F5A4E33 		.ascii	"_ZN3r2p10StaticListINS_4NodeEE6unlinkERNS2_4LinkE\000"
 18420      72327031 
 18420      30537461 
 18420      7469634C 
 18420      69737449 
ARM GAS  /tmp/cc9AvIGf.s 			page 371


 18421              	.LASF773:
 18422 5816 5F5A4E33 		.ascii	"_ZN3r2p10UncopyableC2Ev\000"
 18422      72327031 
 18422      30556E63 
 18422      6F707961 
 18422      626C6543 
 18423              	.LASF598:
 18424 582e 5F5A4E4B 		.ascii	"_ZNK3r2p10StaticListINS_9TransportEE10end_unsafeEv\000"
 18424      33723270 
 18424      31305374 
 18424      61746963 
 18424      4C697374 
 18425              	.LASF278:
 18426 5861 6765745F 		.ascii	"get_type_size\000"
 18426      74797065 
 18426      5F73697A 
 18426      6500
 18427              	.LASF671:
 18428 586f 5F5A4E33 		.ascii	"_ZN3r2p10Middleware3addERNS_5TopicE\000"
 18428      72327031 
 18428      304D6964 
 18428      646C6577 
 18428      61726533 
 18429              	.LASF568:
 18430 5893 5F5A4E33 		.ascii	"_ZN3r2p6Mutex_8get_implEv\000"
 18430      72327036 
 18430      4D757465 
 18430      785F3867 
 18430      65745F69 
 18431              	.LASF514:
 18432 58ad 5F5A4E33 		.ascii	"_ZN3r2p10StaticListINS_4NodeEE14restart_unsafeERNS2"
 18432      72327031 
 18432      30537461 
 18432      7469634C 
 18432      69737449 
 18433 58e0 5F313449 		.ascii	"_14IteratorUnsafeE\000"
 18433      74657261 
 18433      746F7255 
 18433      6E736166 
 18433      654500
 18434              	.LASF177:
 18435 58f3 5F5A4E4B 		.ascii	"_ZNK3r2p10StaticListINS_15LocalSubscriberEE7restart"
 18435      33723270 
 18435      31305374 
 18435      61746963 
 18435      4C697374 
 18436 5926 45524E53 		.ascii	"ERNS2_13ConstIteratorE\000"
 18436      325F3133 
 18436      436F6E73 
 18436      74497465 
 18436      7261746F 
 18437              	.LASF277:
 18438 593d 5F5A4E4B 		.ascii	"_ZNK3r2p5Topic19get_publish_timeoutEv\000"
 18438      33723270 
 18438      35546F70 
 18438      69633139 
 18438      6765745F 
ARM GAS  /tmp/cc9AvIGf.s 			page 372


 18439              	.LASF61:
 18440 5963 5F5A4E4B 		.ascii	"_ZNK3r2p4Time8to_s_rawEv\000"
 18440      33723270 
 18440      3454696D 
 18440      6538746F 
 18440      5F735F72 
 18441              	.LASF554:
 18442 597c 5F5A4E33 		.ascii	"_ZN3r2p4Node11notify_stopEv\000"
 18442      72327034 
 18442      4E6F6465 
 18442      31316E6F 
 18442      74696679 
 18443              	.LASF299:
 18444 5998 5F5A4E4B 		.ascii	"_ZNK3r2p5Topic26is_awaiting_advertisementsEv\000"
 18444      33723270 
 18444      35546F70 
 18444      69633236 
 18444      69735F61 
 18445              	.LASF217:
 18446 59c5 5F5A4E33 		.ascii	"_ZN3r2p10StaticListINS_16RemoteSubscriberEE4linkERN"
 18446      72327031 
 18446      30537461 
 18446      7469634C 
 18446      69737449 
 18447 59f8 53325F34 		.ascii	"S2_4LinkE\000"
 18447      4C696E6B 
 18447      4500
 18448              	.LASF287:
 18449 5a02 5F5A4E4B 		.ascii	"_ZNK3r2p5Topic20has_local_publishersEv\000"
 18449      33723270 
 18449      35546F70 
 18449      69633230 
 18449      6861735F 
 18450              	.LASF772:
 18451 5a29 5F5F696E 		.ascii	"__in_chrg\000"
 18451      5F636872 
 18451      6700
 18452              	.LASF779:
 18453 5a33 5F5A4E33 		.ascii	"_ZN3r2p11MemoryPool_C2Ej\000"
 18453      72327031 
 18453      314D656D 
 18453      6F727950 
 18453      6F6F6C5F 
 18454              	.LASF374:
 18455 5a4c 5F5A4E4B 		.ascii	"_ZNK3r2p10StaticListINS_14LocalPublisherEE13ConstIt"
 18455      33723270 
 18455      31305374 
 18455      61746963 
 18455      4C697374 
 18456 5a7f 65726174 		.ascii	"eratoreqERKS3_\000"
 18456      6F726571 
 18456      45524B53 
 18456      335F00
 18457              	.LASF669:
 18458 5a8e 5F5A4E33 		.ascii	"_ZN3r2p10Middleware3addERNS_4NodeE\000"
 18458      72327031 
 18458      304D6964 
ARM GAS  /tmp/cc9AvIGf.s 			page 373


 18458      646C6577 
 18458      61726533 
 18459              	.LASF221:
 18460 5ab1 5F5A4E4B 		.ascii	"_ZNK3r2p10StaticListINS_16RemoteSubscriberEE10find_"
 18460      33723270 
 18460      31305374 
 18460      61746963 
 18460      4C697374 
 18461 5ae4 66697273 		.ascii	"firstEPFbRKS1_E\000"
 18461      74455046 
 18461      62524B53 
 18461      315F4500 
 18462              	.LASF87:
 18463 5af4 4C696E6B 		.ascii	"Link\000"
 18463      00
 18464              	.LASF519:
 18465 5af9 5F5A4E4B 		.ascii	"_ZNK3r2p10StaticListINS_4NodeEE8is_emptyEv\000"
 18465      33723270 
 18465      31305374 
 18465      61746963 
 18465      4C697374 
 18466              	.LASF638:
 18467 5b24 6E756D5F 		.ascii	"num_running_nodes\000"
 18467      72756E6E 
 18467      696E675F 
 18467      6E6F6465 
 18467      7300
 18468              	.LASF262:
 18469 5b36 5F5A4E4B 		.ascii	"_ZNK3r2p10StaticListINS_5TopicEE3endEv\000"
 18469      33723270 
 18469      31305374 
 18469      61746963 
 18469      4C697374 
 18470              	.LASF153:
 18471 5b5d 6765745F 		.ascii	"get_head\000"
 18471      68656164 
 18471      00
 18472              	.LASF696:
 18473 5b66 69735F62 		.ascii	"is_bootloader_mode\000"
 18473      6F6F746C 
 18473      6F616465 
 18473      725F6D6F 
 18473      646500
 18474              	.LASF590:
 18475 5b79 5F5A4E4B 		.ascii	"_ZNK3r2p10StaticListINS_9TransportEE15index_of_unsa"
 18475      33723270 
 18475      31305374 
 18475      61746963 
 18475      4C697374 
 18476 5bac 66654552 		.ascii	"feERKS1_\000"
 18476      4B53315F 
 18476      00
 18477              	.LASF33:
 18478 5bb5 4D656D6F 		.ascii	"MemoryPool_\000"
 18478      7279506F 
 18478      6F6C5F00 
 18479              	.LASF12:
ARM GAS  /tmp/cc9AvIGf.s 			page 374


 18480 5bc1 6C6F6E67 		.ascii	"long long int\000"
 18480      206C6F6E 
 18480      6720696E 
 18480      7400
 18481              	.LASF276:
 18482 5bcf 6765745F 		.ascii	"get_publish_timeout\000"
 18482      7075626C 
 18482      6973685F 
 18482      74696D65 
 18482      6F757400 
 18483              	.LASF248:
 18484 5be3 5F5A4E4B 		.ascii	"_ZNK3r2p10StaticListINS_5TopicEE14restart_unsafeERN"
 18484      33723270 
 18484      31305374 
 18484      61746963 
 18484      4C697374 
 18485 5c16 53325F31 		.ascii	"S2_19ConstIteratorUnsafeE\000"
 18485      39436F6E 
 18485      73744974 
 18485      65726174 
 18485      6F72556E 
 18486              	.LASF420:
 18487 5c30 5F5A4E33 		.ascii	"_ZN3r2p7Thread_11create_heapEPvjmPFlS1_ES1_PKc\000"
 18487      72327037 
 18487      54687265 
 18487      61645F31 
 18487      31637265 
 18488              	.LASF778:
 18489 5c5f 626C6F63 		.ascii	"blocklen\000"
 18489      6B6C656E 
 18489      00
 18490              	.LASF120:
 18491 5c68 5F5A4E4B 		.ascii	"_ZNK3r2p10StaticListINS_15LocalSubscriberEE13ConstI"
 18491      33723270 
 18491      31305374 
 18491      61746963 
 18491      4C697374 
 18492 5c9b 74657261 		.ascii	"teratoreqERKS3_\000"
 18492      746F7265 
 18492      7145524B 
 18492      53335F00 
 18493              	.LASF503:
 18494 5cab 5F5A4E4B 		.ascii	"_ZNK3r2p10StaticListINS_4NodeEE15is_empty_unsafeEv\000"
 18494      33723270 
 18494      31305374 
 18494      61746963 
 18494      4C697374 
 18495              	.LASF637:
 18496 5cde 69746572 		.ascii	"iter_lasttime\000"
 18496      5F6C6173 
 18496      7474696D 
 18496      6500
 18497              	.LASF493:
 18498 5cec 53746174 		.ascii	"StaticList<r2p::Node>\000"
 18498      69634C69 
 18498      73743C72 
 18498      32703A3A 
ARM GAS  /tmp/cc9AvIGf.s 			page 375


 18498      4E6F6465 
 18499              	.LASF716:
 18500 5d02 6576656E 		.ascii	"eventmask_t\000"
 18500      746D6173 
 18500      6B5F7400 
 18501              	.LASF268:
 18502 5d0e 6E756D5F 		.ascii	"num_local_publishers\000"
 18502      6C6F6361 
 18502      6C5F7075 
 18502      626C6973 
 18502      68657273 
 18503              	.LASF321:
 18504 5d23 6E6F7469 		.ascii	"notify_locals\000"
 18504      66795F6C 
 18504      6F63616C 
 18504      7300
 18505              	.LASF538:
 18506 5d31 5F5A4E4B 		.ascii	"_ZNK3r2p4Node8get_nameEv\000"
 18506      33723270 
 18506      344E6F64 
 18506      65386765 
 18506      745F6E61 
 18507              	.LASF376:
 18508 5d4a 5F5A4E4B 		.ascii	"_ZNK3r2p10StaticListINS_14LocalPublisherEE13ConstIt"
 18508      33723270 
 18508      31305374 
 18508      61746963 
 18508      4C697374 
 18509 5d7d 65726174 		.ascii	"erator8is_validEv\000"
 18509      6F723869 
 18509      735F7661 
 18509      6C696445 
 18509      7600
 18510              	.LASF220:
 18511 5d8f 5F5A4E4B 		.ascii	"_ZNK3r2p10StaticListINS_16RemoteSubscriberEE8contai"
 18511      33723270 
 18511      31305374 
 18511      61746963 
 18511      4C697374 
 18512 5dc2 6E734552 		.ascii	"nsERKS1_\000"
 18512      4B53315F 
 18512      00
 18513              	.LASF257:
 18514 5dcb 5F5A4E4B 		.ascii	"_ZNK3r2p10StaticListINS_5TopicEE10find_firstEPFbRKS"
 18514      33723270 
 18514      31305374 
 18514      61746963 
 18514      4C697374 
 18515 5dfe 315F504B 		.ascii	"1_PKvES6_\000"
 18515      76455336 
 18515      5F00
 18516              	.LASF561:
 18517 5e08 4D757465 		.ascii	"Mutex_\000"
 18517      785F00
 18518              	.LASF515:
 18519 5e0f 5F5A4E4B 		.ascii	"_ZNK3r2p10StaticListINS_4NodeEE12begin_unsafeEv\000"
 18519      33723270 
ARM GAS  /tmp/cc9AvIGf.s 			page 376


 18519      31305374 
 18519      61746963 
 18519      4C697374 
 18520              	.LASF314:
 18521 5e3f 5F5A4E33 		.ascii	"_ZN3r2p5Topic19forward_copy_unsafeERKNS_7MessageERK"
 18521      72327035 
 18521      546F7069 
 18521      63313966 
 18521      6F727761 
 18522 5e72 4E535F34 		.ascii	"NS_4TimeE\000"
 18522      54696D65 
 18522      4500
 18523              	.LASF406:
 18524 5e7c 5F5A4E4B 		.ascii	"_ZNK3r2p10StaticListINS_14LocalPublisherEE3endEv\000"
 18524      33723270 
 18524      31305374 
 18524      61746963 
 18524      4C697374 
 18525              	.LASF128:
 18526 5ead 5F5A4E4B 		.ascii	"_ZNK3r2p10StaticListINS_15LocalSubscriberEE15is_emp"
 18526      33723270 
 18526      31305374 
 18526      61746963 
 18526      4C697374 
 18527 5ee0 74795F75 		.ascii	"ty_unsafeEv\000"
 18527      6E736166 
 18527      65457600 
 18528              	.LASF727:
 18529 5eec 705F6F6C 		.ascii	"p_older\000"
 18529      64657200 
 18530              	.LASF611:
 18531 5ef4 5F5A4E33 		.ascii	"_ZN3r2p10StaticListINS_9TransportEE7restartERNS2_8I"
 18531      72327031 
 18531      30537461 
 18531      7469634C 
 18531      69737449 
 18532 5f27 74657261 		.ascii	"teratorE\000"
 18532      746F7245 
 18532      00
 18533              	.LASF804:
 18534 5f30 5F5A4E33 		.ascii	"_ZN3r2p4Time3nowEv\000"
 18534      72327034 
 18534      54696D65 
 18534      336E6F77 
 18534      457600
 18535              	.LASF803:
 18536 5f43 2F686F6D 		.ascii	"/home/ergae/r2p-sdk/workspace-triskarpixy/USB/\000"
 18536      652F6572 
 18536      6761652F 
 18536      7232702D 
 18536      73646B2F 
 18537              	.LASF82:
 18538 5f72 5F5A4E33 		.ascii	"_ZN3r2p4Time2hzEd\000"
 18538      72327034 
 18538      54696D65 
 18538      32687A45 
 18538      6400
ARM GAS  /tmp/cc9AvIGf.s 			page 377


 18539              	.LASF126:
 18540 5f84 69735F65 		.ascii	"is_empty_unsafe\000"
 18540      6D707479 
 18540      5F756E73 
 18540      61666500 
 18541              	.LASF521:
 18542 5f94 5F5A4E33 		.ascii	"_ZN3r2p10StaticListINS_4NodeEE4linkERNS2_4LinkE\000"
 18542      72327031 
 18542      30537461 
 18542      7469634C 
 18542      69737449 
 18543              	.LASF629:
 18544 5fc4 6D676D74 		.ascii	"mgmt_node\000"
 18544      5F6E6F64 
 18544      6500
 18545              	.LASF762:
 18546 5fce 706F6F6C 		.ascii	"pool_header\000"
 18546      5F686561 
 18546      64657200 
 18547              	.LASF539:
 18548 5fda 6765745F 		.ascii	"get_publishers\000"
 18548      7075626C 
 18548      69736865 
 18548      727300
 18549              	.LASF689:
 18550 5fe9 5F5A4E33 		.ascii	"_ZN3r2p10Middleware16do_cmd_advertiseERKNS_7MgmtMsg"
 18550      72327031 
 18550      304D6964 
 18550      646C6577 
 18550      61726531 
 18551 601c 4500     		.ascii	"E\000"
 18552              	.LASF280:
 18553 601e 6765745F 		.ascii	"get_payload_size\000"
 18553      7061796C 
 18553      6F61645F 
 18553      73697A65 
 18553      00
 18554              	.LASF311:
 18555 602f 6E6F7469 		.ascii	"notify_remotes_unsafe\000"
 18555      66795F72 
 18555      656D6F74 
 18555      65735F75 
 18555      6E736166 
 18556              	.LASF294:
 18557 6045 6861735F 		.ascii	"has_remote_subscribers\000"
 18557      72656D6F 
 18557      74655F73 
 18557      75627363 
 18557      72696265 
 18558              	.LASF57:
 18559 605c 5F5A4E4B 		.ascii	"_ZNK3r2p4Time9to_us_rawEv\000"
 18559      33723270 
 18559      3454696D 
 18559      6539746F 
 18559      5F75735F 
 18560              	.LASF332:
 18561 6076 73756273 		.ascii	"subscribe\000"
ARM GAS  /tmp/cc9AvIGf.s 			page 378


 18561      63726962 
 18561      6500
 18562              	.LASF326:
 18563 6080 5F5A4E33 		.ascii	"_ZN3r2p5Topic12forward_copyERKNS_7MessageERKNS_4Tim"
 18563      72327035 
 18563      546F7069 
 18563      63313266 
 18563      6F727761 
 18564 60b3 654500   		.ascii	"eE\000"
 18565              	.LASF656:
 18566 60b6 5F5A4E33 		.ascii	"_ZN3r2p10Middleware10initializeEPvjmS1_jm\000"
 18566      72327031 
 18566      304D6964 
 18566      646C6577 
 18566      61726531 
 18567              	.LASF154:
 18568 60e0 5F5A4E4B 		.ascii	"_ZNK3r2p10StaticListINS_15LocalSubscriberEE8get_hea"
 18568      33723270 
 18568      31305374 
 18568      61746963 
 18568      4C697374 
 18569 6113 64457600 		.ascii	"dEv\000"
 18570              	.LASF390:
 18571 6117 5F5A4E4B 		.ascii	"_ZNK3r2p10StaticListINS_14LocalPublisherEE12begin_u"
 18571      33723270 
 18571      31305374 
 18571      61746963 
 18571      4C697374 
 18572 614a 6E736166 		.ascii	"nsafeEv\000"
 18572      65457600 
 18573              	.LASF592:
 18574 6152 5F5A4E4B 		.ascii	"_ZNK3r2p10StaticListINS_9TransportEE17find_first_un"
 18574      33723270 
 18574      31305374 
 18574      61746963 
 18574      4C697374 
 18575 6185 73616665 		.ascii	"safeEPFbRKS1_E\000"
 18575      45504662 
 18575      524B5331 
 18575      5F4500
 18576              	.LASF642:
 18577 6194 6765745F 		.ascii	"get_module_name\000"
 18577      6D6F6475 
 18577      6C655F6E 
 18577      616D6500 
 18578              	.LASF190:
 18579 61a4 5F5A4E33 		.ascii	"_ZN3r2p10StaticListINS_16RemoteSubscriberEE8Iterato"
 18579      72327031 
 18579      30537461 
 18579      7469634C 
 18579      69737449 
 18580 61d7 72615345 		.ascii	"raSERKS3_\000"
 18580      524B5333 
 18580      5F00
 18581              	.LASF416:
 18582 61e1 5F5A4E33 		.ascii	"_ZN3r2p7Thread_18compute_stack_sizeEj\000"
 18582      72327037 
ARM GAS  /tmp/cc9AvIGf.s 			page 379


 18582      54687265 
 18582      61645F31 
 18582      38636F6D 
 18583              	.LASF70:
 18584 6207 746F5F6D 		.ascii	"to_m\000"
 18584      00
 18585              	.LASF180:
 18586 620c 4C6F6361 		.ascii	"LocalSubscriber\000"
 18586      6C537562 
 18586      73637269 
 18586      62657200 
 18587              	.LASF635:
 18588 621c 69746572 		.ascii	"iter_publishers\000"
 18588      5F707562 
 18588      6C697368 
 18588      65727300 
 18589              	.LASF68:
 18590 622c 746F5F73 		.ascii	"to_s\000"
 18590      00
 18591              	.LASF99:
 18592 6231 6F706572 		.ascii	"operator==\000"
 18592      61746F72 
 18592      3D3D00
 18593              	.LASF543:
 18594 623c 6765745F 		.ascii	"get_enabled\000"
 18594      656E6162 
 18594      6C656400 
 18595              	.LASF570:
 18596 6248 5F5A4E33 		.ascii	"_ZN3r2p5Mutex10initializeEv\000"
 18596      72327035 
 18596      4D757465 
 18596      78313069 
 18596      6E697469 
 18597              	.LASF498:
 18598 6264 5F5A4E33 		.ascii	"_ZN3r2p10StaticListINS_4NodeEE13ConstIteratorppEi\000"
 18598      72327031 
 18598      30537461 
 18598      7469634C 
 18598      69737449 
 18599              	.LASF266:
 18600 6296 7075626C 		.ascii	"publish_timeout\000"
 18600      6973685F 
 18600      74696D65 
 18600      6F757400 
 18601              	.LASF558:
 18602 62a6 5F5A4E33 		.ascii	"_ZN3r2p4Node9subscribeERNS_15LocalSubscriberEPKcPNS"
 18602      72327034 
 18602      4E6F6465 
 18602      39737562 
 18602      73637269 
 18603 62d9 5F374D65 		.ascii	"_7MessageEj\000"
 18603      73736167 
 18603      65456A00 
 18604              	.LASF497:
 18605 62e5 5F5A4E33 		.ascii	"_ZN3r2p10StaticListINS_4NodeEE13ConstIteratorppEv\000"
 18605      72327031 
 18605      30537461 
ARM GAS  /tmp/cc9AvIGf.s 			page 380


 18605      7469634C 
 18605      69737449 
 18606              	.LASF0:
 18607 6317 756E7369 		.ascii	"unsigned int\000"
 18607      676E6564 
 18607      20696E74 
 18607      00
 18608              	.LASF464:
 18609 6324 5F5A4E33 		.ascii	"_ZN3r2p9SpinEvent4waitERKNS_4TimeE\000"
 18609      72327039 
 18609      5370696E 
 18609      4576656E 
 18609      74347761 
 18610              	.LASF22:
 18611 6347 7E556E63 		.ascii	"~Uncopyable\000"
 18611      6F707961 
 18611      626C6500 
 18612              	.LASF95:
 18613 6353 5F5A4E4B 		.ascii	"_ZNK3r2p10StaticListINS_15LocalSubscriberEE14Iterat"
 18613      33723270 
 18613      31305374 
 18613      61746963 
 18613      4C697374 
 18614 6386 6F72556E 		.ascii	"orUnsafedeEv\000"
 18614      73616665 
 18614      64654576 
 18614      00
 18615              	.LASF196:
 18616 6393 5F5A4E4B 		.ascii	"_ZNK3r2p10StaticListINS_16RemoteSubscriberEE8Iterat"
 18616      33723270 
 18616      31305374 
 18616      61746963 
 18616      4C697374 
 18617 63c6 6F726E65 		.ascii	"orneERKS3_\000"
 18617      45524B53 
 18617      335F00
 18618              	.LASF176:
 18619 63d1 5F5A4E4B 		.ascii	"_ZNK3r2p10StaticListINS_15LocalSubscriberEE3endEv\000"
 18619      33723270 
 18619      31305374 
 18619      61746963 
 18619      4C697374 
 18620              	.LASF5:
 18621 6403 73686F72 		.ascii	"short int\000"
 18621      7420696E 
 18621      7400
 18622              	.LASF170:
 18623 640d 62656769 		.ascii	"begin\000"
 18623      6E00
 18624              	.LASF438:
 18625 6413 5F5A4E33 		.ascii	"_ZN3r2p6Thread13create_staticEPvjmPFlS1_ES1_PKc\000"
 18625      72327036 
 18625      54687265 
 18625      61643133 
 18625      63726561 
 18626              	.LASF401:
 18627 6443 5F5A4E4B 		.ascii	"_ZNK3r2p10StaticListINS_14LocalPublisherEE10find_fi"
ARM GAS  /tmp/cc9AvIGf.s 			page 381


 18627      33723270 
 18627      31305374 
 18627      61746963 
 18627      4C697374 
 18628 6476 72737445 		.ascii	"rstEPFbRKS1_PKvES6_\000"
 18628      50466252 
 18628      4B53315F 
 18628      504B7645 
 18628      53365F00 
 18629              	.LASF125:
 18630 648a 6765745F 		.ascii	"get_head_unsafe\000"
 18630      68656164 
 18630      5F756E73 
 18630      61666500 
 18631              	.LASF571:
 18632 649a 5F5A4E33 		.ascii	"_ZN3r2p5Mutex14acquire_unsafeEv\000"
 18632      72327035 
 18632      4D757465 
 18632      78313461 
 18632      63717569 
 18633              	.LASF55:
 18634 64ba 494E4649 		.ascii	"INFINITEN\000"
 18634      4E495445 
 18634      4E00
 18635              	.LASF148:
 18636 64c4 72657374 		.ascii	"restart_unsafe\000"
 18636      6172745F 
 18636      756E7361 
 18636      666500
 18637              	.LASF488:
 18638 64d3 666C6167 		.ascii	"flags\000"
 18638      7300
 18639              	.LASF730:
 18640 64d9 705F7374 		.ascii	"p_state\000"
 18640      61746500 
 18641              	.LASF632:
 18642 64e1 6D676D74 		.ascii	"mgmt_queue_buf\000"
 18642      5F717565 
 18642      75655F62 
 18642      756600
 18643              	.LASF744:
 18644 64f0 31315468 		.ascii	"11ThreadsList\000"
 18644      72656164 
 18644      734C6973 
 18644      7400
 18645              		.ident	"GCC: (GNU Tools for ARM Embedded Processors) 4.9.3 20141119 (release) [ARM/embedded-4_9-br
ARM GAS  /tmp/cc9AvIGf.s 			page 382


DEFINED SYMBOLS
                            *ABS*:00000000 Topic.cpp
     /tmp/cc9AvIGf.s:21     .text._ZN3r2p10UncopyableC2Ev:00000000 $t
     /tmp/cc9AvIGf.s:27     .text._ZN3r2p10UncopyableC2Ev:00000000 _ZN3r2p10UncopyableC2Ev
     /tmp/cc9AvIGf.s:27     .text._ZN3r2p10UncopyableC2Ev:00000000 _ZN3r2p10UncopyableC1Ev
     /tmp/cc9AvIGf.s:51     .text._ZN3r2p10UncopyableD2Ev:00000000 $t
     /tmp/cc9AvIGf.s:57     .text._ZN3r2p10UncopyableD2Ev:00000000 _ZN3r2p10UncopyableD2Ev
     /tmp/cc9AvIGf.s:57     .text._ZN3r2p10UncopyableD2Ev:00000000 _ZN3r2p10UncopyableD1Ev
     /tmp/cc9AvIGf.s:80     .text._ZN3r2p8SysLock_7acquireEv:00000000 $t
     /tmp/cc9AvIGf.s:86     .text._ZN3r2p8SysLock_7acquireEv:00000000 _ZN3r2p8SysLock_7acquireEv
     /tmp/cc9AvIGf.s:116    .text._ZN3r2p8SysLock_7releaseEv:00000000 $t
     /tmp/cc9AvIGf.s:122    .text._ZN3r2p8SysLock_7releaseEv:00000000 _ZN3r2p8SysLock_7releaseEv
     /tmp/cc9AvIGf.s:151    .text._ZN3r2p7SysLock5ScopeC2Ev:00000000 $t
     /tmp/cc9AvIGf.s:157    .text._ZN3r2p7SysLock5ScopeC2Ev:00000000 _ZN3r2p7SysLock5ScopeC2Ev
     /tmp/cc9AvIGf.s:230    .text._ZN3r2p7SysLock7acquireEv:00000000 _ZN3r2p7SysLock7acquireEv
     /tmp/cc9AvIGf.s:157    .text._ZN3r2p7SysLock5ScopeC2Ev:00000000 _ZN3r2p7SysLock5ScopeC1Ev
     /tmp/cc9AvIGf.s:188    .text._ZN3r2p7SysLock5ScopeD2Ev:00000000 $t
     /tmp/cc9AvIGf.s:194    .text._ZN3r2p7SysLock5ScopeD2Ev:00000000 _ZN3r2p7SysLock5ScopeD2Ev
     /tmp/cc9AvIGf.s:254    .text._ZN3r2p7SysLock7releaseEv:00000000 _ZN3r2p7SysLock7releaseEv
     /tmp/cc9AvIGf.s:194    .text._ZN3r2p7SysLock5ScopeD2Ev:00000000 _ZN3r2p7SysLock5ScopeD1Ev
     /tmp/cc9AvIGf.s:224    .text._ZN3r2p7SysLock7acquireEv:00000000 $t
     /tmp/cc9AvIGf.s:248    .text._ZN3r2p7SysLock7releaseEv:00000000 $t
     /tmp/cc9AvIGf.s:272    .text._ZNK3r2p11MemoryPool_13get_item_sizeEv:00000000 $t
     /tmp/cc9AvIGf.s:278    .text._ZNK3r2p11MemoryPool_13get_item_sizeEv:00000000 _ZNK3r2p11MemoryPool_13get_item_sizeEv
     /tmp/cc9AvIGf.s:302    .text._ZN3r2p11MemoryPool_12alloc_unsafeEv:00000000 $t
     /tmp/cc9AvIGf.s:308    .text._ZN3r2p11MemoryPool_12alloc_unsafeEv:00000000 _ZN3r2p11MemoryPool_12alloc_unsafeEv
     /tmp/cc9AvIGf.s:335    .text._ZN3r2p11MemoryPool_11free_unsafeEPv:00000000 $t
     /tmp/cc9AvIGf.s:341    .text._ZN3r2p11MemoryPool_11free_unsafeEPv:00000000 _ZN3r2p11MemoryPool_11free_unsafeEPv
     /tmp/cc9AvIGf.s:373    .text._ZN3r2p11MemoryPool_4freeEPv:00000000 $t
     /tmp/cc9AvIGf.s:379    .text._ZN3r2p11MemoryPool_4freeEPv:00000000 _ZN3r2p11MemoryPool_4freeEPv
     /tmp/cc9AvIGf.s:411    .text._ZN3r2p11MemoryPool_C2Ej:00000000 $t
     /tmp/cc9AvIGf.s:417    .text._ZN3r2p11MemoryPool_C2Ej:00000000 _ZN3r2p11MemoryPool_C2Ej
     /tmp/cc9AvIGf.s:417    .text._ZN3r2p11MemoryPool_C2Ej:00000000 _ZN3r2p11MemoryPool_C1Ej
     /tmp/cc9AvIGf.s:454    .text._ZN3r2p4TimeaSERKS0_:00000000 $t
     /tmp/cc9AvIGf.s:460    .text._ZN3r2p4TimeaSERKS0_:00000000 _ZN3r2p4TimeaSERKS0_
     /tmp/cc9AvIGf.s:489    .text._ZN3r2p4TimeC2ERKS0_:00000000 $t
     /tmp/cc9AvIGf.s:495    .text._ZN3r2p4TimeC2ERKS0_:00000000 _ZN3r2p4TimeC2ERKS0_
     /tmp/cc9AvIGf.s:495    .text._ZN3r2p4TimeC2ERKS0_:00000000 _ZN3r2p4TimeC1ERKS0_
     /tmp/cc9AvIGf.s:525    .text._ZN3r2pgtERKNS_4TimeES2_:00000000 $t
     /tmp/cc9AvIGf.s:531    .text._ZN3r2pgtERKNS_4TimeES2_:00000000 _ZN3r2pgtERKNS_4TimeES2_
     /tmp/cc9AvIGf.s:562    .rodata:00000000 $d
     /tmp/cc9AvIGf.s:566    .text._ZN3r2p7Message14acquire_unsafeEv:00000000 $t
     /tmp/cc9AvIGf.s:572    .text._ZN3r2p7Message14acquire_unsafeEv:00000000 _ZN3r2p7Message14acquire_unsafeEv
     /tmp/cc9AvIGf.s:618    .text._ZN3r2p7Message14acquire_unsafeEv:00000038 $d
     /tmp/cc9AvIGf.s:623    .text._ZN3r2p7Message14release_unsafeEv:00000000 $t
     /tmp/cc9AvIGf.s:629    .text._ZN3r2p7Message14release_unsafeEv:00000000 _ZN3r2p7Message14release_unsafeEv
     /tmp/cc9AvIGf.s:676    .text._ZN3r2p7Message14release_unsafeEv:0000003c $d
     /tmp/cc9AvIGf.s:681    .text._ZN3r2p7Message12reset_unsafeEv:00000000 $t
     /tmp/cc9AvIGf.s:687    .text._ZN3r2p7Message12reset_unsafeEv:00000000 _ZN3r2p7Message12reset_unsafeEv
     /tmp/cc9AvIGf.s:712    .text._ZNK3r2p16RemoteSubscriber13get_transportEv:00000000 $t
     /tmp/cc9AvIGf.s:718    .text._ZNK3r2p16RemoteSubscriber13get_transportEv:00000000 _ZNK3r2p16RemoteSubscriber13get_transportEv
     /tmp/cc9AvIGf.s:742    .text._ZNK3r2p5Topic13get_type_sizeEv:00000000 $t
     /tmp/cc9AvIGf.s:748    .text._ZNK3r2p5Topic13get_type_sizeEv:00000000 _ZNK3r2p5Topic13get_type_sizeEv
     /tmp/cc9AvIGf.s:777    .text._ZNK3r2p5Topic21has_local_subscribersEv:00000000 $t
     /tmp/cc9AvIGf.s:783    .text._ZNK3r2p5Topic21has_local_subscribersEv:00000000 _ZNK3r2p5Topic21has_local_subscribersEv
     /tmp/cc9AvIGf.s:2144   .text._ZNK3r2p10StaticListINS_15LocalSubscriberEE15is_empty_unsafeEv:00000000 _ZNK3r2p10StaticListINS_15LocalSubscriberEE15is_empty_unsafeEv
     /tmp/cc9AvIGf.s:813    .text._ZNK3r2p5Topic22has_remote_subscribersEv:00000000 $t
ARM GAS  /tmp/cc9AvIGf.s 			page 383


     /tmp/cc9AvIGf.s:819    .text._ZNK3r2p5Topic22has_remote_subscribersEv:00000000 _ZNK3r2p5Topic22has_remote_subscribersEv
     /tmp/cc9AvIGf.s:2179   .text._ZNK3r2p10StaticListINS_16RemoteSubscriberEE15is_empty_unsafeEv:00000000 _ZNK3r2p10StaticListINS_16RemoteSubscriberEE15is_empty_unsafeEv
     /tmp/cc9AvIGf.s:849    .text._ZN3r2p5Topic12alloc_unsafeEv:00000000 $t
     /tmp/cc9AvIGf.s:855    .text._ZN3r2p5Topic12alloc_unsafeEv:00000000 _ZN3r2p5Topic12alloc_unsafeEv
     /tmp/cc9AvIGf.s:899    .text._ZN3r2p5Topic11free_unsafeERNS_7MessageE:00000000 $t
     /tmp/cc9AvIGf.s:905    .text._ZN3r2p5Topic11free_unsafeERNS_7MessageE:00000000 _ZN3r2p5Topic11free_unsafeERNS_7MessageE
     /tmp/cc9AvIGf.s:933    .text._ZN3r2p5Topic4freeERNS_7MessageE:00000000 $t
     /tmp/cc9AvIGf.s:939    .text._ZN3r2p5Topic4freeERNS_7MessageE:00000000 _ZN3r2p5Topic4freeERNS_7MessageE
     /tmp/cc9AvIGf.s:967    .text._ZN3r2p10Middleware14get_mgmt_topicEv:00000000 $t
     /tmp/cc9AvIGf.s:973    .text._ZN3r2p10Middleware14get_mgmt_topicEv:00000000 _ZN3r2p10Middleware14get_mgmt_topicEv
     /tmp/cc9AvIGf.s:997    .text._ZN3r2p5Topic20notify_locals_unsafeERNS_7MessageERKNS_4TimeE:00000000 $t
     /tmp/cc9AvIGf.s:1003   .text._ZN3r2p5Topic20notify_locals_unsafeERNS_7MessageERKNS_4TimeE:00000000 _ZN3r2p5Topic20notify_locals_unsafeERNS_7MessageERKNS_4TimeE
     /tmp/cc9AvIGf.s:2213   .text._ZN3r2p10StaticListINS_15LocalSubscriberEE12begin_unsafeEv:00000000 _ZN3r2p10StaticListINS_15LocalSubscriberEE12begin_unsafeEv
     /tmp/cc9AvIGf.s:2353   .text._ZNK3r2p10StaticListINS_15LocalSubscriberEE14IteratorUnsafeptEv:00000000 _ZNK3r2p10StaticListINS_15LocalSubscriberEE14IteratorUnsafeptEv
     /tmp/cc9AvIGf.s:2319   .text._ZN3r2p10StaticListINS_15LocalSubscriberEE14IteratorUnsafeppEv:00000000 _ZN3r2p10StaticListINS_15LocalSubscriberEE14IteratorUnsafeppEv
     /tmp/cc9AvIGf.s:2249   .text._ZN3r2p10StaticListINS_15LocalSubscriberEE10end_unsafeEv:00000000 _ZN3r2p10StaticListINS_15LocalSubscriberEE10end_unsafeEv
     /tmp/cc9AvIGf.s:2282   .text._ZNK3r2p10StaticListINS_15LocalSubscriberEE14IteratorUnsafeneERKS3_:00000000 _ZNK3r2p10StaticListINS_15LocalSubscriberEE14IteratorUnsafeneERKS3_
     /tmp/cc9AvIGf.s:1100   .text._ZN3r2p5Topic21notify_remotes_unsafeERNS_7MessageERKNS_4TimeE:00000000 $t
     /tmp/cc9AvIGf.s:1106   .text._ZN3r2p5Topic21notify_remotes_unsafeERNS_7MessageERKNS_4TimeE:00000000 _ZN3r2p5Topic21notify_remotes_unsafeERNS_7MessageERKNS_4TimeE
     /tmp/cc9AvIGf.s:2383   .text._ZN3r2p10StaticListINS_16RemoteSubscriberEE12begin_unsafeEv:00000000 _ZN3r2p10StaticListINS_16RemoteSubscriberEE12begin_unsafeEv
     /tmp/cc9AvIGf.s:2523   .text._ZNK3r2p10StaticListINS_16RemoteSubscriberEE14IteratorUnsafeptEv:00000000 _ZNK3r2p10StaticListINS_16RemoteSubscriberEE14IteratorUnsafeptEv
     /tmp/cc9AvIGf.s:2489   .text._ZN3r2p10StaticListINS_16RemoteSubscriberEE14IteratorUnsafeppEv:00000000 _ZN3r2p10StaticListINS_16RemoteSubscriberEE14IteratorUnsafeppEv
     /tmp/cc9AvIGf.s:2419   .text._ZN3r2p10StaticListINS_16RemoteSubscriberEE10end_unsafeEv:00000000 _ZN3r2p10StaticListINS_16RemoteSubscriberEE10end_unsafeEv
     /tmp/cc9AvIGf.s:2452   .text._ZNK3r2p10StaticListINS_16RemoteSubscriberEE14IteratorUnsafeneERKS3_:00000000 _ZNK3r2p10StaticListINS_16RemoteSubscriberEE14IteratorUnsafeneERKS3_
     /tmp/cc9AvIGf.s:1203   .text._ZN3r2p5Topic19forward_copy_unsafeERKNS_7MessageERKNS_4TimeE:00000000 $t
     /tmp/cc9AvIGf.s:1209   .text._ZN3r2p5Topic19forward_copy_unsafeERKNS_7MessageERKNS_4TimeE:00000000 _ZN3r2p5Topic19forward_copy_unsafeERKNS_7MessageERKNS_4TimeE
     /tmp/cc9AvIGf.s:2553   .text._ZN3r2p5Topic12alloc_unsafeINS_7MessageEEEbRPT_:00000000 _ZN3r2p5Topic12alloc_unsafeINS_7MessageEEEbRPT_
     /tmp/cc9AvIGf.s:1964   .text._ZNK3r2p5Topic16patch_pubsub_msgERNS_7MessageERNS_9TransportE:00000000 _ZNK3r2p5Topic16patch_pubsub_msgERNS_7MessageERNS_9TransportE
     /tmp/cc9AvIGf.s:1342   .text._ZN3r2p5Topic5allocEv:00000000 $t
     /tmp/cc9AvIGf.s:1348   .text._ZN3r2p5Topic5allocEv:00000000 _ZN3r2p5Topic5allocEv
     /tmp/cc9AvIGf.s:1382   .text._ZN3r2p5Topic13notify_localsERNS_7MessageERKNS_4TimeE:00000000 $t
     /tmp/cc9AvIGf.s:1388   .text._ZN3r2p5Topic13notify_localsERNS_7MessageERKNS_4TimeE:00000000 _ZN3r2p5Topic13notify_localsERNS_7MessageERKNS_4TimeE
     /tmp/cc9AvIGf.s:2595   .text._ZN3r2p10StaticListINS_15LocalSubscriberEE5beginEv:00000000 _ZN3r2p10StaticListINS_15LocalSubscriberEE5beginEv
     /tmp/cc9AvIGf.s:2741   .text._ZNK3r2p10StaticListINS_15LocalSubscriberEE8IteratorptEv:00000000 _ZNK3r2p10StaticListINS_15LocalSubscriberEE8IteratorptEv
     /tmp/cc9AvIGf.s:2701   .text._ZN3r2p10StaticListINS_15LocalSubscriberEE8IteratorppEv:00000000 _ZN3r2p10StaticListINS_15LocalSubscriberEE8IteratorppEv
     /tmp/cc9AvIGf.s:2631   .text._ZN3r2p10StaticListINS_15LocalSubscriberEE3endEv:00000000 _ZN3r2p10StaticListINS_15LocalSubscriberEE3endEv
     /tmp/cc9AvIGf.s:2664   .text._ZNK3r2p10StaticListINS_15LocalSubscriberEE8IteratorneERKS3_:00000000 _ZNK3r2p10StaticListINS_15LocalSubscriberEE8IteratorneERKS3_
     /tmp/cc9AvIGf.s:1483   .text._ZN3r2p5Topic14notify_remotesERNS_7MessageERKNS_4TimeE:00000000 $t
     /tmp/cc9AvIGf.s:1489   .text._ZN3r2p5Topic14notify_remotesERNS_7MessageERKNS_4TimeE:00000000 _ZN3r2p5Topic14notify_remotesERNS_7MessageERKNS_4TimeE
     /tmp/cc9AvIGf.s:2771   .text._ZN3r2p10StaticListINS_16RemoteSubscriberEE5beginEv:00000000 _ZN3r2p10StaticListINS_16RemoteSubscriberEE5beginEv
     /tmp/cc9AvIGf.s:2917   .text._ZNK3r2p10StaticListINS_16RemoteSubscriberEE8IteratorptEv:00000000 _ZNK3r2p10StaticListINS_16RemoteSubscriberEE8IteratorptEv
     /tmp/cc9AvIGf.s:2877   .text._ZN3r2p10StaticListINS_16RemoteSubscriberEE8IteratorppEv:00000000 _ZN3r2p10StaticListINS_16RemoteSubscriberEE8IteratorppEv
     /tmp/cc9AvIGf.s:2807   .text._ZN3r2p10StaticListINS_16RemoteSubscriberEE3endEv:00000000 _ZN3r2p10StaticListINS_16RemoteSubscriberEE3endEv
     /tmp/cc9AvIGf.s:2840   .text._ZNK3r2p10StaticListINS_16RemoteSubscriberEE8IteratorneERKS3_:00000000 _ZNK3r2p10StaticListINS_16RemoteSubscriberEE8IteratorneERKS3_
     /tmp/cc9AvIGf.s:1606   .text._ZN3r2p5Topic12forward_copyERKNS_7MessageERKNS_4TimeE:00000000 $t
     /tmp/cc9AvIGf.s:1612   .text._ZN3r2p5Topic12forward_copyERKNS_7MessageERKNS_4TimeE:00000000 _ZN3r2p5Topic12forward_copyERKNS_7MessageERKNS_4TimeE
     /tmp/cc9AvIGf.s:2947   .text._ZN3r2p5Topic5allocINS_7MessageEEEbRPT_:00000000 _ZN3r2p5Topic5allocINS_7MessageEEEbRPT_
     /tmp/cc9AvIGf.s:1744   .text._ZN3r2p5Topic9advertiseERNS_14LocalPublisherERKNS_4TimeE:00000000 $t
     /tmp/cc9AvIGf.s:1750   .text._ZN3r2p5Topic9advertiseERNS_14LocalPublisherERKNS_4TimeE:00000000 _ZN3r2p5Topic9advertiseERNS_14LocalPublisherERKNS_4TimeE
     /tmp/cc9AvIGf.s:1799   .text._ZN3r2p5Topic9advertiseERNS_15RemotePublisherERKNS_4TimeE:00000000 $t
     /tmp/cc9AvIGf.s:1805   .text._ZN3r2p5Topic9advertiseERNS_15RemotePublisherERKNS_4TimeE:00000000 _ZN3r2p5Topic9advertiseERNS_15RemotePublisherERKNS_4TimeE
     /tmp/cc9AvIGf.s:1854   .text._ZN3r2p5Topic9subscribeERNS_15LocalSubscriberEj:00000000 $t
     /tmp/cc9AvIGf.s:1860   .text._ZN3r2p5Topic9subscribeERNS_15LocalSubscriberEj:00000000 _ZN3r2p5Topic9subscribeERNS_15LocalSubscriberEj
     /tmp/cc9AvIGf.s:2989   .text._ZN3r2p10StaticListINS_15LocalSubscriberEE11link_unsafeERNS2_4LinkE:00000000 _ZN3r2p10StaticListINS_15LocalSubscriberEE11link_unsafeERNS2_4LinkE
     /tmp/cc9AvIGf.s:1906   .text._ZN3r2p5Topic9subscribeERNS_16RemoteSubscriberEj:00000000 $t
     /tmp/cc9AvIGf.s:1912   .text._ZN3r2p5Topic9subscribeERNS_16RemoteSubscriberEj:00000000 _ZN3r2p5Topic9subscribeERNS_16RemoteSubscriberEj
     /tmp/cc9AvIGf.s:3050   .text._ZN3r2p10StaticListINS_16RemoteSubscriberEE11link_unsafeERNS2_4LinkE:00000000 _ZN3r2p10StaticListINS_16RemoteSubscriberEE11link_unsafeERNS2_4LinkE
ARM GAS  /tmp/cc9AvIGf.s 			page 384


     /tmp/cc9AvIGf.s:1958   .text._ZNK3r2p5Topic16patch_pubsub_msgERNS_7MessageERNS_9TransportE:00000000 $t
     /tmp/cc9AvIGf.s:2041   .text._ZNK3r2p5Topic16patch_pubsub_msgERNS_7MessageERNS_9TransportE:00000060 $d
     /tmp/cc9AvIGf.s:2046   .text._ZN3r2p5TopicC2EPKcjb:00000000 $t
     /tmp/cc9AvIGf.s:2052   .text._ZN3r2p5TopicC2EPKcjb:00000000 _ZN3r2p5TopicC2EPKcjb
     /tmp/cc9AvIGf.s:3111   .text._ZN3r2p10StaticListINS_15LocalSubscriberEEC2Ev:00000000 _ZN3r2p10StaticListINS_15LocalSubscriberEEC1Ev
     /tmp/cc9AvIGf.s:3149   .text._ZN3r2p10StaticListINS_16RemoteSubscriberEEC2Ev:00000000 _ZN3r2p10StaticListINS_16RemoteSubscriberEEC1Ev
     /tmp/cc9AvIGf.s:3187   .text._ZN3r2p10StaticListINS_5TopicEE4LinkC2ERS1_:00000000 _ZN3r2p10StaticListINS_5TopicEE4LinkC1ERS1_
     /tmp/cc9AvIGf.s:2130   .text._ZN3r2p5TopicC2EPKcjb:00000088 $d
     /tmp/cc9AvIGf.s:2052   .text._ZN3r2p5TopicC2EPKcjb:00000000 _ZN3r2p5TopicC1EPKcjb
     /tmp/cc9AvIGf.s:2138   .text._ZNK3r2p10StaticListINS_15LocalSubscriberEE15is_empty_unsafeEv:00000000 $t
     /tmp/cc9AvIGf.s:2173   .text._ZNK3r2p10StaticListINS_16RemoteSubscriberEE15is_empty_unsafeEv:00000000 $t
     /tmp/cc9AvIGf.s:2207   .text._ZN3r2p10StaticListINS_15LocalSubscriberEE12begin_unsafeEv:00000000 $t
     /tmp/cc9AvIGf.s:3225   .text._ZNK3r2p10StaticListINS_15LocalSubscriberEE15get_head_unsafeEv:00000000 _ZNK3r2p10StaticListINS_15LocalSubscriberEE15get_head_unsafeEv
     /tmp/cc9AvIGf.s:3254   .text._ZN3r2p10StaticListINS_15LocalSubscriberEE14IteratorUnsafeC2EPKNS2_4LinkE:00000000 _ZN3r2p10StaticListINS_15LocalSubscriberEE14IteratorUnsafeC1EPKNS2_4LinkE
     /tmp/cc9AvIGf.s:2243   .text._ZN3r2p10StaticListINS_15LocalSubscriberEE10end_unsafeEv:00000000 $t
     /tmp/cc9AvIGf.s:2276   .text._ZNK3r2p10StaticListINS_15LocalSubscriberEE14IteratorUnsafeneERKS3_:00000000 $t
     /tmp/cc9AvIGf.s:2313   .text._ZN3r2p10StaticListINS_15LocalSubscriberEE14IteratorUnsafeppEv:00000000 $t
     /tmp/cc9AvIGf.s:2347   .text._ZNK3r2p10StaticListINS_15LocalSubscriberEE14IteratorUnsafeptEv:00000000 $t
     /tmp/cc9AvIGf.s:2377   .text._ZN3r2p10StaticListINS_16RemoteSubscriberEE12begin_unsafeEv:00000000 $t
     /tmp/cc9AvIGf.s:3289   .text._ZNK3r2p10StaticListINS_16RemoteSubscriberEE15get_head_unsafeEv:00000000 _ZNK3r2p10StaticListINS_16RemoteSubscriberEE15get_head_unsafeEv
     /tmp/cc9AvIGf.s:3318   .text._ZN3r2p10StaticListINS_16RemoteSubscriberEE14IteratorUnsafeC2EPKNS2_4LinkE:00000000 _ZN3r2p10StaticListINS_16RemoteSubscriberEE14IteratorUnsafeC1EPKNS2_4LinkE
     /tmp/cc9AvIGf.s:2413   .text._ZN3r2p10StaticListINS_16RemoteSubscriberEE10end_unsafeEv:00000000 $t
     /tmp/cc9AvIGf.s:2446   .text._ZNK3r2p10StaticListINS_16RemoteSubscriberEE14IteratorUnsafeneERKS3_:00000000 $t
     /tmp/cc9AvIGf.s:2483   .text._ZN3r2p10StaticListINS_16RemoteSubscriberEE14IteratorUnsafeppEv:00000000 $t
     /tmp/cc9AvIGf.s:2517   .text._ZNK3r2p10StaticListINS_16RemoteSubscriberEE14IteratorUnsafeptEv:00000000 $t
     /tmp/cc9AvIGf.s:2547   .text._ZN3r2p5Topic12alloc_unsafeINS_7MessageEEEbRPT_:00000000 $t
     /tmp/cc9AvIGf.s:2589   .text._ZN3r2p10StaticListINS_15LocalSubscriberEE5beginEv:00000000 $t
     /tmp/cc9AvIGf.s:3353   .text._ZNK3r2p10StaticListINS_15LocalSubscriberEE8get_headEv:00000000 _ZNK3r2p10StaticListINS_15LocalSubscriberEE8get_headEv
     /tmp/cc9AvIGf.s:3393   .text._ZN3r2p10StaticListINS_15LocalSubscriberEE8IteratorC2EPKNS2_4LinkE:00000000 _ZN3r2p10StaticListINS_15LocalSubscriberEE8IteratorC1EPKNS2_4LinkE
     /tmp/cc9AvIGf.s:2625   .text._ZN3r2p10StaticListINS_15LocalSubscriberEE3endEv:00000000 $t
     /tmp/cc9AvIGf.s:2658   .text._ZNK3r2p10StaticListINS_15LocalSubscriberEE8IteratorneERKS3_:00000000 $t
     /tmp/cc9AvIGf.s:2695   .text._ZN3r2p10StaticListINS_15LocalSubscriberEE8IteratorppEv:00000000 $t
     /tmp/cc9AvIGf.s:2735   .text._ZNK3r2p10StaticListINS_15LocalSubscriberEE8IteratorptEv:00000000 $t
     /tmp/cc9AvIGf.s:2765   .text._ZN3r2p10StaticListINS_16RemoteSubscriberEE5beginEv:00000000 $t
     /tmp/cc9AvIGf.s:3428   .text._ZNK3r2p10StaticListINS_16RemoteSubscriberEE8get_headEv:00000000 _ZNK3r2p10StaticListINS_16RemoteSubscriberEE8get_headEv
     /tmp/cc9AvIGf.s:3468   .text._ZN3r2p10StaticListINS_16RemoteSubscriberEE8IteratorC2EPKNS2_4LinkE:00000000 _ZN3r2p10StaticListINS_16RemoteSubscriberEE8IteratorC1EPKNS2_4LinkE
     /tmp/cc9AvIGf.s:2801   .text._ZN3r2p10StaticListINS_16RemoteSubscriberEE3endEv:00000000 $t
     /tmp/cc9AvIGf.s:2834   .text._ZNK3r2p10StaticListINS_16RemoteSubscriberEE8IteratorneERKS3_:00000000 $t
     /tmp/cc9AvIGf.s:2871   .text._ZN3r2p10StaticListINS_16RemoteSubscriberEE8IteratorppEv:00000000 $t
     /tmp/cc9AvIGf.s:2911   .text._ZNK3r2p10StaticListINS_16RemoteSubscriberEE8IteratorptEv:00000000 $t
     /tmp/cc9AvIGf.s:2941   .text._ZN3r2p5Topic5allocINS_7MessageEEEbRPT_:00000000 $t
     /tmp/cc9AvIGf.s:2983   .text._ZN3r2p10StaticListINS_15LocalSubscriberEE11link_unsafeERNS2_4LinkE:00000000 $t
     /tmp/cc9AvIGf.s:3503   .text._ZN3r2p10StaticListINS_15LocalSubscriberEE13unlink_unsafeERNS2_4LinkE:00000000 _ZN3r2p10StaticListINS_15LocalSubscriberEE13unlink_unsafeERNS2_4LinkE
     /tmp/cc9AvIGf.s:3039   .text._ZN3r2p10StaticListINS_15LocalSubscriberEE11link_unsafeERNS2_4LinkE:00000040 $d
     /tmp/cc9AvIGf.s:3044   .text._ZN3r2p10StaticListINS_16RemoteSubscriberEE11link_unsafeERNS2_4LinkE:00000000 $t
     /tmp/cc9AvIGf.s:3586   .text._ZN3r2p10StaticListINS_16RemoteSubscriberEE13unlink_unsafeERNS2_4LinkE:00000000 _ZN3r2p10StaticListINS_16RemoteSubscriberEE13unlink_unsafeERNS2_4LinkE
     /tmp/cc9AvIGf.s:3100   .text._ZN3r2p10StaticListINS_16RemoteSubscriberEE11link_unsafeERNS2_4LinkE:00000040 $d
     /tmp/cc9AvIGf.s:3105   .text._ZN3r2p10StaticListINS_15LocalSubscriberEEC2Ev:00000000 $t
     /tmp/cc9AvIGf.s:3111   .text._ZN3r2p10StaticListINS_15LocalSubscriberEEC2Ev:00000000 _ZN3r2p10StaticListINS_15LocalSubscriberEEC2Ev
     /tmp/cc9AvIGf.s:3143   .text._ZN3r2p10StaticListINS_16RemoteSubscriberEEC2Ev:00000000 $t
     /tmp/cc9AvIGf.s:3149   .text._ZN3r2p10StaticListINS_16RemoteSubscriberEEC2Ev:00000000 _ZN3r2p10StaticListINS_16RemoteSubscriberEEC2Ev
     /tmp/cc9AvIGf.s:3181   .text._ZN3r2p10StaticListINS_5TopicEE4LinkC2ERS1_:00000000 $t
     /tmp/cc9AvIGf.s:3187   .text._ZN3r2p10StaticListINS_5TopicEE4LinkC2ERS1_:00000000 _ZN3r2p10StaticListINS_5TopicEE4LinkC2ERS1_
     /tmp/cc9AvIGf.s:3219   .text._ZNK3r2p10StaticListINS_15LocalSubscriberEE15get_head_unsafeEv:00000000 $t
     /tmp/cc9AvIGf.s:3248   .text._ZN3r2p10StaticListINS_15LocalSubscriberEE14IteratorUnsafeC2EPKNS2_4LinkE:00000000 $t
     /tmp/cc9AvIGf.s:3254   .text._ZN3r2p10StaticListINS_15LocalSubscriberEE14IteratorUnsafeC2EPKNS2_4LinkE:00000000 _ZN3r2p10StaticListINS_15LocalSubscriberEE14IteratorUnsafeC2EPKNS2_4LinkE
     /tmp/cc9AvIGf.s:3283   .text._ZNK3r2p10StaticListINS_16RemoteSubscriberEE15get_head_unsafeEv:00000000 $t
ARM GAS  /tmp/cc9AvIGf.s 			page 385


     /tmp/cc9AvIGf.s:3312   .text._ZN3r2p10StaticListINS_16RemoteSubscriberEE14IteratorUnsafeC2EPKNS2_4LinkE:00000000 $t
     /tmp/cc9AvIGf.s:3318   .text._ZN3r2p10StaticListINS_16RemoteSubscriberEE14IteratorUnsafeC2EPKNS2_4LinkE:00000000 _ZN3r2p10StaticListINS_16RemoteSubscriberEE14IteratorUnsafeC2EPKNS2_4LinkE
     /tmp/cc9AvIGf.s:3347   .text._ZNK3r2p10StaticListINS_15LocalSubscriberEE8get_headEv:00000000 $t
     /tmp/cc9AvIGf.s:3387   .text._ZN3r2p10StaticListINS_15LocalSubscriberEE8IteratorC2EPKNS2_4LinkE:00000000 $t
     /tmp/cc9AvIGf.s:3393   .text._ZN3r2p10StaticListINS_15LocalSubscriberEE8IteratorC2EPKNS2_4LinkE:00000000 _ZN3r2p10StaticListINS_15LocalSubscriberEE8IteratorC2EPKNS2_4LinkE
     /tmp/cc9AvIGf.s:3422   .text._ZNK3r2p10StaticListINS_16RemoteSubscriberEE8get_headEv:00000000 $t
     /tmp/cc9AvIGf.s:3462   .text._ZN3r2p10StaticListINS_16RemoteSubscriberEE8IteratorC2EPKNS2_4LinkE:00000000 $t
     /tmp/cc9AvIGf.s:3468   .text._ZN3r2p10StaticListINS_16RemoteSubscriberEE8IteratorC2EPKNS2_4LinkE:00000000 _ZN3r2p10StaticListINS_16RemoteSubscriberEE8IteratorC2EPKNS2_4LinkE
     /tmp/cc9AvIGf.s:3497   .text._ZN3r2p10StaticListINS_15LocalSubscriberEE13unlink_unsafeERNS2_4LinkE:00000000 $t
     /tmp/cc9AvIGf.s:3580   .text._ZN3r2p10StaticListINS_16RemoteSubscriberEE13unlink_unsafeERNS2_4LinkE:00000000 $t
                     .debug_frame:00000010 $d
     /tmp/cc9AvIGf.s:622    .text._ZN3r2p7Message14acquire_unsafeEv:0000003c $t
     /tmp/cc9AvIGf.s:18645  .text._ZNK3r2p5Topic16patch_pubsub_msgERNS_7MessageERNS_9TransportE:00000064 $t
     /tmp/cc9AvIGf.s:3043   .text._ZN3r2p10StaticListINS_15LocalSubscriberEE11link_unsafeERNS2_4LinkE:00000044 $t
     /tmp/cc9AvIGf.s:3104   .text._ZN3r2p10StaticListINS_16RemoteSubscriberEE11link_unsafeERNS2_4LinkE:00000044 $t
                           .group:00000000 _ZN3r2p10UncopyableC5Ev
                           .group:00000000 _ZN3r2p10UncopyableD5Ev
                           .group:00000000 _ZN3r2p7SysLock5ScopeC5Ev
                           .group:00000000 _ZN3r2p7SysLock5ScopeD5Ev
                           .group:00000000 _ZN3r2p11MemoryPool_C5Ej
                           .group:00000000 _ZN3r2p4TimeC5ERKS0_
                           .group:00000000 _ZN3r2p10StaticListINS_15LocalSubscriberEEC5Ev
                           .group:00000000 _ZN3r2p10StaticListINS_16RemoteSubscriberEEC5Ev
                           .group:00000000 _ZN3r2p10StaticListINS_5TopicEE4LinkC5ERS1_
                           .group:00000000 _ZN3r2p10StaticListINS_15LocalSubscriberEE14IteratorUnsafeC5EPKNS2_4LinkE
                           .group:00000000 _ZN3r2p10StaticListINS_16RemoteSubscriberEE14IteratorUnsafeC5EPKNS2_4LinkE
                           .group:00000000 _ZN3r2p10StaticListINS_15LocalSubscriberEE8IteratorC5EPKNS2_4LinkE
                           .group:00000000 _ZN3r2p10StaticListINS_16RemoteSubscriberEE8IteratorC5EPKNS2_4LinkE

UNDEFINED SYMBOLS
dbg_check_lock
dbg_check_unlock
chPoolAllocI
chPoolFreeI
chPoolFree
chPoolInit
chDbgPanic
_ZN3r2p7Message4copyERS0_RKS0_j
_ZN3r2p7Message7acquireEv
_ZN3r2p7Message7releaseEv
_ZN3r2p10Middleware10find_topicEPKc
_ZN3r2p10Middleware8instanceE
_ZN3r2p13is_identifierEPKcj
_ZN3r2p4Time8INFINITEE
