ARM GAS  /tmp/ccc9u8vF.s 			page 1


   1              		.syntax unified
   2              		.cpu cortex-m4
   3              		.eabi_attribute 27, 3
   4              		.eabi_attribute 28, 1
   5              		.fpu fpv4-sp-d16
   6              		.eabi_attribute 20, 1
   7              		.eabi_attribute 21, 1
   8              		.eabi_attribute 23, 3
   9              		.eabi_attribute 24, 1
  10              		.eabi_attribute 25, 1
  11              		.eabi_attribute 26, 1
  12              		.eabi_attribute 30, 6
  13              		.eabi_attribute 34, 1
  14              		.eabi_attribute 18, 4
  15              		.thumb
  16              		.file	"uart_lld.c"
  17              		.text
  18              	.Ltext0:
  19              		.cfi_sections	.debug_frame
  20              		.global	UARTD3
  21              		.section	.bss.UARTD3,"aw",%nobits
  22              		.align	2
  23              		.type	UARTD3, %object
  24              		.size	UARTD3, 28
  25              	UARTD3:
  26 0000 00000000 		.space	28
  26      00000000 
  26      00000000 
  26      00000000 
  26      00000000 
  27              		.section	.text.translate_errors,"ax",%progbits
  28              		.align	2
  29              		.p2align 4,,15
  30              		.thumb
  31              		.thumb_func
  32              		.type	translate_errors, %function
  33              	translate_errors:
  34              	.LFB118:
  35              		.file 1 "/home/ergae/r2p-sdk/core/ChibiOS/os/hal/platforms/STM32/USARTv2/uart_lld.c"
  36              		.loc 1 92 0
  37              		.cfi_startproc
  38              		@ args = 0, pretend = 0, frame = 16
  39              		@ frame_needed = 0, uses_anonymous_args = 0
  40              		@ link register save eliminated.
  41 0000 84B0     		sub	sp, sp, #16
  42              		.cfi_def_cfa_offset 16
  43 0002 0190     		str	r0, [sp, #4]
  44              		.loc 1 93 0
  45 0004 0023     		movs	r3, #0
  46 0006 0393     		str	r3, [sp, #12]
  47              		.loc 1 95 0
  48 0008 019B     		ldr	r3, [sp, #4]
  49 000a 03F00803 		and	r3, r3, #8
  50 000e 002B     		cmp	r3, #0
  51 0010 03D0     		beq	.L2
  52              		.loc 1 96 0
  53 0012 039B     		ldr	r3, [sp, #12]
ARM GAS  /tmp/ccc9u8vF.s 			page 2


  54 0014 43F01003 		orr	r3, r3, #16
  55 0018 0393     		str	r3, [sp, #12]
  56              	.L2:
  57              		.loc 1 97 0
  58 001a 019B     		ldr	r3, [sp, #4]
  59 001c 03F00103 		and	r3, r3, #1
  60 0020 002B     		cmp	r3, #0
  61 0022 03D0     		beq	.L3
  62              		.loc 1 98 0
  63 0024 039B     		ldr	r3, [sp, #12]
  64 0026 43F00403 		orr	r3, r3, #4
  65 002a 0393     		str	r3, [sp, #12]
  66              	.L3:
  67              		.loc 1 99 0
  68 002c 019B     		ldr	r3, [sp, #4]
  69 002e 03F00203 		and	r3, r3, #2
  70 0032 002B     		cmp	r3, #0
  71 0034 03D0     		beq	.L4
  72              		.loc 1 100 0
  73 0036 039B     		ldr	r3, [sp, #12]
  74 0038 43F00803 		orr	r3, r3, #8
  75 003c 0393     		str	r3, [sp, #12]
  76              	.L4:
  77              		.loc 1 101 0
  78 003e 019B     		ldr	r3, [sp, #4]
  79 0040 03F00403 		and	r3, r3, #4
  80 0044 002B     		cmp	r3, #0
  81 0046 03D0     		beq	.L5
  82              		.loc 1 102 0
  83 0048 039B     		ldr	r3, [sp, #12]
  84 004a 43F02003 		orr	r3, r3, #32
  85 004e 0393     		str	r3, [sp, #12]
  86              	.L5:
  87              		.loc 1 103 0
  88 0050 019B     		ldr	r3, [sp, #4]
  89 0052 03F48073 		and	r3, r3, #256
  90 0056 002B     		cmp	r3, #0
  91 0058 03D0     		beq	.L6
  92              		.loc 1 104 0
  93 005a 039B     		ldr	r3, [sp, #12]
  94 005c 43F04003 		orr	r3, r3, #64
  95 0060 0393     		str	r3, [sp, #12]
  96              	.L6:
  97              		.loc 1 105 0
  98 0062 039B     		ldr	r3, [sp, #12]
  99              		.loc 1 106 0
 100 0064 1846     		mov	r0, r3
 101 0066 04B0     		add	sp, sp, #16
 102              		.cfi_def_cfa_offset 0
 103              		@ sp needed
 104 0068 7047     		bx	lr
 105              		.cfi_endproc
 106              	.LFE118:
 107              		.size	translate_errors, .-translate_errors
 108 006a 00BFAFF3 		.section	.text.set_rx_idle_loop,"ax",%progbits
 108      0080
 109              		.align	2
ARM GAS  /tmp/ccc9u8vF.s 			page 3


 110              		.p2align 4,,15
 111              		.thumb
 112              		.thumb_func
 113              		.type	set_rx_idle_loop, %function
 114              	set_rx_idle_loop:
 115              	.LFB119:
 116              		.loc 1 113 0
 117              		.cfi_startproc
 118              		@ args = 0, pretend = 0, frame = 16
 119              		@ frame_needed = 0, uses_anonymous_args = 0
 120              		@ link register save eliminated.
 121 0000 84B0     		sub	sp, sp, #16
 122              		.cfi_def_cfa_offset 16
 123 0002 0190     		str	r0, [sp, #4]
 124              		.loc 1 118 0
 125 0004 019B     		ldr	r3, [sp, #4]
 126 0006 5B68     		ldr	r3, [r3, #4]
 127 0008 DB68     		ldr	r3, [r3, #12]
 128 000a 002B     		cmp	r3, #0
 129 000c 02D1     		bne	.L9
 130              		.loc 1 119 0
 131 000e 2023     		movs	r3, #32
 132 0010 0393     		str	r3, [sp, #12]
 133 0012 01E0     		b	.L10
 134              	.L9:
 135              		.loc 1 121 0
 136 0014 2223     		movs	r3, #34
 137 0016 0393     		str	r3, [sp, #12]
 138              	.L10:
 139              		.loc 1 122 0
 140 0018 019B     		ldr	r3, [sp, #4]
 141 001a 1B69     		ldr	r3, [r3, #16]
 142 001c 1B68     		ldr	r3, [r3]
 143 001e 019A     		ldr	r2, [sp, #4]
 144 0020 1832     		adds	r2, r2, #24
 145 0022 DA60     		str	r2, [r3, #12]
 146              		.loc 1 123 0
 147 0024 019B     		ldr	r3, [sp, #4]
 148 0026 1B69     		ldr	r3, [r3, #16]
 149 0028 1B68     		ldr	r3, [r3]
 150 002a 0122     		movs	r2, #1
 151 002c 5A60     		str	r2, [r3, #4]
 152              		.loc 1 124 0
 153 002e 019B     		ldr	r3, [sp, #4]
 154 0030 1B69     		ldr	r3, [r3, #16]
 155 0032 1B68     		ldr	r3, [r3]
 156 0034 019A     		ldr	r2, [sp, #4]
 157 0036 D168     		ldr	r1, [r2, #12]
 158 0038 039A     		ldr	r2, [sp, #12]
 159 003a 0A43     		orrs	r2, r2, r1
 160 003c 1A60     		str	r2, [r3]
 161              		.loc 1 125 0
 162 003e 019B     		ldr	r3, [sp, #4]
 163 0040 1B69     		ldr	r3, [r3, #16]
 164 0042 1B68     		ldr	r3, [r3]
 165 0044 019A     		ldr	r2, [sp, #4]
 166 0046 1269     		ldr	r2, [r2, #16]
ARM GAS  /tmp/ccc9u8vF.s 			page 4


 167 0048 1268     		ldr	r2, [r2]
 168 004a 1268     		ldr	r2, [r2]
 169 004c 42F00102 		orr	r2, r2, #1
 170 0050 1A60     		str	r2, [r3]
 171              		.loc 1 126 0
 172 0052 04B0     		add	sp, sp, #16
 173              		.cfi_def_cfa_offset 0
 174              		@ sp needed
 175 0054 7047     		bx	lr
 176              		.cfi_endproc
 177              	.LFE119:
 178              		.size	set_rx_idle_loop, .-set_rx_idle_loop
 179 0056 00BFAFF3 		.section	.text.usart_stop,"ax",%progbits
 179      0080AFF3 
 179      0080
 180              		.align	2
 181              		.p2align 4,,15
 182              		.thumb
 183              		.thumb_func
 184              		.type	usart_stop, %function
 185              	usart_stop:
 186              	.LFB120:
 187              		.loc 1 134 0
 188              		.cfi_startproc
 189              		@ args = 0, pretend = 0, frame = 8
 190              		@ frame_needed = 0, uses_anonymous_args = 0
 191              		@ link register save eliminated.
 192 0000 82B0     		sub	sp, sp, #8
 193              		.cfi_def_cfa_offset 8
 194 0002 0190     		str	r0, [sp, #4]
 195              		.loc 1 137 0
 196 0004 019B     		ldr	r3, [sp, #4]
 197 0006 1B69     		ldr	r3, [r3, #16]
 198 0008 1B68     		ldr	r3, [r3]
 199 000a 019A     		ldr	r2, [sp, #4]
 200 000c 1269     		ldr	r2, [r2, #16]
 201 000e 1268     		ldr	r2, [r2]
 202 0010 1268     		ldr	r2, [r2]
 203 0012 22F00F02 		bic	r2, r2, #15
 204 0016 1A60     		str	r2, [r3]
 205 0018 019B     		ldr	r3, [sp, #4]
 206 001a 1B69     		ldr	r3, [r3, #16]
 207 001c 5B68     		ldr	r3, [r3, #4]
 208 001e 019A     		ldr	r2, [sp, #4]
 209 0020 1269     		ldr	r2, [r2, #16]
 210 0022 127A     		ldrb	r2, [r2, #8]	@ zero_extendqisi2
 211 0024 1146     		mov	r1, r2
 212 0026 0F22     		movs	r2, #15
 213 0028 8A40     		lsls	r2, r2, r1
 214 002a 1A60     		str	r2, [r3]
 215              		.loc 1 138 0
 216 002c 019B     		ldr	r3, [sp, #4]
 217 002e 5B69     		ldr	r3, [r3, #20]
 218 0030 1B68     		ldr	r3, [r3]
 219 0032 019A     		ldr	r2, [sp, #4]
 220 0034 5269     		ldr	r2, [r2, #20]
 221 0036 1268     		ldr	r2, [r2]
ARM GAS  /tmp/ccc9u8vF.s 			page 5


 222 0038 1268     		ldr	r2, [r2]
 223 003a 22F00F02 		bic	r2, r2, #15
 224 003e 1A60     		str	r2, [r3]
 225 0040 019B     		ldr	r3, [sp, #4]
 226 0042 5B69     		ldr	r3, [r3, #20]
 227 0044 5B68     		ldr	r3, [r3, #4]
 228 0046 019A     		ldr	r2, [sp, #4]
 229 0048 5269     		ldr	r2, [r2, #20]
 230 004a 127A     		ldrb	r2, [r2, #8]	@ zero_extendqisi2
 231 004c 1146     		mov	r1, r2
 232 004e 0F22     		movs	r2, #15
 233 0050 8A40     		lsls	r2, r2, r1
 234 0052 1A60     		str	r2, [r3]
 235              		.loc 1 141 0
 236 0054 019B     		ldr	r3, [sp, #4]
 237 0056 9B68     		ldr	r3, [r3, #8]
 238 0058 0022     		movs	r2, #0
 239 005a 1A60     		str	r2, [r3]
 240              		.loc 1 142 0
 241 005c 019B     		ldr	r3, [sp, #4]
 242 005e 9B68     		ldr	r3, [r3, #8]
 243 0060 0022     		movs	r2, #0
 244 0062 5A60     		str	r2, [r3, #4]
 245              		.loc 1 143 0
 246 0064 019B     		ldr	r3, [sp, #4]
 247 0066 9B68     		ldr	r3, [r3, #8]
 248 0068 0022     		movs	r2, #0
 249 006a 9A60     		str	r2, [r3, #8]
 250              		.loc 1 144 0
 251 006c 02B0     		add	sp, sp, #8
 252              		.cfi_def_cfa_offset 0
 253              		@ sp needed
 254 006e 7047     		bx	lr
 255              		.cfi_endproc
 256              	.LFE120:
 257              		.size	usart_stop, .-usart_stop
 258              		.section	.text.usart_start,"ax",%progbits
 259              		.align	2
 260              		.p2align 4,,15
 261              		.thumb
 262              		.thumb_func
 263              		.type	usart_start, %function
 264              	usart_start:
 265              	.LFB121:
 266              		.loc 1 152 0
 267              		.cfi_startproc
 268              		@ args = 0, pretend = 0, frame = 16
 269              		@ frame_needed = 0, uses_anonymous_args = 0
 270 0000 00B5     		push	{lr}
 271              		.cfi_def_cfa_offset 4
 272              		.cfi_offset 14, -4
 273 0002 85B0     		sub	sp, sp, #20
 274              		.cfi_def_cfa_offset 24
 275 0004 0190     		str	r0, [sp, #4]
 276              		.loc 1 154 0
 277 0006 019B     		ldr	r3, [sp, #4]
 278 0008 9B68     		ldr	r3, [r3, #8]
ARM GAS  /tmp/ccc9u8vF.s 			page 6


 279 000a 0293     		str	r3, [sp, #8]
 280              		.loc 1 157 0
 281 000c 0198     		ldr	r0, [sp, #4]
 282 000e FFF7FEFF 		bl	usart_stop
 283              		.loc 1 166 0
 284 0012 019B     		ldr	r3, [sp, #4]
 285 0014 9B68     		ldr	r3, [r3, #8]
 286 0016 204A     		ldr	r2, .L17
 287 0018 9342     		cmp	r3, r2
 288 001a 09D1     		bne	.L13
 289              		.loc 1 167 0
 290 001c 019B     		ldr	r3, [sp, #4]
 291 001e 5B68     		ldr	r3, [r3, #4]
 292 0020 5B69     		ldr	r3, [r3, #20]
 293 0022 1E4A     		ldr	r2, .L17+4
 294 0024 B2FBF3F3 		udiv	r3, r2, r3
 295 0028 9AB2     		uxth	r2, r3
 296 002a 029B     		ldr	r3, [sp, #8]
 297 002c 9A81     		strh	r2, [r3, #12]	@ movhi
 298 002e 08E0     		b	.L14
 299              	.L13:
 300              		.loc 1 169 0
 301 0030 019B     		ldr	r3, [sp, #4]
 302 0032 5B68     		ldr	r3, [r3, #4]
 303 0034 5B69     		ldr	r3, [r3, #20]
 304 0036 194A     		ldr	r2, .L17+4
 305 0038 B2FBF3F3 		udiv	r3, r2, r3
 306 003c 9AB2     		uxth	r2, r3
 307 003e 029B     		ldr	r3, [sp, #8]
 308 0040 9A81     		strh	r2, [r3, #12]	@ movhi
 309              	.L14:
 310              		.loc 1 173 0
 311 0042 029B     		ldr	r3, [sp, #8]
 312 0044 4FF0FF32 		mov	r2, #-1
 313 0048 1A62     		str	r2, [r3, #32]
 314              		.loc 1 177 0
 315 004a 019B     		ldr	r3, [sp, #4]
 316 004c 5B68     		ldr	r3, [r3, #4]
 317 004e DB69     		ldr	r3, [r3, #28]
 318 0050 43F04002 		orr	r2, r3, #64
 319 0054 029B     		ldr	r3, [sp, #8]
 320 0056 5A60     		str	r2, [r3, #4]
 321              		.loc 1 178 0
 322 0058 019B     		ldr	r3, [sp, #4]
 323 005a 5B68     		ldr	r3, [r3, #4]
 324 005c 1B6A     		ldr	r3, [r3, #32]
 325 005e 43F0C102 		orr	r2, r3, #193
 326 0062 029B     		ldr	r3, [sp, #8]
 327 0064 9A60     		str	r2, [r3, #8]
 328              		.loc 1 180 0
 329 0066 019B     		ldr	r3, [sp, #4]
 330 0068 5B68     		ldr	r3, [r3, #4]
 331 006a 5B68     		ldr	r3, [r3, #4]
 332 006c 002B     		cmp	r3, #0
 333 006e 03D1     		bne	.L15
 334              		.loc 1 181 0
 335 0070 40F20D13 		movw	r3, #269
ARM GAS  /tmp/ccc9u8vF.s 			page 7


 336 0074 0393     		str	r3, [sp, #12]
 337 0076 02E0     		b	.L16
 338              	.L15:
 339              		.loc 1 183 0
 340 0078 40F24D13 		movw	r3, #333
 341 007c 0393     		str	r3, [sp, #12]
 342              	.L16:
 343              		.loc 1 185 0
 344 007e 019B     		ldr	r3, [sp, #4]
 345 0080 5B68     		ldr	r3, [r3, #4]
 346 0082 9A69     		ldr	r2, [r3, #24]
 347 0084 039B     		ldr	r3, [sp, #12]
 348 0086 1A43     		orrs	r2, r2, r3
 349 0088 029B     		ldr	r3, [sp, #8]
 350 008a 1A60     		str	r2, [r3]
 351              		.loc 1 188 0
 352 008c 0198     		ldr	r0, [sp, #4]
 353 008e FFF7FEFF 		bl	set_rx_idle_loop
 354              		.loc 1 189 0
 355 0092 05B0     		add	sp, sp, #20
 356              		.cfi_def_cfa_offset 4
 357              		@ sp needed
 358 0094 5DF804FB 		ldr	pc, [sp], #4
 359              	.L18:
 360              		.align	2
 361              	.L17:
 362 0098 00380140 		.word	1073821696
 363 009c 00512502 		.word	36000000
 364              		.cfi_endproc
 365              	.LFE121:
 366              		.size	usart_start, .-usart_start
 367              		.section	.text.uart_lld_serve_rx_end_irq,"ax",%progbits
 368              		.align	2
 369              		.p2align 4,,15
 370              		.thumb
 371              		.thumb_func
 372              		.type	uart_lld_serve_rx_end_irq, %function
 373              	uart_lld_serve_rx_end_irq:
 374              	.LFB122:
 375              		.loc 1 197 0
 376              		.cfi_startproc
 377              		@ args = 0, pretend = 0, frame = 8
 378              		@ frame_needed = 0, uses_anonymous_args = 0
 379 0000 00B5     		push	{lr}
 380              		.cfi_def_cfa_offset 4
 381              		.cfi_offset 14, -4
 382 0002 83B0     		sub	sp, sp, #12
 383              		.cfi_def_cfa_offset 16
 384 0004 0190     		str	r0, [sp, #4]
 385 0006 0091     		str	r1, [sp]
 386              		.loc 1 201 0
 387 0008 009B     		ldr	r3, [sp]
 388 000a 03F00803 		and	r3, r3, #8
 389 000e 002B     		cmp	r3, #0
 390 0010 01D0     		beq	.L20
 391              		.loc 1 202 0
 392 0012 FFF7FEFF 		bl	port_halt
ARM GAS  /tmp/ccc9u8vF.s 			page 8


 393              	.L20:
 394              		.loc 1 208 0
 395 0016 019B     		ldr	r3, [sp, #4]
 396 0018 9B78     		ldrb	r3, [r3, #2]	@ zero_extendqisi2
 397 001a 002B     		cmp	r3, #0
 398 001c 0ED1     		bne	.L21
 399              		.loc 1 211 0
 400 001e 019B     		ldr	r3, [sp, #4]
 401 0020 5B68     		ldr	r3, [r3, #4]
 402 0022 DB68     		ldr	r3, [r3, #12]
 403 0024 002B     		cmp	r3, #0
 404 0026 34D0     		beq	.L19
 405              		.loc 1 212 0
 406 0028 019B     		ldr	r3, [sp, #4]
 407 002a 5B68     		ldr	r3, [r3, #4]
 408 002c DB68     		ldr	r3, [r3, #12]
 409 002e 019A     		ldr	r2, [sp, #4]
 410 0030 128B     		ldrh	r2, [r2, #24]	@ movhi
 411 0032 92B2     		uxth	r2, r2
 412 0034 0198     		ldr	r0, [sp, #4]
 413 0036 1146     		mov	r1, r2
 414 0038 9847     		blx	r3
 415 003a 2AE0     		b	.L19
 416              	.L21:
 417              		.loc 1 217 0
 418 003c 019B     		ldr	r3, [sp, #4]
 419 003e 1B69     		ldr	r3, [r3, #16]
 420 0040 1B68     		ldr	r3, [r3]
 421 0042 019A     		ldr	r2, [sp, #4]
 422 0044 1269     		ldr	r2, [r2, #16]
 423 0046 1268     		ldr	r2, [r2]
 424 0048 1268     		ldr	r2, [r2]
 425 004a 22F00F02 		bic	r2, r2, #15
 426 004e 1A60     		str	r2, [r3]
 427 0050 019B     		ldr	r3, [sp, #4]
 428 0052 1B69     		ldr	r3, [r3, #16]
 429 0054 5B68     		ldr	r3, [r3, #4]
 430 0056 019A     		ldr	r2, [sp, #4]
 431 0058 1269     		ldr	r2, [r2, #16]
 432 005a 127A     		ldrb	r2, [r2, #8]	@ zero_extendqisi2
 433 005c 1146     		mov	r1, r2
 434 005e 0F22     		movs	r2, #15
 435 0060 8A40     		lsls	r2, r2, r1
 436 0062 1A60     		str	r2, [r3]
 437              		.loc 1 218 0
 438 0064 019B     		ldr	r3, [sp, #4]
 439 0066 0222     		movs	r2, #2
 440 0068 9A70     		strb	r2, [r3, #2]
 441              		.loc 1 219 0
 442 006a 019B     		ldr	r3, [sp, #4]
 443 006c 5B68     		ldr	r3, [r3, #4]
 444 006e 9B68     		ldr	r3, [r3, #8]
 445 0070 002B     		cmp	r3, #0
 446 0072 04D0     		beq	.L24
 447              		.loc 1 220 0
 448 0074 019B     		ldr	r3, [sp, #4]
 449 0076 5B68     		ldr	r3, [r3, #4]
ARM GAS  /tmp/ccc9u8vF.s 			page 9


 450 0078 9B68     		ldr	r3, [r3, #8]
 451 007a 0198     		ldr	r0, [sp, #4]
 452 007c 9847     		blx	r3
 453              	.L24:
 454              		.loc 1 224 0
 455 007e 019B     		ldr	r3, [sp, #4]
 456 0080 9B78     		ldrb	r3, [r3, #2]	@ zero_extendqisi2
 457 0082 022B     		cmp	r3, #2
 458 0084 05D1     		bne	.L19
 459              		.loc 1 225 0
 460 0086 019B     		ldr	r3, [sp, #4]
 461 0088 0022     		movs	r2, #0
 462 008a 9A70     		strb	r2, [r3, #2]
 463              		.loc 1 226 0
 464 008c 0198     		ldr	r0, [sp, #4]
 465 008e FFF7FEFF 		bl	set_rx_idle_loop
 466              	.L19:
 467              		.loc 1 229 0
 468 0092 03B0     		add	sp, sp, #12
 469              		.cfi_def_cfa_offset 4
 470              		@ sp needed
 471 0094 5DF804FB 		ldr	pc, [sp], #4
 472              		.cfi_endproc
 473              	.LFE122:
 474              		.size	uart_lld_serve_rx_end_irq, .-uart_lld_serve_rx_end_irq
 475 0098 AFF30080 		.section	.text.uart_lld_serve_tx_end_irq,"ax",%progbits
 475      AFF30080 
 476              		.align	2
 477              		.p2align 4,,15
 478              		.thumb
 479              		.thumb_func
 480              		.type	uart_lld_serve_tx_end_irq, %function
 481              	uart_lld_serve_tx_end_irq:
 482              	.LFB123:
 483              		.loc 1 237 0
 484              		.cfi_startproc
 485              		@ args = 0, pretend = 0, frame = 8
 486              		@ frame_needed = 0, uses_anonymous_args = 0
 487 0000 00B5     		push	{lr}
 488              		.cfi_def_cfa_offset 4
 489              		.cfi_offset 14, -4
 490 0002 83B0     		sub	sp, sp, #12
 491              		.cfi_def_cfa_offset 16
 492 0004 0190     		str	r0, [sp, #4]
 493 0006 0091     		str	r1, [sp]
 494              		.loc 1 241 0
 495 0008 009B     		ldr	r3, [sp]
 496 000a 03F00803 		and	r3, r3, #8
 497 000e 002B     		cmp	r3, #0
 498 0010 01D0     		beq	.L26
 499              		.loc 1 242 0
 500 0012 FFF7FEFF 		bl	port_halt
 501              	.L26:
 502              		.loc 1 248 0
 503 0016 019B     		ldr	r3, [sp, #4]
 504 0018 5B69     		ldr	r3, [r3, #20]
 505 001a 1B68     		ldr	r3, [r3]
ARM GAS  /tmp/ccc9u8vF.s 			page 10


 506 001c 019A     		ldr	r2, [sp, #4]
 507 001e 5269     		ldr	r2, [r2, #20]
 508 0020 1268     		ldr	r2, [r2]
 509 0022 1268     		ldr	r2, [r2]
 510 0024 22F00F02 		bic	r2, r2, #15
 511 0028 1A60     		str	r2, [r3]
 512 002a 019B     		ldr	r3, [sp, #4]
 513 002c 5B69     		ldr	r3, [r3, #20]
 514 002e 5B68     		ldr	r3, [r3, #4]
 515 0030 019A     		ldr	r2, [sp, #4]
 516 0032 5269     		ldr	r2, [r2, #20]
 517 0034 127A     		ldrb	r2, [r2, #8]	@ zero_extendqisi2
 518 0036 1146     		mov	r1, r2
 519 0038 0F22     		movs	r2, #15
 520 003a 8A40     		lsls	r2, r2, r1
 521 003c 1A60     		str	r2, [r3]
 522              		.loc 1 251 0
 523 003e 019B     		ldr	r3, [sp, #4]
 524 0040 0222     		movs	r2, #2
 525 0042 5A70     		strb	r2, [r3, #1]
 526              		.loc 1 252 0
 527 0044 019B     		ldr	r3, [sp, #4]
 528 0046 5B68     		ldr	r3, [r3, #4]
 529 0048 1B68     		ldr	r3, [r3]
 530 004a 002B     		cmp	r3, #0
 531 004c 04D0     		beq	.L27
 532              		.loc 1 253 0
 533 004e 019B     		ldr	r3, [sp, #4]
 534 0050 5B68     		ldr	r3, [r3, #4]
 535 0052 1B68     		ldr	r3, [r3]
 536 0054 0198     		ldr	r0, [sp, #4]
 537 0056 9847     		blx	r3
 538              	.L27:
 539              		.loc 1 257 0
 540 0058 019B     		ldr	r3, [sp, #4]
 541 005a 5B78     		ldrb	r3, [r3, #1]	@ zero_extendqisi2
 542 005c 022B     		cmp	r3, #2
 543 005e 02D1     		bne	.L25
 544              		.loc 1 258 0
 545 0060 019B     		ldr	r3, [sp, #4]
 546 0062 0022     		movs	r2, #0
 547 0064 5A70     		strb	r2, [r3, #1]
 548              	.L25:
 549              		.loc 1 259 0
 550 0066 03B0     		add	sp, sp, #12
 551              		.cfi_def_cfa_offset 4
 552              		@ sp needed
 553 0068 5DF804FB 		ldr	pc, [sp], #4
 554              		.cfi_endproc
 555              	.LFE123:
 556              		.size	uart_lld_serve_tx_end_irq, .-uart_lld_serve_tx_end_irq
 557 006c AFF30080 		.section	.text.serve_usart_irq,"ax",%progbits
 558              		.align	2
 559              		.p2align 4,,15
 560              		.thumb
 561              		.thumb_func
 562              		.type	serve_usart_irq, %function
ARM GAS  /tmp/ccc9u8vF.s 			page 11


 563              	serve_usart_irq:
 564              	.LFB124:
 565              		.loc 1 266 0
 566              		.cfi_startproc
 567              		@ args = 0, pretend = 0, frame = 16
 568              		@ frame_needed = 0, uses_anonymous_args = 0
 569 0000 10B5     		push	{r4, lr}
 570              		.cfi_def_cfa_offset 8
 571              		.cfi_offset 4, -8
 572              		.cfi_offset 14, -4
 573 0002 84B0     		sub	sp, sp, #16
 574              		.cfi_def_cfa_offset 24
 575 0004 0190     		str	r0, [sp, #4]
 576              		.loc 1 268 0
 577 0006 019B     		ldr	r3, [sp, #4]
 578 0008 9B68     		ldr	r3, [r3, #8]
 579 000a 0393     		str	r3, [sp, #12]
 580              		.loc 1 271 0
 581 000c 039B     		ldr	r3, [sp, #12]
 582 000e DB69     		ldr	r3, [r3, #28]
 583 0010 0293     		str	r3, [sp, #8]
 584              		.loc 1 272 0
 585 0012 039B     		ldr	r3, [sp, #12]
 586 0014 029A     		ldr	r2, [sp, #8]
 587 0016 1A62     		str	r2, [r3, #32]
 588              		.loc 1 274 0
 589 0018 029A     		ldr	r2, [sp, #8]
 590 001a 40F20F13 		movw	r3, #271
 591 001e 1340     		ands	r3, r3, r2
 592 0020 002B     		cmp	r3, #0
 593 0022 0ED0     		beq	.L30
 594              		.loc 1 276 0
 595 0024 019B     		ldr	r3, [sp, #4]
 596 0026 5B68     		ldr	r3, [r3, #4]
 597 0028 1B69     		ldr	r3, [r3, #16]
 598 002a 002B     		cmp	r3, #0
 599 002c 09D0     		beq	.L30
 600              		.loc 1 277 0
 601 002e 019B     		ldr	r3, [sp, #4]
 602 0030 5B68     		ldr	r3, [r3, #4]
 603 0032 1C69     		ldr	r4, [r3, #16]
 604 0034 0298     		ldr	r0, [sp, #8]
 605 0036 FFF7FEFF 		bl	translate_errors
 606 003a 0346     		mov	r3, r0
 607 003c 0198     		ldr	r0, [sp, #4]
 608 003e 1946     		mov	r1, r3
 609 0040 A047     		blx	r4
 610              	.L30:
 611              		.loc 1 279 0
 612 0042 029B     		ldr	r3, [sp, #8]
 613 0044 03F04003 		and	r3, r3, #64
 614 0048 002B     		cmp	r3, #0
 615 004a 09D0     		beq	.L29
 616              		.loc 1 281 0
 617 004c 019B     		ldr	r3, [sp, #4]
 618 004e 5B68     		ldr	r3, [r3, #4]
 619 0050 5B68     		ldr	r3, [r3, #4]
ARM GAS  /tmp/ccc9u8vF.s 			page 12


 620 0052 002B     		cmp	r3, #0
 621 0054 04D0     		beq	.L29
 622              		.loc 1 282 0
 623 0056 019B     		ldr	r3, [sp, #4]
 624 0058 5B68     		ldr	r3, [r3, #4]
 625 005a 5B68     		ldr	r3, [r3, #4]
 626 005c 0198     		ldr	r0, [sp, #4]
 627 005e 9847     		blx	r3
 628              	.L29:
 629              		.loc 1 284 0
 630 0060 04B0     		add	sp, sp, #16
 631              		.cfi_def_cfa_offset 8
 632              		@ sp needed
 633 0062 10BD     		pop	{r4, pc}
 634              		.cfi_endproc
 635              	.LFE124:
 636              		.size	serve_usart_irq, .-serve_usart_irq
 637 0064 AFF30080 		.section	.text.VectorDC,"ax",%progbits
 637      AFF30080 
 637      AFF30080 
 638              		.align	2
 639              		.p2align 4,,15
 640              		.global	VectorDC
 641              		.thumb
 642              		.thumb_func
 643              		.type	VectorDC, %function
 644              	VectorDC:
 645              	.LFB125:
 646              		.loc 1 337 0
 647              		.cfi_startproc
 648              		@ args = 0, pretend = 0, frame = 0
 649              		@ frame_needed = 0, uses_anonymous_args = 0
 650 0000 08B5     		push	{r3, lr}
 651              		.cfi_def_cfa_offset 8
 652              		.cfi_offset 3, -8
 653              		.cfi_offset 14, -4
 654              		.loc 1 339 0
 655 0002 FFF7FEFF 		bl	dbg_check_enter_isr
 656              		.loc 1 341 0
 657 0006 0448     		ldr	r0, .L33
 658 0008 FFF7FEFF 		bl	serve_usart_irq
 659              		.loc 1 343 0
 660 000c FFF7FEFF 		bl	dbg_check_leave_isr
 661 0010 FFF7FEFF 		bl	_port_irq_epilogue
 662              		.loc 1 344 0
 663 0014 08BD     		pop	{r3, pc}
 664              	.L34:
 665 0016 00BF     		.align	2
 666              	.L33:
 667 0018 00000000 		.word	UARTD3
 668              		.cfi_endproc
 669              	.LFE125:
 670              		.size	VectorDC, .-VectorDC
 671 001c AFF30080 		.section	.text.uart_lld_init,"ax",%progbits
 672              		.align	2
 673              		.p2align 4,,15
 674              		.global	uart_lld_init
ARM GAS  /tmp/ccc9u8vF.s 			page 13


 675              		.thumb
 676              		.thumb_func
 677              		.type	uart_lld_init, %function
 678              	uart_lld_init:
 679              	.LFB126:
 680              		.loc 1 356 0
 681              		.cfi_startproc
 682              		@ args = 0, pretend = 0, frame = 0
 683              		@ frame_needed = 0, uses_anonymous_args = 0
 684 0000 08B5     		push	{r3, lr}
 685              		.cfi_def_cfa_offset 8
 686              		.cfi_offset 3, -8
 687              		.cfi_offset 14, -4
 688              		.loc 1 375 0
 689 0002 0848     		ldr	r0, .L36
 690 0004 FFF7FEFF 		bl	uartObjectInit
 691              		.loc 1 376 0
 692 0008 064B     		ldr	r3, .L36
 693 000a 074A     		ldr	r2, .L36+4
 694 000c 9A60     		str	r2, [r3, #8]
 695              		.loc 1 377 0
 696 000e 054B     		ldr	r3, .L36
 697 0010 0822     		movs	r2, #8
 698 0012 DA60     		str	r2, [r3, #12]
 699              		.loc 1 378 0
 700 0014 034B     		ldr	r3, .L36
 701 0016 054A     		ldr	r2, .L36+8
 702 0018 1A61     		str	r2, [r3, #16]
 703              		.loc 1 379 0
 704 001a 024B     		ldr	r3, .L36
 705 001c 044A     		ldr	r2, .L36+12
 706 001e 5A61     		str	r2, [r3, #20]
 707              		.loc 1 381 0
 708 0020 08BD     		pop	{r3, pc}
 709              	.L37:
 710 0022 00BF     		.align	2
 711              	.L36:
 712 0024 00000000 		.word	UARTD3
 713 0028 00480040 		.word	1073760256
 714 002c 18000000 		.word	_stm32_dma_streams+24
 715 0030 0C000000 		.word	_stm32_dma_streams+12
 716              		.cfi_endproc
 717              	.LFE126:
 718              		.size	uart_lld_init, .-uart_lld_init
 719 0034 AFF30080 		.section	.rodata
 719      AFF30080 
 719      AFF30080 
 720              		.align	2
 721              	.LC0:
 722 0000 75617274 		.ascii	"uart_lld_start(), #5\000"
 722      5F6C6C64 
 722      5F737461 
 722      72742829 
 722      2C202335 
 723 0015 000000   		.align	2
 724              	.LC1:
 725 0018 75617274 		.ascii	"uart_lld_start(), #6\000"
ARM GAS  /tmp/ccc9u8vF.s 			page 14


 725      5F6C6C64 
 725      5F737461 
 725      72742829 
 725      2C202336 
 726 002d 000000   		.section	.text.uart_lld_start,"ax",%progbits
 727              		.align	2
 728              		.p2align 4,,15
 729              		.global	uart_lld_start
 730              		.thumb
 731              		.thumb_func
 732              		.type	uart_lld_start, %function
 733              	uart_lld_start:
 734              	.LFB127:
 735              		.loc 1 390 0
 736              		.cfi_startproc
 737              		@ args = 0, pretend = 0, frame = 16
 738              		@ frame_needed = 0, uses_anonymous_args = 0
 739 0000 00B5     		push	{lr}
 740              		.cfi_def_cfa_offset 4
 741              		.cfi_offset 14, -4
 742 0002 85B0     		sub	sp, sp, #20
 743              		.cfi_def_cfa_offset 24
 744 0004 0190     		str	r0, [sp, #4]
 745              		.loc 1 392 0
 746 0006 019B     		ldr	r3, [sp, #4]
 747 0008 1B78     		ldrb	r3, [r3]	@ zero_extendqisi2
 748 000a 012B     		cmp	r3, #1
 749 000c 54D1     		bne	.L39
 750              		.loc 1 436 0
 751 000e 019B     		ldr	r3, [sp, #4]
 752 0010 2F4A     		ldr	r2, .L44
 753 0012 9342     		cmp	r3, r2
 754 0014 31D1     		bne	.L40
 755              	.LBB2:
 756              		.loc 1 438 0
 757 0016 019B     		ldr	r3, [sp, #4]
 758 0018 1B69     		ldr	r3, [r3, #16]
 759 001a 1846     		mov	r0, r3
 760 001c 0C21     		movs	r1, #12
 761 001e 2D4A     		ldr	r2, .L44+4
 762 0020 019B     		ldr	r3, [sp, #4]
 763 0022 FFF7FEFF 		bl	dmaStreamAllocate
 764 0026 0346     		mov	r3, r0
 765 0028 8DF80F30 		strb	r3, [sp, #15]
 766              		.loc 1 442 0
 767 002c 9DF80F30 		ldrb	r3, [sp, #15]	@ zero_extendqisi2
 768 0030 002B     		cmp	r3, #0
 769 0032 02D0     		beq	.L41
 770              		.loc 1 442 0 is_stmt 0 discriminator 1
 771 0034 2848     		ldr	r0, .L44+8
 772 0036 FFF7FEFF 		bl	chDbgPanic
 773              	.L41:
 774              		.loc 1 443 0 is_stmt 1
 775 003a 019B     		ldr	r3, [sp, #4]
 776 003c 5B69     		ldr	r3, [r3, #20]
 777 003e 1846     		mov	r0, r3
 778 0040 0C21     		movs	r1, #12
ARM GAS  /tmp/ccc9u8vF.s 			page 15


 779 0042 264A     		ldr	r2, .L44+12
 780 0044 019B     		ldr	r3, [sp, #4]
 781 0046 FFF7FEFF 		bl	dmaStreamAllocate
 782 004a 0346     		mov	r3, r0
 783 004c 8DF80F30 		strb	r3, [sp, #15]
 784              		.loc 1 447 0
 785 0050 9DF80F30 		ldrb	r3, [sp, #15]	@ zero_extendqisi2
 786 0054 002B     		cmp	r3, #0
 787 0056 02D0     		beq	.L42
 788              		.loc 1 447 0 is_stmt 0 discriminator 1
 789 0058 2148     		ldr	r0, .L44+16
 790 005a FFF7FEFF 		bl	chDbgPanic
 791              	.L42:
 792              		.loc 1 448 0 is_stmt 1
 793 005e 214A     		ldr	r2, .L44+20
 794 0060 204B     		ldr	r3, .L44+20
 795 0062 DB69     		ldr	r3, [r3, #28]
 796 0064 43F48023 		orr	r3, r3, #262144
 797 0068 D361     		str	r3, [r2, #28]
 798              		.loc 1 449 0
 799 006a 2720     		movs	r0, #39
 800 006c C021     		movs	r1, #192
 801 006e FFF7FEFF 		bl	nvicEnableVector
 802              		.loc 1 451 0
 803 0072 019B     		ldr	r3, [sp, #4]
 804 0074 DA68     		ldr	r2, [r3, #12]
 805 0076 019B     		ldr	r3, [sp, #4]
 806 0078 DA60     		str	r2, [r3, #12]
 807              	.L40:
 808              	.LBE2:
 809              		.loc 1 458 0
 810 007a 019B     		ldr	r3, [sp, #4]
 811 007c 5B68     		ldr	r3, [r3, #4]
 812 007e 9B69     		ldr	r3, [r3, #24]
 813 0080 03F4A053 		and	r3, r3, #5120
 814 0084 B3F5805F 		cmp	r3, #4096
 815 0088 05D1     		bne	.L43
 816              		.loc 1 459 0
 817 008a 019B     		ldr	r3, [sp, #4]
 818 008c DB68     		ldr	r3, [r3, #12]
 819 008e 43F4A062 		orr	r2, r3, #1280
 820 0092 019B     		ldr	r3, [sp, #4]
 821 0094 DA60     		str	r2, [r3, #12]
 822              	.L43:
 823              		.loc 1 460 0
 824 0096 019B     		ldr	r3, [sp, #4]
 825 0098 1B69     		ldr	r3, [r3, #16]
 826 009a 1B68     		ldr	r3, [r3]
 827 009c 019A     		ldr	r2, [sp, #4]
 828 009e 9268     		ldr	r2, [r2, #8]
 829 00a0 2432     		adds	r2, r2, #36
 830 00a2 9A60     		str	r2, [r3, #8]
 831              		.loc 1 461 0
 832 00a4 019B     		ldr	r3, [sp, #4]
 833 00a6 5B69     		ldr	r3, [r3, #20]
 834 00a8 1B68     		ldr	r3, [r3]
 835 00aa 019A     		ldr	r2, [sp, #4]
ARM GAS  /tmp/ccc9u8vF.s 			page 16


 836 00ac 9268     		ldr	r2, [r2, #8]
 837 00ae 2832     		adds	r2, r2, #40
 838 00b0 9A60     		str	r2, [r3, #8]
 839              		.loc 1 462 0
 840 00b2 019B     		ldr	r3, [sp, #4]
 841 00b4 0022     		movs	r2, #0
 842 00b6 1A83     		strh	r2, [r3, #24]	@ movhi
 843              	.L39:
 844              		.loc 1 465 0
 845 00b8 019B     		ldr	r3, [sp, #4]
 846 00ba 0022     		movs	r2, #0
 847 00bc 9A70     		strb	r2, [r3, #2]
 848              		.loc 1 466 0
 849 00be 019B     		ldr	r3, [sp, #4]
 850 00c0 0022     		movs	r2, #0
 851 00c2 5A70     		strb	r2, [r3, #1]
 852              		.loc 1 467 0
 853 00c4 0198     		ldr	r0, [sp, #4]
 854 00c6 FFF7FEFF 		bl	usart_start
 855              		.loc 1 468 0
 856 00ca 05B0     		add	sp, sp, #20
 857              		.cfi_def_cfa_offset 4
 858              		@ sp needed
 859 00cc 5DF804FB 		ldr	pc, [sp], #4
 860              	.L45:
 861              		.align	2
 862              	.L44:
 863 00d0 00000000 		.word	UARTD3
 864 00d4 00000000 		.word	uart_lld_serve_rx_end_irq
 865 00d8 00000000 		.word	.LC0
 866 00dc 00000000 		.word	uart_lld_serve_tx_end_irq
 867 00e0 18000000 		.word	.LC1
 868 00e4 00100240 		.word	1073876992
 869              		.cfi_endproc
 870              	.LFE127:
 871              		.size	uart_lld_start, .-uart_lld_start
 872 00e8 AFF30080 		.section	.text.uart_lld_stop,"ax",%progbits
 872      AFF30080 
 873              		.align	2
 874              		.p2align 4,,15
 875              		.global	uart_lld_stop
 876              		.thumb
 877              		.thumb_func
 878              		.type	uart_lld_stop, %function
 879              	uart_lld_stop:
 880              	.LFB128:
 881              		.loc 1 477 0
 882              		.cfi_startproc
 883              		@ args = 0, pretend = 0, frame = 8
 884              		@ frame_needed = 0, uses_anonymous_args = 0
 885 0000 00B5     		push	{lr}
 886              		.cfi_def_cfa_offset 4
 887              		.cfi_offset 14, -4
 888 0002 83B0     		sub	sp, sp, #12
 889              		.cfi_def_cfa_offset 16
 890 0004 0190     		str	r0, [sp, #4]
 891              		.loc 1 479 0
ARM GAS  /tmp/ccc9u8vF.s 			page 17


 892 0006 019B     		ldr	r3, [sp, #4]
 893 0008 1B78     		ldrb	r3, [r3]	@ zero_extendqisi2
 894 000a 022B     		cmp	r3, #2
 895 000c 1AD1     		bne	.L46
 896              		.loc 1 480 0
 897 000e 0198     		ldr	r0, [sp, #4]
 898 0010 FFF7FEFF 		bl	usart_stop
 899              		.loc 1 481 0
 900 0014 019B     		ldr	r3, [sp, #4]
 901 0016 1B69     		ldr	r3, [r3, #16]
 902 0018 1846     		mov	r0, r3
 903 001a FFF7FEFF 		bl	dmaStreamRelease
 904              		.loc 1 482 0
 905 001e 019B     		ldr	r3, [sp, #4]
 906 0020 5B69     		ldr	r3, [r3, #20]
 907 0022 1846     		mov	r0, r3
 908 0024 FFF7FEFF 		bl	dmaStreamRelease
 909              		.loc 1 501 0
 910 0028 019B     		ldr	r3, [sp, #4]
 911 002a 084A     		ldr	r2, .L48
 912 002c 9342     		cmp	r3, r2
 913 002e 09D1     		bne	.L46
 914              		.loc 1 502 0
 915 0030 2720     		movs	r0, #39
 916 0032 FFF7FEFF 		bl	nvicDisableVector
 917              		.loc 1 503 0
 918 0036 064A     		ldr	r2, .L48+4
 919 0038 054B     		ldr	r3, .L48+4
 920 003a DB69     		ldr	r3, [r3, #28]
 921 003c 23F48023 		bic	r3, r3, #262144
 922 0040 D361     		str	r3, [r2, #28]
 923              		.loc 1 504 0
 924 0042 00BF     		nop
 925              	.L46:
 926              		.loc 1 508 0
 927 0044 03B0     		add	sp, sp, #12
 928              		.cfi_def_cfa_offset 4
 929              		@ sp needed
 930 0046 5DF804FB 		ldr	pc, [sp], #4
 931              	.L49:
 932 004a 00BF     		.align	2
 933              	.L48:
 934 004c 00000000 		.word	UARTD3
 935 0050 00100240 		.word	1073876992
 936              		.cfi_endproc
 937              	.LFE128:
 938              		.size	uart_lld_stop, .-uart_lld_stop
 939 0054 AFF30080 		.section	.text.uart_lld_start_send,"ax",%progbits
 939      AFF30080 
 939      AFF30080 
 940              		.align	2
 941              		.p2align 4,,15
 942              		.global	uart_lld_start_send
 943              		.thumb
 944              		.thumb_func
 945              		.type	uart_lld_start_send, %function
 946              	uart_lld_start_send:
ARM GAS  /tmp/ccc9u8vF.s 			page 18


 947              	.LFB129:
 948              		.loc 1 521 0
 949              		.cfi_startproc
 950              		@ args = 0, pretend = 0, frame = 16
 951              		@ frame_needed = 0, uses_anonymous_args = 0
 952              		@ link register save eliminated.
 953 0000 84B0     		sub	sp, sp, #16
 954              		.cfi_def_cfa_offset 16
 955 0002 0390     		str	r0, [sp, #12]
 956 0004 0291     		str	r1, [sp, #8]
 957 0006 0192     		str	r2, [sp, #4]
 958              		.loc 1 524 0
 959 0008 039B     		ldr	r3, [sp, #12]
 960 000a 5B69     		ldr	r3, [r3, #20]
 961 000c 1B68     		ldr	r3, [r3]
 962 000e 019A     		ldr	r2, [sp, #4]
 963 0010 DA60     		str	r2, [r3, #12]
 964              		.loc 1 525 0
 965 0012 039B     		ldr	r3, [sp, #12]
 966 0014 5B69     		ldr	r3, [r3, #20]
 967 0016 1B68     		ldr	r3, [r3]
 968 0018 029A     		ldr	r2, [sp, #8]
 969 001a 5A60     		str	r2, [r3, #4]
 970              		.loc 1 526 0
 971 001c 039B     		ldr	r3, [sp, #12]
 972 001e 5B69     		ldr	r3, [r3, #20]
 973 0020 1B68     		ldr	r3, [r3]
 974 0022 039A     		ldr	r2, [sp, #12]
 975 0024 D268     		ldr	r2, [r2, #12]
 976 0026 42F09202 		orr	r2, r2, #146
 977 002a 1A60     		str	r2, [r3]
 978              		.loc 1 528 0
 979 002c 039B     		ldr	r3, [sp, #12]
 980 002e 5B69     		ldr	r3, [r3, #20]
 981 0030 1B68     		ldr	r3, [r3]
 982 0032 039A     		ldr	r2, [sp, #12]
 983 0034 5269     		ldr	r2, [r2, #20]
 984 0036 1268     		ldr	r2, [r2]
 985 0038 1268     		ldr	r2, [r2]
 986 003a 42F00102 		orr	r2, r2, #1
 987 003e 1A60     		str	r2, [r3]
 988              		.loc 1 529 0
 989 0040 04B0     		add	sp, sp, #16
 990              		.cfi_def_cfa_offset 0
 991              		@ sp needed
 992 0042 7047     		bx	lr
 993              		.cfi_endproc
 994              	.LFE129:
 995              		.size	uart_lld_start_send, .-uart_lld_start_send
 996 0044 AFF30080 		.section	.text.uart_lld_stop_send,"ax",%progbits
 996      AFF30080 
 996      AFF30080 
 997              		.align	2
 998              		.p2align 4,,15
 999              		.global	uart_lld_stop_send
 1000              		.thumb
 1001              		.thumb_func
ARM GAS  /tmp/ccc9u8vF.s 			page 19


 1002              		.type	uart_lld_stop_send, %function
 1003              	uart_lld_stop_send:
 1004              	.LFB130:
 1005              		.loc 1 542 0
 1006              		.cfi_startproc
 1007              		@ args = 0, pretend = 0, frame = 8
 1008              		@ frame_needed = 0, uses_anonymous_args = 0
 1009              		@ link register save eliminated.
 1010 0000 82B0     		sub	sp, sp, #8
 1011              		.cfi_def_cfa_offset 8
 1012 0002 0190     		str	r0, [sp, #4]
 1013              		.loc 1 544 0
 1014 0004 019B     		ldr	r3, [sp, #4]
 1015 0006 5B69     		ldr	r3, [r3, #20]
 1016 0008 1B68     		ldr	r3, [r3]
 1017 000a 019A     		ldr	r2, [sp, #4]
 1018 000c 5269     		ldr	r2, [r2, #20]
 1019 000e 1268     		ldr	r2, [r2]
 1020 0010 1268     		ldr	r2, [r2]
 1021 0012 22F00F02 		bic	r2, r2, #15
 1022 0016 1A60     		str	r2, [r3]
 1023 0018 019B     		ldr	r3, [sp, #4]
 1024 001a 5B69     		ldr	r3, [r3, #20]
 1025 001c 5B68     		ldr	r3, [r3, #4]
 1026 001e 019A     		ldr	r2, [sp, #4]
 1027 0020 5269     		ldr	r2, [r2, #20]
 1028 0022 127A     		ldrb	r2, [r2, #8]	@ zero_extendqisi2
 1029 0024 1146     		mov	r1, r2
 1030 0026 0F22     		movs	r2, #15
 1031 0028 8A40     		lsls	r2, r2, r1
 1032 002a 1A60     		str	r2, [r3]
 1033              		.loc 1 545 0
 1034 002c 019B     		ldr	r3, [sp, #4]
 1035 002e 5B69     		ldr	r3, [r3, #20]
 1036 0030 1B68     		ldr	r3, [r3]
 1037 0032 5B68     		ldr	r3, [r3, #4]
 1038              		.loc 1 546 0
 1039 0034 1846     		mov	r0, r3
 1040 0036 02B0     		add	sp, sp, #8
 1041              		.cfi_def_cfa_offset 0
 1042              		@ sp needed
 1043 0038 7047     		bx	lr
 1044              		.cfi_endproc
 1045              	.LFE130:
 1046              		.size	uart_lld_stop_send, .-uart_lld_stop_send
 1047 003a 00BFAFF3 		.section	.text.uart_lld_start_receive,"ax",%progbits
 1047      0080
 1048              		.align	2
 1049              		.p2align 4,,15
 1050              		.global	uart_lld_start_receive
 1051              		.thumb
 1052              		.thumb_func
 1053              		.type	uart_lld_start_receive, %function
 1054              	uart_lld_start_receive:
 1055              	.LFB131:
 1056              		.loc 1 559 0
 1057              		.cfi_startproc
ARM GAS  /tmp/ccc9u8vF.s 			page 20


 1058              		@ args = 0, pretend = 0, frame = 16
 1059              		@ frame_needed = 0, uses_anonymous_args = 0
 1060              		@ link register save eliminated.
 1061 0000 84B0     		sub	sp, sp, #16
 1062              		.cfi_def_cfa_offset 16
 1063 0002 0390     		str	r0, [sp, #12]
 1064 0004 0291     		str	r1, [sp, #8]
 1065 0006 0192     		str	r2, [sp, #4]
 1066              		.loc 1 562 0
 1067 0008 039B     		ldr	r3, [sp, #12]
 1068 000a 1B69     		ldr	r3, [r3, #16]
 1069 000c 1B68     		ldr	r3, [r3]
 1070 000e 039A     		ldr	r2, [sp, #12]
 1071 0010 1269     		ldr	r2, [r2, #16]
 1072 0012 1268     		ldr	r2, [r2]
 1073 0014 1268     		ldr	r2, [r2]
 1074 0016 22F00F02 		bic	r2, r2, #15
 1075 001a 1A60     		str	r2, [r3]
 1076 001c 039B     		ldr	r3, [sp, #12]
 1077 001e 1B69     		ldr	r3, [r3, #16]
 1078 0020 5B68     		ldr	r3, [r3, #4]
 1079 0022 039A     		ldr	r2, [sp, #12]
 1080 0024 1269     		ldr	r2, [r2, #16]
 1081 0026 127A     		ldrb	r2, [r2, #8]	@ zero_extendqisi2
 1082 0028 1146     		mov	r1, r2
 1083 002a 0F22     		movs	r2, #15
 1084 002c 8A40     		lsls	r2, r2, r1
 1085 002e 1A60     		str	r2, [r3]
 1086              		.loc 1 565 0
 1087 0030 039B     		ldr	r3, [sp, #12]
 1088 0032 1B69     		ldr	r3, [r3, #16]
 1089 0034 1B68     		ldr	r3, [r3]
 1090 0036 019A     		ldr	r2, [sp, #4]
 1091 0038 DA60     		str	r2, [r3, #12]
 1092              		.loc 1 566 0
 1093 003a 039B     		ldr	r3, [sp, #12]
 1094 003c 1B69     		ldr	r3, [r3, #16]
 1095 003e 1B68     		ldr	r3, [r3]
 1096 0040 029A     		ldr	r2, [sp, #8]
 1097 0042 5A60     		str	r2, [r3, #4]
 1098              		.loc 1 567 0
 1099 0044 039B     		ldr	r3, [sp, #12]
 1100 0046 1B69     		ldr	r3, [r3, #16]
 1101 0048 1B68     		ldr	r3, [r3]
 1102 004a 039A     		ldr	r2, [sp, #12]
 1103 004c D268     		ldr	r2, [r2, #12]
 1104 004e 42F08202 		orr	r2, r2, #130
 1105 0052 1A60     		str	r2, [r3]
 1106              		.loc 1 569 0
 1107 0054 039B     		ldr	r3, [sp, #12]
 1108 0056 1B69     		ldr	r3, [r3, #16]
 1109 0058 1B68     		ldr	r3, [r3]
 1110 005a 039A     		ldr	r2, [sp, #12]
 1111 005c 1269     		ldr	r2, [r2, #16]
 1112 005e 1268     		ldr	r2, [r2]
 1113 0060 1268     		ldr	r2, [r2]
 1114 0062 42F00102 		orr	r2, r2, #1
ARM GAS  /tmp/ccc9u8vF.s 			page 21


 1115 0066 1A60     		str	r2, [r3]
 1116              		.loc 1 570 0
 1117 0068 04B0     		add	sp, sp, #16
 1118              		.cfi_def_cfa_offset 0
 1119              		@ sp needed
 1120 006a 7047     		bx	lr
 1121              		.cfi_endproc
 1122              	.LFE131:
 1123              		.size	uart_lld_start_receive, .-uart_lld_start_receive
 1124 006c AFF30080 		.section	.text.uart_lld_stop_receive,"ax",%progbits
 1125              		.align	2
 1126              		.p2align 4,,15
 1127              		.global	uart_lld_stop_receive
 1128              		.thumb
 1129              		.thumb_func
 1130              		.type	uart_lld_stop_receive, %function
 1131              	uart_lld_stop_receive:
 1132              	.LFB132:
 1133              		.loc 1 583 0
 1134              		.cfi_startproc
 1135              		@ args = 0, pretend = 0, frame = 16
 1136              		@ frame_needed = 0, uses_anonymous_args = 0
 1137 0000 00B5     		push	{lr}
 1138              		.cfi_def_cfa_offset 4
 1139              		.cfi_offset 14, -4
 1140 0002 85B0     		sub	sp, sp, #20
 1141              		.cfi_def_cfa_offset 24
 1142 0004 0190     		str	r0, [sp, #4]
 1143              		.loc 1 586 0
 1144 0006 019B     		ldr	r3, [sp, #4]
 1145 0008 1B69     		ldr	r3, [r3, #16]
 1146 000a 1B68     		ldr	r3, [r3]
 1147 000c 019A     		ldr	r2, [sp, #4]
 1148 000e 1269     		ldr	r2, [r2, #16]
 1149 0010 1268     		ldr	r2, [r2]
 1150 0012 1268     		ldr	r2, [r2]
 1151 0014 22F00F02 		bic	r2, r2, #15
 1152 0018 1A60     		str	r2, [r3]
 1153 001a 019B     		ldr	r3, [sp, #4]
 1154 001c 1B69     		ldr	r3, [r3, #16]
 1155 001e 5B68     		ldr	r3, [r3, #4]
 1156 0020 019A     		ldr	r2, [sp, #4]
 1157 0022 1269     		ldr	r2, [r2, #16]
 1158 0024 127A     		ldrb	r2, [r2, #8]	@ zero_extendqisi2
 1159 0026 1146     		mov	r1, r2
 1160 0028 0F22     		movs	r2, #15
 1161 002a 8A40     		lsls	r2, r2, r1
 1162 002c 1A60     		str	r2, [r3]
 1163              		.loc 1 587 0
 1164 002e 019B     		ldr	r3, [sp, #4]
 1165 0030 1B69     		ldr	r3, [r3, #16]
 1166 0032 1B68     		ldr	r3, [r3]
 1167 0034 5B68     		ldr	r3, [r3, #4]
 1168 0036 0393     		str	r3, [sp, #12]
 1169              		.loc 1 588 0
 1170 0038 0198     		ldr	r0, [sp, #4]
 1171 003a FFF7FEFF 		bl	set_rx_idle_loop
ARM GAS  /tmp/ccc9u8vF.s 			page 22


 1172              		.loc 1 589 0
 1173 003e 039B     		ldr	r3, [sp, #12]
 1174              		.loc 1 590 0
 1175 0040 1846     		mov	r0, r3
 1176 0042 05B0     		add	sp, sp, #20
 1177              		.cfi_def_cfa_offset 4
 1178              		@ sp needed
 1179 0044 5DF804FB 		ldr	pc, [sp], #4
 1180              		.cfi_endproc
 1181              	.LFE132:
 1182              		.size	uart_lld_stop_receive, .-uart_lld_stop_receive
 1183 0048 AFF30080 		.text
 1183      AFF30080 
 1184              	.Letext0:
 1185              		.file 2 "/home/ergae/r2p-sdk/tools/gcc-arm-none-eabi-4_9-2014q4/lib/gcc/arm-none-eabi/4.9.3/includ
 1186              		.file 3 "/home/ergae/r2p-sdk/tools/gcc-arm-none-eabi-4_9-2014q4/arm-none-eabi/include/machine/_def
 1187              		.file 4 "/home/ergae/r2p-sdk/tools/gcc-arm-none-eabi-4_9-2014q4/arm-none-eabi/include/stdint.h"
 1188              		.file 5 "/home/ergae/r2p-sdk/core/ChibiOS/os/ports/GCC/ARMCMx/chtypes.h"
 1189              		.file 6 "/home/ergae/r2p-sdk/core/ChibiOS/os/hal/platforms/STM32F30x/stm32f30x.h"
 1190              		.file 7 "/home/ergae/r2p-sdk/core/ChibiOS/os/hal/platforms/STM32F30x/stm32_dma.h"
 1191              		.file 8 "/home/ergae/r2p-sdk/core/ChibiOS/os/hal/include/uart.h"
 1192              		.file 9 "/home/ergae/r2p-sdk/core/ChibiOS/os/hal/platforms/STM32/USARTv2/uart_lld.h"
 1193              		.file 10 "/home/ergae/r2p-sdk/core/ChibiOS/os/ports/common/ARMCMx/CMSIS/include/core_cm4.h"