ARM GAS  /tmp/ccc9u8vF.s 			page 1


   1              		.syntax unified
   2              		.cpu cortex-m4
   3              		.eabi_attribute 27, 3
   4              		.eabi_attribute 28, 1
   5              		.fpu fpv4-sp-d16
   6              		.eabi_attribute 20, 1
   7              		.eabi_attribute 21, 1
   8              		.eabi_attribute 23, 3
   9              		.eabi_attribute 24, 1
  10              		.eabi_attribute 25, 1
  11              		.eabi_attribute 26, 1
  12              		.eabi_attribute 30, 6
  13              		.eabi_attribute 34, 1
  14              		.eabi_attribute 18, 4
  15              		.thumb
  16              		.file	"uart_lld.c"
  17              		.text
  18              	.Ltext0:
  19              		.cfi_sections	.debug_frame
  20              		.global	UARTD3
  21              		.section	.bss.UARTD3,"aw",%nobits
  22              		.align	2
  23              		.type	UARTD3, %object
  24              		.size	UARTD3, 28
  25              	UARTD3:
  26 0000 00000000 		.space	28
  26      00000000 
  26      00000000 
  26      00000000 
  26      00000000 
  27              		.section	.text.translate_errors,"ax",%progbits
  28              		.align	2
  29              		.p2align 4,,15
  30              		.thumb
  31              		.thumb_func
  32              		.type	translate_errors, %function
  33              	translate_errors:
  34              	.LFB118:
  35              		.file 1 "/home/ergae/r2p-sdk/core/ChibiOS/os/hal/platforms/STM32/USARTv2/uart_lld.c"
  36              		.loc 1 92 0
  37              		.cfi_startproc
  38              		@ args = 0, pretend = 0, frame = 16
  39              		@ frame_needed = 0, uses_anonymous_args = 0
  40              		@ link register save eliminated.
  41 0000 84B0     		sub	sp, sp, #16
  42              		.cfi_def_cfa_offset 16
  43 0002 0190     		str	r0, [sp, #4]
  44              		.loc 1 93 0
  45 0004 0023     		movs	r3, #0
  46 0006 0393     		str	r3, [sp, #12]
  47              		.loc 1 95 0
  48 0008 019B     		ldr	r3, [sp, #4]
  49 000a 03F00803 		and	r3, r3, #8
  50 000e 002B     		cmp	r3, #0
  51 0010 03D0     		beq	.L2
  52              		.loc 1 96 0
  53 0012 039B     		ldr	r3, [sp, #12]
ARM GAS  /tmp/ccc9u8vF.s 			page 2


  54 0014 43F01003 		orr	r3, r3, #16
  55 0018 0393     		str	r3, [sp, #12]
  56              	.L2:
  57              		.loc 1 97 0
  58 001a 019B     		ldr	r3, [sp, #4]
  59 001c 03F00103 		and	r3, r3, #1
  60 0020 002B     		cmp	r3, #0
  61 0022 03D0     		beq	.L3
  62              		.loc 1 98 0
  63 0024 039B     		ldr	r3, [sp, #12]
  64 0026 43F00403 		orr	r3, r3, #4
  65 002a 0393     		str	r3, [sp, #12]
  66              	.L3:
  67              		.loc 1 99 0
  68 002c 019B     		ldr	r3, [sp, #4]
  69 002e 03F00203 		and	r3, r3, #2
  70 0032 002B     		cmp	r3, #0
  71 0034 03D0     		beq	.L4
  72              		.loc 1 100 0
  73 0036 039B     		ldr	r3, [sp, #12]
  74 0038 43F00803 		orr	r3, r3, #8
  75 003c 0393     		str	r3, [sp, #12]
  76              	.L4:
  77              		.loc 1 101 0
  78 003e 019B     		ldr	r3, [sp, #4]
  79 0040 03F00403 		and	r3, r3, #4
  80 0044 002B     		cmp	r3, #0
  81 0046 03D0     		beq	.L5
  82              		.loc 1 102 0
  83 0048 039B     		ldr	r3, [sp, #12]
  84 004a 43F02003 		orr	r3, r3, #32
  85 004e 0393     		str	r3, [sp, #12]
  86              	.L5:
  87              		.loc 1 103 0
  88 0050 019B     		ldr	r3, [sp, #4]
  89 0052 03F48073 		and	r3, r3, #256
  90 0056 002B     		cmp	r3, #0
  91 0058 03D0     		beq	.L6
  92              		.loc 1 104 0
  93 005a 039B     		ldr	r3, [sp, #12]
  94 005c 43F04003 		orr	r3, r3, #64
  95 0060 0393     		str	r3, [sp, #12]
  96              	.L6:
  97              		.loc 1 105 0
  98 0062 039B     		ldr	r3, [sp, #12]
  99              		.loc 1 106 0
 100 0064 1846     		mov	r0, r3
 101 0066 04B0     		add	sp, sp, #16
 102              		.cfi_def_cfa_offset 0
 103              		@ sp needed
 104 0068 7047     		bx	lr
 105              		.cfi_endproc
 106              	.LFE118:
 107              		.size	translate_errors, .-translate_errors
 108 006a 00BFAFF3 		.section	.text.set_rx_idle_loop,"ax",%progbits
 108      0080
 109              		.align	2
ARM GAS  /tmp/ccc9u8vF.s 			page 3


 110              		.p2align 4,,15
 111              		.thumb
 112              		.thumb_func
 113              		.type	set_rx_idle_loop, %function
 114              	set_rx_idle_loop:
 115              	.LFB119:
 116              		.loc 1 113 0
 117              		.cfi_startproc
 118              		@ args = 0, pretend = 0, frame = 16
 119              		@ frame_needed = 0, uses_anonymous_args = 0
 120              		@ link register save eliminated.
 121 0000 84B0     		sub	sp, sp, #16
 122              		.cfi_def_cfa_offset 16
 123 0002 0190     		str	r0, [sp, #4]
 124              		.loc 1 118 0
 125 0004 019B     		ldr	r3, [sp, #4]
 126 0006 5B68     		ldr	r3, [r3, #4]
 127 0008 DB68     		ldr	r3, [r3, #12]
 128 000a 002B     		cmp	r3, #0
 129 000c 02D1     		bne	.L9
 130              		.loc 1 119 0
 131 000e 2023     		movs	r3, #32
 132 0010 0393     		str	r3, [sp, #12]
 133 0012 01E0     		b	.L10
 134              	.L9:
 135              		.loc 1 121 0
 136 0014 2223     		movs	r3, #34
 137 0016 0393     		str	r3, [sp, #12]
 138              	.L10:
 139              		.loc 1 122 0
 140 0018 019B     		ldr	r3, [sp, #4]
 141 001a 1B69     		ldr	r3, [r3, #16]
 142 001c 1B68     		ldr	r3, [r3]
 143 001e 019A     		ldr	r2, [sp, #4]
 144 0020 1832     		adds	r2, r2, #24
 145 0022 DA60     		str	r2, [r3, #12]
 146              		.loc 1 123 0
 147 0024 019B     		ldr	r3, [sp, #4]
 148 0026 1B69     		ldr	r3, [r3, #16]
 149 0028 1B68     		ldr	r3, [r3]
 150 002a 0122     		movs	r2, #1
 151 002c 5A60     		str	r2, [r3, #4]
 152              		.loc 1 124 0
 153 002e 019B     		ldr	r3, [sp, #4]
 154 0030 1B69     		ldr	r3, [r3, #16]
 155 0032 1B68     		ldr	r3, [r3]
 156 0034 019A     		ldr	r2, [sp, #4]
 157 0036 D168     		ldr	r1, [r2, #12]
 158 0038 039A     		ldr	r2, [sp, #12]
 159 003a 0A43     		orrs	r2, r2, r1
 160 003c 1A60     		str	r2, [r3]
 161              		.loc 1 125 0
 162 003e 019B     		ldr	r3, [sp, #4]
 163 0040 1B69     		ldr	r3, [r3, #16]
 164 0042 1B68     		ldr	r3, [r3]
 165 0044 019A     		ldr	r2, [sp, #4]
 166 0046 1269     		ldr	r2, [r2, #16]
ARM GAS  /tmp/ccc9u8vF.s 			page 4


 167 0048 1268     		ldr	r2, [r2]
 168 004a 1268     		ldr	r2, [r2]
 169 004c 42F00102 		orr	r2, r2, #1
 170 0050 1A60     		str	r2, [r3]
 171              		.loc 1 126 0
 172 0052 04B0     		add	sp, sp, #16
 173              		.cfi_def_cfa_offset 0
 174              		@ sp needed
 175 0054 7047     		bx	lr
 176              		.cfi_endproc
 177              	.LFE119:
 178              		.size	set_rx_idle_loop, .-set_rx_idle_loop
 179 0056 00BFAFF3 		.section	.text.usart_stop,"ax",%progbits
 179      0080AFF3 
 179      0080
 180              		.align	2
 181              		.p2align 4,,15
 182              		.thumb
 183              		.thumb_func
 184              		.type	usart_stop, %function
 185              	usart_stop:
 186              	.LFB120:
 187              		.loc 1 134 0
 188              		.cfi_startproc
 189              		@ args = 0, pretend = 0, frame = 8
 190              		@ frame_needed = 0, uses_anonymous_args = 0
 191              		@ link register save eliminated.
 192 0000 82B0     		sub	sp, sp, #8
 193              		.cfi_def_cfa_offset 8
 194 0002 0190     		str	r0, [sp, #4]
 195              		.loc 1 137 0
 196 0004 019B     		ldr	r3, [sp, #4]
 197 0006 1B69     		ldr	r3, [r3, #16]
 198 0008 1B68     		ldr	r3, [r3]
 199 000a 019A     		ldr	r2, [sp, #4]
 200 000c 1269     		ldr	r2, [r2, #16]
 201 000e 1268     		ldr	r2, [r2]
 202 0010 1268     		ldr	r2, [r2]
 203 0012 22F00F02 		bic	r2, r2, #15
 204 0016 1A60     		str	r2, [r3]
 205 0018 019B     		ldr	r3, [sp, #4]
 206 001a 1B69     		ldr	r3, [r3, #16]
 207 001c 5B68     		ldr	r3, [r3, #4]
 208 001e 019A     		ldr	r2, [sp, #4]
 209 0020 1269     		ldr	r2, [r2, #16]
 210 0022 127A     		ldrb	r2, [r2, #8]	@ zero_extendqisi2
 211 0024 1146     		mov	r1, r2
 212 0026 0F22     		movs	r2, #15
 213 0028 8A40     		lsls	r2, r2, r1
 214 002a 1A60     		str	r2, [r3]
 215              		.loc 1 138 0
 216 002c 019B     		ldr	r3, [sp, #4]
 217 002e 5B69     		ldr	r3, [r3, #20]
 218 0030 1B68     		ldr	r3, [r3]
 219 0032 019A     		ldr	r2, [sp, #4]
 220 0034 5269     		ldr	r2, [r2, #20]
 221 0036 1268     		ldr	r2, [r2]
ARM GAS  /tmp/ccc9u8vF.s 			page 5


 222 0038 1268     		ldr	r2, [r2]
 223 003a 22F00F02 		bic	r2, r2, #15
 224 003e 1A60     		str	r2, [r3]
 225 0040 019B     		ldr	r3, [sp, #4]
 226 0042 5B69     		ldr	r3, [r3, #20]
 227 0044 5B68     		ldr	r3, [r3, #4]
 228 0046 019A     		ldr	r2, [sp, #4]
 229 0048 5269     		ldr	r2, [r2, #20]
 230 004a 127A     		ldrb	r2, [r2, #8]	@ zero_extendqisi2
 231 004c 1146     		mov	r1, r2
 232 004e 0F22     		movs	r2, #15
 233 0050 8A40     		lsls	r2, r2, r1
 234 0052 1A60     		str	r2, [r3]
 235              		.loc 1 141 0
 236 0054 019B     		ldr	r3, [sp, #4]
 237 0056 9B68     		ldr	r3, [r3, #8]
 238 0058 0022     		movs	r2, #0
 239 005a 1A60     		str	r2, [r3]
 240              		.loc 1 142 0
 241 005c 019B     		ldr	r3, [sp, #4]
 242 005e 9B68     		ldr	r3, [r3, #8]
 243 0060 0022     		movs	r2, #0
 244 0062 5A60     		str	r2, [r3, #4]
 245              		.loc 1 143 0
 246 0064 019B     		ldr	r3, [sp, #4]
 247 0066 9B68     		ldr	r3, [r3, #8]
 248 0068 0022     		movs	r2, #0
 249 006a 9A60     		str	r2, [r3, #8]
 250              		.loc 1 144 0
 251 006c 02B0     		add	sp, sp, #8
 252              		.cfi_def_cfa_offset 0
 253              		@ sp needed
 254 006e 7047     		bx	lr
 255              		.cfi_endproc
 256              	.LFE120:
 257              		.size	usart_stop, .-usart_stop
 258              		.section	.text.usart_start,"ax",%progbits
 259              		.align	2
 260              		.p2align 4,,15
 261              		.thumb
 262              		.thumb_func
 263              		.type	usart_start, %function
 264              	usart_start:
 265              	.LFB121:
 266              		.loc 1 152 0
 267              		.cfi_startproc
 268              		@ args = 0, pretend = 0, frame = 16
 269              		@ frame_needed = 0, uses_anonymous_args = 0
 270 0000 00B5     		push	{lr}
 271              		.cfi_def_cfa_offset 4
 272              		.cfi_offset 14, -4
 273 0002 85B0     		sub	sp, sp, #20
 274              		.cfi_def_cfa_offset 24
 275 0004 0190     		str	r0, [sp, #4]
 276              		.loc 1 154 0
 277 0006 019B     		ldr	r3, [sp, #4]
 278 0008 9B68     		ldr	r3, [r3, #8]
ARM GAS  /tmp/ccc9u8vF.s 			page 6


 279 000a 0293     		str	r3, [sp, #8]
 280              		.loc 1 157 0
 281 000c 0198     		ldr	r0, [sp, #4]
 282 000e FFF7FEFF 		bl	usart_stop
 283              		.loc 1 166 0
 284 0012 019B     		ldr	r3, [sp, #4]
 285 0014 9B68     		ldr	r3, [r3, #8]
 286 0016 204A     		ldr	r2, .L17
 287 0018 9342     		cmp	r3, r2
 288 001a 09D1     		bne	.L13
 289              		.loc 1 167 0
 290 001c 019B     		ldr	r3, [sp, #4]
 291 001e 5B68     		ldr	r3, [r3, #4]
 292 0020 5B69     		ldr	r3, [r3, #20]
 293 0022 1E4A     		ldr	r2, .L17+4
 294 0024 B2FBF3F3 		udiv	r3, r2, r3
 295 0028 9AB2     		uxth	r2, r3
 296 002a 029B     		ldr	r3, [sp, #8]
 297 002c 9A81     		strh	r2, [r3, #12]	@ movhi
 298 002e 08E0     		b	.L14
 299              	.L13:
 300              		.loc 1 169 0
 301 0030 019B     		ldr	r3, [sp, #4]
 302 0032 5B68     		ldr	r3, [r3, #4]
 303 0034 5B69     		ldr	r3, [r3, #20]
 304 0036 194A     		ldr	r2, .L17+4
 305 0038 B2FBF3F3 		udiv	r3, r2, r3
 306 003c 9AB2     		uxth	r2, r3
 307 003e 029B     		ldr	r3, [sp, #8]
 308 0040 9A81     		strh	r2, [r3, #12]	@ movhi
 309              	.L14:
 310              		.loc 1 173 0
 311 0042 029B     		ldr	r3, [sp, #8]
 312 0044 4FF0FF32 		mov	r2, #-1
 313 0048 1A62     		str	r2, [r3, #32]
 314              		.loc 1 177 0
 315 004a 019B     		ldr	r3, [sp, #4]
 316 004c 5B68     		ldr	r3, [r3, #4]
 317 004e DB69     		ldr	r3, [r3, #28]
 318 0050 43F04002 		orr	r2, r3, #64
 319 0054 029B     		ldr	r3, [sp, #8]
 320 0056 5A60     		str	r2, [r3, #4]
 321              		.loc 1 178 0
 322 0058 019B     		ldr	r3, [sp, #4]
 323 005a 5B68     		ldr	r3, [r3, #4]
 324 005c 1B6A     		ldr	r3, [r3, #32]
 325 005e 43F0C102 		orr	r2, r3, #193
 326 0062 029B     		ldr	r3, [sp, #8]
 327 0064 9A60     		str	r2, [r3, #8]
 328              		.loc 1 180 0
 329 0066 019B     		ldr	r3, [sp, #4]
 330 0068 5B68     		ldr	r3, [r3, #4]
 331 006a 5B68     		ldr	r3, [r3, #4]
 332 006c 002B     		cmp	r3, #0
 333 006e 03D1     		bne	.L15
 334              		.loc 1 181 0
 335 0070 40F20D13 		movw	r3, #269
ARM GAS  /tmp/ccc9u8vF.s 			page 7


 336 0074 0393     		str	r3, [sp, #12]
 337 0076 02E0     		b	.L16
 338              	.L15:
 339              		.loc 1 183 0
 340 0078 40F24D13 		movw	r3, #333
 341 007c 0393     		str	r3, [sp, #12]
 342              	.L16:
 343              		.loc 1 185 0
 344 007e 019B     		ldr	r3, [sp, #4]
 345 0080 5B68     		ldr	r3, [r3, #4]
 346 0082 9A69     		ldr	r2, [r3, #24]
 347 0084 039B     		ldr	r3, [sp, #12]
 348 0086 1A43     		orrs	r2, r2, r3
 349 0088 029B     		ldr	r3, [sp, #8]
 350 008a 1A60     		str	r2, [r3]
 351              		.loc 1 188 0
 352 008c 0198     		ldr	r0, [sp, #4]
 353 008e FFF7FEFF 		bl	set_rx_idle_loop
 354              		.loc 1 189 0
 355 0092 05B0     		add	sp, sp, #20
 356              		.cfi_def_cfa_offset 4
 357              		@ sp needed
 358 0094 5DF804FB 		ldr	pc, [sp], #4
 359              	.L18:
 360              		.align	2
 361              	.L17:
 362 0098 00380140 		.word	1073821696
 363 009c 00512502 		.word	36000000
 364              		.cfi_endproc
 365              	.LFE121:
 366              		.size	usart_start, .-usart_start
 367              		.section	.text.uart_lld_serve_rx_end_irq,"ax",%progbits
 368              		.align	2
 369              		.p2align 4,,15
 370              		.thumb
 371              		.thumb_func
 372              		.type	uart_lld_serve_rx_end_irq, %function
 373              	uart_lld_serve_rx_end_irq:
 374              	.LFB122:
 375              		.loc 1 197 0
 376              		.cfi_startproc
 377              		@ args = 0, pretend = 0, frame = 8
 378              		@ frame_needed = 0, uses_anonymous_args = 0
 379 0000 00B5     		push	{lr}
 380              		.cfi_def_cfa_offset 4
 381              		.cfi_offset 14, -4
 382 0002 83B0     		sub	sp, sp, #12
 383              		.cfi_def_cfa_offset 16
 384 0004 0190     		str	r0, [sp, #4]
 385 0006 0091     		str	r1, [sp]
 386              		.loc 1 201 0
 387 0008 009B     		ldr	r3, [sp]
 388 000a 03F00803 		and	r3, r3, #8
 389 000e 002B     		cmp	r3, #0
 390 0010 01D0     		beq	.L20
 391              		.loc 1 202 0
 392 0012 FFF7FEFF 		bl	port_halt
ARM GAS  /tmp/ccc9u8vF.s 			page 8


 393              	.L20:
 394              		.loc 1 208 0
 395 0016 019B     		ldr	r3, [sp, #4]
 396 0018 9B78     		ldrb	r3, [r3, #2]	@ zero_extendqisi2
 397 001a 002B     		cmp	r3, #0
 398 001c 0ED1     		bne	.L21
 399              		.loc 1 211 0
 400 001e 019B     		ldr	r3, [sp, #4]
 401 0020 5B68     		ldr	r3, [r3, #4]
 402 0022 DB68     		ldr	r3, [r3, #12]
 403 0024 002B     		cmp	r3, #0
 404 0026 34D0     		beq	.L19
 405              		.loc 1 212 0
 406 0028 019B     		ldr	r3, [sp, #4]
 407 002a 5B68     		ldr	r3, [r3, #4]
 408 002c DB68     		ldr	r3, [r3, #12]
 409 002e 019A     		ldr	r2, [sp, #4]
 410 0030 128B     		ldrh	r2, [r2, #24]	@ movhi
 411 0032 92B2     		uxth	r2, r2
 412 0034 0198     		ldr	r0, [sp, #4]
 413 0036 1146     		mov	r1, r2
 414 0038 9847     		blx	r3
 415 003a 2AE0     		b	.L19
 416              	.L21:
 417              		.loc 1 217 0
 418 003c 019B     		ldr	r3, [sp, #4]
 419 003e 1B69     		ldr	r3, [r3, #16]
 420 0040 1B68     		ldr	r3, [r3]
 421 0042 019A     		ldr	r2, [sp, #4]
 422 0044 1269     		ldr	r2, [r2, #16]
 423 0046 1268     		ldr	r2, [r2]
 424 0048 1268     		ldr	r2, [r2]
 425 004a 22F00F02 		bic	r2, r2, #15
 426 004e 1A60     		str	r2, [r3]
 427 0050 019B     		ldr	r3, [sp, #4]
 428 0052 1B69     		ldr	r3, [r3, #16]
 429 0054 5B68     		ldr	r3, [r3, #4]
 430 0056 019A     		ldr	r2, [sp, #4]
 431 0058 1269     		ldr	r2, [r2, #16]
 432 005a 127A     		ldrb	r2, [r2, #8]	@ zero_extendqisi2
 433 005c 1146     		mov	r1, r2
 434 005e 0F22     		movs	r2, #15
 435 0060 8A40     		lsls	r2, r2, r1
 436 0062 1A60     		str	r2, [r3]
 437              		.loc 1 218 0
 438 0064 019B     		ldr	r3, [sp, #4]
 439 0066 0222     		movs	r2, #2
 440 0068 9A70     		strb	r2, [r3, #2]
 441              		.loc 1 219 0
 442 006a 019B     		ldr	r3, [sp, #4]
 443 006c 5B68     		ldr	r3, [r3, #4]
 444 006e 9B68     		ldr	r3, [r3, #8]
 445 0070 002B     		cmp	r3, #0
 446 0072 04D0     		beq	.L24
 447              		.loc 1 220 0
 448 0074 019B     		ldr	r3, [sp, #4]
 449 0076 5B68     		ldr	r3, [r3, #4]
ARM GAS  /tmp/ccc9u8vF.s 			page 9


 450 0078 9B68     		ldr	r3, [r3, #8]
 451 007a 0198     		ldr	r0, [sp, #4]
 452 007c 9847     		blx	r3
 453              	.L24:
 454              		.loc 1 224 0
 455 007e 019B     		ldr	r3, [sp, #4]
 456 0080 9B78     		ldrb	r3, [r3, #2]	@ zero_extendqisi2
 457 0082 022B     		cmp	r3, #2
 458 0084 05D1     		bne	.L19
 459              		.loc 1 225 0
 460 0086 019B     		ldr	r3, [sp, #4]
 461 0088 0022     		movs	r2, #0
 462 008a 9A70     		strb	r2, [r3, #2]
 463              		.loc 1 226 0
 464 008c 0198     		ldr	r0, [sp, #4]
 465 008e FFF7FEFF 		bl	set_rx_idle_loop
 466              	.L19:
 467              		.loc 1 229 0
 468 0092 03B0     		add	sp, sp, #12
 469              		.cfi_def_cfa_offset 4
 470              		@ sp needed
 471 0094 5DF804FB 		ldr	pc, [sp], #4
 472              		.cfi_endproc
 473              	.LFE122:
 474              		.size	uart_lld_serve_rx_end_irq, .-uart_lld_serve_rx_end_irq
 475 0098 AFF30080 		.section	.text.uart_lld_serve_tx_end_irq,"ax",%progbits
 475      AFF30080 
 476              		.align	2
 477              		.p2align 4,,15
 478              		.thumb
 479              		.thumb_func
 480              		.type	uart_lld_serve_tx_end_irq, %function
 481              	uart_lld_serve_tx_end_irq:
 482              	.LFB123:
 483              		.loc 1 237 0
 484              		.cfi_startproc
 485              		@ args = 0, pretend = 0, frame = 8
 486              		@ frame_needed = 0, uses_anonymous_args = 0
 487 0000 00B5     		push	{lr}
 488              		.cfi_def_cfa_offset 4
 489              		.cfi_offset 14, -4
 490 0002 83B0     		sub	sp, sp, #12
 491              		.cfi_def_cfa_offset 16
 492 0004 0190     		str	r0, [sp, #4]
 493 0006 0091     		str	r1, [sp]
 494              		.loc 1 241 0
 495 0008 009B     		ldr	r3, [sp]
 496 000a 03F00803 		and	r3, r3, #8
 497 000e 002B     		cmp	r3, #0
 498 0010 01D0     		beq	.L26
 499              		.loc 1 242 0
 500 0012 FFF7FEFF 		bl	port_halt
 501              	.L26:
 502              		.loc 1 248 0
 503 0016 019B     		ldr	r3, [sp, #4]
 504 0018 5B69     		ldr	r3, [r3, #20]
 505 001a 1B68     		ldr	r3, [r3]
ARM GAS  /tmp/ccc9u8vF.s 			page 10


 506 001c 019A     		ldr	r2, [sp, #4]
 507 001e 5269     		ldr	r2, [r2, #20]
 508 0020 1268     		ldr	r2, [r2]
 509 0022 1268     		ldr	r2, [r2]
 510 0024 22F00F02 		bic	r2, r2, #15
 511 0028 1A60     		str	r2, [r3]
 512 002a 019B     		ldr	r3, [sp, #4]
 513 002c 5B69     		ldr	r3, [r3, #20]
 514 002e 5B68     		ldr	r3, [r3, #4]
 515 0030 019A     		ldr	r2, [sp, #4]
 516 0032 5269     		ldr	r2, [r2, #20]
 517 0034 127A     		ldrb	r2, [r2, #8]	@ zero_extendqisi2
 518 0036 1146     		mov	r1, r2
 519 0038 0F22     		movs	r2, #15
 520 003a 8A40     		lsls	r2, r2, r1
 521 003c 1A60     		str	r2, [r3]
 522              		.loc 1 251 0
 523 003e 019B     		ldr	r3, [sp, #4]
 524 0040 0222     		movs	r2, #2
 525 0042 5A70     		strb	r2, [r3, #1]
 526              		.loc 1 252 0
 527 0044 019B     		ldr	r3, [sp, #4]
 528 0046 5B68     		ldr	r3, [r3, #4]
 529 0048 1B68     		ldr	r3, [r3]
 530 004a 002B     		cmp	r3, #0
 531 004c 04D0     		beq	.L27
 532              		.loc 1 253 0
 533 004e 019B     		ldr	r3, [sp, #4]
 534 0050 5B68     		ldr	r3, [r3, #4]
 535 0052 1B68     		ldr	r3, [r3]
 536 0054 0198     		ldr	r0, [sp, #4]
 537 0056 9847     		blx	r3
 538              	.L27:
 539              		.loc 1 257 0
 540 0058 019B     		ldr	r3, [sp, #4]
 541 005a 5B78     		ldrb	r3, [r3, #1]	@ zero_extendqisi2
 542 005c 022B     		cmp	r3, #2
 543 005e 02D1     		bne	.L25
 544              		.loc 1 258 0
 545 0060 019B     		ldr	r3, [sp, #4]
 546 0062 0022     		movs	r2, #0
 547 0064 5A70     		strb	r2, [r3, #1]
 548              	.L25:
 549              		.loc 1 259 0
 550 0066 03B0     		add	sp, sp, #12
 551              		.cfi_def_cfa_offset 4
 552              		@ sp needed
 553 0068 5DF804FB 		ldr	pc, [sp], #4
 554              		.cfi_endproc
 555              	.LFE123:
 556              		.size	uart_lld_serve_tx_end_irq, .-uart_lld_serve_tx_end_irq
 557 006c AFF30080 		.section	.text.serve_usart_irq,"ax",%progbits
 558              		.align	2
 559              		.p2align 4,,15
 560              		.thumb
 561              		.thumb_func
 562              		.type	serve_usart_irq, %function
ARM GAS  /tmp/ccc9u8vF.s 			page 11


 563              	serve_usart_irq:
 564              	.LFB124:
 565              		.loc 1 266 0
 566              		.cfi_startproc
 567              		@ args = 0, pretend = 0, frame = 16
 568              		@ frame_needed = 0, uses_anonymous_args = 0
 569 0000 10B5     		push	{r4, lr}
 570              		.cfi_def_cfa_offset 8
 571              		.cfi_offset 4, -8
 572              		.cfi_offset 14, -4
 573 0002 84B0     		sub	sp, sp, #16
 574              		.cfi_def_cfa_offset 24
 575 0004 0190     		str	r0, [sp, #4]
 576              		.loc 1 268 0
 577 0006 019B     		ldr	r3, [sp, #4]
 578 0008 9B68     		ldr	r3, [r3, #8]
 579 000a 0393     		str	r3, [sp, #12]
 580              		.loc 1 271 0
 581 000c 039B     		ldr	r3, [sp, #12]
 582 000e DB69     		ldr	r3, [r3, #28]
 583 0010 0293     		str	r3, [sp, #8]
 584              		.loc 1 272 0
 585 0012 039B     		ldr	r3, [sp, #12]
 586 0014 029A     		ldr	r2, [sp, #8]
 587 0016 1A62     		str	r2, [r3, #32]
 588              		.loc 1 274 0
 589 0018 029A     		ldr	r2, [sp, #8]
 590 001a 40F20F13 		movw	r3, #271
 591 001e 1340     		ands	r3, r3, r2
 592 0020 002B     		cmp	r3, #0
 593 0022 0ED0     		beq	.L30
 594              		.loc 1 276 0
 595 0024 019B     		ldr	r3, [sp, #4]
 596 0026 5B68     		ldr	r3, [r3, #4]
 597 0028 1B69     		ldr	r3, [r3, #16]
 598 002a 002B     		cmp	r3, #0
 599 002c 09D0     		beq	.L30
 600              		.loc 1 277 0
 601 002e 019B     		ldr	r3, [sp, #4]
 602 0030 5B68     		ldr	r3, [r3, #4]
 603 0032 1C69     		ldr	r4, [r3, #16]
 604 0034 0298     		ldr	r0, [sp, #8]
 605 0036 FFF7FEFF 		bl	translate_errors
 606 003a 0346     		mov	r3, r0
 607 003c 0198     		ldr	r0, [sp, #4]
 608 003e 1946     		mov	r1, r3
 609 0040 A047     		blx	r4
 610              	.L30:
 611              		.loc 1 279 0
 612 0042 029B     		ldr	r3, [sp, #8]
 613 0044 03F04003 		and	r3, r3, #64
 614 0048 002B     		cmp	r3, #0
 615 004a 09D0     		beq	.L29
 616              		.loc 1 281 0
 617 004c 019B     		ldr	r3, [sp, #4]
 618 004e 5B68     		ldr	r3, [r3, #4]
 619 0050 5B68     		ldr	r3, [r3, #4]
ARM GAS  /tmp/ccc9u8vF.s 			page 12


 620 0052 002B     		cmp	r3, #0
 621 0054 04D0     		beq	.L29
 622              		.loc 1 282 0
 623 0056 019B     		ldr	r3, [sp, #4]
 624 0058 5B68     		ldr	r3, [r3, #4]
 625 005a 5B68     		ldr	r3, [r3, #4]
 626 005c 0198     		ldr	r0, [sp, #4]
 627 005e 9847     		blx	r3
 628              	.L29:
 629              		.loc 1 284 0
 630 0060 04B0     		add	sp, sp, #16
 631              		.cfi_def_cfa_offset 8
 632              		@ sp needed
 633 0062 10BD     		pop	{r4, pc}
 634              		.cfi_endproc
 635              	.LFE124:
 636              		.size	serve_usart_irq, .-serve_usart_irq
 637 0064 AFF30080 		.section	.text.VectorDC,"ax",%progbits
 637      AFF30080 
 637      AFF30080 
 638              		.align	2
 639              		.p2align 4,,15
 640              		.global	VectorDC
 641              		.thumb
 642              		.thumb_func
 643              		.type	VectorDC, %function
 644              	VectorDC:
 645              	.LFB125:
 646              		.loc 1 337 0
 647              		.cfi_startproc
 648              		@ args = 0, pretend = 0, frame = 0
 649              		@ frame_needed = 0, uses_anonymous_args = 0
 650 0000 08B5     		push	{r3, lr}
 651              		.cfi_def_cfa_offset 8
 652              		.cfi_offset 3, -8
 653              		.cfi_offset 14, -4
 654              		.loc 1 339 0
 655 0002 FFF7FEFF 		bl	dbg_check_enter_isr
 656              		.loc 1 341 0
 657 0006 0448     		ldr	r0, .L33
 658 0008 FFF7FEFF 		bl	serve_usart_irq
 659              		.loc 1 343 0
 660 000c FFF7FEFF 		bl	dbg_check_leave_isr
 661 0010 FFF7FEFF 		bl	_port_irq_epilogue
 662              		.loc 1 344 0
 663 0014 08BD     		pop	{r3, pc}
 664              	.L34:
 665 0016 00BF     		.align	2
 666              	.L33:
 667 0018 00000000 		.word	UARTD3
 668              		.cfi_endproc
 669              	.LFE125:
 670              		.size	VectorDC, .-VectorDC
 671 001c AFF30080 		.section	.text.uart_lld_init,"ax",%progbits
 672              		.align	2
 673              		.p2align 4,,15
 674              		.global	uart_lld_init
ARM GAS  /tmp/ccc9u8vF.s 			page 13


 675              		.thumb
 676              		.thumb_func
 677              		.type	uart_lld_init, %function
 678              	uart_lld_init:
 679              	.LFB126:
 680              		.loc 1 356 0
 681              		.cfi_startproc
 682              		@ args = 0, pretend = 0, frame = 0
 683              		@ frame_needed = 0, uses_anonymous_args = 0
 684 0000 08B5     		push	{r3, lr}
 685              		.cfi_def_cfa_offset 8
 686              		.cfi_offset 3, -8
 687              		.cfi_offset 14, -4
 688              		.loc 1 375 0
 689 0002 0848     		ldr	r0, .L36
 690 0004 FFF7FEFF 		bl	uartObjectInit
 691              		.loc 1 376 0
 692 0008 064B     		ldr	r3, .L36
 693 000a 074A     		ldr	r2, .L36+4
 694 000c 9A60     		str	r2, [r3, #8]
 695              		.loc 1 377 0
 696 000e 054B     		ldr	r3, .L36
 697 0010 0822     		movs	r2, #8
 698 0012 DA60     		str	r2, [r3, #12]
 699              		.loc 1 378 0
 700 0014 034B     		ldr	r3, .L36
 701 0016 054A     		ldr	r2, .L36+8
 702 0018 1A61     		str	r2, [r3, #16]
 703              		.loc 1 379 0
 704 001a 024B     		ldr	r3, .L36
 705 001c 044A     		ldr	r2, .L36+12
 706 001e 5A61     		str	r2, [r3, #20]
 707              		.loc 1 381 0
 708 0020 08BD     		pop	{r3, pc}
 709              	.L37:
 710 0022 00BF     		.align	2
 711              	.L36:
 712 0024 00000000 		.word	UARTD3
 713 0028 00480040 		.word	1073760256
 714 002c 18000000 		.word	_stm32_dma_streams+24
 715 0030 0C000000 		.word	_stm32_dma_streams+12
 716              		.cfi_endproc
 717              	.LFE126:
 718              		.size	uart_lld_init, .-uart_lld_init
 719 0034 AFF30080 		.section	.rodata
 719      AFF30080 
 719      AFF30080 
 720              		.align	2
 721              	.LC0:
 722 0000 75617274 		.ascii	"uart_lld_start(), #5\000"
 722      5F6C6C64 
 722      5F737461 
 722      72742829 
 722      2C202335 
 723 0015 000000   		.align	2
 724              	.LC1:
 725 0018 75617274 		.ascii	"uart_lld_start(), #6\000"
ARM GAS  /tmp/ccc9u8vF.s 			page 14


 725      5F6C6C64 
 725      5F737461 
 725      72742829 
 725      2C202336 
 726 002d 000000   		.section	.text.uart_lld_start,"ax",%progbits
 727              		.align	2
 728              		.p2align 4,,15
 729              		.global	uart_lld_start
 730              		.thumb
 731              		.thumb_func
 732              		.type	uart_lld_start, %function
 733              	uart_lld_start:
 734              	.LFB127:
 735              		.loc 1 390 0
 736              		.cfi_startproc
 737              		@ args = 0, pretend = 0, frame = 16
 738              		@ frame_needed = 0, uses_anonymous_args = 0
 739 0000 00B5     		push	{lr}
 740              		.cfi_def_cfa_offset 4
 741              		.cfi_offset 14, -4
 742 0002 85B0     		sub	sp, sp, #20
 743              		.cfi_def_cfa_offset 24
 744 0004 0190     		str	r0, [sp, #4]
 745              		.loc 1 392 0
 746 0006 019B     		ldr	r3, [sp, #4]
 747 0008 1B78     		ldrb	r3, [r3]	@ zero_extendqisi2
 748 000a 012B     		cmp	r3, #1
 749 000c 54D1     		bne	.L39
 750              		.loc 1 436 0
 751 000e 019B     		ldr	r3, [sp, #4]
 752 0010 2F4A     		ldr	r2, .L44
 753 0012 9342     		cmp	r3, r2
 754 0014 31D1     		bne	.L40
 755              	.LBB2:
 756              		.loc 1 438 0
 757 0016 019B     		ldr	r3, [sp, #4]
 758 0018 1B69     		ldr	r3, [r3, #16]
 759 001a 1846     		mov	r0, r3
 760 001c 0C21     		movs	r1, #12
 761 001e 2D4A     		ldr	r2, .L44+4
 762 0020 019B     		ldr	r3, [sp, #4]
 763 0022 FFF7FEFF 		bl	dmaStreamAllocate
 764 0026 0346     		mov	r3, r0
 765 0028 8DF80F30 		strb	r3, [sp, #15]
 766              		.loc 1 442 0
 767 002c 9DF80F30 		ldrb	r3, [sp, #15]	@ zero_extendqisi2
 768 0030 002B     		cmp	r3, #0
 769 0032 02D0     		beq	.L41
 770              		.loc 1 442 0 is_stmt 0 discriminator 1
 771 0034 2848     		ldr	r0, .L44+8
 772 0036 FFF7FEFF 		bl	chDbgPanic
 773              	.L41:
 774              		.loc 1 443 0 is_stmt 1
 775 003a 019B     		ldr	r3, [sp, #4]
 776 003c 5B69     		ldr	r3, [r3, #20]
 777 003e 1846     		mov	r0, r3
 778 0040 0C21     		movs	r1, #12
ARM GAS  /tmp/ccc9u8vF.s 			page 15


 779 0042 264A     		ldr	r2, .L44+12
 780 0044 019B     		ldr	r3, [sp, #4]
 781 0046 FFF7FEFF 		bl	dmaStreamAllocate
 782 004a 0346     		mov	r3, r0
 783 004c 8DF80F30 		strb	r3, [sp, #15]
 784              		.loc 1 447 0
 785 0050 9DF80F30 		ldrb	r3, [sp, #15]	@ zero_extendqisi2
 786 0054 002B     		cmp	r3, #0
 787 0056 02D0     		beq	.L42
 788              		.loc 1 447 0 is_stmt 0 discriminator 1
 789 0058 2148     		ldr	r0, .L44+16
 790 005a FFF7FEFF 		bl	chDbgPanic
 791              	.L42:
 792              		.loc 1 448 0 is_stmt 1
 793 005e 214A     		ldr	r2, .L44+20
 794 0060 204B     		ldr	r3, .L44+20
 795 0062 DB69     		ldr	r3, [r3, #28]
 796 0064 43F48023 		orr	r3, r3, #262144
 797 0068 D361     		str	r3, [r2, #28]
 798              		.loc 1 449 0
 799 006a 2720     		movs	r0, #39
 800 006c C021     		movs	r1, #192
 801 006e FFF7FEFF 		bl	nvicEnableVector
 802              		.loc 1 451 0
 803 0072 019B     		ldr	r3, [sp, #4]
 804 0074 DA68     		ldr	r2, [r3, #12]
 805 0076 019B     		ldr	r3, [sp, #4]
 806 0078 DA60     		str	r2, [r3, #12]
 807              	.L40:
 808              	.LBE2:
 809              		.loc 1 458 0
 810 007a 019B     		ldr	r3, [sp, #4]
 811 007c 5B68     		ldr	r3, [r3, #4]
 812 007e 9B69     		ldr	r3, [r3, #24]
 813 0080 03F4A053 		and	r3, r3, #5120
 814 0084 B3F5805F 		cmp	r3, #4096
 815 0088 05D1     		bne	.L43
 816              		.loc 1 459 0
 817 008a 019B     		ldr	r3, [sp, #4]
 818 008c DB68     		ldr	r3, [r3, #12]
 819 008e 43F4A062 		orr	r2, r3, #1280
 820 0092 019B     		ldr	r3, [sp, #4]
 821 0094 DA60     		str	r2, [r3, #12]
 822              	.L43:
 823              		.loc 1 460 0
 824 0096 019B     		ldr	r3, [sp, #4]
 825 0098 1B69     		ldr	r3, [r3, #16]
 826 009a 1B68     		ldr	r3, [r3]
 827 009c 019A     		ldr	r2, [sp, #4]
 828 009e 9268     		ldr	r2, [r2, #8]
 829 00a0 2432     		adds	r2, r2, #36
 830 00a2 9A60     		str	r2, [r3, #8]
 831              		.loc 1 461 0
 832 00a4 019B     		ldr	r3, [sp, #4]
 833 00a6 5B69     		ldr	r3, [r3, #20]
 834 00a8 1B68     		ldr	r3, [r3]
 835 00aa 019A     		ldr	r2, [sp, #4]
ARM GAS  /tmp/ccc9u8vF.s 			page 16


 836 00ac 9268     		ldr	r2, [r2, #8]
 837 00ae 2832     		adds	r2, r2, #40
 838 00b0 9A60     		str	r2, [r3, #8]
 839              		.loc 1 462 0
 840 00b2 019B     		ldr	r3, [sp, #4]
 841 00b4 0022     		movs	r2, #0
 842 00b6 1A83     		strh	r2, [r3, #24]	@ movhi
 843              	.L39:
 844              		.loc 1 465 0
 845 00b8 019B     		ldr	r3, [sp, #4]
 846 00ba 0022     		movs	r2, #0
 847 00bc 9A70     		strb	r2, [r3, #2]
 848              		.loc 1 466 0
 849 00be 019B     		ldr	r3, [sp, #4]
 850 00c0 0022     		movs	r2, #0
 851 00c2 5A70     		strb	r2, [r3, #1]
 852              		.loc 1 467 0
 853 00c4 0198     		ldr	r0, [sp, #4]
 854 00c6 FFF7FEFF 		bl	usart_start
 855              		.loc 1 468 0
 856 00ca 05B0     		add	sp, sp, #20
 857              		.cfi_def_cfa_offset 4
 858              		@ sp needed
 859 00cc 5DF804FB 		ldr	pc, [sp], #4
 860              	.L45:
 861              		.align	2
 862              	.L44:
 863 00d0 00000000 		.word	UARTD3
 864 00d4 00000000 		.word	uart_lld_serve_rx_end_irq
 865 00d8 00000000 		.word	.LC0
 866 00dc 00000000 		.word	uart_lld_serve_tx_end_irq
 867 00e0 18000000 		.word	.LC1
 868 00e4 00100240 		.word	1073876992
 869              		.cfi_endproc
 870              	.LFE127:
 871              		.size	uart_lld_start, .-uart_lld_start
 872 00e8 AFF30080 		.section	.text.uart_lld_stop,"ax",%progbits
 872      AFF30080 
 873              		.align	2
 874              		.p2align 4,,15
 875              		.global	uart_lld_stop
 876              		.thumb
 877              		.thumb_func
 878              		.type	uart_lld_stop, %function
 879              	uart_lld_stop:
 880              	.LFB128:
 881              		.loc 1 477 0
 882              		.cfi_startproc
 883              		@ args = 0, pretend = 0, frame = 8
 884              		@ frame_needed = 0, uses_anonymous_args = 0
 885 0000 00B5     		push	{lr}
 886              		.cfi_def_cfa_offset 4
 887              		.cfi_offset 14, -4
 888 0002 83B0     		sub	sp, sp, #12
 889              		.cfi_def_cfa_offset 16
 890 0004 0190     		str	r0, [sp, #4]
 891              		.loc 1 479 0
ARM GAS  /tmp/ccc9u8vF.s 			page 17


 892 0006 019B     		ldr	r3, [sp, #4]
 893 0008 1B78     		ldrb	r3, [r3]	@ zero_extendqisi2
 894 000a 022B     		cmp	r3, #2
 895 000c 1AD1     		bne	.L46
 896              		.loc 1 480 0
 897 000e 0198     		ldr	r0, [sp, #4]
 898 0010 FFF7FEFF 		bl	usart_stop
 899              		.loc 1 481 0
 900 0014 019B     		ldr	r3, [sp, #4]
 901 0016 1B69     		ldr	r3, [r3, #16]
 902 0018 1846     		mov	r0, r3
 903 001a FFF7FEFF 		bl	dmaStreamRelease
 904              		.loc 1 482 0
 905 001e 019B     		ldr	r3, [sp, #4]
 906 0020 5B69     		ldr	r3, [r3, #20]
 907 0022 1846     		mov	r0, r3
 908 0024 FFF7FEFF 		bl	dmaStreamRelease
 909              		.loc 1 501 0
 910 0028 019B     		ldr	r3, [sp, #4]
 911 002a 084A     		ldr	r2, .L48
 912 002c 9342     		cmp	r3, r2
 913 002e 09D1     		bne	.L46
 914              		.loc 1 502 0
 915 0030 2720     		movs	r0, #39
 916 0032 FFF7FEFF 		bl	nvicDisableVector
 917              		.loc 1 503 0
 918 0036 064A     		ldr	r2, .L48+4
 919 0038 054B     		ldr	r3, .L48+4
 920 003a DB69     		ldr	r3, [r3, #28]
 921 003c 23F48023 		bic	r3, r3, #262144
 922 0040 D361     		str	r3, [r2, #28]
 923              		.loc 1 504 0
 924 0042 00BF     		nop
 925              	.L46:
 926              		.loc 1 508 0
 927 0044 03B0     		add	sp, sp, #12
 928              		.cfi_def_cfa_offset 4
 929              		@ sp needed
 930 0046 5DF804FB 		ldr	pc, [sp], #4
 931              	.L49:
 932 004a 00BF     		.align	2
 933              	.L48:
 934 004c 00000000 		.word	UARTD3
 935 0050 00100240 		.word	1073876992
 936              		.cfi_endproc
 937              	.LFE128:
 938              		.size	uart_lld_stop, .-uart_lld_stop
 939 0054 AFF30080 		.section	.text.uart_lld_start_send,"ax",%progbits
 939      AFF30080 
 939      AFF30080 
 940              		.align	2
 941              		.p2align 4,,15
 942              		.global	uart_lld_start_send
 943              		.thumb
 944              		.thumb_func
 945              		.type	uart_lld_start_send, %function
 946              	uart_lld_start_send:
ARM GAS  /tmp/ccc9u8vF.s 			page 18


 947              	.LFB129:
 948              		.loc 1 521 0
 949              		.cfi_startproc
 950              		@ args = 0, pretend = 0, frame = 16
 951              		@ frame_needed = 0, uses_anonymous_args = 0
 952              		@ link register save eliminated.
 953 0000 84B0     		sub	sp, sp, #16
 954              		.cfi_def_cfa_offset 16
 955 0002 0390     		str	r0, [sp, #12]
 956 0004 0291     		str	r1, [sp, #8]
 957 0006 0192     		str	r2, [sp, #4]
 958              		.loc 1 524 0
 959 0008 039B     		ldr	r3, [sp, #12]
 960 000a 5B69     		ldr	r3, [r3, #20]
 961 000c 1B68     		ldr	r3, [r3]
 962 000e 019A     		ldr	r2, [sp, #4]
 963 0010 DA60     		str	r2, [r3, #12]
 964              		.loc 1 525 0
 965 0012 039B     		ldr	r3, [sp, #12]
 966 0014 5B69     		ldr	r3, [r3, #20]
 967 0016 1B68     		ldr	r3, [r3]
 968 0018 029A     		ldr	r2, [sp, #8]
 969 001a 5A60     		str	r2, [r3, #4]
 970              		.loc 1 526 0
 971 001c 039B     		ldr	r3, [sp, #12]
 972 001e 5B69     		ldr	r3, [r3, #20]
 973 0020 1B68     		ldr	r3, [r3]
 974 0022 039A     		ldr	r2, [sp, #12]
 975 0024 D268     		ldr	r2, [r2, #12]
 976 0026 42F09202 		orr	r2, r2, #146
 977 002a 1A60     		str	r2, [r3]
 978              		.loc 1 528 0
 979 002c 039B     		ldr	r3, [sp, #12]
 980 002e 5B69     		ldr	r3, [r3, #20]
 981 0030 1B68     		ldr	r3, [r3]
 982 0032 039A     		ldr	r2, [sp, #12]
 983 0034 5269     		ldr	r2, [r2, #20]
 984 0036 1268     		ldr	r2, [r2]
 985 0038 1268     		ldr	r2, [r2]
 986 003a 42F00102 		orr	r2, r2, #1
 987 003e 1A60     		str	r2, [r3]
 988              		.loc 1 529 0
 989 0040 04B0     		add	sp, sp, #16
 990              		.cfi_def_cfa_offset 0
 991              		@ sp needed
 992 0042 7047     		bx	lr
 993              		.cfi_endproc
 994              	.LFE129:
 995              		.size	uart_lld_start_send, .-uart_lld_start_send
 996 0044 AFF30080 		.section	.text.uart_lld_stop_send,"ax",%progbits
 996      AFF30080 
 996      AFF30080 
 997              		.align	2
 998              		.p2align 4,,15
 999              		.global	uart_lld_stop_send
 1000              		.thumb
 1001              		.thumb_func
ARM GAS  /tmp/ccc9u8vF.s 			page 19


 1002              		.type	uart_lld_stop_send, %function
 1003              	uart_lld_stop_send:
 1004              	.LFB130:
 1005              		.loc 1 542 0
 1006              		.cfi_startproc
 1007              		@ args = 0, pretend = 0, frame = 8
 1008              		@ frame_needed = 0, uses_anonymous_args = 0
 1009              		@ link register save eliminated.
 1010 0000 82B0     		sub	sp, sp, #8
 1011              		.cfi_def_cfa_offset 8
 1012 0002 0190     		str	r0, [sp, #4]
 1013              		.loc 1 544 0
 1014 0004 019B     		ldr	r3, [sp, #4]
 1015 0006 5B69     		ldr	r3, [r3, #20]
 1016 0008 1B68     		ldr	r3, [r3]
 1017 000a 019A     		ldr	r2, [sp, #4]
 1018 000c 5269     		ldr	r2, [r2, #20]
 1019 000e 1268     		ldr	r2, [r2]
 1020 0010 1268     		ldr	r2, [r2]
 1021 0012 22F00F02 		bic	r2, r2, #15
 1022 0016 1A60     		str	r2, [r3]
 1023 0018 019B     		ldr	r3, [sp, #4]
 1024 001a 5B69     		ldr	r3, [r3, #20]
 1025 001c 5B68     		ldr	r3, [r3, #4]
 1026 001e 019A     		ldr	r2, [sp, #4]
 1027 0020 5269     		ldr	r2, [r2, #20]
 1028 0022 127A     		ldrb	r2, [r2, #8]	@ zero_extendqisi2
 1029 0024 1146     		mov	r1, r2
 1030 0026 0F22     		movs	r2, #15
 1031 0028 8A40     		lsls	r2, r2, r1
 1032 002a 1A60     		str	r2, [r3]
 1033              		.loc 1 545 0
 1034 002c 019B     		ldr	r3, [sp, #4]
 1035 002e 5B69     		ldr	r3, [r3, #20]
 1036 0030 1B68     		ldr	r3, [r3]
 1037 0032 5B68     		ldr	r3, [r3, #4]
 1038              		.loc 1 546 0
 1039 0034 1846     		mov	r0, r3
 1040 0036 02B0     		add	sp, sp, #8
 1041              		.cfi_def_cfa_offset 0
 1042              		@ sp needed
 1043 0038 7047     		bx	lr
 1044              		.cfi_endproc
 1045              	.LFE130:
 1046              		.size	uart_lld_stop_send, .-uart_lld_stop_send
 1047 003a 00BFAFF3 		.section	.text.uart_lld_start_receive,"ax",%progbits
 1047      0080
 1048              		.align	2
 1049              		.p2align 4,,15
 1050              		.global	uart_lld_start_receive
 1051              		.thumb
 1052              		.thumb_func
 1053              		.type	uart_lld_start_receive, %function
 1054              	uart_lld_start_receive:
 1055              	.LFB131:
 1056              		.loc 1 559 0
 1057              		.cfi_startproc
ARM GAS  /tmp/ccc9u8vF.s 			page 20


 1058              		@ args = 0, pretend = 0, frame = 16
 1059              		@ frame_needed = 0, uses_anonymous_args = 0
 1060              		@ link register save eliminated.
 1061 0000 84B0     		sub	sp, sp, #16
 1062              		.cfi_def_cfa_offset 16
 1063 0002 0390     		str	r0, [sp, #12]
 1064 0004 0291     		str	r1, [sp, #8]
 1065 0006 0192     		str	r2, [sp, #4]
 1066              		.loc 1 562 0
 1067 0008 039B     		ldr	r3, [sp, #12]
 1068 000a 1B69     		ldr	r3, [r3, #16]
 1069 000c 1B68     		ldr	r3, [r3]
 1070 000e 039A     		ldr	r2, [sp, #12]
 1071 0010 1269     		ldr	r2, [r2, #16]
 1072 0012 1268     		ldr	r2, [r2]
 1073 0014 1268     		ldr	r2, [r2]
 1074 0016 22F00F02 		bic	r2, r2, #15
 1075 001a 1A60     		str	r2, [r3]
 1076 001c 039B     		ldr	r3, [sp, #12]
 1077 001e 1B69     		ldr	r3, [r3, #16]
 1078 0020 5B68     		ldr	r3, [r3, #4]
 1079 0022 039A     		ldr	r2, [sp, #12]
 1080 0024 1269     		ldr	r2, [r2, #16]
 1081 0026 127A     		ldrb	r2, [r2, #8]	@ zero_extendqisi2
 1082 0028 1146     		mov	r1, r2
 1083 002a 0F22     		movs	r2, #15
 1084 002c 8A40     		lsls	r2, r2, r1
 1085 002e 1A60     		str	r2, [r3]
 1086              		.loc 1 565 0
 1087 0030 039B     		ldr	r3, [sp, #12]
 1088 0032 1B69     		ldr	r3, [r3, #16]
 1089 0034 1B68     		ldr	r3, [r3]
 1090 0036 019A     		ldr	r2, [sp, #4]
 1091 0038 DA60     		str	r2, [r3, #12]
 1092              		.loc 1 566 0
 1093 003a 039B     		ldr	r3, [sp, #12]
 1094 003c 1B69     		ldr	r3, [r3, #16]
 1095 003e 1B68     		ldr	r3, [r3]
 1096 0040 029A     		ldr	r2, [sp, #8]
 1097 0042 5A60     		str	r2, [r3, #4]
 1098              		.loc 1 567 0
 1099 0044 039B     		ldr	r3, [sp, #12]
 1100 0046 1B69     		ldr	r3, [r3, #16]
 1101 0048 1B68     		ldr	r3, [r3]
 1102 004a 039A     		ldr	r2, [sp, #12]
 1103 004c D268     		ldr	r2, [r2, #12]
 1104 004e 42F08202 		orr	r2, r2, #130
 1105 0052 1A60     		str	r2, [r3]
 1106              		.loc 1 569 0
 1107 0054 039B     		ldr	r3, [sp, #12]
 1108 0056 1B69     		ldr	r3, [r3, #16]
 1109 0058 1B68     		ldr	r3, [r3]
 1110 005a 039A     		ldr	r2, [sp, #12]
 1111 005c 1269     		ldr	r2, [r2, #16]
 1112 005e 1268     		ldr	r2, [r2]
 1113 0060 1268     		ldr	r2, [r2]
 1114 0062 42F00102 		orr	r2, r2, #1
ARM GAS  /tmp/ccc9u8vF.s 			page 21


 1115 0066 1A60     		str	r2, [r3]
 1116              		.loc 1 570 0
 1117 0068 04B0     		add	sp, sp, #16
 1118              		.cfi_def_cfa_offset 0
 1119              		@ sp needed
 1120 006a 7047     		bx	lr
 1121              		.cfi_endproc
 1122              	.LFE131:
 1123              		.size	uart_lld_start_receive, .-uart_lld_start_receive
 1124 006c AFF30080 		.section	.text.uart_lld_stop_receive,"ax",%progbits
 1125              		.align	2
 1126              		.p2align 4,,15
 1127              		.global	uart_lld_stop_receive
 1128              		.thumb
 1129              		.thumb_func
 1130              		.type	uart_lld_stop_receive, %function
 1131              	uart_lld_stop_receive:
 1132              	.LFB132:
 1133              		.loc 1 583 0
 1134              		.cfi_startproc
 1135              		@ args = 0, pretend = 0, frame = 16
 1136              		@ frame_needed = 0, uses_anonymous_args = 0
 1137 0000 00B5     		push	{lr}
 1138              		.cfi_def_cfa_offset 4
 1139              		.cfi_offset 14, -4
 1140 0002 85B0     		sub	sp, sp, #20
 1141              		.cfi_def_cfa_offset 24
 1142 0004 0190     		str	r0, [sp, #4]
 1143              		.loc 1 586 0
 1144 0006 019B     		ldr	r3, [sp, #4]
 1145 0008 1B69     		ldr	r3, [r3, #16]
 1146 000a 1B68     		ldr	r3, [r3]
 1147 000c 019A     		ldr	r2, [sp, #4]
 1148 000e 1269     		ldr	r2, [r2, #16]
 1149 0010 1268     		ldr	r2, [r2]
 1150 0012 1268     		ldr	r2, [r2]
 1151 0014 22F00F02 		bic	r2, r2, #15
 1152 0018 1A60     		str	r2, [r3]
 1153 001a 019B     		ldr	r3, [sp, #4]
 1154 001c 1B69     		ldr	r3, [r3, #16]
 1155 001e 5B68     		ldr	r3, [r3, #4]
 1156 0020 019A     		ldr	r2, [sp, #4]
 1157 0022 1269     		ldr	r2, [r2, #16]
 1158 0024 127A     		ldrb	r2, [r2, #8]	@ zero_extendqisi2
 1159 0026 1146     		mov	r1, r2
 1160 0028 0F22     		movs	r2, #15
 1161 002a 8A40     		lsls	r2, r2, r1
 1162 002c 1A60     		str	r2, [r3]
 1163              		.loc 1 587 0
 1164 002e 019B     		ldr	r3, [sp, #4]
 1165 0030 1B69     		ldr	r3, [r3, #16]
 1166 0032 1B68     		ldr	r3, [r3]
 1167 0034 5B68     		ldr	r3, [r3, #4]
 1168 0036 0393     		str	r3, [sp, #12]
 1169              		.loc 1 588 0
 1170 0038 0198     		ldr	r0, [sp, #4]
 1171 003a FFF7FEFF 		bl	set_rx_idle_loop
ARM GAS  /tmp/ccc9u8vF.s 			page 22


 1172              		.loc 1 589 0
 1173 003e 039B     		ldr	r3, [sp, #12]
 1174              		.loc 1 590 0
 1175 0040 1846     		mov	r0, r3
 1176 0042 05B0     		add	sp, sp, #20
 1177              		.cfi_def_cfa_offset 4
 1178              		@ sp needed
 1179 0044 5DF804FB 		ldr	pc, [sp], #4
 1180              		.cfi_endproc
 1181              	.LFE132:
 1182              		.size	uart_lld_stop_receive, .-uart_lld_stop_receive
 1183 0048 AFF30080 		.text
 1183      AFF30080 
 1184              	.Letext0:
 1185              		.file 2 "/home/ergae/r2p-sdk/tools/gcc-arm-none-eabi-4_9-2014q4/lib/gcc/arm-none-eabi/4.9.3/includ
 1186              		.file 3 "/home/ergae/r2p-sdk/tools/gcc-arm-none-eabi-4_9-2014q4/arm-none-eabi/include/machine/_def
 1187              		.file 4 "/home/ergae/r2p-sdk/tools/gcc-arm-none-eabi-4_9-2014q4/arm-none-eabi/include/stdint.h"
 1188              		.file 5 "/home/ergae/r2p-sdk/core/ChibiOS/os/ports/GCC/ARMCMx/chtypes.h"
 1189              		.file 6 "/home/ergae/r2p-sdk/core/ChibiOS/os/hal/platforms/STM32F30x/stm32f30x.h"
 1190              		.file 7 "/home/ergae/r2p-sdk/core/ChibiOS/os/hal/platforms/STM32F30x/stm32_dma.h"
 1191              		.file 8 "/home/ergae/r2p-sdk/core/ChibiOS/os/hal/include/uart.h"
 1192              		.file 9 "/home/ergae/r2p-sdk/core/ChibiOS/os/hal/platforms/STM32/USARTv2/uart_lld.h"
 1193              		.file 10 "/home/ergae/r2p-sdk/core/ChibiOS/os/ports/common/ARMCMx/CMSIS/include/core_cm4.h"
 1194              		.section	.debug_info,"",%progbits
 1195              	.Ldebug_info0:
 1196 0000 9F080000 		.4byte	0x89f
 1197 0004 0400     		.2byte	0x4
 1198 0006 00000000 		.4byte	.Ldebug_abbrev0
 1199 000a 04       		.byte	0x4
 1200 000b 01       		.uleb128 0x1
 1201 000c BE040000 		.4byte	.LASF106
 1202 0010 01       		.byte	0x1
 1203 0011 5E010000 		.4byte	.LASF107
 1204 0015 00000000 		.4byte	.Ldebug_ranges0+0
 1205 0019 00000000 		.4byte	0
 1206 001d 00000000 		.4byte	.Ldebug_line0
 1207 0021 02       		.uleb128 0x2
 1208 0022 04       		.byte	0x4
 1209 0023 05       		.byte	0x5
 1210 0024 696E7400 		.ascii	"int\000"
 1211 0028 03       		.uleb128 0x3
 1212 0029 40000000 		.4byte	.LASF2
 1213 002d 02       		.byte	0x2
 1214 002e D4       		.byte	0xd4
 1215 002f 33000000 		.4byte	0x33
 1216 0033 04       		.uleb128 0x4
 1217 0034 04       		.byte	0x4
 1218 0035 07       		.byte	0x7
 1219 0036 FA010000 		.4byte	.LASF0
 1220 003a 04       		.uleb128 0x4
 1221 003b 01       		.byte	0x1
 1222 003c 06       		.byte	0x6
 1223 003d F0000000 		.4byte	.LASF1
 1224 0041 03       		.uleb128 0x3
 1225 0042 51000000 		.4byte	.LASF3
 1226 0046 03       		.byte	0x3
 1227 0047 1D       		.byte	0x1d
ARM GAS  /tmp/ccc9u8vF.s 			page 23


 1228 0048 4C000000 		.4byte	0x4c
 1229 004c 04       		.uleb128 0x4
 1230 004d 01       		.byte	0x1
 1231 004e 08       		.byte	0x8
 1232 004f 96030000 		.4byte	.LASF4
 1233 0053 04       		.uleb128 0x4
 1234 0054 02       		.byte	0x2
 1235 0055 05       		.byte	0x5
 1236 0056 A4030000 		.4byte	.LASF5
 1237 005a 03       		.uleb128 0x3
 1238 005b 05040000 		.4byte	.LASF6
 1239 005f 03       		.byte	0x3
 1240 0060 2B       		.byte	0x2b
 1241 0061 65000000 		.4byte	0x65
 1242 0065 04       		.uleb128 0x4
 1243 0066 02       		.byte	0x2
 1244 0067 07       		.byte	0x7
 1245 0068 68020000 		.4byte	.LASF7
 1246 006c 03       		.uleb128 0x3
 1247 006d 1A040000 		.4byte	.LASF8
 1248 0071 03       		.byte	0x3
 1249 0072 3F       		.byte	0x3f
 1250 0073 77000000 		.4byte	0x77
 1251 0077 04       		.uleb128 0x4
 1252 0078 04       		.byte	0x4
 1253 0079 05       		.byte	0x5
 1254 007a 2F010000 		.4byte	.LASF9
 1255 007e 03       		.uleb128 0x3
 1256 007f B4010000 		.4byte	.LASF10
 1257 0083 03       		.byte	0x3
 1258 0084 41       		.byte	0x41
 1259 0085 89000000 		.4byte	0x89
 1260 0089 04       		.uleb128 0x4
 1261 008a 04       		.byte	0x4
 1262 008b 07       		.byte	0x7
 1263 008c 25020000 		.4byte	.LASF11
 1264 0090 04       		.uleb128 0x4
 1265 0091 08       		.byte	0x8
 1266 0092 05       		.byte	0x5
 1267 0093 E2000000 		.4byte	.LASF12
 1268 0097 04       		.uleb128 0x4
 1269 0098 08       		.byte	0x8
 1270 0099 07       		.byte	0x7
 1271 009a 72000000 		.4byte	.LASF13
 1272 009e 03       		.uleb128 0x3
 1273 009f 6F040000 		.4byte	.LASF14
 1274 00a3 04       		.byte	0x4
 1275 00a4 15       		.byte	0x15
 1276 00a5 41000000 		.4byte	0x41
 1277 00a9 03       		.uleb128 0x3
 1278 00aa 41010000 		.4byte	.LASF15
 1279 00ae 04       		.byte	0x4
 1280 00af 21       		.byte	0x21
 1281 00b0 5A000000 		.4byte	0x5a
 1282 00b4 03       		.uleb128 0x3
 1283 00b5 8E030000 		.4byte	.LASF16
 1284 00b9 04       		.byte	0x4
ARM GAS  /tmp/ccc9u8vF.s 			page 24


 1285 00ba 2C       		.byte	0x2c
 1286 00bb 6C000000 		.4byte	0x6c
 1287 00bf 03       		.uleb128 0x3
 1288 00c0 CF030000 		.4byte	.LASF17
 1289 00c4 04       		.byte	0x4
 1290 00c5 2D       		.byte	0x2d
 1291 00c6 7E000000 		.4byte	0x7e
 1292 00ca 03       		.uleb128 0x3
 1293 00cb C5000000 		.4byte	.LASF18
 1294 00cf 05       		.byte	0x5
 1295 00d0 2B       		.byte	0x2b
 1296 00d1 D5000000 		.4byte	0xd5
 1297 00d5 04       		.uleb128 0x4
 1298 00d6 01       		.byte	0x1
 1299 00d7 02       		.byte	0x2
 1300 00d8 88030000 		.4byte	.LASF19
 1301 00dc 05       		.uleb128 0x5
 1302 00dd 04       		.byte	0x4
 1303 00de 06       		.uleb128 0x6
 1304 00df BF000000 		.4byte	0xbf
 1305 00e3 04       		.uleb128 0x4
 1306 00e4 04       		.byte	0x4
 1307 00e5 07       		.byte	0x7
 1308 00e6 C3020000 		.4byte	.LASF20
 1309 00ea 04       		.uleb128 0x4
 1310 00eb 01       		.byte	0x1
 1311 00ec 08       		.byte	0x8
 1312 00ed E7030000 		.4byte	.LASF21
 1313 00f1 06       		.uleb128 0x6
 1314 00f2 A9000000 		.4byte	0xa9
 1315 00f6 06       		.uleb128 0x6
 1316 00f7 B4000000 		.4byte	0xb4
 1317 00fb 07       		.uleb128 0x7
 1318 00fc 10       		.byte	0x10
 1319 00fd 06       		.byte	0x6
 1320 00fe E501     		.2byte	0x1e5
 1321 0100 39010000 		.4byte	0x139
 1322 0104 08       		.uleb128 0x8
 1323 0105 43435200 		.ascii	"CCR\000"
 1324 0109 06       		.byte	0x6
 1325 010a E701     		.2byte	0x1e7
 1326 010c DE000000 		.4byte	0xde
 1327 0110 00       		.byte	0
 1328 0111 09       		.uleb128 0x9
 1329 0112 58040000 		.4byte	.LASF22
 1330 0116 06       		.byte	0x6
 1331 0117 E801     		.2byte	0x1e8
 1332 0119 DE000000 		.4byte	0xde
 1333 011d 04       		.byte	0x4
 1334 011e 09       		.uleb128 0x9
 1335 011f 0D020000 		.4byte	.LASF23
 1336 0123 06       		.byte	0x6
 1337 0124 E901     		.2byte	0x1e9
 1338 0126 DE000000 		.4byte	0xde
 1339 012a 08       		.byte	0x8
 1340 012b 09       		.uleb128 0x9
 1341 012c 9F020000 		.4byte	.LASF24
ARM GAS  /tmp/ccc9u8vF.s 			page 25


 1342 0130 06       		.byte	0x6
 1343 0131 EA01     		.2byte	0x1ea
 1344 0133 DE000000 		.4byte	0xde
 1345 0137 0C       		.byte	0xc
 1346 0138 00       		.byte	0
 1347 0139 0A       		.uleb128 0xa
 1348 013a 4D020000 		.4byte	.LASF25
 1349 013e 06       		.byte	0x6
 1350 013f EB01     		.2byte	0x1eb
 1351 0141 FB000000 		.4byte	0xfb
 1352 0145 07       		.uleb128 0x7
 1353 0146 34       		.byte	0x34
 1354 0147 06       		.byte	0x6
 1355 0148 8502     		.2byte	0x285
 1356 014a F7010000 		.4byte	0x1f7
 1357 014e 08       		.uleb128 0x8
 1358 014f 435200   		.ascii	"CR\000"
 1359 0152 06       		.byte	0x6
 1360 0153 8702     		.2byte	0x287
 1361 0155 DE000000 		.4byte	0xde
 1362 0159 00       		.byte	0
 1363 015a 09       		.uleb128 0x9
 1364 015b 97040000 		.4byte	.LASF26
 1365 015f 06       		.byte	0x6
 1366 0160 8802     		.2byte	0x288
 1367 0162 DE000000 		.4byte	0xde
 1368 0166 04       		.byte	0x4
 1369 0167 08       		.uleb128 0x8
 1370 0168 43495200 		.ascii	"CIR\000"
 1371 016c 06       		.byte	0x6
 1372 016d 8902     		.2byte	0x289
 1373 016f DE000000 		.4byte	0xde
 1374 0173 08       		.byte	0x8
 1375 0174 09       		.uleb128 0x9
 1376 0175 38010000 		.4byte	.LASF27
 1377 0179 06       		.byte	0x6
 1378 017a 8A02     		.2byte	0x28a
 1379 017c DE000000 		.4byte	0xde
 1380 0180 0C       		.byte	0xc
 1381 0181 09       		.uleb128 0x9
 1382 0182 30030000 		.4byte	.LASF28
 1383 0186 06       		.byte	0x6
 1384 0187 8B02     		.2byte	0x28b
 1385 0189 DE000000 		.4byte	0xde
 1386 018d 10       		.byte	0x10
 1387 018e 09       		.uleb128 0x9
 1388 018f D7050000 		.4byte	.LASF29
 1389 0193 06       		.byte	0x6
 1390 0194 8C02     		.2byte	0x28c
 1391 0196 DE000000 		.4byte	0xde
 1392 019a 14       		.byte	0x14
 1393 019b 09       		.uleb128 0x9
 1394 019c BA030000 		.4byte	.LASF30
 1395 01a0 06       		.byte	0x6
 1396 01a1 8D02     		.2byte	0x28d
 1397 01a3 DE000000 		.4byte	0xde
 1398 01a7 18       		.byte	0x18
ARM GAS  /tmp/ccc9u8vF.s 			page 26


 1399 01a8 09       		.uleb128 0x9
 1400 01a9 36040000 		.4byte	.LASF31
 1401 01ad 06       		.byte	0x6
 1402 01ae 8E02     		.2byte	0x28e
 1403 01b0 DE000000 		.4byte	0xde
 1404 01b4 1C       		.byte	0x1c
 1405 01b5 09       		.uleb128 0x9
 1406 01b6 5E040000 		.4byte	.LASF32
 1407 01ba 06       		.byte	0x6
 1408 01bb 8F02     		.2byte	0x28f
 1409 01bd DE000000 		.4byte	0xde
 1410 01c1 20       		.byte	0x20
 1411 01c2 08       		.uleb128 0x8
 1412 01c3 43535200 		.ascii	"CSR\000"
 1413 01c7 06       		.byte	0x6
 1414 01c8 9002     		.2byte	0x290
 1415 01ca DE000000 		.4byte	0xde
 1416 01ce 24       		.byte	0x24
 1417 01cf 09       		.uleb128 0x9
 1418 01d0 28030000 		.4byte	.LASF33
 1419 01d4 06       		.byte	0x6
 1420 01d5 9102     		.2byte	0x291
 1421 01d7 DE000000 		.4byte	0xde
 1422 01db 28       		.byte	0x28
 1423 01dc 09       		.uleb128 0x9
 1424 01dd 63040000 		.4byte	.LASF34
 1425 01e1 06       		.byte	0x6
 1426 01e2 9202     		.2byte	0x292
 1427 01e4 DE000000 		.4byte	0xde
 1428 01e8 2C       		.byte	0x2c
 1429 01e9 09       		.uleb128 0x9
 1430 01ea 69040000 		.4byte	.LASF35
 1431 01ee 06       		.byte	0x6
 1432 01ef 9302     		.2byte	0x293
 1433 01f1 DE000000 		.4byte	0xde
 1434 01f5 30       		.byte	0x30
 1435 01f6 00       		.byte	0
 1436 01f7 0A       		.uleb128 0xa
 1437 01f8 41020000 		.4byte	.LASF36
 1438 01fc 06       		.byte	0x6
 1439 01fd 9402     		.2byte	0x294
 1440 01ff 45010000 		.4byte	0x145
 1441 0203 07       		.uleb128 0x7
 1442 0204 2C       		.byte	0x2c
 1443 0205 06       		.byte	0x6
 1444 0206 1B03     		.2byte	0x31b
 1445 0208 DD020000 		.4byte	0x2dd
 1446 020c 08       		.uleb128 0x8
 1447 020d 43523100 		.ascii	"CR1\000"
 1448 0211 06       		.byte	0x6
 1449 0212 1D03     		.2byte	0x31d
 1450 0214 DE000000 		.4byte	0xde
 1451 0218 00       		.byte	0
 1452 0219 08       		.uleb128 0x8
 1453 021a 43523200 		.ascii	"CR2\000"
 1454 021e 06       		.byte	0x6
 1455 021f 1E03     		.2byte	0x31e
ARM GAS  /tmp/ccc9u8vF.s 			page 27


 1456 0221 DE000000 		.4byte	0xde
 1457 0225 04       		.byte	0x4
 1458 0226 08       		.uleb128 0x8
 1459 0227 43523300 		.ascii	"CR3\000"
 1460 022b 06       		.byte	0x6
 1461 022c 1F03     		.2byte	0x31f
 1462 022e DE000000 		.4byte	0xde
 1463 0232 08       		.byte	0x8
 1464 0233 08       		.uleb128 0x8
 1465 0234 42525200 		.ascii	"BRR\000"
 1466 0238 06       		.byte	0x6
 1467 0239 2003     		.2byte	0x320
 1468 023b F1000000 		.4byte	0xf1
 1469 023f 0C       		.byte	0xc
 1470 0240 09       		.uleb128 0x9
 1471 0241 39030000 		.4byte	.LASF37
 1472 0245 06       		.byte	0x6
 1473 0246 2103     		.2byte	0x321
 1474 0248 A9000000 		.4byte	0xa9
 1475 024c 0E       		.byte	0xe
 1476 024d 09       		.uleb128 0x9
 1477 024e 05010000 		.4byte	.LASF38
 1478 0252 06       		.byte	0x6
 1479 0253 2203     		.2byte	0x322
 1480 0255 F1000000 		.4byte	0xf1
 1481 0259 10       		.byte	0x10
 1482 025a 09       		.uleb128 0x9
 1483 025b 43030000 		.4byte	.LASF39
 1484 025f 06       		.byte	0x6
 1485 0260 2303     		.2byte	0x323
 1486 0262 A9000000 		.4byte	0xa9
 1487 0266 12       		.byte	0x12
 1488 0267 09       		.uleb128 0x9
 1489 0268 31040000 		.4byte	.LASF40
 1490 026c 06       		.byte	0x6
 1491 026d 2403     		.2byte	0x324
 1492 026f DE000000 		.4byte	0xde
 1493 0273 14       		.byte	0x14
 1494 0274 08       		.uleb128 0x8
 1495 0275 52515200 		.ascii	"RQR\000"
 1496 0279 06       		.byte	0x6
 1497 027a 2503     		.2byte	0x325
 1498 027c F1000000 		.4byte	0xf1
 1499 0280 18       		.byte	0x18
 1500 0281 09       		.uleb128 0x9
 1501 0282 4D030000 		.4byte	.LASF41
 1502 0286 06       		.byte	0x6
 1503 0287 2603     		.2byte	0x326
 1504 0289 A9000000 		.4byte	0xa9
 1505 028d 1A       		.byte	0x1a
 1506 028e 08       		.uleb128 0x8
 1507 028f 49535200 		.ascii	"ISR\000"
 1508 0293 06       		.byte	0x6
 1509 0294 2703     		.2byte	0x327
 1510 0296 DE000000 		.4byte	0xde
 1511 029a 1C       		.byte	0x1c
 1512 029b 08       		.uleb128 0x8
ARM GAS  /tmp/ccc9u8vF.s 			page 28


 1513 029c 49435200 		.ascii	"ICR\000"
 1514 02a0 06       		.byte	0x6
 1515 02a1 2803     		.2byte	0x328
 1516 02a3 DE000000 		.4byte	0xde
 1517 02a7 20       		.byte	0x20
 1518 02a8 08       		.uleb128 0x8
 1519 02a9 52445200 		.ascii	"RDR\000"
 1520 02ad 06       		.byte	0x6
 1521 02ae 2903     		.2byte	0x329
 1522 02b0 F1000000 		.4byte	0xf1
 1523 02b4 24       		.byte	0x24
 1524 02b5 09       		.uleb128 0x9
 1525 02b6 57030000 		.4byte	.LASF42
 1526 02ba 06       		.byte	0x6
 1527 02bb 2A03     		.2byte	0x32a
 1528 02bd A9000000 		.4byte	0xa9
 1529 02c1 26       		.byte	0x26
 1530 02c2 08       		.uleb128 0x8
 1531 02c3 54445200 		.ascii	"TDR\000"
 1532 02c7 06       		.byte	0x6
 1533 02c8 2B03     		.2byte	0x32b
 1534 02ca F1000000 		.4byte	0xf1
 1535 02ce 28       		.byte	0x28
 1536 02cf 09       		.uleb128 0x9
 1537 02d0 61030000 		.4byte	.LASF43
 1538 02d4 06       		.byte	0x6
 1539 02d5 2C03     		.2byte	0x32c
 1540 02d7 A9000000 		.4byte	0xa9
 1541 02db 2A       		.byte	0x2a
 1542 02dc 00       		.byte	0
 1543 02dd 0A       		.uleb128 0xa
 1544 02de 91020000 		.4byte	.LASF44
 1545 02e2 06       		.byte	0x6
 1546 02e3 2D03     		.2byte	0x32d
 1547 02e5 03020000 		.4byte	0x203
 1548 02e9 0B       		.uleb128 0xb
 1549 02ea 0C       		.byte	0xc
 1550 02eb 07       		.byte	0x7
 1551 02ec C1       		.byte	0xc1
 1552 02ed 2E030000 		.4byte	0x32e
 1553 02f1 0C       		.uleb128 0xc
 1554 02f2 C2030000 		.4byte	.LASF45
 1555 02f6 07       		.byte	0x7
 1556 02f7 C2       		.byte	0xc2
 1557 02f8 2E030000 		.4byte	0x32e
 1558 02fc 00       		.byte	0
 1559 02fd 0C       		.uleb128 0xc
 1560 02fe CA030000 		.4byte	.LASF46
 1561 0302 07       		.byte	0x7
 1562 0303 C3       		.byte	0xc3
 1563 0304 34030000 		.4byte	0x334
 1564 0308 04       		.byte	0x4
 1565 0309 0C       		.uleb128 0xc
 1566 030a 61020000 		.4byte	.LASF47
 1567 030e 07       		.byte	0x7
 1568 030f C4       		.byte	0xc4
 1569 0310 9E000000 		.4byte	0x9e
ARM GAS  /tmp/ccc9u8vF.s 			page 29


 1570 0314 08       		.byte	0x8
 1571 0315 0C       		.uleb128 0xc
 1572 0316 BF010000 		.4byte	.LASF48
 1573 031a 07       		.byte	0x7
 1574 031b C6       		.byte	0xc6
 1575 031c 9E000000 		.4byte	0x9e
 1576 0320 09       		.byte	0x9
 1577 0321 0C       		.uleb128 0xc
 1578 0322 93000000 		.4byte	.LASF49
 1579 0326 07       		.byte	0x7
 1580 0327 C7       		.byte	0xc7
 1581 0328 9E000000 		.4byte	0x9e
 1582 032c 0A       		.byte	0xa
 1583 032d 00       		.byte	0
 1584 032e 0D       		.uleb128 0xd
 1585 032f 04       		.byte	0x4
 1586 0330 39010000 		.4byte	0x139
 1587 0334 0D       		.uleb128 0xd
 1588 0335 04       		.byte	0x4
 1589 0336 DE000000 		.4byte	0xde
 1590 033a 03       		.uleb128 0x3
 1591 033b 6B030000 		.4byte	.LASF50
 1592 033f 07       		.byte	0x7
 1593 0340 C8       		.byte	0xc8
 1594 0341 E9020000 		.4byte	0x2e9
 1595 0345 03       		.uleb128 0x3
 1596 0346 12010000 		.4byte	.LASF51
 1597 034a 07       		.byte	0x7
 1598 034b D1       		.byte	0xd1
 1599 034c 50030000 		.4byte	0x350
 1600 0350 0D       		.uleb128 0xd
 1601 0351 04       		.byte	0x4
 1602 0352 56030000 		.4byte	0x356
 1603 0356 0E       		.uleb128 0xe
 1604 0357 66030000 		.4byte	0x366
 1605 035b 0F       		.uleb128 0xf
 1606 035c DC000000 		.4byte	0xdc
 1607 0360 0F       		.uleb128 0xf
 1608 0361 BF000000 		.4byte	0xbf
 1609 0365 00       		.byte	0
 1610 0366 0D       		.uleb128 0xd
 1611 0367 04       		.byte	0x4
 1612 0368 DD020000 		.4byte	0x2dd
 1613 036c 0D       		.uleb128 0xd
 1614 036d 04       		.byte	0x4
 1615 036e 72030000 		.4byte	0x372
 1616 0372 10       		.uleb128 0x10
 1617 0373 3A030000 		.4byte	0x33a
 1618 0377 11       		.uleb128 0x11
 1619 0378 01       		.byte	0x1
 1620 0379 08       		.byte	0x8
 1621 037a 48       		.byte	0x48
 1622 037b 92030000 		.4byte	0x392
 1623 037f 12       		.uleb128 0x12
 1624 0380 7B020000 		.4byte	.LASF52
 1625 0384 00       		.sleb128 0
 1626 0385 12       		.uleb128 0x12
ARM GAS  /tmp/ccc9u8vF.s 			page 30


 1627 0386 87020000 		.4byte	.LASF53
 1628 038a 01       		.sleb128 1
 1629 038b 12       		.uleb128 0x12
 1630 038c DA010000 		.4byte	.LASF54
 1631 0390 02       		.sleb128 2
 1632 0391 00       		.byte	0
 1633 0392 03       		.uleb128 0x3
 1634 0393 AE030000 		.4byte	.LASF55
 1635 0397 08       		.byte	0x8
 1636 0398 4C       		.byte	0x4c
 1637 0399 77030000 		.4byte	0x377
 1638 039d 11       		.uleb128 0x11
 1639 039e 01       		.byte	0x1
 1640 039f 08       		.byte	0x8
 1641 03a0 51       		.byte	0x51
 1642 03a1 B8030000 		.4byte	0x3b8
 1643 03a5 12       		.uleb128 0x12
 1644 03a6 24040000 		.4byte	.LASF56
 1645 03aa 00       		.sleb128 0
 1646 03ab 12       		.uleb128 0x12
 1647 03ac E5010000 		.4byte	.LASF57
 1648 03b0 01       		.sleb128 1
 1649 03b1 12       		.uleb128 0x12
 1650 03b2 E5050000 		.4byte	.LASF58
 1651 03b6 02       		.sleb128 2
 1652 03b7 00       		.byte	0
 1653 03b8 03       		.uleb128 0x3
 1654 03b9 1A030000 		.4byte	.LASF59
 1655 03bd 08       		.byte	0x8
 1656 03be 55       		.byte	0x55
 1657 03bf 9D030000 		.4byte	0x39d
 1658 03c3 11       		.uleb128 0x11
 1659 03c4 01       		.byte	0x1
 1660 03c5 08       		.byte	0x8
 1661 03c6 5A       		.byte	0x5a
 1662 03c7 DE030000 		.4byte	0x3de
 1663 03cb 12       		.uleb128 0x12
 1664 03cc F8030000 		.4byte	.LASF60
 1665 03d0 00       		.sleb128 0
 1666 03d1 12       		.uleb128 0x12
 1667 03d2 23000000 		.4byte	.LASF61
 1668 03d6 01       		.sleb128 1
 1669 03d7 12       		.uleb128 0x12
 1670 03d8 DD020000 		.4byte	.LASF62
 1671 03dc 02       		.sleb128 2
 1672 03dd 00       		.byte	0
 1673 03de 03       		.uleb128 0x3
 1674 03df 4A010000 		.4byte	.LASF63
 1675 03e3 08       		.byte	0x8
 1676 03e4 5E       		.byte	0x5e
 1677 03e5 C3030000 		.4byte	0x3c3
 1678 03e9 0A       		.uleb128 0xa
 1679 03ea 17000000 		.4byte	.LASF64
 1680 03ee 09       		.byte	0x9
 1681 03ef 2C01     		.2byte	0x12c
 1682 03f1 BF000000 		.4byte	0xbf
 1683 03f5 0A       		.uleb128 0xa
ARM GAS  /tmp/ccc9u8vF.s 			page 31


 1684 03f6 A9010000 		.4byte	.LASF65
 1685 03fa 09       		.byte	0x9
 1686 03fb 3101     		.2byte	0x131
 1687 03fd 01040000 		.4byte	0x401
 1688 0401 13       		.uleb128 0x13
 1689 0402 A9010000 		.4byte	.LASF65
 1690 0406 1C       		.byte	0x1c
 1691 0407 09       		.byte	0x9
 1692 0408 7901     		.2byte	0x179
 1693 040a 84040000 		.4byte	0x484
 1694 040e 09       		.uleb128 0x9
 1695 040f 21010000 		.4byte	.LASF66
 1696 0413 09       		.byte	0x9
 1697 0414 7D01     		.2byte	0x17d
 1698 0416 92030000 		.4byte	0x392
 1699 041a 00       		.byte	0
 1700 041b 09       		.uleb128 0x9
 1701 041c 27010000 		.4byte	.LASF67
 1702 0420 09       		.byte	0x9
 1703 0421 8101     		.2byte	0x181
 1704 0423 B8030000 		.4byte	0x3b8
 1705 0427 01       		.byte	0x1
 1706 0428 09       		.uleb128 0x9
 1707 0429 0A010000 		.4byte	.LASF68
 1708 042d 09       		.byte	0x9
 1709 042e 8501     		.2byte	0x185
 1710 0430 DE030000 		.4byte	0x3de
 1711 0434 02       		.byte	0x2
 1712 0435 09       		.uleb128 0x9
 1713 0436 F1030000 		.4byte	.LASF69
 1714 043a 09       		.byte	0x9
 1715 043b 8901     		.2byte	0x189
 1716 043d 76050000 		.4byte	0x576
 1717 0441 04       		.byte	0x4
 1718 0442 09       		.uleb128 0x9
 1719 0443 F4010000 		.4byte	.LASF70
 1720 0447 09       		.byte	0x9
 1721 0448 9101     		.2byte	0x191
 1722 044a 66030000 		.4byte	0x366
 1723 044e 08       		.byte	0x8
 1724 044f 09       		.uleb128 0x9
 1725 0450 89040000 		.4byte	.LASF71
 1726 0454 09       		.byte	0x9
 1727 0455 9501     		.2byte	0x195
 1728 0457 BF000000 		.4byte	0xbf
 1729 045b 0C       		.byte	0xc
 1730 045c 09       		.uleb128 0x9
 1731 045d 61000000 		.4byte	.LASF72
 1732 0461 09       		.byte	0x9
 1733 0462 9901     		.2byte	0x199
 1734 0464 6C030000 		.4byte	0x36c
 1735 0468 10       		.byte	0x10
 1736 0469 09       		.uleb128 0x9
 1737 046a 58010000 		.4byte	.LASF73
 1738 046e 09       		.byte	0x9
 1739 046f 9D01     		.2byte	0x19d
 1740 0471 6C030000 		.4byte	0x36c
ARM GAS  /tmp/ccc9u8vF.s 			page 32


 1741 0475 14       		.byte	0x14
 1742 0476 09       		.uleb128 0x9
 1743 0477 5B000000 		.4byte	.LASF74
 1744 047b 09       		.byte	0x9
 1745 047c A101     		.2byte	0x1a1
 1746 047e F1000000 		.4byte	0xf1
 1747 0482 18       		.byte	0x18
 1748 0483 00       		.byte	0
 1749 0484 0A       		.uleb128 0xa
 1750 0485 FC000000 		.4byte	.LASF75
 1751 0489 09       		.byte	0x9
 1752 048a 3801     		.2byte	0x138
 1753 048c 90040000 		.4byte	0x490
 1754 0490 0D       		.uleb128 0xd
 1755 0491 04       		.byte	0x4
 1756 0492 96040000 		.4byte	0x496
 1757 0496 0E       		.uleb128 0xe
 1758 0497 A1040000 		.4byte	0x4a1
 1759 049b 0F       		.uleb128 0xf
 1760 049c A1040000 		.4byte	0x4a1
 1761 04a0 00       		.byte	0
 1762 04a1 0D       		.uleb128 0xd
 1763 04a2 04       		.byte	0x4
 1764 04a3 F5030000 		.4byte	0x3f5
 1765 04a7 0A       		.uleb128 0xa
 1766 04a8 89000000 		.4byte	.LASF76
 1767 04ac 09       		.byte	0x9
 1768 04ad 4001     		.2byte	0x140
 1769 04af B3040000 		.4byte	0x4b3
 1770 04b3 0D       		.uleb128 0xd
 1771 04b4 04       		.byte	0x4
 1772 04b5 B9040000 		.4byte	0x4b9
 1773 04b9 0E       		.uleb128 0xe
 1774 04ba C9040000 		.4byte	0x4c9
 1775 04be 0F       		.uleb128 0xf
 1776 04bf A1040000 		.4byte	0x4a1
 1777 04c3 0F       		.uleb128 0xf
 1778 04c4 A9000000 		.4byte	0xa9
 1779 04c8 00       		.byte	0
 1780 04c9 0A       		.uleb128 0xa
 1781 04ca 37020000 		.4byte	.LASF77
 1782 04ce 09       		.byte	0x9
 1783 04cf 4801     		.2byte	0x148
 1784 04d1 D5040000 		.4byte	0x4d5
 1785 04d5 0D       		.uleb128 0xd
 1786 04d6 04       		.byte	0x4
 1787 04d7 DB040000 		.4byte	0x4db
 1788 04db 0E       		.uleb128 0xe
 1789 04dc EB040000 		.4byte	0x4eb
 1790 04e0 0F       		.uleb128 0xf
 1791 04e1 A1040000 		.4byte	0x4a1
 1792 04e5 0F       		.uleb128 0xf
 1793 04e6 E9030000 		.4byte	0x3e9
 1794 04ea 00       		.byte	0
 1795 04eb 07       		.uleb128 0x7
 1796 04ec 24       		.byte	0x24
 1797 04ed 09       		.byte	0x9
ARM GAS  /tmp/ccc9u8vF.s 			page 33


 1798 04ee 4E01     		.2byte	0x14e
 1799 04f0 6A050000 		.4byte	0x56a
 1800 04f4 09       		.uleb128 0x9
 1801 04f5 10040000 		.4byte	.LASF78
 1802 04f9 09       		.byte	0x9
 1803 04fa 5201     		.2byte	0x152
 1804 04fc 84040000 		.4byte	0x484
 1805 0500 00       		.byte	0
 1806 0501 09       		.uleb128 0x9
 1807 0502 7E030000 		.4byte	.LASF79
 1808 0506 09       		.byte	0x9
 1809 0507 5601     		.2byte	0x156
 1810 0509 84040000 		.4byte	0x484
 1811 050d 04       		.byte	0x4
 1812 050e 09       		.uleb128 0x9
 1813 050f 11030000 		.4byte	.LASF80
 1814 0513 09       		.byte	0x9
 1815 0514 5A01     		.2byte	0x15a
 1816 0516 84040000 		.4byte	0x484
 1817 051a 08       		.byte	0x8
 1818 051b 09       		.uleb128 0x9
 1819 051c 47000000 		.4byte	.LASF81
 1820 0520 09       		.byte	0x9
 1821 0521 5E01     		.2byte	0x15e
 1822 0523 A7040000 		.4byte	0x4a7
 1823 0527 0C       		.byte	0xc
 1824 0528 09       		.uleb128 0x9
 1825 0529 EE020000 		.4byte	.LASF82
 1826 052d 09       		.byte	0x9
 1827 052e 6201     		.2byte	0x162
 1828 0530 C9040000 		.4byte	0x4c9
 1829 0534 10       		.byte	0x10
 1830 0535 09       		.uleb128 0x9
 1831 0536 91040000 		.4byte	.LASF83
 1832 053a 09       		.byte	0x9
 1833 053b 6701     		.2byte	0x167
 1834 053d BF000000 		.4byte	0xbf
 1835 0541 14       		.byte	0x14
 1836 0542 08       		.uleb128 0x8
 1837 0543 63723100 		.ascii	"cr1\000"
 1838 0547 09       		.byte	0x9
 1839 0548 6B01     		.2byte	0x16b
 1840 054a BF000000 		.4byte	0xbf
 1841 054e 18       		.byte	0x18
 1842 054f 08       		.uleb128 0x8
 1843 0550 63723200 		.ascii	"cr2\000"
 1844 0554 09       		.byte	0x9
 1845 0555 6F01     		.2byte	0x16f
 1846 0557 BF000000 		.4byte	0xbf
 1847 055b 1C       		.byte	0x1c
 1848 055c 08       		.uleb128 0x8
 1849 055d 63723300 		.ascii	"cr3\000"
 1850 0561 09       		.byte	0x9
 1851 0562 7301     		.2byte	0x173
 1852 0564 BF000000 		.4byte	0xbf
 1853 0568 20       		.byte	0x20
 1854 0569 00       		.byte	0
ARM GAS  /tmp/ccc9u8vF.s 			page 34


 1855 056a 0A       		.uleb128 0xa
 1856 056b AD000000 		.4byte	.LASF84
 1857 056f 09       		.byte	0x9
 1858 0570 7401     		.2byte	0x174
 1859 0572 EB040000 		.4byte	0x4eb
 1860 0576 0D       		.uleb128 0xd
 1861 0577 04       		.byte	0x4
 1862 0578 7C050000 		.4byte	0x57c
 1863 057c 10       		.uleb128 0x10
 1864 057d 6A050000 		.4byte	0x56a
 1865 0581 14       		.uleb128 0x14
 1866 0582 CC020000 		.4byte	.LASF108
 1867 0586 01       		.byte	0x1
 1868 0587 5C       		.byte	0x5c
 1869 0588 E9030000 		.4byte	0x3e9
 1870 058c 00000000 		.4byte	.LFB118
 1871 0590 6A000000 		.4byte	.LFE118-.LFB118
 1872 0594 01       		.uleb128 0x1
 1873 0595 9C       		.byte	0x9c
 1874 0596 B7050000 		.4byte	0x5b7
 1875 059a 15       		.uleb128 0x15
 1876 059b 69737200 		.ascii	"isr\000"
 1877 059f 01       		.byte	0x1
 1878 05a0 5C       		.byte	0x5c
 1879 05a1 BF000000 		.4byte	0xbf
 1880 05a5 02       		.uleb128 0x2
 1881 05a6 91       		.byte	0x91
 1882 05a7 74       		.sleb128 -12
 1883 05a8 16       		.uleb128 0x16
 1884 05a9 73747300 		.ascii	"sts\000"
 1885 05ad 01       		.byte	0x1
 1886 05ae 5D       		.byte	0x5d
 1887 05af E9030000 		.4byte	0x3e9
 1888 05b3 02       		.uleb128 0x2
 1889 05b4 91       		.byte	0x91
 1890 05b5 7C       		.sleb128 -4
 1891 05b6 00       		.byte	0
 1892 05b7 17       		.uleb128 0x17
 1893 05b8 C9010000 		.4byte	.LASF87
 1894 05bc 01       		.byte	0x1
 1895 05bd 71       		.byte	0x71
 1896 05be 00000000 		.4byte	.LFB119
 1897 05c2 56000000 		.4byte	.LFE119-.LFB119
 1898 05c6 01       		.uleb128 0x1
 1899 05c7 9C       		.byte	0x9c
 1900 05c8 E9050000 		.4byte	0x5e9
 1901 05cc 18       		.uleb128 0x18
 1902 05cd BD020000 		.4byte	.LASF85
 1903 05d1 01       		.byte	0x1
 1904 05d2 71       		.byte	0x71
 1905 05d3 A1040000 		.4byte	0x4a1
 1906 05d7 02       		.uleb128 0x2
 1907 05d8 91       		.byte	0x91
 1908 05d9 74       		.sleb128 -12
 1909 05da 19       		.uleb128 0x19
 1910 05db EC030000 		.4byte	.LASF86
 1911 05df 01       		.byte	0x1
ARM GAS  /tmp/ccc9u8vF.s 			page 35


 1912 05e0 72       		.byte	0x72
 1913 05e1 BF000000 		.4byte	0xbf
 1914 05e5 02       		.uleb128 0x2
 1915 05e6 91       		.byte	0x91
 1916 05e7 7C       		.sleb128 -4
 1917 05e8 00       		.byte	0
 1918 05e9 17       		.uleb128 0x17
 1919 05ea 67000000 		.4byte	.LASF88
 1920 05ee 01       		.byte	0x1
 1921 05ef 86       		.byte	0x86
 1922 05f0 00000000 		.4byte	.LFB120
 1923 05f4 70000000 		.4byte	.LFE120-.LFB120
 1924 05f8 01       		.uleb128 0x1
 1925 05f9 9C       		.byte	0x9c
 1926 05fa 0D060000 		.4byte	0x60d
 1927 05fe 18       		.uleb128 0x18
 1928 05ff BD020000 		.4byte	.LASF85
 1929 0603 01       		.byte	0x1
 1930 0604 86       		.byte	0x86
 1931 0605 A1040000 		.4byte	0x4a1
 1932 0609 02       		.uleb128 0x2
 1933 060a 91       		.byte	0x91
 1934 060b 7C       		.sleb128 -4
 1935 060c 00       		.byte	0
 1936 060d 1A       		.uleb128 0x1a
 1937 060e 77040000 		.4byte	.LASF89
 1938 0612 01       		.byte	0x1
 1939 0613 98       		.byte	0x98
 1940 0614 00000000 		.4byte	.LFB121
 1941 0618 A0000000 		.4byte	.LFE121-.LFB121
 1942 061c 01       		.uleb128 0x1
 1943 061d 9C       		.byte	0x9c
 1944 061e 4B060000 		.4byte	0x64b
 1945 0622 18       		.uleb128 0x18
 1946 0623 BD020000 		.4byte	.LASF85
 1947 0627 01       		.byte	0x1
 1948 0628 98       		.byte	0x98
 1949 0629 A1040000 		.4byte	0x4a1
 1950 062d 02       		.uleb128 0x2
 1951 062e 91       		.byte	0x91
 1952 062f 6C       		.sleb128 -20
 1953 0630 16       		.uleb128 0x16
 1954 0631 63723100 		.ascii	"cr1\000"
 1955 0635 01       		.byte	0x1
 1956 0636 99       		.byte	0x99
 1957 0637 BF000000 		.4byte	0xbf
 1958 063b 02       		.uleb128 0x2
 1959 063c 91       		.byte	0x91
 1960 063d 74       		.sleb128 -12
 1961 063e 16       		.uleb128 0x16
 1962 063f 7500     		.ascii	"u\000"
 1963 0641 01       		.byte	0x1
 1964 0642 9A       		.byte	0x9a
 1965 0643 66030000 		.4byte	0x366
 1966 0647 02       		.uleb128 0x2
 1967 0648 91       		.byte	0x91
 1968 0649 70       		.sleb128 -16
ARM GAS  /tmp/ccc9u8vF.s 			page 36


 1969 064a 00       		.byte	0
 1970 064b 1A       		.uleb128 0x1a
 1971 064c 3E040000 		.4byte	.LASF90
 1972 0650 01       		.byte	0x1
 1973 0651 C5       		.byte	0xc5
 1974 0652 00000000 		.4byte	.LFB122
 1975 0656 98000000 		.4byte	.LFE122-.LFB122
 1976 065a 01       		.uleb128 0x1
 1977 065b 9C       		.byte	0x9c
 1978 065c 7D060000 		.4byte	0x67d
 1979 0660 18       		.uleb128 0x18
 1980 0661 BD020000 		.4byte	.LASF85
 1981 0665 01       		.byte	0x1
 1982 0666 C5       		.byte	0xc5
 1983 0667 A1040000 		.4byte	0x4a1
 1984 066b 02       		.uleb128 0x2
 1985 066c 91       		.byte	0x91
 1986 066d 74       		.sleb128 -12
 1987 066e 18       		.uleb128 0x18
 1988 066f 83040000 		.4byte	.LASF91
 1989 0673 01       		.byte	0x1
 1990 0674 C5       		.byte	0xc5
 1991 0675 BF000000 		.4byte	0xbf
 1992 0679 02       		.uleb128 0x2
 1993 067a 91       		.byte	0x91
 1994 067b 70       		.sleb128 -16
 1995 067c 00       		.byte	0
 1996 067d 1A       		.uleb128 0x1a
 1997 067e F7020000 		.4byte	.LASF92
 1998 0682 01       		.byte	0x1
 1999 0683 ED       		.byte	0xed
 2000 0684 00000000 		.4byte	.LFB123
 2001 0688 6C000000 		.4byte	.LFE123-.LFB123
 2002 068c 01       		.uleb128 0x1
 2003 068d 9C       		.byte	0x9c
 2004 068e AF060000 		.4byte	0x6af
 2005 0692 18       		.uleb128 0x18
 2006 0693 BD020000 		.4byte	.LASF85
 2007 0697 01       		.byte	0x1
 2008 0698 ED       		.byte	0xed
 2009 0699 A1040000 		.4byte	0x4a1
 2010 069d 02       		.uleb128 0x2
 2011 069e 91       		.byte	0x91
 2012 069f 74       		.sleb128 -12
 2013 06a0 18       		.uleb128 0x18
 2014 06a1 83040000 		.4byte	.LASF91
 2015 06a5 01       		.byte	0x1
 2016 06a6 ED       		.byte	0xed
 2017 06a7 BF000000 		.4byte	0xbf
 2018 06ab 02       		.uleb128 0x2
 2019 06ac 91       		.byte	0x91
 2020 06ad 70       		.sleb128 -16
 2021 06ae 00       		.byte	0
 2022 06af 1B       		.uleb128 0x1b
 2023 06b0 AD020000 		.4byte	.LASF93
 2024 06b4 01       		.byte	0x1
 2025 06b5 0A01     		.2byte	0x10a
ARM GAS  /tmp/ccc9u8vF.s 			page 37


 2026 06b7 00000000 		.4byte	.LFB124
 2027 06bb 64000000 		.4byte	.LFE124-.LFB124
 2028 06bf 01       		.uleb128 0x1
 2029 06c0 9C       		.byte	0x9c
 2030 06c1 F1060000 		.4byte	0x6f1
 2031 06c5 1C       		.uleb128 0x1c
 2032 06c6 BD020000 		.4byte	.LASF85
 2033 06ca 01       		.byte	0x1
 2034 06cb 0A01     		.2byte	0x10a
 2035 06cd A1040000 		.4byte	0x4a1
 2036 06d1 02       		.uleb128 0x2
 2037 06d2 91       		.byte	0x91
 2038 06d3 6C       		.sleb128 -20
 2039 06d4 1D       		.uleb128 0x1d
 2040 06d5 69737200 		.ascii	"isr\000"
 2041 06d9 01       		.byte	0x1
 2042 06da 0B01     		.2byte	0x10b
 2043 06dc BF000000 		.4byte	0xbf
 2044 06e0 02       		.uleb128 0x2
 2045 06e1 91       		.byte	0x91
 2046 06e2 70       		.sleb128 -16
 2047 06e3 1D       		.uleb128 0x1d
 2048 06e4 7500     		.ascii	"u\000"
 2049 06e6 01       		.byte	0x1
 2050 06e7 0C01     		.2byte	0x10c
 2051 06e9 66030000 		.4byte	0x366
 2052 06ed 02       		.uleb128 0x2
 2053 06ee 91       		.byte	0x91
 2054 06ef 74       		.sleb128 -12
 2055 06f0 00       		.byte	0
 2056 06f1 1E       		.uleb128 0x1e
 2057 06f2 A4020000 		.4byte	.LASF94
 2058 06f6 01       		.byte	0x1
 2059 06f7 5101     		.2byte	0x151
 2060 06f9 00000000 		.4byte	.LFB125
 2061 06fd 1C000000 		.4byte	.LFE125-.LFB125
 2062 0701 01       		.uleb128 0x1
 2063 0702 9C       		.byte	0x9c
 2064 0703 1E       		.uleb128 0x1e
 2065 0704 32000000 		.4byte	.LASF95
 2066 0708 01       		.byte	0x1
 2067 0709 6401     		.2byte	0x164
 2068 070b 00000000 		.4byte	.LFB126
 2069 070f 34000000 		.4byte	.LFE126-.LFB126
 2070 0713 01       		.uleb128 0x1
 2071 0714 9C       		.byte	0x9c
 2072 0715 1F       		.uleb128 0x1f
 2073 0716 D8030000 		.4byte	.LASF96
 2074 071a 01       		.byte	0x1
 2075 071b 8601     		.2byte	0x186
 2076 071d 00000000 		.4byte	.LFB127
 2077 0721 E8000000 		.4byte	.LFE127-.LFB127
 2078 0725 01       		.uleb128 0x1
 2079 0726 9C       		.byte	0x9c
 2080 0727 52070000 		.4byte	0x752
 2081 072b 1C       		.uleb128 0x1c
 2082 072c BD020000 		.4byte	.LASF85
ARM GAS  /tmp/ccc9u8vF.s 			page 38


 2083 0730 01       		.byte	0x1
 2084 0731 8601     		.2byte	0x186
 2085 0733 A1040000 		.4byte	0x4a1
 2086 0737 02       		.uleb128 0x2
 2087 0738 91       		.byte	0x91
 2088 0739 6C       		.sleb128 -20
 2089 073a 20       		.uleb128 0x20
 2090 073b 16000000 		.4byte	.LBB2
 2091 073f 64000000 		.4byte	.LBE2-.LBB2
 2092 0743 1D       		.uleb128 0x1d
 2093 0744 6200     		.ascii	"b\000"
 2094 0746 01       		.byte	0x1
 2095 0747 B501     		.2byte	0x1b5
 2096 0749 CA000000 		.4byte	0xca
 2097 074d 02       		.uleb128 0x2
 2098 074e 91       		.byte	0x91
 2099 074f 77       		.sleb128 -9
 2100 0750 00       		.byte	0
 2101 0751 00       		.byte	0
 2102 0752 1F       		.uleb128 0x1f
 2103 0753 B0040000 		.4byte	.LASF97
 2104 0757 01       		.byte	0x1
 2105 0758 DD01     		.2byte	0x1dd
 2106 075a 00000000 		.4byte	.LFB128
 2107 075e 54000000 		.4byte	.LFE128-.LFB128
 2108 0762 01       		.uleb128 0x1
 2109 0763 9C       		.byte	0x9c
 2110 0764 78070000 		.4byte	0x778
 2111 0768 1C       		.uleb128 0x1c
 2112 0769 BD020000 		.4byte	.LASF85
 2113 076d 01       		.byte	0x1
 2114 076e DD01     		.2byte	0x1dd
 2115 0770 A1040000 		.4byte	0x4a1
 2116 0774 02       		.uleb128 0x2
 2117 0775 91       		.byte	0x91
 2118 0776 74       		.sleb128 -12
 2119 0777 00       		.byte	0
 2120 0778 21       		.uleb128 0x21
 2121 0779 9C040000 		.4byte	.LASF98
 2122 077d 01       		.byte	0x1
 2123 077e 0902     		.2byte	0x209
 2124 0780 00000000 		.4byte	.LFB129
 2125 0784 44000000 		.4byte	.LFE129-.LFB129
 2126 0788 01       		.uleb128 0x1
 2127 0789 9C       		.byte	0x9c
 2128 078a BA070000 		.4byte	0x7ba
 2129 078e 1C       		.uleb128 0x1c
 2130 078f BD020000 		.4byte	.LASF85
 2131 0793 01       		.byte	0x1
 2132 0794 0902     		.2byte	0x209
 2133 0796 A1040000 		.4byte	0x4a1
 2134 079a 02       		.uleb128 0x2
 2135 079b 91       		.byte	0x91
 2136 079c 7C       		.sleb128 -4
 2137 079d 22       		.uleb128 0x22
 2138 079e 6E00     		.ascii	"n\000"
 2139 07a0 01       		.byte	0x1
ARM GAS  /tmp/ccc9u8vF.s 			page 39


 2140 07a1 0902     		.2byte	0x209
 2141 07a3 28000000 		.4byte	0x28
 2142 07a7 02       		.uleb128 0x2
 2143 07a8 91       		.byte	0x91
 2144 07a9 78       		.sleb128 -8
 2145 07aa 1C       		.uleb128 0x1c
 2146 07ab 07020000 		.4byte	.LASF99
 2147 07af 01       		.byte	0x1
 2148 07b0 0902     		.2byte	0x209
 2149 07b2 BA070000 		.4byte	0x7ba
 2150 07b6 02       		.uleb128 0x2
 2151 07b7 91       		.byte	0x91
 2152 07b8 74       		.sleb128 -12
 2153 07b9 00       		.byte	0
 2154 07ba 0D       		.uleb128 0xd
 2155 07bb 04       		.byte	0x4
 2156 07bc C0070000 		.4byte	0x7c0
 2157 07c0 23       		.uleb128 0x23
 2158 07c1 24       		.uleb128 0x24
 2159 07c2 12020000 		.4byte	.LASF101
 2160 07c6 01       		.byte	0x1
 2161 07c7 1E02     		.2byte	0x21e
 2162 07c9 28000000 		.4byte	0x28
 2163 07cd 00000000 		.4byte	.LFB130
 2164 07d1 3A000000 		.4byte	.LFE130-.LFB130
 2165 07d5 01       		.uleb128 0x1
 2166 07d6 9C       		.byte	0x9c
 2167 07d7 EB070000 		.4byte	0x7eb
 2168 07db 1C       		.uleb128 0x1c
 2169 07dc BD020000 		.4byte	.LASF85
 2170 07e0 01       		.byte	0x1
 2171 07e1 1E02     		.2byte	0x21e
 2172 07e3 A1040000 		.4byte	0x4a1
 2173 07e7 02       		.uleb128 0x2
 2174 07e8 91       		.byte	0x91
 2175 07e9 7C       		.sleb128 -4
 2176 07ea 00       		.byte	0
 2177 07eb 21       		.uleb128 0x21
 2178 07ec 00000000 		.4byte	.LASF100
 2179 07f0 01       		.byte	0x1
 2180 07f1 2F02     		.2byte	0x22f
 2181 07f3 00000000 		.4byte	.LFB131
 2182 07f7 6C000000 		.4byte	.LFE131-.LFB131
 2183 07fb 01       		.uleb128 0x1
 2184 07fc 9C       		.byte	0x9c
 2185 07fd 2D080000 		.4byte	0x82d
 2186 0801 1C       		.uleb128 0x1c
 2187 0802 BD020000 		.4byte	.LASF85
 2188 0806 01       		.byte	0x1
 2189 0807 2F02     		.2byte	0x22f
 2190 0809 A1040000 		.4byte	0x4a1
 2191 080d 02       		.uleb128 0x2
 2192 080e 91       		.byte	0x91
 2193 080f 7C       		.sleb128 -4
 2194 0810 22       		.uleb128 0x22
 2195 0811 6E00     		.ascii	"n\000"
 2196 0813 01       		.byte	0x1
ARM GAS  /tmp/ccc9u8vF.s 			page 40


 2197 0814 2F02     		.2byte	0x22f
 2198 0816 28000000 		.4byte	0x28
 2199 081a 02       		.uleb128 0x2
 2200 081b 91       		.byte	0x91
 2201 081c 78       		.sleb128 -8
 2202 081d 1C       		.uleb128 0x1c
 2203 081e 5B000000 		.4byte	.LASF74
 2204 0822 01       		.byte	0x1
 2205 0823 2F02     		.2byte	0x22f
 2206 0825 DC000000 		.4byte	0xdc
 2207 0829 02       		.uleb128 0x2
 2208 082a 91       		.byte	0x91
 2209 082b 74       		.sleb128 -12
 2210 082c 00       		.byte	0
 2211 082d 25       		.uleb128 0x25
 2212 082e CC000000 		.4byte	.LASF102
 2213 0832 01       		.byte	0x1
 2214 0833 4702     		.2byte	0x247
 2215 0835 28000000 		.4byte	0x28
 2216 0839 00000000 		.4byte	.LFB132
 2217 083d 48000000 		.4byte	.LFE132-.LFB132
 2218 0841 01       		.uleb128 0x1
 2219 0842 9C       		.byte	0x9c
 2220 0843 64080000 		.4byte	0x864
 2221 0847 1C       		.uleb128 0x1c
 2222 0848 BD020000 		.4byte	.LASF85
 2223 084c 01       		.byte	0x1
 2224 084d 4702     		.2byte	0x247
 2225 084f A1040000 		.4byte	0x4a1
 2226 0853 02       		.uleb128 0x2
 2227 0854 91       		.byte	0x91
 2228 0855 6C       		.sleb128 -20
 2229 0856 1D       		.uleb128 0x1d
 2230 0857 6E00     		.ascii	"n\000"
 2231 0859 01       		.byte	0x1
 2232 085a 4802     		.2byte	0x248
 2233 085c 28000000 		.4byte	0x28
 2234 0860 02       		.uleb128 0x2
 2235 0861 91       		.byte	0x91
 2236 0862 74       		.sleb128 -12
 2237 0863 00       		.byte	0
 2238 0864 26       		.uleb128 0x26
 2239 0865 B8000000 		.4byte	.LASF103
 2240 0869 0A       		.byte	0xa
 2241 086a 9806     		.2byte	0x698
 2242 086c F6000000 		.4byte	0xf6
 2243 0870 27       		.uleb128 0x27
 2244 0871 3A030000 		.4byte	0x33a
 2245 0875 80080000 		.4byte	0x880
 2246 0879 28       		.uleb128 0x28
 2247 087a E3000000 		.4byte	0xe3
 2248 087e 0B       		.byte	0xb
 2249 087f 00       		.byte	0
 2250 0880 26       		.uleb128 0x26
 2251 0881 9A000000 		.4byte	.LASF104
 2252 0885 07       		.byte	0x7
 2253 0886 8401     		.2byte	0x184
ARM GAS  /tmp/ccc9u8vF.s 			page 41


 2254 0888 8C080000 		.4byte	0x88c
 2255 088c 10       		.uleb128 0x10
 2256 088d 70080000 		.4byte	0x870
 2257 0891 29       		.uleb128 0x29
 2258 0892 DE050000 		.4byte	.LASF105
 2259 0896 01       		.byte	0x1
 2260 0897 4A       		.byte	0x4a
 2261 0898 F5030000 		.4byte	0x3f5
 2262 089c 05       		.uleb128 0x5
 2263 089d 03       		.byte	0x3
 2264 089e 00000000 		.4byte	UARTD3
 2265 08a2 00       		.byte	0
 2266              		.section	.debug_abbrev,"",%progbits
 2267              	.Ldebug_abbrev0:
 2268 0000 01       		.uleb128 0x1
 2269 0001 11       		.uleb128 0x11
 2270 0002 01       		.byte	0x1
 2271 0003 25       		.uleb128 0x25
 2272 0004 0E       		.uleb128 0xe
 2273 0005 13       		.uleb128 0x13
 2274 0006 0B       		.uleb128 0xb
 2275 0007 03       		.uleb128 0x3
 2276 0008 0E       		.uleb128 0xe
 2277 0009 55       		.uleb128 0x55
 2278 000a 17       		.uleb128 0x17
 2279 000b 11       		.uleb128 0x11
 2280 000c 01       		.uleb128 0x1
 2281 000d 10       		.uleb128 0x10
 2282 000e 17       		.uleb128 0x17
 2283 000f 00       		.byte	0
 2284 0010 00       		.byte	0
 2285 0011 02       		.uleb128 0x2
 2286 0012 24       		.uleb128 0x24
 2287 0013 00       		.byte	0
 2288 0014 0B       		.uleb128 0xb
 2289 0015 0B       		.uleb128 0xb
 2290 0016 3E       		.uleb128 0x3e
 2291 0017 0B       		.uleb128 0xb
 2292 0018 03       		.uleb128 0x3
 2293 0019 08       		.uleb128 0x8
 2294 001a 00       		.byte	0
 2295 001b 00       		.byte	0
 2296 001c 03       		.uleb128 0x3
 2297 001d 16       		.uleb128 0x16
 2298 001e 00       		.byte	0
 2299 001f 03       		.uleb128 0x3
 2300 0020 0E       		.uleb128 0xe
 2301 0021 3A       		.uleb128 0x3a
 2302 0022 0B       		.uleb128 0xb
 2303 0023 3B       		.uleb128 0x3b
 2304 0024 0B       		.uleb128 0xb
 2305 0025 49       		.uleb128 0x49
 2306 0026 13       		.uleb128 0x13
 2307 0027 00       		.byte	0
 2308 0028 00       		.byte	0
 2309 0029 04       		.uleb128 0x4
 2310 002a 24       		.uleb128 0x24
ARM GAS  /tmp/ccc9u8vF.s 			page 42


 2311 002b 00       		.byte	0
 2312 002c 0B       		.uleb128 0xb
 2313 002d 0B       		.uleb128 0xb
 2314 002e 3E       		.uleb128 0x3e
 2315 002f 0B       		.uleb128 0xb
 2316 0030 03       		.uleb128 0x3
 2317 0031 0E       		.uleb128 0xe
 2318 0032 00       		.byte	0
 2319 0033 00       		.byte	0
 2320 0034 05       		.uleb128 0x5
 2321 0035 0F       		.uleb128 0xf
 2322 0036 00       		.byte	0
 2323 0037 0B       		.uleb128 0xb
 2324 0038 0B       		.uleb128 0xb
 2325 0039 00       		.byte	0
 2326 003a 00       		.byte	0
 2327 003b 06       		.uleb128 0x6
 2328 003c 35       		.uleb128 0x35
 2329 003d 00       		.byte	0
 2330 003e 49       		.uleb128 0x49
 2331 003f 13       		.uleb128 0x13
 2332 0040 00       		.byte	0
 2333 0041 00       		.byte	0
 2334 0042 07       		.uleb128 0x7
 2335 0043 13       		.uleb128 0x13
 2336 0044 01       		.byte	0x1
 2337 0045 0B       		.uleb128 0xb
 2338 0046 0B       		.uleb128 0xb
 2339 0047 3A       		.uleb128 0x3a
 2340 0048 0B       		.uleb128 0xb
 2341 0049 3B       		.uleb128 0x3b
 2342 004a 05       		.uleb128 0x5
 2343 004b 01       		.uleb128 0x1
 2344 004c 13       		.uleb128 0x13
 2345 004d 00       		.byte	0
 2346 004e 00       		.byte	0
 2347 004f 08       		.uleb128 0x8
 2348 0050 0D       		.uleb128 0xd
 2349 0051 00       		.byte	0
 2350 0052 03       		.uleb128 0x3
 2351 0053 08       		.uleb128 0x8
 2352 0054 3A       		.uleb128 0x3a
 2353 0055 0B       		.uleb128 0xb
 2354 0056 3B       		.uleb128 0x3b
 2355 0057 05       		.uleb128 0x5
 2356 0058 49       		.uleb128 0x49
 2357 0059 13       		.uleb128 0x13
 2358 005a 38       		.uleb128 0x38
 2359 005b 0B       		.uleb128 0xb
 2360 005c 00       		.byte	0
 2361 005d 00       		.byte	0
 2362 005e 09       		.uleb128 0x9
 2363 005f 0D       		.uleb128 0xd
 2364 0060 00       		.byte	0
 2365 0061 03       		.uleb128 0x3
 2366 0062 0E       		.uleb128 0xe
 2367 0063 3A       		.uleb128 0x3a
ARM GAS  /tmp/ccc9u8vF.s 			page 43


 2368 0064 0B       		.uleb128 0xb
 2369 0065 3B       		.uleb128 0x3b
 2370 0066 05       		.uleb128 0x5
 2371 0067 49       		.uleb128 0x49
 2372 0068 13       		.uleb128 0x13
 2373 0069 38       		.uleb128 0x38
 2374 006a 0B       		.uleb128 0xb
 2375 006b 00       		.byte	0
 2376 006c 00       		.byte	0
 2377 006d 0A       		.uleb128 0xa
 2378 006e 16       		.uleb128 0x16
 2379 006f 00       		.byte	0
 2380 0070 03       		.uleb128 0x3
 2381 0071 0E       		.uleb128 0xe
 2382 0072 3A       		.uleb128 0x3a
 2383 0073 0B       		.uleb128 0xb
 2384 0074 3B       		.uleb128 0x3b
 2385 0075 05       		.uleb128 0x5
 2386 0076 49       		.uleb128 0x49
 2387 0077 13       		.uleb128 0x13
 2388 0078 00       		.byte	0
 2389 0079 00       		.byte	0
 2390 007a 0B       		.uleb128 0xb
 2391 007b 13       		.uleb128 0x13
 2392 007c 01       		.byte	0x1
 2393 007d 0B       		.uleb128 0xb
 2394 007e 0B       		.uleb128 0xb
 2395 007f 3A       		.uleb128 0x3a
 2396 0080 0B       		.uleb128 0xb
 2397 0081 3B       		.uleb128 0x3b
 2398 0082 0B       		.uleb128 0xb
 2399 0083 01       		.uleb128 0x1
 2400 0084 13       		.uleb128 0x13
 2401 0085 00       		.byte	0
 2402 0086 00       		.byte	0
 2403 0087 0C       		.uleb128 0xc
 2404 0088 0D       		.uleb128 0xd
 2405 0089 00       		.byte	0
 2406 008a 03       		.uleb128 0x3
 2407 008b 0E       		.uleb128 0xe
 2408 008c 3A       		.uleb128 0x3a
 2409 008d 0B       		.uleb128 0xb
 2410 008e 3B       		.uleb128 0x3b
 2411 008f 0B       		.uleb128 0xb
 2412 0090 49       		.uleb128 0x49
 2413 0091 13       		.uleb128 0x13
 2414 0092 38       		.uleb128 0x38
 2415 0093 0B       		.uleb128 0xb
 2416 0094 00       		.byte	0
 2417 0095 00       		.byte	0
 2418 0096 0D       		.uleb128 0xd
 2419 0097 0F       		.uleb128 0xf
 2420 0098 00       		.byte	0
 2421 0099 0B       		.uleb128 0xb
 2422 009a 0B       		.uleb128 0xb
 2423 009b 49       		.uleb128 0x49
 2424 009c 13       		.uleb128 0x13
ARM GAS  /tmp/ccc9u8vF.s 			page 44


 2425 009d 00       		.byte	0
 2426 009e 00       		.byte	0
 2427 009f 0E       		.uleb128 0xe
 2428 00a0 15       		.uleb128 0x15
 2429 00a1 01       		.byte	0x1
 2430 00a2 27       		.uleb128 0x27
 2431 00a3 19       		.uleb128 0x19
 2432 00a4 01       		.uleb128 0x1
 2433 00a5 13       		.uleb128 0x13
 2434 00a6 00       		.byte	0
 2435 00a7 00       		.byte	0
 2436 00a8 0F       		.uleb128 0xf
 2437 00a9 05       		.uleb128 0x5
 2438 00aa 00       		.byte	0
 2439 00ab 49       		.uleb128 0x49
 2440 00ac 13       		.uleb128 0x13
 2441 00ad 00       		.byte	0
 2442 00ae 00       		.byte	0
 2443 00af 10       		.uleb128 0x10
 2444 00b0 26       		.uleb128 0x26
 2445 00b1 00       		.byte	0
 2446 00b2 49       		.uleb128 0x49
 2447 00b3 13       		.uleb128 0x13
 2448 00b4 00       		.byte	0
 2449 00b5 00       		.byte	0
 2450 00b6 11       		.uleb128 0x11
 2451 00b7 04       		.uleb128 0x4
 2452 00b8 01       		.byte	0x1
 2453 00b9 0B       		.uleb128 0xb
 2454 00ba 0B       		.uleb128 0xb
 2455 00bb 3A       		.uleb128 0x3a
 2456 00bc 0B       		.uleb128 0xb
 2457 00bd 3B       		.uleb128 0x3b
 2458 00be 0B       		.uleb128 0xb
 2459 00bf 01       		.uleb128 0x1
 2460 00c0 13       		.uleb128 0x13
 2461 00c1 00       		.byte	0
 2462 00c2 00       		.byte	0
 2463 00c3 12       		.uleb128 0x12
 2464 00c4 28       		.uleb128 0x28
 2465 00c5 00       		.byte	0
 2466 00c6 03       		.uleb128 0x3
 2467 00c7 0E       		.uleb128 0xe
 2468 00c8 1C       		.uleb128 0x1c
 2469 00c9 0D       		.uleb128 0xd
 2470 00ca 00       		.byte	0
 2471 00cb 00       		.byte	0
 2472 00cc 13       		.uleb128 0x13
 2473 00cd 13       		.uleb128 0x13
 2474 00ce 01       		.byte	0x1
 2475 00cf 03       		.uleb128 0x3
 2476 00d0 0E       		.uleb128 0xe
 2477 00d1 0B       		.uleb128 0xb
 2478 00d2 0B       		.uleb128 0xb
 2479 00d3 3A       		.uleb128 0x3a
 2480 00d4 0B       		.uleb128 0xb
 2481 00d5 3B       		.uleb128 0x3b
ARM GAS  /tmp/ccc9u8vF.s 			page 45


 2482 00d6 05       		.uleb128 0x5
 2483 00d7 01       		.uleb128 0x1
 2484 00d8 13       		.uleb128 0x13
 2485 00d9 00       		.byte	0
 2486 00da 00       		.byte	0
 2487 00db 14       		.uleb128 0x14
 2488 00dc 2E       		.uleb128 0x2e
 2489 00dd 01       		.byte	0x1
 2490 00de 03       		.uleb128 0x3
 2491 00df 0E       		.uleb128 0xe
 2492 00e0 3A       		.uleb128 0x3a
 2493 00e1 0B       		.uleb128 0xb
 2494 00e2 3B       		.uleb128 0x3b
 2495 00e3 0B       		.uleb128 0xb
 2496 00e4 27       		.uleb128 0x27
 2497 00e5 19       		.uleb128 0x19
 2498 00e6 49       		.uleb128 0x49
 2499 00e7 13       		.uleb128 0x13
 2500 00e8 11       		.uleb128 0x11
 2501 00e9 01       		.uleb128 0x1
 2502 00ea 12       		.uleb128 0x12
 2503 00eb 06       		.uleb128 0x6
 2504 00ec 40       		.uleb128 0x40
 2505 00ed 18       		.uleb128 0x18
 2506 00ee 9742     		.uleb128 0x2117
 2507 00f0 19       		.uleb128 0x19
 2508 00f1 01       		.uleb128 0x1
 2509 00f2 13       		.uleb128 0x13
 2510 00f3 00       		.byte	0
 2511 00f4 00       		.byte	0
 2512 00f5 15       		.uleb128 0x15
 2513 00f6 05       		.uleb128 0x5
 2514 00f7 00       		.byte	0
 2515 00f8 03       		.uleb128 0x3
 2516 00f9 08       		.uleb128 0x8
 2517 00fa 3A       		.uleb128 0x3a
 2518 00fb 0B       		.uleb128 0xb
 2519 00fc 3B       		.uleb128 0x3b
 2520 00fd 0B       		.uleb128 0xb
 2521 00fe 49       		.uleb128 0x49
 2522 00ff 13       		.uleb128 0x13
 2523 0100 02       		.uleb128 0x2
 2524 0101 18       		.uleb128 0x18
 2525 0102 00       		.byte	0
 2526 0103 00       		.byte	0
 2527 0104 16       		.uleb128 0x16
 2528 0105 34       		.uleb128 0x34
 2529 0106 00       		.byte	0
 2530 0107 03       		.uleb128 0x3
 2531 0108 08       		.uleb128 0x8
 2532 0109 3A       		.uleb128 0x3a
 2533 010a 0B       		.uleb128 0xb
 2534 010b 3B       		.uleb128 0x3b
 2535 010c 0B       		.uleb128 0xb
 2536 010d 49       		.uleb128 0x49
 2537 010e 13       		.uleb128 0x13
 2538 010f 02       		.uleb128 0x2
ARM GAS  /tmp/ccc9u8vF.s 			page 46


 2539 0110 18       		.uleb128 0x18
 2540 0111 00       		.byte	0
 2541 0112 00       		.byte	0
 2542 0113 17       		.uleb128 0x17
 2543 0114 2E       		.uleb128 0x2e
 2544 0115 01       		.byte	0x1
 2545 0116 03       		.uleb128 0x3
 2546 0117 0E       		.uleb128 0xe
 2547 0118 3A       		.uleb128 0x3a
 2548 0119 0B       		.uleb128 0xb
 2549 011a 3B       		.uleb128 0x3b
 2550 011b 0B       		.uleb128 0xb
 2551 011c 27       		.uleb128 0x27
 2552 011d 19       		.uleb128 0x19
 2553 011e 11       		.uleb128 0x11
 2554 011f 01       		.uleb128 0x1
 2555 0120 12       		.uleb128 0x12
 2556 0121 06       		.uleb128 0x6
 2557 0122 40       		.uleb128 0x40
 2558 0123 18       		.uleb128 0x18
 2559 0124 9742     		.uleb128 0x2117
 2560 0126 19       		.uleb128 0x19
 2561 0127 01       		.uleb128 0x1
 2562 0128 13       		.uleb128 0x13
 2563 0129 00       		.byte	0
 2564 012a 00       		.byte	0
 2565 012b 18       		.uleb128 0x18
 2566 012c 05       		.uleb128 0x5
 2567 012d 00       		.byte	0
 2568 012e 03       		.uleb128 0x3
 2569 012f 0E       		.uleb128 0xe
 2570 0130 3A       		.uleb128 0x3a
 2571 0131 0B       		.uleb128 0xb
 2572 0132 3B       		.uleb128 0x3b
 2573 0133 0B       		.uleb128 0xb
 2574 0134 49       		.uleb128 0x49
 2575 0135 13       		.uleb128 0x13
 2576 0136 02       		.uleb128 0x2
 2577 0137 18       		.uleb128 0x18
 2578 0138 00       		.byte	0
 2579 0139 00       		.byte	0
 2580 013a 19       		.uleb128 0x19
 2581 013b 34       		.uleb128 0x34
 2582 013c 00       		.byte	0
 2583 013d 03       		.uleb128 0x3
 2584 013e 0E       		.uleb128 0xe
 2585 013f 3A       		.uleb128 0x3a
 2586 0140 0B       		.uleb128 0xb
 2587 0141 3B       		.uleb128 0x3b
 2588 0142 0B       		.uleb128 0xb
 2589 0143 49       		.uleb128 0x49
 2590 0144 13       		.uleb128 0x13
 2591 0145 02       		.uleb128 0x2
 2592 0146 18       		.uleb128 0x18
 2593 0147 00       		.byte	0
 2594 0148 00       		.byte	0
 2595 0149 1A       		.uleb128 0x1a
ARM GAS  /tmp/ccc9u8vF.s 			page 47


 2596 014a 2E       		.uleb128 0x2e
 2597 014b 01       		.byte	0x1
 2598 014c 03       		.uleb128 0x3
 2599 014d 0E       		.uleb128 0xe
 2600 014e 3A       		.uleb128 0x3a
 2601 014f 0B       		.uleb128 0xb
 2602 0150 3B       		.uleb128 0x3b
 2603 0151 0B       		.uleb128 0xb
 2604 0152 27       		.uleb128 0x27
 2605 0153 19       		.uleb128 0x19
 2606 0154 11       		.uleb128 0x11
 2607 0155 01       		.uleb128 0x1
 2608 0156 12       		.uleb128 0x12
 2609 0157 06       		.uleb128 0x6
 2610 0158 40       		.uleb128 0x40
 2611 0159 18       		.uleb128 0x18
 2612 015a 9642     		.uleb128 0x2116
 2613 015c 19       		.uleb128 0x19
 2614 015d 01       		.uleb128 0x1
 2615 015e 13       		.uleb128 0x13
 2616 015f 00       		.byte	0
 2617 0160 00       		.byte	0
 2618 0161 1B       		.uleb128 0x1b
 2619 0162 2E       		.uleb128 0x2e
 2620 0163 01       		.byte	0x1
 2621 0164 03       		.uleb128 0x3
 2622 0165 0E       		.uleb128 0xe
 2623 0166 3A       		.uleb128 0x3a
 2624 0167 0B       		.uleb128 0xb
 2625 0168 3B       		.uleb128 0x3b
 2626 0169 05       		.uleb128 0x5
 2627 016a 27       		.uleb128 0x27
 2628 016b 19       		.uleb128 0x19
 2629 016c 11       		.uleb128 0x11
 2630 016d 01       		.uleb128 0x1
 2631 016e 12       		.uleb128 0x12
 2632 016f 06       		.uleb128 0x6
 2633 0170 40       		.uleb128 0x40
 2634 0171 18       		.uleb128 0x18
 2635 0172 9642     		.uleb128 0x2116
 2636 0174 19       		.uleb128 0x19
 2637 0175 01       		.uleb128 0x1
 2638 0176 13       		.uleb128 0x13
 2639 0177 00       		.byte	0
 2640 0178 00       		.byte	0
 2641 0179 1C       		.uleb128 0x1c
 2642 017a 05       		.uleb128 0x5
 2643 017b 00       		.byte	0
 2644 017c 03       		.uleb128 0x3
 2645 017d 0E       		.uleb128 0xe
 2646 017e 3A       		.uleb128 0x3a
 2647 017f 0B       		.uleb128 0xb
 2648 0180 3B       		.uleb128 0x3b
 2649 0181 05       		.uleb128 0x5
 2650 0182 49       		.uleb128 0x49
 2651 0183 13       		.uleb128 0x13
 2652 0184 02       		.uleb128 0x2
ARM GAS  /tmp/ccc9u8vF.s 			page 48


 2653 0185 18       		.uleb128 0x18
 2654 0186 00       		.byte	0
 2655 0187 00       		.byte	0
 2656 0188 1D       		.uleb128 0x1d
 2657 0189 34       		.uleb128 0x34
 2658 018a 00       		.byte	0
 2659 018b 03       		.uleb128 0x3
 2660 018c 08       		.uleb128 0x8
 2661 018d 3A       		.uleb128 0x3a
 2662 018e 0B       		.uleb128 0xb
 2663 018f 3B       		.uleb128 0x3b
 2664 0190 05       		.uleb128 0x5
 2665 0191 49       		.uleb128 0x49
 2666 0192 13       		.uleb128 0x13
 2667 0193 02       		.uleb128 0x2
 2668 0194 18       		.uleb128 0x18
 2669 0195 00       		.byte	0
 2670 0196 00       		.byte	0
 2671 0197 1E       		.uleb128 0x1e
 2672 0198 2E       		.uleb128 0x2e
 2673 0199 00       		.byte	0
 2674 019a 3F       		.uleb128 0x3f
 2675 019b 19       		.uleb128 0x19
 2676 019c 03       		.uleb128 0x3
 2677 019d 0E       		.uleb128 0xe
 2678 019e 3A       		.uleb128 0x3a
 2679 019f 0B       		.uleb128 0xb
 2680 01a0 3B       		.uleb128 0x3b
 2681 01a1 05       		.uleb128 0x5
 2682 01a2 27       		.uleb128 0x27
 2683 01a3 19       		.uleb128 0x19
 2684 01a4 11       		.uleb128 0x11
 2685 01a5 01       		.uleb128 0x1
 2686 01a6 12       		.uleb128 0x12
 2687 01a7 06       		.uleb128 0x6
 2688 01a8 40       		.uleb128 0x40
 2689 01a9 18       		.uleb128 0x18
 2690 01aa 9642     		.uleb128 0x2116
 2691 01ac 19       		.uleb128 0x19
 2692 01ad 00       		.byte	0
 2693 01ae 00       		.byte	0
 2694 01af 1F       		.uleb128 0x1f
 2695 01b0 2E       		.uleb128 0x2e
 2696 01b1 01       		.byte	0x1
 2697 01b2 3F       		.uleb128 0x3f
 2698 01b3 19       		.uleb128 0x19
 2699 01b4 03       		.uleb128 0x3
 2700 01b5 0E       		.uleb128 0xe
 2701 01b6 3A       		.uleb128 0x3a
 2702 01b7 0B       		.uleb128 0xb
 2703 01b8 3B       		.uleb128 0x3b
 2704 01b9 05       		.uleb128 0x5
 2705 01ba 27       		.uleb128 0x27
 2706 01bb 19       		.uleb128 0x19
 2707 01bc 11       		.uleb128 0x11
 2708 01bd 01       		.uleb128 0x1
 2709 01be 12       		.uleb128 0x12
ARM GAS  /tmp/ccc9u8vF.s 			page 49


 2710 01bf 06       		.uleb128 0x6
 2711 01c0 40       		.uleb128 0x40
 2712 01c1 18       		.uleb128 0x18
 2713 01c2 9642     		.uleb128 0x2116
 2714 01c4 19       		.uleb128 0x19
 2715 01c5 01       		.uleb128 0x1
 2716 01c6 13       		.uleb128 0x13
 2717 01c7 00       		.byte	0
 2718 01c8 00       		.byte	0
 2719 01c9 20       		.uleb128 0x20
 2720 01ca 0B       		.uleb128 0xb
 2721 01cb 01       		.byte	0x1
 2722 01cc 11       		.uleb128 0x11
 2723 01cd 01       		.uleb128 0x1
 2724 01ce 12       		.uleb128 0x12
 2725 01cf 06       		.uleb128 0x6
 2726 01d0 00       		.byte	0
 2727 01d1 00       		.byte	0
 2728 01d2 21       		.uleb128 0x21
 2729 01d3 2E       		.uleb128 0x2e
 2730 01d4 01       		.byte	0x1
 2731 01d5 3F       		.uleb128 0x3f
 2732 01d6 19       		.uleb128 0x19
 2733 01d7 03       		.uleb128 0x3
 2734 01d8 0E       		.uleb128 0xe
 2735 01d9 3A       		.uleb128 0x3a
 2736 01da 0B       		.uleb128 0xb
 2737 01db 3B       		.uleb128 0x3b
 2738 01dc 05       		.uleb128 0x5
 2739 01dd 27       		.uleb128 0x27
 2740 01de 19       		.uleb128 0x19
 2741 01df 11       		.uleb128 0x11
 2742 01e0 01       		.uleb128 0x1
 2743 01e1 12       		.uleb128 0x12
 2744 01e2 06       		.uleb128 0x6
 2745 01e3 40       		.uleb128 0x40
 2746 01e4 18       		.uleb128 0x18
 2747 01e5 9742     		.uleb128 0x2117
 2748 01e7 19       		.uleb128 0x19
 2749 01e8 01       		.uleb128 0x1
 2750 01e9 13       		.uleb128 0x13
 2751 01ea 00       		.byte	0
 2752 01eb 00       		.byte	0
 2753 01ec 22       		.uleb128 0x22
 2754 01ed 05       		.uleb128 0x5
 2755 01ee 00       		.byte	0
 2756 01ef 03       		.uleb128 0x3
 2757 01f0 08       		.uleb128 0x8
 2758 01f1 3A       		.uleb128 0x3a
 2759 01f2 0B       		.uleb128 0xb
 2760 01f3 3B       		.uleb128 0x3b
 2761 01f4 05       		.uleb128 0x5
 2762 01f5 49       		.uleb128 0x49
 2763 01f6 13       		.uleb128 0x13
 2764 01f7 02       		.uleb128 0x2
 2765 01f8 18       		.uleb128 0x18
 2766 01f9 00       		.byte	0
ARM GAS  /tmp/ccc9u8vF.s 			page 50


 2767 01fa 00       		.byte	0
 2768 01fb 23       		.uleb128 0x23
 2769 01fc 26       		.uleb128 0x26
 2770 01fd 00       		.byte	0
 2771 01fe 00       		.byte	0
 2772 01ff 00       		.byte	0
 2773 0200 24       		.uleb128 0x24
 2774 0201 2E       		.uleb128 0x2e
 2775 0202 01       		.byte	0x1
 2776 0203 3F       		.uleb128 0x3f
 2777 0204 19       		.uleb128 0x19
 2778 0205 03       		.uleb128 0x3
 2779 0206 0E       		.uleb128 0xe
 2780 0207 3A       		.uleb128 0x3a
 2781 0208 0B       		.uleb128 0xb
 2782 0209 3B       		.uleb128 0x3b
 2783 020a 05       		.uleb128 0x5
 2784 020b 27       		.uleb128 0x27
 2785 020c 19       		.uleb128 0x19
 2786 020d 49       		.uleb128 0x49
 2787 020e 13       		.uleb128 0x13
 2788 020f 11       		.uleb128 0x11
 2789 0210 01       		.uleb128 0x1
 2790 0211 12       		.uleb128 0x12
 2791 0212 06       		.uleb128 0x6
 2792 0213 40       		.uleb128 0x40
 2793 0214 18       		.uleb128 0x18
 2794 0215 9742     		.uleb128 0x2117
 2795 0217 19       		.uleb128 0x19
 2796 0218 01       		.uleb128 0x1
 2797 0219 13       		.uleb128 0x13
 2798 021a 00       		.byte	0
 2799 021b 00       		.byte	0
 2800 021c 25       		.uleb128 0x25
 2801 021d 2E       		.uleb128 0x2e
 2802 021e 01       		.byte	0x1
 2803 021f 3F       		.uleb128 0x3f
 2804 0220 19       		.uleb128 0x19
 2805 0221 03       		.uleb128 0x3
 2806 0222 0E       		.uleb128 0xe
 2807 0223 3A       		.uleb128 0x3a
 2808 0224 0B       		.uleb128 0xb
 2809 0225 3B       		.uleb128 0x3b
 2810 0226 05       		.uleb128 0x5
 2811 0227 27       		.uleb128 0x27
 2812 0228 19       		.uleb128 0x19
 2813 0229 49       		.uleb128 0x49
 2814 022a 13       		.uleb128 0x13
 2815 022b 11       		.uleb128 0x11
 2816 022c 01       		.uleb128 0x1
 2817 022d 12       		.uleb128 0x12
 2818 022e 06       		.uleb128 0x6
 2819 022f 40       		.uleb128 0x40
 2820 0230 18       		.uleb128 0x18
 2821 0231 9642     		.uleb128 0x2116
 2822 0233 19       		.uleb128 0x19
 2823 0234 01       		.uleb128 0x1
ARM GAS  /tmp/ccc9u8vF.s 			page 51


 2824 0235 13       		.uleb128 0x13
 2825 0236 00       		.byte	0
 2826 0237 00       		.byte	0
 2827 0238 26       		.uleb128 0x26
 2828 0239 34       		.uleb128 0x34
 2829 023a 00       		.byte	0
 2830 023b 03       		.uleb128 0x3
 2831 023c 0E       		.uleb128 0xe
 2832 023d 3A       		.uleb128 0x3a
 2833 023e 0B       		.uleb128 0xb
 2834 023f 3B       		.uleb128 0x3b
 2835 0240 05       		.uleb128 0x5
 2836 0241 49       		.uleb128 0x49
 2837 0242 13       		.uleb128 0x13
 2838 0243 3F       		.uleb128 0x3f
 2839 0244 19       		.uleb128 0x19
 2840 0245 3C       		.uleb128 0x3c
 2841 0246 19       		.uleb128 0x19
 2842 0247 00       		.byte	0
 2843 0248 00       		.byte	0
 2844 0249 27       		.uleb128 0x27
 2845 024a 01       		.uleb128 0x1
 2846 024b 01       		.byte	0x1
 2847 024c 49       		.uleb128 0x49
 2848 024d 13       		.uleb128 0x13
 2849 024e 01       		.uleb128 0x1
 2850 024f 13       		.uleb128 0x13
 2851 0250 00       		.byte	0
 2852 0251 00       		.byte	0
 2853 0252 28       		.uleb128 0x28
 2854 0253 21       		.uleb128 0x21
 2855 0254 00       		.byte	0
 2856 0255 49       		.uleb128 0x49
 2857 0256 13       		.uleb128 0x13
 2858 0257 2F       		.uleb128 0x2f
 2859 0258 0B       		.uleb128 0xb
 2860 0259 00       		.byte	0
 2861 025a 00       		.byte	0
 2862 025b 29       		.uleb128 0x29
 2863 025c 34       		.uleb128 0x34
 2864 025d 00       		.byte	0
 2865 025e 03       		.uleb128 0x3
 2866 025f 0E       		.uleb128 0xe
 2867 0260 3A       		.uleb128 0x3a
 2868 0261 0B       		.uleb128 0xb
 2869 0262 3B       		.uleb128 0x3b
 2870 0263 0B       		.uleb128 0xb
 2871 0264 49       		.uleb128 0x49
 2872 0265 13       		.uleb128 0x13
 2873 0266 3F       		.uleb128 0x3f
 2874 0267 19       		.uleb128 0x19
 2875 0268 02       		.uleb128 0x2
 2876 0269 18       		.uleb128 0x18
 2877 026a 00       		.byte	0
 2878 026b 00       		.byte	0
 2879 026c 00       		.byte	0
 2880              		.section	.debug_aranges,"",%progbits
ARM GAS  /tmp/ccc9u8vF.s 			page 52


 2881 0000 8C000000 		.4byte	0x8c
 2882 0004 0200     		.2byte	0x2
 2883 0006 00000000 		.4byte	.Ldebug_info0
 2884 000a 04       		.byte	0x4
 2885 000b 00       		.byte	0
 2886 000c 0000     		.2byte	0
 2887 000e 0000     		.2byte	0
 2888 0010 00000000 		.4byte	.LFB118
 2889 0014 6A000000 		.4byte	.LFE118-.LFB118
 2890 0018 00000000 		.4byte	.LFB119
 2891 001c 56000000 		.4byte	.LFE119-.LFB119
 2892 0020 00000000 		.4byte	.LFB120
 2893 0024 70000000 		.4byte	.LFE120-.LFB120
 2894 0028 00000000 		.4byte	.LFB121
 2895 002c A0000000 		.4byte	.LFE121-.LFB121
 2896 0030 00000000 		.4byte	.LFB122
 2897 0034 98000000 		.4byte	.LFE122-.LFB122
 2898 0038 00000000 		.4byte	.LFB123
 2899 003c 6C000000 		.4byte	.LFE123-.LFB123
 2900 0040 00000000 		.4byte	.LFB124
 2901 0044 64000000 		.4byte	.LFE124-.LFB124
 2902 0048 00000000 		.4byte	.LFB125
 2903 004c 1C000000 		.4byte	.LFE125-.LFB125
 2904 0050 00000000 		.4byte	.LFB126
 2905 0054 34000000 		.4byte	.LFE126-.LFB126
 2906 0058 00000000 		.4byte	.LFB127
 2907 005c E8000000 		.4byte	.LFE127-.LFB127
 2908 0060 00000000 		.4byte	.LFB128
 2909 0064 54000000 		.4byte	.LFE128-.LFB128
 2910 0068 00000000 		.4byte	.LFB129
 2911 006c 44000000 		.4byte	.LFE129-.LFB129
 2912 0070 00000000 		.4byte	.LFB130
 2913 0074 3A000000 		.4byte	.LFE130-.LFB130
 2914 0078 00000000 		.4byte	.LFB131
 2915 007c 6C000000 		.4byte	.LFE131-.LFB131
 2916 0080 00000000 		.4byte	.LFB132
 2917 0084 48000000 		.4byte	.LFE132-.LFB132
 2918 0088 00000000 		.4byte	0
 2919 008c 00000000 		.4byte	0
 2920              		.section	.debug_ranges,"",%progbits
 2921              	.Ldebug_ranges0:
 2922 0000 00000000 		.4byte	.LFB118
 2923 0004 6A000000 		.4byte	.LFE118
 2924 0008 00000000 		.4byte	.LFB119
 2925 000c 56000000 		.4byte	.LFE119
 2926 0010 00000000 		.4byte	.LFB120
 2927 0014 70000000 		.4byte	.LFE120
 2928 0018 00000000 		.4byte	.LFB121
 2929 001c A0000000 		.4byte	.LFE121
 2930 0020 00000000 		.4byte	.LFB122
 2931 0024 98000000 		.4byte	.LFE122
 2932 0028 00000000 		.4byte	.LFB123
 2933 002c 6C000000 		.4byte	.LFE123
 2934 0030 00000000 		.4byte	.LFB124
 2935 0034 64000000 		.4byte	.LFE124
 2936 0038 00000000 		.4byte	.LFB125
 2937 003c 1C000000 		.4byte	.LFE125
ARM GAS  /tmp/ccc9u8vF.s 			page 53


 2938 0040 00000000 		.4byte	.LFB126
 2939 0044 34000000 		.4byte	.LFE126
 2940 0048 00000000 		.4byte	.LFB127
 2941 004c E8000000 		.4byte	.LFE127
 2942 0050 00000000 		.4byte	.LFB128
 2943 0054 54000000 		.4byte	.LFE128
 2944 0058 00000000 		.4byte	.LFB129
 2945 005c 44000000 		.4byte	.LFE129
 2946 0060 00000000 		.4byte	.LFB130
 2947 0064 3A000000 		.4byte	.LFE130
 2948 0068 00000000 		.4byte	.LFB131
 2949 006c 6C000000 		.4byte	.LFE131
 2950 0070 00000000 		.4byte	.LFB132
 2951 0074 48000000 		.4byte	.LFE132
 2952 0078 00000000 		.4byte	0
 2953 007c 00000000 		.4byte	0
 2954              		.section	.debug_line,"",%progbits
 2955              	.Ldebug_line0:
 2956 0000 56040000 		.section	.debug_str,"MS",%progbits,1
 2956      0200C202 
 2956      00000201 
 2956      FB0E0D00 
 2956      01010101 
 2957              	.LASF100:
 2958 0000 75617274 		.ascii	"uart_lld_start_receive\000"
 2958      5F6C6C64 
 2958      5F737461 
 2958      72745F72 
 2958      65636569 
 2959              	.LASF64:
 2960 0017 75617274 		.ascii	"uartflags_t\000"
 2960      666C6167 
 2960      735F7400 
 2961              	.LASF61:
 2962 0023 55415254 		.ascii	"UART_RX_ACTIVE\000"
 2962      5F52585F 
 2962      41435449 
 2962      564500
 2963              	.LASF95:
 2964 0032 75617274 		.ascii	"uart_lld_init\000"
 2964      5F6C6C64 
 2964      5F696E69 
 2964      7400
 2965              	.LASF2:
 2966 0040 73697A65 		.ascii	"size_t\000"
 2966      5F7400
 2967              	.LASF81:
 2968 0047 72786368 		.ascii	"rxchar_cb\000"
 2968      61725F63 
 2968      6200
 2969              	.LASF3:
 2970 0051 5F5F7569 		.ascii	"__uint8_t\000"
 2970      6E74385F 
 2970      7400
 2971              	.LASF74:
 2972 005b 72786275 		.ascii	"rxbuf\000"
 2972      6600
ARM GAS  /tmp/ccc9u8vF.s 			page 54


 2973              	.LASF72:
 2974 0061 646D6172 		.ascii	"dmarx\000"
 2974      7800
 2975              	.LASF88:
 2976 0067 75736172 		.ascii	"usart_stop\000"
 2976      745F7374 
 2976      6F7000
 2977              	.LASF13:
 2978 0072 6C6F6E67 		.ascii	"long long unsigned int\000"
 2978      206C6F6E 
 2978      6720756E 
 2978      7369676E 
 2978      65642069 
 2979              	.LASF76:
 2980 0089 75617274 		.ascii	"uartccb_t\000"
 2980      6363625F 
 2980      7400
 2981              	.LASF49:
 2982 0093 76656374 		.ascii	"vector\000"
 2982      6F7200
 2983              	.LASF104:
 2984 009a 5F73746D 		.ascii	"_stm32_dma_streams\000"
 2984      33325F64 
 2984      6D615F73 
 2984      74726561 
 2984      6D7300
 2985              	.LASF84:
 2986 00ad 55415254 		.ascii	"UARTConfig\000"
 2986      436F6E66 
 2986      696700
 2987              	.LASF103:
 2988 00b8 49544D5F 		.ascii	"ITM_RxBuffer\000"
 2988      52784275 
 2988      66666572 
 2988      00
 2989              	.LASF18:
 2990 00c5 626F6F6C 		.ascii	"bool_t\000"
 2990      5F7400
 2991              	.LASF102:
 2992 00cc 75617274 		.ascii	"uart_lld_stop_receive\000"
 2992      5F6C6C64 
 2992      5F73746F 
 2992      705F7265 
 2992      63656976 
 2993              	.LASF12:
 2994 00e2 6C6F6E67 		.ascii	"long long int\000"
 2994      206C6F6E 
 2994      6720696E 
 2994      7400
 2995              	.LASF1:
 2996 00f0 7369676E 		.ascii	"signed char\000"
 2996      65642063 
 2996      68617200 
 2997              	.LASF75:
 2998 00fc 75617274 		.ascii	"uartcb_t\000"
 2998      63625F74 
 2998      00
ARM GAS  /tmp/ccc9u8vF.s 			page 55


 2999              	.LASF38:
 3000 0105 47545052 		.ascii	"GTPR\000"
 3000      00
 3001              	.LASF68:
 3002 010a 72787374 		.ascii	"rxstate\000"
 3002      61746500 
 3003              	.LASF51:
 3004 0112 73746D33 		.ascii	"stm32_dmaisr_t\000"
 3004      325F646D 
 3004      61697372 
 3004      5F7400
 3005              	.LASF66:
 3006 0121 73746174 		.ascii	"state\000"
 3006      6500
 3007              	.LASF67:
 3008 0127 74787374 		.ascii	"txstate\000"
 3008      61746500 
 3009              	.LASF9:
 3010 012f 6C6F6E67 		.ascii	"long int\000"
 3010      20696E74 
 3010      00
 3011              	.LASF27:
 3012 0138 41504232 		.ascii	"APB2RSTR\000"
 3012      52535452 
 3012      00
 3013              	.LASF15:
 3014 0141 75696E74 		.ascii	"uint16_t\000"
 3014      31365F74 
 3014      00
 3015              	.LASF63:
 3016 014a 75617274 		.ascii	"uartrxstate_t\000"
 3016      72787374 
 3016      6174655F 
 3016      7400
 3017              	.LASF73:
 3018 0158 646D6174 		.ascii	"dmatx\000"
 3018      7800
 3019              	.LASF107:
 3020 015e 2F686F6D 		.ascii	"/home/ergae/r2p-sdk/core/ChibiOS/os/hal/platforms/S"
 3020      652F6572 
 3020      6761652F 
 3020      7232702D 
 3020      73646B2F 
 3021 0191 544D3332 		.ascii	"TM32/USARTv2/uart_lld.c\000"
 3021      2F555341 
 3021      52547632 
 3021      2F756172 
 3021      745F6C6C 
 3022              	.LASF65:
 3023 01a9 55415254 		.ascii	"UARTDriver\000"
 3023      44726976 
 3023      657200
 3024              	.LASF10:
 3025 01b4 5F5F7569 		.ascii	"__uint32_t\000"
 3025      6E743332 
 3025      5F7400
 3026              	.LASF48:
ARM GAS  /tmp/ccc9u8vF.s 			page 56


 3027 01bf 73656C66 		.ascii	"selfindex\000"
 3027      696E6465 
 3027      7800
 3028              	.LASF87:
 3029 01c9 7365745F 		.ascii	"set_rx_idle_loop\000"
 3029      72785F69 
 3029      646C655F 
 3029      6C6F6F70 
 3029      00
 3030              	.LASF54:
 3031 01da 55415254 		.ascii	"UART_READY\000"
 3031      5F524541 
 3031      445900
 3032              	.LASF57:
 3033 01e5 55415254 		.ascii	"UART_TX_ACTIVE\000"
 3033      5F54585F 
 3033      41435449 
 3033      564500
 3034              	.LASF70:
 3035 01f4 75736172 		.ascii	"usart\000"
 3035      7400
 3036              	.LASF0:
 3037 01fa 756E7369 		.ascii	"unsigned int\000"
 3037      676E6564 
 3037      20696E74 
 3037      00
 3038              	.LASF99:
 3039 0207 74786275 		.ascii	"txbuf\000"
 3039      6600
 3040              	.LASF23:
 3041 020d 43504152 		.ascii	"CPAR\000"
 3041      00
 3042              	.LASF101:
 3043 0212 75617274 		.ascii	"uart_lld_stop_send\000"
 3043      5F6C6C64 
 3043      5F73746F 
 3043      705F7365 
 3043      6E6400
 3044              	.LASF11:
 3045 0225 6C6F6E67 		.ascii	"long unsigned int\000"
 3045      20756E73 
 3045      69676E65 
 3045      6420696E 
 3045      7400
 3046              	.LASF77:
 3047 0237 75617274 		.ascii	"uartecb_t\000"
 3047      6563625F 
 3047      7400
 3048              	.LASF36:
 3049 0241 5243435F 		.ascii	"RCC_TypeDef\000"
 3049      54797065 
 3049      44656600 
 3050              	.LASF25:
 3051 024d 444D415F 		.ascii	"DMA_Channel_TypeDef\000"
 3051      4368616E 
 3051      6E656C5F 
 3051      54797065 
ARM GAS  /tmp/ccc9u8vF.s 			page 57


 3051      44656600 
 3052              	.LASF47:
 3053 0261 69736869 		.ascii	"ishift\000"
 3053      667400
 3054              	.LASF7:
 3055 0268 73686F72 		.ascii	"short unsigned int\000"
 3055      7420756E 
 3055      7369676E 
 3055      65642069 
 3055      6E7400
 3056              	.LASF52:
 3057 027b 55415254 		.ascii	"UART_UNINIT\000"
 3057      5F554E49 
 3057      4E495400 
 3058              	.LASF53:
 3059 0287 55415254 		.ascii	"UART_STOP\000"
 3059      5F53544F 
 3059      5000
 3060              	.LASF44:
 3061 0291 55534152 		.ascii	"USART_TypeDef\000"
 3061      545F5479 
 3061      70654465 
 3061      6600
 3062              	.LASF24:
 3063 029f 434D4152 		.ascii	"CMAR\000"
 3063      00
 3064              	.LASF94:
 3065 02a4 56656374 		.ascii	"VectorDC\000"
 3065      6F724443 
 3065      00
 3066              	.LASF93:
 3067 02ad 73657276 		.ascii	"serve_usart_irq\000"
 3067      655F7573 
 3067      6172745F 
 3067      69727100 
 3068              	.LASF85:
 3069 02bd 75617274 		.ascii	"uartp\000"
 3069      7000
 3070              	.LASF20:
 3071 02c3 73697A65 		.ascii	"sizetype\000"
 3071      74797065 
 3071      00
 3072              	.LASF108:
 3073 02cc 7472616E 		.ascii	"translate_errors\000"
 3073      736C6174 
 3073      655F6572 
 3073      726F7273 
 3073      00
 3074              	.LASF62:
 3075 02dd 55415254 		.ascii	"UART_RX_COMPLETE\000"
 3075      5F52585F 
 3075      434F4D50 
 3075      4C455445 
 3075      00
 3076              	.LASF82:
 3077 02ee 72786572 		.ascii	"rxerr_cb\000"
 3077      725F6362 
ARM GAS  /tmp/ccc9u8vF.s 			page 58


 3077      00
 3078              	.LASF92:
 3079 02f7 75617274 		.ascii	"uart_lld_serve_tx_end_irq\000"
 3079      5F6C6C64 
 3079      5F736572 
 3079      76655F74 
 3079      785F656E 
 3080              	.LASF80:
 3081 0311 7278656E 		.ascii	"rxend_cb\000"
 3081      645F6362 
 3081      00
 3082              	.LASF59:
 3083 031a 75617274 		.ascii	"uarttxstate_t\000"
 3083      74787374 
 3083      6174655F 
 3083      7400
 3084              	.LASF33:
 3085 0328 41484252 		.ascii	"AHBRSTR\000"
 3085      53545200 
 3086              	.LASF28:
 3087 0330 41504231 		.ascii	"APB1RSTR\000"
 3087      52535452 
 3087      00
 3088              	.LASF37:
 3089 0339 52455345 		.ascii	"RESERVED1\000"
 3089      52564544 
 3089      3100
 3090              	.LASF39:
 3091 0343 52455345 		.ascii	"RESERVED2\000"
 3091      52564544 
 3091      3200
 3092              	.LASF41:
 3093 034d 52455345 		.ascii	"RESERVED3\000"
 3093      52564544 
 3093      3300
 3094              	.LASF42:
 3095 0357 52455345 		.ascii	"RESERVED4\000"
 3095      52564544 
 3095      3400
 3096              	.LASF43:
 3097 0361 52455345 		.ascii	"RESERVED5\000"
 3097      52564544 
 3097      3500
 3098              	.LASF50:
 3099 036b 73746D33 		.ascii	"stm32_dma_stream_t\000"
 3099      325F646D 
 3099      615F7374 
 3099      7265616D 
 3099      5F7400
 3100              	.LASF79:
 3101 037e 7478656E 		.ascii	"txend2_cb\000"
 3101      64325F63 
 3101      6200
 3102              	.LASF19:
 3103 0388 5F426F6F 		.ascii	"_Bool\000"
 3103      6C00
 3104              	.LASF16:
ARM GAS  /tmp/ccc9u8vF.s 			page 59


 3105 038e 696E7433 		.ascii	"int32_t\000"
 3105      325F7400 
 3106              	.LASF4:
 3107 0396 756E7369 		.ascii	"unsigned char\000"
 3107      676E6564 
 3107      20636861 
 3107      7200
 3108              	.LASF5:
 3109 03a4 73686F72 		.ascii	"short int\000"
 3109      7420696E 
 3109      7400
 3110              	.LASF55:
 3111 03ae 75617274 		.ascii	"uartstate_t\000"
 3111      73746174 
 3111      655F7400 
 3112              	.LASF30:
 3113 03ba 41504232 		.ascii	"APB2ENR\000"
 3113      454E5200 
 3114              	.LASF45:
 3115 03c2 6368616E 		.ascii	"channel\000"
 3115      6E656C00 
 3116              	.LASF46:
 3117 03ca 69666372 		.ascii	"ifcr\000"
 3117      00
 3118              	.LASF17:
 3119 03cf 75696E74 		.ascii	"uint32_t\000"
 3119      33325F74 
 3119      00
 3120              	.LASF96:
 3121 03d8 75617274 		.ascii	"uart_lld_start\000"
 3121      5F6C6C64 
 3121      5F737461 
 3121      727400
 3122              	.LASF21:
 3123 03e7 63686172 		.ascii	"char\000"
 3123      00
 3124              	.LASF86:
 3125 03ec 6D6F6465 		.ascii	"mode\000"
 3125      00
 3126              	.LASF69:
 3127 03f1 636F6E66 		.ascii	"config\000"
 3127      696700
 3128              	.LASF60:
 3129 03f8 55415254 		.ascii	"UART_RX_IDLE\000"
 3129      5F52585F 
 3129      49444C45 
 3129      00
 3130              	.LASF6:
 3131 0405 5F5F7569 		.ascii	"__uint16_t\000"
 3131      6E743136 
 3131      5F7400
 3132              	.LASF78:
 3133 0410 7478656E 		.ascii	"txend1_cb\000"
 3133      64315F63 
 3133      6200
 3134              	.LASF8:
 3135 041a 5F5F696E 		.ascii	"__int32_t\000"
ARM GAS  /tmp/ccc9u8vF.s 			page 60


 3135      7433325F 
 3135      7400
 3136              	.LASF56:
 3137 0424 55415254 		.ascii	"UART_TX_IDLE\000"
 3137      5F54585F 
 3137      49444C45 
 3137      00
 3138              	.LASF40:
 3139 0431 52544F52 		.ascii	"RTOR\000"
 3139      00
 3140              	.LASF31:
 3141 0436 41504231 		.ascii	"APB1ENR\000"
 3141      454E5200 
 3142              	.LASF90:
 3143 043e 75617274 		.ascii	"uart_lld_serve_rx_end_irq\000"
 3143      5F6C6C64 
 3143      5F736572 
 3143      76655F72 
 3143      785F656E 
 3144              	.LASF22:
 3145 0458 434E4454 		.ascii	"CNDTR\000"
 3145      5200
 3146              	.LASF32:
 3147 045e 42444352 		.ascii	"BDCR\000"
 3147      00
 3148              	.LASF34:
 3149 0463 43464752 		.ascii	"CFGR2\000"
 3149      3200
 3150              	.LASF35:
 3151 0469 43464752 		.ascii	"CFGR3\000"
 3151      3300
 3152              	.LASF14:
 3153 046f 75696E74 		.ascii	"uint8_t\000"
 3153      385F7400 
 3154              	.LASF89:
 3155 0477 75736172 		.ascii	"usart_start\000"
 3155      745F7374 
 3155      61727400 
 3156              	.LASF91:
 3157 0483 666C6167 		.ascii	"flags\000"
 3157      7300
 3158              	.LASF71:
 3159 0489 646D616D 		.ascii	"dmamode\000"
 3159      6F646500 
 3160              	.LASF83:
 3161 0491 73706565 		.ascii	"speed\000"
 3161      6400
 3162              	.LASF26:
 3163 0497 43464752 		.ascii	"CFGR\000"
 3163      00
 3164              	.LASF98:
 3165 049c 75617274 		.ascii	"uart_lld_start_send\000"
 3165      5F6C6C64 
 3165      5F737461 
 3165      72745F73 
 3165      656E6400 
 3166              	.LASF97:
ARM GAS  /tmp/ccc9u8vF.s 			page 61


 3167 04b0 75617274 		.ascii	"uart_lld_stop\000"
 3167      5F6C6C64 
 3167      5F73746F 
 3167      7000
 3168              	.LASF106:
 3169 04be 474E5520 		.ascii	"GNU C 4.9.3 20141119 (release) [ARM/embedded-4_9-br"
 3169      4320342E 
 3169      392E3320 
 3169      32303134 
 3169      31313139 
 3170 04f1 616E6368 		.ascii	"anch revision 218278] -mcpu=cortex-m4 -mfloat-abi=h"
 3170      20726576 
 3170      6973696F 
 3170      6E203231 
 3170      38323738 
 3171 0524 61726420 		.ascii	"ard -mfpu=fpv4-sp-d16 -mno-thumb-interwork -mthumb "
 3171      2D6D6670 
 3171      753D6670 
 3171      76342D73 
 3171      702D6431 
 3172 0557 2D676764 		.ascii	"-ggdb -O0 -fomit-frame-pointer -falign-functions=16"
 3172      62202D4F 
 3172      30202D66 
 3172      6F6D6974 
 3172      2D667261 
 3173 058a 202D6666 		.ascii	" -ffunction-sections -fdata-sections -fno-common -f"
 3173      756E6374 
 3173      696F6E2D 
 3173      73656374 
 3173      696F6E73 
 3174 05bd 73696E67 		.ascii	"single-precision-constant\000"
 3174      6C652D70 
 3174      72656369 
 3174      73696F6E 
 3174      2D636F6E 
 3175              	.LASF29:
 3176 05d7 41484245 		.ascii	"AHBENR\000"
 3176      4E5200
 3177              	.LASF105:
 3178 05de 55415254 		.ascii	"UARTD3\000"
 3178      443300
 3179              	.LASF58:
 3180 05e5 55415254 		.ascii	"UART_TX_COMPLETE\000"
 3180      5F54585F 
 3180      434F4D50 
 3180      4C455445 
 3180      00
 3181              		.ident	"GCC: (GNU Tools for ARM Embedded Processors) 4.9.3 20141119 (release) [ARM/embedded-4_9-br
ARM GAS  /tmp/ccc9u8vF.s 			page 62


DEFINED SYMBOLS
                            *ABS*:00000000 uart_lld.c
     /tmp/ccc9u8vF.s:25     .bss.UARTD3:00000000 UARTD3
     /tmp/ccc9u8vF.s:22     .bss.UARTD3:00000000 $d
     /tmp/ccc9u8vF.s:28     .text.translate_errors:00000000 $t
     /tmp/ccc9u8vF.s:33     .text.translate_errors:00000000 translate_errors
     /tmp/ccc9u8vF.s:109    .text.set_rx_idle_loop:00000000 $t
     /tmp/ccc9u8vF.s:114    .text.set_rx_idle_loop:00000000 set_rx_idle_loop
     /tmp/ccc9u8vF.s:180    .text.usart_stop:00000000 $t
     /tmp/ccc9u8vF.s:185    .text.usart_stop:00000000 usart_stop
     /tmp/ccc9u8vF.s:259    .text.usart_start:00000000 $t
     /tmp/ccc9u8vF.s:264    .text.usart_start:00000000 usart_start
     /tmp/ccc9u8vF.s:362    .text.usart_start:00000098 $d
     /tmp/ccc9u8vF.s:368    .text.uart_lld_serve_rx_end_irq:00000000 $t
     /tmp/ccc9u8vF.s:373    .text.uart_lld_serve_rx_end_irq:00000000 uart_lld_serve_rx_end_irq
     /tmp/ccc9u8vF.s:476    .text.uart_lld_serve_tx_end_irq:00000000 $t
     /tmp/ccc9u8vF.s:481    .text.uart_lld_serve_tx_end_irq:00000000 uart_lld_serve_tx_end_irq
     /tmp/ccc9u8vF.s:558    .text.serve_usart_irq:00000000 $t
     /tmp/ccc9u8vF.s:563    .text.serve_usart_irq:00000000 serve_usart_irq
     /tmp/ccc9u8vF.s:638    .text.VectorDC:00000000 $t
     /tmp/ccc9u8vF.s:644    .text.VectorDC:00000000 VectorDC
     /tmp/ccc9u8vF.s:667    .text.VectorDC:00000018 $d
     /tmp/ccc9u8vF.s:672    .text.uart_lld_init:00000000 $t
     /tmp/ccc9u8vF.s:678    .text.uart_lld_init:00000000 uart_lld_init
     /tmp/ccc9u8vF.s:712    .text.uart_lld_init:00000024 $d
     /tmp/ccc9u8vF.s:720    .rodata:00000000 $d
     /tmp/ccc9u8vF.s:727    .text.uart_lld_start:00000000 $t
     /tmp/ccc9u8vF.s:733    .text.uart_lld_start:00000000 uart_lld_start
     /tmp/ccc9u8vF.s:863    .text.uart_lld_start:000000d0 $d
     /tmp/ccc9u8vF.s:873    .text.uart_lld_stop:00000000 $t
     /tmp/ccc9u8vF.s:879    .text.uart_lld_stop:00000000 uart_lld_stop
     /tmp/ccc9u8vF.s:934    .text.uart_lld_stop:0000004c $d
     /tmp/ccc9u8vF.s:940    .text.uart_lld_start_send:00000000 $t
     /tmp/ccc9u8vF.s:946    .text.uart_lld_start_send:00000000 uart_lld_start_send
     /tmp/ccc9u8vF.s:997    .text.uart_lld_stop_send:00000000 $t
     /tmp/ccc9u8vF.s:1003   .text.uart_lld_stop_send:00000000 uart_lld_stop_send
     /tmp/ccc9u8vF.s:1048   .text.uart_lld_start_receive:00000000 $t
     /tmp/ccc9u8vF.s:1054   .text.uart_lld_start_receive:00000000 uart_lld_start_receive
     /tmp/ccc9u8vF.s:1125   .text.uart_lld_stop_receive:00000000 $t
     /tmp/ccc9u8vF.s:1131   .text.uart_lld_stop_receive:00000000 uart_lld_stop_receive
                     .debug_frame:00000010 $d
     /tmp/ccc9u8vF.s:671    .text.VectorDC:0000001c $t
     /tmp/ccc9u8vF.s:719    .text.uart_lld_init:00000034 $t
     /tmp/ccc9u8vF.s:872    .text.uart_lld_start:000000e8 $t
     /tmp/ccc9u8vF.s:939    .text.uart_lld_stop:00000054 $t

UNDEFINED SYMBOLS
port_halt
dbg_check_enter_isr
dbg_check_leave_isr
_port_irq_epilogue
uartObjectInit
_stm32_dma_streams
dmaStreamAllocate
chDbgPanic
nvicEnableVector
dmaStreamRelease
ARM GAS  /tmp/ccc9u8vF.s 			page 63


nvicDisableVector
