ARM GAS  /tmp/ccXLZ6ci.s 			page 1


   1              		.syntax unified
   2              		.cpu cortex-m4
   3              		.eabi_attribute 27, 3
   4              		.eabi_attribute 28, 1
   5              		.fpu fpv4-sp-d16
   6              		.eabi_attribute 20, 1
   7              		.eabi_attribute 21, 1
   8              		.eabi_attribute 23, 3
   9              		.eabi_attribute 24, 1
  10              		.eabi_attribute 25, 1
  11              		.eabi_attribute 26, 1
  12              		.eabi_attribute 30, 6
  13              		.eabi_attribute 34, 1
  14              		.eabi_attribute 18, 4
  15              		.thumb
  16              		.file	"usb_lld.c"
  17              		.text
  18              	.Ltext0:
  19              		.cfi_sections	.debug_frame
  20              		.section	.text.fifo_remove,"ax",%progbits
  21              		.align	2
  22              		.p2align 4,,15
  23              		.thumb
  24              		.thumb_func
  25              		.type	fifo_remove, %function
  26              	fifo_remove:
  27              	.LFB2:
  28              		.file 1 "/home/ergae/r2p-sdk/core/ChibiOS/os/kernel/include/chinline.h"
  29              		.loc 1 59 0
  30              		.cfi_startproc
  31              		@ args = 0, pretend = 0, frame = 16
  32              		@ frame_needed = 0, uses_anonymous_args = 0
  33              		@ link register save eliminated.
  34 0000 84B0     		sub	sp, sp, #16
  35              		.cfi_def_cfa_offset 16
  36 0002 0190     		str	r0, [sp, #4]
  37              		.loc 1 60 0
  38 0004 019B     		ldr	r3, [sp, #4]
  39 0006 1B68     		ldr	r3, [r3]
  40 0008 0393     		str	r3, [sp, #12]
  41              		.loc 1 62 0
  42 000a 039B     		ldr	r3, [sp, #12]
  43 000c 1A68     		ldr	r2, [r3]
  44 000e 019B     		ldr	r3, [sp, #4]
  45 0010 1A60     		str	r2, [r3]
  46 0012 019B     		ldr	r3, [sp, #4]
  47 0014 1B68     		ldr	r3, [r3]
  48 0016 019A     		ldr	r2, [sp, #4]
  49 0018 5A60     		str	r2, [r3, #4]
  50              		.loc 1 63 0
  51 001a 039B     		ldr	r3, [sp, #12]
  52              		.loc 1 64 0
  53 001c 1846     		mov	r0, r3
  54 001e 04B0     		add	sp, sp, #16
  55              		.cfi_def_cfa_offset 0
  56              		@ sp needed
  57 0020 7047     		bx	lr
ARM GAS  /tmp/ccXLZ6ci.s 			page 2


  58              		.cfi_endproc
  59              	.LFE2:
  60              		.size	fifo_remove, .-fifo_remove
  61              		.global	USBD1
  62 0022 00BFAFF3 		.section	.bss.USBD1,"aw",%nobits
  62      0080AFF3 
  62      0080AFF3 
  62      0080
  63              		.align	2
  64              		.type	USBD1, %object
  65              		.size	USBD1, 132
  66              	USBD1:
  67 0000 00000000 		.space	132
  67      00000000 
  67      00000000 
  67      00000000 
  67      00000000 
  68              		.section	.bss.ep0_state,"aw",%nobits
  69              		.align	2
  70              		.type	ep0_state, %object
  71              		.size	ep0_state, 20
  72              	ep0_state:
  73 0000 00000000 		.space	20
  73      00000000 
  73      00000000 
  73      00000000 
  73      00000000 
  74              		.section	.bss.ep0setup_buffer,"aw",%nobits
  75              		.align	2
  76              		.type	ep0setup_buffer, %object
  77              		.size	ep0setup_buffer, 8
  78              	ep0setup_buffer:
  79 0000 00000000 		.space	8
  79      00000000 
  80              		.section	.rodata.ep0config,"a",%progbits
  81              		.align	2
  82              		.type	ep0config, %object
  83              		.size	ep0config, 36
  84              	ep0config:
  85 0000 00000000 		.word	0
  86 0004 00000000 		.word	_usb_ep0setup
  87 0008 00000000 		.word	_usb_ep0in
  88 000c 00000000 		.word	_usb_ep0out
  89 0010 4000     		.short	64
  90 0012 4000     		.short	64
  91 0014 00000000 		.word	ep0_state
  92 0018 00000000 		.word	ep0_state
  93 001c 0100     		.short	1
  94 001e 0000     		.space	2
  95 0020 00000000 		.word	ep0setup_buffer
  96              		.section	.text.usb_pm_reset,"ax",%progbits
  97              		.align	2
  98              		.p2align 4,,15
  99              		.thumb
 100              		.thumb_func
 101              		.type	usb_pm_reset, %function
 102              	usb_pm_reset:
ARM GAS  /tmp/ccXLZ6ci.s 			page 3


 103              	.LFB118:
 104              		.file 2 "/home/ergae/r2p-sdk/core/ChibiOS/os/hal/platforms/STM32/USBv1/usb_lld.c"
 105              		.loc 2 97 0
 106              		.cfi_startproc
 107              		@ args = 0, pretend = 0, frame = 8
 108              		@ frame_needed = 0, uses_anonymous_args = 0
 109              		@ link register save eliminated.
 110 0000 82B0     		sub	sp, sp, #8
 111              		.cfi_def_cfa_offset 8
 112 0002 0190     		str	r0, [sp, #4]
 113              		.loc 2 101 0
 114 0004 019B     		ldr	r3, [sp, #4]
 115 0006 4022     		movs	r2, #64
 116 0008 C3F88020 		str	r2, [r3, #128]
 117              		.loc 2 102 0
 118 000c 02B0     		add	sp, sp, #8
 119              		.cfi_def_cfa_offset 0
 120              		@ sp needed
 121 000e 7047     		bx	lr
 122              		.cfi_endproc
 123              	.LFE118:
 124              		.size	usb_pm_reset, .-usb_pm_reset
 125              		.section	.rodata
 126              		.align	2
 127              	.LC0:
 128 0000 7573625F 		.ascii	"usb_pm_alloc(), #1\000"
 128      706D5F61 
 128      6C6C6F63 
 128      28292C20 
 128      233100
 129 0013 00       		.section	.text.usb_pm_alloc,"ax",%progbits
 130              		.align	2
 131              		.p2align 4,,15
 132              		.thumb
 133              		.thumb_func
 134              		.type	usb_pm_alloc, %function
 135              	usb_pm_alloc:
 136              	.LFB119:
 137              		.loc 2 110 0
 138              		.cfi_startproc
 139              		@ args = 0, pretend = 0, frame = 16
 140              		@ frame_needed = 0, uses_anonymous_args = 0
 141 0000 00B5     		push	{lr}
 142              		.cfi_def_cfa_offset 4
 143              		.cfi_offset 14, -4
 144 0002 85B0     		sub	sp, sp, #20
 145              		.cfi_def_cfa_offset 24
 146 0004 0190     		str	r0, [sp, #4]
 147 0006 0091     		str	r1, [sp]
 148              		.loc 2 113 0
 149 0008 019B     		ldr	r3, [sp, #4]
 150 000a D3F88030 		ldr	r3, [r3, #128]
 151 000e 0393     		str	r3, [sp, #12]
 152              		.loc 2 114 0
 153 0010 019B     		ldr	r3, [sp, #4]
 154 0012 D3F88020 		ldr	r2, [r3, #128]
 155 0016 009B     		ldr	r3, [sp]
ARM GAS  /tmp/ccXLZ6ci.s 			page 4


 156 0018 1A44     		add	r2, r2, r3
 157 001a 019B     		ldr	r3, [sp, #4]
 158 001c C3F88020 		str	r2, [r3, #128]
 159              		.loc 2 115 0
 160 0020 019B     		ldr	r3, [sp, #4]
 161 0022 D3F88030 		ldr	r3, [r3, #128]
 162 0026 B3F5007F 		cmp	r3, #512
 163 002a 02D9     		bls	.L5
 164              		.loc 2 115 0 is_stmt 0 discriminator 1
 165 002c 0348     		ldr	r0, .L7
 166 002e FFF7FEFF 		bl	chDbgPanic
 167              	.L5:
 168              		.loc 2 116 0 is_stmt 1
 169 0032 039B     		ldr	r3, [sp, #12]
 170              		.loc 2 117 0
 171 0034 1846     		mov	r0, r3
 172 0036 05B0     		add	sp, sp, #20
 173              		.cfi_def_cfa_offset 4
 174              		@ sp needed
 175 0038 5DF804FB 		ldr	pc, [sp], #4
 176              	.L8:
 177              		.align	2
 178              	.L7:
 179 003c 00000000 		.word	.LC0
 180              		.cfi_endproc
 181              	.LFE119:
 182              		.size	usb_pm_alloc, .-usb_pm_alloc
 183              		.section	.text.usb_packet_read_to_buffer,"ax",%progbits
 184              		.align	2
 185              		.p2align 4,,15
 186              		.thumb
 187              		.thumb_func
 188              		.type	usb_packet_read_to_buffer, %function
 189              	usb_packet_read_to_buffer:
 190              	.LFB120:
 191              		.loc 2 130 0
 192              		.cfi_startproc
 193              		@ args = 0, pretend = 0, frame = 24
 194              		@ frame_needed = 0, uses_anonymous_args = 0
 195              		@ link register save eliminated.
 196 0000 86B0     		sub	sp, sp, #24
 197              		.cfi_def_cfa_offset 24
 198 0002 0390     		str	r0, [sp, #12]
 199 0004 0291     		str	r1, [sp, #8]
 200 0006 0192     		str	r2, [sp, #4]
 201              		.loc 2 131 0
 202 0008 039B     		ldr	r3, [sp, #12]
 203 000a 9B68     		ldr	r3, [r3, #8]
 204 000c 03F10053 		add	r3, r3, #536870912
 205 0010 03F54053 		add	r3, r3, #12288
 206 0014 5B00     		lsls	r3, r3, #1
 207 0016 0593     		str	r3, [sp, #20]
 208              		.loc 2 133 0
 209 0018 019B     		ldr	r3, [sp, #4]
 210 001a 0133     		adds	r3, r3, #1
 211 001c 5B08     		lsrs	r3, r3, #1
 212 001e 0193     		str	r3, [sp, #4]
ARM GAS  /tmp/ccXLZ6ci.s 			page 5


 213              		.loc 2 134 0
 214 0020 0CE0     		b	.L10
 215              	.L11:
 216              		.loc 2 137 0
 217 0022 059B     		ldr	r3, [sp, #20]
 218 0024 1A1D     		adds	r2, r3, #4
 219 0026 0592     		str	r2, [sp, #20]
 220 0028 1B68     		ldr	r3, [r3]
 221 002a 9AB2     		uxth	r2, r3
 222 002c 029B     		ldr	r3, [sp, #8]
 223 002e 1A80     		strh	r2, [r3]	@ movhi
 224              		.loc 2 138 0
 225 0030 029B     		ldr	r3, [sp, #8]
 226 0032 0233     		adds	r3, r3, #2
 227 0034 0293     		str	r3, [sp, #8]
 228              		.loc 2 139 0
 229 0036 019B     		ldr	r3, [sp, #4]
 230 0038 013B     		subs	r3, r3, #1
 231 003a 0193     		str	r3, [sp, #4]
 232              	.L10:
 233              		.loc 2 134 0
 234 003c 019B     		ldr	r3, [sp, #4]
 235 003e 002B     		cmp	r3, #0
 236 0040 EFD1     		bne	.L11
 237              		.loc 2 141 0
 238 0042 06B0     		add	sp, sp, #24
 239              		.cfi_def_cfa_offset 0
 240              		@ sp needed
 241 0044 7047     		bx	lr
 242              		.cfi_endproc
 243              	.LFE120:
 244              		.size	usb_packet_read_to_buffer, .-usb_packet_read_to_buffer
 245 0046 00BFAFF3 		.section	.text.usb_packet_read_to_queue,"ax",%progbits
 245      0080AFF3 
 245      0080
 246              		.align	2
 247              		.p2align 4,,15
 248              		.thumb
 249              		.thumb_func
 250              		.type	usb_packet_read_to_queue, %function
 251              	usb_packet_read_to_queue:
 252              	.LFB121:
 253              		.loc 2 154 0
 254              		.cfi_startproc
 255              		@ args = 0, pretend = 0, frame = 32
 256              		@ frame_needed = 0, uses_anonymous_args = 0
 257 0000 00B5     		push	{lr}
 258              		.cfi_def_cfa_offset 4
 259              		.cfi_offset 14, -4
 260 0002 89B0     		sub	sp, sp, #36
 261              		.cfi_def_cfa_offset 40
 262 0004 0390     		str	r0, [sp, #12]
 263 0006 0291     		str	r1, [sp, #8]
 264 0008 0192     		str	r2, [sp, #4]
 265              		.loc 2 156 0
 266 000a 039B     		ldr	r3, [sp, #12]
 267 000c 9B68     		ldr	r3, [r3, #8]
ARM GAS  /tmp/ccXLZ6ci.s 			page 6


 268 000e 03F10053 		add	r3, r3, #536870912
 269 0012 03F54053 		add	r3, r3, #12288
 270 0016 5B00     		lsls	r3, r3, #1
 271 0018 0693     		str	r3, [sp, #24]
 272              		.loc 2 158 0
 273 001a 019B     		ldr	r3, [sp, #4]
 274 001c 5B08     		lsrs	r3, r3, #1
 275 001e 0793     		str	r3, [sp, #28]
 276              		.loc 2 159 0
 277 0020 2CE0     		b	.L13
 278              	.L16:
 279              	.LBB2:
 280              		.loc 2 162 0
 281 0022 069B     		ldr	r3, [sp, #24]
 282 0024 1A1D     		adds	r2, r3, #4
 283 0026 0692     		str	r2, [sp, #24]
 284 0028 1B68     		ldr	r3, [r3]
 285 002a 0593     		str	r3, [sp, #20]
 286              		.loc 2 163 0
 287 002c 029B     		ldr	r3, [sp, #8]
 288 002e 5B69     		ldr	r3, [r3, #20]
 289 0030 591C     		adds	r1, r3, #1
 290 0032 029A     		ldr	r2, [sp, #8]
 291 0034 5161     		str	r1, [r2, #20]
 292 0036 059A     		ldr	r2, [sp, #20]
 293 0038 D2B2     		uxtb	r2, r2
 294 003a 1A70     		strb	r2, [r3]
 295              		.loc 2 164 0
 296 003c 029B     		ldr	r3, [sp, #8]
 297 003e 5A69     		ldr	r2, [r3, #20]
 298 0040 029B     		ldr	r3, [sp, #8]
 299 0042 1B69     		ldr	r3, [r3, #16]
 300 0044 9A42     		cmp	r2, r3
 301 0046 03D3     		bcc	.L14
 302              		.loc 2 165 0
 303 0048 029B     		ldr	r3, [sp, #8]
 304 004a DA68     		ldr	r2, [r3, #12]
 305 004c 029B     		ldr	r3, [sp, #8]
 306 004e 5A61     		str	r2, [r3, #20]
 307              	.L14:
 308              		.loc 2 166 0
 309 0050 029B     		ldr	r3, [sp, #8]
 310 0052 5B69     		ldr	r3, [r3, #20]
 311 0054 591C     		adds	r1, r3, #1
 312 0056 029A     		ldr	r2, [sp, #8]
 313 0058 5161     		str	r1, [r2, #20]
 314 005a 059A     		ldr	r2, [sp, #20]
 315 005c 120A     		lsrs	r2, r2, #8
 316 005e D2B2     		uxtb	r2, r2
 317 0060 1A70     		strb	r2, [r3]
 318              		.loc 2 167 0
 319 0062 029B     		ldr	r3, [sp, #8]
 320 0064 5A69     		ldr	r2, [r3, #20]
 321 0066 029B     		ldr	r3, [sp, #8]
 322 0068 1B69     		ldr	r3, [r3, #16]
 323 006a 9A42     		cmp	r2, r3
 324 006c 03D3     		bcc	.L15
ARM GAS  /tmp/ccXLZ6ci.s 			page 7


 325              		.loc 2 168 0
 326 006e 029B     		ldr	r3, [sp, #8]
 327 0070 DA68     		ldr	r2, [r3, #12]
 328 0072 029B     		ldr	r3, [sp, #8]
 329 0074 5A61     		str	r2, [r3, #20]
 330              	.L15:
 331              		.loc 2 169 0
 332 0076 079B     		ldr	r3, [sp, #28]
 333 0078 013B     		subs	r3, r3, #1
 334 007a 0793     		str	r3, [sp, #28]
 335              	.L13:
 336              	.LBE2:
 337              		.loc 2 159 0
 338 007c 079B     		ldr	r3, [sp, #28]
 339 007e 002B     		cmp	r3, #0
 340 0080 CFD1     		bne	.L16
 341              		.loc 2 172 0
 342 0082 019B     		ldr	r3, [sp, #4]
 343 0084 03F00103 		and	r3, r3, #1
 344 0088 002B     		cmp	r3, #0
 345 008a 12D0     		beq	.L17
 346              		.loc 2 173 0
 347 008c 029B     		ldr	r3, [sp, #8]
 348 008e 5B69     		ldr	r3, [r3, #20]
 349 0090 591C     		adds	r1, r3, #1
 350 0092 029A     		ldr	r2, [sp, #8]
 351 0094 5161     		str	r1, [r2, #20]
 352 0096 069A     		ldr	r2, [sp, #24]
 353 0098 1268     		ldr	r2, [r2]
 354 009a D2B2     		uxtb	r2, r2
 355 009c 1A70     		strb	r2, [r3]
 356              		.loc 2 174 0
 357 009e 029B     		ldr	r3, [sp, #8]
 358 00a0 5A69     		ldr	r2, [r3, #20]
 359 00a2 029B     		ldr	r3, [sp, #8]
 360 00a4 1B69     		ldr	r3, [r3, #16]
 361 00a6 9A42     		cmp	r2, r3
 362 00a8 03D3     		bcc	.L17
 363              		.loc 2 175 0
 364 00aa 029B     		ldr	r3, [sp, #8]
 365 00ac DA68     		ldr	r2, [r3, #12]
 366 00ae 029B     		ldr	r3, [sp, #8]
 367 00b0 5A61     		str	r2, [r3, #20]
 368              	.L17:
 369              	.LBB3:
 370              		.loc 2 179 0
 371 00b2 2023     		movs	r3, #32
 372              	@ 179 "/home/ergae/r2p-sdk/core/ChibiOS/os/hal/platforms/STM32/USBv1/usb_lld.c" 1
 373 00b4 83F31188 		msr     BASEPRI, r3
 374              	@ 0 "" 2
 375              		.thumb
 376              	.LBE3:
 377 00b8 FFF7FEFF 		bl	dbg_check_lock_from_isr
 378              		.loc 2 180 0
 379 00bc 029B     		ldr	r3, [sp, #8]
 380 00be 9A68     		ldr	r2, [r3, #8]
 381 00c0 019B     		ldr	r3, [sp, #4]
ARM GAS  /tmp/ccXLZ6ci.s 			page 8


 382 00c2 1A44     		add	r2, r2, r3
 383 00c4 029B     		ldr	r3, [sp, #8]
 384 00c6 9A60     		str	r2, [r3, #8]
 385              		.loc 2 181 0
 386 00c8 0AE0     		b	.L18
 387              	.L19:
 388              		.loc 2 182 0
 389 00ca 029B     		ldr	r3, [sp, #8]
 390 00cc 1846     		mov	r0, r3
 391 00ce FFF7FEFF 		bl	fifo_remove
 392 00d2 0346     		mov	r3, r0
 393 00d4 1846     		mov	r0, r3
 394 00d6 FFF7FEFF 		bl	chSchReadyI
 395 00da 0246     		mov	r2, r0
 396 00dc 0023     		movs	r3, #0
 397 00de 9362     		str	r3, [r2, #40]
 398              	.L18:
 399              		.loc 2 181 0
 400 00e0 029B     		ldr	r3, [sp, #8]
 401 00e2 1A68     		ldr	r2, [r3]
 402 00e4 029B     		ldr	r3, [sp, #8]
 403 00e6 9A42     		cmp	r2, r3
 404 00e8 EFD1     		bne	.L19
 405              		.loc 2 183 0
 406 00ea FFF7FEFF 		bl	dbg_check_unlock_from_isr
 407              	.LBB4:
 408 00ee 0023     		movs	r3, #0
 409              	@ 183 "/home/ergae/r2p-sdk/core/ChibiOS/os/hal/platforms/STM32/USBv1/usb_lld.c" 1
 410 00f0 83F31188 		msr     BASEPRI, r3
 411              	@ 0 "" 2
 412              		.thumb
 413              	.LBE4:
 414              		.loc 2 184 0
 415 00f4 09B0     		add	sp, sp, #36
 416              		.cfi_def_cfa_offset 4
 417              		@ sp needed
 418 00f6 5DF804FB 		ldr	pc, [sp], #4
 419              		.cfi_endproc
 420              	.LFE121:
 421              		.size	usb_packet_read_to_queue, .-usb_packet_read_to_queue
 422 00fa 00BFAFF3 		.section	.text.usb_packet_write_from_buffer,"ax",%progbits
 422      0080
 423              		.align	2
 424              		.p2align 4,,15
 425              		.thumb
 426              		.thumb_func
 427              		.type	usb_packet_write_from_buffer, %function
 428              	usb_packet_write_from_buffer:
 429              	.LFB122:
 430              		.loc 2 198 0
 431              		.cfi_startproc
 432              		@ args = 0, pretend = 0, frame = 24
 433              		@ frame_needed = 0, uses_anonymous_args = 0
 434              		@ link register save eliminated.
 435 0000 86B0     		sub	sp, sp, #24
 436              		.cfi_def_cfa_offset 24
 437 0002 0390     		str	r0, [sp, #12]
ARM GAS  /tmp/ccXLZ6ci.s 			page 9


 438 0004 0291     		str	r1, [sp, #8]
 439 0006 0192     		str	r2, [sp, #4]
 440              		.loc 2 199 0
 441 0008 039B     		ldr	r3, [sp, #12]
 442 000a 1B68     		ldr	r3, [r3]
 443 000c 03F10053 		add	r3, r3, #536870912
 444 0010 03F54053 		add	r3, r3, #12288
 445 0014 5B00     		lsls	r3, r3, #1
 446 0016 0593     		str	r3, [sp, #20]
 447              		.loc 2 201 0
 448 0018 019B     		ldr	r3, [sp, #4]
 449 001a 9AB2     		uxth	r2, r3
 450 001c 039B     		ldr	r3, [sp, #12]
 451 001e 9A80     		strh	r2, [r3, #4]	@ movhi
 452              		.loc 2 202 0
 453 0020 019B     		ldr	r3, [sp, #4]
 454 0022 0133     		adds	r3, r3, #1
 455 0024 5B08     		lsrs	r3, r3, #1
 456 0026 0193     		str	r3, [sp, #4]
 457              		.loc 2 203 0
 458 0028 0BE0     		b	.L21
 459              	.L22:
 460              		.loc 2 206 0
 461 002a 059B     		ldr	r3, [sp, #20]
 462 002c 1A1D     		adds	r2, r3, #4
 463 002e 0592     		str	r2, [sp, #20]
 464 0030 029A     		ldr	r2, [sp, #8]
 465 0032 1288     		ldrh	r2, [r2]
 466 0034 1A60     		str	r2, [r3]
 467              		.loc 2 207 0
 468 0036 029B     		ldr	r3, [sp, #8]
 469 0038 0233     		adds	r3, r3, #2
 470 003a 0293     		str	r3, [sp, #8]
 471              		.loc 2 208 0
 472 003c 019B     		ldr	r3, [sp, #4]
 473 003e 013B     		subs	r3, r3, #1
 474 0040 0193     		str	r3, [sp, #4]
 475              	.L21:
 476              		.loc 2 203 0
 477 0042 019B     		ldr	r3, [sp, #4]
 478 0044 002B     		cmp	r3, #0
 479 0046 F0D1     		bne	.L22
 480              		.loc 2 210 0
 481 0048 06B0     		add	sp, sp, #24
 482              		.cfi_def_cfa_offset 0
 483              		@ sp needed
 484 004a 7047     		bx	lr
 485              		.cfi_endproc
 486              	.LFE122:
 487              		.size	usb_packet_write_from_buffer, .-usb_packet_write_from_buffer
 488 004c AFF30080 		.section	.text.usb_packet_write_from_queue,"ax",%progbits
 489              		.align	2
 490              		.p2align 4,,15
 491              		.thumb
 492              		.thumb_func
 493              		.type	usb_packet_write_from_queue, %function
 494              	usb_packet_write_from_queue:
ARM GAS  /tmp/ccXLZ6ci.s 			page 10


 495              	.LFB123:
 496              		.loc 2 223 0
 497              		.cfi_startproc
 498              		@ args = 0, pretend = 0, frame = 32
 499              		@ frame_needed = 0, uses_anonymous_args = 0
 500 0000 00B5     		push	{lr}
 501              		.cfi_def_cfa_offset 4
 502              		.cfi_offset 14, -4
 503 0002 89B0     		sub	sp, sp, #36
 504              		.cfi_def_cfa_offset 40
 505 0004 0390     		str	r0, [sp, #12]
 506 0006 0291     		str	r1, [sp, #8]
 507 0008 0192     		str	r2, [sp, #4]
 508              		.loc 2 225 0
 509 000a 039B     		ldr	r3, [sp, #12]
 510 000c 1B68     		ldr	r3, [r3]
 511 000e 03F10053 		add	r3, r3, #536870912
 512 0012 03F54053 		add	r3, r3, #12288
 513 0016 5B00     		lsls	r3, r3, #1
 514 0018 0693     		str	r3, [sp, #24]
 515              		.loc 2 227 0
 516 001a 019B     		ldr	r3, [sp, #4]
 517 001c 9AB2     		uxth	r2, r3
 518 001e 039B     		ldr	r3, [sp, #12]
 519 0020 9A80     		strh	r2, [r3, #4]	@ movhi
 520              		.loc 2 228 0
 521 0022 019B     		ldr	r3, [sp, #4]
 522 0024 5B08     		lsrs	r3, r3, #1
 523 0026 0793     		str	r3, [sp, #28]
 524              		.loc 2 229 0
 525 0028 2CE0     		b	.L24
 526              	.L27:
 527              	.LBB5:
 528              		.loc 2 232 0
 529 002a 029B     		ldr	r3, [sp, #8]
 530 002c 9B69     		ldr	r3, [r3, #24]
 531 002e 591C     		adds	r1, r3, #1
 532 0030 029A     		ldr	r2, [sp, #8]
 533 0032 9161     		str	r1, [r2, #24]
 534 0034 1B78     		ldrb	r3, [r3]	@ zero_extendqisi2
 535 0036 0593     		str	r3, [sp, #20]
 536              		.loc 2 233 0
 537 0038 029B     		ldr	r3, [sp, #8]
 538 003a 9A69     		ldr	r2, [r3, #24]
 539 003c 029B     		ldr	r3, [sp, #8]
 540 003e 1B69     		ldr	r3, [r3, #16]
 541 0040 9A42     		cmp	r2, r3
 542 0042 03D3     		bcc	.L25
 543              		.loc 2 234 0
 544 0044 029B     		ldr	r3, [sp, #8]
 545 0046 DA68     		ldr	r2, [r3, #12]
 546 0048 029B     		ldr	r3, [sp, #8]
 547 004a 9A61     		str	r2, [r3, #24]
 548              	.L25:
 549              		.loc 2 235 0
 550 004c 029B     		ldr	r3, [sp, #8]
 551 004e 9B69     		ldr	r3, [r3, #24]
ARM GAS  /tmp/ccXLZ6ci.s 			page 11


 552 0050 591C     		adds	r1, r3, #1
 553 0052 029A     		ldr	r2, [sp, #8]
 554 0054 9161     		str	r1, [r2, #24]
 555 0056 1B78     		ldrb	r3, [r3]	@ zero_extendqisi2
 556 0058 1B02     		lsls	r3, r3, #8
 557 005a 059A     		ldr	r2, [sp, #20]
 558 005c 1343     		orrs	r3, r3, r2
 559 005e 0593     		str	r3, [sp, #20]
 560              		.loc 2 236 0
 561 0060 029B     		ldr	r3, [sp, #8]
 562 0062 9A69     		ldr	r2, [r3, #24]
 563 0064 029B     		ldr	r3, [sp, #8]
 564 0066 1B69     		ldr	r3, [r3, #16]
 565 0068 9A42     		cmp	r2, r3
 566 006a 03D3     		bcc	.L26
 567              		.loc 2 237 0
 568 006c 029B     		ldr	r3, [sp, #8]
 569 006e DA68     		ldr	r2, [r3, #12]
 570 0070 029B     		ldr	r3, [sp, #8]
 571 0072 9A61     		str	r2, [r3, #24]
 572              	.L26:
 573              		.loc 2 238 0
 574 0074 069B     		ldr	r3, [sp, #24]
 575 0076 1A1D     		adds	r2, r3, #4
 576 0078 0692     		str	r2, [sp, #24]
 577 007a 059A     		ldr	r2, [sp, #20]
 578 007c 1A60     		str	r2, [r3]
 579              		.loc 2 239 0
 580 007e 079B     		ldr	r3, [sp, #28]
 581 0080 013B     		subs	r3, r3, #1
 582 0082 0793     		str	r3, [sp, #28]
 583              	.L24:
 584              	.LBE5:
 585              		.loc 2 229 0
 586 0084 079B     		ldr	r3, [sp, #28]
 587 0086 002B     		cmp	r3, #0
 588 0088 CFD1     		bne	.L27
 589              		.loc 2 243 0
 590 008a 019B     		ldr	r3, [sp, #4]
 591 008c 03F00103 		and	r3, r3, #1
 592 0090 002B     		cmp	r3, #0
 593 0092 12D0     		beq	.L28
 594              		.loc 2 244 0
 595 0094 029B     		ldr	r3, [sp, #8]
 596 0096 9B69     		ldr	r3, [r3, #24]
 597 0098 591C     		adds	r1, r3, #1
 598 009a 029A     		ldr	r2, [sp, #8]
 599 009c 9161     		str	r1, [r2, #24]
 600 009e 1B78     		ldrb	r3, [r3]	@ zero_extendqisi2
 601 00a0 1A46     		mov	r2, r3
 602 00a2 069B     		ldr	r3, [sp, #24]
 603 00a4 1A60     		str	r2, [r3]
 604              		.loc 2 245 0
 605 00a6 029B     		ldr	r3, [sp, #8]
 606 00a8 9A69     		ldr	r2, [r3, #24]
 607 00aa 029B     		ldr	r3, [sp, #8]
 608 00ac 1B69     		ldr	r3, [r3, #16]
ARM GAS  /tmp/ccXLZ6ci.s 			page 12


 609 00ae 9A42     		cmp	r2, r3
 610 00b0 03D3     		bcc	.L28
 611              		.loc 2 246 0
 612 00b2 029B     		ldr	r3, [sp, #8]
 613 00b4 DA68     		ldr	r2, [r3, #12]
 614 00b6 029B     		ldr	r3, [sp, #8]
 615 00b8 9A61     		str	r2, [r3, #24]
 616              	.L28:
 617              	.LBB6:
 618              		.loc 2 252 0
 619 00ba 2023     		movs	r3, #32
 620              	@ 252 "/home/ergae/r2p-sdk/core/ChibiOS/os/hal/platforms/STM32/USBv1/usb_lld.c" 1
 621 00bc 83F31188 		msr     BASEPRI, r3
 622              	@ 0 "" 2
 623              		.thumb
 624              	.LBE6:
 625              		.loc 2 253 0
 626 00c0 114B     		ldr	r3, .L31
 627 00c2 0122     		movs	r2, #1
 628 00c4 1A60     		str	r2, [r3]
 629              		.loc 2 255 0
 630 00c6 029B     		ldr	r3, [sp, #8]
 631 00c8 9A68     		ldr	r2, [r3, #8]
 632 00ca 019B     		ldr	r3, [sp, #4]
 633 00cc 1A44     		add	r2, r2, r3
 634 00ce 029B     		ldr	r3, [sp, #8]
 635 00d0 9A60     		str	r2, [r3, #8]
 636              		.loc 2 256 0
 637 00d2 0AE0     		b	.L29
 638              	.L30:
 639              		.loc 2 257 0
 640 00d4 029B     		ldr	r3, [sp, #8]
 641 00d6 1846     		mov	r0, r3
 642 00d8 FFF7FEFF 		bl	fifo_remove
 643 00dc 0346     		mov	r3, r0
 644 00de 1846     		mov	r0, r3
 645 00e0 FFF7FEFF 		bl	chSchReadyI
 646 00e4 0246     		mov	r2, r0
 647 00e6 0023     		movs	r3, #0
 648 00e8 9362     		str	r3, [r2, #40]
 649              	.L29:
 650              		.loc 2 256 0
 651 00ea 029B     		ldr	r3, [sp, #8]
 652 00ec 1A68     		ldr	r2, [r3]
 653 00ee 029B     		ldr	r3, [sp, #8]
 654 00f0 9A42     		cmp	r2, r3
 655 00f2 EFD1     		bne	.L30
 656              		.loc 2 259 0
 657 00f4 044B     		ldr	r3, .L31
 658 00f6 0022     		movs	r2, #0
 659 00f8 1A60     		str	r2, [r3]
 660              	.LBB7:
 661              		.loc 2 260 0
 662 00fa 0023     		movs	r3, #0
 663              	@ 260 "/home/ergae/r2p-sdk/core/ChibiOS/os/hal/platforms/STM32/USBv1/usb_lld.c" 1
 664 00fc 83F31188 		msr     BASEPRI, r3
 665              	@ 0 "" 2
ARM GAS  /tmp/ccXLZ6ci.s 			page 13


 666              		.thumb
 667              	.LBE7:
 668              		.loc 2 261 0
 669 0100 09B0     		add	sp, sp, #36
 670              		.cfi_def_cfa_offset 4
 671              		@ sp needed
 672 0102 5DF804FB 		ldr	pc, [sp], #4
 673              	.L32:
 674 0106 00BF     		.align	2
 675              	.L31:
 676 0108 00000000 		.word	dbg_lock_cnt
 677              		.cfi_endproc
 678              	.LFE123:
 679              		.size	usb_packet_write_from_queue, .-usb_packet_write_from_queue
 680 010c AFF30080 		.section	.text.Vector168,"ax",%progbits
 681              		.align	2
 682              		.p2align 4,,15
 683              		.global	Vector168
 684              		.thumb
 685              		.thumb_func
 686              		.type	Vector168, %function
 687              	Vector168:
 688              	.LFB124:
 689              		.loc 2 276 0
 690              		.cfi_startproc
 691              		@ args = 0, pretend = 0, frame = 0
 692              		@ frame_needed = 0, uses_anonymous_args = 0
 693 0000 08B5     		push	{r3, lr}
 694              		.cfi_def_cfa_offset 8
 695              		.cfi_offset 3, -8
 696              		.cfi_offset 14, -4
 697              		.loc 2 278 0
 698 0002 FFF7FEFF 		bl	dbg_check_enter_isr
 699              		.loc 2 280 0
 700 0006 FFF7FEFF 		bl	dbg_check_leave_isr
 701 000a FFF7FEFF 		bl	_port_irq_epilogue
 702              		.loc 2 281 0
 703 000e 08BD     		pop	{r3, pc}
 704              		.cfi_endproc
 705              	.LFE124:
 706              		.size	Vector168, .-Vector168
 707              		.section	.text.Vector16C,"ax",%progbits
 708              		.align	2
 709              		.p2align 4,,15
 710              		.global	Vector16C
 711              		.thumb
 712              		.thumb_func
 713              		.type	Vector16C, %function
 714              	Vector16C:
 715              	.LFB125:
 716              		.loc 2 291 0
 717              		.cfi_startproc
 718              		@ args = 0, pretend = 0, frame = 40
 719              		@ frame_needed = 0, uses_anonymous_args = 0
 720 0000 00B5     		push	{lr}
 721              		.cfi_def_cfa_offset 4
 722              		.cfi_offset 14, -4
ARM GAS  /tmp/ccXLZ6ci.s 			page 14


 723 0002 8BB0     		sub	sp, sp, #44
 724              		.cfi_def_cfa_offset 48
 725              		.loc 2 293 0
 726 0004 9E4B     		ldr	r3, .L56
 727 0006 0793     		str	r3, [sp, #28]
 728              		.loc 2 295 0
 729 0008 FFF7FEFF 		bl	dbg_check_enter_isr
 730              		.loc 2 297 0
 731 000c 9D4B     		ldr	r3, .L56+4
 732 000e 5B6C     		ldr	r3, [r3, #68]
 733 0010 0993     		str	r3, [sp, #36]
 734              		.loc 2 300 0
 735 0012 099B     		ldr	r3, [sp, #36]
 736 0014 03F48063 		and	r3, r3, #1024
 737 0018 002B     		cmp	r3, #0
 738 001a 11D0     		beq	.L35
 739              		.loc 2 301 0
 740 001c 0798     		ldr	r0, [sp, #28]
 741 001e FFF7FEFF 		bl	_usb_reset
 742              		.loc 2 302 0
 743 0022 079B     		ldr	r3, [sp, #28]
 744 0024 5B68     		ldr	r3, [r3, #4]
 745 0026 1B68     		ldr	r3, [r3]
 746 0028 002B     		cmp	r3, #0
 747 002a 05D0     		beq	.L36
 748              		.loc 2 302 0 is_stmt 0 discriminator 1
 749 002c 079B     		ldr	r3, [sp, #28]
 750 002e 5B68     		ldr	r3, [r3, #4]
 751 0030 1B68     		ldr	r3, [r3]
 752 0032 0798     		ldr	r0, [sp, #28]
 753 0034 0021     		movs	r1, #0
 754 0036 9847     		blx	r3
 755              	.L36:
 756              		.loc 2 303 0 is_stmt 1
 757 0038 924B     		ldr	r3, .L56+4
 758 003a 6FF48062 		mvn	r2, #1024
 759 003e 5A64     		str	r2, [r3, #68]
 760              	.L35:
 761              		.loc 2 307 0
 762 0040 099B     		ldr	r3, [sp, #36]
 763 0042 03F40063 		and	r3, r3, #2048
 764 0046 002B     		cmp	r3, #0
 765 0048 14D0     		beq	.L37
 766              		.loc 2 308 0
 767 004a 8E4A     		ldr	r2, .L56+4
 768 004c 8D4B     		ldr	r3, .L56+4
 769 004e 1B6C     		ldr	r3, [r3, #64]
 770 0050 43F00803 		orr	r3, r3, #8
 771 0054 1364     		str	r3, [r2, #64]
 772              		.loc 2 309 0
 773 0056 079B     		ldr	r3, [sp, #28]
 774 0058 5B68     		ldr	r3, [r3, #4]
 775 005a 1B68     		ldr	r3, [r3]
 776 005c 002B     		cmp	r3, #0
 777 005e 05D0     		beq	.L38
 778              		.loc 2 309 0 is_stmt 0 discriminator 1
 779 0060 079B     		ldr	r3, [sp, #28]
ARM GAS  /tmp/ccXLZ6ci.s 			page 15


 780 0062 5B68     		ldr	r3, [r3, #4]
 781 0064 1B68     		ldr	r3, [r3]
 782 0066 0798     		ldr	r0, [sp, #28]
 783 0068 0321     		movs	r1, #3
 784 006a 9847     		blx	r3
 785              	.L38:
 786              		.loc 2 313 0 is_stmt 1
 787 006c 854B     		ldr	r3, .L56+4
 788 006e 6FF40062 		mvn	r2, #2048
 789 0072 5A64     		str	r2, [r3, #68]
 790              	.L37:
 791              		.loc 2 317 0
 792 0074 099B     		ldr	r3, [sp, #36]
 793 0076 03F48053 		and	r3, r3, #4096
 794 007a 002B     		cmp	r3, #0
 795 007c 1CD0     		beq	.L39
 796              	.LBB8:
 797              		.loc 2 318 0
 798 007e 814B     		ldr	r3, .L56+4
 799 0080 9B6C     		ldr	r3, [r3, #72]
 800 0082 0693     		str	r3, [sp, #24]
 801              		.loc 2 319 0
 802 0084 069B     		ldr	r3, [sp, #24]
 803 0086 03F40043 		and	r3, r3, #32768
 804 008a 002B     		cmp	r3, #0
 805 008c 10D1     		bne	.L40
 806              		.loc 2 320 0
 807 008e 7D4A     		ldr	r2, .L56+4
 808 0090 7C4B     		ldr	r3, .L56+4
 809 0092 1B6C     		ldr	r3, [r3, #64]
 810 0094 23F00803 		bic	r3, r3, #8
 811 0098 1364     		str	r3, [r2, #64]
 812              		.loc 2 321 0
 813 009a 079B     		ldr	r3, [sp, #28]
 814 009c 5B68     		ldr	r3, [r3, #4]
 815 009e 1B68     		ldr	r3, [r3]
 816 00a0 002B     		cmp	r3, #0
 817 00a2 05D0     		beq	.L40
 818              		.loc 2 321 0 is_stmt 0 discriminator 1
 819 00a4 079B     		ldr	r3, [sp, #28]
 820 00a6 5B68     		ldr	r3, [r3, #4]
 821 00a8 1B68     		ldr	r3, [r3]
 822 00aa 0798     		ldr	r0, [sp, #28]
 823 00ac 0421     		movs	r1, #4
 824 00ae 9847     		blx	r3
 825              	.L40:
 826              		.loc 2 330 0 is_stmt 1
 827 00b0 744B     		ldr	r3, .L56+4
 828 00b2 6FF48052 		mvn	r2, #4096
 829 00b6 5A64     		str	r2, [r3, #68]
 830              	.L39:
 831              	.LBE8:
 832              		.loc 2 334 0
 833 00b8 099B     		ldr	r3, [sp, #36]
 834 00ba 03F40073 		and	r3, r3, #512
 835 00be 002B     		cmp	r3, #0
 836 00c0 0DD0     		beq	.L41
ARM GAS  /tmp/ccXLZ6ci.s 			page 16


 837              		.loc 2 335 0
 838 00c2 079B     		ldr	r3, [sp, #28]
 839 00c4 5B68     		ldr	r3, [r3, #4]
 840 00c6 DB68     		ldr	r3, [r3, #12]
 841 00c8 002B     		cmp	r3, #0
 842 00ca 04D0     		beq	.L42
 843              		.loc 2 335 0 is_stmt 0 discriminator 1
 844 00cc 079B     		ldr	r3, [sp, #28]
 845 00ce 5B68     		ldr	r3, [r3, #4]
 846 00d0 DB68     		ldr	r3, [r3, #12]
 847 00d2 0798     		ldr	r0, [sp, #28]
 848 00d4 9847     		blx	r3
 849              	.L42:
 850              		.loc 2 336 0 is_stmt 1
 851 00d6 6B4B     		ldr	r3, .L56+4
 852 00d8 6FF40072 		mvn	r2, #512
 853 00dc 5A64     		str	r2, [r3, #68]
 854              	.L41:
 855              		.loc 2 340 0
 856 00de 53E1     		b	.L43
 857              	.L55:
 858              	.LBB9:
 859              		.loc 2 343 0
 860 00e0 684A     		ldr	r2, .L56+4
 861 00e2 099B     		ldr	r3, [sp, #36]
 862 00e4 03F00F03 		and	r3, r3, #15
 863 00e8 0593     		str	r3, [sp, #20]
 864 00ea 059B     		ldr	r3, [sp, #20]
 865 00ec 52F82330 		ldr	r3, [r2, r3, lsl #2]
 866 00f0 0493     		str	r3, [sp, #16]
 867              		.loc 2 344 0
 868 00f2 079A     		ldr	r2, [sp, #28]
 869 00f4 059B     		ldr	r3, [sp, #20]
 870 00f6 0233     		adds	r3, r3, #2
 871 00f8 9B00     		lsls	r3, r3, #2
 872 00fa 1344     		add	r3, r3, r2
 873 00fc 5B68     		ldr	r3, [r3, #4]
 874 00fe 0393     		str	r3, [sp, #12]
 875              		.loc 2 346 0
 876 0100 049B     		ldr	r3, [sp, #16]
 877 0102 03F08003 		and	r3, r3, #128
 878 0106 002B     		cmp	r3, #0
 879 0108 00F09680 		beq	.L44
 880              	.LBB10:
 881              		.loc 2 349 0
 882 010c 5D49     		ldr	r1, .L56+4
 883 010e 5D4A     		ldr	r2, .L56+4
 884 0110 059B     		ldr	r3, [sp, #20]
 885 0112 52F82330 		ldr	r3, [r2, r3, lsl #2]
 886 0116 23F4F143 		bic	r3, r3, #30848
 887 011a 23F07003 		bic	r3, r3, #112
 888 011e 059A     		ldr	r2, [sp, #20]
 889 0120 41F82230 		str	r3, [r1, r2, lsl #2]
 890              		.loc 2 351 0
 891 0124 574B     		ldr	r3, .L56+4
 892 0126 1A6D     		ldr	r2, [r3, #80]
 893 0128 059B     		ldr	r3, [sp, #20]
ARM GAS  /tmp/ccXLZ6ci.s 			page 17


 894 012a DB00     		lsls	r3, r3, #3
 895 012c 1344     		add	r3, r3, r2
 896 012e 03F10053 		add	r3, r3, #536870912
 897 0132 03F54053 		add	r3, r3, #12288
 898 0136 5B00     		lsls	r3, r3, #1
 899 0138 9B88     		ldrh	r3, [r3, #4]	@ movhi
 900 013a 9BB2     		uxth	r3, r3
 901 013c 0293     		str	r3, [sp, #8]
 902              		.loc 2 352 0
 903 013e 039B     		ldr	r3, [sp, #12]
 904 0140 5B69     		ldr	r3, [r3, #20]
 905 0142 039A     		ldr	r2, [sp, #12]
 906 0144 5269     		ldr	r2, [r2, #20]
 907 0146 9168     		ldr	r1, [r2, #8]
 908 0148 029A     		ldr	r2, [sp, #8]
 909 014a 0A44     		add	r2, r2, r1
 910 014c 9A60     		str	r2, [r3, #8]
 911              		.loc 2 353 0
 912 014e 039B     		ldr	r3, [sp, #12]
 913 0150 5B69     		ldr	r3, [r3, #20]
 914 0152 5A68     		ldr	r2, [r3, #4]
 915 0154 039B     		ldr	r3, [sp, #12]
 916 0156 5B69     		ldr	r3, [r3, #20]
 917 0158 9B68     		ldr	r3, [r3, #8]
 918 015a D31A     		subs	r3, r2, r3
 919 015c 0893     		str	r3, [sp, #32]
 920              		.loc 2 354 0
 921 015e 089B     		ldr	r3, [sp, #32]
 922 0160 002B     		cmp	r3, #0
 923 0162 4DD0     		beq	.L45
 924              		.loc 2 356 0
 925 0164 039B     		ldr	r3, [sp, #12]
 926 0166 1B8A     		ldrh	r3, [r3, #16]
 927 0168 1A46     		mov	r2, r3
 928 016a 089B     		ldr	r3, [sp, #32]
 929 016c 9A42     		cmp	r2, r3
 930 016e 02D2     		bcs	.L46
 931              		.loc 2 357 0
 932 0170 039B     		ldr	r3, [sp, #12]
 933 0172 1B8A     		ldrh	r3, [r3, #16]
 934 0174 0893     		str	r3, [sp, #32]
 935              	.L46:
 936              		.loc 2 359 0
 937 0176 039B     		ldr	r3, [sp, #12]
 938 0178 5B69     		ldr	r3, [r3, #20]
 939 017a 1B78     		ldrb	r3, [r3]	@ zero_extendqisi2
 940 017c 002B     		cmp	r3, #0
 941 017e 13D0     		beq	.L47
 942              		.loc 2 360 0
 943 0180 404B     		ldr	r3, .L56+4
 944 0182 1A6D     		ldr	r2, [r3, #80]
 945 0184 059B     		ldr	r3, [sp, #20]
 946 0186 DB00     		lsls	r3, r3, #3
 947 0188 1344     		add	r3, r3, r2
 948 018a 03F10053 		add	r3, r3, #536870912
 949 018e 03F54053 		add	r3, r3, #12288
 950 0192 5B00     		lsls	r3, r3, #1
ARM GAS  /tmp/ccXLZ6ci.s 			page 18


 951 0194 1A46     		mov	r2, r3
 952              		.loc 2 361 0
 953 0196 039B     		ldr	r3, [sp, #12]
 954 0198 5B69     		ldr	r3, [r3, #20]
 955              		.loc 2 360 0
 956 019a DB68     		ldr	r3, [r3, #12]
 957 019c 1046     		mov	r0, r2
 958 019e 1946     		mov	r1, r3
 959 01a0 089A     		ldr	r2, [sp, #32]
 960 01a2 FFF7FEFF 		bl	usb_packet_write_from_queue
 961 01a6 1AE0     		b	.L48
 962              	.L47:
 963              		.loc 2 364 0
 964 01a8 039B     		ldr	r3, [sp, #12]
 965 01aa 5B69     		ldr	r3, [r3, #20]
 966 01ac 039A     		ldr	r2, [sp, #12]
 967 01ae 5269     		ldr	r2, [r2, #20]
 968 01b0 D168     		ldr	r1, [r2, #12]
 969 01b2 029A     		ldr	r2, [sp, #8]
 970 01b4 0A44     		add	r2, r2, r1
 971 01b6 DA60     		str	r2, [r3, #12]
 972              		.loc 2 365 0
 973 01b8 324B     		ldr	r3, .L56+4
 974 01ba 1A6D     		ldr	r2, [r3, #80]
 975 01bc 059B     		ldr	r3, [sp, #20]
 976 01be DB00     		lsls	r3, r3, #3
 977 01c0 1344     		add	r3, r3, r2
 978 01c2 03F10053 		add	r3, r3, #536870912
 979 01c6 03F54053 		add	r3, r3, #12288
 980 01ca 5B00     		lsls	r3, r3, #1
 981 01cc 1A46     		mov	r2, r3
 982              		.loc 2 366 0
 983 01ce 039B     		ldr	r3, [sp, #12]
 984 01d0 5B69     		ldr	r3, [r3, #20]
 985              		.loc 2 365 0
 986 01d2 DB68     		ldr	r3, [r3, #12]
 987 01d4 1046     		mov	r0, r2
 988 01d6 1946     		mov	r1, r3
 989 01d8 089A     		ldr	r2, [sp, #32]
 990 01da FFF7FEFF 		bl	usb_packet_write_from_buffer
 991              	.L48:
 992              	.LBB11:
 993              		.loc 2 369 0
 994 01de 2023     		movs	r3, #32
 995              	@ 369 "/home/ergae/r2p-sdk/core/ChibiOS/os/hal/platforms/STM32/USBv1/usb_lld.c" 1
 996 01e0 83F31188 		msr     BASEPRI, r3
 997              	@ 0 "" 2
 998              		.thumb
 999              	.LBE11:
 1000 01e4 FFF7FEFF 		bl	dbg_check_lock_from_isr
 1001              		.loc 2 370 0
 1002 01e8 059B     		ldr	r3, [sp, #20]
 1003 01ea DBB2     		uxtb	r3, r3
 1004 01ec 0798     		ldr	r0, [sp, #28]
 1005 01ee 1946     		mov	r1, r3
 1006 01f0 FFF7FEFF 		bl	usb_lld_start_in
 1007              		.loc 2 371 0
ARM GAS  /tmp/ccXLZ6ci.s 			page 19


 1008 01f4 FFF7FEFF 		bl	dbg_check_unlock_from_isr
 1009              	.LBB12:
 1010 01f8 0023     		movs	r3, #0
 1011              	@ 371 "/home/ergae/r2p-sdk/core/ChibiOS/os/hal/platforms/STM32/USBv1/usb_lld.c" 1
 1012 01fa 83F31188 		msr     BASEPRI, r3
 1013              	@ 0 "" 2
 1014              		.thumb
 1015              	.LBE12:
 1016 01fe 1BE0     		b	.L44
 1017              	.L45:
 1018              		.loc 2 375 0
 1019 0200 079B     		ldr	r3, [sp, #28]
 1020 0202 1B89     		ldrh	r3, [r3, #8]
 1021 0204 99B2     		uxth	r1, r3
 1022 0206 059B     		ldr	r3, [sp, #20]
 1023 0208 0122     		movs	r2, #1
 1024 020a 02FA03F3 		lsl	r3, r2, r3
 1025 020e 9BB2     		uxth	r3, r3
 1026 0210 DB43     		mvns	r3, r3
 1027 0212 9BB2     		uxth	r3, r3
 1028 0214 0A46     		mov	r2, r1	@ movhi
 1029 0216 1340     		ands	r3, r3, r2
 1030 0218 9BB2     		uxth	r3, r3
 1031 021a 9AB2     		uxth	r2, r3
 1032 021c 079B     		ldr	r3, [sp, #28]
 1033 021e 1A81     		strh	r2, [r3, #8]	@ movhi
 1034 0220 079A     		ldr	r2, [sp, #28]
 1035 0222 059B     		ldr	r3, [sp, #20]
 1036 0224 0233     		adds	r3, r3, #2
 1037 0226 9B00     		lsls	r3, r3, #2
 1038 0228 1344     		add	r3, r3, r2
 1039 022a 5B68     		ldr	r3, [r3, #4]
 1040 022c 9B68     		ldr	r3, [r3, #8]
 1041 022e 059A     		ldr	r2, [sp, #20]
 1042 0230 D2B2     		uxtb	r2, r2
 1043 0232 0798     		ldr	r0, [sp, #28]
 1044 0234 1146     		mov	r1, r2
 1045 0236 9847     		blx	r3
 1046              	.L44:
 1047              	.LBE10:
 1048              		.loc 2 378 0
 1049 0238 049B     		ldr	r3, [sp, #16]
 1050 023a 03F40043 		and	r3, r3, #32768
 1051 023e 002B     		cmp	r3, #0
 1052 0240 00F09F80 		beq	.L49
 1053              		.loc 2 379 0
 1054 0244 0F49     		ldr	r1, .L56+4
 1055 0246 0F4A     		ldr	r2, .L56+4
 1056 0248 059B     		ldr	r3, [sp, #20]
 1057 024a 52F82330 		ldr	r3, [r2, r3, lsl #2]
 1058 024e 23F47843 		bic	r3, r3, #63488
 1059 0252 23F07003 		bic	r3, r3, #112
 1060 0256 059A     		ldr	r2, [sp, #20]
 1061 0258 41F82230 		str	r3, [r1, r2, lsl #2]
 1062              		.loc 2 381 0
 1063 025c 049B     		ldr	r3, [sp, #16]
 1064 025e 03F40063 		and	r3, r3, #2048
ARM GAS  /tmp/ccXLZ6ci.s 			page 20


 1065 0262 002B     		cmp	r3, #0
 1066 0264 10D0     		beq	.L50
 1067              		.loc 2 384 0
 1068 0266 079A     		ldr	r2, [sp, #28]
 1069 0268 059B     		ldr	r3, [sp, #20]
 1070 026a 0233     		adds	r3, r3, #2
 1071 026c 9B00     		lsls	r3, r3, #2
 1072 026e 1344     		add	r3, r3, r2
 1073 0270 5B68     		ldr	r3, [r3, #4]
 1074 0272 5B68     		ldr	r3, [r3, #4]
 1075 0274 059A     		ldr	r2, [sp, #20]
 1076 0276 D2B2     		uxtb	r2, r2
 1077 0278 0798     		ldr	r0, [sp, #28]
 1078 027a 1146     		mov	r1, r2
 1079 027c 9847     		blx	r3
 1080 027e 80E0     		b	.L49
 1081              	.L57:
 1082              		.align	2
 1083              	.L56:
 1084 0280 00000000 		.word	USBD1
 1085 0284 005C0040 		.word	1073765376
 1086              	.L50:
 1087              	.LBB13:
 1088              		.loc 2 387 0
 1089 0288 464B     		ldr	r3, .L58
 1090 028a 1A6D     		ldr	r2, [r3, #80]
 1091 028c 059B     		ldr	r3, [sp, #20]
 1092 028e DB00     		lsls	r3, r3, #3
 1093 0290 1344     		add	r3, r3, r2
 1094 0292 03F10053 		add	r3, r3, #536870912
 1095 0296 03F54053 		add	r3, r3, #12288
 1096 029a 5B00     		lsls	r3, r3, #1
 1097 029c 0193     		str	r3, [sp, #4]
 1098              		.loc 2 388 0
 1099 029e 019B     		ldr	r3, [sp, #4]
 1100 02a0 9B89     		ldrh	r3, [r3, #12]	@ movhi
 1101 02a2 9BB2     		uxth	r3, r3
 1102 02a4 C3F30903 		ubfx	r3, r3, #0, #10
 1103 02a8 0893     		str	r3, [sp, #32]
 1104              		.loc 2 391 0
 1105 02aa 039B     		ldr	r3, [sp, #12]
 1106 02ac 9B69     		ldr	r3, [r3, #24]
 1107 02ae 1B78     		ldrb	r3, [r3]	@ zero_extendqisi2
 1108 02b0 002B     		cmp	r3, #0
 1109 02b2 08D0     		beq	.L51
 1110              		.loc 2 393 0
 1111 02b4 039B     		ldr	r3, [sp, #12]
 1112 02b6 9B69     		ldr	r3, [r3, #24]
 1113              		.loc 2 392 0
 1114 02b8 DB68     		ldr	r3, [r3, #12]
 1115 02ba 0198     		ldr	r0, [sp, #4]
 1116 02bc 1946     		mov	r1, r3
 1117 02be 089A     		ldr	r2, [sp, #32]
 1118 02c0 FFF7FEFF 		bl	usb_packet_read_to_queue
 1119 02c4 0FE0     		b	.L52
 1120              	.L51:
 1121              		.loc 2 397 0
ARM GAS  /tmp/ccXLZ6ci.s 			page 21


 1122 02c6 039B     		ldr	r3, [sp, #12]
 1123 02c8 9B69     		ldr	r3, [r3, #24]
 1124              		.loc 2 396 0
 1125 02ca DB68     		ldr	r3, [r3, #12]
 1126 02cc 0198     		ldr	r0, [sp, #4]
 1127 02ce 1946     		mov	r1, r3
 1128 02d0 089A     		ldr	r2, [sp, #32]
 1129 02d2 FFF7FEFF 		bl	usb_packet_read_to_buffer
 1130              		.loc 2 399 0
 1131 02d6 039B     		ldr	r3, [sp, #12]
 1132 02d8 9B69     		ldr	r3, [r3, #24]
 1133 02da 039A     		ldr	r2, [sp, #12]
 1134 02dc 9269     		ldr	r2, [r2, #24]
 1135 02de D168     		ldr	r1, [r2, #12]
 1136 02e0 089A     		ldr	r2, [sp, #32]
 1137 02e2 0A44     		add	r2, r2, r1
 1138 02e4 DA60     		str	r2, [r3, #12]
 1139              	.L52:
 1140              		.loc 2 402 0
 1141 02e6 039B     		ldr	r3, [sp, #12]
 1142 02e8 9B69     		ldr	r3, [r3, #24]
 1143 02ea 039A     		ldr	r2, [sp, #12]
 1144 02ec 9269     		ldr	r2, [r2, #24]
 1145 02ee 9168     		ldr	r1, [r2, #8]
 1146 02f0 089A     		ldr	r2, [sp, #32]
 1147 02f2 0A44     		add	r2, r2, r1
 1148 02f4 9A60     		str	r2, [r3, #8]
 1149              		.loc 2 403 0
 1150 02f6 039B     		ldr	r3, [sp, #12]
 1151 02f8 9B69     		ldr	r3, [r3, #24]
 1152 02fa 039A     		ldr	r2, [sp, #12]
 1153 02fc 9269     		ldr	r2, [r2, #24]
 1154 02fe 5168     		ldr	r1, [r2, #4]
 1155 0300 089A     		ldr	r2, [sp, #32]
 1156 0302 8A1A     		subs	r2, r1, r2
 1157 0304 5A60     		str	r2, [r3, #4]
 1158              		.loc 2 404 0
 1159 0306 039B     		ldr	r3, [sp, #12]
 1160 0308 9B69     		ldr	r3, [r3, #24]
 1161 030a 039A     		ldr	r2, [sp, #12]
 1162 030c 9269     		ldr	r2, [r2, #24]
 1163 030e 128A     		ldrh	r2, [r2, #16]
 1164 0310 013A     		subs	r2, r2, #1
 1165 0312 92B2     		uxth	r2, r2
 1166 0314 1A82     		strh	r2, [r3, #16]	@ movhi
 1167              		.loc 2 408 0
 1168 0316 039B     		ldr	r3, [sp, #12]
 1169 0318 5B8A     		ldrh	r3, [r3, #18]
 1170 031a 1A46     		mov	r2, r3
 1171 031c 089B     		ldr	r3, [sp, #32]
 1172 031e 9A42     		cmp	r2, r3
 1173 0320 04D8     		bhi	.L53
 1174              		.loc 2 408 0 is_stmt 0 discriminator 1
 1175 0322 039B     		ldr	r3, [sp, #12]
 1176 0324 9B69     		ldr	r3, [r3, #24]
 1177 0326 1B8A     		ldrh	r3, [r3, #16]
 1178 0328 002B     		cmp	r3, #0
ARM GAS  /tmp/ccXLZ6ci.s 			page 22


 1179 032a 1CD1     		bne	.L54
 1180              	.L53:
 1181              		.loc 2 410 0 is_stmt 1
 1182 032c 079B     		ldr	r3, [sp, #28]
 1183 032e 5B89     		ldrh	r3, [r3, #10]
 1184 0330 99B2     		uxth	r1, r3
 1185 0332 059B     		ldr	r3, [sp, #20]
 1186 0334 0122     		movs	r2, #1
 1187 0336 02FA03F3 		lsl	r3, r2, r3
 1188 033a 9BB2     		uxth	r3, r3
 1189 033c DB43     		mvns	r3, r3
 1190 033e 9BB2     		uxth	r3, r3
 1191 0340 0A46     		mov	r2, r1	@ movhi
 1192 0342 1340     		ands	r3, r3, r2
 1193 0344 9BB2     		uxth	r3, r3
 1194 0346 9AB2     		uxth	r2, r3
 1195 0348 079B     		ldr	r3, [sp, #28]
 1196 034a 5A81     		strh	r2, [r3, #10]	@ movhi
 1197 034c 079A     		ldr	r2, [sp, #28]
 1198 034e 059B     		ldr	r3, [sp, #20]
 1199 0350 0233     		adds	r3, r3, #2
 1200 0352 9B00     		lsls	r3, r3, #2
 1201 0354 1344     		add	r3, r3, r2
 1202 0356 5B68     		ldr	r3, [r3, #4]
 1203 0358 DB68     		ldr	r3, [r3, #12]
 1204 035a 059A     		ldr	r2, [sp, #20]
 1205 035c D2B2     		uxtb	r2, r2
 1206 035e 0798     		ldr	r0, [sp, #28]
 1207 0360 1146     		mov	r1, r2
 1208 0362 9847     		blx	r3
 1209 0364 0DE0     		b	.L49
 1210              	.L54:
 1211              		.loc 2 414 0
 1212 0366 0F49     		ldr	r1, .L58
 1213 0368 0E4A     		ldr	r2, .L58
 1214 036a 059B     		ldr	r3, [sp, #20]
 1215 036c 52F82330 		ldr	r3, [r2, r3, lsl #2]
 1216 0370 23F49043 		bic	r3, r3, #18432
 1217 0374 23F07003 		bic	r3, r3, #112
 1218 0378 83F44052 		eor	r2, r3, #12288
 1219 037c 059B     		ldr	r3, [sp, #20]
 1220 037e 41F82320 		str	r2, [r1, r3, lsl #2]
 1221              	.L49:
 1222              	.LBE13:
 1223              		.loc 2 418 0
 1224 0382 084B     		ldr	r3, .L58
 1225 0384 5B6C     		ldr	r3, [r3, #68]
 1226 0386 0993     		str	r3, [sp, #36]
 1227              	.L43:
 1228              	.LBE9:
 1229              		.loc 2 340 0
 1230 0388 099B     		ldr	r3, [sp, #36]
 1231 038a 03F40043 		and	r3, r3, #32768
 1232 038e 002B     		cmp	r3, #0
 1233 0390 7FF4A6AE 		bne	.L55
 1234              		.loc 2 421 0
 1235 0394 FFF7FEFF 		bl	dbg_check_leave_isr
ARM GAS  /tmp/ccXLZ6ci.s 			page 23


 1236 0398 FFF7FEFF 		bl	_port_irq_epilogue
 1237              		.loc 2 422 0
 1238 039c 0BB0     		add	sp, sp, #44
 1239              		.cfi_def_cfa_offset 4
 1240              		@ sp needed
 1241 039e 5DF804FB 		ldr	pc, [sp], #4
 1242              	.L59:
 1243 03a2 00BF     		.align	2
 1244              	.L58:
 1245 03a4 005C0040 		.word	1073765376
 1246              		.cfi_endproc
 1247              	.LFE125:
 1248              		.size	Vector16C, .-Vector16C
 1249 03a8 AFF30080 		.section	.text.usb_lld_init,"ax",%progbits
 1249      AFF30080 
 1250              		.align	2
 1251              		.p2align 4,,15
 1252              		.global	usb_lld_init
 1253              		.thumb
 1254              		.thumb_func
 1255              		.type	usb_lld_init, %function
 1256              	usb_lld_init:
 1257              	.LFB126:
 1258              		.loc 2 434 0
 1259              		.cfi_startproc
 1260              		@ args = 0, pretend = 0, frame = 0
 1261              		@ frame_needed = 0, uses_anonymous_args = 0
 1262 0000 08B5     		push	{r3, lr}
 1263              		.cfi_def_cfa_offset 8
 1264              		.cfi_offset 3, -8
 1265              		.cfi_offset 14, -4
 1266              		.loc 2 437 0
 1267 0002 0248     		ldr	r0, .L61
 1268 0004 FFF7FEFF 		bl	usbObjectInit
 1269              		.loc 2 438 0
 1270 0008 08BD     		pop	{r3, pc}
 1271              	.L62:
 1272 000a 00BF     		.align	2
 1273              	.L61:
 1274 000c 00000000 		.word	USBD1
 1275              		.cfi_endproc
 1276              	.LFE126:
 1277              		.size	usb_lld_init, .-usb_lld_init
 1278              		.section	.text.usb_lld_start,"ax",%progbits
 1279              		.align	2
 1280              		.p2align 4,,15
 1281              		.global	usb_lld_start
 1282              		.thumb
 1283              		.thumb_func
 1284              		.type	usb_lld_start, %function
 1285              	usb_lld_start:
 1286              	.LFB127:
 1287              		.loc 2 447 0
 1288              		.cfi_startproc
 1289              		@ args = 0, pretend = 0, frame = 8
 1290              		@ frame_needed = 0, uses_anonymous_args = 0
 1291 0000 00B5     		push	{lr}
ARM GAS  /tmp/ccXLZ6ci.s 			page 24


 1292              		.cfi_def_cfa_offset 4
 1293              		.cfi_offset 14, -4
 1294 0002 83B0     		sub	sp, sp, #12
 1295              		.cfi_def_cfa_offset 16
 1296 0004 0190     		str	r0, [sp, #4]
 1297              		.loc 2 449 0
 1298 0006 019B     		ldr	r3, [sp, #4]
 1299 0008 1B78     		ldrb	r3, [r3]	@ zero_extendqisi2
 1300 000a 012B     		cmp	r3, #1
 1301 000c 1AD1     		bne	.L63
 1302              		.loc 2 452 0
 1303 000e 019B     		ldr	r3, [sp, #4]
 1304 0010 0E4A     		ldr	r2, .L66
 1305 0012 9342     		cmp	r3, r2
 1306 0014 13D1     		bne	.L65
 1307              		.loc 2 454 0
 1308 0016 0E4A     		ldr	r2, .L66+4
 1309 0018 0D4B     		ldr	r3, .L66+4
 1310 001a DB69     		ldr	r3, [r3, #28]
 1311 001c 43F40003 		orr	r3, r3, #8388608
 1312 0020 D361     		str	r3, [r2, #28]
 1313              		.loc 2 456 0
 1314 0022 0C4B     		ldr	r3, .L66+8
 1315 0024 0122     		movs	r2, #1
 1316 0026 1A64     		str	r2, [r3, #64]
 1317              		.loc 2 459 0
 1318 0028 4A20     		movs	r0, #74
 1319 002a D021     		movs	r1, #208
 1320 002c FFF7FEFF 		bl	nvicEnableVector
 1321              		.loc 2 461 0
 1322 0030 4B20     		movs	r0, #75
 1323 0032 E021     		movs	r1, #224
 1324 0034 FFF7FEFF 		bl	nvicEnableVector
 1325              		.loc 2 464 0
 1326 0038 064B     		ldr	r3, .L66+8
 1327 003a 0022     		movs	r2, #0
 1328 003c 1A64     		str	r2, [r3, #64]
 1329              	.L65:
 1330              		.loc 2 468 0
 1331 003e 0198     		ldr	r0, [sp, #4]
 1332 0040 FFF7FEFF 		bl	_usb_reset
 1333              	.L63:
 1334              		.loc 2 471 0
 1335 0044 03B0     		add	sp, sp, #12
 1336              		.cfi_def_cfa_offset 4
 1337              		@ sp needed
 1338 0046 5DF804FB 		ldr	pc, [sp], #4
 1339              	.L67:
 1340 004a 00BF     		.align	2
 1341              	.L66:
 1342 004c 00000000 		.word	USBD1
 1343 0050 00100240 		.word	1073876992
 1344 0054 005C0040 		.word	1073765376
 1345              		.cfi_endproc
 1346              	.LFE127:
 1347              		.size	usb_lld_start, .-usb_lld_start
 1348 0058 AFF30080 		.section	.text.usb_lld_stop,"ax",%progbits
ARM GAS  /tmp/ccXLZ6ci.s 			page 25


 1348      AFF30080 
 1349              		.align	2
 1350              		.p2align 4,,15
 1351              		.global	usb_lld_stop
 1352              		.thumb
 1353              		.thumb_func
 1354              		.type	usb_lld_stop, %function
 1355              	usb_lld_stop:
 1356              	.LFB128:
 1357              		.loc 2 480 0
 1358              		.cfi_startproc
 1359              		@ args = 0, pretend = 0, frame = 8
 1360              		@ frame_needed = 0, uses_anonymous_args = 0
 1361 0000 00B5     		push	{lr}
 1362              		.cfi_def_cfa_offset 4
 1363              		.cfi_offset 14, -4
 1364 0002 83B0     		sub	sp, sp, #12
 1365              		.cfi_def_cfa_offset 16
 1366 0004 0190     		str	r0, [sp, #4]
 1367              		.loc 2 483 0
 1368 0006 019B     		ldr	r3, [sp, #4]
 1369 0008 1B78     		ldrb	r3, [r3]	@ zero_extendqisi2
 1370 000a 012B     		cmp	r3, #1
 1371 000c 12D1     		bne	.L68
 1372              		.loc 2 485 0
 1373 000e 019B     		ldr	r3, [sp, #4]
 1374 0010 0A4A     		ldr	r2, .L70
 1375 0012 9342     		cmp	r3, r2
 1376 0014 0ED1     		bne	.L68
 1377              		.loc 2 486 0
 1378 0016 4A20     		movs	r0, #74
 1379 0018 FFF7FEFF 		bl	nvicDisableVector
 1380              		.loc 2 487 0
 1381 001c 4B20     		movs	r0, #75
 1382 001e FFF7FEFF 		bl	nvicDisableVector
 1383              		.loc 2 488 0
 1384 0022 074B     		ldr	r3, .L70+4
 1385 0024 0322     		movs	r2, #3
 1386 0026 1A64     		str	r2, [r3, #64]
 1387              		.loc 2 489 0
 1388 0028 064A     		ldr	r2, .L70+8
 1389 002a 064B     		ldr	r3, .L70+8
 1390 002c DB69     		ldr	r3, [r3, #28]
 1391 002e 23F40003 		bic	r3, r3, #8388608
 1392 0032 D361     		str	r3, [r2, #28]
 1393              	.L68:
 1394              		.loc 2 493 0
 1395 0034 03B0     		add	sp, sp, #12
 1396              		.cfi_def_cfa_offset 4
 1397              		@ sp needed
 1398 0036 5DF804FB 		ldr	pc, [sp], #4
 1399              	.L71:
 1400 003a 00BF     		.align	2
 1401              	.L70:
 1402 003c 00000000 		.word	USBD1
 1403 0040 005C0040 		.word	1073765376
 1404 0044 00100240 		.word	1073876992
ARM GAS  /tmp/ccXLZ6ci.s 			page 26


 1405              		.cfi_endproc
 1406              	.LFE128:
 1407              		.size	usb_lld_stop, .-usb_lld_stop
 1408 0048 AFF30080 		.section	.text.usb_lld_reset,"ax",%progbits
 1408      AFF30080 
 1409              		.align	2
 1410              		.p2align 4,,15
 1411              		.global	usb_lld_reset
 1412              		.thumb
 1413              		.thumb_func
 1414              		.type	usb_lld_reset, %function
 1415              	usb_lld_reset:
 1416              	.LFB129:
 1417              		.loc 2 502 0
 1418              		.cfi_startproc
 1419              		@ args = 0, pretend = 0, frame = 16
 1420              		@ frame_needed = 0, uses_anonymous_args = 0
 1421 0000 00B5     		push	{lr}
 1422              		.cfi_def_cfa_offset 4
 1423              		.cfi_offset 14, -4
 1424 0002 85B0     		sub	sp, sp, #20
 1425              		.cfi_def_cfa_offset 24
 1426 0004 0190     		str	r0, [sp, #4]
 1427              		.loc 2 506 0
 1428 0006 124B     		ldr	r3, .L74
 1429 0008 0022     		movs	r2, #0
 1430 000a 1A65     		str	r2, [r3, #80]
 1431              		.loc 2 507 0
 1432 000c 104B     		ldr	r3, .L74
 1433 000e 0022     		movs	r2, #0
 1434 0010 5A64     		str	r2, [r3, #68]
 1435              		.loc 2 508 0
 1436 0012 0F4B     		ldr	r3, .L74
 1437 0014 8022     		movs	r2, #128
 1438 0016 DA64     		str	r2, [r3, #76]
 1439              		.loc 2 509 0
 1440 0018 4FF41C43 		mov	r3, #39936
 1441 001c 0393     		str	r3, [sp, #12]
 1442              		.loc 2 513 0
 1443 001e 019B     		ldr	r3, [sp, #4]
 1444 0020 5B68     		ldr	r3, [r3, #4]
 1445 0022 DB68     		ldr	r3, [r3, #12]
 1446 0024 002B     		cmp	r3, #0
 1447 0026 03D0     		beq	.L73
 1448              		.loc 2 514 0
 1449 0028 039B     		ldr	r3, [sp, #12]
 1450 002a 43F40073 		orr	r3, r3, #512
 1451 002e 0393     		str	r3, [sp, #12]
 1452              	.L73:
 1453              		.loc 2 515 0
 1454 0030 074A     		ldr	r2, .L74
 1455 0032 039B     		ldr	r3, [sp, #12]
 1456 0034 1364     		str	r3, [r2, #64]
 1457              		.loc 2 518 0
 1458 0036 0198     		ldr	r0, [sp, #4]
 1459 0038 FFF7FEFF 		bl	usb_pm_reset
 1460              		.loc 2 521 0
ARM GAS  /tmp/ccXLZ6ci.s 			page 27


 1461 003c 019B     		ldr	r3, [sp, #4]
 1462 003e 054A     		ldr	r2, .L74+4
 1463 0040 DA60     		str	r2, [r3, #12]
 1464              		.loc 2 522 0
 1465 0042 0198     		ldr	r0, [sp, #4]
 1466 0044 0021     		movs	r1, #0
 1467 0046 FFF7FEFF 		bl	usb_lld_init_endpoint
 1468              		.loc 2 523 0
 1469 004a 05B0     		add	sp, sp, #20
 1470              		.cfi_def_cfa_offset 4
 1471              		@ sp needed
 1472 004c 5DF804FB 		ldr	pc, [sp], #4
 1473              	.L75:
 1474              		.align	2
 1475              	.L74:
 1476 0050 005C0040 		.word	1073765376
 1477 0054 00000000 		.word	ep0config
 1478              		.cfi_endproc
 1479              	.LFE129:
 1480              		.size	usb_lld_reset, .-usb_lld_reset
 1481 0058 AFF30080 		.section	.text.usb_lld_set_address,"ax",%progbits
 1481      AFF30080 
 1482              		.align	2
 1483              		.p2align 4,,15
 1484              		.global	usb_lld_set_address
 1485              		.thumb
 1486              		.thumb_func
 1487              		.type	usb_lld_set_address, %function
 1488              	usb_lld_set_address:
 1489              	.LFB130:
 1490              		.loc 2 532 0
 1491              		.cfi_startproc
 1492              		@ args = 0, pretend = 0, frame = 8
 1493              		@ frame_needed = 0, uses_anonymous_args = 0
 1494              		@ link register save eliminated.
 1495 0000 82B0     		sub	sp, sp, #8
 1496              		.cfi_def_cfa_offset 8
 1497 0002 0190     		str	r0, [sp, #4]
 1498              		.loc 2 534 0
 1499 0004 044A     		ldr	r2, .L77
 1500 0006 019B     		ldr	r3, [sp, #4]
 1501 0008 93F87E30 		ldrb	r3, [r3, #126]	@ zero_extendqisi2
 1502 000c 63F07F03 		orn	r3, r3, #127
 1503 0010 DBB2     		uxtb	r3, r3
 1504 0012 D364     		str	r3, [r2, #76]
 1505              		.loc 2 535 0
 1506 0014 02B0     		add	sp, sp, #8
 1507              		.cfi_def_cfa_offset 0
 1508              		@ sp needed
 1509 0016 7047     		bx	lr
 1510              	.L78:
 1511              		.align	2
 1512              	.L77:
 1513 0018 005C0040 		.word	1073765376
 1514              		.cfi_endproc
 1515              	.LFE130:
 1516              		.size	usb_lld_set_address, .-usb_lld_set_address
ARM GAS  /tmp/ccXLZ6ci.s 			page 28


 1517 001c AFF30080 		.section	.text.usb_lld_init_endpoint,"ax",%progbits
 1518              		.align	2
 1519              		.p2align 4,,15
 1520              		.global	usb_lld_init_endpoint
 1521              		.thumb
 1522              		.thumb_func
 1523              		.type	usb_lld_init_endpoint, %function
 1524              	usb_lld_init_endpoint:
 1525              	.LFB131:
 1526              		.loc 2 545 0
 1527              		.cfi_startproc
 1528              		@ args = 0, pretend = 0, frame = 24
 1529              		@ frame_needed = 0, uses_anonymous_args = 0
 1530 0000 10B5     		push	{r4, lr}
 1531              		.cfi_def_cfa_offset 8
 1532              		.cfi_offset 4, -8
 1533              		.cfi_offset 14, -4
 1534 0002 86B0     		sub	sp, sp, #24
 1535              		.cfi_def_cfa_offset 32
 1536 0004 0190     		str	r0, [sp, #4]
 1537 0006 0B46     		mov	r3, r1
 1538 0008 8DF80330 		strb	r3, [sp, #3]
 1539              		.loc 2 548 0
 1540 000c 9DF80330 		ldrb	r3, [sp, #3]	@ zero_extendqisi2
 1541 0010 019A     		ldr	r2, [sp, #4]
 1542 0012 0233     		adds	r3, r3, #2
 1543 0014 9B00     		lsls	r3, r3, #2
 1544 0016 1344     		add	r3, r3, r2
 1545 0018 5B68     		ldr	r3, [r3, #4]
 1546 001a 0493     		str	r3, [sp, #16]
 1547              		.loc 2 551 0
 1548 001c 049B     		ldr	r3, [sp, #16]
 1549 001e 1B68     		ldr	r3, [r3]
 1550 0020 03F00303 		and	r3, r3, #3
 1551 0024 022B     		cmp	r3, #2
 1552 0026 08D0     		beq	.L81
 1553 0028 032B     		cmp	r3, #3
 1554 002a 0AD0     		beq	.L82
 1555 002c 012B     		cmp	r3, #1
 1556 002e 0DD1     		bne	.L90
 1557              		.loc 2 553 0
 1558 0030 4FF48063 		mov	r3, #1024
 1559 0034 ADF81430 		strh	r3, [sp, #20]	@ movhi
 1560              		.loc 2 554 0
 1561 0038 0CE0     		b	.L84
 1562              	.L81:
 1563              		.loc 2 556 0
 1564 003a 0023     		movs	r3, #0
 1565 003c ADF81430 		strh	r3, [sp, #20]	@ movhi
 1566              		.loc 2 557 0
 1567 0040 08E0     		b	.L84
 1568              	.L82:
 1569              		.loc 2 559 0
 1570 0042 4FF4C063 		mov	r3, #1536
 1571 0046 ADF81430 		strh	r3, [sp, #20]	@ movhi
 1572              		.loc 2 560 0
 1573 004a 03E0     		b	.L84
ARM GAS  /tmp/ccXLZ6ci.s 			page 29


 1574              	.L90:
 1575              		.loc 2 562 0
 1576 004c 4FF40073 		mov	r3, #512
 1577 0050 ADF81430 		strh	r3, [sp, #20]	@ movhi
 1578              	.L84:
 1579              		.loc 2 566 0
 1580 0054 049B     		ldr	r3, [sp, #16]
 1581 0056 9B68     		ldr	r3, [r3, #8]
 1582 0058 002B     		cmp	r3, #0
 1583 005a 05D0     		beq	.L85
 1584              		.loc 2 567 0
 1585 005c BDF81430 		ldrh	r3, [sp, #20]	@ movhi
 1586 0060 43F02003 		orr	r3, r3, #32
 1587 0064 ADF81430 		strh	r3, [sp, #20]	@ movhi
 1588              	.L85:
 1589              		.loc 2 570 0
 1590 0068 049B     		ldr	r3, [sp, #16]
 1591 006a DB68     		ldr	r3, [r3, #12]
 1592 006c 002B     		cmp	r3, #0
 1593 006e 05D0     		beq	.L86
 1594              		.loc 2 571 0
 1595 0070 BDF81430 		ldrh	r3, [sp, #20]	@ movhi
 1596 0074 43F40053 		orr	r3, r3, #8192
 1597 0078 ADF81430 		strh	r3, [sp, #20]	@ movhi
 1598              	.L86:
 1599              		.loc 2 574 0
 1600 007c 3448     		ldr	r0, .L91
 1601 007e 9DF80320 		ldrb	r2, [sp, #3]	@ zero_extendqisi2
 1602 0082 BDF81410 		ldrh	r1, [sp, #20]
 1603 0086 9DF80330 		ldrb	r3, [sp, #3]	@ zero_extendqisi2
 1604 008a 0B43     		orrs	r3, r3, r1
 1605 008c 23F4F043 		bic	r3, r3, #30720
 1606 0090 23F07003 		bic	r3, r3, #112
 1607 0094 40F82230 		str	r3, [r0, r2, lsl #2]
 1608              		.loc 2 575 0
 1609 0098 2D4C     		ldr	r4, .L91
 1610 009a 9DF80320 		ldrb	r2, [sp, #3]	@ zero_extendqisi2
 1611 009e 2C49     		ldr	r1, .L91
 1612 00a0 9DF80330 		ldrb	r3, [sp, #3]	@ zero_extendqisi2
 1613 00a4 51F82310 		ldr	r1, [r1, r3, lsl #2]
 1614 00a8 BDF81400 		ldrh	r0, [sp, #20]
 1615 00ac 47F67003 		movw	r3, #30832
 1616 00b0 0340     		ands	r3, r3, r0
 1617 00b2 4B40     		eors	r3, r3, r1
 1618 00b4 44F82230 		str	r3, [r4, r2, lsl #2]
 1619              		.loc 2 578 0
 1620 00b8 049B     		ldr	r3, [sp, #16]
 1621 00ba 5B8A     		ldrh	r3, [r3, #18]
 1622 00bc 3E2B     		cmp	r3, #62
 1623 00be 13D9     		bls	.L87
 1624              		.loc 2 579 0
 1625 00c0 049B     		ldr	r3, [sp, #16]
 1626 00c2 5B8A     		ldrh	r3, [r3, #18]
 1627 00c4 013B     		subs	r3, r3, #1
 1628 00c6 43F01F03 		orr	r3, r3, #31
 1629 00ca 0133     		adds	r3, r3, #1
 1630 00cc 002B     		cmp	r3, #0
ARM GAS  /tmp/ccXLZ6ci.s 			page 30


 1631 00ce 00DA     		bge	.L88
 1632 00d0 1F33     		adds	r3, r3, #31
 1633              	.L88:
 1634 00d2 5B11     		asrs	r3, r3, #5
 1635 00d4 9B02     		lsls	r3, r3, #10
 1636 00d6 9BB2     		uxth	r3, r3
 1637 00d8 6FEA4343 		mvn	r3, r3, lsl #17
 1638 00dc 6FEA5343 		mvn	r3, r3, lsr #17
 1639 00e0 9BB2     		uxth	r3, r3
 1640 00e2 ADF81630 		strh	r3, [sp, #22]	@ movhi
 1641 00e6 0CE0     		b	.L89
 1642              	.L87:
 1643              		.loc 2 582 0
 1644 00e8 049B     		ldr	r3, [sp, #16]
 1645 00ea 5B8A     		ldrh	r3, [r3, #18]
 1646 00ec 013B     		subs	r3, r3, #1
 1647 00ee 43F00103 		orr	r3, r3, #1
 1648 00f2 0133     		adds	r3, r3, #1
 1649 00f4 DA0F     		lsrs	r2, r3, #31
 1650 00f6 1344     		add	r3, r3, r2
 1651 00f8 5B10     		asrs	r3, r3, #1
 1652 00fa 9BB2     		uxth	r3, r3
 1653 00fc 9B02     		lsls	r3, r3, #10
 1654 00fe ADF81630 		strh	r3, [sp, #22]	@ movhi
 1655              	.L89:
 1656              		.loc 2 583 0
 1657 0102 134B     		ldr	r3, .L91
 1658 0104 1A6D     		ldr	r2, [r3, #80]
 1659 0106 9DF80330 		ldrb	r3, [sp, #3]	@ zero_extendqisi2
 1660 010a DB00     		lsls	r3, r3, #3
 1661 010c 1344     		add	r3, r3, r2
 1662 010e 03F10053 		add	r3, r3, #536870912
 1663 0112 03F54053 		add	r3, r3, #12288
 1664 0116 5B00     		lsls	r3, r3, #1
 1665 0118 0393     		str	r3, [sp, #12]
 1666              		.loc 2 584 0
 1667 011a 039B     		ldr	r3, [sp, #12]
 1668 011c 0022     		movs	r2, #0
 1669 011e 9A80     		strh	r2, [r3, #4]	@ movhi
 1670              		.loc 2 585 0
 1671 0120 039B     		ldr	r3, [sp, #12]
 1672 0122 BDF81620 		ldrh	r2, [sp, #22]	@ movhi
 1673 0126 9A81     		strh	r2, [r3, #12]	@ movhi
 1674              		.loc 2 586 0
 1675 0128 049B     		ldr	r3, [sp, #16]
 1676 012a 1B8A     		ldrh	r3, [r3, #16]
 1677 012c 0198     		ldr	r0, [sp, #4]
 1678 012e 1946     		mov	r1, r3
 1679 0130 FFF7FEFF 		bl	usb_pm_alloc
 1680 0134 0246     		mov	r2, r0
 1681 0136 039B     		ldr	r3, [sp, #12]
 1682 0138 1A60     		str	r2, [r3]
 1683              		.loc 2 587 0
 1684 013a 049B     		ldr	r3, [sp, #16]
 1685 013c 5B8A     		ldrh	r3, [r3, #18]
 1686 013e 0198     		ldr	r0, [sp, #4]
 1687 0140 1946     		mov	r1, r3
ARM GAS  /tmp/ccXLZ6ci.s 			page 31


 1688 0142 FFF7FEFF 		bl	usb_pm_alloc
 1689 0146 0246     		mov	r2, r0
 1690 0148 039B     		ldr	r3, [sp, #12]
 1691 014a 9A60     		str	r2, [r3, #8]
 1692              		.loc 2 588 0
 1693 014c 06B0     		add	sp, sp, #24
 1694              		.cfi_def_cfa_offset 8
 1695              		@ sp needed
 1696 014e 10BD     		pop	{r4, pc}
 1697              	.L92:
 1698              		.align	2
 1699              	.L91:
 1700 0150 005C0040 		.word	1073765376
 1701              		.cfi_endproc
 1702              	.LFE131:
 1703              		.size	usb_lld_init_endpoint, .-usb_lld_init_endpoint
 1704 0154 AFF30080 		.section	.text.usb_lld_disable_endpoints,"ax",%progbits
 1704      AFF30080 
 1704      AFF30080 
 1705              		.align	2
 1706              		.p2align 4,,15
 1707              		.global	usb_lld_disable_endpoints
 1708              		.thumb
 1709              		.thumb_func
 1710              		.type	usb_lld_disable_endpoints, %function
 1711              	usb_lld_disable_endpoints:
 1712              	.LFB132:
 1713              		.loc 2 597 0
 1714              		.cfi_startproc
 1715              		@ args = 0, pretend = 0, frame = 16
 1716              		@ frame_needed = 0, uses_anonymous_args = 0
 1717 0000 00B5     		push	{lr}
 1718              		.cfi_def_cfa_offset 4
 1719              		.cfi_offset 14, -4
 1720 0002 85B0     		sub	sp, sp, #20
 1721              		.cfi_def_cfa_offset 24
 1722 0004 0190     		str	r0, [sp, #4]
 1723              		.loc 2 601 0
 1724 0006 0198     		ldr	r0, [sp, #4]
 1725 0008 FFF7FEFF 		bl	usb_pm_reset
 1726              		.loc 2 604 0
 1727 000c 0123     		movs	r3, #1
 1728 000e 0393     		str	r3, [sp, #12]
 1729 0010 0FE0     		b	.L94
 1730              	.L95:
 1731              		.loc 2 605 0 discriminator 3
 1732 0012 0B49     		ldr	r1, .L96
 1733 0014 0A4A     		ldr	r2, .L96
 1734 0016 039B     		ldr	r3, [sp, #12]
 1735 0018 52F82320 		ldr	r2, [r2, r3, lsl #2]
 1736 001c 039B     		ldr	r3, [sp, #12]
 1737 001e 41F82320 		str	r2, [r1, r3, lsl #2]
 1738              		.loc 2 606 0 discriminator 3
 1739 0022 074A     		ldr	r2, .L96
 1740 0024 039B     		ldr	r3, [sp, #12]
 1741 0026 0021     		movs	r1, #0
 1742 0028 42F82310 		str	r1, [r2, r3, lsl #2]
ARM GAS  /tmp/ccXLZ6ci.s 			page 32


 1743              		.loc 2 604 0 discriminator 3
 1744 002c 039B     		ldr	r3, [sp, #12]
 1745 002e 0133     		adds	r3, r3, #1
 1746 0030 0393     		str	r3, [sp, #12]
 1747              	.L94:
 1748              		.loc 2 604 0 is_stmt 0 discriminator 1
 1749 0032 039B     		ldr	r3, [sp, #12]
 1750 0034 072B     		cmp	r3, #7
 1751 0036 ECD9     		bls	.L95
 1752              		.loc 2 608 0 is_stmt 1
 1753 0038 05B0     		add	sp, sp, #20
 1754              		.cfi_def_cfa_offset 4
 1755              		@ sp needed
 1756 003a 5DF804FB 		ldr	pc, [sp], #4
 1757              	.L97:
 1758 003e 00BF     		.align	2
 1759              	.L96:
 1760 0040 005C0040 		.word	1073765376
 1761              		.cfi_endproc
 1762              	.LFE132:
 1763              		.size	usb_lld_disable_endpoints, .-usb_lld_disable_endpoints
 1764 0044 AFF30080 		.section	.text.usb_lld_get_status_out,"ax",%progbits
 1764      AFF30080 
 1764      AFF30080 
 1765              		.align	2
 1766              		.p2align 4,,15
 1767              		.global	usb_lld_get_status_out
 1768              		.thumb
 1769              		.thumb_func
 1770              		.type	usb_lld_get_status_out, %function
 1771              	usb_lld_get_status_out:
 1772              	.LFB133:
 1773              		.loc 2 622 0
 1774              		.cfi_startproc
 1775              		@ args = 0, pretend = 0, frame = 8
 1776              		@ frame_needed = 0, uses_anonymous_args = 0
 1777              		@ link register save eliminated.
 1778 0000 82B0     		sub	sp, sp, #8
 1779              		.cfi_def_cfa_offset 8
 1780 0002 0190     		str	r0, [sp, #4]
 1781 0004 0B46     		mov	r3, r1
 1782 0006 8DF80330 		strb	r3, [sp, #3]
 1783              		.loc 2 625 0
 1784 000a 0A4A     		ldr	r2, .L104
 1785 000c 9DF80330 		ldrb	r3, [sp, #3]	@ zero_extendqisi2
 1786 0010 52F82330 		ldr	r3, [r2, r3, lsl #2]
 1787 0014 03F44053 		and	r3, r3, #12288
 1788 0018 002B     		cmp	r3, #0
 1789 001a 03D0     		beq	.L100
 1790 001c B3F5805F 		cmp	r3, #4096
 1791 0020 02D0     		beq	.L101
 1792 0022 03E0     		b	.L103
 1793              	.L100:
 1794              		.loc 2 627 0
 1795 0024 0023     		movs	r3, #0
 1796 0026 02E0     		b	.L102
 1797              	.L101:
ARM GAS  /tmp/ccXLZ6ci.s 			page 33


 1798              		.loc 2 629 0
 1799 0028 0123     		movs	r3, #1
 1800 002a 00E0     		b	.L102
 1801              	.L103:
 1802              		.loc 2 631 0
 1803 002c 0223     		movs	r3, #2
 1804              	.L102:
 1805              		.loc 2 633 0
 1806 002e 1846     		mov	r0, r3
 1807 0030 02B0     		add	sp, sp, #8
 1808              		.cfi_def_cfa_offset 0
 1809              		@ sp needed
 1810 0032 7047     		bx	lr
 1811              	.L105:
 1812              		.align	2
 1813              	.L104:
 1814 0034 005C0040 		.word	1073765376
 1815              		.cfi_endproc
 1816              	.LFE133:
 1817              		.size	usb_lld_get_status_out, .-usb_lld_get_status_out
 1818 0038 AFF30080 		.section	.text.usb_lld_get_status_in,"ax",%progbits
 1818      AFF30080 
 1819              		.align	2
 1820              		.p2align 4,,15
 1821              		.global	usb_lld_get_status_in
 1822              		.thumb
 1823              		.thumb_func
 1824              		.type	usb_lld_get_status_in, %function
 1825              	usb_lld_get_status_in:
 1826              	.LFB134:
 1827              		.loc 2 647 0
 1828              		.cfi_startproc
 1829              		@ args = 0, pretend = 0, frame = 8
 1830              		@ frame_needed = 0, uses_anonymous_args = 0
 1831              		@ link register save eliminated.
 1832 0000 82B0     		sub	sp, sp, #8
 1833              		.cfi_def_cfa_offset 8
 1834 0002 0190     		str	r0, [sp, #4]
 1835 0004 0B46     		mov	r3, r1
 1836 0006 8DF80330 		strb	r3, [sp, #3]
 1837              		.loc 2 650 0
 1838 000a 0A4A     		ldr	r2, .L112
 1839 000c 9DF80330 		ldrb	r3, [sp, #3]	@ zero_extendqisi2
 1840 0010 52F82330 		ldr	r3, [r2, r3, lsl #2]
 1841 0014 03F03003 		and	r3, r3, #48
 1842 0018 002B     		cmp	r3, #0
 1843 001a 02D0     		beq	.L108
 1844 001c 102B     		cmp	r3, #16
 1845 001e 02D0     		beq	.L109
 1846 0020 03E0     		b	.L111
 1847              	.L108:
 1848              		.loc 2 652 0
 1849 0022 0023     		movs	r3, #0
 1850 0024 02E0     		b	.L110
 1851              	.L109:
 1852              		.loc 2 654 0
 1853 0026 0123     		movs	r3, #1
ARM GAS  /tmp/ccXLZ6ci.s 			page 34


 1854 0028 00E0     		b	.L110
 1855              	.L111:
 1856              		.loc 2 656 0
 1857 002a 0223     		movs	r3, #2
 1858              	.L110:
 1859              		.loc 2 658 0
 1860 002c 1846     		mov	r0, r3
 1861 002e 02B0     		add	sp, sp, #8
 1862              		.cfi_def_cfa_offset 0
 1863              		@ sp needed
 1864 0030 7047     		bx	lr
 1865              	.L113:
 1866 0032 00BF     		.align	2
 1867              	.L112:
 1868 0034 005C0040 		.word	1073765376
 1869              		.cfi_endproc
 1870              	.LFE134:
 1871              		.size	usb_lld_get_status_in, .-usb_lld_get_status_in
 1872 0038 AFF30080 		.section	.text.usb_lld_read_setup,"ax",%progbits
 1872      AFF30080 
 1873              		.align	2
 1874              		.p2align 4,,15
 1875              		.global	usb_lld_read_setup
 1876              		.thumb
 1877              		.thumb_func
 1878              		.type	usb_lld_read_setup, %function
 1879              	usb_lld_read_setup:
 1880              	.LFB135:
 1881              		.loc 2 674 0
 1882              		.cfi_startproc
 1883              		@ args = 0, pretend = 0, frame = 32
 1884              		@ frame_needed = 0, uses_anonymous_args = 0
 1885              		@ link register save eliminated.
 1886 0000 88B0     		sub	sp, sp, #32
 1887              		.cfi_def_cfa_offset 32
 1888 0002 0390     		str	r0, [sp, #12]
 1889 0004 0B46     		mov	r3, r1
 1890 0006 0192     		str	r2, [sp, #4]
 1891 0008 8DF80B30 		strb	r3, [sp, #11]
 1892              		.loc 2 680 0
 1893 000c 144B     		ldr	r3, .L117
 1894 000e 1A6D     		ldr	r2, [r3, #80]
 1895 0010 9DF80B30 		ldrb	r3, [sp, #11]	@ zero_extendqisi2
 1896 0014 DB00     		lsls	r3, r3, #3
 1897 0016 1344     		add	r3, r3, r2
 1898 0018 03F10053 		add	r3, r3, #536870912
 1899 001c 03F54053 		add	r3, r3, #12288
 1900 0020 5B00     		lsls	r3, r3, #1
 1901 0022 0593     		str	r3, [sp, #20]
 1902              		.loc 2 681 0
 1903 0024 059B     		ldr	r3, [sp, #20]
 1904 0026 9B68     		ldr	r3, [r3, #8]
 1905 0028 03F10053 		add	r3, r3, #536870912
 1906 002c 03F54053 		add	r3, r3, #12288
 1907 0030 5B00     		lsls	r3, r3, #1
 1908 0032 0793     		str	r3, [sp, #28]
 1909              		.loc 2 682 0
ARM GAS  /tmp/ccXLZ6ci.s 			page 35


 1910 0034 0023     		movs	r3, #0
 1911 0036 0693     		str	r3, [sp, #24]
 1912 0038 0CE0     		b	.L115
 1913              	.L116:
 1914              		.loc 2 683 0 discriminator 3
 1915 003a 079B     		ldr	r3, [sp, #28]
 1916 003c 1A1D     		adds	r2, r3, #4
 1917 003e 0792     		str	r2, [sp, #28]
 1918 0040 1B68     		ldr	r3, [r3]
 1919 0042 9AB2     		uxth	r2, r3
 1920 0044 019B     		ldr	r3, [sp, #4]
 1921 0046 1A80     		strh	r2, [r3]	@ movhi
 1922              		.loc 2 684 0 discriminator 3
 1923 0048 019B     		ldr	r3, [sp, #4]
 1924 004a 0233     		adds	r3, r3, #2
 1925 004c 0193     		str	r3, [sp, #4]
 1926              		.loc 2 682 0 discriminator 3
 1927 004e 069B     		ldr	r3, [sp, #24]
 1928 0050 0133     		adds	r3, r3, #1
 1929 0052 0693     		str	r3, [sp, #24]
 1930              	.L115:
 1931              		.loc 2 682 0 is_stmt 0 discriminator 1
 1932 0054 069B     		ldr	r3, [sp, #24]
 1933 0056 032B     		cmp	r3, #3
 1934 0058 EFD9     		bls	.L116
 1935              		.loc 2 686 0 is_stmt 1
 1936 005a 08B0     		add	sp, sp, #32
 1937              		.cfi_def_cfa_offset 0
 1938              		@ sp needed
 1939 005c 7047     		bx	lr
 1940              	.L118:
 1941 005e 00BF     		.align	2
 1942              	.L117:
 1943 0060 005C0040 		.word	1073765376
 1944              		.cfi_endproc
 1945              	.LFE135:
 1946              		.size	usb_lld_read_setup, .-usb_lld_read_setup
 1947 0064 AFF30080 		.section	.text.usb_lld_prepare_receive,"ax",%progbits
 1947      AFF30080 
 1947      AFF30080 
 1948              		.align	2
 1949              		.p2align 4,,15
 1950              		.global	usb_lld_prepare_receive
 1951              		.thumb
 1952              		.thumb_func
 1953              		.type	usb_lld_prepare_receive, %function
 1954              	usb_lld_prepare_receive:
 1955              	.LFB136:
 1956              		.loc 2 696 0
 1957              		.cfi_startproc
 1958              		@ args = 0, pretend = 0, frame = 16
 1959              		@ frame_needed = 0, uses_anonymous_args = 0
 1960              		@ link register save eliminated.
 1961 0000 84B0     		sub	sp, sp, #16
 1962              		.cfi_def_cfa_offset 16
 1963 0002 0190     		str	r0, [sp, #4]
 1964 0004 0B46     		mov	r3, r1
ARM GAS  /tmp/ccXLZ6ci.s 			page 36


 1965 0006 8DF80330 		strb	r3, [sp, #3]
 1966              		.loc 2 697 0
 1967 000a 9DF80330 		ldrb	r3, [sp, #3]	@ zero_extendqisi2
 1968 000e 019A     		ldr	r2, [sp, #4]
 1969 0010 0233     		adds	r3, r3, #2
 1970 0012 9B00     		lsls	r3, r3, #2
 1971 0014 1344     		add	r3, r3, r2
 1972 0016 5B68     		ldr	r3, [r3, #4]
 1973 0018 9B69     		ldr	r3, [r3, #24]
 1974 001a 0393     		str	r3, [sp, #12]
 1975              		.loc 2 700 0
 1976 001c 039B     		ldr	r3, [sp, #12]
 1977 001e 5B68     		ldr	r3, [r3, #4]
 1978 0020 002B     		cmp	r3, #0
 1979 0022 03D1     		bne	.L120
 1980              		.loc 2 701 0
 1981 0024 039B     		ldr	r3, [sp, #12]
 1982 0026 0122     		movs	r2, #1
 1983 0028 1A82     		strh	r2, [r3, #16]	@ movhi
 1984 002a 18E0     		b	.L119
 1985              	.L120:
 1986              		.loc 2 703 0
 1987 002c 039B     		ldr	r3, [sp, #12]
 1988 002e 5A68     		ldr	r2, [r3, #4]
 1989 0030 9DF80330 		ldrb	r3, [sp, #3]	@ zero_extendqisi2
 1990 0034 0199     		ldr	r1, [sp, #4]
 1991 0036 0233     		adds	r3, r3, #2
 1992 0038 9B00     		lsls	r3, r3, #2
 1993 003a 0B44     		add	r3, r3, r1
 1994 003c 5B68     		ldr	r3, [r3, #4]
 1995 003e 5B8A     		ldrh	r3, [r3, #18]
 1996 0040 1344     		add	r3, r3, r2
 1997 0042 5A1E     		subs	r2, r3, #1
 1998              		.loc 2 704 0
 1999 0044 9DF80330 		ldrb	r3, [sp, #3]	@ zero_extendqisi2
 2000 0048 0199     		ldr	r1, [sp, #4]
 2001 004a 0233     		adds	r3, r3, #2
 2002 004c 9B00     		lsls	r3, r3, #2
 2003 004e 0B44     		add	r3, r3, r1
 2004 0050 5B68     		ldr	r3, [r3, #4]
 2005 0052 5B8A     		ldrh	r3, [r3, #18]
 2006              		.loc 2 703 0
 2007 0054 B2FBF3F3 		udiv	r3, r2, r3
 2008 0058 9AB2     		uxth	r2, r3
 2009 005a 039B     		ldr	r3, [sp, #12]
 2010 005c 1A82     		strh	r2, [r3, #16]	@ movhi
 2011              	.L119:
 2012              		.loc 2 705 0
 2013 005e 04B0     		add	sp, sp, #16
 2014              		.cfi_def_cfa_offset 0
 2015              		@ sp needed
 2016 0060 7047     		bx	lr
 2017              		.cfi_endproc
 2018              	.LFE136:
 2019              		.size	usb_lld_prepare_receive, .-usb_lld_prepare_receive
 2020 0062 00BFAFF3 		.section	.text.usb_lld_prepare_transmit,"ax",%progbits
 2020      0080AFF3 
ARM GAS  /tmp/ccXLZ6ci.s 			page 37


 2020      0080AFF3 
 2020      0080
 2021              		.align	2
 2022              		.p2align 4,,15
 2023              		.global	usb_lld_prepare_transmit
 2024              		.thumb
 2025              		.thumb_func
 2026              		.type	usb_lld_prepare_transmit, %function
 2027              	usb_lld_prepare_transmit:
 2028              	.LFB137:
 2029              		.loc 2 715 0
 2030              		.cfi_startproc
 2031              		@ args = 0, pretend = 0, frame = 16
 2032              		@ frame_needed = 0, uses_anonymous_args = 0
 2033 0000 00B5     		push	{lr}
 2034              		.cfi_def_cfa_offset 4
 2035              		.cfi_offset 14, -4
 2036 0002 85B0     		sub	sp, sp, #20
 2037              		.cfi_def_cfa_offset 24
 2038 0004 0190     		str	r0, [sp, #4]
 2039 0006 0B46     		mov	r3, r1
 2040 0008 8DF80330 		strb	r3, [sp, #3]
 2041              		.loc 2 717 0
 2042 000c 9DF80330 		ldrb	r3, [sp, #3]	@ zero_extendqisi2
 2043 0010 019A     		ldr	r2, [sp, #4]
 2044 0012 0233     		adds	r3, r3, #2
 2045 0014 9B00     		lsls	r3, r3, #2
 2046 0016 1344     		add	r3, r3, r2
 2047 0018 5B68     		ldr	r3, [r3, #4]
 2048 001a 5B69     		ldr	r3, [r3, #20]
 2049 001c 0293     		str	r3, [sp, #8]
 2050              		.loc 2 720 0
 2051 001e 029B     		ldr	r3, [sp, #8]
 2052 0020 5B68     		ldr	r3, [r3, #4]
 2053 0022 0393     		str	r3, [sp, #12]
 2054              		.loc 2 721 0
 2055 0024 9DF80330 		ldrb	r3, [sp, #3]	@ zero_extendqisi2
 2056 0028 019A     		ldr	r2, [sp, #4]
 2057 002a 0233     		adds	r3, r3, #2
 2058 002c 9B00     		lsls	r3, r3, #2
 2059 002e 1344     		add	r3, r3, r2
 2060 0030 5B68     		ldr	r3, [r3, #4]
 2061 0032 1B8A     		ldrh	r3, [r3, #16]
 2062 0034 1A46     		mov	r2, r3
 2063 0036 039B     		ldr	r3, [sp, #12]
 2064 0038 9A42     		cmp	r2, r3
 2065 003a 08D2     		bcs	.L123
 2066              		.loc 2 722 0
 2067 003c 9DF80330 		ldrb	r3, [sp, #3]	@ zero_extendqisi2
 2068 0040 019A     		ldr	r2, [sp, #4]
 2069 0042 0233     		adds	r3, r3, #2
 2070 0044 9B00     		lsls	r3, r3, #2
 2071 0046 1344     		add	r3, r3, r2
 2072 0048 5B68     		ldr	r3, [r3, #4]
 2073 004a 1B8A     		ldrh	r3, [r3, #16]
 2074 004c 0393     		str	r3, [sp, #12]
 2075              	.L123:
ARM GAS  /tmp/ccXLZ6ci.s 			page 38


 2076              		.loc 2 724 0
 2077 004e 029B     		ldr	r3, [sp, #8]
 2078 0050 1B78     		ldrb	r3, [r3]	@ zero_extendqisi2
 2079 0052 002B     		cmp	r3, #0
 2080 0054 13D0     		beq	.L124
 2081              		.loc 2 725 0
 2082 0056 154B     		ldr	r3, .L126
 2083 0058 1A6D     		ldr	r2, [r3, #80]
 2084 005a 9DF80330 		ldrb	r3, [sp, #3]	@ zero_extendqisi2
 2085 005e DB00     		lsls	r3, r3, #3
 2086 0060 1344     		add	r3, r3, r2
 2087 0062 03F10053 		add	r3, r3, #536870912
 2088 0066 03F54053 		add	r3, r3, #12288
 2089 006a 5B00     		lsls	r3, r3, #1
 2090 006c 1A46     		mov	r2, r3
 2091 006e 029B     		ldr	r3, [sp, #8]
 2092 0070 DB68     		ldr	r3, [r3, #12]
 2093 0072 1046     		mov	r0, r2
 2094 0074 1946     		mov	r1, r3
 2095 0076 039A     		ldr	r2, [sp, #12]
 2096 0078 FFF7FEFF 		bl	usb_packet_write_from_queue
 2097 007c 12E0     		b	.L122
 2098              	.L124:
 2099              		.loc 2 728 0
 2100 007e 0B4B     		ldr	r3, .L126
 2101 0080 1A6D     		ldr	r2, [r3, #80]
 2102 0082 9DF80330 		ldrb	r3, [sp, #3]	@ zero_extendqisi2
 2103 0086 DB00     		lsls	r3, r3, #3
 2104 0088 1344     		add	r3, r3, r2
 2105 008a 03F10053 		add	r3, r3, #536870912
 2106 008e 03F54053 		add	r3, r3, #12288
 2107 0092 5B00     		lsls	r3, r3, #1
 2108 0094 1A46     		mov	r2, r3
 2109 0096 029B     		ldr	r3, [sp, #8]
 2110 0098 DB68     		ldr	r3, [r3, #12]
 2111 009a 1046     		mov	r0, r2
 2112 009c 1946     		mov	r1, r3
 2113 009e 039A     		ldr	r2, [sp, #12]
 2114 00a0 FFF7FEFF 		bl	usb_packet_write_from_buffer
 2115              	.L122:
 2116              		.loc 2 730 0
 2117 00a4 05B0     		add	sp, sp, #20
 2118              		.cfi_def_cfa_offset 4
 2119              		@ sp needed
 2120 00a6 5DF804FB 		ldr	pc, [sp], #4
 2121              	.L127:
 2122 00aa 00BF     		.align	2
 2123              	.L126:
 2124 00ac 005C0040 		.word	1073765376
 2125              		.cfi_endproc
 2126              	.LFE137:
 2127              		.size	usb_lld_prepare_transmit, .-usb_lld_prepare_transmit
 2128              		.section	.text.usb_lld_start_out,"ax",%progbits
 2129              		.align	2
 2130              		.p2align 4,,15
 2131              		.global	usb_lld_start_out
 2132              		.thumb
ARM GAS  /tmp/ccXLZ6ci.s 			page 39


 2133              		.thumb_func
 2134              		.type	usb_lld_start_out, %function
 2135              	usb_lld_start_out:
 2136              	.LFB138:
 2137              		.loc 2 740 0
 2138              		.cfi_startproc
 2139              		@ args = 0, pretend = 0, frame = 8
 2140              		@ frame_needed = 0, uses_anonymous_args = 0
 2141              		@ link register save eliminated.
 2142 0000 82B0     		sub	sp, sp, #8
 2143              		.cfi_def_cfa_offset 8
 2144 0002 0190     		str	r0, [sp, #4]
 2145 0004 0B46     		mov	r3, r1
 2146 0006 8DF80330 		strb	r3, [sp, #3]
 2147              		.loc 2 744 0
 2148 000a 0949     		ldr	r1, .L129
 2149 000c 9DF80320 		ldrb	r2, [sp, #3]	@ zero_extendqisi2
 2150 0010 0748     		ldr	r0, .L129
 2151 0012 9DF80330 		ldrb	r3, [sp, #3]	@ zero_extendqisi2
 2152 0016 50F82330 		ldr	r3, [r0, r3, lsl #2]
 2153 001a 23F49043 		bic	r3, r3, #18432
 2154 001e 23F07003 		bic	r3, r3, #112
 2155 0022 83F44053 		eor	r3, r3, #12288
 2156 0026 41F82230 		str	r3, [r1, r2, lsl #2]
 2157              		.loc 2 745 0
 2158 002a 02B0     		add	sp, sp, #8
 2159              		.cfi_def_cfa_offset 0
 2160              		@ sp needed
 2161 002c 7047     		bx	lr
 2162              	.L130:
 2163 002e 00BF     		.align	2
 2164              	.L129:
 2165 0030 005C0040 		.word	1073765376
 2166              		.cfi_endproc
 2167              	.LFE138:
 2168              		.size	usb_lld_start_out, .-usb_lld_start_out
 2169 0034 AFF30080 		.section	.text.usb_lld_start_in,"ax",%progbits
 2169      AFF30080 
 2169      AFF30080 
 2170              		.align	2
 2171              		.p2align 4,,15
 2172              		.global	usb_lld_start_in
 2173              		.thumb
 2174              		.thumb_func
 2175              		.type	usb_lld_start_in, %function
 2176              	usb_lld_start_in:
 2177              	.LFB139:
 2178              		.loc 2 755 0
 2179              		.cfi_startproc
 2180              		@ args = 0, pretend = 0, frame = 8
 2181              		@ frame_needed = 0, uses_anonymous_args = 0
 2182              		@ link register save eliminated.
 2183 0000 82B0     		sub	sp, sp, #8
 2184              		.cfi_def_cfa_offset 8
 2185 0002 0190     		str	r0, [sp, #4]
 2186 0004 0B46     		mov	r3, r1
 2187 0006 8DF80330 		strb	r3, [sp, #3]
ARM GAS  /tmp/ccXLZ6ci.s 			page 40


 2188              		.loc 2 759 0
 2189 000a 0949     		ldr	r1, .L132
 2190 000c 9DF80320 		ldrb	r2, [sp, #3]	@ zero_extendqisi2
 2191 0010 0748     		ldr	r0, .L132
 2192 0012 9DF80330 		ldrb	r3, [sp, #3]	@ zero_extendqisi2
 2193 0016 50F82330 		ldr	r3, [r0, r3, lsl #2]
 2194 001a 23F4F043 		bic	r3, r3, #30720
 2195 001e 23F04003 		bic	r3, r3, #64
 2196 0022 83F03003 		eor	r3, r3, #48
 2197 0026 41F82230 		str	r3, [r1, r2, lsl #2]
 2198              		.loc 2 760 0
 2199 002a 02B0     		add	sp, sp, #8
 2200              		.cfi_def_cfa_offset 0
 2201              		@ sp needed
 2202 002c 7047     		bx	lr
 2203              	.L133:
 2204 002e 00BF     		.align	2
 2205              	.L132:
 2206 0030 005C0040 		.word	1073765376
 2207              		.cfi_endproc
 2208              	.LFE139:
 2209              		.size	usb_lld_start_in, .-usb_lld_start_in
 2210 0034 AFF30080 		.section	.text.usb_lld_stall_out,"ax",%progbits
 2210      AFF30080 
 2210      AFF30080 
 2211              		.align	2
 2212              		.p2align 4,,15
 2213              		.global	usb_lld_stall_out
 2214              		.thumb
 2215              		.thumb_func
 2216              		.type	usb_lld_stall_out, %function
 2217              	usb_lld_stall_out:
 2218              	.LFB140:
 2219              		.loc 2 770 0
 2220              		.cfi_startproc
 2221              		@ args = 0, pretend = 0, frame = 8
 2222              		@ frame_needed = 0, uses_anonymous_args = 0
 2223              		@ link register save eliminated.
 2224 0000 82B0     		sub	sp, sp, #8
 2225              		.cfi_def_cfa_offset 8
 2226 0002 0190     		str	r0, [sp, #4]
 2227 0004 0B46     		mov	r3, r1
 2228 0006 8DF80330 		strb	r3, [sp, #3]
 2229              		.loc 2 774 0
 2230 000a 0949     		ldr	r1, .L135
 2231 000c 9DF80320 		ldrb	r2, [sp, #3]	@ zero_extendqisi2
 2232 0010 0748     		ldr	r0, .L135
 2233 0012 9DF80330 		ldrb	r3, [sp, #3]	@ zero_extendqisi2
 2234 0016 50F82330 		ldr	r3, [r0, r3, lsl #2]
 2235 001a 23F49043 		bic	r3, r3, #18432
 2236 001e 23F07003 		bic	r3, r3, #112
 2237 0022 83F48053 		eor	r3, r3, #4096
 2238 0026 41F82230 		str	r3, [r1, r2, lsl #2]
 2239              		.loc 2 775 0
 2240 002a 02B0     		add	sp, sp, #8
 2241              		.cfi_def_cfa_offset 0
 2242              		@ sp needed
ARM GAS  /tmp/ccXLZ6ci.s 			page 41


 2243 002c 7047     		bx	lr
 2244              	.L136:
 2245 002e 00BF     		.align	2
 2246              	.L135:
 2247 0030 005C0040 		.word	1073765376
 2248              		.cfi_endproc
 2249              	.LFE140:
 2250              		.size	usb_lld_stall_out, .-usb_lld_stall_out
 2251 0034 AFF30080 		.section	.text.usb_lld_stall_in,"ax",%progbits
 2251      AFF30080 
 2251      AFF30080 
 2252              		.align	2
 2253              		.p2align 4,,15
 2254              		.global	usb_lld_stall_in
 2255              		.thumb
 2256              		.thumb_func
 2257              		.type	usb_lld_stall_in, %function
 2258              	usb_lld_stall_in:
 2259              	.LFB141:
 2260              		.loc 2 785 0
 2261              		.cfi_startproc
 2262              		@ args = 0, pretend = 0, frame = 8
 2263              		@ frame_needed = 0, uses_anonymous_args = 0
 2264              		@ link register save eliminated.
 2265 0000 82B0     		sub	sp, sp, #8
 2266              		.cfi_def_cfa_offset 8
 2267 0002 0190     		str	r0, [sp, #4]
 2268 0004 0B46     		mov	r3, r1
 2269 0006 8DF80330 		strb	r3, [sp, #3]
 2270              		.loc 2 789 0
 2271 000a 0949     		ldr	r1, .L138
 2272 000c 9DF80320 		ldrb	r2, [sp, #3]	@ zero_extendqisi2
 2273 0010 0748     		ldr	r0, .L138
 2274 0012 9DF80330 		ldrb	r3, [sp, #3]	@ zero_extendqisi2
 2275 0016 50F82330 		ldr	r3, [r0, r3, lsl #2]
 2276 001a 23F4F043 		bic	r3, r3, #30720
 2277 001e 23F04003 		bic	r3, r3, #64
 2278 0022 83F01003 		eor	r3, r3, #16
 2279 0026 41F82230 		str	r3, [r1, r2, lsl #2]
 2280              		.loc 2 790 0
 2281 002a 02B0     		add	sp, sp, #8
 2282              		.cfi_def_cfa_offset 0
 2283              		@ sp needed
 2284 002c 7047     		bx	lr
 2285              	.L139:
 2286 002e 00BF     		.align	2
 2287              	.L138:
 2288 0030 005C0040 		.word	1073765376
 2289              		.cfi_endproc
 2290              	.LFE141:
 2291              		.size	usb_lld_stall_in, .-usb_lld_stall_in
 2292 0034 AFF30080 		.section	.text.usb_lld_clear_out,"ax",%progbits
 2292      AFF30080 
 2292      AFF30080 
 2293              		.align	2
 2294              		.p2align 4,,15
 2295              		.global	usb_lld_clear_out
ARM GAS  /tmp/ccXLZ6ci.s 			page 42


 2296              		.thumb
 2297              		.thumb_func
 2298              		.type	usb_lld_clear_out, %function
 2299              	usb_lld_clear_out:
 2300              	.LFB142:
 2301              		.loc 2 800 0
 2302              		.cfi_startproc
 2303              		@ args = 0, pretend = 0, frame = 8
 2304              		@ frame_needed = 0, uses_anonymous_args = 0
 2305              		@ link register save eliminated.
 2306 0000 82B0     		sub	sp, sp, #8
 2307              		.cfi_def_cfa_offset 8
 2308 0002 0190     		str	r0, [sp, #4]
 2309 0004 0B46     		mov	r3, r1
 2310 0006 8DF80330 		strb	r3, [sp, #3]
 2311              		.loc 2 806 0
 2312 000a 0E4A     		ldr	r2, .L142
 2313 000c 9DF80330 		ldrb	r3, [sp, #3]	@ zero_extendqisi2
 2314 0010 52F82330 		ldr	r3, [r2, r3, lsl #2]
 2315 0014 03F44053 		and	r3, r3, #12288
 2316 0018 B3F5405F 		cmp	r3, #12288
 2317 001c 0FD0     		beq	.L140
 2318              		.loc 2 807 0
 2319 001e 0949     		ldr	r1, .L142
 2320 0020 9DF80320 		ldrb	r2, [sp, #3]	@ zero_extendqisi2
 2321 0024 0748     		ldr	r0, .L142
 2322 0026 9DF80330 		ldrb	r3, [sp, #3]	@ zero_extendqisi2
 2323 002a 50F82330 		ldr	r3, [r0, r3, lsl #2]
 2324 002e 23F4F043 		bic	r3, r3, #30720
 2325 0032 23F04003 		bic	r3, r3, #64
 2326 0036 83F40053 		eor	r3, r3, #8192
 2327 003a 41F82230 		str	r3, [r1, r2, lsl #2]
 2328              	.L140:
 2329              		.loc 2 808 0
 2330 003e 02B0     		add	sp, sp, #8
 2331              		.cfi_def_cfa_offset 0
 2332              		@ sp needed
 2333 0040 7047     		bx	lr
 2334              	.L143:
 2335 0042 00BF     		.align	2
 2336              	.L142:
 2337 0044 005C0040 		.word	1073765376
 2338              		.cfi_endproc
 2339              	.LFE142:
 2340              		.size	usb_lld_clear_out, .-usb_lld_clear_out
 2341 0048 AFF30080 		.section	.text.usb_lld_clear_in,"ax",%progbits
 2341      AFF30080 
 2342              		.align	2
 2343              		.p2align 4,,15
 2344              		.global	usb_lld_clear_in
 2345              		.thumb
 2346              		.thumb_func
 2347              		.type	usb_lld_clear_in, %function
 2348              	usb_lld_clear_in:
 2349              	.LFB143:
 2350              		.loc 2 818 0
 2351              		.cfi_startproc
ARM GAS  /tmp/ccXLZ6ci.s 			page 43


 2352              		@ args = 0, pretend = 0, frame = 8
 2353              		@ frame_needed = 0, uses_anonymous_args = 0
 2354              		@ link register save eliminated.
 2355 0000 82B0     		sub	sp, sp, #8
 2356              		.cfi_def_cfa_offset 8
 2357 0002 0190     		str	r0, [sp, #4]
 2358 0004 0B46     		mov	r3, r1
 2359 0006 8DF80330 		strb	r3, [sp, #3]
 2360              		.loc 2 824 0
 2361 000a 0D4A     		ldr	r2, .L146
 2362 000c 9DF80330 		ldrb	r3, [sp, #3]	@ zero_extendqisi2
 2363 0010 52F82330 		ldr	r3, [r2, r3, lsl #2]
 2364 0014 03F03003 		and	r3, r3, #48
 2365 0018 302B     		cmp	r3, #48
 2366 001a 0FD0     		beq	.L144
 2367              		.loc 2 825 0
 2368 001c 0849     		ldr	r1, .L146
 2369 001e 9DF80320 		ldrb	r2, [sp, #3]	@ zero_extendqisi2
 2370 0022 0748     		ldr	r0, .L146
 2371 0024 9DF80330 		ldrb	r3, [sp, #3]	@ zero_extendqisi2
 2372 0028 50F82330 		ldr	r3, [r0, r3, lsl #2]
 2373 002c 23F4F043 		bic	r3, r3, #30720
 2374 0030 23F04003 		bic	r3, r3, #64
 2375 0034 83F02003 		eor	r3, r3, #32
 2376 0038 41F82230 		str	r3, [r1, r2, lsl #2]
 2377              	.L144:
 2378              		.loc 2 826 0
 2379 003c 02B0     		add	sp, sp, #8
 2380              		.cfi_def_cfa_offset 0
 2381              		@ sp needed
 2382 003e 7047     		bx	lr
 2383              	.L147:
 2384              		.align	2
 2385              	.L146:
 2386 0040 005C0040 		.word	1073765376
 2387              		.cfi_endproc
 2388              	.LFE143:
 2389              		.size	usb_lld_clear_in, .-usb_lld_clear_in
 2390 0044 AFF30080 		.text
 2390      AFF30080 
 2390      AFF30080 
 2391              	.Letext0:
 2392              		.file 3 "/home/ergae/r2p-sdk/tools/gcc-arm-none-eabi-4_9-2014q4/lib/gcc/arm-none-eabi/4.9.3/includ
 2393              		.file 4 "/home/ergae/r2p-sdk/tools/gcc-arm-none-eabi-4_9-2014q4/arm-none-eabi/include/machine/_def
 2394              		.file 5 "/home/ergae/r2p-sdk/tools/gcc-arm-none-eabi-4_9-2014q4/arm-none-eabi/include/stdint.h"
 2395              		.file 6 "/home/ergae/r2p-sdk/core/ChibiOS/os/ports/GCC/ARMCMx/chtypes.h"
 2396              		.file 7 "/home/ergae/r2p-sdk/core/ChibiOS/os/kernel/include/chlists.h"
 2397              		.file 8 "/home/ergae/r2p-sdk/core/ChibiOS/os/kernel/include/chthreads.h"
 2398              		.file 9 "/home/ergae/r2p-sdk/core/ChibiOS/os/ports/GCC/ARMCMx/chcore_v7m.h"
 2399              		.file 10 "/home/ergae/r2p-sdk/core/ChibiOS/os/kernel/include/chmtx.h"
 2400              		.file 11 "/home/ergae/r2p-sdk/core/ChibiOS/os/kernel/include/chqueues.h"
 2401              		.file 12 "/home/ergae/r2p-sdk/core/ChibiOS/os/hal/platforms/STM32F30x/stm32f30x.h"
 2402              		.file 13 "/home/ergae/r2p-sdk/core/ChibiOS/os/hal/include/usb.h"
 2403              		.file 14 "/home/ergae/r2p-sdk/core/ChibiOS/os/hal/platforms/STM32/USBv1/usb_lld.h"
 2404              		.file 15 "/home/ergae/r2p-sdk/core/ChibiOS/os/hal/platforms/STM32/USBv1/stm32_usb.h"
 2405              		.file 16 "/home/ergae/r2p-sdk/core/ChibiOS/os/kernel/include/chdebug.h"
 2406              		.file 17 "/home/ergae/r2p-sdk/core/ChibiOS/os/ports/common/ARMCMx/CMSIS/include/core_cm4.h"
ARM GAS  /tmp/ccXLZ6ci.s 			page 44

