ARM GAS  /tmp/cc6MXJPQ.s 			page 1


   1              		.syntax unified
   2              		.cpu cortex-m4
   3              		.eabi_attribute 27, 3
   4              		.eabi_attribute 28, 1
   5              		.fpu fpv4-sp-d16
   6              		.eabi_attribute 20, 1
   7              		.eabi_attribute 21, 1
   8              		.eabi_attribute 23, 3
   9              		.eabi_attribute 24, 1
  10              		.eabi_attribute 25, 1
  11              		.eabi_attribute 26, 1
  12              		.eabi_attribute 30, 6
  13              		.eabi_attribute 34, 1
  14              		.eabi_attribute 18, 4
  15              		.thumb
  16              		.file	"usbcfg.c"
  17              		.text
  18              	.Ltext0:
  19              		.cfi_sections	.debug_frame
  20              		.global	SDU1
  21              		.section	.bss.SDU1,"aw",%nobits
  22              		.align	2
  23              		.type	SDU1, %object
  24              		.size	SDU1, 600
  25              	SDU1:
  26 0000 00000000 		.space	600
  26      00000000 
  26      00000000 
  26      00000000 
  26      00000000 
  27              		.section	.rodata.vcom_device_descriptor_data,"a",%progbits
  28              		.align	2
  29              		.type	vcom_device_descriptor_data, %object
  30              		.size	vcom_device_descriptor_data, 18
  31              	vcom_device_descriptor_data:
  32 0000 12       		.byte	18
  33 0001 01       		.byte	1
  34 0002 10       		.byte	16
  35 0003 01       		.byte	1
  36 0004 02       		.byte	2
  37 0005 00       		.byte	0
  38 0006 00       		.byte	0
  39 0007 40       		.byte	64
  40 0008 83       		.byte	-125
  41 0009 04       		.byte	4
  42 000a 40       		.byte	64
  43 000b 57       		.byte	87
  44 000c 00       		.byte	0
  45 000d 02       		.byte	2
  46 000e 01       		.byte	1
  47 000f 02       		.byte	2
  48 0010 03       		.byte	3
  49 0011 01       		.byte	1
  50 0012 0000     		.section	.rodata.vcom_device_descriptor,"a",%progbits
  51              		.align	2
  52              		.type	vcom_device_descriptor, %object
  53              		.size	vcom_device_descriptor, 8
ARM GAS  /tmp/cc6MXJPQ.s 			page 2


  54              	vcom_device_descriptor:
  55 0000 12000000 		.word	18
  56 0004 00000000 		.word	vcom_device_descriptor_data
  57              		.section	.rodata.vcom_configuration_descriptor_data,"a",%progbits
  58              		.align	2
  59              		.type	vcom_configuration_descriptor_data, %object
  60              		.size	vcom_configuration_descriptor_data, 67
  61              	vcom_configuration_descriptor_data:
  62 0000 09       		.byte	9
  63 0001 02       		.byte	2
  64 0002 43       		.byte	67
  65 0003 00       		.byte	0
  66 0004 02       		.byte	2
  67 0005 01       		.byte	1
  68 0006 00       		.byte	0
  69 0007 C0       		.byte	-64
  70 0008 32       		.byte	50
  71 0009 09       		.byte	9
  72 000a 04       		.byte	4
  73 000b 00       		.byte	0
  74 000c 00       		.byte	0
  75 000d 01       		.byte	1
  76 000e 02       		.byte	2
  77 000f 02       		.byte	2
  78 0010 01       		.byte	1
  79 0011 00       		.byte	0
  80 0012 05       		.byte	5
  81 0013 24       		.byte	36
  82 0014 00       		.byte	0
  83 0015 10       		.byte	16
  84 0016 01       		.byte	1
  85 0017 05       		.byte	5
  86 0018 24       		.byte	36
  87 0019 01       		.byte	1
  88 001a 00       		.byte	0
  89 001b 01       		.byte	1
  90 001c 04       		.byte	4
  91 001d 24       		.byte	36
  92 001e 02       		.byte	2
  93 001f 02       		.byte	2
  94 0020 05       		.byte	5
  95 0021 24       		.byte	36
  96 0022 06       		.byte	6
  97 0023 00       		.byte	0
  98 0024 01       		.byte	1
  99 0025 07       		.byte	7
 100 0026 05       		.byte	5
 101 0027 82       		.byte	-126
 102 0028 03       		.byte	3
 103 0029 08       		.byte	8
 104 002a 00       		.byte	0
 105 002b FF       		.byte	-1
 106 002c 09       		.byte	9
 107 002d 04       		.byte	4
 108 002e 01       		.byte	1
 109 002f 00       		.byte	0
 110 0030 02       		.byte	2
ARM GAS  /tmp/cc6MXJPQ.s 			page 3


 111 0031 0A       		.byte	10
 112 0032 00       		.byte	0
 113 0033 00       		.byte	0
 114 0034 00       		.byte	0
 115 0035 07       		.byte	7
 116 0036 05       		.byte	5
 117 0037 01       		.byte	1
 118 0038 02       		.byte	2
 119 0039 40       		.byte	64
 120 003a 00       		.byte	0
 121 003b 00       		.byte	0
 122 003c 07       		.byte	7
 123 003d 05       		.byte	5
 124 003e 81       		.byte	-127
 125 003f 02       		.byte	2
 126 0040 40       		.byte	64
 127 0041 00       		.byte	0
 128 0042 00       		.byte	0
 129 0043 00       		.section	.rodata.vcom_configuration_descriptor,"a",%progbits
 130              		.align	2
 131              		.type	vcom_configuration_descriptor, %object
 132              		.size	vcom_configuration_descriptor, 8
 133              	vcom_configuration_descriptor:
 134 0000 43000000 		.word	67
 135 0004 00000000 		.word	vcom_configuration_descriptor_data
 136              		.section	.rodata.vcom_string0,"a",%progbits
 137              		.align	2
 138              		.type	vcom_string0, %object
 139              		.size	vcom_string0, 4
 140              	vcom_string0:
 141 0000 04       		.byte	4
 142 0001 03       		.byte	3
 143 0002 09       		.byte	9
 144 0003 04       		.byte	4
 145              		.section	.rodata.vcom_string1,"a",%progbits
 146              		.align	2
 147              		.type	vcom_string1, %object
 148              		.size	vcom_string1, 38
 149              	vcom_string1:
 150 0000 26       		.byte	38
 151 0001 03       		.byte	3
 152 0002 53       		.byte	83
 153 0003 00       		.byte	0
 154 0004 54       		.byte	84
 155 0005 00       		.byte	0
 156 0006 4D       		.byte	77
 157 0007 00       		.byte	0
 158 0008 69       		.byte	105
 159 0009 00       		.byte	0
 160 000a 63       		.byte	99
 161 000b 00       		.byte	0
 162 000c 72       		.byte	114
 163 000d 00       		.byte	0
 164 000e 6F       		.byte	111
 165 000f 00       		.byte	0
 166 0010 65       		.byte	101
 167 0011 00       		.byte	0
ARM GAS  /tmp/cc6MXJPQ.s 			page 4


 168 0012 6C       		.byte	108
 169 0013 00       		.byte	0
 170 0014 65       		.byte	101
 171 0015 00       		.byte	0
 172 0016 63       		.byte	99
 173 0017 00       		.byte	0
 174 0018 74       		.byte	116
 175 0019 00       		.byte	0
 176 001a 72       		.byte	114
 177 001b 00       		.byte	0
 178 001c 6F       		.byte	111
 179 001d 00       		.byte	0
 180 001e 6E       		.byte	110
 181 001f 00       		.byte	0
 182 0020 69       		.byte	105
 183 0021 00       		.byte	0
 184 0022 63       		.byte	99
 185 0023 00       		.byte	0
 186 0024 73       		.byte	115
 187 0025 00       		.byte	0
 188 0026 0000     		.section	.rodata.vcom_string2,"a",%progbits
 189              		.align	2
 190              		.type	vcom_string2, %object
 191              		.size	vcom_string2, 56
 192              	vcom_string2:
 193 0000 38       		.byte	56
 194 0001 03       		.byte	3
 195 0002 43       		.byte	67
 196 0003 00       		.byte	0
 197 0004 68       		.byte	104
 198 0005 00       		.byte	0
 199 0006 69       		.byte	105
 200 0007 00       		.byte	0
 201 0008 62       		.byte	98
 202 0009 00       		.byte	0
 203 000a 69       		.byte	105
 204 000b 00       		.byte	0
 205 000c 4F       		.byte	79
 206 000d 00       		.byte	0
 207 000e 53       		.byte	83
 208 000f 00       		.byte	0
 209 0010 2F       		.byte	47
 210 0011 00       		.byte	0
 211 0012 52       		.byte	82
 212 0013 00       		.byte	0
 213 0014 54       		.byte	84
 214 0015 00       		.byte	0
 215 0016 20       		.byte	32
 216 0017 00       		.byte	0
 217 0018 56       		.byte	86
 218 0019 00       		.byte	0
 219 001a 69       		.byte	105
 220 001b 00       		.byte	0
 221 001c 72       		.byte	114
 222 001d 00       		.byte	0
 223 001e 74       		.byte	116
 224 001f 00       		.byte	0
ARM GAS  /tmp/cc6MXJPQ.s 			page 5


 225 0020 75       		.byte	117
 226 0021 00       		.byte	0
 227 0022 61       		.byte	97
 228 0023 00       		.byte	0
 229 0024 6C       		.byte	108
 230 0025 00       		.byte	0
 231 0026 20       		.byte	32
 232 0027 00       		.byte	0
 233 0028 43       		.byte	67
 234 0029 00       		.byte	0
 235 002a 4F       		.byte	79
 236 002b 00       		.byte	0
 237 002c 4D       		.byte	77
 238 002d 00       		.byte	0
 239 002e 20       		.byte	32
 240 002f 00       		.byte	0
 241 0030 50       		.byte	80
 242 0031 00       		.byte	0
 243 0032 6F       		.byte	111
 244 0033 00       		.byte	0
 245 0034 72       		.byte	114
 246 0035 00       		.byte	0
 247 0036 74       		.byte	116
 248 0037 00       		.byte	0
 249              		.section	.rodata.vcom_string3,"a",%progbits
 250              		.align	2
 251              		.type	vcom_string3, %object
 252              		.size	vcom_string3, 8
 253              	vcom_string3:
 254 0000 08       		.byte	8
 255 0001 03       		.byte	3
 256 0002 32       		.byte	50
 257 0003 00       		.byte	0
 258 0004 36       		.byte	54
 259 0005 00       		.byte	0
 260 0006 35       		.byte	53
 261 0007 00       		.byte	0
 262              		.section	.rodata.vcom_strings,"a",%progbits
 263              		.align	2
 264              		.type	vcom_strings, %object
 265              		.size	vcom_strings, 32
 266              	vcom_strings:
 267 0000 04000000 		.word	4
 268 0004 00000000 		.word	vcom_string0
 269 0008 26000000 		.word	38
 270 000c 00000000 		.word	vcom_string1
 271 0010 38000000 		.word	56
 272 0014 00000000 		.word	vcom_string2
 273 0018 08000000 		.word	8
 274 001c 00000000 		.word	vcom_string3
 275              		.section	.text.get_descriptor,"ax",%progbits
 276              		.align	2
 277              		.p2align 4,,15
 278              		.thumb
 279              		.thumb_func
 280              		.type	get_descriptor, %function
 281              	get_descriptor:
ARM GAS  /tmp/cc6MXJPQ.s 			page 6


 282              	.LFB118:
 283              		.file 1 "/home/ergae/r2p-sdk/modules/USB_module/usbcfg.c"
 284              		.loc 1 201 0
 285              		.cfi_startproc
 286              		@ args = 0, pretend = 0, frame = 8
 287              		@ frame_needed = 0, uses_anonymous_args = 0
 288              		@ link register save eliminated.
 289 0000 82B0     		sub	sp, sp, #8
 290              		.cfi_def_cfa_offset 8
 291 0002 0190     		str	r0, [sp, #4]
 292 0004 0846     		mov	r0, r1
 293 0006 1146     		mov	r1, r2
 294 0008 1A46     		mov	r2, r3
 295 000a 0346     		mov	r3, r0
 296 000c 8DF80330 		strb	r3, [sp, #3]
 297 0010 0B46     		mov	r3, r1
 298 0012 8DF80230 		strb	r3, [sp, #2]
 299 0016 1346     		mov	r3, r2	@ movhi
 300 0018 ADF80030 		strh	r3, [sp]	@ movhi
 301              		.loc 1 205 0
 302 001c 9DF80330 		ldrb	r3, [sp, #3]	@ zero_extendqisi2
 303 0020 022B     		cmp	r3, #2
 304 0022 05D0     		beq	.L3
 305 0024 032B     		cmp	r3, #3
 306 0026 05D0     		beq	.L4
 307 0028 012B     		cmp	r3, #1
 308 002a 0DD1     		bne	.L2
 309              		.loc 1 207 0
 310 002c 084B     		ldr	r3, .L7
 311 002e 0CE0     		b	.L6
 312              	.L3:
 313              		.loc 1 209 0
 314 0030 084B     		ldr	r3, .L7+4
 315 0032 0AE0     		b	.L6
 316              	.L4:
 317              		.loc 1 211 0
 318 0034 9DF80230 		ldrb	r3, [sp, #2]	@ zero_extendqisi2
 319 0038 032B     		cmp	r3, #3
 320 003a 05D8     		bhi	.L2
 321              		.loc 1 212 0
 322 003c 9DF80230 		ldrb	r3, [sp, #2]	@ zero_extendqisi2
 323 0040 DB00     		lsls	r3, r3, #3
 324 0042 054A     		ldr	r2, .L7+8
 325 0044 1344     		add	r3, r3, r2
 326 0046 00E0     		b	.L6
 327              	.L2:
 328              		.loc 1 214 0
 329 0048 0023     		movs	r3, #0
 330              	.L6:
 331              		.loc 1 215 0
 332 004a 1846     		mov	r0, r3
 333 004c 02B0     		add	sp, sp, #8
 334              		.cfi_def_cfa_offset 0
 335              		@ sp needed
 336 004e 7047     		bx	lr
 337              	.L8:
 338              		.align	2
ARM GAS  /tmp/cc6MXJPQ.s 			page 7


 339              	.L7:
 340 0050 00000000 		.word	vcom_device_descriptor
 341 0054 00000000 		.word	vcom_configuration_descriptor
 342 0058 00000000 		.word	vcom_strings
 343              		.cfi_endproc
 344              	.LFE118:
 345              		.size	get_descriptor, .-get_descriptor
 346 005c AFF30080 		.section	.bss.ep1instate,"aw",%nobits
 347              		.align	2
 348              		.type	ep1instate, %object
 349              		.size	ep1instate, 16
 350              	ep1instate:
 351 0000 00000000 		.space	16
 351      00000000 
 351      00000000 
 351      00000000 
 352              		.section	.bss.ep1outstate,"aw",%nobits
 353              		.align	2
 354              		.type	ep1outstate, %object
 355              		.size	ep1outstate, 20
 356              	ep1outstate:
 357 0000 00000000 		.space	20
 357      00000000 
 357      00000000 
 357      00000000 
 357      00000000 
 358              		.section	.rodata.ep1config,"a",%progbits
 359              		.align	2
 360              		.type	ep1config, %object
 361              		.size	ep1config, 36
 362              	ep1config:
 363 0000 02000000 		.word	2
 364 0004 00000000 		.word	0
 365 0008 00000000 		.word	sduDataTransmitted
 366 000c 00000000 		.word	sduDataReceived
 367 0010 4000     		.short	64
 368 0012 4000     		.short	64
 369 0014 00000000 		.word	ep1instate
 370 0018 00000000 		.word	ep1outstate
 371 001c 0100     		.short	1
 372 001e 0000     		.space	2
 373 0020 00000000 		.word	0
 374              		.section	.bss.ep2instate,"aw",%nobits
 375              		.align	2
 376              		.type	ep2instate, %object
 377              		.size	ep2instate, 16
 378              	ep2instate:
 379 0000 00000000 		.space	16
 379      00000000 
 379      00000000 
 379      00000000 
 380              		.section	.rodata.ep2config,"a",%progbits
 381              		.align	2
 382              		.type	ep2config, %object
 383              		.size	ep2config, 36
 384              	ep2config:
 385 0000 03000000 		.word	3
ARM GAS  /tmp/cc6MXJPQ.s 			page 8


 386 0004 00000000 		.word	0
 387 0008 00000000 		.word	sduInterruptTransmitted
 388 000c 00000000 		.word	0
 389 0010 1000     		.short	16
 390 0012 0000     		.short	0
 391 0014 00000000 		.word	ep2instate
 392 0018 00000000 		.word	0
 393 001c 0100     		.short	1
 394 001e 0000     		.space	2
 395 0020 00000000 		.word	0
 396              		.section	.text.usb_event,"ax",%progbits
 397              		.align	2
 398              		.p2align 4,,15
 399              		.thumb
 400              		.thumb_func
 401              		.type	usb_event, %function
 402              	usb_event:
 403              	.LFB119:
 404              		.loc 1 267 0
 405              		.cfi_startproc
 406              		@ args = 0, pretend = 0, frame = 8
 407              		@ frame_needed = 0, uses_anonymous_args = 0
 408 0000 00B5     		push	{lr}
 409              		.cfi_def_cfa_offset 4
 410              		.cfi_offset 14, -4
 411 0002 83B0     		sub	sp, sp, #12
 412              		.cfi_def_cfa_offset 16
 413 0004 0190     		str	r0, [sp, #4]
 414 0006 0B46     		mov	r3, r1
 415 0008 8DF80330 		strb	r3, [sp, #3]
 416              		.loc 1 269 0
 417 000c 9DF80330 		ldrb	r3, [sp, #3]	@ zero_extendqisi2
 418 0010 052B     		cmp	r3, #5
 419 0012 27D8     		bhi	.L19
 420 0014 01A2     		adr	r2, .L12
 421 0016 52F823F0 		ldr	pc, [r2, r3, lsl #2]
 422 001a 00BF     		.p2align 2
 423              	.L12:
 424 001c 65000000 		.word	.L19+1
 425 0020 65000000 		.word	.L19+1
 426 0024 35000000 		.word	.L14+1
 427 0028 65000000 		.word	.L19+1
 428 002c 65000000 		.word	.L19+1
 429 0030 65000000 		.word	.L19+1
 430              		.p2align 1
 431              	.L14:
 432              	.LBB2:
 433              		.loc 1 275 0
 434 0034 2023     		movs	r3, #32
 435              	@ 275 "/home/ergae/r2p-sdk/modules/USB_module/usbcfg.c" 1
 436 0036 83F31188 		msr     BASEPRI, r3
 437              	@ 0 "" 2
 438              		.thumb
 439              	.LBE2:
 440 003a FFF7FEFF 		bl	dbg_check_lock_from_isr
 441              		.loc 1 280 0
 442 003e 0198     		ldr	r0, [sp, #4]
ARM GAS  /tmp/cc6MXJPQ.s 			page 9


 443 0040 0121     		movs	r1, #1
 444 0042 0A4A     		ldr	r2, .L20
 445 0044 FFF7FEFF 		bl	usbInitEndpointI
 446              		.loc 1 281 0
 447 0048 0198     		ldr	r0, [sp, #4]
 448 004a 0221     		movs	r1, #2
 449 004c 084A     		ldr	r2, .L20+4
 450 004e FFF7FEFF 		bl	usbInitEndpointI
 451              		.loc 1 284 0
 452 0052 0848     		ldr	r0, .L20+8
 453 0054 FFF7FEFF 		bl	sduConfigureHookI
 454              		.loc 1 286 0
 455 0058 FFF7FEFF 		bl	dbg_check_unlock_from_isr
 456              	.LBB3:
 457 005c 0023     		movs	r3, #0
 458              	@ 286 "/home/ergae/r2p-sdk/modules/USB_module/usbcfg.c" 1
 459 005e 83F31188 		msr     BASEPRI, r3
 460              	@ 0 "" 2
 461              		.thumb
 462              	.LBE3:
 463              		.loc 1 287 0
 464 0062 00E0     		b	.L9
 465              	.L19:
 466              		.loc 1 295 0
 467 0064 00BF     		nop
 468              	.L9:
 469              		.loc 1 296 0
 470 0066 03B0     		add	sp, sp, #12
 471              		.cfi_def_cfa_offset 4
 472              		@ sp needed
 473 0068 5DF804FB 		ldr	pc, [sp], #4
 474              	.L21:
 475              		.align	2
 476              	.L20:
 477 006c 00000000 		.word	ep1config
 478 0070 00000000 		.word	ep2config
 479 0074 00000000 		.word	SDU1
 480              		.cfi_endproc
 481              	.LFE119:
 482              		.size	usb_event, .-usb_event
 483              		.global	usbcfg
 484 0078 AFF30080 		.section	.rodata.usbcfg,"a",%progbits
 484      AFF30080 
 485              		.align	2
 486              		.type	usbcfg, %object
 487              		.size	usbcfg, 16
 488              	usbcfg:
 489 0000 00000000 		.word	usb_event
 490 0004 00000000 		.word	get_descriptor
 491 0008 00000000 		.word	sduRequestsHook
 492 000c 00000000 		.word	0
 493              		.global	serusbcfg
 494              		.section	.rodata.serusbcfg,"a",%progbits
 495              		.align	2
 496              		.type	serusbcfg, %object
 497              		.size	serusbcfg, 8
 498              	serusbcfg:
ARM GAS  /tmp/cc6MXJPQ.s 			page 10


 499 0000 00000000 		.word	USBD1
 500 0004 01       		.byte	1
 501 0005 01       		.byte	1
 502 0006 02       		.byte	2
 503 0007 00       		.space	1
 504              		.text
 505              	.Letext0:
 506              		.file 2 "/home/ergae/r2p-sdk/tools/gcc-arm-none-eabi-4_9-2014q4/lib/gcc/arm-none-eabi/4.9.3/includ
 507              		.file 3 "/home/ergae/r2p-sdk/tools/gcc-arm-none-eabi-4_9-2014q4/arm-none-eabi/include/machine/_def
 508              		.file 4 "/home/ergae/r2p-sdk/tools/gcc-arm-none-eabi-4_9-2014q4/arm-none-eabi/include/stdint.h"
 509              		.file 5 "/home/ergae/r2p-sdk/core/ChibiOS/os/ports/GCC/ARMCMx/chtypes.h"
 510              		.file 6 "/home/ergae/r2p-sdk/core/ChibiOS/os/kernel/include/chlists.h"
 511              		.file 7 "/home/ergae/r2p-sdk/core/ChibiOS/os/kernel/include/chthreads.h"
 512              		.file 8 "/home/ergae/r2p-sdk/core/ChibiOS/os/ports/GCC/ARMCMx/chcore_v7m.h"
 513              		.file 9 "/home/ergae/r2p-sdk/core/ChibiOS/os/kernel/include/chmtx.h"
 514              		.file 10 "/home/ergae/r2p-sdk/core/ChibiOS/os/kernel/include/chevents.h"
 515              		.file 11 "/home/ergae/r2p-sdk/core/ChibiOS/os/kernel/include/chqueues.h"
 516              		.file 12 "/home/ergae/r2p-sdk/core/ChibiOS/os/hal/include/usb.h"
 517              		.file 13 "/home/ergae/r2p-sdk/core/ChibiOS/os/hal/platforms/STM32/USBv1/usb_lld.h"
 518              		.file 14 "/home/ergae/r2p-sdk/core/ChibiOS/os/hal/include/serial_usb.h"
 519              		.file 15 "/home/ergae/r2p-sdk/core/ChibiOS/os/ports/common/ARMCMx/CMSIS/include/core_cm4.h"