ARM GAS  /tmp/cc6MXJPQ.s 			page 1


   1              		.syntax unified
   2              		.cpu cortex-m4
   3              		.eabi_attribute 27, 3
   4              		.eabi_attribute 28, 1
   5              		.fpu fpv4-sp-d16
   6              		.eabi_attribute 20, 1
   7              		.eabi_attribute 21, 1
   8              		.eabi_attribute 23, 3
   9              		.eabi_attribute 24, 1
  10              		.eabi_attribute 25, 1
  11              		.eabi_attribute 26, 1
  12              		.eabi_attribute 30, 6
  13              		.eabi_attribute 34, 1
  14              		.eabi_attribute 18, 4
  15              		.thumb
  16              		.file	"usbcfg.c"
  17              		.text
  18              	.Ltext0:
  19              		.cfi_sections	.debug_frame
  20              		.global	SDU1
  21              		.section	.bss.SDU1,"aw",%nobits
  22              		.align	2
  23              		.type	SDU1, %object
  24              		.size	SDU1, 600
  25              	SDU1:
  26 0000 00000000 		.space	600
  26      00000000 
  26      00000000 
  26      00000000 
  26      00000000 
  27              		.section	.rodata.vcom_device_descriptor_data,"a",%progbits
  28              		.align	2
  29              		.type	vcom_device_descriptor_data, %object
  30              		.size	vcom_device_descriptor_data, 18
  31              	vcom_device_descriptor_data:
  32 0000 12       		.byte	18
  33 0001 01       		.byte	1
  34 0002 10       		.byte	16
  35 0003 01       		.byte	1
  36 0004 02       		.byte	2
  37 0005 00       		.byte	0
  38 0006 00       		.byte	0
  39 0007 40       		.byte	64
  40 0008 83       		.byte	-125
  41 0009 04       		.byte	4
  42 000a 40       		.byte	64
  43 000b 57       		.byte	87
  44 000c 00       		.byte	0
  45 000d 02       		.byte	2
  46 000e 01       		.byte	1
  47 000f 02       		.byte	2
  48 0010 03       		.byte	3
  49 0011 01       		.byte	1
  50 0012 0000     		.section	.rodata.vcom_device_descriptor,"a",%progbits
  51              		.align	2
  52              		.type	vcom_device_descriptor, %object
  53              		.size	vcom_device_descriptor, 8
ARM GAS  /tmp/cc6MXJPQ.s 			page 2


  54              	vcom_device_descriptor:
  55 0000 12000000 		.word	18
  56 0004 00000000 		.word	vcom_device_descriptor_data
  57              		.section	.rodata.vcom_configuration_descriptor_data,"a",%progbits
  58              		.align	2
  59              		.type	vcom_configuration_descriptor_data, %object
  60              		.size	vcom_configuration_descriptor_data, 67
  61              	vcom_configuration_descriptor_data:
  62 0000 09       		.byte	9
  63 0001 02       		.byte	2
  64 0002 43       		.byte	67
  65 0003 00       		.byte	0
  66 0004 02       		.byte	2
  67 0005 01       		.byte	1
  68 0006 00       		.byte	0
  69 0007 C0       		.byte	-64
  70 0008 32       		.byte	50
  71 0009 09       		.byte	9
  72 000a 04       		.byte	4
  73 000b 00       		.byte	0
  74 000c 00       		.byte	0
  75 000d 01       		.byte	1
  76 000e 02       		.byte	2
  77 000f 02       		.byte	2
  78 0010 01       		.byte	1
  79 0011 00       		.byte	0
  80 0012 05       		.byte	5
  81 0013 24       		.byte	36
  82 0014 00       		.byte	0
  83 0015 10       		.byte	16
  84 0016 01       		.byte	1
  85 0017 05       		.byte	5
  86 0018 24       		.byte	36
  87 0019 01       		.byte	1
  88 001a 00       		.byte	0
  89 001b 01       		.byte	1
  90 001c 04       		.byte	4
  91 001d 24       		.byte	36
  92 001e 02       		.byte	2
  93 001f 02       		.byte	2
  94 0020 05       		.byte	5
  95 0021 24       		.byte	36
  96 0022 06       		.byte	6
  97 0023 00       		.byte	0
  98 0024 01       		.byte	1
  99 0025 07       		.byte	7
 100 0026 05       		.byte	5
 101 0027 82       		.byte	-126
 102 0028 03       		.byte	3
 103 0029 08       		.byte	8
 104 002a 00       		.byte	0
 105 002b FF       		.byte	-1
 106 002c 09       		.byte	9
 107 002d 04       		.byte	4
 108 002e 01       		.byte	1
 109 002f 00       		.byte	0
 110 0030 02       		.byte	2
ARM GAS  /tmp/cc6MXJPQ.s 			page 3


 111 0031 0A       		.byte	10
 112 0032 00       		.byte	0
 113 0033 00       		.byte	0
 114 0034 00       		.byte	0
 115 0035 07       		.byte	7
 116 0036 05       		.byte	5
 117 0037 01       		.byte	1
 118 0038 02       		.byte	2
 119 0039 40       		.byte	64
 120 003a 00       		.byte	0
 121 003b 00       		.byte	0
 122 003c 07       		.byte	7
 123 003d 05       		.byte	5
 124 003e 81       		.byte	-127
 125 003f 02       		.byte	2
 126 0040 40       		.byte	64
 127 0041 00       		.byte	0
 128 0042 00       		.byte	0
 129 0043 00       		.section	.rodata.vcom_configuration_descriptor,"a",%progbits
 130              		.align	2
 131              		.type	vcom_configuration_descriptor, %object
 132              		.size	vcom_configuration_descriptor, 8
 133              	vcom_configuration_descriptor:
 134 0000 43000000 		.word	67
 135 0004 00000000 		.word	vcom_configuration_descriptor_data
 136              		.section	.rodata.vcom_string0,"a",%progbits
 137              		.align	2
 138              		.type	vcom_string0, %object
 139              		.size	vcom_string0, 4
 140              	vcom_string0:
 141 0000 04       		.byte	4
 142 0001 03       		.byte	3
 143 0002 09       		.byte	9
 144 0003 04       		.byte	4
 145              		.section	.rodata.vcom_string1,"a",%progbits
 146              		.align	2
 147              		.type	vcom_string1, %object
 148              		.size	vcom_string1, 38
 149              	vcom_string1:
 150 0000 26       		.byte	38
 151 0001 03       		.byte	3
 152 0002 53       		.byte	83
 153 0003 00       		.byte	0
 154 0004 54       		.byte	84
 155 0005 00       		.byte	0
 156 0006 4D       		.byte	77
 157 0007 00       		.byte	0
 158 0008 69       		.byte	105
 159 0009 00       		.byte	0
 160 000a 63       		.byte	99
 161 000b 00       		.byte	0
 162 000c 72       		.byte	114
 163 000d 00       		.byte	0
 164 000e 6F       		.byte	111
 165 000f 00       		.byte	0
 166 0010 65       		.byte	101
 167 0011 00       		.byte	0
ARM GAS  /tmp/cc6MXJPQ.s 			page 4


 168 0012 6C       		.byte	108
 169 0013 00       		.byte	0
 170 0014 65       		.byte	101
 171 0015 00       		.byte	0
 172 0016 63       		.byte	99
 173 0017 00       		.byte	0
 174 0018 74       		.byte	116
 175 0019 00       		.byte	0
 176 001a 72       		.byte	114
 177 001b 00       		.byte	0
 178 001c 6F       		.byte	111
 179 001d 00       		.byte	0
 180 001e 6E       		.byte	110
 181 001f 00       		.byte	0
 182 0020 69       		.byte	105
 183 0021 00       		.byte	0
 184 0022 63       		.byte	99
 185 0023 00       		.byte	0
 186 0024 73       		.byte	115
 187 0025 00       		.byte	0
 188 0026 0000     		.section	.rodata.vcom_string2,"a",%progbits
 189              		.align	2
 190              		.type	vcom_string2, %object
 191              		.size	vcom_string2, 56
 192              	vcom_string2:
 193 0000 38       		.byte	56
 194 0001 03       		.byte	3
 195 0002 43       		.byte	67
 196 0003 00       		.byte	0
 197 0004 68       		.byte	104
 198 0005 00       		.byte	0
 199 0006 69       		.byte	105
 200 0007 00       		.byte	0
 201 0008 62       		.byte	98
 202 0009 00       		.byte	0
 203 000a 69       		.byte	105
 204 000b 00       		.byte	0
 205 000c 4F       		.byte	79
 206 000d 00       		.byte	0
 207 000e 53       		.byte	83
 208 000f 00       		.byte	0
 209 0010 2F       		.byte	47
 210 0011 00       		.byte	0
 211 0012 52       		.byte	82
 212 0013 00       		.byte	0
 213 0014 54       		.byte	84
 214 0015 00       		.byte	0
 215 0016 20       		.byte	32
 216 0017 00       		.byte	0
 217 0018 56       		.byte	86
 218 0019 00       		.byte	0
 219 001a 69       		.byte	105
 220 001b 00       		.byte	0
 221 001c 72       		.byte	114
 222 001d 00       		.byte	0
 223 001e 74       		.byte	116
 224 001f 00       		.byte	0
ARM GAS  /tmp/cc6MXJPQ.s 			page 5


 225 0020 75       		.byte	117
 226 0021 00       		.byte	0
 227 0022 61       		.byte	97
 228 0023 00       		.byte	0
 229 0024 6C       		.byte	108
 230 0025 00       		.byte	0
 231 0026 20       		.byte	32
 232 0027 00       		.byte	0
 233 0028 43       		.byte	67
 234 0029 00       		.byte	0
 235 002a 4F       		.byte	79
 236 002b 00       		.byte	0
 237 002c 4D       		.byte	77
 238 002d 00       		.byte	0
 239 002e 20       		.byte	32
 240 002f 00       		.byte	0
 241 0030 50       		.byte	80
 242 0031 00       		.byte	0
 243 0032 6F       		.byte	111
 244 0033 00       		.byte	0
 245 0034 72       		.byte	114
 246 0035 00       		.byte	0
 247 0036 74       		.byte	116
 248 0037 00       		.byte	0
 249              		.section	.rodata.vcom_string3,"a",%progbits
 250              		.align	2
 251              		.type	vcom_string3, %object
 252              		.size	vcom_string3, 8
 253              	vcom_string3:
 254 0000 08       		.byte	8
 255 0001 03       		.byte	3
 256 0002 32       		.byte	50
 257 0003 00       		.byte	0
 258 0004 36       		.byte	54
 259 0005 00       		.byte	0
 260 0006 35       		.byte	53
 261 0007 00       		.byte	0
 262              		.section	.rodata.vcom_strings,"a",%progbits
 263              		.align	2
 264              		.type	vcom_strings, %object
 265              		.size	vcom_strings, 32
 266              	vcom_strings:
 267 0000 04000000 		.word	4
 268 0004 00000000 		.word	vcom_string0
 269 0008 26000000 		.word	38
 270 000c 00000000 		.word	vcom_string1
 271 0010 38000000 		.word	56
 272 0014 00000000 		.word	vcom_string2
 273 0018 08000000 		.word	8
 274 001c 00000000 		.word	vcom_string3
 275              		.section	.text.get_descriptor,"ax",%progbits
 276              		.align	2
 277              		.p2align 4,,15
 278              		.thumb
 279              		.thumb_func
 280              		.type	get_descriptor, %function
 281              	get_descriptor:
ARM GAS  /tmp/cc6MXJPQ.s 			page 6


 282              	.LFB118:
 283              		.file 1 "/home/ergae/r2p-sdk/modules/USB_module/usbcfg.c"
 284              		.loc 1 201 0
 285              		.cfi_startproc
 286              		@ args = 0, pretend = 0, frame = 8
 287              		@ frame_needed = 0, uses_anonymous_args = 0
 288              		@ link register save eliminated.
 289 0000 82B0     		sub	sp, sp, #8
 290              		.cfi_def_cfa_offset 8
 291 0002 0190     		str	r0, [sp, #4]
 292 0004 0846     		mov	r0, r1
 293 0006 1146     		mov	r1, r2
 294 0008 1A46     		mov	r2, r3
 295 000a 0346     		mov	r3, r0
 296 000c 8DF80330 		strb	r3, [sp, #3]
 297 0010 0B46     		mov	r3, r1
 298 0012 8DF80230 		strb	r3, [sp, #2]
 299 0016 1346     		mov	r3, r2	@ movhi
 300 0018 ADF80030 		strh	r3, [sp]	@ movhi
 301              		.loc 1 205 0
 302 001c 9DF80330 		ldrb	r3, [sp, #3]	@ zero_extendqisi2
 303 0020 022B     		cmp	r3, #2
 304 0022 05D0     		beq	.L3
 305 0024 032B     		cmp	r3, #3
 306 0026 05D0     		beq	.L4
 307 0028 012B     		cmp	r3, #1
 308 002a 0DD1     		bne	.L2
 309              		.loc 1 207 0
 310 002c 084B     		ldr	r3, .L7
 311 002e 0CE0     		b	.L6
 312              	.L3:
 313              		.loc 1 209 0
 314 0030 084B     		ldr	r3, .L7+4
 315 0032 0AE0     		b	.L6
 316              	.L4:
 317              		.loc 1 211 0
 318 0034 9DF80230 		ldrb	r3, [sp, #2]	@ zero_extendqisi2
 319 0038 032B     		cmp	r3, #3
 320 003a 05D8     		bhi	.L2
 321              		.loc 1 212 0
 322 003c 9DF80230 		ldrb	r3, [sp, #2]	@ zero_extendqisi2
 323 0040 DB00     		lsls	r3, r3, #3
 324 0042 054A     		ldr	r2, .L7+8
 325 0044 1344     		add	r3, r3, r2
 326 0046 00E0     		b	.L6
 327              	.L2:
 328              		.loc 1 214 0
 329 0048 0023     		movs	r3, #0
 330              	.L6:
 331              		.loc 1 215 0
 332 004a 1846     		mov	r0, r3
 333 004c 02B0     		add	sp, sp, #8
 334              		.cfi_def_cfa_offset 0
 335              		@ sp needed
 336 004e 7047     		bx	lr
 337              	.L8:
 338              		.align	2
ARM GAS  /tmp/cc6MXJPQ.s 			page 7


 339              	.L7:
 340 0050 00000000 		.word	vcom_device_descriptor
 341 0054 00000000 		.word	vcom_configuration_descriptor
 342 0058 00000000 		.word	vcom_strings
 343              		.cfi_endproc
 344              	.LFE118:
 345              		.size	get_descriptor, .-get_descriptor
 346 005c AFF30080 		.section	.bss.ep1instate,"aw",%nobits
 347              		.align	2
 348              		.type	ep1instate, %object
 349              		.size	ep1instate, 16
 350              	ep1instate:
 351 0000 00000000 		.space	16
 351      00000000 
 351      00000000 
 351      00000000 
 352              		.section	.bss.ep1outstate,"aw",%nobits
 353              		.align	2
 354              		.type	ep1outstate, %object
 355              		.size	ep1outstate, 20
 356              	ep1outstate:
 357 0000 00000000 		.space	20
 357      00000000 
 357      00000000 
 357      00000000 
 357      00000000 
 358              		.section	.rodata.ep1config,"a",%progbits
 359              		.align	2
 360              		.type	ep1config, %object
 361              		.size	ep1config, 36
 362              	ep1config:
 363 0000 02000000 		.word	2
 364 0004 00000000 		.word	0
 365 0008 00000000 		.word	sduDataTransmitted
 366 000c 00000000 		.word	sduDataReceived
 367 0010 4000     		.short	64
 368 0012 4000     		.short	64
 369 0014 00000000 		.word	ep1instate
 370 0018 00000000 		.word	ep1outstate
 371 001c 0100     		.short	1
 372 001e 0000     		.space	2
 373 0020 00000000 		.word	0
 374              		.section	.bss.ep2instate,"aw",%nobits
 375              		.align	2
 376              		.type	ep2instate, %object
 377              		.size	ep2instate, 16
 378              	ep2instate:
 379 0000 00000000 		.space	16
 379      00000000 
 379      00000000 
 379      00000000 
 380              		.section	.rodata.ep2config,"a",%progbits
 381              		.align	2
 382              		.type	ep2config, %object
 383              		.size	ep2config, 36
 384              	ep2config:
 385 0000 03000000 		.word	3
ARM GAS  /tmp/cc6MXJPQ.s 			page 8


 386 0004 00000000 		.word	0
 387 0008 00000000 		.word	sduInterruptTransmitted
 388 000c 00000000 		.word	0
 389 0010 1000     		.short	16
 390 0012 0000     		.short	0
 391 0014 00000000 		.word	ep2instate
 392 0018 00000000 		.word	0
 393 001c 0100     		.short	1
 394 001e 0000     		.space	2
 395 0020 00000000 		.word	0
 396              		.section	.text.usb_event,"ax",%progbits
 397              		.align	2
 398              		.p2align 4,,15
 399              		.thumb
 400              		.thumb_func
 401              		.type	usb_event, %function
 402              	usb_event:
 403              	.LFB119:
 404              		.loc 1 267 0
 405              		.cfi_startproc
 406              		@ args = 0, pretend = 0, frame = 8
 407              		@ frame_needed = 0, uses_anonymous_args = 0
 408 0000 00B5     		push	{lr}
 409              		.cfi_def_cfa_offset 4
 410              		.cfi_offset 14, -4
 411 0002 83B0     		sub	sp, sp, #12
 412              		.cfi_def_cfa_offset 16
 413 0004 0190     		str	r0, [sp, #4]
 414 0006 0B46     		mov	r3, r1
 415 0008 8DF80330 		strb	r3, [sp, #3]
 416              		.loc 1 269 0
 417 000c 9DF80330 		ldrb	r3, [sp, #3]	@ zero_extendqisi2
 418 0010 052B     		cmp	r3, #5
 419 0012 27D8     		bhi	.L19
 420 0014 01A2     		adr	r2, .L12
 421 0016 52F823F0 		ldr	pc, [r2, r3, lsl #2]
 422 001a 00BF     		.p2align 2
 423              	.L12:
 424 001c 65000000 		.word	.L19+1
 425 0020 65000000 		.word	.L19+1
 426 0024 35000000 		.word	.L14+1
 427 0028 65000000 		.word	.L19+1
 428 002c 65000000 		.word	.L19+1
 429 0030 65000000 		.word	.L19+1
 430              		.p2align 1
 431              	.L14:
 432              	.LBB2:
 433              		.loc 1 275 0
 434 0034 2023     		movs	r3, #32
 435              	@ 275 "/home/ergae/r2p-sdk/modules/USB_module/usbcfg.c" 1
 436 0036 83F31188 		msr     BASEPRI, r3
 437              	@ 0 "" 2
 438              		.thumb
 439              	.LBE2:
 440 003a FFF7FEFF 		bl	dbg_check_lock_from_isr
 441              		.loc 1 280 0
 442 003e 0198     		ldr	r0, [sp, #4]
ARM GAS  /tmp/cc6MXJPQ.s 			page 9


 443 0040 0121     		movs	r1, #1
 444 0042 0A4A     		ldr	r2, .L20
 445 0044 FFF7FEFF 		bl	usbInitEndpointI
 446              		.loc 1 281 0
 447 0048 0198     		ldr	r0, [sp, #4]
 448 004a 0221     		movs	r1, #2
 449 004c 084A     		ldr	r2, .L20+4
 450 004e FFF7FEFF 		bl	usbInitEndpointI
 451              		.loc 1 284 0
 452 0052 0848     		ldr	r0, .L20+8
 453 0054 FFF7FEFF 		bl	sduConfigureHookI
 454              		.loc 1 286 0
 455 0058 FFF7FEFF 		bl	dbg_check_unlock_from_isr
 456              	.LBB3:
 457 005c 0023     		movs	r3, #0
 458              	@ 286 "/home/ergae/r2p-sdk/modules/USB_module/usbcfg.c" 1
 459 005e 83F31188 		msr     BASEPRI, r3
 460              	@ 0 "" 2
 461              		.thumb
 462              	.LBE3:
 463              		.loc 1 287 0
 464 0062 00E0     		b	.L9
 465              	.L19:
 466              		.loc 1 295 0
 467 0064 00BF     		nop
 468              	.L9:
 469              		.loc 1 296 0
 470 0066 03B0     		add	sp, sp, #12
 471              		.cfi_def_cfa_offset 4
 472              		@ sp needed
 473 0068 5DF804FB 		ldr	pc, [sp], #4
 474              	.L21:
 475              		.align	2
 476              	.L20:
 477 006c 00000000 		.word	ep1config
 478 0070 00000000 		.word	ep2config
 479 0074 00000000 		.word	SDU1
 480              		.cfi_endproc
 481              	.LFE119:
 482              		.size	usb_event, .-usb_event
 483              		.global	usbcfg
 484 0078 AFF30080 		.section	.rodata.usbcfg,"a",%progbits
 484      AFF30080 
 485              		.align	2
 486              		.type	usbcfg, %object
 487              		.size	usbcfg, 16
 488              	usbcfg:
 489 0000 00000000 		.word	usb_event
 490 0004 00000000 		.word	get_descriptor
 491 0008 00000000 		.word	sduRequestsHook
 492 000c 00000000 		.word	0
 493              		.global	serusbcfg
 494              		.section	.rodata.serusbcfg,"a",%progbits
 495              		.align	2
 496              		.type	serusbcfg, %object
 497              		.size	serusbcfg, 8
 498              	serusbcfg:
ARM GAS  /tmp/cc6MXJPQ.s 			page 10


 499 0000 00000000 		.word	USBD1
 500 0004 01       		.byte	1
 501 0005 01       		.byte	1
 502 0006 02       		.byte	2
 503 0007 00       		.space	1
 504              		.text
 505              	.Letext0:
 506              		.file 2 "/home/ergae/r2p-sdk/tools/gcc-arm-none-eabi-4_9-2014q4/lib/gcc/arm-none-eabi/4.9.3/includ
 507              		.file 3 "/home/ergae/r2p-sdk/tools/gcc-arm-none-eabi-4_9-2014q4/arm-none-eabi/include/machine/_def
 508              		.file 4 "/home/ergae/r2p-sdk/tools/gcc-arm-none-eabi-4_9-2014q4/arm-none-eabi/include/stdint.h"
 509              		.file 5 "/home/ergae/r2p-sdk/core/ChibiOS/os/ports/GCC/ARMCMx/chtypes.h"
 510              		.file 6 "/home/ergae/r2p-sdk/core/ChibiOS/os/kernel/include/chlists.h"
 511              		.file 7 "/home/ergae/r2p-sdk/core/ChibiOS/os/kernel/include/chthreads.h"
 512              		.file 8 "/home/ergae/r2p-sdk/core/ChibiOS/os/ports/GCC/ARMCMx/chcore_v7m.h"
 513              		.file 9 "/home/ergae/r2p-sdk/core/ChibiOS/os/kernel/include/chmtx.h"
 514              		.file 10 "/home/ergae/r2p-sdk/core/ChibiOS/os/kernel/include/chevents.h"
 515              		.file 11 "/home/ergae/r2p-sdk/core/ChibiOS/os/kernel/include/chqueues.h"
 516              		.file 12 "/home/ergae/r2p-sdk/core/ChibiOS/os/hal/include/usb.h"
 517              		.file 13 "/home/ergae/r2p-sdk/core/ChibiOS/os/hal/platforms/STM32/USBv1/usb_lld.h"
 518              		.file 14 "/home/ergae/r2p-sdk/core/ChibiOS/os/hal/include/serial_usb.h"
 519              		.file 15 "/home/ergae/r2p-sdk/core/ChibiOS/os/ports/common/ARMCMx/CMSIS/include/core_cm4.h"
 520              		.section	.debug_info,"",%progbits
 521              	.Ldebug_info0:
 522 0000 E00F0000 		.4byte	0xfe0
 523 0004 0400     		.2byte	0x4
 524 0006 00000000 		.4byte	.Ldebug_abbrev0
 525 000a 04       		.byte	0x4
 526 000b 01       		.uleb128 0x1
 527 000c B7080000 		.4byte	.LASF207
 528 0010 01       		.byte	0x1
 529 0011 CA010000 		.4byte	.LASF208
 530 0015 00000000 		.4byte	.Ldebug_ranges0+0
 531 0019 00000000 		.4byte	0
 532 001d 00000000 		.4byte	.Ldebug_line0
 533 0021 02       		.uleb128 0x2
 534 0022 04       		.byte	0x4
 535 0023 05       		.byte	0x5
 536 0024 696E7400 		.ascii	"int\000"
 537 0028 03       		.uleb128 0x3
 538 0029 21000000 		.4byte	.LASF2
 539 002d 02       		.byte	0x2
 540 002e D4       		.byte	0xd4
 541 002f 33000000 		.4byte	0x33
 542 0033 04       		.uleb128 0x4
 543 0034 04       		.byte	0x4
 544 0035 07       		.byte	0x7
 545 0036 DB020000 		.4byte	.LASF0
 546 003a 04       		.uleb128 0x4
 547 003b 01       		.byte	0x1
 548 003c 06       		.byte	0x6
 549 003d 20010000 		.4byte	.LASF1
 550 0041 03       		.uleb128 0x3
 551 0042 4E000000 		.4byte	.LASF3
 552 0046 03       		.byte	0x3
 553 0047 1D       		.byte	0x1d
 554 0048 4C000000 		.4byte	0x4c
 555 004c 04       		.uleb128 0x4
ARM GAS  /tmp/cc6MXJPQ.s 			page 11


 556 004d 01       		.byte	0x1
 557 004e 08       		.byte	0x8
 558 004f D0050000 		.4byte	.LASF4
 559 0053 04       		.uleb128 0x4
 560 0054 02       		.byte	0x2
 561 0055 05       		.byte	0x5
 562 0056 05060000 		.4byte	.LASF5
 563 005a 03       		.uleb128 0x3
 564 005b F5060000 		.4byte	.LASF6
 565 005f 03       		.byte	0x3
 566 0060 2B       		.byte	0x2b
 567 0061 65000000 		.4byte	0x65
 568 0065 04       		.uleb128 0x4
 569 0066 02       		.byte	0x2
 570 0067 07       		.byte	0x7
 571 0068 63020000 		.4byte	.LASF7
 572 006c 03       		.uleb128 0x3
 573 006d 27070000 		.4byte	.LASF8
 574 0071 03       		.byte	0x3
 575 0072 3F       		.byte	0x3f
 576 0073 77000000 		.4byte	0x77
 577 0077 04       		.uleb128 0x4
 578 0078 04       		.byte	0x4
 579 0079 05       		.byte	0x5
 580 007a A0010000 		.4byte	.LASF9
 581 007e 03       		.uleb128 0x3
 582 007f 31070000 		.4byte	.LASF10
 583 0083 03       		.byte	0x3
 584 0084 41       		.byte	0x41
 585 0085 89000000 		.4byte	0x89
 586 0089 04       		.uleb128 0x4
 587 008a 04       		.byte	0x4
 588 008b 07       		.byte	0x7
 589 008c B4060000 		.4byte	.LASF11
 590 0090 04       		.uleb128 0x4
 591 0091 08       		.byte	0x8
 592 0092 05       		.byte	0x5
 593 0093 12010000 		.4byte	.LASF12
 594 0097 03       		.uleb128 0x3
 595 0098 53050000 		.4byte	.LASF13
 596 009c 03       		.byte	0x3
 597 009d 5B       		.byte	0x5b
 598 009e A2000000 		.4byte	0xa2
 599 00a2 04       		.uleb128 0x4
 600 00a3 08       		.byte	0x8
 601 00a4 07       		.byte	0x7
 602 00a5 81000000 		.4byte	.LASF14
 603 00a9 03       		.uleb128 0x3
 604 00aa 33080000 		.4byte	.LASF15
 605 00ae 04       		.byte	0x4
 606 00af 15       		.byte	0x15
 607 00b0 41000000 		.4byte	0x41
 608 00b4 03       		.uleb128 0x3
 609 00b5 F8030000 		.4byte	.LASF16
 610 00b9 04       		.byte	0x4
 611 00ba 21       		.byte	0x21
 612 00bb 5A000000 		.4byte	0x5a
ARM GAS  /tmp/cc6MXJPQ.s 			page 12


 613 00bf 03       		.uleb128 0x3
 614 00c0 C8050000 		.4byte	.LASF17
 615 00c4 04       		.byte	0x4
 616 00c5 2C       		.byte	0x2c
 617 00c6 6C000000 		.4byte	0x6c
 618 00ca 03       		.uleb128 0x3
 619 00cb AC070000 		.4byte	.LASF18
 620 00cf 04       		.byte	0x4
 621 00d0 2D       		.byte	0x2d
 622 00d1 7E000000 		.4byte	0x7e
 623 00d5 03       		.uleb128 0x3
 624 00d6 3A000000 		.4byte	.LASF19
 625 00da 04       		.byte	0x4
 626 00db 39       		.byte	0x39
 627 00dc 97000000 		.4byte	0x97
 628 00e0 03       		.uleb128 0x3
 629 00e1 54010000 		.4byte	.LASF20
 630 00e5 05       		.byte	0x5
 631 00e6 2B       		.byte	0x2b
 632 00e7 EB000000 		.4byte	0xeb
 633 00eb 04       		.uleb128 0x4
 634 00ec 01       		.byte	0x1
 635 00ed 02       		.byte	0x2
 636 00ee C2050000 		.4byte	.LASF21
 637 00f2 03       		.uleb128 0x3
 638 00f3 F0030000 		.4byte	.LASF22
 639 00f7 05       		.byte	0x5
 640 00f8 2C       		.byte	0x2c
 641 00f9 A9000000 		.4byte	0xa9
 642 00fd 03       		.uleb128 0x3
 643 00fe 18020000 		.4byte	.LASF23
 644 0102 05       		.byte	0x5
 645 0103 2D       		.byte	0x2d
 646 0104 A9000000 		.4byte	0xa9
 647 0108 03       		.uleb128 0x3
 648 0109 82050000 		.4byte	.LASF24
 649 010d 05       		.byte	0x5
 650 010e 2E       		.byte	0x2e
 651 010f A9000000 		.4byte	0xa9
 652 0113 03       		.uleb128 0x3
 653 0114 77010000 		.4byte	.LASF25
 654 0118 05       		.byte	0x5
 655 0119 2F       		.byte	0x2f
 656 011a A9000000 		.4byte	0xa9
 657 011e 03       		.uleb128 0x3
 658 011f A3050000 		.4byte	.LASF26
 659 0123 05       		.byte	0x5
 660 0124 30       		.byte	0x30
 661 0125 CA000000 		.4byte	0xca
 662 0129 03       		.uleb128 0x3
 663 012a 90030000 		.4byte	.LASF27
 664 012e 05       		.byte	0x5
 665 012f 31       		.byte	0x31
 666 0130 BF000000 		.4byte	0xbf
 667 0134 03       		.uleb128 0x3
 668 0135 14040000 		.4byte	.LASF28
 669 0139 05       		.byte	0x5
ARM GAS  /tmp/cc6MXJPQ.s 			page 13


 670 013a 33       		.byte	0x33
 671 013b CA000000 		.4byte	0xca
 672 013f 03       		.uleb128 0x3
 673 0140 5F060000 		.4byte	.LASF29
 674 0144 05       		.byte	0x5
 675 0145 34       		.byte	0x34
 676 0146 CA000000 		.4byte	0xca
 677 014a 03       		.uleb128 0x3
 678 014b 12070000 		.4byte	.LASF30
 679 014f 05       		.byte	0x5
 680 0150 35       		.byte	0x35
 681 0151 CA000000 		.4byte	0xca
 682 0155 03       		.uleb128 0x3
 683 0156 4C060000 		.4byte	.LASF31
 684 015a 06       		.byte	0x6
 685 015b 2A       		.byte	0x2a
 686 015c 60010000 		.4byte	0x160
 687 0160 05       		.uleb128 0x5
 688 0161 4C060000 		.4byte	.LASF31
 689 0165 4C       		.byte	0x4c
 690 0166 07       		.byte	0x7
 691 0167 5E       		.byte	0x5e
 692 0168 69020000 		.4byte	0x269
 693 016c 06       		.uleb128 0x6
 694 016d 30060000 		.4byte	.LASF32
 695 0171 07       		.byte	0x7
 696 0172 5F       		.byte	0x5f
 697 0173 8A020000 		.4byte	0x28a
 698 0177 00       		.byte	0
 699 0178 06       		.uleb128 0x6
 700 0179 9C050000 		.4byte	.LASF33
 701 017d 07       		.byte	0x7
 702 017e 61       		.byte	0x61
 703 017f 8A020000 		.4byte	0x28a
 704 0183 04       		.byte	0x4
 705 0184 06       		.uleb128 0x6
 706 0185 CA000000 		.4byte	.LASF34
 707 0189 07       		.byte	0x7
 708 018a 63       		.byte	0x63
 709 018b 1E010000 		.4byte	0x11e
 710 018f 08       		.byte	0x8
 711 0190 06       		.uleb128 0x6
 712 0191 D0090000 		.4byte	.LASF35
 713 0195 07       		.byte	0x7
 714 0196 64       		.byte	0x64
 715 0197 1F040000 		.4byte	0x41f
 716 019b 0C       		.byte	0xc
 717 019c 06       		.uleb128 0x6
 718 019d 33020000 		.4byte	.LASF36
 719 01a1 07       		.byte	0x7
 720 01a2 66       		.byte	0x66
 721 01a3 8A020000 		.4byte	0x28a
 722 01a7 10       		.byte	0x10
 723 01a8 06       		.uleb128 0x6
 724 01a9 21060000 		.4byte	.LASF37
 725 01ad 07       		.byte	0x7
 726 01ae 67       		.byte	0x67
ARM GAS  /tmp/cc6MXJPQ.s 			page 14


 727 01af 8A020000 		.4byte	0x28a
 728 01b3 14       		.byte	0x14
 729 01b4 06       		.uleb128 0x6
 730 01b5 CB070000 		.4byte	.LASF38
 731 01b9 07       		.byte	0x7
 732 01ba 6E       		.byte	0x6e
 733 01bb 35050000 		.4byte	0x535
 734 01bf 18       		.byte	0x18
 735 01c0 06       		.uleb128 0x6
 736 01c1 05050000 		.4byte	.LASF39
 737 01c5 07       		.byte	0x7
 738 01c6 74       		.byte	0x74
 739 01c7 47050000 		.4byte	0x547
 740 01cb 1C       		.byte	0x1c
 741 01cc 06       		.uleb128 0x6
 742 01cd 0F060000 		.4byte	.LASF40
 743 01d1 07       		.byte	0x7
 744 01d2 79       		.byte	0x79
 745 01d3 FD000000 		.4byte	0xfd
 746 01d7 20       		.byte	0x20
 747 01d8 06       		.uleb128 0x6
 748 01d9 37060000 		.4byte	.LASF41
 749 01dd 07       		.byte	0x7
 750 01de 7D       		.byte	0x7d
 751 01df F2000000 		.4byte	0xf2
 752 01e3 21       		.byte	0x21
 753 01e4 06       		.uleb128 0x6
 754 01e5 10050000 		.4byte	.LASF42
 755 01e9 07       		.byte	0x7
 756 01ea 82       		.byte	0x82
 757 01eb 08010000 		.4byte	0x108
 758 01ef 22       		.byte	0x22
 759 01f0 06       		.uleb128 0x6
 760 01f1 17060000 		.4byte	.LASF43
 761 01f5 07       		.byte	0x7
 762 01f6 88       		.byte	0x88
 763 01f7 13010000 		.4byte	0x113
 764 01fb 23       		.byte	0x23
 765 01fc 06       		.uleb128 0x6
 766 01fd 01040000 		.4byte	.LASF44
 767 0201 07       		.byte	0x7
 768 0202 8F       		.byte	0x8f
 769 0203 47040000 		.4byte	0x447
 770 0207 24       		.byte	0x24
 771 0208 07       		.uleb128 0x7
 772 0209 705F7500 		.ascii	"p_u\000"
 773 020d 07       		.byte	0x7
 774 020e B4       		.byte	0xb4
 775 020f 00050000 		.4byte	0x500
 776 0213 28       		.byte	0x28
 777 0214 06       		.uleb128 0x6
 778 0215 D6090000 		.4byte	.LASF45
 779 0219 07       		.byte	0x7
 780 021a B9       		.byte	0xb9
 781 021b B0020000 		.4byte	0x2b0
 782 021f 2C       		.byte	0x2c
 783 0220 06       		.uleb128 0x6
ARM GAS  /tmp/cc6MXJPQ.s 			page 15


 784 0221 21030000 		.4byte	.LASF46
 785 0225 07       		.byte	0x7
 786 0226 BF       		.byte	0xbf
 787 0227 90020000 		.4byte	0x290
 788 022b 30       		.byte	0x30
 789 022c 06       		.uleb128 0x6
 790 022d 8A080000 		.4byte	.LASF47
 791 0231 07       		.byte	0x7
 792 0232 C3       		.byte	0xc3
 793 0233 29010000 		.4byte	0x129
 794 0237 38       		.byte	0x38
 795 0238 06       		.uleb128 0x6
 796 0239 6B060000 		.4byte	.LASF48
 797 023d 07       		.byte	0x7
 798 023e C9       		.byte	0xc9
 799 023f 34010000 		.4byte	0x134
 800 0243 3C       		.byte	0x3c
 801 0244 06       		.uleb128 0x6
 802 0245 FB050000 		.4byte	.LASF49
 803 0249 07       		.byte	0x7
 804 024a D0       		.byte	0xd0
 805 024b 4D050000 		.4byte	0x54d
 806 024f 40       		.byte	0x40
 807 0250 06       		.uleb128 0x6
 808 0251 1C070000 		.4byte	.LASF50
 809 0255 07       		.byte	0x7
 810 0256 D4       		.byte	0xd4
 811 0257 1E010000 		.4byte	0x11e
 812 025b 44       		.byte	0x44
 813 025c 06       		.uleb128 0x6
 814 025d 4C010000 		.4byte	.LASF51
 815 0261 07       		.byte	0x7
 816 0262 DA       		.byte	0xda
 817 0263 C6020000 		.4byte	0x2c6
 818 0267 48       		.byte	0x48
 819 0268 00       		.byte	0
 820 0269 08       		.uleb128 0x8
 821 026a 08       		.byte	0x8
 822 026b 06       		.byte	0x6
 823 026c 61       		.byte	0x61
 824 026d 8A020000 		.4byte	0x28a
 825 0271 06       		.uleb128 0x6
 826 0272 30060000 		.4byte	.LASF32
 827 0276 06       		.byte	0x6
 828 0277 62       		.byte	0x62
 829 0278 8A020000 		.4byte	0x28a
 830 027c 00       		.byte	0
 831 027d 06       		.uleb128 0x6
 832 027e 9C050000 		.4byte	.LASF33
 833 0282 06       		.byte	0x6
 834 0283 64       		.byte	0x64
 835 0284 8A020000 		.4byte	0x28a
 836 0288 04       		.byte	0x4
 837 0289 00       		.byte	0
 838 028a 09       		.uleb128 0x9
 839 028b 04       		.byte	0x4
 840 028c 55010000 		.4byte	0x155
ARM GAS  /tmp/cc6MXJPQ.s 			page 16


 841 0290 03       		.uleb128 0x3
 842 0291 DF040000 		.4byte	.LASF52
 843 0295 06       		.byte	0x6
 844 0296 66       		.byte	0x66
 845 0297 69020000 		.4byte	0x269
 846 029b 08       		.uleb128 0x8
 847 029c 04       		.byte	0x4
 848 029d 06       		.byte	0x6
 849 029e 6B       		.byte	0x6b
 850 029f B0020000 		.4byte	0x2b0
 851 02a3 06       		.uleb128 0x6
 852 02a4 30060000 		.4byte	.LASF32
 853 02a8 06       		.byte	0x6
 854 02a9 6D       		.byte	0x6d
 855 02aa 8A020000 		.4byte	0x28a
 856 02ae 00       		.byte	0
 857 02af 00       		.byte	0
 858 02b0 03       		.uleb128 0x3
 859 02b1 08040000 		.4byte	.LASF53
 860 02b5 06       		.byte	0x6
 861 02b6 70       		.byte	0x70
 862 02b7 9B020000 		.4byte	0x29b
 863 02bb 03       		.uleb128 0x3
 864 02bc 95020000 		.4byte	.LASF54
 865 02c0 08       		.byte	0x8
 866 02c1 E5       		.byte	0xe5
 867 02c2 C6020000 		.4byte	0x2c6
 868 02c6 0A       		.uleb128 0xa
 869 02c7 04       		.byte	0x4
 870 02c8 03       		.uleb128 0x3
 871 02c9 45040000 		.4byte	.LASF55
 872 02cd 08       		.byte	0x8
 873 02ce EB       		.byte	0xeb
 874 02cf D5000000 		.4byte	0xd5
 875 02d3 0B       		.uleb128 0xb
 876 02d4 8D070000 		.4byte	.LASF56
 877 02d8 64       		.byte	0x64
 878 02d9 08       		.byte	0x8
 879 02da 0C01     		.2byte	0x10c
 880 02dc 1F040000 		.4byte	0x41f
 881 02e0 0C       		.uleb128 0xc
 882 02e1 73313600 		.ascii	"s16\000"
 883 02e5 08       		.byte	0x8
 884 02e6 0E01     		.2byte	0x10e
 885 02e8 BB020000 		.4byte	0x2bb
 886 02ec 00       		.byte	0
 887 02ed 0C       		.uleb128 0xc
 888 02ee 73313700 		.ascii	"s17\000"
 889 02f2 08       		.byte	0x8
 890 02f3 0F01     		.2byte	0x10f
 891 02f5 BB020000 		.4byte	0x2bb
 892 02f9 04       		.byte	0x4
 893 02fa 0C       		.uleb128 0xc
 894 02fb 73313800 		.ascii	"s18\000"
 895 02ff 08       		.byte	0x8
 896 0300 1001     		.2byte	0x110
 897 0302 BB020000 		.4byte	0x2bb
ARM GAS  /tmp/cc6MXJPQ.s 			page 17


 898 0306 08       		.byte	0x8
 899 0307 0C       		.uleb128 0xc
 900 0308 73313900 		.ascii	"s19\000"
 901 030c 08       		.byte	0x8
 902 030d 1101     		.2byte	0x111
 903 030f BB020000 		.4byte	0x2bb
 904 0313 0C       		.byte	0xc
 905 0314 0C       		.uleb128 0xc
 906 0315 73323000 		.ascii	"s20\000"
 907 0319 08       		.byte	0x8
 908 031a 1201     		.2byte	0x112
 909 031c BB020000 		.4byte	0x2bb
 910 0320 10       		.byte	0x10
 911 0321 0C       		.uleb128 0xc
 912 0322 73323100 		.ascii	"s21\000"
 913 0326 08       		.byte	0x8
 914 0327 1301     		.2byte	0x113
 915 0329 BB020000 		.4byte	0x2bb
 916 032d 14       		.byte	0x14
 917 032e 0C       		.uleb128 0xc
 918 032f 73323200 		.ascii	"s22\000"
 919 0333 08       		.byte	0x8
 920 0334 1401     		.2byte	0x114
 921 0336 BB020000 		.4byte	0x2bb
 922 033a 18       		.byte	0x18
 923 033b 0C       		.uleb128 0xc
 924 033c 73323300 		.ascii	"s23\000"
 925 0340 08       		.byte	0x8
 926 0341 1501     		.2byte	0x115
 927 0343 BB020000 		.4byte	0x2bb
 928 0347 1C       		.byte	0x1c
 929 0348 0C       		.uleb128 0xc
 930 0349 73323400 		.ascii	"s24\000"
 931 034d 08       		.byte	0x8
 932 034e 1601     		.2byte	0x116
 933 0350 BB020000 		.4byte	0x2bb
 934 0354 20       		.byte	0x20
 935 0355 0C       		.uleb128 0xc
 936 0356 73323500 		.ascii	"s25\000"
 937 035a 08       		.byte	0x8
 938 035b 1701     		.2byte	0x117
 939 035d BB020000 		.4byte	0x2bb
 940 0361 24       		.byte	0x24
 941 0362 0C       		.uleb128 0xc
 942 0363 73323600 		.ascii	"s26\000"
 943 0367 08       		.byte	0x8
 944 0368 1801     		.2byte	0x118
 945 036a BB020000 		.4byte	0x2bb
 946 036e 28       		.byte	0x28
 947 036f 0C       		.uleb128 0xc
 948 0370 73323700 		.ascii	"s27\000"
 949 0374 08       		.byte	0x8
 950 0375 1901     		.2byte	0x119
 951 0377 BB020000 		.4byte	0x2bb
 952 037b 2C       		.byte	0x2c
 953 037c 0C       		.uleb128 0xc
 954 037d 73323800 		.ascii	"s28\000"
ARM GAS  /tmp/cc6MXJPQ.s 			page 18


 955 0381 08       		.byte	0x8
 956 0382 1A01     		.2byte	0x11a
 957 0384 BB020000 		.4byte	0x2bb
 958 0388 30       		.byte	0x30
 959 0389 0C       		.uleb128 0xc
 960 038a 73323900 		.ascii	"s29\000"
 961 038e 08       		.byte	0x8
 962 038f 1B01     		.2byte	0x11b
 963 0391 BB020000 		.4byte	0x2bb
 964 0395 34       		.byte	0x34
 965 0396 0C       		.uleb128 0xc
 966 0397 73333000 		.ascii	"s30\000"
 967 039b 08       		.byte	0x8
 968 039c 1C01     		.2byte	0x11c
 969 039e BB020000 		.4byte	0x2bb
 970 03a2 38       		.byte	0x38
 971 03a3 0C       		.uleb128 0xc
 972 03a4 73333100 		.ascii	"s31\000"
 973 03a8 08       		.byte	0x8
 974 03a9 1D01     		.2byte	0x11d
 975 03ab BB020000 		.4byte	0x2bb
 976 03af 3C       		.byte	0x3c
 977 03b0 0C       		.uleb128 0xc
 978 03b1 723400   		.ascii	"r4\000"
 979 03b4 08       		.byte	0x8
 980 03b5 1F01     		.2byte	0x11f
 981 03b7 BB020000 		.4byte	0x2bb
 982 03bb 40       		.byte	0x40
 983 03bc 0C       		.uleb128 0xc
 984 03bd 723500   		.ascii	"r5\000"
 985 03c0 08       		.byte	0x8
 986 03c1 2001     		.2byte	0x120
 987 03c3 BB020000 		.4byte	0x2bb
 988 03c7 44       		.byte	0x44
 989 03c8 0C       		.uleb128 0xc
 990 03c9 723600   		.ascii	"r6\000"
 991 03cc 08       		.byte	0x8
 992 03cd 2101     		.2byte	0x121
 993 03cf BB020000 		.4byte	0x2bb
 994 03d3 48       		.byte	0x48
 995 03d4 0C       		.uleb128 0xc
 996 03d5 723700   		.ascii	"r7\000"
 997 03d8 08       		.byte	0x8
 998 03d9 2201     		.2byte	0x122
 999 03db BB020000 		.4byte	0x2bb
 1000 03df 4C       		.byte	0x4c
 1001 03e0 0C       		.uleb128 0xc
 1002 03e1 723800   		.ascii	"r8\000"
 1003 03e4 08       		.byte	0x8
 1004 03e5 2301     		.2byte	0x123
 1005 03e7 BB020000 		.4byte	0x2bb
 1006 03eb 50       		.byte	0x50
 1007 03ec 0C       		.uleb128 0xc
 1008 03ed 723900   		.ascii	"r9\000"
 1009 03f0 08       		.byte	0x8
 1010 03f1 2401     		.2byte	0x124
 1011 03f3 BB020000 		.4byte	0x2bb
ARM GAS  /tmp/cc6MXJPQ.s 			page 19


 1012 03f7 54       		.byte	0x54
 1013 03f8 0C       		.uleb128 0xc
 1014 03f9 72313000 		.ascii	"r10\000"
 1015 03fd 08       		.byte	0x8
 1016 03fe 2501     		.2byte	0x125
 1017 0400 BB020000 		.4byte	0x2bb
 1018 0404 58       		.byte	0x58
 1019 0405 0C       		.uleb128 0xc
 1020 0406 72313100 		.ascii	"r11\000"
 1021 040a 08       		.byte	0x8
 1022 040b 2601     		.2byte	0x126
 1023 040d BB020000 		.4byte	0x2bb
 1024 0411 5C       		.byte	0x5c
 1025 0412 0C       		.uleb128 0xc
 1026 0413 6C7200   		.ascii	"lr\000"
 1027 0416 08       		.byte	0x8
 1028 0417 2701     		.2byte	0x127
 1029 0419 BB020000 		.4byte	0x2bb
 1030 041d 60       		.byte	0x60
 1031 041e 00       		.byte	0
 1032 041f 0B       		.uleb128 0xb
 1033 0420 80070000 		.4byte	.LASF57
 1034 0424 04       		.byte	0x4
 1035 0425 08       		.byte	0x8
 1036 0426 3101     		.2byte	0x131
 1037 0428 3A040000 		.4byte	0x43a
 1038 042c 0C       		.uleb128 0xc
 1039 042d 72313300 		.ascii	"r13\000"
 1040 0431 08       		.byte	0x8
 1041 0432 3201     		.2byte	0x132
 1042 0434 3A040000 		.4byte	0x43a
 1043 0438 00       		.byte	0
 1044 0439 00       		.byte	0
 1045 043a 09       		.uleb128 0x9
 1046 043b 04       		.byte	0x4
 1047 043c D3020000 		.4byte	0x2d3
 1048 0440 04       		.uleb128 0x4
 1049 0441 04       		.byte	0x4
 1050 0442 07       		.byte	0x7
 1051 0443 8E040000 		.4byte	.LASF58
 1052 0447 0D       		.uleb128 0xd
 1053 0448 4A010000 		.4byte	0x14a
 1054 044c 05       		.uleb128 0x5
 1055 044d A1040000 		.4byte	.LASF59
 1056 0451 10       		.byte	0x10
 1057 0452 09       		.byte	0x9
 1058 0453 2C       		.byte	0x2c
 1059 0454 7D040000 		.4byte	0x47d
 1060 0458 06       		.uleb128 0x6
 1061 0459 5B010000 		.4byte	.LASF60
 1062 045d 09       		.byte	0x9
 1063 045e 2D       		.byte	0x2d
 1064 045f 90020000 		.4byte	0x290
 1065 0463 00       		.byte	0
 1066 0464 06       		.uleb128 0x6
 1067 0465 AF080000 		.4byte	.LASF61
 1068 0469 09       		.byte	0x9
ARM GAS  /tmp/cc6MXJPQ.s 			page 20


 1069 046a 2F       		.byte	0x2f
 1070 046b 8A020000 		.4byte	0x28a
 1071 046f 08       		.byte	0x8
 1072 0470 06       		.uleb128 0x6
 1073 0471 0B070000 		.4byte	.LASF62
 1074 0475 09       		.byte	0x9
 1075 0476 31       		.byte	0x31
 1076 0477 7D040000 		.4byte	0x47d
 1077 047b 0C       		.byte	0xc
 1078 047c 00       		.byte	0
 1079 047d 09       		.uleb128 0x9
 1080 047e 04       		.byte	0x4
 1081 047f 4C040000 		.4byte	0x44c
 1082 0483 03       		.uleb128 0x3
 1083 0484 A1040000 		.4byte	.LASF59
 1084 0488 09       		.byte	0x9
 1085 0489 33       		.byte	0x33
 1086 048a 4C040000 		.4byte	0x44c
 1087 048e 03       		.uleb128 0x3
 1088 048f 66080000 		.4byte	.LASF63
 1089 0493 0A       		.byte	0xa
 1090 0494 2C       		.byte	0x2c
 1091 0495 99040000 		.4byte	0x499
 1092 0499 05       		.uleb128 0x5
 1093 049a 66080000 		.4byte	.LASF63
 1094 049e 10       		.byte	0x10
 1095 049f 0A       		.byte	0xa
 1096 04a0 31       		.byte	0x31
 1097 04a1 D6040000 		.4byte	0x4d6
 1098 04a5 06       		.uleb128 0x6
 1099 04a6 AA030000 		.4byte	.LASF64
 1100 04aa 0A       		.byte	0xa
 1101 04ab 32       		.byte	0x32
 1102 04ac D6040000 		.4byte	0x4d6
 1103 04b0 00       		.byte	0
 1104 04b1 06       		.uleb128 0x6
 1105 04b2 63000000 		.4byte	.LASF65
 1106 04b6 0A       		.byte	0xa
 1107 04b7 35       		.byte	0x35
 1108 04b8 8A020000 		.4byte	0x28a
 1109 04bc 04       		.byte	0x4
 1110 04bd 06       		.uleb128 0x6
 1111 04be C3040000 		.4byte	.LASF66
 1112 04c2 0A       		.byte	0xa
 1113 04c3 37       		.byte	0x37
 1114 04c4 34010000 		.4byte	0x134
 1115 04c8 08       		.byte	0x8
 1116 04c9 06       		.uleb128 0x6
 1117 04ca F2050000 		.4byte	.LASF67
 1118 04ce 0A       		.byte	0xa
 1119 04cf 3A       		.byte	0x3a
 1120 04d0 3F010000 		.4byte	0x13f
 1121 04d4 0C       		.byte	0xc
 1122 04d5 00       		.byte	0
 1123 04d6 09       		.uleb128 0x9
 1124 04d7 04       		.byte	0x4
 1125 04d8 8E040000 		.4byte	0x48e
ARM GAS  /tmp/cc6MXJPQ.s 			page 21


 1126 04dc 05       		.uleb128 0x5
 1127 04dd B8020000 		.4byte	.LASF68
 1128 04e1 04       		.byte	0x4
 1129 04e2 0A       		.byte	0xa
 1130 04e3 41       		.byte	0x41
 1131 04e4 F5040000 		.4byte	0x4f5
 1132 04e8 06       		.uleb128 0x6
 1133 04e9 82080000 		.4byte	.LASF69
 1134 04ed 0A       		.byte	0xa
 1135 04ee 42       		.byte	0x42
 1136 04ef D6040000 		.4byte	0x4d6
 1137 04f3 00       		.byte	0
 1138 04f4 00       		.byte	0
 1139 04f5 03       		.uleb128 0x3
 1140 04f6 B8020000 		.4byte	.LASF68
 1141 04fa 0A       		.byte	0xa
 1142 04fb 45       		.byte	0x45
 1143 04fc DC040000 		.4byte	0x4dc
 1144 0500 0E       		.uleb128 0xe
 1145 0501 04       		.byte	0x4
 1146 0502 07       		.byte	0x7
 1147 0503 96       		.byte	0x96
 1148 0504 35050000 		.4byte	0x535
 1149 0508 0F       		.uleb128 0xf
 1150 0509 33000000 		.4byte	.LASF70
 1151 050d 07       		.byte	0x7
 1152 050e 9D       		.byte	0x9d
 1153 050f 29010000 		.4byte	0x129
 1154 0513 0F       		.uleb128 0xf
 1155 0514 9F000000 		.4byte	.LASF71
 1156 0518 07       		.byte	0x7
 1157 0519 A4       		.byte	0xa4
 1158 051a 29010000 		.4byte	0x129
 1159 051e 0F       		.uleb128 0xf
 1160 051f 74080000 		.4byte	.LASF72
 1161 0523 07       		.byte	0x7
 1162 0524 AB       		.byte	0xab
 1163 0525 C6020000 		.4byte	0x2c6
 1164 0529 0F       		.uleb128 0xf
 1165 052a 29060000 		.4byte	.LASF73
 1166 052e 07       		.byte	0x7
 1167 052f B2       		.byte	0xb2
 1168 0530 34010000 		.4byte	0x134
 1169 0534 00       		.byte	0
 1170 0535 09       		.uleb128 0x9
 1171 0536 04       		.byte	0x4
 1172 0537 3B050000 		.4byte	0x53b
 1173 053b 10       		.uleb128 0x10
 1174 053c 40050000 		.4byte	0x540
 1175 0540 04       		.uleb128 0x4
 1176 0541 01       		.byte	0x1
 1177 0542 08       		.byte	0x8
 1178 0543 D4060000 		.4byte	.LASF74
 1179 0547 09       		.uleb128 0x9
 1180 0548 04       		.byte	0x4
 1181 0549 C8020000 		.4byte	0x2c8
 1182 054d 09       		.uleb128 0x9
ARM GAS  /tmp/cc6MXJPQ.s 			page 22


 1183 054e 04       		.byte	0x4
 1184 054f 83040000 		.4byte	0x483
 1185 0553 09       		.uleb128 0x9
 1186 0554 04       		.byte	0x4
 1187 0555 59050000 		.4byte	0x559
 1188 0559 11       		.uleb128 0x11
 1189 055a 29010000 		.4byte	0x129
 1190 055e 68050000 		.4byte	0x568
 1191 0562 12       		.uleb128 0x12
 1192 0563 C6020000 		.4byte	0x2c6
 1193 0567 00       		.byte	0
 1194 0568 03       		.uleb128 0x3
 1195 0569 3B020000 		.4byte	.LASF75
 1196 056d 0B       		.byte	0xb
 1197 056e 37       		.byte	0x37
 1198 056f 73050000 		.4byte	0x573
 1199 0573 05       		.uleb128 0x5
 1200 0574 3B020000 		.4byte	.LASF75
 1201 0578 24       		.byte	0x24
 1202 0579 0B       		.byte	0xb
 1203 057a 45       		.byte	0x45
 1204 057b E0050000 		.4byte	0x5e0
 1205 057f 06       		.uleb128 0x6
 1206 0580 E5000000 		.4byte	.LASF76
 1207 0584 0B       		.byte	0xb
 1208 0585 46       		.byte	0x46
 1209 0586 90020000 		.4byte	0x290
 1210 058a 00       		.byte	0
 1211 058b 06       		.uleb128 0x6
 1212 058c 97040000 		.4byte	.LASF77
 1213 0590 0B       		.byte	0xb
 1214 0591 47       		.byte	0x47
 1215 0592 28000000 		.4byte	0x28
 1216 0596 08       		.byte	0x8
 1217 0597 06       		.uleb128 0x6
 1218 0598 C1010000 		.4byte	.LASF78
 1219 059c 0B       		.byte	0xb
 1220 059d 48       		.byte	0x48
 1221 059e 02060000 		.4byte	0x602
 1222 05a2 0C       		.byte	0xc
 1223 05a3 06       		.uleb128 0x6
 1224 05a4 C5070000 		.4byte	.LASF79
 1225 05a8 0B       		.byte	0xb
 1226 05a9 49       		.byte	0x49
 1227 05aa 02060000 		.4byte	0x602
 1228 05ae 10       		.byte	0x10
 1229 05af 06       		.uleb128 0x6
 1230 05b0 71030000 		.4byte	.LASF80
 1231 05b4 0B       		.byte	0xb
 1232 05b5 4B       		.byte	0x4b
 1233 05b6 02060000 		.4byte	0x602
 1234 05ba 14       		.byte	0x14
 1235 05bb 06       		.uleb128 0x6
 1236 05bc AB050000 		.4byte	.LASF81
 1237 05c0 0B       		.byte	0xb
 1238 05c1 4C       		.byte	0x4c
 1239 05c2 02060000 		.4byte	0x602
ARM GAS  /tmp/cc6MXJPQ.s 			page 23


 1240 05c6 18       		.byte	0x18
 1241 05c7 06       		.uleb128 0x6
 1242 05c8 F9070000 		.4byte	.LASF82
 1243 05cc 0B       		.byte	0xb
 1244 05cd 4D       		.byte	0x4d
 1245 05ce E0050000 		.4byte	0x5e0
 1246 05d2 1C       		.byte	0x1c
 1247 05d3 06       		.uleb128 0x6
 1248 05d4 90080000 		.4byte	.LASF83
 1249 05d8 0B       		.byte	0xb
 1250 05d9 4E       		.byte	0x4e
 1251 05da C6020000 		.4byte	0x2c6
 1252 05de 20       		.byte	0x20
 1253 05df 00       		.byte	0
 1254 05e0 03       		.uleb128 0x3
 1255 05e1 2A040000 		.4byte	.LASF84
 1256 05e5 0B       		.byte	0xb
 1257 05e6 3A       		.byte	0x3a
 1258 05e7 EB050000 		.4byte	0x5eb
 1259 05eb 09       		.uleb128 0x9
 1260 05ec 04       		.byte	0x4
 1261 05ed F1050000 		.4byte	0x5f1
 1262 05f1 13       		.uleb128 0x13
 1263 05f2 FC050000 		.4byte	0x5fc
 1264 05f6 12       		.uleb128 0x12
 1265 05f7 FC050000 		.4byte	0x5fc
 1266 05fb 00       		.byte	0
 1267 05fc 09       		.uleb128 0x9
 1268 05fd 04       		.byte	0x4
 1269 05fe 68050000 		.4byte	0x568
 1270 0602 09       		.uleb128 0x9
 1271 0603 04       		.byte	0x4
 1272 0604 A9000000 		.4byte	0xa9
 1273 0608 03       		.uleb128 0x3
 1274 0609 3B080000 		.4byte	.LASF85
 1275 060d 0B       		.byte	0xb
 1276 060e 82       		.byte	0x82
 1277 060f 68050000 		.4byte	0x568
 1278 0613 03       		.uleb128 0x3
 1279 0614 53060000 		.4byte	.LASF86
 1280 0618 0B       		.byte	0xb
 1281 0619 F5       		.byte	0xf5
 1282 061a 68050000 		.4byte	0x568
 1283 061e 11       		.uleb128 0x11
 1284 061f 28000000 		.4byte	0x28
 1285 0623 37060000 		.4byte	0x637
 1286 0627 12       		.uleb128 0x12
 1287 0628 C6020000 		.4byte	0x2c6
 1288 062c 12       		.uleb128 0x12
 1289 062d 37060000 		.4byte	0x637
 1290 0631 12       		.uleb128 0x12
 1291 0632 28000000 		.4byte	0x28
 1292 0636 00       		.byte	0
 1293 0637 09       		.uleb128 0x9
 1294 0638 04       		.byte	0x4
 1295 0639 3D060000 		.4byte	0x63d
 1296 063d 10       		.uleb128 0x10
ARM GAS  /tmp/cc6MXJPQ.s 			page 24


 1297 063e A9000000 		.4byte	0xa9
 1298 0642 09       		.uleb128 0x9
 1299 0643 04       		.byte	0x4
 1300 0644 1E060000 		.4byte	0x61e
 1301 0648 11       		.uleb128 0x11
 1302 0649 28000000 		.4byte	0x28
 1303 064d 61060000 		.4byte	0x661
 1304 0651 12       		.uleb128 0x12
 1305 0652 C6020000 		.4byte	0x2c6
 1306 0656 12       		.uleb128 0x12
 1307 0657 02060000 		.4byte	0x602
 1308 065b 12       		.uleb128 0x12
 1309 065c 28000000 		.4byte	0x28
 1310 0660 00       		.byte	0
 1311 0661 09       		.uleb128 0x9
 1312 0662 04       		.byte	0x4
 1313 0663 48060000 		.4byte	0x648
 1314 0667 11       		.uleb128 0x11
 1315 0668 29010000 		.4byte	0x129
 1316 066c 7B060000 		.4byte	0x67b
 1317 0670 12       		.uleb128 0x12
 1318 0671 C6020000 		.4byte	0x2c6
 1319 0675 12       		.uleb128 0x12
 1320 0676 A9000000 		.4byte	0xa9
 1321 067a 00       		.byte	0
 1322 067b 09       		.uleb128 0x9
 1323 067c 04       		.byte	0x4
 1324 067d 67060000 		.4byte	0x667
 1325 0681 0D       		.uleb128 0xd
 1326 0682 BF000000 		.4byte	0xbf
 1327 0686 11       		.uleb128 0x11
 1328 0687 29010000 		.4byte	0x129
 1329 068b 9F060000 		.4byte	0x69f
 1330 068f 12       		.uleb128 0x12
 1331 0690 C6020000 		.4byte	0x2c6
 1332 0694 12       		.uleb128 0x12
 1333 0695 A9000000 		.4byte	0xa9
 1334 0699 12       		.uleb128 0x12
 1335 069a 4A010000 		.4byte	0x14a
 1336 069e 00       		.byte	0
 1337 069f 09       		.uleb128 0x9
 1338 06a0 04       		.byte	0x4
 1339 06a1 86060000 		.4byte	0x686
 1340 06a5 11       		.uleb128 0x11
 1341 06a6 29010000 		.4byte	0x129
 1342 06aa B9060000 		.4byte	0x6b9
 1343 06ae 12       		.uleb128 0x12
 1344 06af C6020000 		.4byte	0x2c6
 1345 06b3 12       		.uleb128 0x12
 1346 06b4 4A010000 		.4byte	0x14a
 1347 06b8 00       		.byte	0
 1348 06b9 09       		.uleb128 0x9
 1349 06ba 04       		.byte	0x4
 1350 06bb A5060000 		.4byte	0x6a5
 1351 06bf 11       		.uleb128 0x11
 1352 06c0 28000000 		.4byte	0x28
 1353 06c4 DD060000 		.4byte	0x6dd
ARM GAS  /tmp/cc6MXJPQ.s 			page 25


 1354 06c8 12       		.uleb128 0x12
 1355 06c9 C6020000 		.4byte	0x2c6
 1356 06cd 12       		.uleb128 0x12
 1357 06ce 37060000 		.4byte	0x637
 1358 06d2 12       		.uleb128 0x12
 1359 06d3 28000000 		.4byte	0x28
 1360 06d7 12       		.uleb128 0x12
 1361 06d8 4A010000 		.4byte	0x14a
 1362 06dc 00       		.byte	0
 1363 06dd 09       		.uleb128 0x9
 1364 06de 04       		.byte	0x4
 1365 06df BF060000 		.4byte	0x6bf
 1366 06e3 11       		.uleb128 0x11
 1367 06e4 28000000 		.4byte	0x28
 1368 06e8 01070000 		.4byte	0x701
 1369 06ec 12       		.uleb128 0x12
 1370 06ed C6020000 		.4byte	0x2c6
 1371 06f1 12       		.uleb128 0x12
 1372 06f2 02060000 		.4byte	0x602
 1373 06f6 12       		.uleb128 0x12
 1374 06f7 28000000 		.4byte	0x28
 1375 06fb 12       		.uleb128 0x12
 1376 06fc 4A010000 		.4byte	0x14a
 1377 0700 00       		.byte	0
 1378 0701 09       		.uleb128 0x9
 1379 0702 04       		.byte	0x4
 1380 0703 E3060000 		.4byte	0x6e3
 1381 0707 14       		.uleb128 0x14
 1382 0708 A9000000 		.4byte	0xa9
 1383 070c 17070000 		.4byte	0x717
 1384 0710 15       		.uleb128 0x15
 1385 0711 40040000 		.4byte	0x440
 1386 0715 FF       		.byte	0xff
 1387 0716 00       		.byte	0
 1388 0717 03       		.uleb128 0x3
 1389 0718 29080000 		.4byte	.LASF87
 1390 071c 0C       		.byte	0xc
 1391 071d E9       		.byte	0xe9
 1392 071e 22070000 		.4byte	0x722
 1393 0722 0B       		.uleb128 0xb
 1394 0723 29080000 		.4byte	.LASF87
 1395 0727 84       		.byte	0x84
 1396 0728 0D       		.byte	0xd
 1397 0729 1B01     		.2byte	0x11b
 1398 072b 00080000 		.4byte	0x800
 1399 072f 16       		.uleb128 0x16
 1400 0730 8F010000 		.4byte	.LASF88
 1401 0734 0D       		.byte	0xd
 1402 0735 1F01     		.2byte	0x11f
 1403 0737 32080000 		.4byte	0x832
 1404 073b 00       		.byte	0
 1405 073c 16       		.uleb128 0x16
 1406 073d EE060000 		.4byte	.LASF89
 1407 0741 0D       		.byte	0xd
 1408 0742 2301     		.2byte	0x123
 1409 0744 BE0B0000 		.4byte	0xbbe
 1410 0748 04       		.byte	0x4
ARM GAS  /tmp/cc6MXJPQ.s 			page 26


 1411 0749 16       		.uleb128 0x16
 1412 074a A0060000 		.4byte	.LASF90
 1413 074e 0D       		.byte	0xd
 1414 074f 2701     		.2byte	0x127
 1415 0751 B4000000 		.4byte	0xb4
 1416 0755 08       		.byte	0x8
 1417 0756 16       		.uleb128 0x16
 1418 0757 20040000 		.4byte	.LASF91
 1419 075b 0D       		.byte	0xd
 1420 075c 2B01     		.2byte	0x12b
 1421 075e B4000000 		.4byte	0xb4
 1422 0762 0A       		.byte	0xa
 1423 0763 0C       		.uleb128 0xc
 1424 0764 65706300 		.ascii	"epc\000"
 1425 0768 0D       		.byte	0xd
 1426 0769 2F01     		.2byte	0x12f
 1427 076b C90B0000 		.4byte	0xbc9
 1428 076f 0C       		.byte	0xc
 1429 0770 16       		.uleb128 0x16
 1430 0771 5C080000 		.4byte	.LASF92
 1431 0775 0D       		.byte	0xd
 1432 0776 3601     		.2byte	0x136
 1433 0778 E40B0000 		.4byte	0xbe4
 1434 077c 2C       		.byte	0x2c
 1435 077d 16       		.uleb128 0x16
 1436 077e 95010000 		.4byte	.LASF93
 1437 0782 0D       		.byte	0xd
 1438 0783 3D01     		.2byte	0x13d
 1439 0785 E40B0000 		.4byte	0xbe4
 1440 0789 48       		.byte	0x48
 1441 078a 16       		.uleb128 0x16
 1442 078b 8D060000 		.4byte	.LASF94
 1443 078f 0D       		.byte	0xd
 1444 0790 4101     		.2byte	0x141
 1445 0792 71080000 		.4byte	0x871
 1446 0796 64       		.byte	0x64
 1447 0797 16       		.uleb128 0x16
 1448 0798 63030000 		.4byte	.LASF95
 1449 079c 0D       		.byte	0xd
 1450 079d 4501     		.2byte	0x145
 1451 079f 02060000 		.4byte	0x602
 1452 07a3 68       		.byte	0x68
 1453 07a4 16       		.uleb128 0x16
 1454 07a5 BD050000 		.4byte	.LASF96
 1455 07a9 0D       		.byte	0xd
 1456 07aa 4901     		.2byte	0x149
 1457 07ac 28000000 		.4byte	0x28
 1458 07b0 6C       		.byte	0x6c
 1459 07b1 16       		.uleb128 0x16
 1460 07b2 51070000 		.4byte	.LASF97
 1461 07b6 0D       		.byte	0xd
 1462 07b7 4D01     		.2byte	0x14d
 1463 07b9 E7080000 		.4byte	0x8e7
 1464 07bd 70       		.byte	0x70
 1465 07be 16       		.uleb128 0x16
 1466 07bf FF040000 		.4byte	.LASF98
 1467 07c3 0D       		.byte	0xd
ARM GAS  /tmp/cc6MXJPQ.s 			page 27


 1468 07c4 5101     		.2byte	0x151
 1469 07c6 F40B0000 		.4byte	0xbf4
 1470 07ca 74       		.byte	0x74
 1471 07cb 16       		.uleb128 0x16
 1472 07cc E9070000 		.4byte	.LASF99
 1473 07d0 0D       		.byte	0xd
 1474 07d1 5501     		.2byte	0x155
 1475 07d3 B4000000 		.4byte	0xb4
 1476 07d7 7C       		.byte	0x7c
 1477 07d8 16       		.uleb128 0x16
 1478 07d9 A7040000 		.4byte	.LASF100
 1479 07dd 0D       		.byte	0xd
 1480 07de 5901     		.2byte	0x159
 1481 07e0 A9000000 		.4byte	0xa9
 1482 07e4 7E       		.byte	0x7e
 1483 07e5 16       		.uleb128 0x16
 1484 07e6 82030000 		.4byte	.LASF101
 1485 07ea 0D       		.byte	0xd
 1486 07eb 5D01     		.2byte	0x15d
 1487 07ed A9000000 		.4byte	0xa9
 1488 07f1 7F       		.byte	0x7f
 1489 07f2 16       		.uleb128 0x16
 1490 07f3 69040000 		.4byte	.LASF102
 1491 07f7 0D       		.byte	0xd
 1492 07f8 6501     		.2byte	0x165
 1493 07fa CA000000 		.4byte	0xca
 1494 07fe 80       		.byte	0x80
 1495 07ff 00       		.byte	0
 1496 0800 03       		.uleb128 0x3
 1497 0801 19000000 		.4byte	.LASF103
 1498 0805 0C       		.byte	0xc
 1499 0806 EE       		.byte	0xee
 1500 0807 A9000000 		.4byte	0xa9
 1501 080b 17       		.uleb128 0x17
 1502 080c 01       		.byte	0x1
 1503 080d 0C       		.byte	0xc
 1504 080e F3       		.byte	0xf3
 1505 080f 32080000 		.4byte	0x832
 1506 0813 18       		.uleb128 0x18
 1507 0814 B5000000 		.4byte	.LASF104
 1508 0818 00       		.sleb128 0
 1509 0819 18       		.uleb128 0x18
 1510 081a 2C030000 		.4byte	.LASF105
 1511 081e 01       		.sleb128 1
 1512 081f 18       		.uleb128 0x18
 1513 0820 B3050000 		.4byte	.LASF106
 1514 0824 02       		.sleb128 2
 1515 0825 18       		.uleb128 0x18
 1516 0826 3F060000 		.4byte	.LASF107
 1517 082a 03       		.sleb128 3
 1518 082b 18       		.uleb128 0x18
 1519 082c E8020000 		.4byte	.LASF108
 1520 0830 04       		.sleb128 4
 1521 0831 00       		.byte	0
 1522 0832 03       		.uleb128 0x3
 1523 0833 B2030000 		.4byte	.LASF109
 1524 0837 0C       		.byte	0xc
ARM GAS  /tmp/cc6MXJPQ.s 			page 28


 1525 0838 F9       		.byte	0xf9
 1526 0839 0B080000 		.4byte	0x80b
 1527 083d 19       		.uleb128 0x19
 1528 083e 01       		.byte	0x1
 1529 083f 0C       		.byte	0xc
 1530 0840 0701     		.2byte	0x107
 1531 0842 71080000 		.4byte	0x871
 1532 0846 18       		.uleb128 0x18
 1533 0847 63070000 		.4byte	.LASF110
 1534 084b 00       		.sleb128 0
 1535 084c 18       		.uleb128 0x18
 1536 084d 43000000 		.4byte	.LASF111
 1537 0851 01       		.sleb128 1
 1538 0852 18       		.uleb128 0x18
 1539 0853 63010000 		.4byte	.LASF112
 1540 0857 02       		.sleb128 2
 1541 0858 18       		.uleb128 0x18
 1542 0859 15080000 		.4byte	.LASF113
 1543 085d 03       		.sleb128 3
 1544 085e 18       		.uleb128 0x18
 1545 085f 00070000 		.4byte	.LASF114
 1546 0863 04       		.sleb128 4
 1547 0864 18       		.uleb128 0x18
 1548 0865 70040000 		.4byte	.LASF115
 1549 0869 05       		.sleb128 5
 1550 086a 18       		.uleb128 0x18
 1551 086b 81010000 		.4byte	.LASF116
 1552 086f 06       		.sleb128 6
 1553 0870 00       		.byte	0
 1554 0871 1A       		.uleb128 0x1a
 1555 0872 55020000 		.4byte	.LASF117
 1556 0876 0C       		.byte	0xc
 1557 0877 0F01     		.2byte	0x10f
 1558 0879 3D080000 		.4byte	0x83d
 1559 087d 19       		.uleb128 0x19
 1560 087e 01       		.byte	0x1
 1561 087f 0C       		.byte	0xc
 1562 0880 1401     		.2byte	0x114
 1563 0882 AB080000 		.4byte	0x8ab
 1564 0886 18       		.uleb128 0x18
 1565 0887 22050000 		.4byte	.LASF118
 1566 088b 00       		.sleb128 0
 1567 088c 18       		.uleb128 0x18
 1568 088d 8A050000 		.4byte	.LASF119
 1569 0891 01       		.sleb128 1
 1570 0892 18       		.uleb128 0x18
 1571 0893 3C070000 		.4byte	.LASF120
 1572 0897 02       		.sleb128 2
 1573 0898 18       		.uleb128 0x18
 1574 0899 7B060000 		.4byte	.LASF121
 1575 089d 03       		.sleb128 3
 1576 089e 18       		.uleb128 0x18
 1577 089f 40030000 		.4byte	.LASF122
 1578 08a3 04       		.sleb128 4
 1579 08a4 18       		.uleb128 0x18
 1580 08a5 76020000 		.4byte	.LASF123
 1581 08a9 05       		.sleb128 5
ARM GAS  /tmp/cc6MXJPQ.s 			page 29


 1582 08aa 00       		.byte	0
 1583 08ab 1A       		.uleb128 0x1a
 1584 08ac 58000000 		.4byte	.LASF124
 1585 08b0 0C       		.byte	0xc
 1586 08b1 1B01     		.2byte	0x11b
 1587 08b3 7D080000 		.4byte	0x87d
 1588 08b7 1B       		.uleb128 0x1b
 1589 08b8 08       		.byte	0x8
 1590 08b9 0C       		.byte	0xc
 1591 08ba 2001     		.2byte	0x120
 1592 08bc DB080000 		.4byte	0x8db
 1593 08c0 16       		.uleb128 0x16
 1594 08c1 09030000 		.4byte	.LASF125
 1595 08c5 0C       		.byte	0xc
 1596 08c6 2401     		.2byte	0x124
 1597 08c8 28000000 		.4byte	0x28
 1598 08cc 00       		.byte	0
 1599 08cd 16       		.uleb128 0x16
 1600 08ce 84040000 		.4byte	.LASF126
 1601 08d2 0C       		.byte	0xc
 1602 08d3 2801     		.2byte	0x128
 1603 08d5 37060000 		.4byte	0x637
 1604 08d9 04       		.byte	0x4
 1605 08da 00       		.byte	0
 1606 08db 1A       		.uleb128 0x1a
 1607 08dc D1000000 		.4byte	.LASF127
 1608 08e0 0C       		.byte	0xc
 1609 08e1 2901     		.2byte	0x129
 1610 08e3 B7080000 		.4byte	0x8b7
 1611 08e7 1A       		.uleb128 0x1a
 1612 08e8 2C010000 		.4byte	.LASF128
 1613 08ec 0C       		.byte	0xc
 1614 08ed 3101     		.2byte	0x131
 1615 08ef F3080000 		.4byte	0x8f3
 1616 08f3 09       		.uleb128 0x9
 1617 08f4 04       		.byte	0x4
 1618 08f5 F9080000 		.4byte	0x8f9
 1619 08f9 13       		.uleb128 0x13
 1620 08fa 04090000 		.4byte	0x904
 1621 08fe 12       		.uleb128 0x12
 1622 08ff 04090000 		.4byte	0x904
 1623 0903 00       		.byte	0
 1624 0904 09       		.uleb128 0x9
 1625 0905 04       		.byte	0x4
 1626 0906 17070000 		.4byte	0x717
 1627 090a 1A       		.uleb128 0x1a
 1628 090b D9060000 		.4byte	.LASF129
 1629 090f 0C       		.byte	0xc
 1630 0910 3A01     		.2byte	0x13a
 1631 0912 16090000 		.4byte	0x916
 1632 0916 09       		.uleb128 0x9
 1633 0917 04       		.byte	0x4
 1634 0918 1C090000 		.4byte	0x91c
 1635 091c 13       		.uleb128 0x13
 1636 091d 2C090000 		.4byte	0x92c
 1637 0921 12       		.uleb128 0x12
 1638 0922 04090000 		.4byte	0x904
ARM GAS  /tmp/cc6MXJPQ.s 			page 30


 1639 0926 12       		.uleb128 0x12
 1640 0927 00080000 		.4byte	0x800
 1641 092b 00       		.byte	0
 1642 092c 1A       		.uleb128 0x1a
 1643 092d A2080000 		.4byte	.LASF130
 1644 0931 0C       		.byte	0xc
 1645 0932 4301     		.2byte	0x143
 1646 0934 38090000 		.4byte	0x938
 1647 0938 09       		.uleb128 0x9
 1648 0939 04       		.byte	0x4
 1649 093a 3E090000 		.4byte	0x93e
 1650 093e 13       		.uleb128 0x13
 1651 093f 4E090000 		.4byte	0x94e
 1652 0943 12       		.uleb128 0x12
 1653 0944 04090000 		.4byte	0x904
 1654 0948 12       		.uleb128 0x12
 1655 0949 AB080000 		.4byte	0x8ab
 1656 094d 00       		.byte	0
 1657 094e 1A       		.uleb128 0x1a
 1658 094f BD030000 		.4byte	.LASF131
 1659 0953 0C       		.byte	0xc
 1660 0954 4F01     		.2byte	0x14f
 1661 0956 5A090000 		.4byte	0x95a
 1662 095a 09       		.uleb128 0x9
 1663 095b 04       		.byte	0x4
 1664 095c 60090000 		.4byte	0x960
 1665 0960 11       		.uleb128 0x11
 1666 0961 E0000000 		.4byte	0xe0
 1667 0965 6F090000 		.4byte	0x96f
 1668 0969 12       		.uleb128 0x12
 1669 096a 04090000 		.4byte	0x904
 1670 096e 00       		.byte	0
 1671 096f 1A       		.uleb128 0x1a
 1672 0970 EC040000 		.4byte	.LASF132
 1673 0974 0C       		.byte	0xc
 1674 0975 5401     		.2byte	0x154
 1675 0977 7B090000 		.4byte	0x97b
 1676 097b 09       		.uleb128 0x9
 1677 097c 04       		.byte	0x4
 1678 097d 81090000 		.4byte	0x981
 1679 0981 11       		.uleb128 0x11
 1680 0982 9F090000 		.4byte	0x99f
 1681 0986 9F090000 		.4byte	0x99f
 1682 098a 12       		.uleb128 0x12
 1683 098b 04090000 		.4byte	0x904
 1684 098f 12       		.uleb128 0x12
 1685 0990 A9000000 		.4byte	0xa9
 1686 0994 12       		.uleb128 0x12
 1687 0995 A9000000 		.4byte	0xa9
 1688 0999 12       		.uleb128 0x12
 1689 099a B4000000 		.4byte	0xb4
 1690 099e 00       		.byte	0
 1691 099f 09       		.uleb128 0x9
 1692 09a0 04       		.byte	0x4
 1693 09a1 A5090000 		.4byte	0x9a5
 1694 09a5 10       		.uleb128 0x10
 1695 09a6 DB080000 		.4byte	0x8db
ARM GAS  /tmp/cc6MXJPQ.s 			page 31


 1696 09aa 08       		.uleb128 0x8
 1697 09ab 04       		.byte	0x4
 1698 09ac 0D       		.byte	0xd
 1699 09ad 84       		.byte	0x84
 1700 09ae BF090000 		.4byte	0x9bf
 1701 09b2 06       		.uleb128 0x6
 1702 09b3 03030000 		.4byte	.LASF133
 1703 09b7 0D       		.byte	0xd
 1704 09b8 88       		.byte	0x88
 1705 09b9 37060000 		.4byte	0x637
 1706 09bd 00       		.byte	0
 1707 09be 00       		.byte	0
 1708 09bf 08       		.uleb128 0x8
 1709 09c0 04       		.byte	0x4
 1710 09c1 0D       		.byte	0xd
 1711 09c2 8A       		.byte	0x8a
 1712 09c3 D4090000 		.4byte	0x9d4
 1713 09c7 06       		.uleb128 0x6
 1714 09c8 39050000 		.4byte	.LASF134
 1715 09cc 0D       		.byte	0xd
 1716 09cd 8E       		.byte	0x8e
 1717 09ce D4090000 		.4byte	0x9d4
 1718 09d2 00       		.byte	0
 1719 09d3 00       		.byte	0
 1720 09d4 09       		.uleb128 0x9
 1721 09d5 04       		.byte	0x4
 1722 09d6 13060000 		.4byte	0x613
 1723 09da 0E       		.uleb128 0xe
 1724 09db 04       		.byte	0x4
 1725 09dc 0D       		.byte	0xd
 1726 09dd 83       		.byte	0x83
 1727 09de F9090000 		.4byte	0x9f9
 1728 09e2 0F       		.uleb128 0xf
 1729 09e3 D4020000 		.4byte	.LASF135
 1730 09e7 0D       		.byte	0xd
 1731 09e8 89       		.byte	0x89
 1732 09e9 AA090000 		.4byte	0x9aa
 1733 09ed 0F       		.uleb128 0xf
 1734 09ee 3A030000 		.4byte	.LASF136
 1735 09f2 0D       		.byte	0xd
 1736 09f3 8F       		.byte	0x8f
 1737 09f4 BF090000 		.4byte	0x9bf
 1738 09f8 00       		.byte	0
 1739 09f9 08       		.uleb128 0x8
 1740 09fa 10       		.byte	0x10
 1741 09fb 0D       		.byte	0xd
 1742 09fc 76       		.byte	0x76
 1743 09fd 320A0000 		.4byte	0xa32
 1744 0a01 06       		.uleb128 0x6
 1745 0a02 A9010000 		.4byte	.LASF137
 1746 0a06 0D       		.byte	0xd
 1747 0a07 7A       		.byte	0x7a
 1748 0a08 E0000000 		.4byte	0xe0
 1749 0a0c 00       		.byte	0
 1750 0a0d 06       		.uleb128 0x6
 1751 0a0e 45010000 		.4byte	.LASF138
 1752 0a12 0D       		.byte	0xd
ARM GAS  /tmp/cc6MXJPQ.s 			page 32


 1753 0a13 7E       		.byte	0x7e
 1754 0a14 28000000 		.4byte	0x28
 1755 0a18 04       		.byte	0x4
 1756 0a19 06       		.uleb128 0x6
 1757 0a1a A6070000 		.4byte	.LASF139
 1758 0a1e 0D       		.byte	0xd
 1759 0a1f 82       		.byte	0x82
 1760 0a20 28000000 		.4byte	0x28
 1761 0a24 08       		.byte	0x8
 1762 0a25 06       		.uleb128 0x6
 1763 0a26 E9060000 		.4byte	.LASF140
 1764 0a2a 0D       		.byte	0xd
 1765 0a2b 91       		.byte	0x91
 1766 0a2c DA090000 		.4byte	0x9da
 1767 0a30 0C       		.byte	0xc
 1768 0a31 00       		.byte	0
 1769 0a32 03       		.uleb128 0x3
 1770 0a33 02080000 		.4byte	.LASF141
 1771 0a37 0D       		.byte	0xd
 1772 0a38 92       		.byte	0x92
 1773 0a39 F9090000 		.4byte	0x9f9
 1774 0a3d 08       		.uleb128 0x8
 1775 0a3e 04       		.byte	0x4
 1776 0a3f 0D       		.byte	0xd
 1777 0a40 A5       		.byte	0xa5
 1778 0a41 520A0000 		.4byte	0xa52
 1779 0a45 06       		.uleb128 0x6
 1780 0a46 7B000000 		.4byte	.LASF142
 1781 0a4a 0D       		.byte	0xd
 1782 0a4b A9       		.byte	0xa9
 1783 0a4c 02060000 		.4byte	0x602
 1784 0a50 00       		.byte	0
 1785 0a51 00       		.byte	0
 1786 0a52 08       		.uleb128 0x8
 1787 0a53 04       		.byte	0x4
 1788 0a54 0D       		.byte	0xd
 1789 0a55 AB       		.byte	0xab
 1790 0a56 670A0000 		.4byte	0xa67
 1791 0a5a 06       		.uleb128 0x6
 1792 0a5b B2010000 		.4byte	.LASF143
 1793 0a5f 0D       		.byte	0xd
 1794 0a60 AF       		.byte	0xaf
 1795 0a61 670A0000 		.4byte	0xa67
 1796 0a65 00       		.byte	0
 1797 0a66 00       		.byte	0
 1798 0a67 09       		.uleb128 0x9
 1799 0a68 04       		.byte	0x4
 1800 0a69 08060000 		.4byte	0x608
 1801 0a6d 0E       		.uleb128 0xe
 1802 0a6e 04       		.byte	0x4
 1803 0a6f 0D       		.byte	0xd
 1804 0a70 A4       		.byte	0xa4
 1805 0a71 8C0A0000 		.4byte	0xa8c
 1806 0a75 0F       		.uleb128 0xf
 1807 0a76 D4020000 		.4byte	.LASF135
 1808 0a7a 0D       		.byte	0xd
 1809 0a7b AA       		.byte	0xaa
ARM GAS  /tmp/cc6MXJPQ.s 			page 33


 1810 0a7c 3D0A0000 		.4byte	0xa3d
 1811 0a80 0F       		.uleb128 0xf
 1812 0a81 3A030000 		.4byte	.LASF136
 1813 0a85 0D       		.byte	0xd
 1814 0a86 B0       		.byte	0xb0
 1815 0a87 520A0000 		.4byte	0xa52
 1816 0a8b 00       		.byte	0
 1817 0a8c 08       		.uleb128 0x8
 1818 0a8d 14       		.byte	0x14
 1819 0a8e 0D       		.byte	0xd
 1820 0a8f 97       		.byte	0x97
 1821 0a90 D10A0000 		.4byte	0xad1
 1822 0a94 06       		.uleb128 0x6
 1823 0a95 5A070000 		.4byte	.LASF144
 1824 0a99 0D       		.byte	0xd
 1825 0a9a 9B       		.byte	0x9b
 1826 0a9b E0000000 		.4byte	0xe0
 1827 0a9f 00       		.byte	0
 1828 0aa0 06       		.uleb128 0x6
 1829 0aa1 46080000 		.4byte	.LASF145
 1830 0aa5 0D       		.byte	0xd
 1831 0aa6 9F       		.byte	0x9f
 1832 0aa7 28000000 		.4byte	0x28
 1833 0aab 04       		.byte	0x4
 1834 0aac 06       		.uleb128 0x6
 1835 0aad 00000000 		.4byte	.LASF146
 1836 0ab1 0D       		.byte	0xd
 1837 0ab2 A3       		.byte	0xa3
 1838 0ab3 28000000 		.4byte	0x28
 1839 0ab7 08       		.byte	0x8
 1840 0ab8 06       		.uleb128 0x6
 1841 0ab9 E9060000 		.4byte	.LASF140
 1842 0abd 0D       		.byte	0xd
 1843 0abe B1       		.byte	0xb1
 1844 0abf 6D0A0000 		.4byte	0xa6d
 1845 0ac3 0C       		.byte	0xc
 1846 0ac4 06       		.uleb128 0x6
 1847 0ac5 AD060000 		.4byte	.LASF147
 1848 0ac9 0D       		.byte	0xd
 1849 0aca B6       		.byte	0xb6
 1850 0acb B4000000 		.4byte	0xb4
 1851 0acf 10       		.byte	0x10
 1852 0ad0 00       		.byte	0
 1853 0ad1 03       		.uleb128 0x3
 1854 0ad2 CB040000 		.4byte	.LASF148
 1855 0ad6 0D       		.byte	0xd
 1856 0ad7 B7       		.byte	0xb7
 1857 0ad8 8C0A0000 		.4byte	0xa8c
 1858 0adc 08       		.uleb128 0x8
 1859 0add 24       		.byte	0x24
 1860 0ade 0D       		.byte	0xd
 1861 0adf BD       		.byte	0xbd
 1862 0ae0 5D0B0000 		.4byte	0xb5d
 1863 0ae4 06       		.uleb128 0x6
 1864 0ae5 94070000 		.4byte	.LASF149
 1865 0ae9 0D       		.byte	0xd
 1866 0aea C1       		.byte	0xc1
ARM GAS  /tmp/cc6MXJPQ.s 			page 34


 1867 0aeb CA000000 		.4byte	0xca
 1868 0aef 00       		.byte	0
 1869 0af0 06       		.uleb128 0x6
 1870 0af1 5E050000 		.4byte	.LASF150
 1871 0af5 0D       		.byte	0xd
 1872 0af6 CC       		.byte	0xcc
 1873 0af7 0A090000 		.4byte	0x90a
 1874 0afb 04       		.byte	0x4
 1875 0afc 06       		.uleb128 0x6
 1876 0afd 5D030000 		.4byte	.LASF151
 1877 0b01 0D       		.byte	0xd
 1878 0b02 D2       		.byte	0xd2
 1879 0b03 0A090000 		.4byte	0x90a
 1880 0b07 08       		.byte	0x8
 1881 0b08 06       		.uleb128 0x6
 1882 0b09 79070000 		.4byte	.LASF152
 1883 0b0d 0D       		.byte	0xd
 1884 0b0e D8       		.byte	0xd8
 1885 0b0f 0A090000 		.4byte	0x90a
 1886 0b13 0C       		.byte	0xc
 1887 0b14 06       		.uleb128 0x6
 1888 0b15 77050000 		.4byte	.LASF153
 1889 0b19 0D       		.byte	0xd
 1890 0b1a DE       		.byte	0xde
 1891 0b1b B4000000 		.4byte	0xb4
 1892 0b1f 10       		.byte	0x10
 1893 0b20 06       		.uleb128 0x6
 1894 0b21 6F000000 		.4byte	.LASF154
 1895 0b25 0D       		.byte	0xd
 1896 0b26 E4       		.byte	0xe4
 1897 0b27 B4000000 		.4byte	0xb4
 1898 0b2b 12       		.byte	0x12
 1899 0b2c 06       		.uleb128 0x6
 1900 0b2d C6060000 		.4byte	.LASF155
 1901 0b31 0D       		.byte	0xd
 1902 0b32 E9       		.byte	0xe9
 1903 0b33 5D0B0000 		.4byte	0xb5d
 1904 0b37 14       		.byte	0x14
 1905 0b38 06       		.uleb128 0x6
 1906 0b39 AF040000 		.4byte	.LASF156
 1907 0b3d 0D       		.byte	0xd
 1908 0b3e EE       		.byte	0xee
 1909 0b3f 630B0000 		.4byte	0xb63
 1910 0b43 18       		.byte	0x18
 1911 0b44 06       		.uleb128 0x6
 1912 0b45 C4020000 		.4byte	.LASF157
 1913 0b49 0D       		.byte	0xd
 1914 0b4a F4       		.byte	0xf4
 1915 0b4b B4000000 		.4byte	0xb4
 1916 0b4f 1C       		.byte	0x1c
 1917 0b50 06       		.uleb128 0x6
 1918 0b51 B9040000 		.4byte	.LASF158
 1919 0b55 0D       		.byte	0xd
 1920 0b56 FA       		.byte	0xfa
 1921 0b57 02060000 		.4byte	0x602
 1922 0b5b 20       		.byte	0x20
 1923 0b5c 00       		.byte	0
ARM GAS  /tmp/cc6MXJPQ.s 			page 35


 1924 0b5d 09       		.uleb128 0x9
 1925 0b5e 04       		.byte	0x4
 1926 0b5f 320A0000 		.4byte	0xa32
 1927 0b63 09       		.uleb128 0x9
 1928 0b64 04       		.byte	0x4
 1929 0b65 D10A0000 		.4byte	0xad1
 1930 0b69 03       		.uleb128 0x3
 1931 0b6a 41050000 		.4byte	.LASF159
 1932 0b6e 0D       		.byte	0xd
 1933 0b6f FB       		.byte	0xfb
 1934 0b70 DC0A0000 		.4byte	0xadc
 1935 0b74 1B       		.uleb128 0x1b
 1936 0b75 10       		.byte	0x10
 1937 0b76 0D       		.byte	0xd
 1938 0b77 0001     		.2byte	0x100
 1939 0b79 B20B0000 		.4byte	0xbb2
 1940 0b7d 16       		.uleb128 0x16
 1941 0b7e 79030000 		.4byte	.LASF160
 1942 0b82 0D       		.byte	0xd
 1943 0b83 0501     		.2byte	0x105
 1944 0b85 2C090000 		.4byte	0x92c
 1945 0b89 00       		.byte	0
 1946 0b8a 16       		.uleb128 0x16
 1947 0b8b 21020000 		.4byte	.LASF161
 1948 0b8f 0D       		.byte	0xd
 1949 0b90 0A01     		.2byte	0x10a
 1950 0b92 6F090000 		.4byte	0x96f
 1951 0b96 04       		.byte	0x4
 1952 0b97 16       		.uleb128 0x16
 1953 0b98 34040000 		.4byte	.LASF162
 1954 0b9c 0D       		.byte	0xd
 1955 0b9d 1001     		.2byte	0x110
 1956 0b9f 4E090000 		.4byte	0x94e
 1957 0ba3 08       		.byte	0x8
 1958 0ba4 16       		.uleb128 0x16
 1959 0ba5 32050000 		.4byte	.LASF163
 1960 0ba9 0D       		.byte	0xd
 1961 0baa 1401     		.2byte	0x114
 1962 0bac E7080000 		.4byte	0x8e7
 1963 0bb0 0C       		.byte	0xc
 1964 0bb1 00       		.byte	0
 1965 0bb2 1A       		.uleb128 0x1a
 1966 0bb3 96060000 		.4byte	.LASF164
 1967 0bb7 0D       		.byte	0xd
 1968 0bb8 1601     		.2byte	0x116
 1969 0bba 740B0000 		.4byte	0xb74
 1970 0bbe 09       		.uleb128 0x9
 1971 0bbf 04       		.byte	0x4
 1972 0bc0 C40B0000 		.4byte	0xbc4
 1973 0bc4 10       		.uleb128 0x10
 1974 0bc5 B20B0000 		.4byte	0xbb2
 1975 0bc9 14       		.uleb128 0x14
 1976 0bca D90B0000 		.4byte	0xbd9
 1977 0bce D90B0000 		.4byte	0xbd9
 1978 0bd2 15       		.uleb128 0x15
 1979 0bd3 40040000 		.4byte	0x440
 1980 0bd7 07       		.byte	0x7
ARM GAS  /tmp/cc6MXJPQ.s 			page 36


 1981 0bd8 00       		.byte	0
 1982 0bd9 09       		.uleb128 0x9
 1983 0bda 04       		.byte	0x4
 1984 0bdb DF0B0000 		.4byte	0xbdf
 1985 0bdf 10       		.uleb128 0x10
 1986 0be0 690B0000 		.4byte	0xb69
 1987 0be4 14       		.uleb128 0x14
 1988 0be5 C6020000 		.4byte	0x2c6
 1989 0be9 F40B0000 		.4byte	0xbf4
 1990 0bed 15       		.uleb128 0x15
 1991 0bee 40040000 		.4byte	0x440
 1992 0bf2 06       		.byte	0x6
 1993 0bf3 00       		.byte	0
 1994 0bf4 14       		.uleb128 0x14
 1995 0bf5 A9000000 		.4byte	0xa9
 1996 0bf9 040C0000 		.4byte	0xc04
 1997 0bfd 15       		.uleb128 0x15
 1998 0bfe 40040000 		.4byte	0x440
 1999 0c02 07       		.byte	0x7
 2000 0c03 00       		.byte	0
 2001 0c04 14       		.uleb128 0x14
 2002 0c05 A9000000 		.4byte	0xa9
 2003 0c09 140C0000 		.4byte	0xc14
 2004 0c0d 15       		.uleb128 0x15
 2005 0c0e 40040000 		.4byte	0x440
 2006 0c12 03       		.byte	0x3
 2007 0c13 00       		.byte	0
 2008 0c14 17       		.uleb128 0x17
 2009 0c15 01       		.byte	0x1
 2010 0c16 0E       		.byte	0xe
 2011 0c17 83       		.byte	0x83
 2012 0c18 2F0C0000 		.4byte	0xc2f
 2013 0c1c 18       		.uleb128 0x18
 2014 0c1d 28000000 		.4byte	.LASF165
 2015 0c21 00       		.sleb128 0
 2016 0c22 18       		.uleb128 0x18
 2017 0c23 18030000 		.4byte	.LASF166
 2018 0c27 01       		.sleb128 1
 2019 0c28 18       		.uleb128 0x18
 2020 0c29 E8050000 		.4byte	.LASF167
 2021 0c2d 02       		.sleb128 2
 2022 0c2e 00       		.byte	0
 2023 0c2f 03       		.uleb128 0x3
 2024 0c30 17050000 		.4byte	.LASF168
 2025 0c34 0E       		.byte	0xe
 2026 0c35 87       		.byte	0x87
 2027 0c36 140C0000 		.4byte	0xc14
 2028 0c3a 03       		.uleb128 0x3
 2029 0c3b F3020000 		.4byte	.LASF169
 2030 0c3f 0E       		.byte	0xe
 2031 0c40 8C       		.byte	0x8c
 2032 0c41 450C0000 		.4byte	0xc45
 2033 0c45 1C       		.uleb128 0x1c
 2034 0c46 F3020000 		.4byte	.LASF169
 2035 0c4a 5802     		.2byte	0x258
 2036 0c4c 0E       		.byte	0xe
 2037 0c4d CF       		.byte	0xcf
ARM GAS  /tmp/cc6MXJPQ.s 			page 37


 2038 0c4e B30C0000 		.4byte	0xcb3
 2039 0c52 07       		.uleb128 0x7
 2040 0c53 766D7400 		.ascii	"vmt\000"
 2041 0c57 0E       		.byte	0xe
 2042 0c58 D1       		.byte	0xd1
 2043 0c59 640D0000 		.4byte	0xd64
 2044 0c5d 00       		.byte	0
 2045 0c5e 06       		.uleb128 0x6
 2046 0c5f 6B030000 		.4byte	.LASF170
 2047 0c63 0E       		.byte	0xe
 2048 0c64 D2       		.byte	0xd2
 2049 0c65 F5040000 		.4byte	0x4f5
 2050 0c69 04       		.byte	0x4
 2051 0c6a 06       		.uleb128 0x6
 2052 0c6b 8F010000 		.4byte	.LASF88
 2053 0c6f 0E       		.byte	0xe
 2054 0c70 D2       		.byte	0xd2
 2055 0c71 2F0C0000 		.4byte	0xc2f
 2056 0c75 08       		.byte	0x8
 2057 0c76 06       		.uleb128 0x6
 2058 0c77 7B080000 		.4byte	.LASF171
 2059 0c7b 0E       		.byte	0xe
 2060 0c7c D2       		.byte	0xd2
 2061 0c7d 08060000 		.4byte	0x608
 2062 0c81 0C       		.byte	0xc
 2063 0c82 06       		.uleb128 0x6
 2064 0c83 96030000 		.4byte	.LASF172
 2065 0c87 0E       		.byte	0xe
 2066 0c88 D2       		.byte	0xd2
 2067 0c89 13060000 		.4byte	0x613
 2068 0c8d 30       		.byte	0x30
 2069 0c8e 07       		.uleb128 0x7
 2070 0c8f 696200   		.ascii	"ib\000"
 2071 0c92 0E       		.byte	0xe
 2072 0c93 D2       		.byte	0xd2
 2073 0c94 07070000 		.4byte	0x707
 2074 0c98 54       		.byte	0x54
 2075 0c99 1D       		.uleb128 0x1d
 2076 0c9a 6F6200   		.ascii	"ob\000"
 2077 0c9d 0E       		.byte	0xe
 2078 0c9e D2       		.byte	0xd2
 2079 0c9f 07070000 		.4byte	0x707
 2080 0ca3 5401     		.2byte	0x154
 2081 0ca5 1E       		.uleb128 0x1e
 2082 0ca6 EE060000 		.4byte	.LASF89
 2083 0caa 0E       		.byte	0xe
 2084 0cab D2       		.byte	0xd2
 2085 0cac 6F0D0000 		.4byte	0xd6f
 2086 0cb0 5402     		.2byte	0x254
 2087 0cb2 00       		.byte	0
 2088 0cb3 08       		.uleb128 0x8
 2089 0cb4 08       		.byte	0x8
 2090 0cb5 0E       		.byte	0xe
 2091 0cb6 93       		.byte	0x93
 2092 0cb7 EC0C0000 		.4byte	0xcec
 2093 0cbb 06       		.uleb128 0x6
 2094 0cbc 88070000 		.4byte	.LASF173
ARM GAS  /tmp/cc6MXJPQ.s 			page 38


 2095 0cc0 0E       		.byte	0xe
 2096 0cc1 97       		.byte	0x97
 2097 0cc2 04090000 		.4byte	0x904
 2098 0cc6 00       		.byte	0
 2099 0cc7 06       		.uleb128 0x6
 2100 0cc8 56040000 		.4byte	.LASF174
 2101 0ccc 0E       		.byte	0xe
 2102 0ccd 9B       		.byte	0x9b
 2103 0cce 00080000 		.4byte	0x800
 2104 0cd2 04       		.byte	0x4
 2105 0cd3 06       		.uleb128 0x6
 2106 0cd4 F0070000 		.4byte	.LASF175
 2107 0cd8 0E       		.byte	0xe
 2108 0cd9 9F       		.byte	0x9f
 2109 0cda 00080000 		.4byte	0x800
 2110 0cde 05       		.byte	0x5
 2111 0cdf 06       		.uleb128 0x6
 2112 0ce0 98000000 		.4byte	.LASF176
 2113 0ce4 0E       		.byte	0xe
 2114 0ce5 A3       		.byte	0xa3
 2115 0ce6 00080000 		.4byte	0x800
 2116 0cea 06       		.byte	0x6
 2117 0ceb 00       		.byte	0
 2118 0cec 03       		.uleb128 0x3
 2119 0ced B5070000 		.4byte	.LASF177
 2120 0cf1 0E       		.byte	0xe
 2121 0cf2 A4       		.byte	0xa4
 2122 0cf3 B30C0000 		.4byte	0xcb3
 2123 0cf7 05       		.uleb128 0x5
 2124 0cf8 06000000 		.4byte	.LASF178
 2125 0cfc 20       		.byte	0x20
 2126 0cfd 0E       		.byte	0xe
 2127 0cfe C4       		.byte	0xc4
 2128 0cff 640D0000 		.4byte	0xd64
 2129 0d03 06       		.uleb128 0x6
 2130 0d04 5E040000 		.4byte	.LASF179
 2131 0d08 0E       		.byte	0xe
 2132 0d09 C5       		.byte	0xc5
 2133 0d0a 42060000 		.4byte	0x642
 2134 0d0e 00       		.byte	0
 2135 0d0f 06       		.uleb128 0x6
 2136 0d10 CF060000 		.4byte	.LASF180
 2137 0d14 0E       		.byte	0xe
 2138 0d15 C5       		.byte	0xc5
 2139 0d16 61060000 		.4byte	0x661
 2140 0d1a 04       		.byte	0x4
 2141 0d1b 07       		.uleb128 0x7
 2142 0d1c 70757400 		.ascii	"put\000"
 2143 0d20 0E       		.byte	0xe
 2144 0d21 C5       		.byte	0xc5
 2145 0d22 7B060000 		.4byte	0x67b
 2146 0d26 08       		.byte	0x8
 2147 0d27 07       		.uleb128 0x7
 2148 0d28 67657400 		.ascii	"get\000"
 2149 0d2c 0E       		.byte	0xe
 2150 0d2d C5       		.byte	0xc5
 2151 0d2e 53050000 		.4byte	0x553
ARM GAS  /tmp/cc6MXJPQ.s 			page 39


 2152 0d32 0C       		.byte	0xc
 2153 0d33 06       		.uleb128 0x6
 2154 0d34 64040000 		.4byte	.LASF181
 2155 0d38 0E       		.byte	0xe
 2156 0d39 C5       		.byte	0xc5
 2157 0d3a 9F060000 		.4byte	0x69f
 2158 0d3e 10       		.byte	0x10
 2159 0d3f 06       		.uleb128 0x6
 2160 0d40 35030000 		.4byte	.LASF182
 2161 0d44 0E       		.byte	0xe
 2162 0d45 C5       		.byte	0xc5
 2163 0d46 B9060000 		.4byte	0x6b9
 2164 0d4a 14       		.byte	0x14
 2165 0d4b 06       		.uleb128 0x6
 2166 0d4c E9030000 		.4byte	.LASF183
 2167 0d50 0E       		.byte	0xe
 2168 0d51 C5       		.byte	0xc5
 2169 0d52 DD060000 		.4byte	0x6dd
 2170 0d56 18       		.byte	0x18
 2171 0d57 06       		.uleb128 0x6
 2172 0d58 DF000000 		.4byte	.LASF184
 2173 0d5c 0E       		.byte	0xe
 2174 0d5d C5       		.byte	0xc5
 2175 0d5e 01070000 		.4byte	0x701
 2176 0d62 1C       		.byte	0x1c
 2177 0d63 00       		.byte	0
 2178 0d64 09       		.uleb128 0x9
 2179 0d65 04       		.byte	0x4
 2180 0d66 6A0D0000 		.4byte	0xd6a
 2181 0d6a 10       		.uleb128 0x10
 2182 0d6b F70C0000 		.4byte	0xcf7
 2183 0d6f 09       		.uleb128 0x9
 2184 0d70 04       		.byte	0x4
 2185 0d71 750D0000 		.4byte	0xd75
 2186 0d75 10       		.uleb128 0x10
 2187 0d76 EC0C0000 		.4byte	0xcec
 2188 0d7a 1F       		.uleb128 0x1f
 2189 0d7b 4D080000 		.4byte	.LASF209
 2190 0d7f 01       		.byte	0x1
 2191 0d80 C6       		.byte	0xc6
 2192 0d81 9F090000 		.4byte	0x99f
 2193 0d85 00000000 		.4byte	.LFB118
 2194 0d89 5C000000 		.4byte	.LFE118-.LFB118
 2195 0d8d 01       		.uleb128 0x1
 2196 0d8e 9C       		.byte	0x9c
 2197 0d8f CC0D0000 		.4byte	0xdcc
 2198 0d93 20       		.uleb128 0x20
 2199 0d94 88070000 		.4byte	.LASF173
 2200 0d98 01       		.byte	0x1
 2201 0d99 C6       		.byte	0xc6
 2202 0d9a 04090000 		.4byte	0x904
 2203 0d9e 02       		.uleb128 0x2
 2204 0d9f 91       		.byte	0x91
 2205 0da0 7C       		.sleb128 -4
 2206 0da1 20       		.uleb128 0x20
 2207 0da2 67050000 		.4byte	.LASF185
 2208 0da6 01       		.byte	0x1
ARM GAS  /tmp/cc6MXJPQ.s 			page 40


 2209 0da7 C7       		.byte	0xc7
 2210 0da8 A9000000 		.4byte	0xa9
 2211 0dac 02       		.uleb128 0x2
 2212 0dad 91       		.byte	0x91
 2213 0dae 7B       		.sleb128 -5
 2214 0daf 20       		.uleb128 0x20
 2215 0db0 BA010000 		.4byte	.LASF186
 2216 0db4 01       		.byte	0x1
 2217 0db5 C8       		.byte	0xc8
 2218 0db6 A9000000 		.4byte	0xa9
 2219 0dba 02       		.uleb128 0x2
 2220 0dbb 91       		.byte	0x91
 2221 0dbc 7A       		.sleb128 -6
 2222 0dbd 20       		.uleb128 0x20
 2223 0dbe 76060000 		.4byte	.LASF187
 2224 0dc2 01       		.byte	0x1
 2225 0dc3 C9       		.byte	0xc9
 2226 0dc4 B4000000 		.4byte	0xb4
 2227 0dc8 02       		.uleb128 0x2
 2228 0dc9 91       		.byte	0x91
 2229 0dca 78       		.sleb128 -8
 2230 0dcb 00       		.byte	0
 2231 0dcc 21       		.uleb128 0x21
 2232 0dcd DE050000 		.4byte	.LASF210
 2233 0dd1 01       		.byte	0x1
 2234 0dd2 0B01     		.2byte	0x10b
 2235 0dd4 00000000 		.4byte	.LFB119
 2236 0dd8 78000000 		.4byte	.LFE119-.LFB119
 2237 0ddc 01       		.uleb128 0x1
 2238 0ddd 9C       		.byte	0x9c
 2239 0dde 350E0000 		.4byte	0xe35
 2240 0de2 22       		.uleb128 0x22
 2241 0de3 88070000 		.4byte	.LASF173
 2242 0de7 01       		.byte	0x1
 2243 0de8 0B01     		.2byte	0x10b
 2244 0dea 04090000 		.4byte	0x904
 2245 0dee 02       		.uleb128 0x2
 2246 0def 91       		.byte	0x91
 2247 0df0 74       		.sleb128 -12
 2248 0df1 22       		.uleb128 0x22
 2249 0df2 6B030000 		.4byte	.LASF170
 2250 0df6 01       		.byte	0x1
 2251 0df7 0B01     		.2byte	0x10b
 2252 0df9 AB080000 		.4byte	0x8ab
 2253 0dfd 02       		.uleb128 0x2
 2254 0dfe 91       		.byte	0x91
 2255 0dff 73       		.sleb128 -13
 2256 0e00 23       		.uleb128 0x23
 2257 0e01 34000000 		.4byte	.LBB2
 2258 0e05 06000000 		.4byte	.LBE2-.LBB2
 2259 0e09 1C0E0000 		.4byte	0xe1c
 2260 0e0d 24       		.uleb128 0x24
 2261 0e0e 746D7000 		.ascii	"tmp\000"
 2262 0e12 01       		.byte	0x1
 2263 0e13 1301     		.2byte	0x113
 2264 0e15 CA000000 		.4byte	0xca
 2265 0e19 01       		.uleb128 0x1
ARM GAS  /tmp/cc6MXJPQ.s 			page 41


 2266 0e1a 53       		.byte	0x53
 2267 0e1b 00       		.byte	0
 2268 0e1c 25       		.uleb128 0x25
 2269 0e1d 5C000000 		.4byte	.LBB3
 2270 0e21 06000000 		.4byte	.LBE3-.LBB3
 2271 0e25 24       		.uleb128 0x24
 2272 0e26 746D7000 		.ascii	"tmp\000"
 2273 0e2a 01       		.byte	0x1
 2274 0e2b 1E01     		.2byte	0x11e
 2275 0e2d CA000000 		.4byte	0xca
 2276 0e31 01       		.uleb128 0x1
 2277 0e32 53       		.byte	0x53
 2278 0e33 00       		.byte	0
 2279 0e34 00       		.byte	0
 2280 0e35 14       		.uleb128 0x14
 2281 0e36 A9000000 		.4byte	0xa9
 2282 0e3a 450E0000 		.4byte	0xe45
 2283 0e3e 15       		.uleb128 0x15
 2284 0e3f 40040000 		.4byte	0x440
 2285 0e43 11       		.byte	0x11
 2286 0e44 00       		.byte	0
 2287 0e45 26       		.uleb128 0x26
 2288 0e46 CD030000 		.4byte	.LASF188
 2289 0e4a 01       		.byte	0x1
 2290 0e4b 21       		.byte	0x21
 2291 0e4c 560E0000 		.4byte	0xe56
 2292 0e50 05       		.uleb128 0x5
 2293 0e51 03       		.byte	0x3
 2294 0e52 00000000 		.4byte	vcom_device_descriptor_data
 2295 0e56 10       		.uleb128 0x10
 2296 0e57 350E0000 		.4byte	0xe35
 2297 0e5b 26       		.uleb128 0x26
 2298 0e5c D2070000 		.4byte	.LASF189
 2299 0e60 01       		.byte	0x1
 2300 0e61 33       		.byte	0x33
 2301 0e62 A5090000 		.4byte	0x9a5
 2302 0e66 05       		.uleb128 0x5
 2303 0e67 03       		.byte	0x3
 2304 0e68 00000000 		.4byte	vcom_device_descriptor
 2305 0e6c 14       		.uleb128 0x14
 2306 0e6d A9000000 		.4byte	0xa9
 2307 0e71 7C0E0000 		.4byte	0xe7c
 2308 0e75 15       		.uleb128 0x15
 2309 0e76 40040000 		.4byte	0x440
 2310 0e7a 42       		.byte	0x42
 2311 0e7b 00       		.byte	0
 2312 0e7c 26       		.uleb128 0x26
 2313 0e7d EF000000 		.4byte	.LASF190
 2314 0e81 01       		.byte	0x1
 2315 0e82 39       		.byte	0x39
 2316 0e83 8D0E0000 		.4byte	0xe8d
 2317 0e87 05       		.uleb128 0x5
 2318 0e88 03       		.byte	0x3
 2319 0e89 00000000 		.4byte	vcom_configuration_descriptor_data
 2320 0e8d 10       		.uleb128 0x10
 2321 0e8e 6C0E0000 		.4byte	0xe6c
 2322 0e92 26       		.uleb128 0x26
ARM GAS  /tmp/cc6MXJPQ.s 			page 42


 2323 0e93 FA010000 		.4byte	.LASF191
 2324 0e97 01       		.byte	0x1
 2325 0e98 88       		.byte	0x88
 2326 0e99 A5090000 		.4byte	0x9a5
 2327 0e9d 05       		.uleb128 0x5
 2328 0e9e 03       		.byte	0x3
 2329 0e9f 00000000 		.4byte	vcom_configuration_descriptor
 2330 0ea3 26       		.uleb128 0x26
 2331 0ea4 88020000 		.4byte	.LASF192
 2332 0ea8 01       		.byte	0x1
 2333 0ea9 90       		.byte	0x90
 2334 0eaa B40E0000 		.4byte	0xeb4
 2335 0eae 05       		.uleb128 0x5
 2336 0eaf 03       		.byte	0x3
 2337 0eb0 00000000 		.4byte	vcom_string0
 2338 0eb4 10       		.uleb128 0x10
 2339 0eb5 040C0000 		.4byte	0xc04
 2340 0eb9 14       		.uleb128 0x14
 2341 0eba A9000000 		.4byte	0xa9
 2342 0ebe C90E0000 		.4byte	0xec9
 2343 0ec2 15       		.uleb128 0x15
 2344 0ec3 40040000 		.4byte	0x440
 2345 0ec7 25       		.byte	0x25
 2346 0ec8 00       		.byte	0
 2347 0ec9 26       		.uleb128 0x26
 2348 0eca 48020000 		.4byte	.LASF193
 2349 0ece 01       		.byte	0x1
 2350 0ecf 99       		.byte	0x99
 2351 0ed0 DA0E0000 		.4byte	0xeda
 2352 0ed4 05       		.uleb128 0x5
 2353 0ed5 03       		.byte	0x3
 2354 0ed6 00000000 		.4byte	vcom_string1
 2355 0eda 10       		.uleb128 0x10
 2356 0edb B90E0000 		.4byte	0xeb9
 2357 0edf 14       		.uleb128 0x14
 2358 0ee0 A9000000 		.4byte	0xa9
 2359 0ee4 EF0E0000 		.4byte	0xeef
 2360 0ee8 15       		.uleb128 0x15
 2361 0ee9 40040000 		.4byte	0x440
 2362 0eed 37       		.byte	0x37
 2363 0eee 00       		.byte	0
 2364 0eef 26       		.uleb128 0x26
 2365 0ef0 9E020000 		.4byte	.LASF194
 2366 0ef4 01       		.byte	0x1
 2367 0ef5 A4       		.byte	0xa4
 2368 0ef6 000F0000 		.4byte	0xf00
 2369 0efa 05       		.uleb128 0x5
 2370 0efb 03       		.byte	0x3
 2371 0efc 00000000 		.4byte	vcom_string2
 2372 0f00 10       		.uleb128 0x10
 2373 0f01 DF0E0000 		.4byte	0xedf
 2374 0f05 26       		.uleb128 0x26
 2375 0f06 AB020000 		.4byte	.LASF195
 2376 0f0a 01       		.byte	0x1
 2377 0f0b B0       		.byte	0xb0
 2378 0f0c 160F0000 		.4byte	0xf16
 2379 0f10 05       		.uleb128 0x5
ARM GAS  /tmp/cc6MXJPQ.s 			page 43


 2380 0f11 03       		.byte	0x3
 2381 0f12 00000000 		.4byte	vcom_string3
 2382 0f16 10       		.uleb128 0x10
 2383 0f17 F40B0000 		.4byte	0xbf4
 2384 0f1b 14       		.uleb128 0x14
 2385 0f1c DB080000 		.4byte	0x8db
 2386 0f20 2B0F0000 		.4byte	0xf2b
 2387 0f24 15       		.uleb128 0x15
 2388 0f25 40040000 		.4byte	0x440
 2389 0f29 03       		.byte	0x3
 2390 0f2a 00       		.byte	0
 2391 0f2b 26       		.uleb128 0x26
 2392 0f2c 9D030000 		.4byte	.LASF196
 2393 0f30 01       		.byte	0x1
 2394 0f31 BB       		.byte	0xbb
 2395 0f32 3C0F0000 		.4byte	0xf3c
 2396 0f36 05       		.uleb128 0x5
 2397 0f37 03       		.byte	0x3
 2398 0f38 00000000 		.4byte	vcom_strings
 2399 0f3c 10       		.uleb128 0x10
 2400 0f3d 1B0F0000 		.4byte	0xf1b
 2401 0f41 26       		.uleb128 0x26
 2402 0f42 97080000 		.4byte	.LASF197
 2403 0f46 01       		.byte	0x1
 2404 0f47 DC       		.byte	0xdc
 2405 0f48 320A0000 		.4byte	0xa32
 2406 0f4c 05       		.uleb128 0x5
 2407 0f4d 03       		.byte	0x3
 2408 0f4e 00000000 		.4byte	ep1instate
 2409 0f52 26       		.uleb128 0x26
 2410 0f53 51030000 		.4byte	.LASF198
 2411 0f57 01       		.byte	0x1
 2412 0f58 E1       		.byte	0xe1
 2413 0f59 D10A0000 		.4byte	0xad1
 2414 0f5d 05       		.uleb128 0x5
 2415 0f5e 03       		.byte	0x3
 2416 0f5f 00000000 		.4byte	ep1outstate
 2417 0f63 26       		.uleb128 0x26
 2418 0f64 C0000000 		.4byte	.LASF199
 2419 0f68 01       		.byte	0x1
 2420 0f69 E6       		.byte	0xe6
 2421 0f6a DF0B0000 		.4byte	0xbdf
 2422 0f6e 05       		.uleb128 0x5
 2423 0f6f 03       		.byte	0x3
 2424 0f70 00000000 		.4byte	ep1config
 2425 0f74 26       		.uleb128 0x26
 2426 0f75 3A010000 		.4byte	.LASF200
 2427 0f79 01       		.byte	0x1
 2428 0f7a F6       		.byte	0xf6
 2429 0f7b 320A0000 		.4byte	0xa32
 2430 0f7f 05       		.uleb128 0x5
 2431 0f80 03       		.byte	0x3
 2432 0f81 00000000 		.4byte	ep2instate
 2433 0f85 26       		.uleb128 0x26
 2434 0f86 9C070000 		.4byte	.LASF201
 2435 0f8a 01       		.byte	0x1
 2436 0f8b FB       		.byte	0xfb
ARM GAS  /tmp/cc6MXJPQ.s 			page 44


 2437 0f8c DF0B0000 		.4byte	0xbdf
 2438 0f90 05       		.uleb128 0x5
 2439 0f91 03       		.byte	0x3
 2440 0f92 00000000 		.4byte	ep2config
 2441 0f96 27       		.uleb128 0x27
 2442 0f97 A8000000 		.4byte	.LASF202
 2443 0f9b 0F       		.byte	0xf
 2444 0f9c 9806     		.2byte	0x698
 2445 0f9e 81060000 		.4byte	0x681
 2446 0fa2 27       		.uleb128 0x27
 2447 0fa3 50040000 		.4byte	.LASF203
 2448 0fa7 0D       		.byte	0xd
 2449 0fa8 9A01     		.2byte	0x19a
 2450 0faa 17070000 		.4byte	0x717
 2451 0fae 28       		.uleb128 0x28
 2452 0faf CF020000 		.4byte	.LASF204
 2453 0fb3 01       		.byte	0x1
 2454 0fb4 1C       		.byte	0x1c
 2455 0fb5 3A0C0000 		.4byte	0xc3a
 2456 0fb9 05       		.uleb128 0x5
 2457 0fba 03       		.byte	0x3
 2458 0fbb 00000000 		.4byte	SDU1
 2459 0fbf 29       		.uleb128 0x29
 2460 0fc0 11030000 		.4byte	.LASF205
 2461 0fc4 01       		.byte	0x1
 2462 0fc5 2D01     		.2byte	0x12d
 2463 0fc7 C40B0000 		.4byte	0xbc4
 2464 0fcb 05       		.uleb128 0x5
 2465 0fcc 03       		.byte	0x3
 2466 0fcd 00000000 		.4byte	usbcfg
 2467 0fd1 29       		.uleb128 0x29
 2468 0fd2 6D050000 		.4byte	.LASF206
 2469 0fd6 01       		.byte	0x1
 2470 0fd7 3701     		.2byte	0x137
 2471 0fd9 750D0000 		.4byte	0xd75
 2472 0fdd 05       		.uleb128 0x5
 2473 0fde 03       		.byte	0x3
 2474 0fdf 00000000 		.4byte	serusbcfg
 2475 0fe3 00       		.byte	0
 2476              		.section	.debug_abbrev,"",%progbits
 2477              	.Ldebug_abbrev0:
 2478 0000 01       		.uleb128 0x1
 2479 0001 11       		.uleb128 0x11
 2480 0002 01       		.byte	0x1
 2481 0003 25       		.uleb128 0x25
 2482 0004 0E       		.uleb128 0xe
 2483 0005 13       		.uleb128 0x13
 2484 0006 0B       		.uleb128 0xb
 2485 0007 03       		.uleb128 0x3
 2486 0008 0E       		.uleb128 0xe
 2487 0009 55       		.uleb128 0x55
 2488 000a 17       		.uleb128 0x17
 2489 000b 11       		.uleb128 0x11
 2490 000c 01       		.uleb128 0x1
 2491 000d 10       		.uleb128 0x10
 2492 000e 17       		.uleb128 0x17
 2493 000f 00       		.byte	0
ARM GAS  /tmp/cc6MXJPQ.s 			page 45


 2494 0010 00       		.byte	0
 2495 0011 02       		.uleb128 0x2
 2496 0012 24       		.uleb128 0x24
 2497 0013 00       		.byte	0
 2498 0014 0B       		.uleb128 0xb
 2499 0015 0B       		.uleb128 0xb
 2500 0016 3E       		.uleb128 0x3e
 2501 0017 0B       		.uleb128 0xb
 2502 0018 03       		.uleb128 0x3
 2503 0019 08       		.uleb128 0x8
 2504 001a 00       		.byte	0
 2505 001b 00       		.byte	0
 2506 001c 03       		.uleb128 0x3
 2507 001d 16       		.uleb128 0x16
 2508 001e 00       		.byte	0
 2509 001f 03       		.uleb128 0x3
 2510 0020 0E       		.uleb128 0xe
 2511 0021 3A       		.uleb128 0x3a
 2512 0022 0B       		.uleb128 0xb
 2513 0023 3B       		.uleb128 0x3b
 2514 0024 0B       		.uleb128 0xb
 2515 0025 49       		.uleb128 0x49
 2516 0026 13       		.uleb128 0x13
 2517 0027 00       		.byte	0
 2518 0028 00       		.byte	0
 2519 0029 04       		.uleb128 0x4
 2520 002a 24       		.uleb128 0x24
 2521 002b 00       		.byte	0
 2522 002c 0B       		.uleb128 0xb
 2523 002d 0B       		.uleb128 0xb
 2524 002e 3E       		.uleb128 0x3e
 2525 002f 0B       		.uleb128 0xb
 2526 0030 03       		.uleb128 0x3
 2527 0031 0E       		.uleb128 0xe
 2528 0032 00       		.byte	0
 2529 0033 00       		.byte	0
 2530 0034 05       		.uleb128 0x5
 2531 0035 13       		.uleb128 0x13
 2532 0036 01       		.byte	0x1
 2533 0037 03       		.uleb128 0x3
 2534 0038 0E       		.uleb128 0xe
 2535 0039 0B       		.uleb128 0xb
 2536 003a 0B       		.uleb128 0xb
 2537 003b 3A       		.uleb128 0x3a
 2538 003c 0B       		.uleb128 0xb
 2539 003d 3B       		.uleb128 0x3b
 2540 003e 0B       		.uleb128 0xb
 2541 003f 01       		.uleb128 0x1
 2542 0040 13       		.uleb128 0x13
 2543 0041 00       		.byte	0
 2544 0042 00       		.byte	0
 2545 0043 06       		.uleb128 0x6
 2546 0044 0D       		.uleb128 0xd
 2547 0045 00       		.byte	0
 2548 0046 03       		.uleb128 0x3
 2549 0047 0E       		.uleb128 0xe
 2550 0048 3A       		.uleb128 0x3a
ARM GAS  /tmp/cc6MXJPQ.s 			page 46


 2551 0049 0B       		.uleb128 0xb
 2552 004a 3B       		.uleb128 0x3b
 2553 004b 0B       		.uleb128 0xb
 2554 004c 49       		.uleb128 0x49
 2555 004d 13       		.uleb128 0x13
 2556 004e 38       		.uleb128 0x38
 2557 004f 0B       		.uleb128 0xb
 2558 0050 00       		.byte	0
 2559 0051 00       		.byte	0
 2560 0052 07       		.uleb128 0x7
 2561 0053 0D       		.uleb128 0xd
 2562 0054 00       		.byte	0
 2563 0055 03       		.uleb128 0x3
 2564 0056 08       		.uleb128 0x8
 2565 0057 3A       		.uleb128 0x3a
 2566 0058 0B       		.uleb128 0xb
 2567 0059 3B       		.uleb128 0x3b
 2568 005a 0B       		.uleb128 0xb
 2569 005b 49       		.uleb128 0x49
 2570 005c 13       		.uleb128 0x13
 2571 005d 38       		.uleb128 0x38
 2572 005e 0B       		.uleb128 0xb
 2573 005f 00       		.byte	0
 2574 0060 00       		.byte	0
 2575 0061 08       		.uleb128 0x8
 2576 0062 13       		.uleb128 0x13
 2577 0063 01       		.byte	0x1
 2578 0064 0B       		.uleb128 0xb
 2579 0065 0B       		.uleb128 0xb
 2580 0066 3A       		.uleb128 0x3a
 2581 0067 0B       		.uleb128 0xb
 2582 0068 3B       		.uleb128 0x3b
 2583 0069 0B       		.uleb128 0xb
 2584 006a 01       		.uleb128 0x1
 2585 006b 13       		.uleb128 0x13
 2586 006c 00       		.byte	0
 2587 006d 00       		.byte	0
 2588 006e 09       		.uleb128 0x9
 2589 006f 0F       		.uleb128 0xf
 2590 0070 00       		.byte	0
 2591 0071 0B       		.uleb128 0xb
 2592 0072 0B       		.uleb128 0xb
 2593 0073 49       		.uleb128 0x49
 2594 0074 13       		.uleb128 0x13
 2595 0075 00       		.byte	0
 2596 0076 00       		.byte	0
 2597 0077 0A       		.uleb128 0xa
 2598 0078 0F       		.uleb128 0xf
 2599 0079 00       		.byte	0
 2600 007a 0B       		.uleb128 0xb
 2601 007b 0B       		.uleb128 0xb
 2602 007c 00       		.byte	0
 2603 007d 00       		.byte	0
 2604 007e 0B       		.uleb128 0xb
 2605 007f 13       		.uleb128 0x13
 2606 0080 01       		.byte	0x1
 2607 0081 03       		.uleb128 0x3
ARM GAS  /tmp/cc6MXJPQ.s 			page 47


 2608 0082 0E       		.uleb128 0xe
 2609 0083 0B       		.uleb128 0xb
 2610 0084 0B       		.uleb128 0xb
 2611 0085 3A       		.uleb128 0x3a
 2612 0086 0B       		.uleb128 0xb
 2613 0087 3B       		.uleb128 0x3b
 2614 0088 05       		.uleb128 0x5
 2615 0089 01       		.uleb128 0x1
 2616 008a 13       		.uleb128 0x13
 2617 008b 00       		.byte	0
 2618 008c 00       		.byte	0
 2619 008d 0C       		.uleb128 0xc
 2620 008e 0D       		.uleb128 0xd
 2621 008f 00       		.byte	0
 2622 0090 03       		.uleb128 0x3
 2623 0091 08       		.uleb128 0x8
 2624 0092 3A       		.uleb128 0x3a
 2625 0093 0B       		.uleb128 0xb
 2626 0094 3B       		.uleb128 0x3b
 2627 0095 05       		.uleb128 0x5
 2628 0096 49       		.uleb128 0x49
 2629 0097 13       		.uleb128 0x13
 2630 0098 38       		.uleb128 0x38
 2631 0099 0B       		.uleb128 0xb
 2632 009a 00       		.byte	0
 2633 009b 00       		.byte	0
 2634 009c 0D       		.uleb128 0xd
 2635 009d 35       		.uleb128 0x35
 2636 009e 00       		.byte	0
 2637 009f 49       		.uleb128 0x49
 2638 00a0 13       		.uleb128 0x13
 2639 00a1 00       		.byte	0
 2640 00a2 00       		.byte	0
 2641 00a3 0E       		.uleb128 0xe
 2642 00a4 17       		.uleb128 0x17
 2643 00a5 01       		.byte	0x1
 2644 00a6 0B       		.uleb128 0xb
 2645 00a7 0B       		.uleb128 0xb
 2646 00a8 3A       		.uleb128 0x3a
 2647 00a9 0B       		.uleb128 0xb
 2648 00aa 3B       		.uleb128 0x3b
 2649 00ab 0B       		.uleb128 0xb
 2650 00ac 01       		.uleb128 0x1
 2651 00ad 13       		.uleb128 0x13
 2652 00ae 00       		.byte	0
 2653 00af 00       		.byte	0
 2654 00b0 0F       		.uleb128 0xf
 2655 00b1 0D       		.uleb128 0xd
 2656 00b2 00       		.byte	0
 2657 00b3 03       		.uleb128 0x3
 2658 00b4 0E       		.uleb128 0xe
 2659 00b5 3A       		.uleb128 0x3a
 2660 00b6 0B       		.uleb128 0xb
 2661 00b7 3B       		.uleb128 0x3b
 2662 00b8 0B       		.uleb128 0xb
 2663 00b9 49       		.uleb128 0x49
 2664 00ba 13       		.uleb128 0x13
ARM GAS  /tmp/cc6MXJPQ.s 			page 48


 2665 00bb 00       		.byte	0
 2666 00bc 00       		.byte	0
 2667 00bd 10       		.uleb128 0x10
 2668 00be 26       		.uleb128 0x26
 2669 00bf 00       		.byte	0
 2670 00c0 49       		.uleb128 0x49
 2671 00c1 13       		.uleb128 0x13
 2672 00c2 00       		.byte	0
 2673 00c3 00       		.byte	0
 2674 00c4 11       		.uleb128 0x11
 2675 00c5 15       		.uleb128 0x15
 2676 00c6 01       		.byte	0x1
 2677 00c7 27       		.uleb128 0x27
 2678 00c8 19       		.uleb128 0x19
 2679 00c9 49       		.uleb128 0x49
 2680 00ca 13       		.uleb128 0x13
 2681 00cb 01       		.uleb128 0x1
 2682 00cc 13       		.uleb128 0x13
 2683 00cd 00       		.byte	0
 2684 00ce 00       		.byte	0
 2685 00cf 12       		.uleb128 0x12
 2686 00d0 05       		.uleb128 0x5
 2687 00d1 00       		.byte	0
 2688 00d2 49       		.uleb128 0x49
 2689 00d3 13       		.uleb128 0x13
 2690 00d4 00       		.byte	0
 2691 00d5 00       		.byte	0
 2692 00d6 13       		.uleb128 0x13
 2693 00d7 15       		.uleb128 0x15
 2694 00d8 01       		.byte	0x1
 2695 00d9 27       		.uleb128 0x27
 2696 00da 19       		.uleb128 0x19
 2697 00db 01       		.uleb128 0x1
 2698 00dc 13       		.uleb128 0x13
 2699 00dd 00       		.byte	0
 2700 00de 00       		.byte	0
 2701 00df 14       		.uleb128 0x14
 2702 00e0 01       		.uleb128 0x1
 2703 00e1 01       		.byte	0x1
 2704 00e2 49       		.uleb128 0x49
 2705 00e3 13       		.uleb128 0x13
 2706 00e4 01       		.uleb128 0x1
 2707 00e5 13       		.uleb128 0x13
 2708 00e6 00       		.byte	0
 2709 00e7 00       		.byte	0
 2710 00e8 15       		.uleb128 0x15
 2711 00e9 21       		.uleb128 0x21
 2712 00ea 00       		.byte	0
 2713 00eb 49       		.uleb128 0x49
 2714 00ec 13       		.uleb128 0x13
 2715 00ed 2F       		.uleb128 0x2f
 2716 00ee 0B       		.uleb128 0xb
 2717 00ef 00       		.byte	0
 2718 00f0 00       		.byte	0
 2719 00f1 16       		.uleb128 0x16
 2720 00f2 0D       		.uleb128 0xd
 2721 00f3 00       		.byte	0
ARM GAS  /tmp/cc6MXJPQ.s 			page 49


 2722 00f4 03       		.uleb128 0x3
 2723 00f5 0E       		.uleb128 0xe
 2724 00f6 3A       		.uleb128 0x3a
 2725 00f7 0B       		.uleb128 0xb
 2726 00f8 3B       		.uleb128 0x3b
 2727 00f9 05       		.uleb128 0x5
 2728 00fa 49       		.uleb128 0x49
 2729 00fb 13       		.uleb128 0x13
 2730 00fc 38       		.uleb128 0x38
 2731 00fd 0B       		.uleb128 0xb
 2732 00fe 00       		.byte	0
 2733 00ff 00       		.byte	0
 2734 0100 17       		.uleb128 0x17
 2735 0101 04       		.uleb128 0x4
 2736 0102 01       		.byte	0x1
 2737 0103 0B       		.uleb128 0xb
 2738 0104 0B       		.uleb128 0xb
 2739 0105 3A       		.uleb128 0x3a
 2740 0106 0B       		.uleb128 0xb
 2741 0107 3B       		.uleb128 0x3b
 2742 0108 0B       		.uleb128 0xb
 2743 0109 01       		.uleb128 0x1
 2744 010a 13       		.uleb128 0x13
 2745 010b 00       		.byte	0
 2746 010c 00       		.byte	0
 2747 010d 18       		.uleb128 0x18
 2748 010e 28       		.uleb128 0x28
 2749 010f 00       		.byte	0
 2750 0110 03       		.uleb128 0x3
 2751 0111 0E       		.uleb128 0xe
 2752 0112 1C       		.uleb128 0x1c
 2753 0113 0D       		.uleb128 0xd
 2754 0114 00       		.byte	0
 2755 0115 00       		.byte	0
 2756 0116 19       		.uleb128 0x19
 2757 0117 04       		.uleb128 0x4
 2758 0118 01       		.byte	0x1
 2759 0119 0B       		.uleb128 0xb
 2760 011a 0B       		.uleb128 0xb
 2761 011b 3A       		.uleb128 0x3a
 2762 011c 0B       		.uleb128 0xb
 2763 011d 3B       		.uleb128 0x3b
 2764 011e 05       		.uleb128 0x5
 2765 011f 01       		.uleb128 0x1
 2766 0120 13       		.uleb128 0x13
 2767 0121 00       		.byte	0
 2768 0122 00       		.byte	0
 2769 0123 1A       		.uleb128 0x1a
 2770 0124 16       		.uleb128 0x16
 2771 0125 00       		.byte	0
 2772 0126 03       		.uleb128 0x3
 2773 0127 0E       		.uleb128 0xe
 2774 0128 3A       		.uleb128 0x3a
 2775 0129 0B       		.uleb128 0xb
 2776 012a 3B       		.uleb128 0x3b
 2777 012b 05       		.uleb128 0x5
 2778 012c 49       		.uleb128 0x49
ARM GAS  /tmp/cc6MXJPQ.s 			page 50


 2779 012d 13       		.uleb128 0x13
 2780 012e 00       		.byte	0
 2781 012f 00       		.byte	0
 2782 0130 1B       		.uleb128 0x1b
 2783 0131 13       		.uleb128 0x13
 2784 0132 01       		.byte	0x1
 2785 0133 0B       		.uleb128 0xb
 2786 0134 0B       		.uleb128 0xb
 2787 0135 3A       		.uleb128 0x3a
 2788 0136 0B       		.uleb128 0xb
 2789 0137 3B       		.uleb128 0x3b
 2790 0138 05       		.uleb128 0x5
 2791 0139 01       		.uleb128 0x1
 2792 013a 13       		.uleb128 0x13
 2793 013b 00       		.byte	0
 2794 013c 00       		.byte	0
 2795 013d 1C       		.uleb128 0x1c
 2796 013e 13       		.uleb128 0x13
 2797 013f 01       		.byte	0x1
 2798 0140 03       		.uleb128 0x3
 2799 0141 0E       		.uleb128 0xe
 2800 0142 0B       		.uleb128 0xb
 2801 0143 05       		.uleb128 0x5
 2802 0144 3A       		.uleb128 0x3a
 2803 0145 0B       		.uleb128 0xb
 2804 0146 3B       		.uleb128 0x3b
 2805 0147 0B       		.uleb128 0xb
 2806 0148 01       		.uleb128 0x1
 2807 0149 13       		.uleb128 0x13
 2808 014a 00       		.byte	0
 2809 014b 00       		.byte	0
 2810 014c 1D       		.uleb128 0x1d
 2811 014d 0D       		.uleb128 0xd
 2812 014e 00       		.byte	0
 2813 014f 03       		.uleb128 0x3
 2814 0150 08       		.uleb128 0x8
 2815 0151 3A       		.uleb128 0x3a
 2816 0152 0B       		.uleb128 0xb
 2817 0153 3B       		.uleb128 0x3b
 2818 0154 0B       		.uleb128 0xb
 2819 0155 49       		.uleb128 0x49
 2820 0156 13       		.uleb128 0x13
 2821 0157 38       		.uleb128 0x38
 2822 0158 05       		.uleb128 0x5
 2823 0159 00       		.byte	0
 2824 015a 00       		.byte	0
 2825 015b 1E       		.uleb128 0x1e
 2826 015c 0D       		.uleb128 0xd
 2827 015d 00       		.byte	0
 2828 015e 03       		.uleb128 0x3
 2829 015f 0E       		.uleb128 0xe
 2830 0160 3A       		.uleb128 0x3a
 2831 0161 0B       		.uleb128 0xb
 2832 0162 3B       		.uleb128 0x3b
 2833 0163 0B       		.uleb128 0xb
 2834 0164 49       		.uleb128 0x49
 2835 0165 13       		.uleb128 0x13
ARM GAS  /tmp/cc6MXJPQ.s 			page 51


 2836 0166 38       		.uleb128 0x38
 2837 0167 05       		.uleb128 0x5
 2838 0168 00       		.byte	0
 2839 0169 00       		.byte	0
 2840 016a 1F       		.uleb128 0x1f
 2841 016b 2E       		.uleb128 0x2e
 2842 016c 01       		.byte	0x1
 2843 016d 03       		.uleb128 0x3
 2844 016e 0E       		.uleb128 0xe
 2845 016f 3A       		.uleb128 0x3a
 2846 0170 0B       		.uleb128 0xb
 2847 0171 3B       		.uleb128 0x3b
 2848 0172 0B       		.uleb128 0xb
 2849 0173 27       		.uleb128 0x27
 2850 0174 19       		.uleb128 0x19
 2851 0175 49       		.uleb128 0x49
 2852 0176 13       		.uleb128 0x13
 2853 0177 11       		.uleb128 0x11
 2854 0178 01       		.uleb128 0x1
 2855 0179 12       		.uleb128 0x12
 2856 017a 06       		.uleb128 0x6
 2857 017b 40       		.uleb128 0x40
 2858 017c 18       		.uleb128 0x18
 2859 017d 9742     		.uleb128 0x2117
 2860 017f 19       		.uleb128 0x19
 2861 0180 01       		.uleb128 0x1
 2862 0181 13       		.uleb128 0x13
 2863 0182 00       		.byte	0
 2864 0183 00       		.byte	0
 2865 0184 20       		.uleb128 0x20
 2866 0185 05       		.uleb128 0x5
 2867 0186 00       		.byte	0
 2868 0187 03       		.uleb128 0x3
 2869 0188 0E       		.uleb128 0xe
 2870 0189 3A       		.uleb128 0x3a
 2871 018a 0B       		.uleb128 0xb
 2872 018b 3B       		.uleb128 0x3b
 2873 018c 0B       		.uleb128 0xb
 2874 018d 49       		.uleb128 0x49
 2875 018e 13       		.uleb128 0x13
 2876 018f 02       		.uleb128 0x2
 2877 0190 18       		.uleb128 0x18
 2878 0191 00       		.byte	0
 2879 0192 00       		.byte	0
 2880 0193 21       		.uleb128 0x21
 2881 0194 2E       		.uleb128 0x2e
 2882 0195 01       		.byte	0x1
 2883 0196 03       		.uleb128 0x3
 2884 0197 0E       		.uleb128 0xe
 2885 0198 3A       		.uleb128 0x3a
 2886 0199 0B       		.uleb128 0xb
 2887 019a 3B       		.uleb128 0x3b
 2888 019b 05       		.uleb128 0x5
 2889 019c 27       		.uleb128 0x27
 2890 019d 19       		.uleb128 0x19
 2891 019e 11       		.uleb128 0x11
 2892 019f 01       		.uleb128 0x1
ARM GAS  /tmp/cc6MXJPQ.s 			page 52


 2893 01a0 12       		.uleb128 0x12
 2894 01a1 06       		.uleb128 0x6
 2895 01a2 40       		.uleb128 0x40
 2896 01a3 18       		.uleb128 0x18
 2897 01a4 9642     		.uleb128 0x2116
 2898 01a6 19       		.uleb128 0x19
 2899 01a7 01       		.uleb128 0x1
 2900 01a8 13       		.uleb128 0x13
 2901 01a9 00       		.byte	0
 2902 01aa 00       		.byte	0
 2903 01ab 22       		.uleb128 0x22
 2904 01ac 05       		.uleb128 0x5
 2905 01ad 00       		.byte	0
 2906 01ae 03       		.uleb128 0x3
 2907 01af 0E       		.uleb128 0xe
 2908 01b0 3A       		.uleb128 0x3a
 2909 01b1 0B       		.uleb128 0xb
 2910 01b2 3B       		.uleb128 0x3b
 2911 01b3 05       		.uleb128 0x5
 2912 01b4 49       		.uleb128 0x49
 2913 01b5 13       		.uleb128 0x13
 2914 01b6 02       		.uleb128 0x2
 2915 01b7 18       		.uleb128 0x18
 2916 01b8 00       		.byte	0
 2917 01b9 00       		.byte	0
 2918 01ba 23       		.uleb128 0x23
 2919 01bb 0B       		.uleb128 0xb
 2920 01bc 01       		.byte	0x1
 2921 01bd 11       		.uleb128 0x11
 2922 01be 01       		.uleb128 0x1
 2923 01bf 12       		.uleb128 0x12
 2924 01c0 06       		.uleb128 0x6
 2925 01c1 01       		.uleb128 0x1
 2926 01c2 13       		.uleb128 0x13
 2927 01c3 00       		.byte	0
 2928 01c4 00       		.byte	0
 2929 01c5 24       		.uleb128 0x24
 2930 01c6 34       		.uleb128 0x34
 2931 01c7 00       		.byte	0
 2932 01c8 03       		.uleb128 0x3
 2933 01c9 08       		.uleb128 0x8
 2934 01ca 3A       		.uleb128 0x3a
 2935 01cb 0B       		.uleb128 0xb
 2936 01cc 3B       		.uleb128 0x3b
 2937 01cd 05       		.uleb128 0x5
 2938 01ce 49       		.uleb128 0x49
 2939 01cf 13       		.uleb128 0x13
 2940 01d0 02       		.uleb128 0x2
 2941 01d1 18       		.uleb128 0x18
 2942 01d2 00       		.byte	0
 2943 01d3 00       		.byte	0
 2944 01d4 25       		.uleb128 0x25
 2945 01d5 0B       		.uleb128 0xb
 2946 01d6 01       		.byte	0x1
 2947 01d7 11       		.uleb128 0x11
 2948 01d8 01       		.uleb128 0x1
 2949 01d9 12       		.uleb128 0x12
ARM GAS  /tmp/cc6MXJPQ.s 			page 53


 2950 01da 06       		.uleb128 0x6
 2951 01db 00       		.byte	0
 2952 01dc 00       		.byte	0
 2953 01dd 26       		.uleb128 0x26
 2954 01de 34       		.uleb128 0x34
 2955 01df 00       		.byte	0
 2956 01e0 03       		.uleb128 0x3
 2957 01e1 0E       		.uleb128 0xe
 2958 01e2 3A       		.uleb128 0x3a
 2959 01e3 0B       		.uleb128 0xb
 2960 01e4 3B       		.uleb128 0x3b
 2961 01e5 0B       		.uleb128 0xb
 2962 01e6 49       		.uleb128 0x49
 2963 01e7 13       		.uleb128 0x13
 2964 01e8 02       		.uleb128 0x2
 2965 01e9 18       		.uleb128 0x18
 2966 01ea 00       		.byte	0
 2967 01eb 00       		.byte	0
 2968 01ec 27       		.uleb128 0x27
 2969 01ed 34       		.uleb128 0x34
 2970 01ee 00       		.byte	0
 2971 01ef 03       		.uleb128 0x3
 2972 01f0 0E       		.uleb128 0xe
 2973 01f1 3A       		.uleb128 0x3a
 2974 01f2 0B       		.uleb128 0xb
 2975 01f3 3B       		.uleb128 0x3b
 2976 01f4 05       		.uleb128 0x5
 2977 01f5 49       		.uleb128 0x49
 2978 01f6 13       		.uleb128 0x13
 2979 01f7 3F       		.uleb128 0x3f
 2980 01f8 19       		.uleb128 0x19
 2981 01f9 3C       		.uleb128 0x3c
 2982 01fa 19       		.uleb128 0x19
 2983 01fb 00       		.byte	0
 2984 01fc 00       		.byte	0
 2985 01fd 28       		.uleb128 0x28
 2986 01fe 34       		.uleb128 0x34
 2987 01ff 00       		.byte	0
 2988 0200 03       		.uleb128 0x3
 2989 0201 0E       		.uleb128 0xe
 2990 0202 3A       		.uleb128 0x3a
 2991 0203 0B       		.uleb128 0xb
 2992 0204 3B       		.uleb128 0x3b
 2993 0205 0B       		.uleb128 0xb
 2994 0206 49       		.uleb128 0x49
 2995 0207 13       		.uleb128 0x13
 2996 0208 3F       		.uleb128 0x3f
 2997 0209 19       		.uleb128 0x19
 2998 020a 02       		.uleb128 0x2
 2999 020b 18       		.uleb128 0x18
 3000 020c 00       		.byte	0
 3001 020d 00       		.byte	0
 3002 020e 29       		.uleb128 0x29
 3003 020f 34       		.uleb128 0x34
 3004 0210 00       		.byte	0
 3005 0211 03       		.uleb128 0x3
 3006 0212 0E       		.uleb128 0xe
ARM GAS  /tmp/cc6MXJPQ.s 			page 54


 3007 0213 3A       		.uleb128 0x3a
 3008 0214 0B       		.uleb128 0xb
 3009 0215 3B       		.uleb128 0x3b
 3010 0216 05       		.uleb128 0x5
 3011 0217 49       		.uleb128 0x49
 3012 0218 13       		.uleb128 0x13
 3013 0219 3F       		.uleb128 0x3f
 3014 021a 19       		.uleb128 0x19
 3015 021b 02       		.uleb128 0x2
 3016 021c 18       		.uleb128 0x18
 3017 021d 00       		.byte	0
 3018 021e 00       		.byte	0
 3019 021f 00       		.byte	0
 3020              		.section	.debug_aranges,"",%progbits
 3021 0000 24000000 		.4byte	0x24
 3022 0004 0200     		.2byte	0x2
 3023 0006 00000000 		.4byte	.Ldebug_info0
 3024 000a 04       		.byte	0x4
 3025 000b 00       		.byte	0
 3026 000c 0000     		.2byte	0
 3027 000e 0000     		.2byte	0
 3028 0010 00000000 		.4byte	.LFB118
 3029 0014 5C000000 		.4byte	.LFE118-.LFB118
 3030 0018 00000000 		.4byte	.LFB119
 3031 001c 78000000 		.4byte	.LFE119-.LFB119
 3032 0020 00000000 		.4byte	0
 3033 0024 00000000 		.4byte	0
 3034              		.section	.debug_ranges,"",%progbits
 3035              	.Ldebug_ranges0:
 3036 0000 00000000 		.4byte	.LFB118
 3037 0004 5C000000 		.4byte	.LFE118
 3038 0008 00000000 		.4byte	.LFB119
 3039 000c 78000000 		.4byte	.LFE119
 3040 0010 00000000 		.4byte	0
 3041 0014 00000000 		.4byte	0
 3042              		.section	.debug_line,"",%progbits
 3043              	.Ldebug_line0:
 3044 0000 56030000 		.section	.debug_str,"MS",%progbits,1
 3044      02001F03 
 3044      00000201 
 3044      FB0E0D00 
 3044      01010101 
 3045              	.LASF146:
 3046 0000 7278636E 		.ascii	"rxcnt\000"
 3046      7400
 3047              	.LASF178:
 3048 0006 53657269 		.ascii	"SerialUSBDriverVMT\000"
 3048      616C5553 
 3048      42447269 
 3048      76657256 
 3048      4D5400
 3049              	.LASF103:
 3050 0019 75736265 		.ascii	"usbep_t\000"
 3050      705F7400 
 3051              	.LASF2:
 3052 0021 73697A65 		.ascii	"size_t\000"
 3052      5F7400
ARM GAS  /tmp/cc6MXJPQ.s 			page 55


 3053              	.LASF165:
 3054 0028 5344555F 		.ascii	"SDU_UNINIT\000"
 3054      554E494E 
 3054      495400
 3055              	.LASF70:
 3056 0033 7264796D 		.ascii	"rdymsg\000"
 3056      736700
 3057              	.LASF19:
 3058 003a 75696E74 		.ascii	"uint64_t\000"
 3058      36345F74 
 3058      00
 3059              	.LASF111:
 3060 0043 5553425F 		.ascii	"USB_EP0_TX\000"
 3060      4550305F 
 3060      545800
 3061              	.LASF3:
 3062 004e 5F5F7569 		.ascii	"__uint8_t\000"
 3062      6E74385F 
 3062      7400
 3063              	.LASF124:
 3064 0058 75736265 		.ascii	"usbevent_t\000"
 3064      76656E74 
 3064      5F7400
 3065              	.LASF65:
 3066 0063 656C5F6C 		.ascii	"el_listener\000"
 3066      69737465 
 3066      6E657200 
 3067              	.LASF154:
 3068 006f 6F75745F 		.ascii	"out_maxsize\000"
 3068      6D617873 
 3068      697A6500 
 3069              	.LASF142:
 3070 007b 72786275 		.ascii	"rxbuf\000"
 3070      6600
 3071              	.LASF14:
 3072 0081 6C6F6E67 		.ascii	"long long unsigned int\000"
 3072      206C6F6E 
 3072      6720756E 
 3072      7369676E 
 3072      65642069 
 3073              	.LASF176:
 3074 0098 696E745F 		.ascii	"int_in\000"
 3074      696E00
 3075              	.LASF71:
 3076 009f 65786974 		.ascii	"exitcode\000"
 3076      636F6465 
 3076      00
 3077              	.LASF202:
 3078 00a8 49544D5F 		.ascii	"ITM_RxBuffer\000"
 3078      52784275 
 3078      66666572 
 3078      00
 3079              	.LASF104:
 3080 00b5 5553425F 		.ascii	"USB_UNINIT\000"
 3080      554E494E 
 3080      495400
 3081              	.LASF199:
ARM GAS  /tmp/cc6MXJPQ.s 			page 56


 3082 00c0 65703163 		.ascii	"ep1config\000"
 3082      6F6E6669 
 3082      6700
 3083              	.LASF34:
 3084 00ca 705F7072 		.ascii	"p_prio\000"
 3084      696F00
 3085              	.LASF127:
 3086 00d1 55534244 		.ascii	"USBDescriptor\000"
 3086      65736372 
 3086      6970746F 
 3086      7200
 3087              	.LASF184:
 3088 00df 72656164 		.ascii	"readt\000"
 3088      7400
 3089              	.LASF76:
 3090 00e5 715F7761 		.ascii	"q_waiting\000"
 3090      6974696E 
 3090      6700
 3091              	.LASF190:
 3092 00ef 76636F6D 		.ascii	"vcom_configuration_descriptor_data\000"
 3092      5F636F6E 
 3092      66696775 
 3092      72617469 
 3092      6F6E5F64 
 3093              	.LASF12:
 3094 0112 6C6F6E67 		.ascii	"long long int\000"
 3094      206C6F6E 
 3094      6720696E 
 3094      7400
 3095              	.LASF1:
 3096 0120 7369676E 		.ascii	"signed char\000"
 3096      65642063 
 3096      68617200 
 3097              	.LASF128:
 3098 012c 75736263 		.ascii	"usbcallback_t\000"
 3098      616C6C62 
 3098      61636B5F 
 3098      7400
 3099              	.LASF200:
 3100 013a 65703269 		.ascii	"ep2instate\000"
 3100      6E737461 
 3100      746500
 3101              	.LASF138:
 3102 0145 74787369 		.ascii	"txsize\000"
 3102      7A6500
 3103              	.LASF51:
 3104 014c 705F6D70 		.ascii	"p_mpool\000"
 3104      6F6F6C00 
 3105              	.LASF20:
 3106 0154 626F6F6C 		.ascii	"bool_t\000"
 3106      5F7400
 3107              	.LASF60:
 3108 015b 6D5F7175 		.ascii	"m_queue\000"
 3108      65756500 
 3109              	.LASF112:
 3110 0163 5553425F 		.ascii	"USB_EP0_WAITING_TX0\000"
 3110      4550305F 
ARM GAS  /tmp/cc6MXJPQ.s 			page 57


 3110      57414954 
 3110      494E475F 
 3110      54583000 
 3111              	.LASF25:
 3112 0177 74736C69 		.ascii	"tslices_t\000"
 3112      6365735F 
 3112      7400
 3113              	.LASF116:
 3114 0181 5553425F 		.ascii	"USB_EP0_ERROR\000"
 3114      4550305F 
 3114      4552524F 
 3114      5200
 3115              	.LASF88:
 3116 018f 73746174 		.ascii	"state\000"
 3116      6500
 3117              	.LASF93:
 3118 0195 6F75745F 		.ascii	"out_params\000"
 3118      70617261 
 3118      6D7300
 3119              	.LASF9:
 3120 01a0 6C6F6E67 		.ascii	"long int\000"
 3120      20696E74 
 3120      00
 3121              	.LASF137:
 3122 01a9 74787175 		.ascii	"txqueued\000"
 3122      65756564 
 3122      00
 3123              	.LASF143:
 3124 01b2 72787175 		.ascii	"rxqueue\000"
 3124      65756500 
 3125              	.LASF186:
 3126 01ba 64696E64 		.ascii	"dindex\000"
 3126      657800
 3127              	.LASF78:
 3128 01c1 715F6275 		.ascii	"q_buffer\000"
 3128      66666572 
 3128      00
 3129              	.LASF208:
 3130 01ca 2F686F6D 		.ascii	"/home/ergae/r2p-sdk/modules/USB_module/usbcfg.c\000"
 3130      652F6572 
 3130      6761652F 
 3130      7232702D 
 3130      73646B2F 
 3131              	.LASF191:
 3132 01fa 76636F6D 		.ascii	"vcom_configuration_descriptor\000"
 3132      5F636F6E 
 3132      66696775 
 3132      72617469 
 3132      6F6E5F64 
 3133              	.LASF23:
 3134 0218 74737461 		.ascii	"tstate_t\000"
 3134      74655F74 
 3134      00
 3135              	.LASF161:
 3136 0221 6765745F 		.ascii	"get_descriptor_cb\000"
 3136      64657363 
 3136      72697074 
ARM GAS  /tmp/cc6MXJPQ.s 			page 58


 3136      6F725F63 
 3136      6200
 3137              	.LASF36:
 3138 0233 705F6E65 		.ascii	"p_newer\000"
 3138      77657200 
 3139              	.LASF75:
 3140 023b 47656E65 		.ascii	"GenericQueue\000"
 3140      72696351 
 3140      75657565 
 3140      00
 3141              	.LASF193:
 3142 0248 76636F6D 		.ascii	"vcom_string1\000"
 3142      5F737472 
 3142      696E6731 
 3142      00
 3143              	.LASF117:
 3144 0255 75736265 		.ascii	"usbep0state_t\000"
 3144      70307374 
 3144      6174655F 
 3144      7400
 3145              	.LASF7:
 3146 0263 73686F72 		.ascii	"short unsigned int\000"
 3146      7420756E 
 3146      7369676E 
 3146      65642069 
 3146      6E7400
 3147              	.LASF123:
 3148 0276 5553425F 		.ascii	"USB_EVENT_STALLED\000"
 3148      4556454E 
 3148      545F5354 
 3148      414C4C45 
 3148      4400
 3149              	.LASF192:
 3150 0288 76636F6D 		.ascii	"vcom_string0\000"
 3150      5F737472 
 3150      696E6730 
 3150      00
 3151              	.LASF54:
 3152 0295 72656761 		.ascii	"regarm_t\000"
 3152      726D5F74 
 3152      00
 3153              	.LASF194:
 3154 029e 76636F6D 		.ascii	"vcom_string2\000"
 3154      5F737472 
 3154      696E6732 
 3154      00
 3155              	.LASF195:
 3156 02ab 76636F6D 		.ascii	"vcom_string3\000"
 3156      5F737472 
 3156      696E6733 
 3156      00
 3157              	.LASF68:
 3158 02b8 4576656E 		.ascii	"EventSource\000"
 3158      74536F75 
 3158      72636500 
 3159              	.LASF157:
 3160 02c4 65705F62 		.ascii	"ep_buffers\000"
ARM GAS  /tmp/cc6MXJPQ.s 			page 59


 3160      75666665 
 3160      727300
 3161              	.LASF204:
 3162 02cf 53445531 		.ascii	"SDU1\000"
 3162      00
 3163              	.LASF135:
 3164 02d4 6C696E65 		.ascii	"linear\000"
 3164      617200
 3165              	.LASF0:
 3166 02db 756E7369 		.ascii	"unsigned int\000"
 3166      676E6564 
 3166      20696E74 
 3166      00
 3167              	.LASF108:
 3168 02e8 5553425F 		.ascii	"USB_ACTIVE\000"
 3168      41435449 
 3168      564500
 3169              	.LASF169:
 3170 02f3 53657269 		.ascii	"SerialUSBDriver\000"
 3170      616C5553 
 3170      42447269 
 3170      76657200 
 3171              	.LASF133:
 3172 0303 74786275 		.ascii	"txbuf\000"
 3172      6600
 3173              	.LASF125:
 3174 0309 75645F73 		.ascii	"ud_size\000"
 3174      697A6500 
 3175              	.LASF205:
 3176 0311 75736263 		.ascii	"usbcfg\000"
 3176      666700
 3177              	.LASF166:
 3178 0318 5344555F 		.ascii	"SDU_STOP\000"
 3178      53544F50 
 3178      00
 3179              	.LASF46:
 3180 0321 705F6D73 		.ascii	"p_msgqueue\000"
 3180      67717565 
 3180      756500
 3181              	.LASF105:
 3182 032c 5553425F 		.ascii	"USB_STOP\000"
 3182      53544F50 
 3182      00
 3183              	.LASF182:
 3184 0335 67657474 		.ascii	"gett\000"
 3184      00
 3185              	.LASF136:
 3186 033a 71756575 		.ascii	"queue\000"
 3186      6500
 3187              	.LASF122:
 3188 0340 5553425F 		.ascii	"USB_EVENT_WAKEUP\000"
 3188      4556454E 
 3188      545F5741 
 3188      4B455550 
 3188      00
 3189              	.LASF198:
 3190 0351 6570316F 		.ascii	"ep1outstate\000"
ARM GAS  /tmp/cc6MXJPQ.s 			page 60


 3190      75747374 
 3190      61746500 
 3191              	.LASF151:
 3192 035d 696E5F63 		.ascii	"in_cb\000"
 3192      6200
 3193              	.LASF95:
 3194 0363 6570306E 		.ascii	"ep0next\000"
 3194      65787400 
 3195              	.LASF170:
 3196 036b 6576656E 		.ascii	"event\000"
 3196      7400
 3197              	.LASF80:
 3198 0371 715F7772 		.ascii	"q_wrptr\000"
 3198      70747200 
 3199              	.LASF160:
 3200 0379 6576656E 		.ascii	"event_cb\000"
 3200      745F6362 
 3200      00
 3201              	.LASF101:
 3202 0382 636F6E66 		.ascii	"configuration\000"
 3202      69677572 
 3202      6174696F 
 3202      6E00
 3203              	.LASF27:
 3204 0390 6D73675F 		.ascii	"msg_t\000"
 3204      7400
 3205              	.LASF172:
 3206 0396 6F717565 		.ascii	"oqueue\000"
 3206      756500
 3207              	.LASF196:
 3208 039d 76636F6D 		.ascii	"vcom_strings\000"
 3208      5F737472 
 3208      696E6773 
 3208      00
 3209              	.LASF64:
 3210 03aa 656C5F6E 		.ascii	"el_next\000"
 3210      65787400 
 3211              	.LASF109:
 3212 03b2 75736273 		.ascii	"usbstate_t\000"
 3212      74617465 
 3212      5F7400
 3213              	.LASF131:
 3214 03bd 75736272 		.ascii	"usbreqhandler_t\000"
 3214      65716861 
 3214      6E646C65 
 3214      725F7400 
 3215              	.LASF188:
 3216 03cd 76636F6D 		.ascii	"vcom_device_descriptor_data\000"
 3216      5F646576 
 3216      6963655F 
 3216      64657363 
 3216      72697074 
 3217              	.LASF183:
 3218 03e9 77726974 		.ascii	"writet\000"
 3218      657400
 3219              	.LASF22:
 3220 03f0 746D6F64 		.ascii	"tmode_t\000"
ARM GAS  /tmp/cc6MXJPQ.s 			page 61


 3220      655F7400 
 3221              	.LASF16:
 3222 03f8 75696E74 		.ascii	"uint16_t\000"
 3222      31365F74 
 3222      00
 3223              	.LASF44:
 3224 0401 705F7469 		.ascii	"p_time\000"
 3224      6D6500
 3225              	.LASF53:
 3226 0408 54687265 		.ascii	"ThreadsList\000"
 3226      6164734C 
 3226      69737400 
 3227              	.LASF28:
 3228 0414 6576656E 		.ascii	"eventmask_t\000"
 3228      746D6173 
 3228      6B5F7400 
 3229              	.LASF91:
 3230 0420 72656365 		.ascii	"receiving\000"
 3230      6976696E 
 3230      6700
 3231              	.LASF84:
 3232 042a 716E6F74 		.ascii	"qnotify_t\000"
 3232      6966795F 
 3232      7400
 3233              	.LASF162:
 3234 0434 72657175 		.ascii	"requests_hook_cb\000"
 3234      65737473 
 3234      5F686F6F 
 3234      6B5F6362 
 3234      00
 3235              	.LASF55:
 3236 0445 73746B61 		.ascii	"stkalign_t\000"
 3236      6C69676E 
 3236      5F7400
 3237              	.LASF203:
 3238 0450 55534244 		.ascii	"USBD1\000"
 3238      3100
 3239              	.LASF174:
 3240 0456 62756C6B 		.ascii	"bulk_in\000"
 3240      5F696E00 
 3241              	.LASF179:
 3242 045e 77726974 		.ascii	"write\000"
 3242      6500
 3243              	.LASF181:
 3244 0464 70757474 		.ascii	"putt\000"
 3244      00
 3245              	.LASF102:
 3246 0469 706D6E65 		.ascii	"pmnext\000"
 3246      787400
 3247              	.LASF115:
 3248 0470 5553425F 		.ascii	"USB_EP0_SENDING_STS\000"
 3248      4550305F 
 3248      53454E44 
 3248      494E475F 
 3248      53545300 
 3249              	.LASF126:
 3250 0484 75645F73 		.ascii	"ud_string\000"
ARM GAS  /tmp/cc6MXJPQ.s 			page 62


 3250      7472696E 
 3250      6700
 3251              	.LASF58:
 3252 048e 73697A65 		.ascii	"sizetype\000"
 3252      74797065 
 3252      00
 3253              	.LASF77:
 3254 0497 715F636F 		.ascii	"q_counter\000"
 3254      756E7465 
 3254      7200
 3255              	.LASF59:
 3256 04a1 4D757465 		.ascii	"Mutex\000"
 3256      7800
 3257              	.LASF100:
 3258 04a7 61646472 		.ascii	"address\000"
 3258      65737300 
 3259              	.LASF156:
 3260 04af 6F75745F 		.ascii	"out_state\000"
 3260      73746174 
 3260      6500
 3261              	.LASF158:
 3262 04b9 73657475 		.ascii	"setup_buf\000"
 3262      705F6275 
 3262      6600
 3263              	.LASF66:
 3264 04c3 656C5F6D 		.ascii	"el_mask\000"
 3264      61736B00 
 3265              	.LASF148:
 3266 04cb 5553424F 		.ascii	"USBOutEndpointState\000"
 3266      7574456E 
 3266      64706F69 
 3266      6E745374 
 3266      61746500 
 3267              	.LASF52:
 3268 04df 54687265 		.ascii	"ThreadsQueue\000"
 3268      61647351 
 3268      75657565 
 3268      00
 3269              	.LASF132:
 3270 04ec 75736267 		.ascii	"usbgetdescriptor_t\000"
 3270      65746465 
 3270      73637269 
 3270      70746F72 
 3270      5F7400
 3271              	.LASF98:
 3272 04ff 73657475 		.ascii	"setup\000"
 3272      7000
 3273              	.LASF39:
 3274 0505 705F7374 		.ascii	"p_stklimit\000"
 3274      6B6C696D 
 3274      697400
 3275              	.LASF42:
 3276 0510 705F7265 		.ascii	"p_refs\000"
 3276      667300
 3277              	.LASF168:
 3278 0517 73647573 		.ascii	"sdustate_t\000"
 3278      74617465 
ARM GAS  /tmp/cc6MXJPQ.s 			page 63


 3278      5F7400
 3279              	.LASF118:
 3280 0522 5553425F 		.ascii	"USB_EVENT_RESET\000"
 3280      4556454E 
 3280      545F5245 
 3280      53455400 
 3281              	.LASF163:
 3282 0532 736F665F 		.ascii	"sof_cb\000"
 3282      636200
 3283              	.LASF134:
 3284 0539 74787175 		.ascii	"txqueue\000"
 3284      65756500 
 3285              	.LASF159:
 3286 0541 55534245 		.ascii	"USBEndpointConfig\000"
 3286      6E64706F 
 3286      696E7443 
 3286      6F6E6669 
 3286      6700
 3287              	.LASF13:
 3288 0553 5F5F7569 		.ascii	"__uint64_t\000"
 3288      6E743634 
 3288      5F7400
 3289              	.LASF150:
 3290 055e 73657475 		.ascii	"setup_cb\000"
 3290      705F6362 
 3290      00
 3291              	.LASF185:
 3292 0567 64747970 		.ascii	"dtype\000"
 3292      6500
 3293              	.LASF206:
 3294 056d 73657275 		.ascii	"serusbcfg\000"
 3294      73626366 
 3294      6700
 3295              	.LASF153:
 3296 0577 696E5F6D 		.ascii	"in_maxsize\000"
 3296      61787369 
 3296      7A6500
 3297              	.LASF24:
 3298 0582 74726566 		.ascii	"trefs_t\000"
 3298      735F7400 
 3299              	.LASF119:
 3300 058a 5553425F 		.ascii	"USB_EVENT_ADDRESS\000"
 3300      4556454E 
 3300      545F4144 
 3300      44524553 
 3300      5300
 3301              	.LASF33:
 3302 059c 705F7072 		.ascii	"p_prev\000"
 3302      657600
 3303              	.LASF26:
 3304 05a3 74707269 		.ascii	"tprio_t\000"
 3304      6F5F7400 
 3305              	.LASF81:
 3306 05ab 715F7264 		.ascii	"q_rdptr\000"
 3306      70747200 
 3307              	.LASF106:
 3308 05b3 5553425F 		.ascii	"USB_READY\000"
ARM GAS  /tmp/cc6MXJPQ.s 			page 64


 3308      52454144 
 3308      5900
 3309              	.LASF96:
 3310 05bd 6570306E 		.ascii	"ep0n\000"
 3310      00
 3311              	.LASF21:
 3312 05c2 5F426F6F 		.ascii	"_Bool\000"
 3312      6C00
 3313              	.LASF17:
 3314 05c8 696E7433 		.ascii	"int32_t\000"
 3314      325F7400 
 3315              	.LASF4:
 3316 05d0 756E7369 		.ascii	"unsigned char\000"
 3316      676E6564 
 3316      20636861 
 3316      7200
 3317              	.LASF210:
 3318 05de 7573625F 		.ascii	"usb_event\000"
 3318      6576656E 
 3318      7400
 3319              	.LASF167:
 3320 05e8 5344555F 		.ascii	"SDU_READY\000"
 3320      52454144 
 3320      5900
 3321              	.LASF67:
 3322 05f2 656C5F66 		.ascii	"el_flags\000"
 3322      6C616773 
 3322      00
 3323              	.LASF49:
 3324 05fb 705F6D74 		.ascii	"p_mtxlist\000"
 3324      786C6973 
 3324      7400
 3325              	.LASF5:
 3326 0605 73686F72 		.ascii	"short int\000"
 3326      7420696E 
 3326      7400
 3327              	.LASF40:
 3328 060f 705F7374 		.ascii	"p_state\000"
 3328      61746500 
 3329              	.LASF43:
 3330 0617 705F7072 		.ascii	"p_preempt\000"
 3330      65656D70 
 3330      7400
 3331              	.LASF37:
 3332 0621 705F6F6C 		.ascii	"p_older\000"
 3332      64657200 
 3333              	.LASF73:
 3334 0629 65776D61 		.ascii	"ewmask\000"
 3334      736B00
 3335              	.LASF32:
 3336 0630 705F6E65 		.ascii	"p_next\000"
 3336      787400
 3337              	.LASF41:
 3338 0637 705F666C 		.ascii	"p_flags\000"
 3338      61677300 
 3339              	.LASF107:
 3340 063f 5553425F 		.ascii	"USB_SELECTED\000"
ARM GAS  /tmp/cc6MXJPQ.s 			page 65


 3340      53454C45 
 3340      43544544 
 3340      00
 3341              	.LASF31:
 3342 064c 54687265 		.ascii	"Thread\000"
 3342      616400
 3343              	.LASF86:
 3344 0653 4F757470 		.ascii	"OutputQueue\000"
 3344      75745175 
 3344      65756500 
 3345              	.LASF29:
 3346 065f 666C6167 		.ascii	"flagsmask_t\000"
 3346      736D6173 
 3346      6B5F7400 
 3347              	.LASF48:
 3348 066b 705F6570 		.ascii	"p_epending\000"
 3348      656E6469 
 3348      6E6700
 3349              	.LASF187:
 3350 0676 6C616E67 		.ascii	"lang\000"
 3350      00
 3351              	.LASF121:
 3352 067b 5553425F 		.ascii	"USB_EVENT_SUSPEND\000"
 3352      4556454E 
 3352      545F5355 
 3352      5350454E 
 3352      4400
 3353              	.LASF94:
 3354 068d 65703073 		.ascii	"ep0state\000"
 3354      74617465 
 3354      00
 3355              	.LASF164:
 3356 0696 55534243 		.ascii	"USBConfig\000"
 3356      6F6E6669 
 3356      6700
 3357              	.LASF90:
 3358 06a0 7472616E 		.ascii	"transmitting\000"
 3358      736D6974 
 3358      74696E67 
 3358      00
 3359              	.LASF147:
 3360 06ad 7278706B 		.ascii	"rxpkts\000"
 3360      747300
 3361              	.LASF11:
 3362 06b4 6C6F6E67 		.ascii	"long unsigned int\000"
 3362      20756E73 
 3362      69676E65 
 3362      6420696E 
 3362      7400
 3363              	.LASF155:
 3364 06c6 696E5F73 		.ascii	"in_state\000"
 3364      74617465 
 3364      00
 3365              	.LASF180:
 3366 06cf 72656164 		.ascii	"read\000"
 3366      00
 3367              	.LASF74:
ARM GAS  /tmp/cc6MXJPQ.s 			page 66


 3368 06d4 63686172 		.ascii	"char\000"
 3368      00
 3369              	.LASF129:
 3370 06d9 75736265 		.ascii	"usbepcallback_t\000"
 3370      7063616C 
 3370      6C626163 
 3370      6B5F7400 
 3371              	.LASF140:
 3372 06e9 6D6F6465 		.ascii	"mode\000"
 3372      00
 3373              	.LASF89:
 3374 06ee 636F6E66 		.ascii	"config\000"
 3374      696700
 3375              	.LASF6:
 3376 06f5 5F5F7569 		.ascii	"__uint16_t\000"
 3376      6E743136 
 3376      5F7400
 3377              	.LASF114:
 3378 0700 5553425F 		.ascii	"USB_EP0_RX\000"
 3378      4550305F 
 3378      525800
 3379              	.LASF62:
 3380 070b 6D5F6E65 		.ascii	"m_next\000"
 3380      787400
 3381              	.LASF30:
 3382 0712 73797374 		.ascii	"systime_t\000"
 3382      696D655F 
 3382      7400
 3383              	.LASF50:
 3384 071c 705F7265 		.ascii	"p_realprio\000"
 3384      616C7072 
 3384      696F00
 3385              	.LASF8:
 3386 0727 5F5F696E 		.ascii	"__int32_t\000"
 3386      7433325F 
 3386      7400
 3387              	.LASF10:
 3388 0731 5F5F7569 		.ascii	"__uint32_t\000"
 3388      6E743332 
 3388      5F7400
 3389              	.LASF120:
 3390 073c 5553425F 		.ascii	"USB_EVENT_CONFIGURED\000"
 3390      4556454E 
 3390      545F434F 
 3390      4E464947 
 3390      55524544 
 3391              	.LASF97:
 3392 0751 65703065 		.ascii	"ep0endcb\000"
 3392      6E646362 
 3392      00
 3393              	.LASF144:
 3394 075a 72787175 		.ascii	"rxqueued\000"
 3394      65756564 
 3394      00
 3395              	.LASF110:
 3396 0763 5553425F 		.ascii	"USB_EP0_WAITING_SETUP\000"
 3396      4550305F 
ARM GAS  /tmp/cc6MXJPQ.s 			page 67


 3396      57414954 
 3396      494E475F 
 3396      53455455 
 3397              	.LASF152:
 3398 0779 6F75745F 		.ascii	"out_cb\000"
 3398      636200
 3399              	.LASF57:
 3400 0780 636F6E74 		.ascii	"context\000"
 3400      65787400 
 3401              	.LASF173:
 3402 0788 75736270 		.ascii	"usbp\000"
 3402      00
 3403              	.LASF56:
 3404 078d 696E7463 		.ascii	"intctx\000"
 3404      747800
 3405              	.LASF149:
 3406 0794 65705F6D 		.ascii	"ep_mode\000"
 3406      6F646500 
 3407              	.LASF201:
 3408 079c 65703263 		.ascii	"ep2config\000"
 3408      6F6E6669 
 3408      6700
 3409              	.LASF139:
 3410 07a6 7478636E 		.ascii	"txcnt\000"
 3410      7400
 3411              	.LASF18:
 3412 07ac 75696E74 		.ascii	"uint32_t\000"
 3412      33325F74 
 3412      00
 3413              	.LASF177:
 3414 07b5 53657269 		.ascii	"SerialUSBConfig\000"
 3414      616C5553 
 3414      42436F6E 
 3414      66696700 
 3415              	.LASF79:
 3416 07c5 715F746F 		.ascii	"q_top\000"
 3416      7000
 3417              	.LASF38:
 3418 07cb 705F6E61 		.ascii	"p_name\000"
 3418      6D6500
 3419              	.LASF189:
 3420 07d2 76636F6D 		.ascii	"vcom_device_descriptor\000"
 3420      5F646576 
 3420      6963655F 
 3420      64657363 
 3420      72697074 
 3421              	.LASF99:
 3422 07e9 73746174 		.ascii	"status\000"
 3422      757300
 3423              	.LASF175:
 3424 07f0 62756C6B 		.ascii	"bulk_out\000"
 3424      5F6F7574 
 3424      00
 3425              	.LASF82:
 3426 07f9 715F6E6F 		.ascii	"q_notify\000"
 3426      74696679 
 3426      00
ARM GAS  /tmp/cc6MXJPQ.s 			page 68


 3427              	.LASF141:
 3428 0802 55534249 		.ascii	"USBInEndpointState\000"
 3428      6E456E64 
 3428      706F696E 
 3428      74537461 
 3428      746500
 3429              	.LASF113:
 3430 0815 5553425F 		.ascii	"USB_EP0_WAITING_STS\000"
 3430      4550305F 
 3430      57414954 
 3430      494E475F 
 3430      53545300 
 3431              	.LASF87:
 3432 0829 55534244 		.ascii	"USBDriver\000"
 3432      72697665 
 3432      7200
 3433              	.LASF15:
 3434 0833 75696E74 		.ascii	"uint8_t\000"
 3434      385F7400 
 3435              	.LASF85:
 3436 083b 496E7075 		.ascii	"InputQueue\000"
 3436      74517565 
 3436      756500
 3437              	.LASF145:
 3438 0846 72787369 		.ascii	"rxsize\000"
 3438      7A6500
 3439              	.LASF209:
 3440 084d 6765745F 		.ascii	"get_descriptor\000"
 3440      64657363 
 3440      72697074 
 3440      6F7200
 3441              	.LASF92:
 3442 085c 696E5F70 		.ascii	"in_params\000"
 3442      6172616D 
 3442      7300
 3443              	.LASF63:
 3444 0866 4576656E 		.ascii	"EventListener\000"
 3444      744C6973 
 3444      74656E65 
 3444      7200
 3445              	.LASF72:
 3446 0874 77746F62 		.ascii	"wtobjp\000"
 3446      6A7000
 3447              	.LASF171:
 3448 087b 69717565 		.ascii	"iqueue\000"
 3448      756500
 3449              	.LASF69:
 3450 0882 65735F6E 		.ascii	"es_next\000"
 3450      65787400 
 3451              	.LASF47:
 3452 088a 705F6D73 		.ascii	"p_msg\000"
 3452      6700
 3453              	.LASF83:
 3454 0890 715F6C69 		.ascii	"q_link\000"
 3454      6E6B00
 3455              	.LASF197:
 3456 0897 65703169 		.ascii	"ep1instate\000"
ARM GAS  /tmp/cc6MXJPQ.s 			page 69


 3456      6E737461 
 3456      746500
 3457              	.LASF130:
 3458 08a2 75736265 		.ascii	"usbeventcb_t\000"
 3458      76656E74 
 3458      63625F74 
 3458      00
 3459              	.LASF61:
 3460 08af 6D5F6F77 		.ascii	"m_owner\000"
 3460      6E657200 
 3461              	.LASF207:
 3462 08b7 474E5520 		.ascii	"GNU C 4.9.3 20141119 (release) [ARM/embedded-4_9-br"
 3462      4320342E 
 3462      392E3320 
 3462      32303134 
 3462      31313139 
 3463 08ea 616E6368 		.ascii	"anch revision 218278] -mcpu=cortex-m4 -mfloat-abi=h"
 3463      20726576 
 3463      6973696F 
 3463      6E203231 
 3463      38323738 
 3464 091d 61726420 		.ascii	"ard -mfpu=fpv4-sp-d16 -mno-thumb-interwork -mthumb "
 3464      2D6D6670 
 3464      753D6670 
 3464      76342D73 
 3464      702D6431 
 3465 0950 2D676764 		.ascii	"-ggdb -O0 -fomit-frame-pointer -falign-functions=16"
 3465      62202D4F 
 3465      30202D66 
 3465      6F6D6974 
 3465      2D667261 
 3466 0983 202D6666 		.ascii	" -ffunction-sections -fdata-sections -fno-common -f"
 3466      756E6374 
 3466      696F6E2D 
 3466      73656374 
 3466      696F6E73 
 3467 09b6 73696E67 		.ascii	"single-precision-constant\000"
 3467      6C652D70 
 3467      72656369 
 3467      73696F6E 
 3467      2D636F6E 
 3468              	.LASF35:
 3469 09d0 705F6374 		.ascii	"p_ctx\000"
 3469      7800
 3470              	.LASF45:
 3471 09d6 705F7761 		.ascii	"p_waiting\000"
 3471      6974696E 
 3471      6700
 3472              		.ident	"GCC: (GNU Tools for ARM Embedded Processors) 4.9.3 20141119 (release) [ARM/embedded-4_9-br
ARM GAS  /tmp/cc6MXJPQ.s 			page 70


DEFINED SYMBOLS
                            *ABS*:00000000 usbcfg.c
     /tmp/cc6MXJPQ.s:25     .bss.SDU1:00000000 SDU1
     /tmp/cc6MXJPQ.s:22     .bss.SDU1:00000000 $d
     /tmp/cc6MXJPQ.s:28     .rodata.vcom_device_descriptor_data:00000000 $d
     /tmp/cc6MXJPQ.s:31     .rodata.vcom_device_descriptor_data:00000000 vcom_device_descriptor_data
     /tmp/cc6MXJPQ.s:51     .rodata.vcom_device_descriptor:00000000 $d
     /tmp/cc6MXJPQ.s:54     .rodata.vcom_device_descriptor:00000000 vcom_device_descriptor
     /tmp/cc6MXJPQ.s:58     .rodata.vcom_configuration_descriptor_data:00000000 $d
     /tmp/cc6MXJPQ.s:61     .rodata.vcom_configuration_descriptor_data:00000000 vcom_configuration_descriptor_data
     /tmp/cc6MXJPQ.s:130    .rodata.vcom_configuration_descriptor:00000000 $d
     /tmp/cc6MXJPQ.s:133    .rodata.vcom_configuration_descriptor:00000000 vcom_configuration_descriptor
     /tmp/cc6MXJPQ.s:137    .rodata.vcom_string0:00000000 $d
     /tmp/cc6MXJPQ.s:140    .rodata.vcom_string0:00000000 vcom_string0
     /tmp/cc6MXJPQ.s:146    .rodata.vcom_string1:00000000 $d
     /tmp/cc6MXJPQ.s:149    .rodata.vcom_string1:00000000 vcom_string1
     /tmp/cc6MXJPQ.s:189    .rodata.vcom_string2:00000000 $d
     /tmp/cc6MXJPQ.s:192    .rodata.vcom_string2:00000000 vcom_string2
     /tmp/cc6MXJPQ.s:250    .rodata.vcom_string3:00000000 $d
     /tmp/cc6MXJPQ.s:253    .rodata.vcom_string3:00000000 vcom_string3
     /tmp/cc6MXJPQ.s:263    .rodata.vcom_strings:00000000 $d
     /tmp/cc6MXJPQ.s:266    .rodata.vcom_strings:00000000 vcom_strings
     /tmp/cc6MXJPQ.s:276    .text.get_descriptor:00000000 $t
     /tmp/cc6MXJPQ.s:281    .text.get_descriptor:00000000 get_descriptor
     /tmp/cc6MXJPQ.s:340    .text.get_descriptor:00000050 $d
     /tmp/cc6MXJPQ.s:347    .bss.ep1instate:00000000 $d
     /tmp/cc6MXJPQ.s:350    .bss.ep1instate:00000000 ep1instate
     /tmp/cc6MXJPQ.s:353    .bss.ep1outstate:00000000 $d
     /tmp/cc6MXJPQ.s:356    .bss.ep1outstate:00000000 ep1outstate
     /tmp/cc6MXJPQ.s:359    .rodata.ep1config:00000000 $d
     /tmp/cc6MXJPQ.s:362    .rodata.ep1config:00000000 ep1config
     /tmp/cc6MXJPQ.s:375    .bss.ep2instate:00000000 $d
     /tmp/cc6MXJPQ.s:378    .bss.ep2instate:00000000 ep2instate
     /tmp/cc6MXJPQ.s:381    .rodata.ep2config:00000000 $d
     /tmp/cc6MXJPQ.s:384    .rodata.ep2config:00000000 ep2config
     /tmp/cc6MXJPQ.s:397    .text.usb_event:00000000 $t
     /tmp/cc6MXJPQ.s:402    .text.usb_event:00000000 usb_event
     /tmp/cc6MXJPQ.s:424    .text.usb_event:0000001c $d
     /tmp/cc6MXJPQ.s:430    .text.usb_event:00000034 $t
     /tmp/cc6MXJPQ.s:477    .text.usb_event:0000006c $d
     /tmp/cc6MXJPQ.s:488    .rodata.usbcfg:00000000 usbcfg
     /tmp/cc6MXJPQ.s:485    .rodata.usbcfg:00000000 $d
     /tmp/cc6MXJPQ.s:498    .rodata.serusbcfg:00000000 serusbcfg
     /tmp/cc6MXJPQ.s:495    .rodata.serusbcfg:00000000 $d
                     .debug_frame:00000010 $d
     /tmp/cc6MXJPQ.s:346    .text.get_descriptor:0000005c $t
     /tmp/cc6MXJPQ.s:484    .text.usb_event:00000078 $t

UNDEFINED SYMBOLS
sduDataTransmitted
sduDataReceived
sduInterruptTransmitted
dbg_check_lock_from_isr
usbInitEndpointI
sduConfigureHookI
dbg_check_unlock_from_isr
sduRequestsHook
ARM GAS  /tmp/cc6MXJPQ.s 			page 71


USBD1
